ARM GAS  C:\Users\Lenovo\AppData\Local\Temp\cctiEzLS.s 			page 1


   1              		.syntax unified
   2              		.cpu cortex-m3
   3              		.fpu softvfp
   4              		.eabi_attribute 20, 1
   5              		.eabi_attribute 21, 1
   6              		.eabi_attribute 23, 3
   7              		.eabi_attribute 24, 1
   8              		.eabi_attribute 25, 1
   9              		.eabi_attribute 26, 1
  10              		.eabi_attribute 30, 6
  11              		.eabi_attribute 34, 1
  12              		.eabi_attribute 18, 4
  13              		.thumb
  14              		.syntax unified
  15              		.file	"Gbr.c"
  16              		.text
  17              	.Ltext0:
  18              		.cfi_sections	.debug_frame
  19              		.comm	PollCounter,2,2
  20              		.comm	CurrentState,1,1
  21              		.comm	Receipt,1,1
  22              		.comm	side,1164,4
  23              		.comm	MepsanResponse,50,4
  24              		.comm	MepsanSendTo,50,4
  25              		.comm	PumpAddress,15,4
  26              		.comm	CRC,2,2
  27              		.comm	crc_lo,1,1
  28              		.comm	crc_hi,1,1
  29              		.comm	Positions,1,1
  30              		.comm	TotalRequestType,1,1
  31              		.comm	DecVol,1,1
  32              		.comm	dirGbr,1,1
  33              		.section	.text.StateTransform,"ax",%progbits
  34              		.align	2
  35              		.global	StateTransform
  36              		.thumb
  37              		.thumb_func
  38              		.type	StateTransform, %function
  39              	StateTransform:
  40              	.LFB63:
  41              		.file 1 "Gbr.c"
   1:Gbr.c         **** /* ========================================
   2:Gbr.c         ****  *
   3:Gbr.c         ****  * Copyright YOUR COMPANY, THE YEAR
   4:Gbr.c         ****  * All Rights Reserved
   5:Gbr.c         ****  * UNPUBLISHED, LICENSED SOFTWARE.
   6:Gbr.c         ****  *
   7:Gbr.c         ****  * CONFIDENTIAL AND PROPRIETARY INFORMATION
   8:Gbr.c         ****  * WHICH IS THE PROPERTY OF your company.
   9:Gbr.c         ****  *
  10:Gbr.c         ****  * ========================================
  11:Gbr.c         **** */
  12:Gbr.c         **** 
  13:Gbr.c         **** /* [] END OF FILE */
  14:Gbr.c         **** #include <GVar.h>
  15:Gbr.c         **** 
  16:Gbr.c         **** void StateTransform(){
ARM GAS  C:\Users\Lenovo\AppData\Local\Temp\cctiEzLS.s 			page 2


  42              		.loc 1 16 0
  43              		.cfi_startproc
  44              		@ args = 0, pretend = 0, frame = 0
  45              		@ frame_needed = 1, uses_anonymous_args = 0
  46 0000 80B5     		push	{r7, lr}
  47              		.cfi_def_cfa_offset 8
  48              		.cfi_offset 7, -8
  49              		.cfi_offset 14, -4
  50 0002 00AF     		add	r7, sp, #0
  51              		.cfi_def_cfa_register 7
  17:Gbr.c         ****     //if(dirGbr == side.a.dir)
  18:Gbr.c         ****     UART_2_PutChar(GILB_IDLE);
  52              		.loc 1 18 0
  53 0004 6020     		movs	r0, #96
  54 0006 FFF7FEFF 		bl	UART_2_PutChar
  19:Gbr.c         ****     
  20:Gbr.c         **** }
  55              		.loc 1 20 0
  56 000a 00BF     		nop
  57 000c 80BD     		pop	{r7, pc}
  58              		.cfi_endproc
  59              	.LFE63:
  60              		.size	StateTransform, .-StateTransform
  61 000e 00BF     		.section	.text.SystemQ,"ax",%progbits
  62              		.align	2
  63              		.global	SystemQ
  64              		.thumb
  65              		.thumb_func
  66              		.type	SystemQ, %function
  67              	SystemQ:
  68              	.LFB64:
  21:Gbr.c         **** 
  22:Gbr.c         **** void SystemQ(){
  69              		.loc 1 22 0
  70              		.cfi_startproc
  71              		@ args = 0, pretend = 0, frame = 8
  72              		@ frame_needed = 1, uses_anonymous_args = 0
  73 0000 80B5     		push	{r7, lr}
  74              		.cfi_def_cfa_offset 8
  75              		.cfi_offset 7, -8
  76              		.cfi_offset 14, -4
  77 0002 82B0     		sub	sp, sp, #8
  78              		.cfi_def_cfa_offset 16
  79 0004 00AF     		add	r7, sp, #0
  80              		.cfi_def_cfa_register 7
  23:Gbr.c         ****     uint8 QSystem;
  24:Gbr.c         ****     uint8 size;
  25:Gbr.c         ****     size = UART_2_GetRxBufferSize();
  81              		.loc 1 25 0
  82 0006 FFF7FEFF 		bl	UART_2_GetRxBufferSize
  83 000a 0346     		mov	r3, r0
  84 000c FB71     		strb	r3, [r7, #7]
  26:Gbr.c         ****     dirGbr = UART_2_ReadRxData()&0x0F;
  85              		.loc 1 26 0
  86 000e FFF7FEFF 		bl	UART_2_ReadRxData
  87 0012 0346     		mov	r3, r0
  88 0014 03F00F03 		and	r3, r3, #15
ARM GAS  C:\Users\Lenovo\AppData\Local\Temp\cctiEzLS.s 			page 3


  89 0018 DAB2     		uxtb	r2, r3
  90 001a 124B     		ldr	r3, .L12
  91 001c 1A70     		strb	r2, [r3]
  27:Gbr.c         ****     if(size== 1){
  92              		.loc 1 27 0
  93 001e FB79     		ldrb	r3, [r7, #7]	@ zero_extendqisi2
  94 0020 012B     		cmp	r3, #1
  95 0022 1BD1     		bne	.L10
  28:Gbr.c         ****         QSystem = UART_2_ReadRxData();
  96              		.loc 1 28 0
  97 0024 FFF7FEFF 		bl	UART_2_ReadRxData
  98 0028 0346     		mov	r3, r0
  99 002a BB71     		strb	r3, [r7, #6]
  29:Gbr.c         ****         switch(QSystem){
 100              		.loc 1 29 0
 101 002c BB79     		ldrb	r3, [r7, #6]	@ zero_extendqisi2
 102 002e 062B     		cmp	r3, #6
 103 0030 14D8     		bhi	.L10
 104 0032 01A2     		adr	r2, .L5
 105 0034 52F823F0 		ldr	pc, [r2, r3, lsl #2]
 106              		.p2align 2
 107              	.L5:
 108 0038 55000000 		.word	.L4+1
 109 003c 5D000000 		.word	.L10+1
 110 0040 5B000000 		.word	.L11+1
 111 0044 5D000000 		.word	.L10+1
 112 0048 5B000000 		.word	.L11+1
 113 004c 5B000000 		.word	.L11+1
 114 0050 5B000000 		.word	.L11+1
 115              		.p2align 1
 116              	.L4:
  30:Gbr.c         ****             case 0:
  31:Gbr.c         ****                 StateTransform();
 117              		.loc 1 31 0
 118 0054 FFF7FEFF 		bl	StateTransform
  32:Gbr.c         ****             break;
 119              		.loc 1 32 0
 120 0058 00E0     		b	.L3
 121              	.L11:
  33:Gbr.c         ****                 
  34:Gbr.c         ****             case 2:
  35:Gbr.c         ****                 
  36:Gbr.c         ****             break;
 122              		.loc 1 36 0
 123 005a 00BF     		nop
 124              	.L3:
 125              	.L10:
  37:Gbr.c         ****             
  38:Gbr.c         ****             case 4:
  39:Gbr.c         ****                 
  40:Gbr.c         ****             break;
  41:Gbr.c         ****             
  42:Gbr.c         ****             case 5:
  43:Gbr.c         ****                 
  44:Gbr.c         ****             break;
  45:Gbr.c         ****                 
  46:Gbr.c         ****             case 6:
ARM GAS  C:\Users\Lenovo\AppData\Local\Temp\cctiEzLS.s 			page 4


  47:Gbr.c         ****                 
  48:Gbr.c         ****             break;
  49:Gbr.c         ****         }
  50:Gbr.c         ****     }
  51:Gbr.c         ****     if(size > 1){
  52:Gbr.c         ****     }
  53:Gbr.c         **** }
 126              		.loc 1 53 0
 127 005c 00BF     		nop
 128 005e 0837     		adds	r7, r7, #8
 129              		.cfi_def_cfa_offset 8
 130 0060 BD46     		mov	sp, r7
 131              		.cfi_def_cfa_register 13
 132              		@ sp needed
 133 0062 80BD     		pop	{r7, pc}
 134              	.L13:
 135              		.align	2
 136              	.L12:
 137 0064 00000000 		.word	dirGbr
 138              		.cfi_endproc
 139              	.LFE64:
 140              		.size	SystemQ, .-SystemQ
 141              		.text
 142              	.Letext0:
 143              		.file 2 "c:\\program files (x86)\\cypress\\psoc creator\\4.2\\psoc creator\\import\\gnu\\arm\\5.4.
 144              		.file 3 "c:\\program files (x86)\\cypress\\psoc creator\\4.2\\psoc creator\\import\\gnu\\arm\\5.4.
 145              		.file 4 "Generated_Source\\PSoC5/cytypes.h"
 146              		.file 5 "./GVar.h"
 147              		.file 6 "Generated_Source\\PSoC5/core_cm3.h"