ARM GAS  C:\Users\Diego\AppData\Local\Temp\ccdqF4gL.s 			page 1


   1              		.syntax unified
   2              		.cpu cortex-m3
   3              		.fpu softvfp
   4              		.eabi_attribute 20, 1
   5              		.eabi_attribute 21, 1
   6              		.eabi_attribute 23, 3
   7              		.eabi_attribute 24, 1
   8              		.eabi_attribute 25, 1
   9              		.eabi_attribute 26, 1
  10              		.eabi_attribute 30, 6
  11              		.eabi_attribute 34, 1
  12              		.eabi_attribute 18, 4
  13              		.thumb
  14              		.syntax unified
  15              		.file	"main.c"
  16              		.text
  17              	.Ltext0:
  18              		.cfi_sections	.debug_frame
  19              		.comm	PollCounter,2,2
  20              		.comm	CurrentState,1,1
  21              		.comm	Receipt,1,1
  22              		.comm	sale_number,6,4
  23              		.comm	sale_number_copy,6,4
  24              		.comm	int_salenumber,1,1
  25              		.comm	shift_number,6,4
  26              		.comm	int_shiftnumber,1,1
  27              		.comm	LCDhose,1,1
  28              		.comm	side,1236,4
  29              		.comm	MepsanResponse,50,4
  30              		.comm	MepsanSendTo,50,4
  31              		.comm	PumpAddress,15,4
  32              		.comm	CRC,2,2
  33              		.comm	crc_lo,1,1
  34              		.comm	crc_hi,1,1
  35              		.comm	Positions,1,1
  36              		.comm	TotalRequestType,1,1
  37              		.comm	DecVol,1,1
  38              		.comm	touch1,20,4
  39              		.comm	dirGbr,1,1
  40              		.section	.text.PollingPos,"ax",%progbits
  41              		.align	2
  42              		.global	PollingPos
  43              		.thumb
  44              		.thumb_func
  45              		.type	PollingPos, %function
  46              	PollingPos:
  47              	.LFB63:
  48              		.file 1 "main.c"
   1:main.c        **** /******************************************************************************
   2:main.c        **** * File Name: main.c
   3:main.c        **** *
   4:main.c        **** * Version: 1.10
   5:main.c        **** *
   6:main.c        **** * Description: This is the source code for the Blinking LED code example.
   7:main.c        **** *
   8:main.c        **** * Related Document: CE195352_PSoC_5LP_Blinking_LED.pdf
   9:main.c        **** *
ARM GAS  C:\Users\Diego\AppData\Local\Temp\ccdqF4gL.s 			page 2


  10:main.c        **** * Hardware Dependency: See CE195352_PSoC_5LP_Blinking_LED.pdf
  11:main.c        **** *
  12:main.c        **** *******************************************************************************
  13:main.c        **** * Copyright (2018), Cypress Semiconductor Corporation. All rights reserved.
  14:main.c        **** *******************************************************************************
  15:main.c        **** * This software, including source code, documentation and related materials
  16:main.c        **** * (“Software”), is owned by Cypress Semiconductor Corporation or one of its
  17:main.c        **** * subsidiaries (“Cypress”) and is protected by and subject to worldwide patent
  18:main.c        **** * protection (United States and foreign), United States copyright laws and
  19:main.c        **** * international treaty provisions. Therefore, you may use this Software only
  20:main.c        **** * as provided in the license agreement accompanying the software package from
  21:main.c        **** * which you obtained this Software (“EULA”).
  22:main.c        **** *
  23:main.c        **** * If no EULA applies, Cypress hereby grants you a personal, nonexclusive,
  24:main.c        **** * non-transferable license to copy, modify, and compile the Software source
  25:main.c        **** * code solely for use in connection with Cypress’s integrated circuit products.
  26:main.c        **** * Any reproduction, modification, translation, compilation, or representation
  27:main.c        **** * of this Software except as specified above is prohibited without the express
  28:main.c        **** * written permission of Cypress.
  29:main.c        **** *
  30:main.c        **** * Disclaimer: THIS SOFTWARE IS PROVIDED AS-IS, WITH NO WARRANTY OF ANY KIND, 
  31:main.c        **** * EXPRESS OR IMPLIED, INCLUDING, BUT NOT LIMITED TO, NONINFRINGEMENT, IMPLIED 
  32:main.c        **** * WARRANTIES OF MERCHANTABILITY AND FITNESS FOR A PARTICULAR PURPOSE. Cypress 
  33:main.c        **** * reserves the right to make changes to the Software without notice. Cypress 
  34:main.c        **** * does not assume any liability arising out of the application or use of the 
  35:main.c        **** * Software or any product or circuit described in the Software. Cypress does 
  36:main.c        **** * not authorize its products for use in any products where a malfunction or 
  37:main.c        **** * failure of the Cypress product may reasonably be expected to result in 
  38:main.c        **** * significant property damage, injury or death (“High Risk Product”). By 
  39:main.c        **** * including Cypress’s product in a High Risk Product, the manufacturer of such 
  40:main.c        **** * system or application assumes all risk of such use and in doing so agrees to 
  41:main.c        **** * indemnify Cypress against all liability.
  42:main.c        **** *******************************************************************************/
  43:main.c        **** 
  44:main.c        **** #include <project.h>
  45:main.c        **** #include <GVar.h>
  46:main.c        **** #include <PumpCom.h>
  47:main.c        **** #include <Gbr.h>
  48:main.c        **** #include <printer.h>
  49:main.c        **** 
  50:main.c        **** 
  51:main.c        **** 
  52:main.c        **** void PollingPos(void){
  49              		.loc 1 52 0
  50              		.cfi_startproc
  51              		@ args = 0, pretend = 0, frame = 0
  52              		@ frame_needed = 1, uses_anonymous_args = 0
  53 0000 80B5     		push	{r7, lr}
  54              		.cfi_def_cfa_offset 8
  55              		.cfi_offset 7, -8
  56              		.cfi_offset 14, -4
  57 0002 00AF     		add	r7, sp, #0
  58              		.cfi_def_cfa_register 7
  53:main.c        ****     uint8 x;
  54:main.c        ****     if(side.a.dir != 0xFF && side.b.dir == 0xFF){
  59              		.loc 1 54 0
  60 0004 844B     		ldr	r3, .L17
ARM GAS  C:\Users\Diego\AppData\Local\Temp\ccdqF4gL.s 			page 3


  61 0006 1B78     		ldrb	r3, [r3]	@ zero_extendqisi2
  62 0008 FF2B     		cmp	r3, #255
  63 000a 07D0     		beq	.L2
  64              		.loc 1 54 0 is_stmt 0 discriminator 1
  65 000c 824B     		ldr	r3, .L17
  66 000e 93F83531 		ldrb	r3, [r3, #309]	@ zero_extendqisi2
  67 0012 FF2B     		cmp	r3, #255
  68 0014 02D1     		bne	.L2
  55:main.c        ****         Positions = 1;
  69              		.loc 1 55 0 is_stmt 1
  70 0016 814B     		ldr	r3, .L17+4
  71 0018 0122     		movs	r2, #1
  72 001a 1A70     		strb	r2, [r3]
  73              	.L2:
  56:main.c        ****     }
  57:main.c        ****     if(side.a.dir != 0xFF && side.b.dir != 0xFF){
  74              		.loc 1 57 0
  75 001c 7E4B     		ldr	r3, .L17
  76 001e 1B78     		ldrb	r3, [r3]	@ zero_extendqisi2
  77 0020 FF2B     		cmp	r3, #255
  78 0022 07D0     		beq	.L3
  79              		.loc 1 57 0 is_stmt 0 discriminator 1
  80 0024 7C4B     		ldr	r3, .L17
  81 0026 93F83531 		ldrb	r3, [r3, #309]	@ zero_extendqisi2
  82 002a FF2B     		cmp	r3, #255
  83 002c 02D0     		beq	.L3
  58:main.c        ****         Positions = 2;
  84              		.loc 1 58 0 is_stmt 1
  85 002e 7B4B     		ldr	r3, .L17+4
  86 0030 0222     		movs	r2, #2
  87 0032 1A70     		strb	r2, [r3]
  88              	.L3:
  59:main.c        ****     }
  60:main.c        **** //    if(side.c.dir != 0xFF && side.d.dir == 0xFF){
  61:main.c        **** //        Positions = 3;
  62:main.c        **** //    }
  63:main.c        **** //    if(side.c.dir != 0xFF && side.d.dir != 0xFF){
  64:main.c        **** //        Positions = 4;
  65:main.c        **** //    }
  66:main.c        **** //    if(Positions == 1){       
  67:main.c        **** //        side.a.states[0] = PumpState(side.a.dir);                                    
  68:main.c        **** //        //ReturnStatus(side.a.dir);        
  69:main.c        **** //    }
  70:main.c        ****     if(Positions == 2){
  89              		.loc 1 70 0
  90 0034 794B     		ldr	r3, .L17+4
  91 0036 1B78     		ldrb	r3, [r3]	@ zero_extendqisi2
  92 0038 022B     		cmp	r3, #2
  93 003a 31D1     		bne	.L4
  71:main.c        ****         if(side.a.MepRequest == MEPSAN_AUTHORIZE){
  94              		.loc 1 71 0
  95 003c 764B     		ldr	r3, .L17
  96 003e 93F82B31 		ldrb	r3, [r3, #299]	@ zero_extendqisi2
  97 0042 062B     		cmp	r3, #6
  98 0044 08D1     		bne	.L5
  72:main.c        ****             Authorize(side.a.dir);
  99              		.loc 1 72 0
ARM GAS  C:\Users\Diego\AppData\Local\Temp\ccdqF4gL.s 			page 4


 100 0046 744B     		ldr	r3, .L17
 101 0048 1B78     		ldrb	r3, [r3]	@ zero_extendqisi2
 102 004a 1846     		mov	r0, r3
 103 004c FFF7FEFF 		bl	Authorize
  73:main.c        ****             side.a.Copy = 0;
 104              		.loc 1 73 0
 105 0050 714B     		ldr	r3, .L17
 106 0052 0022     		movs	r2, #0
 107 0054 83F83421 		strb	r2, [r3, #308]
 108              	.L5:
  74:main.c        ****         }
  75:main.c        ****         if(side.b.MepRequest == MEPSAN_AUTHORIZE){
 109              		.loc 1 75 0
 110 0058 6F4B     		ldr	r3, .L17
 111 005a 93F86032 		ldrb	r3, [r3, #608]	@ zero_extendqisi2
 112 005e 062B     		cmp	r3, #6
 113 0060 09D1     		bne	.L6
  76:main.c        ****             Authorize(side.b.dir);
 114              		.loc 1 76 0
 115 0062 6D4B     		ldr	r3, .L17
 116 0064 93F83531 		ldrb	r3, [r3, #309]	@ zero_extendqisi2
 117 0068 1846     		mov	r0, r3
 118 006a FFF7FEFF 		bl	Authorize
  77:main.c        ****             side.b.Copy = 0;
 119              		.loc 1 77 0
 120 006e 6A4B     		ldr	r3, .L17
 121 0070 0022     		movs	r2, #0
 122 0072 83F86922 		strb	r2, [r3, #617]
 123              	.L6:
  78:main.c        ****         }
  79:main.c        ****         side.a.states[0] = PumpState(side.a.dir);
 124              		.loc 1 79 0
 125 0076 684B     		ldr	r3, .L17
 126 0078 1B78     		ldrb	r3, [r3]	@ zero_extendqisi2
 127 007a 1846     		mov	r0, r3
 128 007c FFF7FEFF 		bl	PumpState
 129 0080 0346     		mov	r3, r0
 130 0082 1A46     		mov	r2, r3
 131 0084 644B     		ldr	r3, .L17
 132 0086 83F84C20 		strb	r2, [r3, #76]
  80:main.c        ****         side.b.states[0] = PumpState(side.b.dir);        
 133              		.loc 1 80 0
 134 008a 634B     		ldr	r3, .L17
 135 008c 93F83531 		ldrb	r3, [r3, #309]	@ zero_extendqisi2
 136 0090 1846     		mov	r0, r3
 137 0092 FFF7FEFF 		bl	PumpState
 138 0096 0346     		mov	r3, r0
 139 0098 1A46     		mov	r2, r3
 140 009a 5F4B     		ldr	r3, .L17
 141 009c 83F88121 		strb	r2, [r3, #385]
 142              	.L4:
  81:main.c        ****                     
  82:main.c        ****     }
  83:main.c        ****     if(Positions == 3){                            
 143              		.loc 1 83 0
 144 00a0 5E4B     		ldr	r3, .L17+4
 145 00a2 1B78     		ldrb	r3, [r3]	@ zero_extendqisi2
ARM GAS  C:\Users\Diego\AppData\Local\Temp\ccdqF4gL.s 			page 5


 146 00a4 032B     		cmp	r3, #3
 147 00a6 4BD1     		bne	.L7
  84:main.c        ****         if(side.a.MepRequest == MEPSAN_AUTHORIZE){
 148              		.loc 1 84 0
 149 00a8 5B4B     		ldr	r3, .L17
 150 00aa 93F82B31 		ldrb	r3, [r3, #299]	@ zero_extendqisi2
 151 00ae 062B     		cmp	r3, #6
 152 00b0 08D1     		bne	.L8
  85:main.c        ****             Authorize(side.a.dir);
 153              		.loc 1 85 0
 154 00b2 594B     		ldr	r3, .L17
 155 00b4 1B78     		ldrb	r3, [r3]	@ zero_extendqisi2
 156 00b6 1846     		mov	r0, r3
 157 00b8 FFF7FEFF 		bl	Authorize
  86:main.c        ****             side.a.Copy = 0;
 158              		.loc 1 86 0
 159 00bc 564B     		ldr	r3, .L17
 160 00be 0022     		movs	r2, #0
 161 00c0 83F83421 		strb	r2, [r3, #308]
 162              	.L8:
  87:main.c        ****         }
  88:main.c        ****         if(side.b.MepRequest == MEPSAN_AUTHORIZE){
 163              		.loc 1 88 0
 164 00c4 544B     		ldr	r3, .L17
 165 00c6 93F86032 		ldrb	r3, [r3, #608]	@ zero_extendqisi2
 166 00ca 062B     		cmp	r3, #6
 167 00cc 09D1     		bne	.L9
  89:main.c        ****             Authorize(side.b.dir);
 168              		.loc 1 89 0
 169 00ce 524B     		ldr	r3, .L17
 170 00d0 93F83531 		ldrb	r3, [r3, #309]	@ zero_extendqisi2
 171 00d4 1846     		mov	r0, r3
 172 00d6 FFF7FEFF 		bl	Authorize
  90:main.c        ****             side.b.Copy = 0;
 173              		.loc 1 90 0
 174 00da 4F4B     		ldr	r3, .L17
 175 00dc 0022     		movs	r2, #0
 176 00de 83F86922 		strb	r2, [r3, #617]
 177              	.L9:
  91:main.c        ****         }
  92:main.c        ****         if(side.c.MepRequest == MEPSAN_AUTHORIZE){
 178              		.loc 1 92 0
 179 00e2 4D4B     		ldr	r3, .L17
 180 00e4 93F89533 		ldrb	r3, [r3, #917]	@ zero_extendqisi2
 181 00e8 062B     		cmp	r3, #6
 182 00ea 09D1     		bne	.L10
  93:main.c        ****             Authorize(side.c.dir);
 183              		.loc 1 93 0
 184 00ec 4A4B     		ldr	r3, .L17
 185 00ee 93F86A32 		ldrb	r3, [r3, #618]	@ zero_extendqisi2
 186 00f2 1846     		mov	r0, r3
 187 00f4 FFF7FEFF 		bl	Authorize
  94:main.c        ****             side.c.Copy = 0;
 188              		.loc 1 94 0
 189 00f8 474B     		ldr	r3, .L17
 190 00fa 0022     		movs	r2, #0
 191 00fc 83F89E23 		strb	r2, [r3, #926]
ARM GAS  C:\Users\Diego\AppData\Local\Temp\ccdqF4gL.s 			page 6


 192              	.L10:
  95:main.c        ****         }
  96:main.c        ****         side.a.states[0] = PumpState(side.a.dir);
 193              		.loc 1 96 0
 194 0100 454B     		ldr	r3, .L17
 195 0102 1B78     		ldrb	r3, [r3]	@ zero_extendqisi2
 196 0104 1846     		mov	r0, r3
 197 0106 FFF7FEFF 		bl	PumpState
 198 010a 0346     		mov	r3, r0
 199 010c 1A46     		mov	r2, r3
 200 010e 424B     		ldr	r3, .L17
 201 0110 83F84C20 		strb	r2, [r3, #76]
  97:main.c        ****         side.b.states[0] = PumpState(side.b.dir);
 202              		.loc 1 97 0
 203 0114 404B     		ldr	r3, .L17
 204 0116 93F83531 		ldrb	r3, [r3, #309]	@ zero_extendqisi2
 205 011a 1846     		mov	r0, r3
 206 011c FFF7FEFF 		bl	PumpState
 207 0120 0346     		mov	r3, r0
 208 0122 1A46     		mov	r2, r3
 209 0124 3C4B     		ldr	r3, .L17
 210 0126 83F88121 		strb	r2, [r3, #385]
  98:main.c        ****         side.c.states[0] = PumpState(side.c.dir);
 211              		.loc 1 98 0
 212 012a 3B4B     		ldr	r3, .L17
 213 012c 93F86A32 		ldrb	r3, [r3, #618]	@ zero_extendqisi2
 214 0130 1846     		mov	r0, r3
 215 0132 FFF7FEFF 		bl	PumpState
 216 0136 0346     		mov	r3, r0
 217 0138 1A46     		mov	r2, r3
 218 013a 374B     		ldr	r3, .L17
 219 013c 83F8B622 		strb	r2, [r3, #694]
 220              	.L7:
  99:main.c        ****         
 100:main.c        ****     }
 101:main.c        ****     if(Positions == 4){
 221              		.loc 1 101 0
 222 0140 364B     		ldr	r3, .L17+4
 223 0142 1B78     		ldrb	r3, [r3]	@ zero_extendqisi2
 224 0144 042B     		cmp	r3, #4
 225 0146 65D1     		bne	.L16
 102:main.c        ****         if(side.a.MepRequest == MEPSAN_AUTHORIZE){
 226              		.loc 1 102 0
 227 0148 334B     		ldr	r3, .L17
 228 014a 93F82B31 		ldrb	r3, [r3, #299]	@ zero_extendqisi2
 229 014e 062B     		cmp	r3, #6
 230 0150 08D1     		bne	.L12
 103:main.c        ****             Authorize(side.a.dir);
 231              		.loc 1 103 0
 232 0152 314B     		ldr	r3, .L17
 233 0154 1B78     		ldrb	r3, [r3]	@ zero_extendqisi2
 234 0156 1846     		mov	r0, r3
 235 0158 FFF7FEFF 		bl	Authorize
 104:main.c        ****             side.a.Copy = 0;
 236              		.loc 1 104 0
 237 015c 2E4B     		ldr	r3, .L17
 238 015e 0022     		movs	r2, #0
ARM GAS  C:\Users\Diego\AppData\Local\Temp\ccdqF4gL.s 			page 7


 239 0160 83F83421 		strb	r2, [r3, #308]
 240              	.L12:
 105:main.c        ****         }
 106:main.c        ****         if(side.b.MepRequest == MEPSAN_AUTHORIZE){
 241              		.loc 1 106 0
 242 0164 2C4B     		ldr	r3, .L17
 243 0166 93F86032 		ldrb	r3, [r3, #608]	@ zero_extendqisi2
 244 016a 062B     		cmp	r3, #6
 245 016c 09D1     		bne	.L13
 107:main.c        ****             Authorize(side.b.dir);
 246              		.loc 1 107 0
 247 016e 2A4B     		ldr	r3, .L17
 248 0170 93F83531 		ldrb	r3, [r3, #309]	@ zero_extendqisi2
 249 0174 1846     		mov	r0, r3
 250 0176 FFF7FEFF 		bl	Authorize
 108:main.c        ****             side.b.Copy = 0;
 251              		.loc 1 108 0
 252 017a 274B     		ldr	r3, .L17
 253 017c 0022     		movs	r2, #0
 254 017e 83F86922 		strb	r2, [r3, #617]
 255              	.L13:
 109:main.c        ****         }
 110:main.c        ****         if(side.c.MepRequest == MEPSAN_AUTHORIZE){
 256              		.loc 1 110 0
 257 0182 254B     		ldr	r3, .L17
 258 0184 93F89533 		ldrb	r3, [r3, #917]	@ zero_extendqisi2
 259 0188 062B     		cmp	r3, #6
 260 018a 09D1     		bne	.L14
 111:main.c        ****             Authorize(side.c.dir);
 261              		.loc 1 111 0
 262 018c 224B     		ldr	r3, .L17
 263 018e 93F86A32 		ldrb	r3, [r3, #618]	@ zero_extendqisi2
 264 0192 1846     		mov	r0, r3
 265 0194 FFF7FEFF 		bl	Authorize
 112:main.c        ****             side.c.Copy = 0;
 266              		.loc 1 112 0
 267 0198 1F4B     		ldr	r3, .L17
 268 019a 0022     		movs	r2, #0
 269 019c 83F89E23 		strb	r2, [r3, #926]
 270              	.L14:
 113:main.c        ****         }
 114:main.c        ****         if(side.d.MepRequest == MEPSAN_AUTHORIZE){
 271              		.loc 1 114 0
 272 01a0 1D4B     		ldr	r3, .L17
 273 01a2 93F8CA34 		ldrb	r3, [r3, #1226]	@ zero_extendqisi2
 274 01a6 062B     		cmp	r3, #6
 275 01a8 09D1     		bne	.L15
 115:main.c        ****             Authorize(side.d.dir);
 276              		.loc 1 115 0
 277 01aa 1B4B     		ldr	r3, .L17
 278 01ac 93F89F33 		ldrb	r3, [r3, #927]	@ zero_extendqisi2
 279 01b0 1846     		mov	r0, r3
 280 01b2 FFF7FEFF 		bl	Authorize
 116:main.c        ****             side.d.Copy = 0;
 281              		.loc 1 116 0
 282 01b6 184B     		ldr	r3, .L17
 283 01b8 0022     		movs	r2, #0
ARM GAS  C:\Users\Diego\AppData\Local\Temp\ccdqF4gL.s 			page 8


 284 01ba 83F8D324 		strb	r2, [r3, #1235]
 285              	.L15:
 117:main.c        ****         }
 118:main.c        ****         side.a.states[0] = PumpState(side.a.dir);
 286              		.loc 1 118 0
 287 01be 164B     		ldr	r3, .L17
 288 01c0 1B78     		ldrb	r3, [r3]	@ zero_extendqisi2
 289 01c2 1846     		mov	r0, r3
 290 01c4 FFF7FEFF 		bl	PumpState
 291 01c8 0346     		mov	r3, r0
 292 01ca 1A46     		mov	r2, r3
 293 01cc 124B     		ldr	r3, .L17
 294 01ce 83F84C20 		strb	r2, [r3, #76]
 119:main.c        ****         side.b.states[0] = PumpState(side.b.dir);
 295              		.loc 1 119 0
 296 01d2 114B     		ldr	r3, .L17
 297 01d4 93F83531 		ldrb	r3, [r3, #309]	@ zero_extendqisi2
 298 01d8 1846     		mov	r0, r3
 299 01da FFF7FEFF 		bl	PumpState
 300 01de 0346     		mov	r3, r0
 301 01e0 1A46     		mov	r2, r3
 302 01e2 0D4B     		ldr	r3, .L17
 303 01e4 83F88121 		strb	r2, [r3, #385]
 120:main.c        ****         side.c.states[0] = PumpState(side.c.dir);
 304              		.loc 1 120 0
 305 01e8 0B4B     		ldr	r3, .L17
 306 01ea 93F86A32 		ldrb	r3, [r3, #618]	@ zero_extendqisi2
 307 01ee 1846     		mov	r0, r3
 308 01f0 FFF7FEFF 		bl	PumpState
 309 01f4 0346     		mov	r3, r0
 310 01f6 1A46     		mov	r2, r3
 311 01f8 074B     		ldr	r3, .L17
 312 01fa 83F8B622 		strb	r2, [r3, #694]
 121:main.c        ****         side.d.states[0] = PumpState(side.d.dir);
 313              		.loc 1 121 0
 314 01fe 064B     		ldr	r3, .L17
 315 0200 93F89F33 		ldrb	r3, [r3, #927]	@ zero_extendqisi2
 316 0204 1846     		mov	r0, r3
 317 0206 FFF7FEFF 		bl	PumpState
 318 020a 0346     		mov	r3, r0
 319 020c 1A46     		mov	r2, r3
 320 020e 024B     		ldr	r3, .L17
 321 0210 83F8EB23 		strb	r2, [r3, #1003]
 322              	.L16:
 122:main.c        ****         
 123:main.c        ****     } 
 124:main.c        **** 
 125:main.c        **** }
 323              		.loc 1 125 0
 324 0214 00BF     		nop
 325 0216 80BD     		pop	{r7, pc}
 326              	.L18:
 327              		.align	2
 328              	.L17:
 329 0218 00000000 		.word	side
 330 021c 00000000 		.word	Positions
 331              		.cfi_endproc
ARM GAS  C:\Users\Diego\AppData\Local\Temp\ccdqF4gL.s 			page 9


 332              	.LFE63:
 333              		.size	PollingPos, .-PollingPos
 334              		.section	.rodata
 335              		.align	2
 336              	.LC0:
 337 0000 31       		.byte	49
 338 0001 32       		.byte	50
 339 0002 33       		.byte	51
 340 0003 34       		.byte	52
 341              		.align	2
 342              	.LC1:
 343 0004 5A       		.byte	90
 344 0005 A5       		.byte	-91
 345 0006 04       		.byte	4
 346 0007 80       		.byte	-128
 347 0008 03       		.byte	3
 348 0009 00       		.byte	0
 349 000a 06       		.byte	6
 350 000b 00       		.align	2
 351              	.LC2:
 352 000c 5A       		.byte	90
 353 000d A5       		.byte	-91
 354 000e 04       		.byte	4
 355 000f 80       		.byte	-128
 356 0010 03       		.byte	3
 357 0011 00       		.byte	0
 358 0012 09       		.byte	9
 359              		.section	.text.main,"ax",%progbits
 360              		.align	2
 361              		.global	main
 362              		.thumb
 363              		.thumb_func
 364              		.type	main, %function
 365              	main:
 366              	.LFB64:
 126:main.c        **** 
 127:main.c        **** /*******************************************************************************
 128:main.c        **** * Function Name: main
 129:main.c        **** ********************************************************************************
 130:main.c        **** *
 131:main.c        **** *
 132:main.c        **** *******************************************************************************/
 133:main.c        **** 
 134:main.c        **** int main()
 135:main.c        **** {
 367              		.loc 1 135 0
 368              		.cfi_startproc
 369              		@ args = 0, pretend = 0, frame = 80
 370              		@ frame_needed = 1, uses_anonymous_args = 0
 371 0000 90B5     		push	{r4, r7, lr}
 372              		.cfi_def_cfa_offset 12
 373              		.cfi_offset 4, -12
 374              		.cfi_offset 7, -8
 375              		.cfi_offset 14, -4
 376 0002 95B0     		sub	sp, sp, #84
 377              		.cfi_def_cfa_offset 96
 378 0004 00AF     		add	r7, sp, #0
ARM GAS  C:\Users\Diego\AppData\Local\Temp\ccdqF4gL.s 			page 10


 379              		.cfi_def_cfa_register 7
 136:main.c        ****     /* Prepare components */
 137:main.c        ****     uint8 x,screen_size,W_autorize,y,temp;
 138:main.c        ****     uint8 passw[4]={'1','2','3','4'};
 380              		.loc 1 138 0
 381 0006 C44A     		ldr	r2, .L218
 382 0008 07F11803 		add	r3, r7, #24
 383 000c 1068     		ldr	r0, [r2]	@ unaligned
 384 000e 1860     		str	r0, [r3]	@ unaligned
 139:main.c        ****     uint8 change_pic[]={0x5A,0xA5,0x04,0x80,0x03,0x00,0x06};
 385              		.loc 1 139 0
 386 0010 C24A     		ldr	r2, .L218+4
 387 0012 07F11003 		add	r3, r7, #16
 388 0016 1068     		ldr	r0, [r2]	@ unaligned
 389 0018 1860     		str	r0, [r3]	@ unaligned
 390 001a 9188     		ldrh	r1, [r2, #4]	@ unaligned
 391 001c 9279     		ldrb	r2, [r2, #6]
 392 001e 9980     		strh	r1, [r3, #4]	@ unaligned
 393 0020 9A71     		strb	r2, [r3, #6]
 140:main.c        ****     uint8 change_pic2[]={0x5A,0xA5,0x04,0x80,0x03,0x00,0x09};
 394              		.loc 1 140 0
 395 0022 BF4A     		ldr	r2, .L218+8
 396 0024 07F10803 		add	r3, r7, #8
 397 0028 1068     		ldr	r0, [r2]	@ unaligned
 398 002a 1860     		str	r0, [r3]	@ unaligned
 399 002c 9188     		ldrh	r1, [r2, #4]	@ unaligned
 400 002e 9279     		ldrb	r2, [r2, #6]
 401 0030 9980     		strh	r1, [r3, #4]	@ unaligned
 402 0032 9A71     		strb	r2, [r3, #6]
 141:main.c        ****     uint8 price_change;
 142:main.c        ****     uint8 auxPrice[5];
 143:main.c        ****     DecVol = 3;
 403              		.loc 1 143 0
 404 0034 BB4B     		ldr	r3, .L218+12
 405 0036 0322     		movs	r2, #3
 406 0038 1A70     		strb	r2, [r3]
 144:main.c        ****     CyDelay(2500);
 407              		.loc 1 144 0
 408 003a 40F6C410 		movw	r0, #2500
 409 003e FFF7FEFF 		bl	CyDelay
 145:main.c        ****     PWM_1_Start(); 
 410              		.loc 1 145 0
 411 0042 FFF7FEFF 		bl	PWM_1_Start
 146:main.c        ****     CyGlobalIntEnable;
 412              		.loc 1 146 0
 413              		.syntax unified
 414              	@ 146 "main.c" 1
 415 0046 62B6     		CPSIE   i
 416              	@ 0 "" 2
 147:main.c        ****     MEPSAN_Start();
 417              		.loc 1 147 0
 418              		.thumb
 419              		.syntax unified
 420 0048 FFF7FEFF 		bl	MEPSAN_Start
 148:main.c        ****     GBCL_Start();
 421              		.loc 1 148 0
 422 004c FFF7FEFF 		bl	GBCL_Start
ARM GAS  C:\Users\Diego\AppData\Local\Temp\ccdqF4gL.s 			page 11


 149:main.c        ****     PRINTER_A_Start();
 423              		.loc 1 149 0
 424 0050 FFF7FEFF 		bl	PRINTER_A_Start
 150:main.c        ****     screen_Start();
 425              		.loc 1 150 0
 426 0054 FFF7FEFF 		bl	screen_Start
 151:main.c        ****     EEPROM_1_Start();
 427              		.loc 1 151 0
 428 0058 FFF7FEFF 		bl	EEPROM_1_Start
 152:main.c        ****     side.a.Copy = 0;
 429              		.loc 1 152 0
 430 005c B24B     		ldr	r3, .L218+16
 431 005e 0022     		movs	r2, #0
 432 0060 83F83421 		strb	r2, [r3, #308]
 153:main.c        ****     side.b.Copy = 0;
 433              		.loc 1 153 0
 434 0064 B04B     		ldr	r3, .L218+16
 435 0066 0022     		movs	r2, #0
 436 0068 83F86922 		strb	r2, [r3, #617]
 154:main.c        **** //    side.c.Copy = 0;
 155:main.c        **** //    side.d.Copy = 0;
 156:main.c        ****     if(EEPROM_1_ReadByte(0) == 0x5A){
 437              		.loc 1 156 0
 438 006c 0020     		movs	r0, #0
 439 006e FFF7FEFF 		bl	EEPROM_1_ReadByte
 440 0072 0346     		mov	r3, r0
 441 0074 5A2B     		cmp	r3, #90
 442 0076 19D1     		bne	.L20
 157:main.c        ****         for(x=0;x<6;x++){
 443              		.loc 1 157 0
 444 0078 0023     		movs	r3, #0
 445 007a 87F84F30 		strb	r3, [r7, #79]
 446 007e 10E0     		b	.L21
 447              	.L22:
 158:main.c        ****     		sale_number[x]=EEPROM_1_ReadByte(x);
 448              		.loc 1 158 0 discriminator 3
 449 0080 97F84F40 		ldrb	r4, [r7, #79]	@ zero_extendqisi2
 450 0084 97F84F30 		ldrb	r3, [r7, #79]	@ zero_extendqisi2
 451 0088 9BB2     		uxth	r3, r3
 452 008a 1846     		mov	r0, r3
 453 008c FFF7FEFF 		bl	EEPROM_1_ReadByte
 454 0090 0346     		mov	r3, r0
 455 0092 1A46     		mov	r2, r3
 456 0094 A54B     		ldr	r3, .L218+20
 457 0096 1A55     		strb	r2, [r3, r4]
 157:main.c        ****         for(x=0;x<6;x++){
 458              		.loc 1 157 0 discriminator 3
 459 0098 97F84F30 		ldrb	r3, [r7, #79]	@ zero_extendqisi2
 460 009c 0133     		adds	r3, r3, #1
 461 009e 87F84F30 		strb	r3, [r7, #79]
 462              	.L21:
 157:main.c        ****         for(x=0;x<6;x++){
 463              		.loc 1 157 0 is_stmt 0 discriminator 1
 464 00a2 97F84F30 		ldrb	r3, [r7, #79]	@ zero_extendqisi2
 465 00a6 052B     		cmp	r3, #5
 466 00a8 EAD9     		bls	.L22
 467 00aa 15E0     		b	.L23
ARM GAS  C:\Users\Diego\AppData\Local\Temp\ccdqF4gL.s 			page 12


 468              	.L20:
 159:main.c        ****     	}
 160:main.c        ****     }else{
 161:main.c        ****         EEPROM_1_WriteByte(0x5A,0);
 469              		.loc 1 161 0 is_stmt 1
 470 00ac 0021     		movs	r1, #0
 471 00ae 5A20     		movs	r0, #90
 472 00b0 FFF7FEFF 		bl	EEPROM_1_WriteByte
 162:main.c        ****         for(x=1;x<6;x++){
 473              		.loc 1 162 0
 474 00b4 0123     		movs	r3, #1
 475 00b6 87F84F30 		strb	r3, [r7, #79]
 476 00ba 09E0     		b	.L24
 477              	.L25:
 163:main.c        ****     		sale_number[x]='0';
 478              		.loc 1 163 0 discriminator 3
 479 00bc 97F84F30 		ldrb	r3, [r7, #79]	@ zero_extendqisi2
 480 00c0 9A4A     		ldr	r2, .L218+20
 481 00c2 3021     		movs	r1, #48
 482 00c4 D154     		strb	r1, [r2, r3]
 162:main.c        ****         for(x=1;x<6;x++){
 483              		.loc 1 162 0 discriminator 3
 484 00c6 97F84F30 		ldrb	r3, [r7, #79]	@ zero_extendqisi2
 485 00ca 0133     		adds	r3, r3, #1
 486 00cc 87F84F30 		strb	r3, [r7, #79]
 487              	.L24:
 162:main.c        ****         for(x=1;x<6;x++){
 488              		.loc 1 162 0 is_stmt 0 discriminator 1
 489 00d0 97F84F30 		ldrb	r3, [r7, #79]	@ zero_extendqisi2
 490 00d4 052B     		cmp	r3, #5
 491 00d6 F1D9     		bls	.L25
 492              	.L23:
 164:main.c        ****     	}
 165:main.c        ****     }
 166:main.c        ****     int_salenumber=((sale_number[5]&0x0F)*10000)+((sale_number[4]&0x0F)*1000)+((sale_number[3]&0x0F
 493              		.loc 1 166 0 is_stmt 1
 494 00d8 944B     		ldr	r3, .L218+20
 495 00da 5B79     		ldrb	r3, [r3, #5]	@ zero_extendqisi2
 496 00dc 03F00F03 		and	r3, r3, #15
 497 00e0 DBB2     		uxtb	r3, r3
 498 00e2 1B01     		lsls	r3, r3, #4
 499 00e4 DAB2     		uxtb	r2, r3
 500 00e6 914B     		ldr	r3, .L218+20
 501 00e8 1B79     		ldrb	r3, [r3, #4]	@ zero_extendqisi2
 502 00ea 03F00F03 		and	r3, r3, #15
 503 00ee DBB2     		uxtb	r3, r3
 504 00f0 1946     		mov	r1, r3
 505 00f2 9B00     		lsls	r3, r3, #2
 506 00f4 CB1A     		subs	r3, r1, r3
 507 00f6 DB00     		lsls	r3, r3, #3
 508 00f8 DBB2     		uxtb	r3, r3
 509 00fa 1344     		add	r3, r3, r2
 510 00fc DAB2     		uxtb	r2, r3
 511 00fe 8B4B     		ldr	r3, .L218+20
 512 0100 9B78     		ldrb	r3, [r3, #2]	@ zero_extendqisi2
 513 0102 03F00F03 		and	r3, r3, #15
 514 0106 DBB2     		uxtb	r3, r3
ARM GAS  C:\Users\Diego\AppData\Local\Temp\ccdqF4gL.s 			page 13


 515 0108 1946     		mov	r1, r3
 516 010a 8900     		lsls	r1, r1, #2
 517 010c 0B44     		add	r3, r3, r1
 518 010e 5B00     		lsls	r3, r3, #1
 519 0110 D9B2     		uxtb	r1, r3
 520 0112 864B     		ldr	r3, .L218+20
 521 0114 DB78     		ldrb	r3, [r3, #3]	@ zero_extendqisi2
 522 0116 03F00F03 		and	r3, r3, #15
 523 011a DBB2     		uxtb	r3, r3
 524 011c 1846     		mov	r0, r3
 525 011e 8000     		lsls	r0, r0, #2
 526 0120 0344     		add	r3, r3, r0
 527 0122 1846     		mov	r0, r3
 528 0124 8400     		lsls	r4, r0, #2
 529 0126 1846     		mov	r0, r3
 530 0128 2346     		mov	r3, r4
 531 012a 0344     		add	r3, r3, r0
 532 012c 9B00     		lsls	r3, r3, #2
 533 012e DBB2     		uxtb	r3, r3
 534 0130 0B44     		add	r3, r3, r1
 535 0132 DBB2     		uxtb	r3, r3
 536 0134 1344     		add	r3, r3, r2
 537 0136 DAB2     		uxtb	r2, r3
 538 0138 7C4B     		ldr	r3, .L218+20
 539 013a 5B78     		ldrb	r3, [r3, #1]	@ zero_extendqisi2
 540 013c 03F00F03 		and	r3, r3, #15
 541 0140 DBB2     		uxtb	r3, r3
 542 0142 1344     		add	r3, r3, r2
 543 0144 DAB2     		uxtb	r2, r3
 544 0146 7A4B     		ldr	r3, .L218+24
 545 0148 1A70     		strb	r2, [r3]
 167:main.c        ****     if(EEPROM_1_ReadByte(6) == 0x5A){
 546              		.loc 1 167 0
 547 014a 0620     		movs	r0, #6
 548 014c FFF7FEFF 		bl	EEPROM_1_ReadByte
 549 0150 0346     		mov	r3, r0
 550 0152 5A2B     		cmp	r3, #90
 551 0154 1CD1     		bne	.L26
 168:main.c        ****         for(x=0;x<6;x++){
 552              		.loc 1 168 0
 553 0156 0023     		movs	r3, #0
 554 0158 87F84F30 		strb	r3, [r7, #79]
 555 015c 13E0     		b	.L27
 556              	.L28:
 169:main.c        ****     		shift_number[x+6]=EEPROM_1_ReadByte(x+6);
 557              		.loc 1 169 0 discriminator 3
 558 015e 97F84F30 		ldrb	r3, [r7, #79]	@ zero_extendqisi2
 559 0162 9C1D     		adds	r4, r3, #6
 560 0164 97F84F30 		ldrb	r3, [r7, #79]	@ zero_extendqisi2
 561 0168 9BB2     		uxth	r3, r3
 562 016a 0633     		adds	r3, r3, #6
 563 016c 9BB2     		uxth	r3, r3
 564 016e 1846     		mov	r0, r3
 565 0170 FFF7FEFF 		bl	EEPROM_1_ReadByte
 566 0174 0346     		mov	r3, r0
 567 0176 1A46     		mov	r2, r3
 568 0178 6E4B     		ldr	r3, .L218+28
ARM GAS  C:\Users\Diego\AppData\Local\Temp\ccdqF4gL.s 			page 14


 569 017a 1A55     		strb	r2, [r3, r4]
 168:main.c        ****         for(x=0;x<6;x++){
 570              		.loc 1 168 0 discriminator 3
 571 017c 97F84F30 		ldrb	r3, [r7, #79]	@ zero_extendqisi2
 572 0180 0133     		adds	r3, r3, #1
 573 0182 87F84F30 		strb	r3, [r7, #79]
 574              	.L27:
 168:main.c        ****         for(x=0;x<6;x++){
 575              		.loc 1 168 0 is_stmt 0 discriminator 1
 576 0186 97F84F30 		ldrb	r3, [r7, #79]	@ zero_extendqisi2
 577 018a 052B     		cmp	r3, #5
 578 018c E7D9     		bls	.L28
 579 018e 16E0     		b	.L29
 580              	.L26:
 170:main.c        ****     	}
 171:main.c        ****     }else{
 172:main.c        ****         EEPROM_1_WriteByte(0x5A,6);
 581              		.loc 1 172 0 is_stmt 1
 582 0190 0621     		movs	r1, #6
 583 0192 5A20     		movs	r0, #90
 584 0194 FFF7FEFF 		bl	EEPROM_1_WriteByte
 173:main.c        ****         for(x=1;x<6;x++){
 585              		.loc 1 173 0
 586 0198 0123     		movs	r3, #1
 587 019a 87F84F30 		strb	r3, [r7, #79]
 588 019e 0AE0     		b	.L30
 589              	.L31:
 174:main.c        ****     		shift_number[x+6]='0';
 590              		.loc 1 174 0 discriminator 3
 591 01a0 97F84F30 		ldrb	r3, [r7, #79]	@ zero_extendqisi2
 592 01a4 0633     		adds	r3, r3, #6
 593 01a6 634A     		ldr	r2, .L218+28
 594 01a8 3021     		movs	r1, #48
 595 01aa D154     		strb	r1, [r2, r3]
 173:main.c        ****         for(x=1;x<6;x++){
 596              		.loc 1 173 0 discriminator 3
 597 01ac 97F84F30 		ldrb	r3, [r7, #79]	@ zero_extendqisi2
 598 01b0 0133     		adds	r3, r3, #1
 599 01b2 87F84F30 		strb	r3, [r7, #79]
 600              	.L30:
 173:main.c        ****         for(x=1;x<6;x++){
 601              		.loc 1 173 0 is_stmt 0 discriminator 1
 602 01b6 97F84F30 		ldrb	r3, [r7, #79]	@ zero_extendqisi2
 603 01ba 052B     		cmp	r3, #5
 604 01bc F0D9     		bls	.L31
 605              	.L29:
 175:main.c        ****     	}
 176:main.c        ****     }
 177:main.c        ****     int_shiftnumber=((shift_number[5]&0x0F)*10000)+((shift_number[4]&0x0F)*1000)+((shift_number[3]&
 606              		.loc 1 177 0 is_stmt 1
 607 01be 5D4B     		ldr	r3, .L218+28
 608 01c0 5B79     		ldrb	r3, [r3, #5]	@ zero_extendqisi2
 609 01c2 03F00F03 		and	r3, r3, #15
 610 01c6 DBB2     		uxtb	r3, r3
 611 01c8 1B01     		lsls	r3, r3, #4
 612 01ca DAB2     		uxtb	r2, r3
 613 01cc 594B     		ldr	r3, .L218+28
ARM GAS  C:\Users\Diego\AppData\Local\Temp\ccdqF4gL.s 			page 15


 614 01ce 1B79     		ldrb	r3, [r3, #4]	@ zero_extendqisi2
 615 01d0 03F00F03 		and	r3, r3, #15
 616 01d4 DBB2     		uxtb	r3, r3
 617 01d6 1946     		mov	r1, r3
 618 01d8 9B00     		lsls	r3, r3, #2
 619 01da CB1A     		subs	r3, r1, r3
 620 01dc DB00     		lsls	r3, r3, #3
 621 01de DBB2     		uxtb	r3, r3
 622 01e0 1344     		add	r3, r3, r2
 623 01e2 DAB2     		uxtb	r2, r3
 624 01e4 534B     		ldr	r3, .L218+28
 625 01e6 9B78     		ldrb	r3, [r3, #2]	@ zero_extendqisi2
 626 01e8 03F00F03 		and	r3, r3, #15
 627 01ec DBB2     		uxtb	r3, r3
 628 01ee 1946     		mov	r1, r3
 629 01f0 8900     		lsls	r1, r1, #2
 630 01f2 0B44     		add	r3, r3, r1
 631 01f4 5B00     		lsls	r3, r3, #1
 632 01f6 D9B2     		uxtb	r1, r3
 633 01f8 4E4B     		ldr	r3, .L218+28
 634 01fa DB78     		ldrb	r3, [r3, #3]	@ zero_extendqisi2
 635 01fc 03F00F03 		and	r3, r3, #15
 636 0200 DBB2     		uxtb	r3, r3
 637 0202 1846     		mov	r0, r3
 638 0204 8000     		lsls	r0, r0, #2
 639 0206 0344     		add	r3, r3, r0
 640 0208 1846     		mov	r0, r3
 641 020a 8400     		lsls	r4, r0, #2
 642 020c 1846     		mov	r0, r3
 643 020e 2346     		mov	r3, r4
 644 0210 0344     		add	r3, r3, r0
 645 0212 9B00     		lsls	r3, r3, #2
 646 0214 DBB2     		uxtb	r3, r3
 647 0216 0B44     		add	r3, r3, r1
 648 0218 DBB2     		uxtb	r3, r3
 649 021a 1344     		add	r3, r3, r2
 650 021c DAB2     		uxtb	r2, r3
 651 021e 454B     		ldr	r3, .L218+28
 652 0220 5B78     		ldrb	r3, [r3, #1]	@ zero_extendqisi2
 653 0222 03F00F03 		and	r3, r3, #15
 654 0226 DBB2     		uxtb	r3, r3
 655 0228 1344     		add	r3, r3, r2
 656 022a DAB2     		uxtb	r2, r3
 657 022c 424B     		ldr	r3, .L218+32
 658 022e 1A70     		strb	r2, [r3]
 178:main.c        ****     
 179:main.c        ****         
 180:main.c        **** //    for(x = 0; x < 3; x ++){
 181:main.c        **** //        side.a.ppuNozzle[0][x] = EEPROM_1_ReadByte(12 + x);
 182:main.c        **** //        side.a.ppuNozzle[1][x] = EEPROM_1_ReadByte(15 + x);
 183:main.c        **** //        side.a.ppuNozzle[2][x] = EEPROM_1_ReadByte(18 + x);
 184:main.c        **** //        side.a.ppuNozzle[3][x] = EEPROM_1_ReadByte(21 + x);
 185:main.c        **** //        side.b.ppuNozzle[0][x] = EEPROM_1_ReadByte(24 + x);
 186:main.c        **** //        side.b.ppuNozzle[1][x] = EEPROM_1_ReadByte(27 + x);
 187:main.c        **** //        side.b.ppuNozzle[2][x] = EEPROM_1_ReadByte(30 + x);
 188:main.c        **** //        side.b.ppuNozzle[3][x] = EEPROM_1_ReadByte(33 + x);
 189:main.c        **** //    }
ARM GAS  C:\Users\Diego\AppData\Local\Temp\ccdqF4gL.s 			page 16


 190:main.c        **** //    
 191:main.c        **** //    side.a.ProcessedPPU[0][0] = (side.a.ppuNozzle[0][0] >> 4) + 0x30;
 192:main.c        **** //    side.a.ProcessedPPU[0][1] = (side.a.ppuNozzle[0][0] & 0x0F) + 0x30;
 193:main.c        **** //    side.a.ProcessedPPU[0][2] = (side.a.ppuNozzle[0][1] >> 4) + 0x30;
 194:main.c        **** //    side.a.ProcessedPPU[0][3] = (side.a.ppuNozzle[0][1] & 0x0F) + 0x30;
 195:main.c        **** //    side.a.ProcessedPPU[0][4] = (side.a.ppuNozzle[0][2] >> 4) + 0x30;
 196:main.c        **** //    side.a.ProcessedPPU[0][5] = (side.a.ppuNozzle[0][2] & 0x0F) + 0x30;
 197:main.c        **** //    
 198:main.c        **** //    side.b.ProcessedPPU[0][0] = (side.b.ppuNozzle[0][0] >> 4) + 0x30;
 199:main.c        **** //    side.b.ProcessedPPU[0][1] = (side.b.ppuNozzle[0][0] & 0x0F) + 0x30;
 200:main.c        **** //    side.b.ProcessedPPU[0][2] = (side.b.ppuNozzle[0][1] >> 4) + 0x30;
 201:main.c        **** //    side.b.ProcessedPPU[0][3] = (side.b.ppuNozzle[0][1] & 0x0F) + 0x30;
 202:main.c        **** //    side.b.ProcessedPPU[0][4] = (side.b.ppuNozzle[0][2] >> 4) + 0x30;
 203:main.c        **** //    side.b.ProcessedPPU[0][5] = (side.b.ppuNozzle[0][2] & 0x0F) + 0x30;
 204:main.c        ****     
 205:main.c        ****     //while(side.a.dir == 0xFF){
 206:main.c        ****     //    for(uint8 y = 0; y < 16; y ++){
 207:main.c        ****     //        PumpAddress[y] = GetAddress(y); //Posiciones activas      
 208:main.c        ****     //    } 
 209:main.c        ****     //}
 210:main.c        ****     
 211:main.c        ****     //side.a.dir = PumpAddress[1];
 212:main.c        ****     //side.b.dir = PumpAddress[2];
 213:main.c        ****     //side.c.dir = PumpAddress[3];
 214:main.c        ****     //side.d.dir = PumpAddress[4]; 
 215:main.c        ****     side.a.dir = 0x00;
 659              		.loc 1 215 0
 660 0230 3D4B     		ldr	r3, .L218+16
 661 0232 0022     		movs	r2, #0
 662 0234 1A70     		strb	r2, [r3]
 216:main.c        ****     side.b.dir = 0x01;
 663              		.loc 1 216 0
 664 0236 3C4B     		ldr	r3, .L218+16
 665 0238 0122     		movs	r2, #1
 666 023a 83F83521 		strb	r2, [r3, #309]
 217:main.c        ****     //side.c.dir = 0x02;
 218:main.c        ****     //side.d.dir = 0x03;
 219:main.c        ****     TotalRequestType = 0; 
 667              		.loc 1 219 0
 668 023e 3F4B     		ldr	r3, .L218+36
 669 0240 0022     		movs	r2, #0
 670 0242 1A70     		strb	r2, [r3]
 220:main.c        ****     W_autorize = 0;        
 671              		.loc 1 220 0
 672 0244 0023     		movs	r3, #0
 673 0246 87F84E30 		strb	r3, [r7, #78]
 221:main.c        ****     LCDhose = 0;
 674              		.loc 1 221 0
 675 024a 3D4B     		ldr	r3, .L218+40
 676 024c 0022     		movs	r2, #0
 677 024e 1A70     		strb	r2, [r3]
 222:main.c        ****     Positions = 2;
 678              		.loc 1 222 0
 679 0250 3C4B     		ldr	r3, .L218+44
 680 0252 0222     		movs	r2, #2
 681 0254 1A70     		strb	r2, [r3]
 682              	.L208:
ARM GAS  C:\Users\Diego\AppData\Local\Temp\ccdqF4gL.s 			page 17


 223:main.c        ****     for (;;)
 224:main.c        ****     {
 225:main.c        ****         PollingPos(); 
 683              		.loc 1 225 0
 684 0256 FFF7FEFF 		bl	PollingPos
 226:main.c        ****         //screen_PutChar(0x5A);
 227:main.c        ****         screen_size = screen_GetRxBufferSize();
 685              		.loc 1 227 0
 686 025a FFF7FEFF 		bl	screen_GetRxBufferSize
 687 025e 0346     		mov	r3, r0
 688 0260 3B77     		strb	r3, [r7, #28]
 228:main.c        ****         if(screen_size >= 5 ){
 689              		.loc 1 228 0
 690 0262 3B7F     		ldrb	r3, [r7, #28]	@ zero_extendqisi2
 691 0264 042B     		cmp	r3, #4
 692 0266 15D9     		bls	.L32
 693              	.LBB2:
 229:main.c        ****             for(uint8 LCDRx = 0; LCDRx < screen_size; LCDRx++){
 694              		.loc 1 229 0
 695 0268 0023     		movs	r3, #0
 696 026a 87F84B30 		strb	r3, [r7, #75]
 697 026e 0CE0     		b	.L33
 698              	.L34:
 230:main.c        ****                 touch1[LCDRx] = screen_ReadRxData();
 699              		.loc 1 230 0 discriminator 3
 700 0270 97F84B40 		ldrb	r4, [r7, #75]	@ zero_extendqisi2
 701 0274 FFF7FEFF 		bl	screen_ReadRxData
 702 0278 0346     		mov	r3, r0
 703 027a 1A46     		mov	r2, r3
 704 027c 324B     		ldr	r3, .L218+48
 705 027e 1A55     		strb	r2, [r3, r4]
 229:main.c        ****             for(uint8 LCDRx = 0; LCDRx < screen_size; LCDRx++){
 706              		.loc 1 229 0 discriminator 3
 707 0280 97F84B30 		ldrb	r3, [r7, #75]	@ zero_extendqisi2
 708 0284 0133     		adds	r3, r3, #1
 709 0286 87F84B30 		strb	r3, [r7, #75]
 710              	.L33:
 229:main.c        ****             for(uint8 LCDRx = 0; LCDRx < screen_size; LCDRx++){
 711              		.loc 1 229 0 is_stmt 0 discriminator 1
 712 028a 97F84B20 		ldrb	r2, [r7, #75]	@ zero_extendqisi2
 713 028e 3B7F     		ldrb	r3, [r7, #28]	@ zero_extendqisi2
 714 0290 9A42     		cmp	r2, r3
 715 0292 EDD3     		bcc	.L34
 716              	.L32:
 717              	.LBE2:
 231:main.c        ****             }            
 232:main.c        ****         }
 233:main.c        ****         CyDelay(4);
 718              		.loc 1 233 0 is_stmt 1
 719 0294 0420     		movs	r0, #4
 720 0296 FFF7FEFF 		bl	CyDelay
 234:main.c        ****         switch(touch1[8]){
 721              		.loc 1 234 0
 722 029a 2B4B     		ldr	r3, .L218+48
 723 029c 1B7A     		ldrb	r3, [r3, #8]	@ zero_extendqisi2
 724 029e 1C2B     		cmp	r3, #28
 725 02a0 64D0     		beq	.L36
ARM GAS  C:\Users\Diego\AppData\Local\Temp\ccdqF4gL.s 			page 18


 726 02a2 1C2B     		cmp	r3, #28
 727 02a4 13DC     		bgt	.L37
 728 02a6 0A2B     		cmp	r3, #10
 729 02a8 00F08E80 		beq	.L38
 730 02ac 0A2B     		cmp	r3, #10
 731 02ae 04DC     		bgt	.L39
 732 02b0 012B     		cmp	r3, #1
 733 02b2 20D0     		beq	.L40
 734 02b4 022B     		cmp	r3, #2
 735 02b6 23D0     		beq	.L41
 736 02b8 DEE3     		b	.L35
 737              	.L39:
 738 02ba 0C2B     		cmp	r3, #12
 739 02bc 00F0B781 		beq	.L42
 740 02c0 0C2B     		cmp	r3, #12
 741 02c2 C0F22081 		blt	.L43
 742 02c6 0D2B     		cmp	r3, #13
 743 02c8 00F04B82 		beq	.L44
 744 02cc D4E3     		b	.L35
 745              	.L37:
 746 02ce AA2B     		cmp	r3, #170
 747 02d0 1BD0     		beq	.L45
 748 02d2 AA2B     		cmp	r3, #170
 749 02d4 06DC     		bgt	.L46
 750 02d6 4E2B     		cmp	r3, #78
 751 02d8 00F08E83 		beq	.L47
 752 02dc 532B     		cmp	r3, #83
 753 02de 00F05183 		beq	.L48
 754 02e2 C9E3     		b	.L35
 755              	.L46:
 756 02e4 CC2B     		cmp	r3, #204
 757 02e6 00F0D082 		beq	.L49
 758 02ea E12B     		cmp	r3, #225
 759 02ec 00F0B383 		beq	.L50
 760 02f0 CA2B     		cmp	r3, #202
 761 02f2 52D0     		beq	.L51
 762 02f4 C0E3     		b	.L35
 763              	.L40:
 235:main.c        ****             case 0x01:
 236:main.c        ****                 W_autorize = 0xE1;
 764              		.loc 1 236 0
 765 02f6 E123     		movs	r3, #225
 766 02f8 87F84E30 		strb	r3, [r7, #78]
 237:main.c        ****             break;
 767              		.loc 1 237 0
 768 02fc 01F0C4B8 		b	.L52
 769              	.L41:
 238:main.c        ****             case 0x02:
 239:main.c        ****                 W_autorize = 0xE2;
 770              		.loc 1 239 0
 771 0300 E223     		movs	r3, #226
 772 0302 87F84E30 		strb	r3, [r7, #78]
 240:main.c        ****             break;
 773              		.loc 1 240 0
 774 0306 01F0BFB8 		b	.L52
 775              	.L45:
 241:main.c        ****         	case 0xAA:
ARM GAS  C:\Users\Diego\AppData\Local\Temp\ccdqF4gL.s 			page 19


 242:main.c        ****         		W_autorize = 1;
 776              		.loc 1 242 0
 777 030a 0123     		movs	r3, #1
 778 030c 87F84E30 		strb	r3, [r7, #78]
 779              	.LBB3:
 243:main.c        ****         		for(uint8 LCDRx = 0; LCDRx < 20; LCDRx++){
 780              		.loc 1 243 0
 781 0310 0023     		movs	r3, #0
 782 0312 87F84A30 		strb	r3, [r7, #74]
 783 0316 23E0     		b	.L53
 784              	.L219:
 785              		.align	2
 786              	.L218:
 787 0318 00000000 		.word	.LC0
 788 031c 04000000 		.word	.LC1
 789 0320 0C000000 		.word	.LC2
 790 0324 00000000 		.word	DecVol
 791 0328 00000000 		.word	side
 792 032c 00000000 		.word	sale_number
 793 0330 00000000 		.word	int_salenumber
 794 0334 00000000 		.word	shift_number
 795 0338 00000000 		.word	int_shiftnumber
 796 033c 00000000 		.word	TotalRequestType
 797 0340 00000000 		.word	LCDhose
 798 0344 00000000 		.word	Positions
 799 0348 00000000 		.word	touch1
 800              	.L54:
 244:main.c        ****         			touch1[LCDRx] = 0x00;
 801              		.loc 1 244 0 discriminator 3
 802 034c 97F84A30 		ldrb	r3, [r7, #74]	@ zero_extendqisi2
 803 0350 BF4A     		ldr	r2, .L220
 804 0352 0021     		movs	r1, #0
 805 0354 D154     		strb	r1, [r2, r3]
 243:main.c        ****         		for(uint8 LCDRx = 0; LCDRx < 20; LCDRx++){
 806              		.loc 1 243 0 discriminator 3
 807 0356 97F84A30 		ldrb	r3, [r7, #74]	@ zero_extendqisi2
 808 035a 0133     		adds	r3, r3, #1
 809 035c 87F84A30 		strb	r3, [r7, #74]
 810              	.L53:
 243:main.c        ****         		for(uint8 LCDRx = 0; LCDRx < 20; LCDRx++){
 811              		.loc 1 243 0 is_stmt 0 discriminator 1
 812 0360 97F84A30 		ldrb	r3, [r7, #74]	@ zero_extendqisi2
 813 0364 132B     		cmp	r3, #19
 814 0366 F1D9     		bls	.L54
 815              	.LBE3:
 245:main.c        ****         		}
 246:main.c        ****         	break;
 816              		.loc 1 246 0 is_stmt 1
 817 0368 01F08EB8 		b	.L52
 818              	.L36:
 247:main.c        ****         	case 0x1C:
 248:main.c        ****         		W_autorize = 'k';
 819              		.loc 1 248 0
 820 036c 6B23     		movs	r3, #107
 821 036e 87F84E30 		strb	r3, [r7, #78]
 822              	.LBB4:
 249:main.c        ****         		for(uint8 LCDRx = 0; LCDRx < 20; LCDRx++){
ARM GAS  C:\Users\Diego\AppData\Local\Temp\ccdqF4gL.s 			page 20


 823              		.loc 1 249 0
 824 0372 0023     		movs	r3, #0
 825 0374 87F84930 		strb	r3, [r7, #73]
 826 0378 09E0     		b	.L55
 827              	.L56:
 250:main.c        ****         			touch1[LCDRx] = 0x00;
 828              		.loc 1 250 0 discriminator 3
 829 037a 97F84930 		ldrb	r3, [r7, #73]	@ zero_extendqisi2
 830 037e B44A     		ldr	r2, .L220
 831 0380 0021     		movs	r1, #0
 832 0382 D154     		strb	r1, [r2, r3]
 249:main.c        ****         		for(uint8 LCDRx = 0; LCDRx < 20; LCDRx++){
 833              		.loc 1 249 0 discriminator 3
 834 0384 97F84930 		ldrb	r3, [r7, #73]	@ zero_extendqisi2
 835 0388 0133     		adds	r3, r3, #1
 836 038a 87F84930 		strb	r3, [r7, #73]
 837              	.L55:
 249:main.c        ****         		for(uint8 LCDRx = 0; LCDRx < 20; LCDRx++){
 838              		.loc 1 249 0 is_stmt 0 discriminator 1
 839 038e 97F84930 		ldrb	r3, [r7, #73]	@ zero_extendqisi2
 840 0392 132B     		cmp	r3, #19
 841 0394 F1D9     		bls	.L56
 842              	.LBE4:
 251:main.c        ****         		}		
 252:main.c        ****         	break;
 843              		.loc 1 252 0 is_stmt 1
 844 0396 01F077B8 		b	.L52
 845              	.L51:
 253:main.c        ****         	case 0xCA:
 254:main.c        ****         		W_autorize = 3;
 846              		.loc 1 254 0
 847 039a 0323     		movs	r3, #3
 848 039c 87F84E30 		strb	r3, [r7, #78]
 849              	.LBB5:
 255:main.c        ****         		for(uint8 LCDRx = 0; LCDRx < 20; LCDRx++){
 850              		.loc 1 255 0
 851 03a0 0023     		movs	r3, #0
 852 03a2 87F84830 		strb	r3, [r7, #72]
 853 03a6 09E0     		b	.L57
 854              	.L58:
 256:main.c        ****         			touch1[LCDRx] = 0x00;
 855              		.loc 1 256 0 discriminator 3
 856 03a8 97F84830 		ldrb	r3, [r7, #72]	@ zero_extendqisi2
 857 03ac A84A     		ldr	r2, .L220
 858 03ae 0021     		movs	r1, #0
 859 03b0 D154     		strb	r1, [r2, r3]
 255:main.c        ****         		for(uint8 LCDRx = 0; LCDRx < 20; LCDRx++){
 860              		.loc 1 255 0 discriminator 3
 861 03b2 97F84830 		ldrb	r3, [r7, #72]	@ zero_extendqisi2
 862 03b6 0133     		adds	r3, r3, #1
 863 03b8 87F84830 		strb	r3, [r7, #72]
 864              	.L57:
 255:main.c        ****         		for(uint8 LCDRx = 0; LCDRx < 20; LCDRx++){
 865              		.loc 1 255 0 is_stmt 0 discriminator 1
 866 03bc 97F84830 		ldrb	r3, [r7, #72]	@ zero_extendqisi2
 867 03c0 132B     		cmp	r3, #19
 868 03c2 F1D9     		bls	.L58
ARM GAS  C:\Users\Diego\AppData\Local\Temp\ccdqF4gL.s 			page 21


 869              	.LBE5:
 257:main.c        ****         		}		
 258:main.c        ****         	break;             
 870              		.loc 1 258 0 is_stmt 1
 871 03c4 01F060B8 		b	.L52
 872              	.L38:
 259:main.c        ****         	case 0x0A:
 260:main.c        ****         		if(W_autorize == 1){
 873              		.loc 1 260 0
 874 03c8 97F84E30 		ldrb	r3, [r7, #78]	@ zero_extendqisi2
 875 03cc 012B     		cmp	r3, #1
 876 03ce 19D1     		bne	.L59
 261:main.c        ****         			W_autorize = 0;                    
 877              		.loc 1 261 0
 878 03d0 0023     		movs	r3, #0
 879 03d2 87F84E30 		strb	r3, [r7, #78]
 262:main.c        ****                     //PriceUpdate(side.a.dir,side.a.ppuNozzle[0]);
 263:main.c        ****                     Authorize(side.a.dir);
 880              		.loc 1 263 0
 881 03d6 9F4B     		ldr	r3, .L220+4
 882 03d8 1B78     		ldrb	r3, [r3]	@ zero_extendqisi2
 883 03da 1846     		mov	r0, r3
 884 03dc FFF7FEFF 		bl	Authorize
 885              	.LBB6:
 264:main.c        ****                     for(uint8 LCDRx = 0; LCDRx < 20; LCDRx++){
 886              		.loc 1 264 0
 887 03e0 0023     		movs	r3, #0
 888 03e2 87F84730 		strb	r3, [r7, #71]
 889 03e6 09E0     		b	.L60
 890              	.L61:
 265:main.c        ****                         touch1[LCDRx] = 0x00;
 891              		.loc 1 265 0 discriminator 3
 892 03e8 97F84730 		ldrb	r3, [r7, #71]	@ zero_extendqisi2
 893 03ec 984A     		ldr	r2, .L220
 894 03ee 0021     		movs	r1, #0
 895 03f0 D154     		strb	r1, [r2, r3]
 264:main.c        ****                     for(uint8 LCDRx = 0; LCDRx < 20; LCDRx++){
 896              		.loc 1 264 0 discriminator 3
 897 03f2 97F84730 		ldrb	r3, [r7, #71]	@ zero_extendqisi2
 898 03f6 0133     		adds	r3, r3, #1
 899 03f8 87F84730 		strb	r3, [r7, #71]
 900              	.L60:
 264:main.c        ****                     for(uint8 LCDRx = 0; LCDRx < 20; LCDRx++){
 901              		.loc 1 264 0 is_stmt 0 discriminator 1
 902 03fc 97F84730 		ldrb	r3, [r7, #71]	@ zero_extendqisi2
 903 0400 132B     		cmp	r3, #19
 904 0402 F1D9     		bls	.L61
 905              	.L59:
 906              	.LBE6:
 266:main.c        ****                     }
 267:main.c        ****         		}
 268:main.c        ****         		if(W_autorize == 2){ 
 907              		.loc 1 268 0 is_stmt 1
 908 0404 97F84E30 		ldrb	r3, [r7, #78]	@ zero_extendqisi2
 909 0408 022B     		cmp	r3, #2
 910 040a 26D1     		bne	.L62
 269:main.c        ****                     W_autorize = 0x0A;
ARM GAS  C:\Users\Diego\AppData\Local\Temp\ccdqF4gL.s 			page 22


 911              		.loc 1 269 0
 912 040c 0A23     		movs	r3, #10
 913 040e 87F84E30 		strb	r3, [r7, #78]
 270:main.c        ****                     PumpState(side.a.dir);            
 914              		.loc 1 270 0
 915 0412 904B     		ldr	r3, .L220+4
 916 0414 1B78     		ldrb	r3, [r3]	@ zero_extendqisi2
 917 0416 1846     		mov	r0, r3
 918 0418 FFF7FEFF 		bl	PumpState
 271:main.c        ****                     TotalRequest(side.a.dir, TotalRequestType, 1); //dir 0, volume, nozzle 1       
 919              		.loc 1 271 0
 920 041c 8D4B     		ldr	r3, .L220+4
 921 041e 1878     		ldrb	r0, [r3]	@ zero_extendqisi2
 922 0420 8D4B     		ldr	r3, .L220+8
 923 0422 1B78     		ldrb	r3, [r3]	@ zero_extendqisi2
 924 0424 0122     		movs	r2, #1
 925 0426 1946     		mov	r1, r3
 926 0428 FFF7FEFF 		bl	TotalRequest
 272:main.c        ****                     PumpState(side.a.dir);
 927              		.loc 1 272 0
 928 042c 894B     		ldr	r3, .L220+4
 929 042e 1B78     		ldrb	r3, [r3]	@ zero_extendqisi2
 930 0430 1846     		mov	r0, r3
 931 0432 FFF7FEFF 		bl	PumpState
 932              	.LBB7:
 273:main.c        ****                     for(uint8 LCDRx = 0; LCDRx < 20; LCDRx++){
 933              		.loc 1 273 0
 934 0436 0023     		movs	r3, #0
 935 0438 87F84630 		strb	r3, [r7, #70]
 936 043c 09E0     		b	.L63
 937              	.L64:
 274:main.c        ****                         touch1[LCDRx] = 0x00;
 938              		.loc 1 274 0 discriminator 3
 939 043e 97F84630 		ldrb	r3, [r7, #70]	@ zero_extendqisi2
 940 0442 834A     		ldr	r2, .L220
 941 0444 0021     		movs	r1, #0
 942 0446 D154     		strb	r1, [r2, r3]
 273:main.c        ****                     for(uint8 LCDRx = 0; LCDRx < 20; LCDRx++){
 943              		.loc 1 273 0 discriminator 3
 944 0448 97F84630 		ldrb	r3, [r7, #70]	@ zero_extendqisi2
 945 044c 0133     		adds	r3, r3, #1
 946 044e 87F84630 		strb	r3, [r7, #70]
 947              	.L63:
 273:main.c        ****                     for(uint8 LCDRx = 0; LCDRx < 20; LCDRx++){
 948              		.loc 1 273 0 is_stmt 0 discriminator 1
 949 0452 97F84630 		ldrb	r3, [r7, #70]	@ zero_extendqisi2
 950 0456 132B     		cmp	r3, #19
 951 0458 F1D9     		bls	.L64
 952              	.L62:
 953              	.LBE7:
 275:main.c        ****                     }                    
 276:main.c        ****         		}
 277:main.c        ****                 if(W_autorize == 'k'){                    
 954              		.loc 1 277 0 is_stmt 1
 955 045a 97F84E30 		ldrb	r3, [r7, #78]	@ zero_extendqisi2
 956 045e 6B2B     		cmp	r3, #107
 957 0460 41F00380 		bne	.L209
ARM GAS  C:\Users\Diego\AppData\Local\Temp\ccdqF4gL.s 			page 23


 278:main.c        ****                     W_autorize = 0x1A; 
 958              		.loc 1 278 0
 959 0464 1A23     		movs	r3, #26
 960 0466 87F84E30 		strb	r3, [r7, #78]
 279:main.c        ****                     PumpState(side.a.dir);            
 961              		.loc 1 279 0
 962 046a 7A4B     		ldr	r3, .L220+4
 963 046c 1B78     		ldrb	r3, [r3]	@ zero_extendqisi2
 964 046e 1846     		mov	r0, r3
 965 0470 FFF7FEFF 		bl	PumpState
 280:main.c        ****                     TotalRequest(side.a.dir, TotalRequestType, 1); //dir 0, volume, nozzle 1       
 966              		.loc 1 280 0
 967 0474 774B     		ldr	r3, .L220+4
 968 0476 1878     		ldrb	r0, [r3]	@ zero_extendqisi2
 969 0478 774B     		ldr	r3, .L220+8
 970 047a 1B78     		ldrb	r3, [r3]	@ zero_extendqisi2
 971 047c 0122     		movs	r2, #1
 972 047e 1946     		mov	r1, r3
 973 0480 FFF7FEFF 		bl	TotalRequest
 281:main.c        ****                     PumpState(side.a.dir);
 974              		.loc 1 281 0
 975 0484 734B     		ldr	r3, .L220+4
 976 0486 1B78     		ldrb	r3, [r3]	@ zero_extendqisi2
 977 0488 1846     		mov	r0, r3
 978 048a FFF7FEFF 		bl	PumpState
 979              	.LBB8:
 282:main.c        ****                     for(uint8 LCDRx = 0; LCDRx < 20; LCDRx++){
 980              		.loc 1 282 0
 981 048e 0023     		movs	r3, #0
 982 0490 87F84530 		strb	r3, [r7, #69]
 983 0494 09E0     		b	.L66
 984              	.L67:
 283:main.c        ****                         touch1[LCDRx] = 0x00;
 985              		.loc 1 283 0 discriminator 3
 986 0496 97F84530 		ldrb	r3, [r7, #69]	@ zero_extendqisi2
 987 049a 6D4A     		ldr	r2, .L220
 988 049c 0021     		movs	r1, #0
 989 049e D154     		strb	r1, [r2, r3]
 282:main.c        ****                     for(uint8 LCDRx = 0; LCDRx < 20; LCDRx++){
 990              		.loc 1 282 0 discriminator 3
 991 04a0 97F84530 		ldrb	r3, [r7, #69]	@ zero_extendqisi2
 992 04a4 0133     		adds	r3, r3, #1
 993 04a6 87F84530 		strb	r3, [r7, #69]
 994              	.L66:
 282:main.c        ****                     for(uint8 LCDRx = 0; LCDRx < 20; LCDRx++){
 995              		.loc 1 282 0 is_stmt 0 discriminator 1
 996 04aa 97F84530 		ldrb	r3, [r7, #69]	@ zero_extendqisi2
 997 04ae 132B     		cmp	r3, #19
 998 04b0 F1D9     		bls	.L67
 999              	.LBE8:
 1000              	.LBB9:
 284:main.c        ****                     }
 285:main.c        ****                     for(uint8 LCDRx = 0; LCDRx < 8; LCDRx++){
 1001              		.loc 1 285 0 is_stmt 1
 1002 04b2 0023     		movs	r3, #0
 1003 04b4 87F84430 		strb	r3, [r7, #68]
 1004 04b8 0BE0     		b	.L68
ARM GAS  C:\Users\Diego\AppData\Local\Temp\ccdqF4gL.s 			page 24


 1005              	.L69:
 286:main.c        ****                         side.a.msn_plate[LCDRx] = 0x20;
 1006              		.loc 1 286 0 discriminator 3
 1007 04ba 97F84430 		ldrb	r3, [r7, #68]	@ zero_extendqisi2
 1008 04be 654A     		ldr	r2, .L220+4
 1009 04c0 1344     		add	r3, r3, r2
 1010 04c2 2022     		movs	r2, #32
 1011 04c4 83F82321 		strb	r2, [r3, #291]
 285:main.c        ****                         side.a.msn_plate[LCDRx] = 0x20;
 1012              		.loc 1 285 0 discriminator 3
 1013 04c8 97F84430 		ldrb	r3, [r7, #68]	@ zero_extendqisi2
 1014 04cc 0133     		adds	r3, r3, #1
 1015 04ce 87F84430 		strb	r3, [r7, #68]
 1016              	.L68:
 285:main.c        ****                         side.a.msn_plate[LCDRx] = 0x20;
 1017              		.loc 1 285 0 is_stmt 0 discriminator 1
 1018 04d2 97F84430 		ldrb	r3, [r7, #68]	@ zero_extendqisi2
 1019 04d6 072B     		cmp	r3, #7
 1020 04d8 EFD9     		bls	.L69
 1021              	.LBE9:
 1022              	.LBB10:
 287:main.c        ****                     }
 288:main.c        ****                     for(uint8 LCDRx = 0; LCDRx < 6; LCDRx++){
 1023              		.loc 1 288 0 is_stmt 1
 1024 04da 0023     		movs	r3, #0
 1025 04dc 87F84330 		strb	r3, [r7, #67]
 1026 04e0 0BE0     		b	.L70
 1027              	.L71:
 289:main.c        ****                         side.a.km[LCDRx] = 0x20;
 1028              		.loc 1 289 0 discriminator 3
 1029 04e2 97F84330 		ldrb	r3, [r7, #67]	@ zero_extendqisi2
 1030 04e6 5B4A     		ldr	r2, .L220+4
 1031 04e8 1344     		add	r3, r3, r2
 1032 04ea 2022     		movs	r2, #32
 1033 04ec 83F82D21 		strb	r2, [r3, #301]
 288:main.c        ****                         side.a.km[LCDRx] = 0x20;
 1034              		.loc 1 288 0 discriminator 3
 1035 04f0 97F84330 		ldrb	r3, [r7, #67]	@ zero_extendqisi2
 1036 04f4 0133     		adds	r3, r3, #1
 1037 04f6 87F84330 		strb	r3, [r7, #67]
 1038              	.L70:
 288:main.c        ****                         side.a.km[LCDRx] = 0x20;
 1039              		.loc 1 288 0 is_stmt 0 discriminator 1
 1040 04fa 97F84330 		ldrb	r3, [r7, #67]	@ zero_extendqisi2
 1041 04fe 052B     		cmp	r3, #5
 1042 0500 EFD9     		bls	.L71
 1043              	.LBE10:
 290:main.c        ****                     }                                        
 291:main.c        ****         		}
 292:main.c        ****         	break;            
 1044              		.loc 1 292 0 is_stmt 1
 1045 0502 00F0B2BF 		b	.L209
 1046              	.L43:
 293:main.c        ****         	case 0x0B:
 294:main.c        ****         		if(W_autorize == 1){
 1047              		.loc 1 294 0
 1048 0506 97F84E30 		ldrb	r3, [r7, #78]	@ zero_extendqisi2
ARM GAS  C:\Users\Diego\AppData\Local\Temp\ccdqF4gL.s 			page 25


 1049 050a 012B     		cmp	r3, #1
 1050 050c 1AD1     		bne	.L72
 295:main.c        ****         			W_autorize = 0;
 1051              		.loc 1 295 0
 1052 050e 0023     		movs	r3, #0
 1053 0510 87F84E30 		strb	r3, [r7, #78]
 296:main.c        ****                     //PriceUpdate(side.b.dir,side.b.ppuNozzle[0]);
 297:main.c        ****                     Authorize(side.b.dir);
 1054              		.loc 1 297 0
 1055 0514 4F4B     		ldr	r3, .L220+4
 1056 0516 93F83531 		ldrb	r3, [r3, #309]	@ zero_extendqisi2
 1057 051a 1846     		mov	r0, r3
 1058 051c FFF7FEFF 		bl	Authorize
 1059              	.LBB11:
 298:main.c        ****                     for(uint8 LCDRx = 0; LCDRx < 20; LCDRx++){
 1060              		.loc 1 298 0
 1061 0520 0023     		movs	r3, #0
 1062 0522 87F84230 		strb	r3, [r7, #66]
 1063 0526 09E0     		b	.L73
 1064              	.L74:
 299:main.c        ****                         touch1[LCDRx] = 0x00;
 1065              		.loc 1 299 0 discriminator 3
 1066 0528 97F84230 		ldrb	r3, [r7, #66]	@ zero_extendqisi2
 1067 052c 484A     		ldr	r2, .L220
 1068 052e 0021     		movs	r1, #0
 1069 0530 D154     		strb	r1, [r2, r3]
 298:main.c        ****                     for(uint8 LCDRx = 0; LCDRx < 20; LCDRx++){
 1070              		.loc 1 298 0 discriminator 3
 1071 0532 97F84230 		ldrb	r3, [r7, #66]	@ zero_extendqisi2
 1072 0536 0133     		adds	r3, r3, #1
 1073 0538 87F84230 		strb	r3, [r7, #66]
 1074              	.L73:
 298:main.c        ****                     for(uint8 LCDRx = 0; LCDRx < 20; LCDRx++){
 1075              		.loc 1 298 0 is_stmt 0 discriminator 1
 1076 053c 97F84230 		ldrb	r3, [r7, #66]	@ zero_extendqisi2
 1077 0540 132B     		cmp	r3, #19
 1078 0542 F1D9     		bls	.L74
 1079              	.L72:
 1080              	.LBE11:
 300:main.c        ****                     }
 301:main.c        ****         		}
 302:main.c        ****         		if(W_autorize == 2){
 1081              		.loc 1 302 0 is_stmt 1
 1082 0544 97F84E30 		ldrb	r3, [r7, #78]	@ zero_extendqisi2
 1083 0548 022B     		cmp	r3, #2
 1084 054a 17D1     		bne	.L75
 303:main.c        ****                     W_autorize = 0x0B;
 1085              		.loc 1 303 0
 1086 054c 0B23     		movs	r3, #11
 1087 054e 87F84E30 		strb	r3, [r7, #78]
 304:main.c        ****                     PumpState(side.b.dir);            
 1088              		.loc 1 304 0
 1089 0552 404B     		ldr	r3, .L220+4
 1090 0554 93F83531 		ldrb	r3, [r3, #309]	@ zero_extendqisi2
 1091 0558 1846     		mov	r0, r3
 1092 055a FFF7FEFF 		bl	PumpState
 305:main.c        ****                     TotalRequest(side.b.dir, TotalRequestType, 1); //dir 0, volume, nozzle 1       
ARM GAS  C:\Users\Diego\AppData\Local\Temp\ccdqF4gL.s 			page 26


 1093              		.loc 1 305 0
 1094 055e 3D4B     		ldr	r3, .L220+4
 1095 0560 93F83501 		ldrb	r0, [r3, #309]	@ zero_extendqisi2
 1096 0564 3C4B     		ldr	r3, .L220+8
 1097 0566 1B78     		ldrb	r3, [r3]	@ zero_extendqisi2
 1098 0568 0122     		movs	r2, #1
 1099 056a 1946     		mov	r1, r3
 1100 056c FFF7FEFF 		bl	TotalRequest
 306:main.c        ****                     PumpState(side.b.dir);                     
 1101              		.loc 1 306 0
 1102 0570 384B     		ldr	r3, .L220+4
 1103 0572 93F83531 		ldrb	r3, [r3, #309]	@ zero_extendqisi2
 1104 0576 1846     		mov	r0, r3
 1105 0578 FFF7FEFF 		bl	PumpState
 1106              	.L75:
 307:main.c        ****                 }                
 308:main.c        ****                 if(W_autorize == 'k'){                    
 1107              		.loc 1 308 0
 1108 057c 97F84E30 		ldrb	r3, [r7, #78]	@ zero_extendqisi2
 1109 0580 6B2B     		cmp	r3, #107
 1110 0582 40F07487 		bne	.L210
 309:main.c        ****                     W_autorize = 0x1B; 
 1111              		.loc 1 309 0
 1112 0586 1B23     		movs	r3, #27
 1113 0588 87F84E30 		strb	r3, [r7, #78]
 310:main.c        ****                     PumpState(side.b.dir);            
 1114              		.loc 1 310 0
 1115 058c 314B     		ldr	r3, .L220+4
 1116 058e 93F83531 		ldrb	r3, [r3, #309]	@ zero_extendqisi2
 1117 0592 1846     		mov	r0, r3
 1118 0594 FFF7FEFF 		bl	PumpState
 311:main.c        ****                     TotalRequest(side.b.dir, TotalRequestType, 1); //dir 0, volume, nozzle 1       
 1119              		.loc 1 311 0
 1120 0598 2E4B     		ldr	r3, .L220+4
 1121 059a 93F83501 		ldrb	r0, [r3, #309]	@ zero_extendqisi2
 1122 059e 2E4B     		ldr	r3, .L220+8
 1123 05a0 1B78     		ldrb	r3, [r3]	@ zero_extendqisi2
 1124 05a2 0122     		movs	r2, #1
 1125 05a4 1946     		mov	r1, r3
 1126 05a6 FFF7FEFF 		bl	TotalRequest
 312:main.c        ****                     PumpState(side.b.dir);
 1127              		.loc 1 312 0
 1128 05aa 2A4B     		ldr	r3, .L220+4
 1129 05ac 93F83531 		ldrb	r3, [r3, #309]	@ zero_extendqisi2
 1130 05b0 1846     		mov	r0, r3
 1131 05b2 FFF7FEFF 		bl	PumpState
 1132              	.LBB12:
 313:main.c        ****                     for(uint8 LCDRx = 0; LCDRx < 20; LCDRx++){
 1133              		.loc 1 313 0
 1134 05b6 0023     		movs	r3, #0
 1135 05b8 87F84130 		strb	r3, [r7, #65]
 1136 05bc 09E0     		b	.L77
 1137              	.L78:
 314:main.c        ****                         touch1[LCDRx] = 0x00;
 1138              		.loc 1 314 0 discriminator 3
 1139 05be 97F84130 		ldrb	r3, [r7, #65]	@ zero_extendqisi2
 1140 05c2 234A     		ldr	r2, .L220
ARM GAS  C:\Users\Diego\AppData\Local\Temp\ccdqF4gL.s 			page 27


 1141 05c4 0021     		movs	r1, #0
 1142 05c6 D154     		strb	r1, [r2, r3]
 313:main.c        ****                     for(uint8 LCDRx = 0; LCDRx < 20; LCDRx++){
 1143              		.loc 1 313 0 discriminator 3
 1144 05c8 97F84130 		ldrb	r3, [r7, #65]	@ zero_extendqisi2
 1145 05cc 0133     		adds	r3, r3, #1
 1146 05ce 87F84130 		strb	r3, [r7, #65]
 1147              	.L77:
 313:main.c        ****                     for(uint8 LCDRx = 0; LCDRx < 20; LCDRx++){
 1148              		.loc 1 313 0 is_stmt 0 discriminator 1
 1149 05d2 97F84130 		ldrb	r3, [r7, #65]	@ zero_extendqisi2
 1150 05d6 132B     		cmp	r3, #19
 1151 05d8 F1D9     		bls	.L78
 1152              	.LBE12:
 1153              	.LBB13:
 315:main.c        ****                     }
 316:main.c        ****                     for(uint8 LCDRx = 0; LCDRx < 8; LCDRx++){
 1154              		.loc 1 316 0 is_stmt 1
 1155 05da 0023     		movs	r3, #0
 1156 05dc 87F84030 		strb	r3, [r7, #64]
 1157 05e0 0BE0     		b	.L79
 1158              	.L80:
 317:main.c        ****                         side.b.msn_plate[LCDRx] = 0x20;
 1159              		.loc 1 317 0 discriminator 3
 1160 05e2 97F84030 		ldrb	r3, [r7, #64]	@ zero_extendqisi2
 1161 05e6 1B4A     		ldr	r2, .L220+4
 1162 05e8 1344     		add	r3, r3, r2
 1163 05ea 2022     		movs	r2, #32
 1164 05ec 83F85822 		strb	r2, [r3, #600]
 316:main.c        ****                         side.b.msn_plate[LCDRx] = 0x20;
 1165              		.loc 1 316 0 discriminator 3
 1166 05f0 97F84030 		ldrb	r3, [r7, #64]	@ zero_extendqisi2
 1167 05f4 0133     		adds	r3, r3, #1
 1168 05f6 87F84030 		strb	r3, [r7, #64]
 1169              	.L79:
 316:main.c        ****                         side.b.msn_plate[LCDRx] = 0x20;
 1170              		.loc 1 316 0 is_stmt 0 discriminator 1
 1171 05fa 97F84030 		ldrb	r3, [r7, #64]	@ zero_extendqisi2
 1172 05fe 072B     		cmp	r3, #7
 1173 0600 EFD9     		bls	.L80
 1174              	.LBE13:
 1175              	.LBB14:
 318:main.c        ****                     }
 319:main.c        ****                     for(uint8 LCDRx = 0; LCDRx < 6; LCDRx++){
 1176              		.loc 1 319 0 is_stmt 1
 1177 0602 0023     		movs	r3, #0
 1178 0604 87F83F30 		strb	r3, [r7, #63]
 1179 0608 0BE0     		b	.L81
 1180              	.L82:
 320:main.c        ****                         side.b.km[LCDRx] = 0x20;
 1181              		.loc 1 320 0 discriminator 3
 1182 060a 97F83F30 		ldrb	r3, [r7, #63]	@ zero_extendqisi2
 1183 060e 114A     		ldr	r2, .L220+4
 1184 0610 1344     		add	r3, r3, r2
 1185 0612 2022     		movs	r2, #32
 1186 0614 83F86222 		strb	r2, [r3, #610]
 319:main.c        ****                         side.b.km[LCDRx] = 0x20;
ARM GAS  C:\Users\Diego\AppData\Local\Temp\ccdqF4gL.s 			page 28


 1187              		.loc 1 319 0 discriminator 3
 1188 0618 97F83F30 		ldrb	r3, [r7, #63]	@ zero_extendqisi2
 1189 061c 0133     		adds	r3, r3, #1
 1190 061e 87F83F30 		strb	r3, [r7, #63]
 1191              	.L81:
 319:main.c        ****                         side.b.km[LCDRx] = 0x20;
 1192              		.loc 1 319 0 is_stmt 0 discriminator 1
 1193 0622 97F83F30 		ldrb	r3, [r7, #63]	@ zero_extendqisi2
 1194 0626 052B     		cmp	r3, #5
 1195 0628 EFD9     		bls	.L82
 1196              	.LBE14:
 321:main.c        ****                     }                                        
 322:main.c        ****         		}
 323:main.c        ****         	break;
 1197              		.loc 1 323 0 is_stmt 1
 1198 062a 00F020BF 		b	.L210
 1199              	.L42:
 324:main.c        ****                 
 325:main.c        ****             case 0x0C:
 326:main.c        ****         		if(W_autorize == 1){
 1200              		.loc 1 326 0
 1201 062e 97F84E30 		ldrb	r3, [r7, #78]	@ zero_extendqisi2
 1202 0632 012B     		cmp	r3, #1
 1203 0634 20D1     		bne	.L83
 327:main.c        ****         			W_autorize = 0;
 1204              		.loc 1 327 0
 1205 0636 0023     		movs	r3, #0
 1206 0638 87F84E30 		strb	r3, [r7, #78]
 328:main.c        ****                     //PriceUpdate(side.b.dir,side.b.ppuNozzle[0]);
 329:main.c        ****                     Authorize(side.c.dir);
 1207              		.loc 1 329 0
 1208 063c 054B     		ldr	r3, .L220+4
 1209 063e 93F86A32 		ldrb	r3, [r3, #618]	@ zero_extendqisi2
 1210 0642 1846     		mov	r0, r3
 1211 0644 FFF7FEFF 		bl	Authorize
 1212              	.LBB15:
 330:main.c        ****                     for(uint8 LCDRx = 0; LCDRx < 20; LCDRx++){
 1213              		.loc 1 330 0
 1214 0648 0023     		movs	r3, #0
 1215 064a 87F83E30 		strb	r3, [r7, #62]
 1216 064e 0FE0     		b	.L84
 1217              	.L221:
 1218              		.align	2
 1219              	.L220:
 1220 0650 00000000 		.word	touch1
 1221 0654 00000000 		.word	side
 1222 0658 00000000 		.word	TotalRequestType
 1223              	.L85:
 331:main.c        ****                         touch1[LCDRx] = 0x00;
 1224              		.loc 1 331 0 discriminator 3
 1225 065c 97F83E30 		ldrb	r3, [r7, #62]	@ zero_extendqisi2
 1226 0660 C54A     		ldr	r2, .L222
 1227 0662 0021     		movs	r1, #0
 1228 0664 D154     		strb	r1, [r2, r3]
 330:main.c        ****                     for(uint8 LCDRx = 0; LCDRx < 20; LCDRx++){
 1229              		.loc 1 330 0 discriminator 3
 1230 0666 97F83E30 		ldrb	r3, [r7, #62]	@ zero_extendqisi2
ARM GAS  C:\Users\Diego\AppData\Local\Temp\ccdqF4gL.s 			page 29


 1231 066a 0133     		adds	r3, r3, #1
 1232 066c 87F83E30 		strb	r3, [r7, #62]
 1233              	.L84:
 330:main.c        ****                     for(uint8 LCDRx = 0; LCDRx < 20; LCDRx++){
 1234              		.loc 1 330 0 is_stmt 0 discriminator 1
 1235 0670 97F83E30 		ldrb	r3, [r7, #62]	@ zero_extendqisi2
 1236 0674 132B     		cmp	r3, #19
 1237 0676 F1D9     		bls	.L85
 1238              	.L83:
 1239              	.LBE15:
 332:main.c        ****                     }
 333:main.c        ****         		}
 334:main.c        ****         		if(W_autorize == 2){
 1240              		.loc 1 334 0 is_stmt 1
 1241 0678 97F84E30 		ldrb	r3, [r7, #78]	@ zero_extendqisi2
 1242 067c 022B     		cmp	r3, #2
 1243 067e 17D1     		bne	.L86
 335:main.c        ****                     W_autorize = 0x0C;
 1244              		.loc 1 335 0
 1245 0680 0C23     		movs	r3, #12
 1246 0682 87F84E30 		strb	r3, [r7, #78]
 336:main.c        ****                     PumpState(side.c.dir);            
 1247              		.loc 1 336 0
 1248 0686 BD4B     		ldr	r3, .L222+4
 1249 0688 93F86A32 		ldrb	r3, [r3, #618]	@ zero_extendqisi2
 1250 068c 1846     		mov	r0, r3
 1251 068e FFF7FEFF 		bl	PumpState
 337:main.c        ****                     TotalRequest(side.c.dir, TotalRequestType, 1); //dir 0, volume, nozzle 1       
 1252              		.loc 1 337 0
 1253 0692 BA4B     		ldr	r3, .L222+4
 1254 0694 93F86A02 		ldrb	r0, [r3, #618]	@ zero_extendqisi2
 1255 0698 B94B     		ldr	r3, .L222+8
 1256 069a 1B78     		ldrb	r3, [r3]	@ zero_extendqisi2
 1257 069c 0122     		movs	r2, #1
 1258 069e 1946     		mov	r1, r3
 1259 06a0 FFF7FEFF 		bl	TotalRequest
 338:main.c        ****                     PumpState(side.c.dir);                     
 1260              		.loc 1 338 0
 1261 06a4 B54B     		ldr	r3, .L222+4
 1262 06a6 93F86A32 		ldrb	r3, [r3, #618]	@ zero_extendqisi2
 1263 06aa 1846     		mov	r0, r3
 1264 06ac FFF7FEFF 		bl	PumpState
 1265              	.L86:
 339:main.c        ****                 }                
 340:main.c        ****                 if(W_autorize == 'k'){                    
 1266              		.loc 1 340 0
 1267 06b0 97F84E30 		ldrb	r3, [r7, #78]	@ zero_extendqisi2
 1268 06b4 6B2B     		cmp	r3, #107
 1269 06b6 40F0DC86 		bne	.L211
 341:main.c        ****                     W_autorize = 0x1C; 
 1270              		.loc 1 341 0
 1271 06ba 1C23     		movs	r3, #28
 1272 06bc 87F84E30 		strb	r3, [r7, #78]
 342:main.c        ****                     PumpState(side.c.dir);            
 1273              		.loc 1 342 0
 1274 06c0 AE4B     		ldr	r3, .L222+4
 1275 06c2 93F86A32 		ldrb	r3, [r3, #618]	@ zero_extendqisi2
ARM GAS  C:\Users\Diego\AppData\Local\Temp\ccdqF4gL.s 			page 30


 1276 06c6 1846     		mov	r0, r3
 1277 06c8 FFF7FEFF 		bl	PumpState
 343:main.c        ****                     TotalRequest(side.c.dir, TotalRequestType, 1); //dir 0, volume, nozzle 1       
 1278              		.loc 1 343 0
 1279 06cc AB4B     		ldr	r3, .L222+4
 1280 06ce 93F86A02 		ldrb	r0, [r3, #618]	@ zero_extendqisi2
 1281 06d2 AB4B     		ldr	r3, .L222+8
 1282 06d4 1B78     		ldrb	r3, [r3]	@ zero_extendqisi2
 1283 06d6 0122     		movs	r2, #1
 1284 06d8 1946     		mov	r1, r3
 1285 06da FFF7FEFF 		bl	TotalRequest
 344:main.c        ****                     PumpState(side.c.dir);
 1286              		.loc 1 344 0
 1287 06de A74B     		ldr	r3, .L222+4
 1288 06e0 93F86A32 		ldrb	r3, [r3, #618]	@ zero_extendqisi2
 1289 06e4 1846     		mov	r0, r3
 1290 06e6 FFF7FEFF 		bl	PumpState
 1291              	.LBB16:
 345:main.c        ****                     for(uint8 LCDRx = 0; LCDRx < 20; LCDRx++){
 1292              		.loc 1 345 0
 1293 06ea 0023     		movs	r3, #0
 1294 06ec 87F83D30 		strb	r3, [r7, #61]
 1295 06f0 09E0     		b	.L88
 1296              	.L89:
 346:main.c        ****                         touch1[LCDRx] = 0x00;
 1297              		.loc 1 346 0 discriminator 3
 1298 06f2 97F83D30 		ldrb	r3, [r7, #61]	@ zero_extendqisi2
 1299 06f6 A04A     		ldr	r2, .L222
 1300 06f8 0021     		movs	r1, #0
 1301 06fa D154     		strb	r1, [r2, r3]
 345:main.c        ****                     for(uint8 LCDRx = 0; LCDRx < 20; LCDRx++){
 1302              		.loc 1 345 0 discriminator 3
 1303 06fc 97F83D30 		ldrb	r3, [r7, #61]	@ zero_extendqisi2
 1304 0700 0133     		adds	r3, r3, #1
 1305 0702 87F83D30 		strb	r3, [r7, #61]
 1306              	.L88:
 345:main.c        ****                     for(uint8 LCDRx = 0; LCDRx < 20; LCDRx++){
 1307              		.loc 1 345 0 is_stmt 0 discriminator 1
 1308 0706 97F83D30 		ldrb	r3, [r7, #61]	@ zero_extendqisi2
 1309 070a 132B     		cmp	r3, #19
 1310 070c F1D9     		bls	.L89
 1311              	.LBE16:
 1312              	.LBB17:
 347:main.c        ****                     }
 348:main.c        ****                     for(uint8 LCDRx = 0; LCDRx < 8; LCDRx++){
 1313              		.loc 1 348 0 is_stmt 1
 1314 070e 0023     		movs	r3, #0
 1315 0710 87F83C30 		strb	r3, [r7, #60]
 1316 0714 0BE0     		b	.L90
 1317              	.L91:
 349:main.c        ****                         side.c.msn_plate[LCDRx] = 0x20;
 1318              		.loc 1 349 0 discriminator 3
 1319 0716 97F83C30 		ldrb	r3, [r7, #60]	@ zero_extendqisi2
 1320 071a 984A     		ldr	r2, .L222+4
 1321 071c 1344     		add	r3, r3, r2
 1322 071e 2022     		movs	r2, #32
 1323 0720 83F88D23 		strb	r2, [r3, #909]
ARM GAS  C:\Users\Diego\AppData\Local\Temp\ccdqF4gL.s 			page 31


 348:main.c        ****                         side.c.msn_plate[LCDRx] = 0x20;
 1324              		.loc 1 348 0 discriminator 3
 1325 0724 97F83C30 		ldrb	r3, [r7, #60]	@ zero_extendqisi2
 1326 0728 0133     		adds	r3, r3, #1
 1327 072a 87F83C30 		strb	r3, [r7, #60]
 1328              	.L90:
 348:main.c        ****                         side.c.msn_plate[LCDRx] = 0x20;
 1329              		.loc 1 348 0 is_stmt 0 discriminator 1
 1330 072e 97F83C30 		ldrb	r3, [r7, #60]	@ zero_extendqisi2
 1331 0732 072B     		cmp	r3, #7
 1332 0734 EFD9     		bls	.L91
 1333              	.LBE17:
 1334              	.LBB18:
 350:main.c        ****                     }
 351:main.c        ****                     for(uint8 LCDRx = 0; LCDRx < 6; LCDRx++){
 1335              		.loc 1 351 0 is_stmt 1
 1336 0736 0023     		movs	r3, #0
 1337 0738 87F83B30 		strb	r3, [r7, #59]
 1338 073c 0BE0     		b	.L92
 1339              	.L93:
 352:main.c        ****                         side.c.km[LCDRx] = 0x20;
 1340              		.loc 1 352 0 discriminator 3
 1341 073e 97F83B30 		ldrb	r3, [r7, #59]	@ zero_extendqisi2
 1342 0742 8E4A     		ldr	r2, .L222+4
 1343 0744 1344     		add	r3, r3, r2
 1344 0746 2022     		movs	r2, #32
 1345 0748 83F89723 		strb	r2, [r3, #919]
 351:main.c        ****                         side.c.km[LCDRx] = 0x20;
 1346              		.loc 1 351 0 discriminator 3
 1347 074c 97F83B30 		ldrb	r3, [r7, #59]	@ zero_extendqisi2
 1348 0750 0133     		adds	r3, r3, #1
 1349 0752 87F83B30 		strb	r3, [r7, #59]
 1350              	.L92:
 351:main.c        ****                         side.c.km[LCDRx] = 0x20;
 1351              		.loc 1 351 0 is_stmt 0 discriminator 1
 1352 0756 97F83B30 		ldrb	r3, [r7, #59]	@ zero_extendqisi2
 1353 075a 052B     		cmp	r3, #5
 1354 075c EFD9     		bls	.L93
 1355              	.LBE18:
 353:main.c        ****                     }                                        
 354:main.c        ****         		}
 355:main.c        ****         	break;
 1356              		.loc 1 355 0 is_stmt 1
 1357 075e 00F088BE 		b	.L211
 1358              	.L44:
 356:main.c        ****                 
 357:main.c        ****             case 0x0D:
 358:main.c        ****         		if(W_autorize == 1){
 1359              		.loc 1 358 0
 1360 0762 97F84E30 		ldrb	r3, [r7, #78]	@ zero_extendqisi2
 1361 0766 012B     		cmp	r3, #1
 1362 0768 1AD1     		bne	.L94
 359:main.c        ****         			W_autorize = 0;
 1363              		.loc 1 359 0
 1364 076a 0023     		movs	r3, #0
 1365 076c 87F84E30 		strb	r3, [r7, #78]
 360:main.c        ****                     //PriceUpdate(side.b.dir,side.b.ppuNozzle[0]);
ARM GAS  C:\Users\Diego\AppData\Local\Temp\ccdqF4gL.s 			page 32


 361:main.c        ****                     Authorize(side.d.dir);
 1366              		.loc 1 361 0
 1367 0770 824B     		ldr	r3, .L222+4
 1368 0772 93F89F33 		ldrb	r3, [r3, #927]	@ zero_extendqisi2
 1369 0776 1846     		mov	r0, r3
 1370 0778 FFF7FEFF 		bl	Authorize
 1371              	.LBB19:
 362:main.c        ****                     for(uint8 LCDRx = 0; LCDRx < 20; LCDRx++){
 1372              		.loc 1 362 0
 1373 077c 0023     		movs	r3, #0
 1374 077e 87F83A30 		strb	r3, [r7, #58]
 1375 0782 09E0     		b	.L95
 1376              	.L96:
 363:main.c        ****                         touch1[LCDRx] = 0x00;
 1377              		.loc 1 363 0 discriminator 3
 1378 0784 97F83A30 		ldrb	r3, [r7, #58]	@ zero_extendqisi2
 1379 0788 7B4A     		ldr	r2, .L222
 1380 078a 0021     		movs	r1, #0
 1381 078c D154     		strb	r1, [r2, r3]
 362:main.c        ****                     for(uint8 LCDRx = 0; LCDRx < 20; LCDRx++){
 1382              		.loc 1 362 0 discriminator 3
 1383 078e 97F83A30 		ldrb	r3, [r7, #58]	@ zero_extendqisi2
 1384 0792 0133     		adds	r3, r3, #1
 1385 0794 87F83A30 		strb	r3, [r7, #58]
 1386              	.L95:
 362:main.c        ****                     for(uint8 LCDRx = 0; LCDRx < 20; LCDRx++){
 1387              		.loc 1 362 0 is_stmt 0 discriminator 1
 1388 0798 97F83A30 		ldrb	r3, [r7, #58]	@ zero_extendqisi2
 1389 079c 132B     		cmp	r3, #19
 1390 079e F1D9     		bls	.L96
 1391              	.L94:
 1392              	.LBE19:
 364:main.c        ****                     }
 365:main.c        ****         		}
 366:main.c        ****         		if(W_autorize == 2){
 1393              		.loc 1 366 0 is_stmt 1
 1394 07a0 97F84E30 		ldrb	r3, [r7, #78]	@ zero_extendqisi2
 1395 07a4 022B     		cmp	r3, #2
 1396 07a6 17D1     		bne	.L97
 367:main.c        ****                     W_autorize = 0x0C;
 1397              		.loc 1 367 0
 1398 07a8 0C23     		movs	r3, #12
 1399 07aa 87F84E30 		strb	r3, [r7, #78]
 368:main.c        ****                     PumpState(side.d.dir);            
 1400              		.loc 1 368 0
 1401 07ae 734B     		ldr	r3, .L222+4
 1402 07b0 93F89F33 		ldrb	r3, [r3, #927]	@ zero_extendqisi2
 1403 07b4 1846     		mov	r0, r3
 1404 07b6 FFF7FEFF 		bl	PumpState
 369:main.c        ****                     TotalRequest(side.d.dir, TotalRequestType, 1); //dir 0, volume, nozzle 1       
 1405              		.loc 1 369 0
 1406 07ba 704B     		ldr	r3, .L222+4
 1407 07bc 93F89F03 		ldrb	r0, [r3, #927]	@ zero_extendqisi2
 1408 07c0 6F4B     		ldr	r3, .L222+8
 1409 07c2 1B78     		ldrb	r3, [r3]	@ zero_extendqisi2
 1410 07c4 0122     		movs	r2, #1
 1411 07c6 1946     		mov	r1, r3
ARM GAS  C:\Users\Diego\AppData\Local\Temp\ccdqF4gL.s 			page 33


 1412 07c8 FFF7FEFF 		bl	TotalRequest
 370:main.c        ****                     PumpState(side.d.dir);                     
 1413              		.loc 1 370 0
 1414 07cc 6B4B     		ldr	r3, .L222+4
 1415 07ce 93F89F33 		ldrb	r3, [r3, #927]	@ zero_extendqisi2
 1416 07d2 1846     		mov	r0, r3
 1417 07d4 FFF7FEFF 		bl	PumpState
 1418              	.L97:
 371:main.c        ****                 }                
 372:main.c        ****                 if(W_autorize == 'k'){                    
 1419              		.loc 1 372 0
 1420 07d8 97F84E30 		ldrb	r3, [r7, #78]	@ zero_extendqisi2
 1421 07dc 6B2B     		cmp	r3, #107
 1422 07de 40F04A86 		bne	.L212
 373:main.c        ****                     W_autorize = 0x1D; 
 1423              		.loc 1 373 0
 1424 07e2 1D23     		movs	r3, #29
 1425 07e4 87F84E30 		strb	r3, [r7, #78]
 374:main.c        ****                     PumpState(side.d.dir);            
 1426              		.loc 1 374 0
 1427 07e8 644B     		ldr	r3, .L222+4
 1428 07ea 93F89F33 		ldrb	r3, [r3, #927]	@ zero_extendqisi2
 1429 07ee 1846     		mov	r0, r3
 1430 07f0 FFF7FEFF 		bl	PumpState
 375:main.c        ****                     TotalRequest(side.d.dir, TotalRequestType, 1); //dir 0, volume, nozzle 1       
 1431              		.loc 1 375 0
 1432 07f4 614B     		ldr	r3, .L222+4
 1433 07f6 93F89F03 		ldrb	r0, [r3, #927]	@ zero_extendqisi2
 1434 07fa 614B     		ldr	r3, .L222+8
 1435 07fc 1B78     		ldrb	r3, [r3]	@ zero_extendqisi2
 1436 07fe 0122     		movs	r2, #1
 1437 0800 1946     		mov	r1, r3
 1438 0802 FFF7FEFF 		bl	TotalRequest
 376:main.c        ****                     PumpState(side.d.dir);
 1439              		.loc 1 376 0
 1440 0806 5D4B     		ldr	r3, .L222+4
 1441 0808 93F89F33 		ldrb	r3, [r3, #927]	@ zero_extendqisi2
 1442 080c 1846     		mov	r0, r3
 1443 080e FFF7FEFF 		bl	PumpState
 1444              	.LBB20:
 377:main.c        ****                     for(uint8 LCDRx = 0; LCDRx < 20; LCDRx++){
 1445              		.loc 1 377 0
 1446 0812 0023     		movs	r3, #0
 1447 0814 87F83930 		strb	r3, [r7, #57]
 1448 0818 09E0     		b	.L99
 1449              	.L100:
 378:main.c        ****                         touch1[LCDRx] = 0x00;
 1450              		.loc 1 378 0 discriminator 3
 1451 081a 97F83930 		ldrb	r3, [r7, #57]	@ zero_extendqisi2
 1452 081e 564A     		ldr	r2, .L222
 1453 0820 0021     		movs	r1, #0
 1454 0822 D154     		strb	r1, [r2, r3]
 377:main.c        ****                     for(uint8 LCDRx = 0; LCDRx < 20; LCDRx++){
 1455              		.loc 1 377 0 discriminator 3
 1456 0824 97F83930 		ldrb	r3, [r7, #57]	@ zero_extendqisi2
 1457 0828 0133     		adds	r3, r3, #1
 1458 082a 87F83930 		strb	r3, [r7, #57]
ARM GAS  C:\Users\Diego\AppData\Local\Temp\ccdqF4gL.s 			page 34


 1459              	.L99:
 377:main.c        ****                     for(uint8 LCDRx = 0; LCDRx < 20; LCDRx++){
 1460              		.loc 1 377 0 is_stmt 0 discriminator 1
 1461 082e 97F83930 		ldrb	r3, [r7, #57]	@ zero_extendqisi2
 1462 0832 132B     		cmp	r3, #19
 1463 0834 F1D9     		bls	.L100
 1464              	.LBE20:
 1465              	.LBB21:
 379:main.c        ****                     }
 380:main.c        ****                     for(uint8 LCDRx = 0; LCDRx < 8; LCDRx++){
 1466              		.loc 1 380 0 is_stmt 1
 1467 0836 0023     		movs	r3, #0
 1468 0838 87F83830 		strb	r3, [r7, #56]
 1469 083c 0BE0     		b	.L101
 1470              	.L102:
 381:main.c        ****                         side.d.msn_plate[LCDRx] = 0x20;
 1471              		.loc 1 381 0 discriminator 3
 1472 083e 97F83830 		ldrb	r3, [r7, #56]	@ zero_extendqisi2
 1473 0842 4E4A     		ldr	r2, .L222+4
 1474 0844 1344     		add	r3, r3, r2
 1475 0846 2022     		movs	r2, #32
 1476 0848 83F8C224 		strb	r2, [r3, #1218]
 380:main.c        ****                         side.d.msn_plate[LCDRx] = 0x20;
 1477              		.loc 1 380 0 discriminator 3
 1478 084c 97F83830 		ldrb	r3, [r7, #56]	@ zero_extendqisi2
 1479 0850 0133     		adds	r3, r3, #1
 1480 0852 87F83830 		strb	r3, [r7, #56]
 1481              	.L101:
 380:main.c        ****                         side.d.msn_plate[LCDRx] = 0x20;
 1482              		.loc 1 380 0 is_stmt 0 discriminator 1
 1483 0856 97F83830 		ldrb	r3, [r7, #56]	@ zero_extendqisi2
 1484 085a 072B     		cmp	r3, #7
 1485 085c EFD9     		bls	.L102
 1486              	.LBE21:
 1487              	.LBB22:
 382:main.c        ****                     }
 383:main.c        ****                     for(uint8 LCDRx = 0; LCDRx < 6; LCDRx++){
 1488              		.loc 1 383 0 is_stmt 1
 1489 085e 0023     		movs	r3, #0
 1490 0860 87F83730 		strb	r3, [r7, #55]
 1491 0864 0BE0     		b	.L103
 1492              	.L104:
 384:main.c        ****                         side.d.km[LCDRx] = 0x20;
 1493              		.loc 1 384 0 discriminator 3
 1494 0866 97F83730 		ldrb	r3, [r7, #55]	@ zero_extendqisi2
 1495 086a 444A     		ldr	r2, .L222+4
 1496 086c 1344     		add	r3, r3, r2
 1497 086e 2022     		movs	r2, #32
 1498 0870 83F8CC24 		strb	r2, [r3, #1228]
 383:main.c        ****                         side.d.km[LCDRx] = 0x20;
 1499              		.loc 1 383 0 discriminator 3
 1500 0874 97F83730 		ldrb	r3, [r7, #55]	@ zero_extendqisi2
 1501 0878 0133     		adds	r3, r3, #1
 1502 087a 87F83730 		strb	r3, [r7, #55]
 1503              	.L103:
 383:main.c        ****                         side.d.km[LCDRx] = 0x20;
 1504              		.loc 1 383 0 is_stmt 0 discriminator 1
ARM GAS  C:\Users\Diego\AppData\Local\Temp\ccdqF4gL.s 			page 35


 1505 087e 97F83730 		ldrb	r3, [r7, #55]	@ zero_extendqisi2
 1506 0882 052B     		cmp	r3, #5
 1507 0884 EFD9     		bls	.L104
 1508              	.LBE22:
 385:main.c        ****                     }                                        
 386:main.c        ****         		}
 387:main.c        ****         	break;
 1509              		.loc 1 387 0 is_stmt 1
 1510 0886 00F0F6BD 		b	.L212
 1511              	.L49:
 388:main.c        ****                 
 389:main.c        ****         	case 0xCC:
 390:main.c        ****         		PumpState(side.b.dir);            
 1512              		.loc 1 390 0
 1513 088a 3C4B     		ldr	r3, .L222+4
 1514 088c 93F83531 		ldrb	r3, [r3, #309]	@ zero_extendqisi2
 1515 0890 1846     		mov	r0, r3
 1516 0892 FFF7FEFF 		bl	PumpState
 391:main.c        ****         		TotalRequest(side.b.dir, TotalRequestType, 1); //dir 0, volume, nozzle 1      
 1517              		.loc 1 391 0
 1518 0896 394B     		ldr	r3, .L222+4
 1519 0898 93F83501 		ldrb	r0, [r3, #309]	@ zero_extendqisi2
 1520 089c 384B     		ldr	r3, .L222+8
 1521 089e 1B78     		ldrb	r3, [r3]	@ zero_extendqisi2
 1522 08a0 0122     		movs	r2, #1
 1523 08a2 1946     		mov	r1, r3
 1524 08a4 FFF7FEFF 		bl	TotalRequest
 392:main.c        ****                 CyDelay(10);
 1525              		.loc 1 392 0
 1526 08a8 0A20     		movs	r0, #10
 1527 08aa FFF7FEFF 		bl	CyDelay
 393:main.c        ****         		PumpState(side.b.dir); 
 1528              		.loc 1 393 0
 1529 08ae 334B     		ldr	r3, .L222+4
 1530 08b0 93F83531 		ldrb	r3, [r3, #309]	@ zero_extendqisi2
 1531 08b4 1846     		mov	r0, r3
 1532 08b6 FFF7FEFF 		bl	PumpState
 394:main.c        ****         		PumpState(side.a.dir);            
 1533              		.loc 1 394 0
 1534 08ba 304B     		ldr	r3, .L222+4
 1535 08bc 1B78     		ldrb	r3, [r3]	@ zero_extendqisi2
 1536 08be 1846     		mov	r0, r3
 1537 08c0 FFF7FEFF 		bl	PumpState
 395:main.c        ****         		TotalRequest(side.a.dir, TotalRequestType, 1); //dir 0, volume, nozzle 1   
 1538              		.loc 1 395 0
 1539 08c4 2D4B     		ldr	r3, .L222+4
 1540 08c6 1878     		ldrb	r0, [r3]	@ zero_extendqisi2
 1541 08c8 2D4B     		ldr	r3, .L222+8
 1542 08ca 1B78     		ldrb	r3, [r3]	@ zero_extendqisi2
 1543 08cc 0122     		movs	r2, #1
 1544 08ce 1946     		mov	r1, r3
 1545 08d0 FFF7FEFF 		bl	TotalRequest
 396:main.c        ****                 CyDelay(10);
 1546              		.loc 1 396 0
 1547 08d4 0A20     		movs	r0, #10
 1548 08d6 FFF7FEFF 		bl	CyDelay
 397:main.c        ****         		PumpState(side.a.dir);
ARM GAS  C:\Users\Diego\AppData\Local\Temp\ccdqF4gL.s 			page 36


 1549              		.loc 1 397 0
 1550 08da 284B     		ldr	r3, .L222+4
 1551 08dc 1B78     		ldrb	r3, [r3]	@ zero_extendqisi2
 1552 08de 1846     		mov	r0, r3
 1553 08e0 FFF7FEFF 		bl	PumpState
 398:main.c        ****                 PumpState(side.b.dir);
 1554              		.loc 1 398 0
 1555 08e4 254B     		ldr	r3, .L222+4
 1556 08e6 93F83531 		ldrb	r3, [r3, #309]	@ zero_extendqisi2
 1557 08ea 1846     		mov	r0, r3
 1558 08ec FFF7FEFF 		bl	PumpState
 399:main.c        ****                 TotalRequest(side.b.dir, TotalRequestType, 2); //dir 0, volume, nozzle 1  
 1559              		.loc 1 399 0
 1560 08f0 224B     		ldr	r3, .L222+4
 1561 08f2 93F83501 		ldrb	r0, [r3, #309]	@ zero_extendqisi2
 1562 08f6 224B     		ldr	r3, .L222+8
 1563 08f8 1B78     		ldrb	r3, [r3]	@ zero_extendqisi2
 1564 08fa 0222     		movs	r2, #2
 1565 08fc 1946     		mov	r1, r3
 1566 08fe FFF7FEFF 		bl	TotalRequest
 400:main.c        ****                 CyDelay(10);
 1567              		.loc 1 400 0
 1568 0902 0A20     		movs	r0, #10
 1569 0904 FFF7FEFF 		bl	CyDelay
 401:main.c        ****         		PumpState(side.b.dir); 
 1570              		.loc 1 401 0
 1571 0908 1C4B     		ldr	r3, .L222+4
 1572 090a 93F83531 		ldrb	r3, [r3, #309]	@ zero_extendqisi2
 1573 090e 1846     		mov	r0, r3
 1574 0910 FFF7FEFF 		bl	PumpState
 402:main.c        ****         		PumpState(side.a.dir);            
 1575              		.loc 1 402 0
 1576 0914 194B     		ldr	r3, .L222+4
 1577 0916 1B78     		ldrb	r3, [r3]	@ zero_extendqisi2
 1578 0918 1846     		mov	r0, r3
 1579 091a FFF7FEFF 		bl	PumpState
 403:main.c        ****         		TotalRequest(side.a.dir, TotalRequestType, 2); //dir 0, volume, nozzle 1 
 1580              		.loc 1 403 0
 1581 091e 174B     		ldr	r3, .L222+4
 1582 0920 1878     		ldrb	r0, [r3]	@ zero_extendqisi2
 1583 0922 174B     		ldr	r3, .L222+8
 1584 0924 1B78     		ldrb	r3, [r3]	@ zero_extendqisi2
 1585 0926 0222     		movs	r2, #2
 1586 0928 1946     		mov	r1, r3
 1587 092a FFF7FEFF 		bl	TotalRequest
 404:main.c        ****                 CyDelay(10);
 1588              		.loc 1 404 0
 1589 092e 0A20     		movs	r0, #10
 1590 0930 FFF7FEFF 		bl	CyDelay
 405:main.c        ****         		PumpState(side.a.dir);
 1591              		.loc 1 405 0
 1592 0934 114B     		ldr	r3, .L222+4
 1593 0936 1B78     		ldrb	r3, [r3]	@ zero_extendqisi2
 1594 0938 1846     		mov	r0, r3
 1595 093a FFF7FEFF 		bl	PumpState
 406:main.c        ****                 PumpState(side.b.dir);
 1596              		.loc 1 406 0
ARM GAS  C:\Users\Diego\AppData\Local\Temp\ccdqF4gL.s 			page 37


 1597 093e 0F4B     		ldr	r3, .L222+4
 1598 0940 93F83531 		ldrb	r3, [r3, #309]	@ zero_extendqisi2
 1599 0944 1846     		mov	r0, r3
 1600 0946 FFF7FEFF 		bl	PumpState
 1601              	.LBB23:
 407:main.c        ****         		for(uint8 LCDRx = 0; LCDRx < 20; LCDRx++){
 1602              		.loc 1 407 0
 1603 094a 0023     		movs	r3, #0
 1604 094c 87F83630 		strb	r3, [r7, #54]
 1605 0950 09E0     		b	.L105
 1606              	.L106:
 408:main.c        ****         			touch1[LCDRx] = 0x00;
 1607              		.loc 1 408 0 discriminator 3
 1608 0952 97F83630 		ldrb	r3, [r7, #54]	@ zero_extendqisi2
 1609 0956 084A     		ldr	r2, .L222
 1610 0958 0021     		movs	r1, #0
 1611 095a D154     		strb	r1, [r2, r3]
 407:main.c        ****         		for(uint8 LCDRx = 0; LCDRx < 20; LCDRx++){
 1612              		.loc 1 407 0 discriminator 3
 1613 095c 97F83630 		ldrb	r3, [r7, #54]	@ zero_extendqisi2
 1614 0960 0133     		adds	r3, r3, #1
 1615 0962 87F83630 		strb	r3, [r7, #54]
 1616              	.L105:
 407:main.c        ****         		for(uint8 LCDRx = 0; LCDRx < 20; LCDRx++){
 1617              		.loc 1 407 0 is_stmt 0 discriminator 1
 1618 0966 97F83630 		ldrb	r3, [r7, #54]	@ zero_extendqisi2
 1619 096a 132B     		cmp	r3, #19
 1620 096c F1D9     		bls	.L106
 1621              	.LBE23:
 409:main.c        ****         		}                        
 410:main.c        ****         		PrintShift(); 
 1622              		.loc 1 410 0 is_stmt 1
 1623 096e FFF7FEFF 		bl	PrintShift
 411:main.c        ****         	break;
 1624              		.loc 1 411 0
 1625 0972 00F089BD 		b	.L52
 1626              	.L223:
 1627 0976 00BF     		.align	2
 1628              	.L222:
 1629 0978 00000000 		.word	touch1
 1630 097c 00000000 		.word	side
 1631 0980 00000000 		.word	TotalRequestType
 1632              	.L48:
 412:main.c        ****             case 0x53:
 413:main.c        ****                 if(W_autorize == 0xAC){
 1633              		.loc 1 413 0
 1634 0984 97F84E30 		ldrb	r3, [r7, #78]	@ zero_extendqisi2
 1635 0988 AC2B     		cmp	r3, #172
 1636 098a 08D1     		bne	.L107
 414:main.c        ****                     side.a.Copy = 1;
 1637              		.loc 1 414 0
 1638 098c C54B     		ldr	r3, .L224
 1639 098e 0122     		movs	r2, #1
 1640 0990 83F83421 		strb	r2, [r3, #308]
 415:main.c        ****                     PrintReceipt(side.a.dir);
 1641              		.loc 1 415 0
 1642 0994 C34B     		ldr	r3, .L224
ARM GAS  C:\Users\Diego\AppData\Local\Temp\ccdqF4gL.s 			page 38


 1643 0996 1B78     		ldrb	r3, [r3]	@ zero_extendqisi2
 1644 0998 1846     		mov	r0, r3
 1645 099a FFF7FEFF 		bl	PrintReceipt
 1646              	.L107:
 416:main.c        ****                 }
 417:main.c        ****                 if(W_autorize == 0xBC){
 1647              		.loc 1 417 0
 1648 099e 97F84E30 		ldrb	r3, [r7, #78]	@ zero_extendqisi2
 1649 09a2 BC2B     		cmp	r3, #188
 1650 09a4 09D1     		bne	.L108
 418:main.c        ****                     side.b.Copy = 1;
 1651              		.loc 1 418 0
 1652 09a6 BF4B     		ldr	r3, .L224
 1653 09a8 0122     		movs	r2, #1
 1654 09aa 83F86922 		strb	r2, [r3, #617]
 419:main.c        ****                     PrintReceipt(side.b.dir);
 1655              		.loc 1 419 0
 1656 09ae BD4B     		ldr	r3, .L224
 1657 09b0 93F83531 		ldrb	r3, [r3, #309]	@ zero_extendqisi2
 1658 09b4 1846     		mov	r0, r3
 1659 09b6 FFF7FEFF 		bl	PrintReceipt
 1660              	.L108:
 420:main.c        ****                 } 
 421:main.c        ****                 if(W_autorize == 0xCC){
 1661              		.loc 1 421 0
 1662 09ba 97F84E30 		ldrb	r3, [r7, #78]	@ zero_extendqisi2
 1663 09be CC2B     		cmp	r3, #204
 1664 09c0 09D1     		bne	.L109
 422:main.c        ****                     side.c.Copy = 1;
 1665              		.loc 1 422 0
 1666 09c2 B84B     		ldr	r3, .L224
 1667 09c4 0122     		movs	r2, #1
 1668 09c6 83F89E23 		strb	r2, [r3, #926]
 423:main.c        ****                     PrintReceipt(side.c.dir);
 1669              		.loc 1 423 0
 1670 09ca B64B     		ldr	r3, .L224
 1671 09cc 93F86A32 		ldrb	r3, [r3, #618]	@ zero_extendqisi2
 1672 09d0 1846     		mov	r0, r3
 1673 09d2 FFF7FEFF 		bl	PrintReceipt
 1674              	.L109:
 424:main.c        ****                 }
 425:main.c        ****                 if(W_autorize == 0xDC){
 1675              		.loc 1 425 0
 1676 09d6 97F84E30 		ldrb	r3, [r7, #78]	@ zero_extendqisi2
 1677 09da DC2B     		cmp	r3, #220
 1678 09dc 40F04D85 		bne	.L213
 426:main.c        ****                     side.d.Copy = 1;
 1679              		.loc 1 426 0
 1680 09e0 B04B     		ldr	r3, .L224
 1681 09e2 0122     		movs	r2, #1
 1682 09e4 83F8D324 		strb	r2, [r3, #1235]
 427:main.c        ****                     PrintReceipt(side.d.dir);
 1683              		.loc 1 427 0
 1684 09e8 AE4B     		ldr	r3, .L224
 1685 09ea 93F89F33 		ldrb	r3, [r3, #927]	@ zero_extendqisi2
 1686 09ee 1846     		mov	r0, r3
 1687 09f0 FFF7FEFF 		bl	PrintReceipt
ARM GAS  C:\Users\Diego\AppData\Local\Temp\ccdqF4gL.s 			page 39


 428:main.c        ****                 }
 429:main.c        ****             break;
 1688              		.loc 1 429 0
 1689 09f4 00F041BD 		b	.L213
 1690              	.L47:
 430:main.c        ****             case 0x4E:
 431:main.c        ****                 if(W_autorize == 0xAC){
 1691              		.loc 1 431 0
 1692 09f8 97F84E30 		ldrb	r3, [r7, #78]	@ zero_extendqisi2
 1693 09fc AC2B     		cmp	r3, #172
 1694 09fe 06D1     		bne	.L111
 432:main.c        ****                     W_autorize = 0;
 1695              		.loc 1 432 0
 1696 0a00 0023     		movs	r3, #0
 1697 0a02 87F84E30 		strb	r3, [r7, #78]
 433:main.c        ****                     side.a.Copy = 0;                    
 1698              		.loc 1 433 0
 1699 0a06 A74B     		ldr	r3, .L224
 1700 0a08 0022     		movs	r2, #0
 1701 0a0a 83F83421 		strb	r2, [r3, #308]
 1702              	.L111:
 434:main.c        ****                 }
 435:main.c        ****                 if(W_autorize == 0xBC){
 1703              		.loc 1 435 0
 1704 0a0e 97F84E30 		ldrb	r3, [r7, #78]	@ zero_extendqisi2
 1705 0a12 BC2B     		cmp	r3, #188
 1706 0a14 06D1     		bne	.L112
 436:main.c        ****                     W_autorize = 0;
 1707              		.loc 1 436 0
 1708 0a16 0023     		movs	r3, #0
 1709 0a18 87F84E30 		strb	r3, [r7, #78]
 437:main.c        ****                     side.b.Copy = 0;                                        
 1710              		.loc 1 437 0
 1711 0a1c A14B     		ldr	r3, .L224
 1712 0a1e 0022     		movs	r2, #0
 1713 0a20 83F86922 		strb	r2, [r3, #617]
 1714              	.L112:
 438:main.c        ****                 } 
 439:main.c        ****                 if(W_autorize == 0xCC){
 1715              		.loc 1 439 0
 1716 0a24 97F84E30 		ldrb	r3, [r7, #78]	@ zero_extendqisi2
 1717 0a28 CC2B     		cmp	r3, #204
 1718 0a2a 06D1     		bne	.L113
 440:main.c        ****                     W_autorize = 0;
 1719              		.loc 1 440 0
 1720 0a2c 0023     		movs	r3, #0
 1721 0a2e 87F84E30 		strb	r3, [r7, #78]
 441:main.c        ****                     side.c.Copy = 0;                    
 1722              		.loc 1 441 0
 1723 0a32 9C4B     		ldr	r3, .L224
 1724 0a34 0022     		movs	r2, #0
 1725 0a36 83F89E23 		strb	r2, [r3, #926]
 1726              	.L113:
 442:main.c        ****                 }
 443:main.c        ****                 if(W_autorize == 0xDC){
 1727              		.loc 1 443 0
 1728 0a3a 97F84E30 		ldrb	r3, [r7, #78]	@ zero_extendqisi2
ARM GAS  C:\Users\Diego\AppData\Local\Temp\ccdqF4gL.s 			page 40


 1729 0a3e DC2B     		cmp	r3, #220
 1730 0a40 40F01D85 		bne	.L214
 444:main.c        ****                     W_autorize = 0;
 1731              		.loc 1 444 0
 1732 0a44 0023     		movs	r3, #0
 1733 0a46 87F84E30 		strb	r3, [r7, #78]
 445:main.c        ****                     side.d.Copy = 0;                                        
 1734              		.loc 1 445 0
 1735 0a4a 964B     		ldr	r3, .L224
 1736 0a4c 0022     		movs	r2, #0
 1737 0a4e 83F8D324 		strb	r2, [r3, #1235]
 446:main.c        ****                 }
 447:main.c        ****             break;
 1738              		.loc 1 447 0
 1739 0a52 00F014BD 		b	.L214
 1740              	.L50:
 448:main.c        ****             case 0xE1:
 449:main.c        ****                 if(W_autorize == 0xE1){
 1741              		.loc 1 449 0
 1742 0a56 97F84E30 		ldrb	r3, [r7, #78]	@ zero_extendqisi2
 1743 0a5a E12B     		cmp	r3, #225
 1744 0a5c 02D1     		bne	.L115
 450:main.c        ****                     W_autorize = 0xC1;
 1745              		.loc 1 450 0
 1746 0a5e C123     		movs	r3, #193
 1747 0a60 87F84E30 		strb	r3, [r7, #78]
 1748              	.L115:
 451:main.c        ****                 }
 452:main.c        ****                 if(W_autorize == 0xE2){
 1749              		.loc 1 452 0
 1750 0a64 97F84E30 		ldrb	r3, [r7, #78]	@ zero_extendqisi2
 1751 0a68 E22B     		cmp	r3, #226
 1752 0a6a 40F00A85 		bne	.L215
 453:main.c        ****                     W_autorize = 0xC2;
 1753              		.loc 1 453 0
 1754 0a6e C223     		movs	r3, #194
 1755 0a70 87F84E30 		strb	r3, [r7, #78]
 454:main.c        ****                 }
 455:main.c        ****             break;
 1756              		.loc 1 455 0
 1757 0a74 00F005BD 		b	.L215
 1758              	.L35:
 456:main.c        ****         	default:
 457:main.c        ****                 if(touch1[3] == 0x83 && price_change == 0x0A && touch1[8] != 0xE1){
 1759              		.loc 1 457 0
 1760 0a78 8B4B     		ldr	r3, .L224+4
 1761 0a7a DB78     		ldrb	r3, [r3, #3]	@ zero_extendqisi2
 1762 0a7c 832B     		cmp	r3, #131
 1763 0a7e 40F0DB80 		bne	.L117
 1764              		.loc 1 457 0 is_stmt 0 discriminator 1
 1765 0a82 97F84C30 		ldrb	r3, [r7, #76]	@ zero_extendqisi2
 1766 0a86 0A2B     		cmp	r3, #10
 1767 0a88 40F0D680 		bne	.L117
 1768              		.loc 1 457 0 discriminator 2
 1769 0a8c 864B     		ldr	r3, .L224+4
 1770 0a8e 1B7A     		ldrb	r3, [r3, #8]	@ zero_extendqisi2
 1771 0a90 E12B     		cmp	r3, #225
ARM GAS  C:\Users\Diego\AppData\Local\Temp\ccdqF4gL.s 			page 41


 1772 0a92 00F0D180 		beq	.L117
 1773              	.LBB24:
 458:main.c        ****                     for(uint8 LCDRx = 0; LCDRx < 6; LCDRx++){                        
 1774              		.loc 1 458 0 is_stmt 1
 1775 0a96 0023     		movs	r3, #0
 1776 0a98 87F83530 		strb	r3, [r7, #53]
 1777 0a9c 0BE0     		b	.L118
 1778              	.L119:
 459:main.c        ****                         side.a.ProcessedPPU[0][LCDRx] = 0x30;
 1779              		.loc 1 459 0 discriminator 3
 1780 0a9e 97F83530 		ldrb	r3, [r7, #53]	@ zero_extendqisi2
 1781 0aa2 804A     		ldr	r2, .L224
 1782 0aa4 1344     		add	r3, r3, r2
 1783 0aa6 3022     		movs	r2, #48
 1784 0aa8 83F80B21 		strb	r2, [r3, #267]
 458:main.c        ****                     for(uint8 LCDRx = 0; LCDRx < 6; LCDRx++){                        
 1785              		.loc 1 458 0 discriminator 3
 1786 0aac 97F83530 		ldrb	r3, [r7, #53]	@ zero_extendqisi2
 1787 0ab0 0133     		adds	r3, r3, #1
 1788 0ab2 87F83530 		strb	r3, [r7, #53]
 1789              	.L118:
 458:main.c        ****                     for(uint8 LCDRx = 0; LCDRx < 6; LCDRx++){                        
 1790              		.loc 1 458 0 is_stmt 0 discriminator 1
 1791 0ab6 97F83530 		ldrb	r3, [r7, #53]	@ zero_extendqisi2
 1792 0aba 052B     		cmp	r3, #5
 1793 0abc EFD9     		bls	.L119
 1794              	.LBE24:
 460:main.c        ****             		}
 461:main.c        ****                     y = 0;
 1795              		.loc 1 461 0 is_stmt 1
 1796 0abe 0023     		movs	r3, #0
 1797 0ac0 87F84D30 		strb	r3, [r7, #77]
 462:main.c        ****                     LCDhose = 0;
 1798              		.loc 1 462 0
 1799 0ac4 794B     		ldr	r3, .L224+8
 1800 0ac6 0022     		movs	r2, #0
 1801 0ac8 1A70     		strb	r2, [r3]
 463:main.c        ****                     price_change = 0;
 1802              		.loc 1 463 0
 1803 0aca 0023     		movs	r3, #0
 1804 0acc 87F84C30 		strb	r3, [r7, #76]
 1805              	.LBB25:
 464:main.c        ****                     for(uint8 LCDRx = 7; LCDRx < 12; LCDRx++){
 1806              		.loc 1 464 0
 1807 0ad0 0723     		movs	r3, #7
 1808 0ad2 87F83430 		strb	r3, [r7, #52]
 1809 0ad6 21E0     		b	.L120
 1810              	.L122:
 465:main.c        ****                         if((touch1[LCDRx] == 0x00) ||(touch1[LCDRx] == 0xFF))
 1811              		.loc 1 465 0
 1812 0ad8 97F83430 		ldrb	r3, [r7, #52]	@ zero_extendqisi2
 1813 0adc 724A     		ldr	r2, .L224+4
 1814 0ade D35C     		ldrb	r3, [r2, r3]	@ zero_extendqisi2
 1815 0ae0 002B     		cmp	r3, #0
 1816 0ae2 1FD0     		beq	.L121
 1817              		.loc 1 465 0 is_stmt 0 discriminator 1
 1818 0ae4 97F83430 		ldrb	r3, [r7, #52]	@ zero_extendqisi2
ARM GAS  C:\Users\Diego\AppData\Local\Temp\ccdqF4gL.s 			page 42


 1819 0ae8 6F4A     		ldr	r2, .L224+4
 1820 0aea D35C     		ldrb	r3, [r2, r3]	@ zero_extendqisi2
 1821 0aec FF2B     		cmp	r3, #255
 1822 0aee 19D0     		beq	.L121
 466:main.c        ****                             break;
 467:main.c        ****                         auxPrice[LCDRx-7] = touch1[LCDRx];
 1823              		.loc 1 467 0 is_stmt 1 discriminator 2
 1824 0af0 97F83430 		ldrb	r3, [r7, #52]	@ zero_extendqisi2
 1825 0af4 073B     		subs	r3, r3, #7
 1826 0af6 97F83420 		ldrb	r2, [r7, #52]	@ zero_extendqisi2
 1827 0afa 6B49     		ldr	r1, .L224+4
 1828 0afc 8A5C     		ldrb	r2, [r1, r2]	@ zero_extendqisi2
 1829 0afe 07F15001 		add	r1, r7, #80
 1830 0b02 0B44     		add	r3, r3, r1
 1831 0b04 03F8502C 		strb	r2, [r3, #-80]
 468:main.c        ****                         y++;
 1832              		.loc 1 468 0 discriminator 2
 1833 0b08 97F84D30 		ldrb	r3, [r7, #77]	@ zero_extendqisi2
 1834 0b0c 0133     		adds	r3, r3, #1
 1835 0b0e 87F84D30 		strb	r3, [r7, #77]
 464:main.c        ****                         if((touch1[LCDRx] == 0x00) ||(touch1[LCDRx] == 0xFF))
 1836              		.loc 1 464 0 discriminator 2
 1837 0b12 97F83430 		ldrb	r3, [r7, #52]	@ zero_extendqisi2
 1838 0b16 0133     		adds	r3, r3, #1
 1839 0b18 87F83430 		strb	r3, [r7, #52]
 1840              	.L120:
 464:main.c        ****                         if((touch1[LCDRx] == 0x00) ||(touch1[LCDRx] == 0xFF))
 1841              		.loc 1 464 0 is_stmt 0 discriminator 1
 1842 0b1c 97F83430 		ldrb	r3, [r7, #52]	@ zero_extendqisi2
 1843 0b20 0B2B     		cmp	r3, #11
 1844 0b22 D9D9     		bls	.L122
 1845              	.L121:
 1846              	.LBE25:
 469:main.c        ****             		}
 470:main.c        ****                     for (x = 6; x >0; x--){
 1847              		.loc 1 470 0 is_stmt 1
 1848 0b24 0623     		movs	r3, #6
 1849 0b26 87F84F30 		strb	r3, [r7, #79]
 1850 0b2a 1BE0     		b	.L123
 1851              	.L126:
 471:main.c        ****                         side.a.ProcessedPPU[0][x] = auxPrice[y];                        
 1852              		.loc 1 471 0
 1853 0b2c 97F84F30 		ldrb	r3, [r7, #79]	@ zero_extendqisi2
 1854 0b30 97F84D20 		ldrb	r2, [r7, #77]	@ zero_extendqisi2
 1855 0b34 07F15001 		add	r1, r7, #80
 1856 0b38 0A44     		add	r2, r2, r1
 1857 0b3a 12F8501C 		ldrb	r1, [r2, #-80]	@ zero_extendqisi2
 1858 0b3e 594A     		ldr	r2, .L224
 1859 0b40 1344     		add	r3, r3, r2
 1860 0b42 0A46     		mov	r2, r1
 1861 0b44 83F80B21 		strb	r2, [r3, #267]
 472:main.c        ****                         if(y == 0 )
 1862              		.loc 1 472 0
 1863 0b48 97F84D30 		ldrb	r3, [r7, #77]	@ zero_extendqisi2
 1864 0b4c 002B     		cmp	r3, #0
 1865 0b4e 0ED0     		beq	.L216
 473:main.c        ****                             break;
ARM GAS  C:\Users\Diego\AppData\Local\Temp\ccdqF4gL.s 			page 43


 474:main.c        ****                         y--;
 1866              		.loc 1 474 0 discriminator 2
 1867 0b50 97F84D30 		ldrb	r3, [r7, #77]	@ zero_extendqisi2
 1868 0b54 013B     		subs	r3, r3, #1
 1869 0b56 87F84D30 		strb	r3, [r7, #77]
 470:main.c        ****                         side.a.ProcessedPPU[0][x] = auxPrice[y];                        
 1870              		.loc 1 470 0 discriminator 2
 1871 0b5a 97F84F30 		ldrb	r3, [r7, #79]	@ zero_extendqisi2
 1872 0b5e 013B     		subs	r3, r3, #1
 1873 0b60 87F84F30 		strb	r3, [r7, #79]
 1874              	.L123:
 470:main.c        ****                         side.a.ProcessedPPU[0][x] = auxPrice[y];                        
 1875              		.loc 1 470 0 is_stmt 0 discriminator 1
 1876 0b64 97F84F30 		ldrb	r3, [r7, #79]	@ zero_extendqisi2
 1877 0b68 002B     		cmp	r3, #0
 1878 0b6a DFD1     		bne	.L126
 1879 0b6c 00E0     		b	.L125
 1880              	.L216:
 473:main.c        ****                             break;
 1881              		.loc 1 473 0 is_stmt 1
 1882 0b6e 00BF     		nop
 1883              	.L125:
 475:main.c        ****                     }
 476:main.c        ****                     
 477:main.c        ****                     side.a.ppuNozzle[0][0] = ((side.a.ProcessedPPU[0][0] - 0x30)<<4) |((side.a.Proc
 1884              		.loc 1 477 0
 1885 0b70 4C4B     		ldr	r3, .L224
 1886 0b72 93F80B31 		ldrb	r3, [r3, #267]	@ zero_extendqisi2
 1887 0b76 303B     		subs	r3, r3, #48
 1888 0b78 1B01     		lsls	r3, r3, #4
 1889 0b7a 5AB2     		sxtb	r2, r3
 1890 0b7c 494B     		ldr	r3, .L224
 1891 0b7e 93F80C31 		ldrb	r3, [r3, #268]	@ zero_extendqisi2
 1892 0b82 303B     		subs	r3, r3, #48
 1893 0b84 DBB2     		uxtb	r3, r3
 1894 0b86 5BB2     		sxtb	r3, r3
 1895 0b88 1343     		orrs	r3, r3, r2
 1896 0b8a 5BB2     		sxtb	r3, r3
 1897 0b8c DAB2     		uxtb	r2, r3
 1898 0b8e 454B     		ldr	r3, .L224
 1899 0b90 83F82920 		strb	r2, [r3, #41]
 478:main.c        ****                     side.a.ppuNozzle[0][1] = ((side.a.ProcessedPPU[0][2] - 0x30)<<4) |((side.a.Proc
 1900              		.loc 1 478 0
 1901 0b94 434B     		ldr	r3, .L224
 1902 0b96 93F80D31 		ldrb	r3, [r3, #269]	@ zero_extendqisi2
 1903 0b9a 303B     		subs	r3, r3, #48
 1904 0b9c 1B01     		lsls	r3, r3, #4
 1905 0b9e 5AB2     		sxtb	r2, r3
 1906 0ba0 404B     		ldr	r3, .L224
 1907 0ba2 93F80E31 		ldrb	r3, [r3, #270]	@ zero_extendqisi2
 1908 0ba6 303B     		subs	r3, r3, #48
 1909 0ba8 DBB2     		uxtb	r3, r3
 1910 0baa 5BB2     		sxtb	r3, r3
 1911 0bac 1343     		orrs	r3, r3, r2
 1912 0bae 5BB2     		sxtb	r3, r3
 1913 0bb0 DAB2     		uxtb	r2, r3
 1914 0bb2 3C4B     		ldr	r3, .L224
ARM GAS  C:\Users\Diego\AppData\Local\Temp\ccdqF4gL.s 			page 44


 1915 0bb4 83F82A20 		strb	r2, [r3, #42]
 479:main.c        ****                     side.a.ppuNozzle[0][2] = ((side.a.ProcessedPPU[0][4] - 0x30)<<4) |((side.a.Proc
 1916              		.loc 1 479 0
 1917 0bb8 3A4B     		ldr	r3, .L224
 1918 0bba 93F80F31 		ldrb	r3, [r3, #271]	@ zero_extendqisi2
 1919 0bbe 303B     		subs	r3, r3, #48
 1920 0bc0 1B01     		lsls	r3, r3, #4
 1921 0bc2 5AB2     		sxtb	r2, r3
 1922 0bc4 374B     		ldr	r3, .L224
 1923 0bc6 93F81031 		ldrb	r3, [r3, #272]	@ zero_extendqisi2
 1924 0bca 303B     		subs	r3, r3, #48
 1925 0bcc DBB2     		uxtb	r3, r3
 1926 0bce 5BB2     		sxtb	r3, r3
 1927 0bd0 1343     		orrs	r3, r3, r2
 1928 0bd2 5BB2     		sxtb	r3, r3
 1929 0bd4 DAB2     		uxtb	r2, r3
 1930 0bd6 334B     		ldr	r3, .L224
 1931 0bd8 83F82B20 		strb	r2, [r3, #43]
 480:main.c        ****                     for(x = 0; x < 3; x++){
 1932              		.loc 1 480 0
 1933 0bdc 0023     		movs	r3, #0
 1934 0bde 87F84F30 		strb	r3, [r7, #79]
 1935 0be2 13E0     		b	.L127
 1936              	.L128:
 481:main.c        ****                         EEPROM_1_WriteByte(side.a.ppuNozzle[0][x],12+x);
 1937              		.loc 1 481 0 discriminator 3
 1938 0be4 97F84F30 		ldrb	r3, [r7, #79]	@ zero_extendqisi2
 1939 0be8 2E4A     		ldr	r2, .L224
 1940 0bea 1344     		add	r3, r3, r2
 1941 0bec 93F82920 		ldrb	r2, [r3, #41]	@ zero_extendqisi2
 1942 0bf0 97F84F30 		ldrb	r3, [r7, #79]	@ zero_extendqisi2
 1943 0bf4 9BB2     		uxth	r3, r3
 1944 0bf6 0C33     		adds	r3, r3, #12
 1945 0bf8 9BB2     		uxth	r3, r3
 1946 0bfa 1946     		mov	r1, r3
 1947 0bfc 1046     		mov	r0, r2
 1948 0bfe FFF7FEFF 		bl	EEPROM_1_WriteByte
 480:main.c        ****                     for(x = 0; x < 3; x++){
 1949              		.loc 1 480 0 discriminator 3
 1950 0c02 97F84F30 		ldrb	r3, [r7, #79]	@ zero_extendqisi2
 1951 0c06 0133     		adds	r3, r3, #1
 1952 0c08 87F84F30 		strb	r3, [r7, #79]
 1953              	.L127:
 480:main.c        ****                     for(x = 0; x < 3; x++){
 1954              		.loc 1 480 0 is_stmt 0 discriminator 1
 1955 0c0c 97F84F30 		ldrb	r3, [r7, #79]	@ zero_extendqisi2
 1956 0c10 022B     		cmp	r3, #2
 1957 0c12 E7D9     		bls	.L128
 1958              	.LBB26:
 482:main.c        ****                     }                                                            
 483:main.c        ****                     for(uint8 LCDRx = 0; LCDRx < 20; LCDRx++){
 1959              		.loc 1 483 0 is_stmt 1
 1960 0c14 0023     		movs	r3, #0
 1961 0c16 87F83330 		strb	r3, [r7, #51]
 1962 0c1a 09E0     		b	.L129
 1963              	.L130:
 484:main.c        ****             			touch1[LCDRx] = 0x00;
ARM GAS  C:\Users\Diego\AppData\Local\Temp\ccdqF4gL.s 			page 45


 1964              		.loc 1 484 0 discriminator 3
 1965 0c1c 97F83330 		ldrb	r3, [r7, #51]	@ zero_extendqisi2
 1966 0c20 214A     		ldr	r2, .L224+4
 1967 0c22 0021     		movs	r1, #0
 1968 0c24 D154     		strb	r1, [r2, r3]
 483:main.c        ****             			touch1[LCDRx] = 0x00;
 1969              		.loc 1 483 0 discriminator 3
 1970 0c26 97F83330 		ldrb	r3, [r7, #51]	@ zero_extendqisi2
 1971 0c2a 0133     		adds	r3, r3, #1
 1972 0c2c 87F83330 		strb	r3, [r7, #51]
 1973              	.L129:
 483:main.c        ****             			touch1[LCDRx] = 0x00;
 1974              		.loc 1 483 0 is_stmt 0 discriminator 1
 1975 0c30 97F83330 		ldrb	r3, [r7, #51]	@ zero_extendqisi2
 1976 0c34 132B     		cmp	r3, #19
 1977 0c36 F1D9     		bls	.L130
 1978              	.L117:
 1979              	.LBE26:
 485:main.c        ****             		}
 486:main.c        ****                 }
 487:main.c        ****                 if(touch1[3] == 0x83 && price_change == 1 ){
 1980              		.loc 1 487 0 is_stmt 1
 1981 0c38 1B4B     		ldr	r3, .L224+4
 1982 0c3a DB78     		ldrb	r3, [r3, #3]	@ zero_extendqisi2
 1983 0c3c 832B     		cmp	r3, #131
 1984 0c3e 0AD1     		bne	.L131
 1985              		.loc 1 487 0 is_stmt 0 discriminator 1
 1986 0c40 97F84C30 		ldrb	r3, [r7, #76]	@ zero_extendqisi2
 1987 0c44 012B     		cmp	r3, #1
 1988 0c46 06D1     		bne	.L131
 488:main.c        ****                     LCDhose = touch1[8];
 1989              		.loc 1 488 0 is_stmt 1
 1990 0c48 174B     		ldr	r3, .L224+4
 1991 0c4a 1A7A     		ldrb	r2, [r3, #8]	@ zero_extendqisi2
 1992 0c4c 174B     		ldr	r3, .L224+8
 1993 0c4e 1A70     		strb	r2, [r3]
 489:main.c        ****                     price_change = 0x0A;
 1994              		.loc 1 489 0
 1995 0c50 0A23     		movs	r3, #10
 1996 0c52 87F84C30 		strb	r3, [r7, #76]
 1997              	.L131:
 490:main.c        ****                 }
 491:main.c        ****         		if(touch1[3] == 0x83 && W_autorize == 3){             
 1998              		.loc 1 491 0
 1999 0c56 144B     		ldr	r3, .L224+4
 2000 0c58 DB78     		ldrb	r3, [r3, #3]	@ zero_extendqisi2
 2001 0c5a 832B     		cmp	r3, #131
 2002 0c5c 5ED1     		bne	.L132
 2003              		.loc 1 491 0 is_stmt 0 discriminator 1
 2004 0c5e 97F84E30 		ldrb	r3, [r7, #78]	@ zero_extendqisi2
 2005 0c62 032B     		cmp	r3, #3
 2006 0c64 5AD1     		bne	.L132
 492:main.c        ****                     W_autorize = 0;
 2007              		.loc 1 492 0 is_stmt 1
 2008 0c66 0023     		movs	r3, #0
 2009 0c68 87F84E30 		strb	r3, [r7, #78]
 493:main.c        ****                     if((touch1[7] == passw[0])&&(touch1[8] == passw[1])&&(touch1[9] == passw[2]) &&
ARM GAS  C:\Users\Diego\AppData\Local\Temp\ccdqF4gL.s 			page 46


 2010              		.loc 1 493 0
 2011 0c6c 0E4B     		ldr	r3, .L224+4
 2012 0c6e DA79     		ldrb	r2, [r3, #7]	@ zero_extendqisi2
 2013 0c70 3B7E     		ldrb	r3, [r7, #24]	@ zero_extendqisi2
 2014 0c72 9A42     		cmp	r2, r3
 2015 0c74 32D1     		bne	.L133
 2016              		.loc 1 493 0 is_stmt 0 discriminator 1
 2017 0c76 0C4B     		ldr	r3, .L224+4
 2018 0c78 1A7A     		ldrb	r2, [r3, #8]	@ zero_extendqisi2
 2019 0c7a 7B7E     		ldrb	r3, [r7, #25]	@ zero_extendqisi2
 2020 0c7c 9A42     		cmp	r2, r3
 2021 0c7e 2DD1     		bne	.L133
 2022              		.loc 1 493 0 discriminator 2
 2023 0c80 094B     		ldr	r3, .L224+4
 2024 0c82 5A7A     		ldrb	r2, [r3, #9]	@ zero_extendqisi2
 2025 0c84 BB7E     		ldrb	r3, [r7, #26]	@ zero_extendqisi2
 2026 0c86 9A42     		cmp	r2, r3
 2027 0c88 28D1     		bne	.L133
 2028              		.loc 1 493 0 discriminator 3
 2029 0c8a 074B     		ldr	r3, .L224+4
 2030 0c8c 9A7A     		ldrb	r2, [r3, #10]	@ zero_extendqisi2
 2031 0c8e FB7E     		ldrb	r3, [r7, #27]	@ zero_extendqisi2
 2032 0c90 9A42     		cmp	r2, r3
 2033 0c92 23D1     		bne	.L133
 2034              		.loc 1 493 0 discriminator 4
 2035 0c94 044B     		ldr	r3, .L224+4
 2036 0c96 DB7A     		ldrb	r3, [r3, #11]	@ zero_extendqisi2
 2037 0c98 FF2B     		cmp	r3, #255
 2038 0c9a 1FD1     		bne	.L133
 2039              	.LBB27:
 494:main.c        ****                         for(uint8 LCDRx = 0; LCDRx < 6; LCDRx++){
 2040              		.loc 1 494 0 is_stmt 1
 2041 0c9c 0023     		movs	r3, #0
 2042 0c9e 87F83230 		strb	r3, [r7, #50]
 2043 0ca2 14E0     		b	.L134
 2044              	.L225:
 2045              		.align	2
 2046              	.L224:
 2047 0ca4 00000000 		.word	side
 2048 0ca8 00000000 		.word	touch1
 2049 0cac 00000000 		.word	LCDhose
 2050              	.L135:
 495:main.c        ****                             screen_PutChar(change_pic[LCDRx]);
 2051              		.loc 1 495 0 discriminator 3
 2052 0cb0 97F83230 		ldrb	r3, [r7, #50]	@ zero_extendqisi2
 2053 0cb4 07F15002 		add	r2, r7, #80
 2054 0cb8 1344     		add	r3, r3, r2
 2055 0cba 13F8403C 		ldrb	r3, [r3, #-64]	@ zero_extendqisi2
 2056 0cbe 1846     		mov	r0, r3
 2057 0cc0 FFF7FEFF 		bl	screen_PutChar
 494:main.c        ****                         for(uint8 LCDRx = 0; LCDRx < 6; LCDRx++){
 2058              		.loc 1 494 0 discriminator 3
 2059 0cc4 97F83230 		ldrb	r3, [r7, #50]	@ zero_extendqisi2
 2060 0cc8 0133     		adds	r3, r3, #1
 2061 0cca 87F83230 		strb	r3, [r7, #50]
 2062              	.L134:
 494:main.c        ****                         for(uint8 LCDRx = 0; LCDRx < 6; LCDRx++){
ARM GAS  C:\Users\Diego\AppData\Local\Temp\ccdqF4gL.s 			page 47


 2063              		.loc 1 494 0 is_stmt 0 discriminator 1
 2064 0cce 97F83230 		ldrb	r3, [r7, #50]	@ zero_extendqisi2
 2065 0cd2 052B     		cmp	r3, #5
 2066 0cd4 ECD9     		bls	.L135
 2067              	.LBE27:
 496:main.c        ****                         }
 497:main.c        ****                         CyDelay(4);
 2068              		.loc 1 497 0 is_stmt 1
 2069 0cd6 0420     		movs	r0, #4
 2070 0cd8 FFF7FEFF 		bl	CyDelay
 2071              	.L133:
 498:main.c        ****                     }
 499:main.c        ****                     if(touch1[8] == 0x01)
 2072              		.loc 1 499 0
 2073 0cdc B84B     		ldr	r3, .L226
 2074 0cde 1B7A     		ldrb	r3, [r3, #8]	@ zero_extendqisi2
 2075 0ce0 012B     		cmp	r3, #1
 2076 0ce2 02D1     		bne	.L136
 500:main.c        ****                         price_change = 1;
 2077              		.loc 1 500 0
 2078 0ce4 0123     		movs	r3, #1
 2079 0ce6 87F84C30 		strb	r3, [r7, #76]
 2080              	.L136:
 501:main.c        ****                     if(touch1[8] == 0x02)
 2081              		.loc 1 501 0
 2082 0cea B54B     		ldr	r3, .L226
 2083 0cec 1B7A     		ldrb	r3, [r3, #8]	@ zero_extendqisi2
 2084 0cee 022B     		cmp	r3, #2
 2085 0cf0 02D1     		bne	.L137
 502:main.c        ****                         price_change = 2;
 2086              		.loc 1 502 0
 2087 0cf2 0223     		movs	r3, #2
 2088 0cf4 87F84C30 		strb	r3, [r7, #76]
 2089              	.L137:
 2090              	.LBB28:
 503:main.c        ****                     for(uint8 LCDRx = 0; LCDRx < 20; LCDRx++){
 2091              		.loc 1 503 0
 2092 0cf8 0023     		movs	r3, #0
 2093 0cfa 87F83130 		strb	r3, [r7, #49]
 2094 0cfe 09E0     		b	.L138
 2095              	.L139:
 504:main.c        ****             			touch1[LCDRx] = 0x00;
 2096              		.loc 1 504 0 discriminator 3
 2097 0d00 97F83130 		ldrb	r3, [r7, #49]	@ zero_extendqisi2
 2098 0d04 AE4A     		ldr	r2, .L226
 2099 0d06 0021     		movs	r1, #0
 2100 0d08 D154     		strb	r1, [r2, r3]
 503:main.c        ****                     for(uint8 LCDRx = 0; LCDRx < 20; LCDRx++){
 2101              		.loc 1 503 0 discriminator 3
 2102 0d0a 97F83130 		ldrb	r3, [r7, #49]	@ zero_extendqisi2
 2103 0d0e 0133     		adds	r3, r3, #1
 2104 0d10 87F83130 		strb	r3, [r7, #49]
 2105              	.L138:
 503:main.c        ****                     for(uint8 LCDRx = 0; LCDRx < 20; LCDRx++){
 2106              		.loc 1 503 0 is_stmt 0 discriminator 1
 2107 0d14 97F83130 		ldrb	r3, [r7, #49]	@ zero_extendqisi2
 2108 0d18 132B     		cmp	r3, #19
ARM GAS  C:\Users\Diego\AppData\Local\Temp\ccdqF4gL.s 			page 48


 2109 0d1a F1D9     		bls	.L139
 2110              	.L132:
 2111              	.LBE28:
 505:main.c        ****             		}
 506:main.c        ****                 } 
 507:main.c        ****                 if(touch1[3] == 0x83 && W_autorize == 0x1A){                                 
 2112              		.loc 1 507 0 is_stmt 1
 2113 0d1c A84B     		ldr	r3, .L226
 2114 0d1e DB78     		ldrb	r3, [r3, #3]	@ zero_extendqisi2
 2115 0d20 832B     		cmp	r3, #131
 2116 0d22 3DD1     		bne	.L140
 2117              		.loc 1 507 0 is_stmt 0 discriminator 1
 2118 0d24 97F84E30 		ldrb	r3, [r7, #78]	@ zero_extendqisi2
 2119 0d28 1A2B     		cmp	r3, #26
 2120 0d2a 39D1     		bne	.L140
 2121              	.LBB29:
 508:main.c        ****                     for(uint8 LCDRx = 7; LCDRx < 15; LCDRx++){
 2122              		.loc 1 508 0 is_stmt 1
 2123 0d2c 0723     		movs	r3, #7
 2124 0d2e 87F83030 		strb	r3, [r7, #48]
 2125 0d32 1CE0     		b	.L141
 2126              	.L143:
 509:main.c        ****                         if((touch1[LCDRx] == 0x00) ||(touch1[LCDRx] == 0xFF))
 2127              		.loc 1 509 0
 2128 0d34 97F83030 		ldrb	r3, [r7, #48]	@ zero_extendqisi2
 2129 0d38 A14A     		ldr	r2, .L226
 2130 0d3a D35C     		ldrb	r3, [r2, r3]	@ zero_extendqisi2
 2131 0d3c 002B     		cmp	r3, #0
 2132 0d3e 1AD0     		beq	.L142
 2133              		.loc 1 509 0 is_stmt 0 discriminator 1
 2134 0d40 97F83030 		ldrb	r3, [r7, #48]	@ zero_extendqisi2
 2135 0d44 9E4A     		ldr	r2, .L226
 2136 0d46 D35C     		ldrb	r3, [r2, r3]	@ zero_extendqisi2
 2137 0d48 FF2B     		cmp	r3, #255
 2138 0d4a 14D0     		beq	.L142
 510:main.c        ****                             break;
 511:main.c        ****                         side.a.km[LCDRx-7] = touch1[LCDRx];
 2139              		.loc 1 511 0 is_stmt 1 discriminator 2
 2140 0d4c 97F83030 		ldrb	r3, [r7, #48]	@ zero_extendqisi2
 2141 0d50 073B     		subs	r3, r3, #7
 2142 0d52 97F83020 		ldrb	r2, [r7, #48]	@ zero_extendqisi2
 2143 0d56 9A49     		ldr	r1, .L226
 2144 0d58 895C     		ldrb	r1, [r1, r2]	@ zero_extendqisi2
 2145 0d5a 9A4A     		ldr	r2, .L226+4
 2146 0d5c 1344     		add	r3, r3, r2
 2147 0d5e 0A46     		mov	r2, r1
 2148 0d60 83F82D21 		strb	r2, [r3, #301]
 508:main.c        ****                         if((touch1[LCDRx] == 0x00) ||(touch1[LCDRx] == 0xFF))
 2149              		.loc 1 508 0 discriminator 2
 2150 0d64 97F83030 		ldrb	r3, [r7, #48]	@ zero_extendqisi2
 2151 0d68 0133     		adds	r3, r3, #1
 2152 0d6a 87F83030 		strb	r3, [r7, #48]
 2153              	.L141:
 508:main.c        ****                         if((touch1[LCDRx] == 0x00) ||(touch1[LCDRx] == 0xFF))
 2154              		.loc 1 508 0 is_stmt 0 discriminator 1
 2155 0d6e 97F83030 		ldrb	r3, [r7, #48]	@ zero_extendqisi2
 2156 0d72 0E2B     		cmp	r3, #14
ARM GAS  C:\Users\Diego\AppData\Local\Temp\ccdqF4gL.s 			page 49


 2157 0d74 DED9     		bls	.L143
 2158              	.L142:
 2159              	.LBE29:
 2160              	.LBB30:
 512:main.c        ****             		}
 513:main.c        ****                     for(uint8 LCDRx = 0; LCDRx < 20; LCDRx++){
 2161              		.loc 1 513 0 is_stmt 1
 2162 0d76 0023     		movs	r3, #0
 2163 0d78 87F82F30 		strb	r3, [r7, #47]
 2164 0d7c 09E0     		b	.L144
 2165              	.L145:
 514:main.c        ****             			touch1[LCDRx] = 0x00;
 2166              		.loc 1 514 0 discriminator 3
 2167 0d7e 97F82F30 		ldrb	r3, [r7, #47]	@ zero_extendqisi2
 2168 0d82 8F4A     		ldr	r2, .L226
 2169 0d84 0021     		movs	r1, #0
 2170 0d86 D154     		strb	r1, [r2, r3]
 513:main.c        ****             			touch1[LCDRx] = 0x00;
 2171              		.loc 1 513 0 discriminator 3
 2172 0d88 97F82F30 		ldrb	r3, [r7, #47]	@ zero_extendqisi2
 2173 0d8c 0133     		adds	r3, r3, #1
 2174 0d8e 87F82F30 		strb	r3, [r7, #47]
 2175              	.L144:
 513:main.c        ****             			touch1[LCDRx] = 0x00;
 2176              		.loc 1 513 0 is_stmt 0 discriminator 1
 2177 0d92 97F82F30 		ldrb	r3, [r7, #47]	@ zero_extendqisi2
 2178 0d96 132B     		cmp	r3, #19
 2179 0d98 F1D9     		bls	.L145
 2180              	.LBE30:
 515:main.c        ****             		}                    
 516:main.c        ****                     W_autorize = 0x0A;
 2181              		.loc 1 516 0 is_stmt 1
 2182 0d9a 0A23     		movs	r3, #10
 2183 0d9c 87F84E30 		strb	r3, [r7, #78]
 2184              	.L140:
 517:main.c        ****                 }
 518:main.c        ****                 if(touch1[3] == 0x83 && W_autorize == 0xC1){                                 
 2185              		.loc 1 518 0
 2186 0da0 874B     		ldr	r3, .L226
 2187 0da2 DB78     		ldrb	r3, [r3, #3]	@ zero_extendqisi2
 2188 0da4 832B     		cmp	r3, #131
 2189 0da6 7BD1     		bne	.L146
 2190              		.loc 1 518 0 is_stmt 0 discriminator 1
 2191 0da8 97F84E30 		ldrb	r3, [r7, #78]	@ zero_extendqisi2
 2192 0dac C12B     		cmp	r3, #193
 2193 0dae 77D1     		bne	.L146
 2194              	.LBB31:
 519:main.c        ****                     for(uint8 LCDRx = 7; LCDRx < 11; LCDRx++){
 2195              		.loc 1 519 0 is_stmt 1
 2196 0db0 0723     		movs	r3, #7
 2197 0db2 87F82E30 		strb	r3, [r7, #46]
 2198 0db6 1EE0     		b	.L147
 2199              	.L149:
 520:main.c        ****                         if((touch1[LCDRx] == 0x00) ||(touch1[LCDRx] == 0xFF))
 2200              		.loc 1 520 0
 2201 0db8 97F82E30 		ldrb	r3, [r7, #46]	@ zero_extendqisi2
 2202 0dbc 804A     		ldr	r2, .L226
ARM GAS  C:\Users\Diego\AppData\Local\Temp\ccdqF4gL.s 			page 50


 2203 0dbe D35C     		ldrb	r3, [r2, r3]	@ zero_extendqisi2
 2204 0dc0 002B     		cmp	r3, #0
 2205 0dc2 1CD0     		beq	.L148
 2206              		.loc 1 520 0 is_stmt 0 discriminator 1
 2207 0dc4 97F82E30 		ldrb	r3, [r7, #46]	@ zero_extendqisi2
 2208 0dc8 7D4A     		ldr	r2, .L226
 2209 0dca D35C     		ldrb	r3, [r2, r3]	@ zero_extendqisi2
 2210 0dcc FF2B     		cmp	r3, #255
 2211 0dce 16D0     		beq	.L148
 521:main.c        ****                             break;                        
 522:main.c        ****                             side.a.ProcessedPPU[0][LCDRx-7] = touch1[LCDRx]- 0x30;
 2212              		.loc 1 522 0 is_stmt 1 discriminator 2
 2213 0dd0 97F82E30 		ldrb	r3, [r7, #46]	@ zero_extendqisi2
 2214 0dd4 073B     		subs	r3, r3, #7
 2215 0dd6 97F82E20 		ldrb	r2, [r7, #46]	@ zero_extendqisi2
 2216 0dda 7949     		ldr	r1, .L226
 2217 0ddc 8A5C     		ldrb	r2, [r1, r2]	@ zero_extendqisi2
 2218 0dde 303A     		subs	r2, r2, #48
 2219 0de0 D1B2     		uxtb	r1, r2
 2220 0de2 784A     		ldr	r2, .L226+4
 2221 0de4 1344     		add	r3, r3, r2
 2222 0de6 0A46     		mov	r2, r1
 2223 0de8 83F80B21 		strb	r2, [r3, #267]
 519:main.c        ****                         if((touch1[LCDRx] == 0x00) ||(touch1[LCDRx] == 0xFF))
 2224              		.loc 1 519 0 discriminator 2
 2225 0dec 97F82E30 		ldrb	r3, [r7, #46]	@ zero_extendqisi2
 2226 0df0 0133     		adds	r3, r3, #1
 2227 0df2 87F82E30 		strb	r3, [r7, #46]
 2228              	.L147:
 519:main.c        ****                         if((touch1[LCDRx] == 0x00) ||(touch1[LCDRx] == 0xFF))
 2229              		.loc 1 519 0 is_stmt 0 discriminator 1
 2230 0df6 97F82E30 		ldrb	r3, [r7, #46]	@ zero_extendqisi2
 2231 0dfa 0A2B     		cmp	r3, #10
 2232 0dfc DCD9     		bls	.L149
 2233              	.L148:
 2234              	.LBE31:
 2235              	.LBB32:
 523:main.c        ****                         
 524:main.c        ****             		}
 525:main.c        ****                     for(uint8 LCDRx = 0; LCDRx < 20; LCDRx++){
 2236              		.loc 1 525 0 is_stmt 1
 2237 0dfe 0023     		movs	r3, #0
 2238 0e00 87F82D30 		strb	r3, [r7, #45]
 2239 0e04 09E0     		b	.L150
 2240              	.L151:
 526:main.c        ****             			touch1[LCDRx] = 0x00;
 2241              		.loc 1 526 0 discriminator 3
 2242 0e06 97F82D30 		ldrb	r3, [r7, #45]	@ zero_extendqisi2
 2243 0e0a 6D4A     		ldr	r2, .L226
 2244 0e0c 0021     		movs	r1, #0
 2245 0e0e D154     		strb	r1, [r2, r3]
 525:main.c        ****             			touch1[LCDRx] = 0x00;
 2246              		.loc 1 525 0 discriminator 3
 2247 0e10 97F82D30 		ldrb	r3, [r7, #45]	@ zero_extendqisi2
 2248 0e14 0133     		adds	r3, r3, #1
 2249 0e16 87F82D30 		strb	r3, [r7, #45]
 2250              	.L150:
ARM GAS  C:\Users\Diego\AppData\Local\Temp\ccdqF4gL.s 			page 51


 525:main.c        ****             			touch1[LCDRx] = 0x00;
 2251              		.loc 1 525 0 is_stmt 0 discriminator 1
 2252 0e1a 97F82D30 		ldrb	r3, [r7, #45]	@ zero_extendqisi2
 2253 0e1e 132B     		cmp	r3, #19
 2254 0e20 F1D9     		bls	.L151
 2255              	.LBE32:
 527:main.c        ****             		}
 528:main.c        ****                     side.a.ppuNozzle[0][0] = ((side.a.ProcessedPPU[0][0] - 0x30)<<4) |((side.a.Proc
 2256              		.loc 1 528 0 is_stmt 1
 2257 0e22 684B     		ldr	r3, .L226+4
 2258 0e24 93F80B31 		ldrb	r3, [r3, #267]	@ zero_extendqisi2
 2259 0e28 303B     		subs	r3, r3, #48
 2260 0e2a 1B01     		lsls	r3, r3, #4
 2261 0e2c 5AB2     		sxtb	r2, r3
 2262 0e2e 654B     		ldr	r3, .L226+4
 2263 0e30 93F80C31 		ldrb	r3, [r3, #268]	@ zero_extendqisi2
 2264 0e34 303B     		subs	r3, r3, #48
 2265 0e36 DBB2     		uxtb	r3, r3
 2266 0e38 5BB2     		sxtb	r3, r3
 2267 0e3a 1343     		orrs	r3, r3, r2
 2268 0e3c 5BB2     		sxtb	r3, r3
 2269 0e3e DAB2     		uxtb	r2, r3
 2270 0e40 604B     		ldr	r3, .L226+4
 2271 0e42 83F82920 		strb	r2, [r3, #41]
 529:main.c        ****                     side.a.ppuNozzle[0][1] = ((side.a.ProcessedPPU[0][2] - 0x30)<<4) |((side.a.Proc
 2272              		.loc 1 529 0
 2273 0e46 5F4B     		ldr	r3, .L226+4
 2274 0e48 93F80D31 		ldrb	r3, [r3, #269]	@ zero_extendqisi2
 2275 0e4c 303B     		subs	r3, r3, #48
 2276 0e4e 1B01     		lsls	r3, r3, #4
 2277 0e50 5AB2     		sxtb	r2, r3
 2278 0e52 5C4B     		ldr	r3, .L226+4
 2279 0e54 93F80E31 		ldrb	r3, [r3, #270]	@ zero_extendqisi2
 2280 0e58 303B     		subs	r3, r3, #48
 2281 0e5a DBB2     		uxtb	r3, r3
 2282 0e5c 5BB2     		sxtb	r3, r3
 2283 0e5e 1343     		orrs	r3, r3, r2
 2284 0e60 5BB2     		sxtb	r3, r3
 2285 0e62 DAB2     		uxtb	r2, r3
 2286 0e64 574B     		ldr	r3, .L226+4
 2287 0e66 83F82A20 		strb	r2, [r3, #42]
 530:main.c        ****                     side.a.ppuNozzle[0][2] = ((side.a.ProcessedPPU[0][4] - 0x30)<<4) |((side.a.Proc
 2288              		.loc 1 530 0
 2289 0e6a 564B     		ldr	r3, .L226+4
 2290 0e6c 93F80F31 		ldrb	r3, [r3, #271]	@ zero_extendqisi2
 2291 0e70 303B     		subs	r3, r3, #48
 2292 0e72 1B01     		lsls	r3, r3, #4
 2293 0e74 5AB2     		sxtb	r2, r3
 2294 0e76 534B     		ldr	r3, .L226+4
 2295 0e78 93F81031 		ldrb	r3, [r3, #272]	@ zero_extendqisi2
 2296 0e7c 303B     		subs	r3, r3, #48
 2297 0e7e DBB2     		uxtb	r3, r3
 2298 0e80 5BB2     		sxtb	r3, r3
 2299 0e82 1343     		orrs	r3, r3, r2
 2300 0e84 5BB2     		sxtb	r3, r3
 2301 0e86 DAB2     		uxtb	r2, r3
 2302 0e88 4E4B     		ldr	r3, .L226+4
ARM GAS  C:\Users\Diego\AppData\Local\Temp\ccdqF4gL.s 			page 52


 2303 0e8a 83F82B20 		strb	r2, [r3, #43]
 531:main.c        ****                     PriceUpdate(side.a.dir,side.a.ppuNozzle[0]);
 2304              		.loc 1 531 0
 2305 0e8e 4D4B     		ldr	r3, .L226+4
 2306 0e90 1B78     		ldrb	r3, [r3]	@ zero_extendqisi2
 2307 0e92 4D49     		ldr	r1, .L226+8
 2308 0e94 1846     		mov	r0, r3
 2309 0e96 FFF7FEFF 		bl	PriceUpdate
 532:main.c        ****                     W_autorize = 0;
 2310              		.loc 1 532 0
 2311 0e9a 0023     		movs	r3, #0
 2312 0e9c 87F84E30 		strb	r3, [r7, #78]
 2313              	.L146:
 533:main.c        ****                 }
 534:main.c        ****                 if(touch1[3] == 0x83 && W_autorize == 0xC2){                                 
 2314              		.loc 1 534 0
 2315 0ea0 474B     		ldr	r3, .L226
 2316 0ea2 DB78     		ldrb	r3, [r3, #3]	@ zero_extendqisi2
 2317 0ea4 832B     		cmp	r3, #131
 2318 0ea6 7CD1     		bne	.L152
 2319              		.loc 1 534 0 is_stmt 0 discriminator 1
 2320 0ea8 97F84E30 		ldrb	r3, [r7, #78]	@ zero_extendqisi2
 2321 0eac C22B     		cmp	r3, #194
 2322 0eae 78D1     		bne	.L152
 2323              	.LBB33:
 535:main.c        ****                     for(uint8 LCDRx = 7; LCDRx < 11; LCDRx++){
 2324              		.loc 1 535 0 is_stmt 1
 2325 0eb0 0723     		movs	r3, #7
 2326 0eb2 87F82C30 		strb	r3, [r7, #44]
 2327 0eb6 1EE0     		b	.L153
 2328              	.L155:
 536:main.c        ****                         if((touch1[LCDRx] == 0x00) ||(touch1[LCDRx] == 0xFF))
 2329              		.loc 1 536 0
 2330 0eb8 97F82C30 		ldrb	r3, [r7, #44]	@ zero_extendqisi2
 2331 0ebc 404A     		ldr	r2, .L226
 2332 0ebe D35C     		ldrb	r3, [r2, r3]	@ zero_extendqisi2
 2333 0ec0 002B     		cmp	r3, #0
 2334 0ec2 1CD0     		beq	.L154
 2335              		.loc 1 536 0 is_stmt 0 discriminator 1
 2336 0ec4 97F82C30 		ldrb	r3, [r7, #44]	@ zero_extendqisi2
 2337 0ec8 3D4A     		ldr	r2, .L226
 2338 0eca D35C     		ldrb	r3, [r2, r3]	@ zero_extendqisi2
 2339 0ecc FF2B     		cmp	r3, #255
 2340 0ece 16D0     		beq	.L154
 537:main.c        ****                             break;                        
 538:main.c        ****                             side.b.ProcessedPPU[0][LCDRx-7] = touch1[LCDRx]- 0x30;
 2341              		.loc 1 538 0 is_stmt 1 discriminator 2
 2342 0ed0 97F82C30 		ldrb	r3, [r7, #44]	@ zero_extendqisi2
 2343 0ed4 073B     		subs	r3, r3, #7
 2344 0ed6 97F82C20 		ldrb	r2, [r7, #44]	@ zero_extendqisi2
 2345 0eda 3949     		ldr	r1, .L226
 2346 0edc 8A5C     		ldrb	r2, [r1, r2]	@ zero_extendqisi2
 2347 0ede 303A     		subs	r2, r2, #48
 2348 0ee0 D1B2     		uxtb	r1, r2
 2349 0ee2 384A     		ldr	r2, .L226+4
 2350 0ee4 1344     		add	r3, r3, r2
 2351 0ee6 0A46     		mov	r2, r1
ARM GAS  C:\Users\Diego\AppData\Local\Temp\ccdqF4gL.s 			page 53


 2352 0ee8 83F84022 		strb	r2, [r3, #576]
 535:main.c        ****                         if((touch1[LCDRx] == 0x00) ||(touch1[LCDRx] == 0xFF))
 2353              		.loc 1 535 0 discriminator 2
 2354 0eec 97F82C30 		ldrb	r3, [r7, #44]	@ zero_extendqisi2
 2355 0ef0 0133     		adds	r3, r3, #1
 2356 0ef2 87F82C30 		strb	r3, [r7, #44]
 2357              	.L153:
 535:main.c        ****                         if((touch1[LCDRx] == 0x00) ||(touch1[LCDRx] == 0xFF))
 2358              		.loc 1 535 0 is_stmt 0 discriminator 1
 2359 0ef6 97F82C30 		ldrb	r3, [r7, #44]	@ zero_extendqisi2
 2360 0efa 0A2B     		cmp	r3, #10
 2361 0efc DCD9     		bls	.L155
 2362              	.L154:
 2363              	.LBE33:
 2364              	.LBB34:
 539:main.c        ****                         
 540:main.c        ****             		}
 541:main.c        ****                     for(uint8 LCDRx = 0; LCDRx < 20; LCDRx++){
 2365              		.loc 1 541 0 is_stmt 1
 2366 0efe 0023     		movs	r3, #0
 2367 0f00 87F82B30 		strb	r3, [r7, #43]
 2368 0f04 09E0     		b	.L156
 2369              	.L157:
 542:main.c        ****             			touch1[LCDRx] = 0x00;
 2370              		.loc 1 542 0 discriminator 3
 2371 0f06 97F82B30 		ldrb	r3, [r7, #43]	@ zero_extendqisi2
 2372 0f0a 2D4A     		ldr	r2, .L226
 2373 0f0c 0021     		movs	r1, #0
 2374 0f0e D154     		strb	r1, [r2, r3]
 541:main.c        ****             			touch1[LCDRx] = 0x00;
 2375              		.loc 1 541 0 discriminator 3
 2376 0f10 97F82B30 		ldrb	r3, [r7, #43]	@ zero_extendqisi2
 2377 0f14 0133     		adds	r3, r3, #1
 2378 0f16 87F82B30 		strb	r3, [r7, #43]
 2379              	.L156:
 541:main.c        ****             			touch1[LCDRx] = 0x00;
 2380              		.loc 1 541 0 is_stmt 0 discriminator 1
 2381 0f1a 97F82B30 		ldrb	r3, [r7, #43]	@ zero_extendqisi2
 2382 0f1e 132B     		cmp	r3, #19
 2383 0f20 F1D9     		bls	.L157
 2384              	.LBE34:
 543:main.c        ****             		}
 544:main.c        ****                     side.b.ppuNozzle[0][0] = ((side.b.ProcessedPPU[0][0] - 0x30)<<4) |((side.b.Proc
 2385              		.loc 1 544 0 is_stmt 1
 2386 0f22 284B     		ldr	r3, .L226+4
 2387 0f24 93F84032 		ldrb	r3, [r3, #576]	@ zero_extendqisi2
 2388 0f28 303B     		subs	r3, r3, #48
 2389 0f2a 1B01     		lsls	r3, r3, #4
 2390 0f2c 5AB2     		sxtb	r2, r3
 2391 0f2e 254B     		ldr	r3, .L226+4
 2392 0f30 93F84132 		ldrb	r3, [r3, #577]	@ zero_extendqisi2
 2393 0f34 303B     		subs	r3, r3, #48
 2394 0f36 DBB2     		uxtb	r3, r3
 2395 0f38 5BB2     		sxtb	r3, r3
 2396 0f3a 1343     		orrs	r3, r3, r2
 2397 0f3c 5BB2     		sxtb	r3, r3
 2398 0f3e DAB2     		uxtb	r2, r3
ARM GAS  C:\Users\Diego\AppData\Local\Temp\ccdqF4gL.s 			page 54


 2399 0f40 204B     		ldr	r3, .L226+4
 2400 0f42 83F85E21 		strb	r2, [r3, #350]
 545:main.c        ****                     side.b.ppuNozzle[0][1] = ((side.b.ProcessedPPU[0][2] - 0x30)<<4) |((side.b.Proc
 2401              		.loc 1 545 0
 2402 0f46 1F4B     		ldr	r3, .L226+4
 2403 0f48 93F84232 		ldrb	r3, [r3, #578]	@ zero_extendqisi2
 2404 0f4c 303B     		subs	r3, r3, #48
 2405 0f4e 1B01     		lsls	r3, r3, #4
 2406 0f50 5AB2     		sxtb	r2, r3
 2407 0f52 1C4B     		ldr	r3, .L226+4
 2408 0f54 93F84332 		ldrb	r3, [r3, #579]	@ zero_extendqisi2
 2409 0f58 303B     		subs	r3, r3, #48
 2410 0f5a DBB2     		uxtb	r3, r3
 2411 0f5c 5BB2     		sxtb	r3, r3
 2412 0f5e 1343     		orrs	r3, r3, r2
 2413 0f60 5BB2     		sxtb	r3, r3
 2414 0f62 DAB2     		uxtb	r2, r3
 2415 0f64 174B     		ldr	r3, .L226+4
 2416 0f66 83F85F21 		strb	r2, [r3, #351]
 546:main.c        ****                     side.b.ppuNozzle[0][2] = ((side.b.ProcessedPPU[0][4] - 0x30)<<4) |((side.b.Proc
 2417              		.loc 1 546 0
 2418 0f6a 164B     		ldr	r3, .L226+4
 2419 0f6c 93F84432 		ldrb	r3, [r3, #580]	@ zero_extendqisi2
 2420 0f70 303B     		subs	r3, r3, #48
 2421 0f72 1B01     		lsls	r3, r3, #4
 2422 0f74 5AB2     		sxtb	r2, r3
 2423 0f76 134B     		ldr	r3, .L226+4
 2424 0f78 93F84532 		ldrb	r3, [r3, #581]	@ zero_extendqisi2
 2425 0f7c 303B     		subs	r3, r3, #48
 2426 0f7e DBB2     		uxtb	r3, r3
 2427 0f80 5BB2     		sxtb	r3, r3
 2428 0f82 1343     		orrs	r3, r3, r2
 2429 0f84 5BB2     		sxtb	r3, r3
 2430 0f86 DAB2     		uxtb	r2, r3
 2431 0f88 0E4B     		ldr	r3, .L226+4
 2432 0f8a 83F86021 		strb	r2, [r3, #352]
 547:main.c        ****                     PriceUpdate(side.b.dir,side.b.ppuNozzle[0]);
 2433              		.loc 1 547 0
 2434 0f8e 0D4B     		ldr	r3, .L226+4
 2435 0f90 93F83531 		ldrb	r3, [r3, #309]	@ zero_extendqisi2
 2436 0f94 0D49     		ldr	r1, .L226+12
 2437 0f96 1846     		mov	r0, r3
 2438 0f98 FFF7FEFF 		bl	PriceUpdate
 548:main.c        ****                     W_autorize = 0;
 2439              		.loc 1 548 0
 2440 0f9c 0023     		movs	r3, #0
 2441 0f9e 87F84E30 		strb	r3, [r7, #78]
 2442              	.L152:
 549:main.c        ****                 }
 550:main.c        ****                 if(touch1[3] == 0x83 && W_autorize == 0x0A){             
 2443              		.loc 1 550 0
 2444 0fa2 074B     		ldr	r3, .L226
 2445 0fa4 DB78     		ldrb	r3, [r3, #3]	@ zero_extendqisi2
 2446 0fa6 832B     		cmp	r3, #131
 2447 0fa8 6CD1     		bne	.L158
 2448              		.loc 1 550 0 is_stmt 0 discriminator 1
 2449 0faa 97F84E30 		ldrb	r3, [r7, #78]	@ zero_extendqisi2
ARM GAS  C:\Users\Diego\AppData\Local\Temp\ccdqF4gL.s 			page 55


 2450 0fae 0A2B     		cmp	r3, #10
 2451 0fb0 68D1     		bne	.L158
 551:main.c        ****                     W_autorize = 0;
 2452              		.loc 1 551 0 is_stmt 1
 2453 0fb2 0023     		movs	r3, #0
 2454 0fb4 87F84E30 		strb	r3, [r7, #78]
 2455              	.LBB35:
 552:main.c        ****                     for(uint8 LCDRx = 7; LCDRx < 15; LCDRx++){
 2456              		.loc 1 552 0
 2457 0fb8 0723     		movs	r3, #7
 2458 0fba 87F82A30 		strb	r3, [r7, #42]
 2459 0fbe 3FE0     		b	.L159
 2460              	.L227:
 2461              		.align	2
 2462              	.L226:
 2463 0fc0 00000000 		.word	touch1
 2464 0fc4 00000000 		.word	side
 2465 0fc8 29000000 		.word	side+41
 2466 0fcc 5E010000 		.word	side+350
 2467              	.L163:
 553:main.c        ****                         if((touch1[LCDRx] == 0x00) ||(touch1[LCDRx] == 0xFF))
 2468              		.loc 1 553 0
 2469 0fd0 97F82A30 		ldrb	r3, [r7, #42]	@ zero_extendqisi2
 2470 0fd4 BD4A     		ldr	r2, .L228
 2471 0fd6 D35C     		ldrb	r3, [r2, r3]	@ zero_extendqisi2
 2472 0fd8 002B     		cmp	r3, #0
 2473 0fda 35D0     		beq	.L160
 2474              		.loc 1 553 0 is_stmt 0 discriminator 1
 2475 0fdc 97F82A30 		ldrb	r3, [r7, #42]	@ zero_extendqisi2
 2476 0fe0 BA4A     		ldr	r2, .L228
 2477 0fe2 D35C     		ldrb	r3, [r2, r3]	@ zero_extendqisi2
 2478 0fe4 FF2B     		cmp	r3, #255
 2479 0fe6 2FD0     		beq	.L160
 554:main.c        ****                             break;
 555:main.c        ****                         if(touch1[LCDRx] > 96 && touch1[LCDRx] < 123){
 2480              		.loc 1 555 0 is_stmt 1
 2481 0fe8 97F82A30 		ldrb	r3, [r7, #42]	@ zero_extendqisi2
 2482 0fec B74A     		ldr	r2, .L228
 2483 0fee D35C     		ldrb	r3, [r2, r3]	@ zero_extendqisi2
 2484 0ff0 602B     		cmp	r3, #96
 2485 0ff2 14D9     		bls	.L161
 2486              		.loc 1 555 0 is_stmt 0 discriminator 1
 2487 0ff4 97F82A30 		ldrb	r3, [r7, #42]	@ zero_extendqisi2
 2488 0ff8 B44A     		ldr	r2, .L228
 2489 0ffa D35C     		ldrb	r3, [r2, r3]	@ zero_extendqisi2
 2490 0ffc 7A2B     		cmp	r3, #122
 2491 0ffe 0ED8     		bhi	.L161
 556:main.c        ****                             side.a.msn_plate[LCDRx-7] = touch1[LCDRx]-0x20;                        
 2492              		.loc 1 556 0 is_stmt 1
 2493 1000 97F82A30 		ldrb	r3, [r7, #42]	@ zero_extendqisi2
 2494 1004 073B     		subs	r3, r3, #7
 2495 1006 97F82A20 		ldrb	r2, [r7, #42]	@ zero_extendqisi2
 2496 100a B049     		ldr	r1, .L228
 2497 100c 8A5C     		ldrb	r2, [r1, r2]	@ zero_extendqisi2
 2498 100e 203A     		subs	r2, r2, #32
 2499 1010 D1B2     		uxtb	r1, r2
 2500 1012 AF4A     		ldr	r2, .L228+4
ARM GAS  C:\Users\Diego\AppData\Local\Temp\ccdqF4gL.s 			page 56


 2501 1014 1344     		add	r3, r3, r2
 2502 1016 0A46     		mov	r2, r1
 2503 1018 83F82321 		strb	r2, [r3, #291]
 2504 101c 0BE0     		b	.L162
 2505              	.L161:
 557:main.c        ****                         }else{
 558:main.c        ****                             side.a.msn_plate[LCDRx-7] = touch1[LCDRx];
 2506              		.loc 1 558 0
 2507 101e 97F82A30 		ldrb	r3, [r7, #42]	@ zero_extendqisi2
 2508 1022 073B     		subs	r3, r3, #7
 2509 1024 97F82A20 		ldrb	r2, [r7, #42]	@ zero_extendqisi2
 2510 1028 A849     		ldr	r1, .L228
 2511 102a 895C     		ldrb	r1, [r1, r2]	@ zero_extendqisi2
 2512 102c A84A     		ldr	r2, .L228+4
 2513 102e 1344     		add	r3, r3, r2
 2514 1030 0A46     		mov	r2, r1
 2515 1032 83F82321 		strb	r2, [r3, #291]
 2516              	.L162:
 552:main.c        ****                         if((touch1[LCDRx] == 0x00) ||(touch1[LCDRx] == 0xFF))
 2517              		.loc 1 552 0 discriminator 2
 2518 1036 97F82A30 		ldrb	r3, [r7, #42]	@ zero_extendqisi2
 2519 103a 0133     		adds	r3, r3, #1
 2520 103c 87F82A30 		strb	r3, [r7, #42]
 2521              	.L159:
 552:main.c        ****                         if((touch1[LCDRx] == 0x00) ||(touch1[LCDRx] == 0xFF))
 2522              		.loc 1 552 0 is_stmt 0 discriminator 1
 2523 1040 97F82A30 		ldrb	r3, [r7, #42]	@ zero_extendqisi2
 2524 1044 0E2B     		cmp	r3, #14
 2525 1046 C3D9     		bls	.L163
 2526              	.L160:
 2527              	.LBE35:
 2528              	.LBB36:
 559:main.c        ****                         }
 560:main.c        ****             		}
 561:main.c        ****                     for(uint8 LCDRx = 0; LCDRx < 20; LCDRx++){
 2529              		.loc 1 561 0 is_stmt 1
 2530 1048 0023     		movs	r3, #0
 2531 104a 87F82930 		strb	r3, [r7, #41]
 2532 104e 09E0     		b	.L164
 2533              	.L165:
 562:main.c        ****             			touch1[LCDRx] = 0x00;
 2534              		.loc 1 562 0 discriminator 3
 2535 1050 97F82930 		ldrb	r3, [r7, #41]	@ zero_extendqisi2
 2536 1054 9D4A     		ldr	r2, .L228
 2537 1056 0021     		movs	r1, #0
 2538 1058 D154     		strb	r1, [r2, r3]
 561:main.c        ****             			touch1[LCDRx] = 0x00;
 2539              		.loc 1 561 0 discriminator 3
 2540 105a 97F82930 		ldrb	r3, [r7, #41]	@ zero_extendqisi2
 2541 105e 0133     		adds	r3, r3, #1
 2542 1060 87F82930 		strb	r3, [r7, #41]
 2543              	.L164:
 561:main.c        ****             			touch1[LCDRx] = 0x00;
 2544              		.loc 1 561 0 is_stmt 0 discriminator 1
 2545 1064 97F82930 		ldrb	r3, [r7, #41]	@ zero_extendqisi2
 2546 1068 132B     		cmp	r3, #19
 2547 106a F1D9     		bls	.L165
ARM GAS  C:\Users\Diego\AppData\Local\Temp\ccdqF4gL.s 			page 57


 2548              	.LBE36:
 563:main.c        ****             		}
 564:main.c        ****                     PrintReceipt(side.a.dir);
 2549              		.loc 1 564 0 is_stmt 1
 2550 106c 984B     		ldr	r3, .L228+4
 2551 106e 1B78     		ldrb	r3, [r3]	@ zero_extendqisi2
 2552 1070 1846     		mov	r0, r3
 2553 1072 FFF7FEFF 		bl	PrintReceipt
 565:main.c        ****                     side.a.Copy = 1;
 2554              		.loc 1 565 0
 2555 1076 964B     		ldr	r3, .L228+4
 2556 1078 0122     		movs	r2, #1
 2557 107a 83F83421 		strb	r2, [r3, #308]
 566:main.c        ****                     W_autorize =0xAC;
 2558              		.loc 1 566 0
 2559 107e AC23     		movs	r3, #172
 2560 1080 87F84E30 		strb	r3, [r7, #78]
 2561              	.L158:
 567:main.c        ****                 } 
 568:main.c        ****                 if(touch1[3] == 0x83 && W_autorize == 0x1B){                                 
 2562              		.loc 1 568 0
 2563 1084 914B     		ldr	r3, .L228
 2564 1086 DB78     		ldrb	r3, [r3, #3]	@ zero_extendqisi2
 2565 1088 832B     		cmp	r3, #131
 2566 108a 3DD1     		bne	.L166
 2567              		.loc 1 568 0 is_stmt 0 discriminator 1
 2568 108c 97F84E30 		ldrb	r3, [r7, #78]	@ zero_extendqisi2
 2569 1090 1B2B     		cmp	r3, #27
 2570 1092 39D1     		bne	.L166
 2571              	.LBB37:
 569:main.c        ****                     for(uint8 LCDRx = 7; LCDRx < 15; LCDRx++){
 2572              		.loc 1 569 0 is_stmt 1
 2573 1094 0723     		movs	r3, #7
 2574 1096 87F82830 		strb	r3, [r7, #40]
 2575 109a 1CE0     		b	.L167
 2576              	.L169:
 570:main.c        ****                         if((touch1[LCDRx] == 0x00) ||(touch1[LCDRx] == 0xFF))
 2577              		.loc 1 570 0
 2578 109c 97F82830 		ldrb	r3, [r7, #40]	@ zero_extendqisi2
 2579 10a0 8A4A     		ldr	r2, .L228
 2580 10a2 D35C     		ldrb	r3, [r2, r3]	@ zero_extendqisi2
 2581 10a4 002B     		cmp	r3, #0
 2582 10a6 1AD0     		beq	.L168
 2583              		.loc 1 570 0 is_stmt 0 discriminator 1
 2584 10a8 97F82830 		ldrb	r3, [r7, #40]	@ zero_extendqisi2
 2585 10ac 874A     		ldr	r2, .L228
 2586 10ae D35C     		ldrb	r3, [r2, r3]	@ zero_extendqisi2
 2587 10b0 FF2B     		cmp	r3, #255
 2588 10b2 14D0     		beq	.L168
 571:main.c        ****                             break;
 572:main.c        ****                         side.b.km[LCDRx-7] = touch1[LCDRx];
 2589              		.loc 1 572 0 is_stmt 1 discriminator 2
 2590 10b4 97F82830 		ldrb	r3, [r7, #40]	@ zero_extendqisi2
 2591 10b8 073B     		subs	r3, r3, #7
 2592 10ba 97F82820 		ldrb	r2, [r7, #40]	@ zero_extendqisi2
 2593 10be 8349     		ldr	r1, .L228
 2594 10c0 895C     		ldrb	r1, [r1, r2]	@ zero_extendqisi2
ARM GAS  C:\Users\Diego\AppData\Local\Temp\ccdqF4gL.s 			page 58


 2595 10c2 834A     		ldr	r2, .L228+4
 2596 10c4 1344     		add	r3, r3, r2
 2597 10c6 0A46     		mov	r2, r1
 2598 10c8 83F86222 		strb	r2, [r3, #610]
 569:main.c        ****                         if((touch1[LCDRx] == 0x00) ||(touch1[LCDRx] == 0xFF))
 2599              		.loc 1 569 0 discriminator 2
 2600 10cc 97F82830 		ldrb	r3, [r7, #40]	@ zero_extendqisi2
 2601 10d0 0133     		adds	r3, r3, #1
 2602 10d2 87F82830 		strb	r3, [r7, #40]
 2603              	.L167:
 569:main.c        ****                         if((touch1[LCDRx] == 0x00) ||(touch1[LCDRx] == 0xFF))
 2604              		.loc 1 569 0 is_stmt 0 discriminator 1
 2605 10d6 97F82830 		ldrb	r3, [r7, #40]	@ zero_extendqisi2
 2606 10da 0E2B     		cmp	r3, #14
 2607 10dc DED9     		bls	.L169
 2608              	.L168:
 2609              	.LBE37:
 2610              	.LBB38:
 573:main.c        ****             		}
 574:main.c        ****                     for(uint8 LCDRx = 0; LCDRx < 20; LCDRx++){
 2611              		.loc 1 574 0 is_stmt 1
 2612 10de 0023     		movs	r3, #0
 2613 10e0 87F82730 		strb	r3, [r7, #39]
 2614 10e4 09E0     		b	.L170
 2615              	.L171:
 575:main.c        ****             			touch1[LCDRx] = 0x00;
 2616              		.loc 1 575 0 discriminator 3
 2617 10e6 97F82730 		ldrb	r3, [r7, #39]	@ zero_extendqisi2
 2618 10ea 784A     		ldr	r2, .L228
 2619 10ec 0021     		movs	r1, #0
 2620 10ee D154     		strb	r1, [r2, r3]
 574:main.c        ****             			touch1[LCDRx] = 0x00;
 2621              		.loc 1 574 0 discriminator 3
 2622 10f0 97F82730 		ldrb	r3, [r7, #39]	@ zero_extendqisi2
 2623 10f4 0133     		adds	r3, r3, #1
 2624 10f6 87F82730 		strb	r3, [r7, #39]
 2625              	.L170:
 574:main.c        ****             			touch1[LCDRx] = 0x00;
 2626              		.loc 1 574 0 is_stmt 0 discriminator 1
 2627 10fa 97F82730 		ldrb	r3, [r7, #39]	@ zero_extendqisi2
 2628 10fe 132B     		cmp	r3, #19
 2629 1100 F1D9     		bls	.L171
 2630              	.LBE38:
 576:main.c        ****             		}                    
 577:main.c        ****                     W_autorize = 0x0B;
 2631              		.loc 1 577 0 is_stmt 1
 2632 1102 0B23     		movs	r3, #11
 2633 1104 87F84E30 		strb	r3, [r7, #78]
 2634              	.L166:
 578:main.c        ****                 }
 579:main.c        ****                 if(touch1[3] == 0x83 && W_autorize == 0x0B){             
 2635              		.loc 1 579 0
 2636 1108 704B     		ldr	r3, .L228
 2637 110a DB78     		ldrb	r3, [r3, #3]	@ zero_extendqisi2
 2638 110c 832B     		cmp	r3, #131
 2639 110e 65D1     		bne	.L172
 2640              		.loc 1 579 0 is_stmt 0 discriminator 1
ARM GAS  C:\Users\Diego\AppData\Local\Temp\ccdqF4gL.s 			page 59


 2641 1110 97F84E30 		ldrb	r3, [r7, #78]	@ zero_extendqisi2
 2642 1114 0B2B     		cmp	r3, #11
 2643 1116 61D1     		bne	.L172
 580:main.c        ****                     W_autorize = 0;
 2644              		.loc 1 580 0 is_stmt 1
 2645 1118 0023     		movs	r3, #0
 2646 111a 87F84E30 		strb	r3, [r7, #78]
 2647              	.LBB39:
 581:main.c        ****                     for(uint8 LCDRx = 7; LCDRx < 15; LCDRx++){
 2648              		.loc 1 581 0
 2649 111e 0723     		movs	r3, #7
 2650 1120 87F82630 		strb	r3, [r7, #38]
 2651 1124 37E0     		b	.L173
 2652              	.L177:
 582:main.c        ****                         if((touch1[LCDRx] == 0x00) ||(touch1[LCDRx] == 0xFF))
 2653              		.loc 1 582 0
 2654 1126 97F82630 		ldrb	r3, [r7, #38]	@ zero_extendqisi2
 2655 112a 684A     		ldr	r2, .L228
 2656 112c D35C     		ldrb	r3, [r2, r3]	@ zero_extendqisi2
 2657 112e 002B     		cmp	r3, #0
 2658 1130 35D0     		beq	.L174
 2659              		.loc 1 582 0 is_stmt 0 discriminator 1
 2660 1132 97F82630 		ldrb	r3, [r7, #38]	@ zero_extendqisi2
 2661 1136 654A     		ldr	r2, .L228
 2662 1138 D35C     		ldrb	r3, [r2, r3]	@ zero_extendqisi2
 2663 113a FF2B     		cmp	r3, #255
 2664 113c 2FD0     		beq	.L174
 583:main.c        ****                             break;
 584:main.c        ****                         if(touch1[LCDRx] > 96 && touch1[LCDRx] < 123){
 2665              		.loc 1 584 0 is_stmt 1
 2666 113e 97F82630 		ldrb	r3, [r7, #38]	@ zero_extendqisi2
 2667 1142 624A     		ldr	r2, .L228
 2668 1144 D35C     		ldrb	r3, [r2, r3]	@ zero_extendqisi2
 2669 1146 602B     		cmp	r3, #96
 2670 1148 14D9     		bls	.L175
 2671              		.loc 1 584 0 is_stmt 0 discriminator 1
 2672 114a 97F82630 		ldrb	r3, [r7, #38]	@ zero_extendqisi2
 2673 114e 5F4A     		ldr	r2, .L228
 2674 1150 D35C     		ldrb	r3, [r2, r3]	@ zero_extendqisi2
 2675 1152 7A2B     		cmp	r3, #122
 2676 1154 0ED8     		bhi	.L175
 585:main.c        ****                             side.b.msn_plate[LCDRx-7] = touch1[LCDRx]-0x20;                        
 2677              		.loc 1 585 0 is_stmt 1
 2678 1156 97F82630 		ldrb	r3, [r7, #38]	@ zero_extendqisi2
 2679 115a 073B     		subs	r3, r3, #7
 2680 115c 97F82620 		ldrb	r2, [r7, #38]	@ zero_extendqisi2
 2681 1160 5A49     		ldr	r1, .L228
 2682 1162 8A5C     		ldrb	r2, [r1, r2]	@ zero_extendqisi2
 2683 1164 203A     		subs	r2, r2, #32
 2684 1166 D1B2     		uxtb	r1, r2
 2685 1168 594A     		ldr	r2, .L228+4
 2686 116a 1344     		add	r3, r3, r2
 2687 116c 0A46     		mov	r2, r1
 2688 116e 83F85822 		strb	r2, [r3, #600]
 2689 1172 0BE0     		b	.L176
 2690              	.L175:
 586:main.c        ****                         }else{
ARM GAS  C:\Users\Diego\AppData\Local\Temp\ccdqF4gL.s 			page 60


 587:main.c        ****                             side.b.msn_plate[LCDRx-7] = touch1[LCDRx];
 2691              		.loc 1 587 0
 2692 1174 97F82630 		ldrb	r3, [r7, #38]	@ zero_extendqisi2
 2693 1178 073B     		subs	r3, r3, #7
 2694 117a 97F82620 		ldrb	r2, [r7, #38]	@ zero_extendqisi2
 2695 117e 5349     		ldr	r1, .L228
 2696 1180 895C     		ldrb	r1, [r1, r2]	@ zero_extendqisi2
 2697 1182 534A     		ldr	r2, .L228+4
 2698 1184 1344     		add	r3, r3, r2
 2699 1186 0A46     		mov	r2, r1
 2700 1188 83F85822 		strb	r2, [r3, #600]
 2701              	.L176:
 581:main.c        ****                         if((touch1[LCDRx] == 0x00) ||(touch1[LCDRx] == 0xFF))
 2702              		.loc 1 581 0 discriminator 2
 2703 118c 97F82630 		ldrb	r3, [r7, #38]	@ zero_extendqisi2
 2704 1190 0133     		adds	r3, r3, #1
 2705 1192 87F82630 		strb	r3, [r7, #38]
 2706              	.L173:
 581:main.c        ****                         if((touch1[LCDRx] == 0x00) ||(touch1[LCDRx] == 0xFF))
 2707              		.loc 1 581 0 is_stmt 0 discriminator 1
 2708 1196 97F82630 		ldrb	r3, [r7, #38]	@ zero_extendqisi2
 2709 119a 0E2B     		cmp	r3, #14
 2710 119c C3D9     		bls	.L177
 2711              	.L174:
 2712              	.LBE39:
 2713              	.LBB40:
 588:main.c        ****                         }
 589:main.c        ****             		}
 590:main.c        ****                     for(uint8 LCDRx = 0; LCDRx < 20; LCDRx++){
 2714              		.loc 1 590 0 is_stmt 1
 2715 119e 0023     		movs	r3, #0
 2716 11a0 87F82530 		strb	r3, [r7, #37]
 2717 11a4 09E0     		b	.L178
 2718              	.L179:
 591:main.c        ****             			touch1[LCDRx] = 0x00;
 2719              		.loc 1 591 0 discriminator 3
 2720 11a6 97F82530 		ldrb	r3, [r7, #37]	@ zero_extendqisi2
 2721 11aa 484A     		ldr	r2, .L228
 2722 11ac 0021     		movs	r1, #0
 2723 11ae D154     		strb	r1, [r2, r3]
 590:main.c        ****             			touch1[LCDRx] = 0x00;
 2724              		.loc 1 590 0 discriminator 3
 2725 11b0 97F82530 		ldrb	r3, [r7, #37]	@ zero_extendqisi2
 2726 11b4 0133     		adds	r3, r3, #1
 2727 11b6 87F82530 		strb	r3, [r7, #37]
 2728              	.L178:
 590:main.c        ****             			touch1[LCDRx] = 0x00;
 2729              		.loc 1 590 0 is_stmt 0 discriminator 1
 2730 11ba 97F82530 		ldrb	r3, [r7, #37]	@ zero_extendqisi2
 2731 11be 132B     		cmp	r3, #19
 2732 11c0 F1D9     		bls	.L179
 2733              	.LBE40:
 592:main.c        ****             		}
 593:main.c        ****                     PrintReceipt(side.b.dir);
 2734              		.loc 1 593 0 is_stmt 1
 2735 11c2 434B     		ldr	r3, .L228+4
 2736 11c4 93F83531 		ldrb	r3, [r3, #309]	@ zero_extendqisi2
ARM GAS  C:\Users\Diego\AppData\Local\Temp\ccdqF4gL.s 			page 61


 2737 11c8 1846     		mov	r0, r3
 2738 11ca FFF7FEFF 		bl	PrintReceipt
 594:main.c        ****                     side.b.Copy = 1;
 2739              		.loc 1 594 0
 2740 11ce 404B     		ldr	r3, .L228+4
 2741 11d0 0122     		movs	r2, #1
 2742 11d2 83F86922 		strb	r2, [r3, #617]
 595:main.c        ****                     W_autorize  = 0xBC;
 2743              		.loc 1 595 0
 2744 11d6 BC23     		movs	r3, #188
 2745 11d8 87F84E30 		strb	r3, [r7, #78]
 2746              	.L172:
 596:main.c        ****                 }
 597:main.c        ****                 if(touch1[3] == 0x83 && W_autorize == 0x1C){                                 
 2747              		.loc 1 597 0
 2748 11dc 3B4B     		ldr	r3, .L228
 2749 11de DB78     		ldrb	r3, [r3, #3]	@ zero_extendqisi2
 2750 11e0 832B     		cmp	r3, #131
 2751 11e2 3DD1     		bne	.L180
 2752              		.loc 1 597 0 is_stmt 0 discriminator 1
 2753 11e4 97F84E30 		ldrb	r3, [r7, #78]	@ zero_extendqisi2
 2754 11e8 1C2B     		cmp	r3, #28
 2755 11ea 39D1     		bne	.L180
 2756              	.LBB41:
 598:main.c        ****                     for(uint8 LCDRx = 7; LCDRx < 15; LCDRx++){
 2757              		.loc 1 598 0 is_stmt 1
 2758 11ec 0723     		movs	r3, #7
 2759 11ee 87F82430 		strb	r3, [r7, #36]
 2760 11f2 1CE0     		b	.L181
 2761              	.L183:
 599:main.c        ****                         if((touch1[LCDRx] == 0x00) ||(touch1[LCDRx] == 0xFF))
 2762              		.loc 1 599 0
 2763 11f4 97F82430 		ldrb	r3, [r7, #36]	@ zero_extendqisi2
 2764 11f8 344A     		ldr	r2, .L228
 2765 11fa D35C     		ldrb	r3, [r2, r3]	@ zero_extendqisi2
 2766 11fc 002B     		cmp	r3, #0
 2767 11fe 1AD0     		beq	.L182
 2768              		.loc 1 599 0 is_stmt 0 discriminator 1
 2769 1200 97F82430 		ldrb	r3, [r7, #36]	@ zero_extendqisi2
 2770 1204 314A     		ldr	r2, .L228
 2771 1206 D35C     		ldrb	r3, [r2, r3]	@ zero_extendqisi2
 2772 1208 FF2B     		cmp	r3, #255
 2773 120a 14D0     		beq	.L182
 600:main.c        ****                             break;
 601:main.c        ****                         side.c.km[LCDRx-7] = touch1[LCDRx];
 2774              		.loc 1 601 0 is_stmt 1 discriminator 2
 2775 120c 97F82430 		ldrb	r3, [r7, #36]	@ zero_extendqisi2
 2776 1210 073B     		subs	r3, r3, #7
 2777 1212 97F82420 		ldrb	r2, [r7, #36]	@ zero_extendqisi2
 2778 1216 2D49     		ldr	r1, .L228
 2779 1218 895C     		ldrb	r1, [r1, r2]	@ zero_extendqisi2
 2780 121a 2D4A     		ldr	r2, .L228+4
 2781 121c 1344     		add	r3, r3, r2
 2782 121e 0A46     		mov	r2, r1
 2783 1220 83F89723 		strb	r2, [r3, #919]
 598:main.c        ****                         if((touch1[LCDRx] == 0x00) ||(touch1[LCDRx] == 0xFF))
 2784              		.loc 1 598 0 discriminator 2
ARM GAS  C:\Users\Diego\AppData\Local\Temp\ccdqF4gL.s 			page 62


 2785 1224 97F82430 		ldrb	r3, [r7, #36]	@ zero_extendqisi2
 2786 1228 0133     		adds	r3, r3, #1
 2787 122a 87F82430 		strb	r3, [r7, #36]
 2788              	.L181:
 598:main.c        ****                         if((touch1[LCDRx] == 0x00) ||(touch1[LCDRx] == 0xFF))
 2789              		.loc 1 598 0 is_stmt 0 discriminator 1
 2790 122e 97F82430 		ldrb	r3, [r7, #36]	@ zero_extendqisi2
 2791 1232 0E2B     		cmp	r3, #14
 2792 1234 DED9     		bls	.L183
 2793              	.L182:
 2794              	.LBE41:
 2795              	.LBB42:
 602:main.c        ****             		}
 603:main.c        ****                     for(uint8 LCDRx = 0; LCDRx < 20; LCDRx++){
 2796              		.loc 1 603 0 is_stmt 1
 2797 1236 0023     		movs	r3, #0
 2798 1238 87F82330 		strb	r3, [r7, #35]
 2799 123c 09E0     		b	.L184
 2800              	.L185:
 604:main.c        ****             			touch1[LCDRx] = 0x00;
 2801              		.loc 1 604 0 discriminator 3
 2802 123e 97F82330 		ldrb	r3, [r7, #35]	@ zero_extendqisi2
 2803 1242 224A     		ldr	r2, .L228
 2804 1244 0021     		movs	r1, #0
 2805 1246 D154     		strb	r1, [r2, r3]
 603:main.c        ****             			touch1[LCDRx] = 0x00;
 2806              		.loc 1 603 0 discriminator 3
 2807 1248 97F82330 		ldrb	r3, [r7, #35]	@ zero_extendqisi2
 2808 124c 0133     		adds	r3, r3, #1
 2809 124e 87F82330 		strb	r3, [r7, #35]
 2810              	.L184:
 603:main.c        ****             			touch1[LCDRx] = 0x00;
 2811              		.loc 1 603 0 is_stmt 0 discriminator 1
 2812 1252 97F82330 		ldrb	r3, [r7, #35]	@ zero_extendqisi2
 2813 1256 132B     		cmp	r3, #19
 2814 1258 F1D9     		bls	.L185
 2815              	.LBE42:
 605:main.c        ****             		}                    
 606:main.c        ****                     W_autorize = 0x0C;
 2816              		.loc 1 606 0 is_stmt 1
 2817 125a 0C23     		movs	r3, #12
 2818 125c 87F84E30 		strb	r3, [r7, #78]
 2819              	.L180:
 607:main.c        ****                 }
 608:main.c        ****                 if(touch1[3] == 0x83 && W_autorize == 0x0C){             
 2820              		.loc 1 608 0
 2821 1260 1A4B     		ldr	r3, .L228
 2822 1262 DB78     		ldrb	r3, [r3, #3]	@ zero_extendqisi2
 2823 1264 832B     		cmp	r3, #131
 2824 1266 69D1     		bne	.L186
 2825              		.loc 1 608 0 is_stmt 0 discriminator 1
 2826 1268 97F84E30 		ldrb	r3, [r7, #78]	@ zero_extendqisi2
 2827 126c 0C2B     		cmp	r3, #12
 2828 126e 65D1     		bne	.L186
 609:main.c        ****                     W_autorize = 0;
 2829              		.loc 1 609 0 is_stmt 1
 2830 1270 0023     		movs	r3, #0
ARM GAS  C:\Users\Diego\AppData\Local\Temp\ccdqF4gL.s 			page 63


 2831 1272 87F84E30 		strb	r3, [r7, #78]
 2832              	.LBB43:
 610:main.c        ****                     for(uint8 LCDRx = 7; LCDRx < 15; LCDRx++){
 2833              		.loc 1 610 0
 2834 1276 0723     		movs	r3, #7
 2835 1278 87F82230 		strb	r3, [r7, #34]
 2836 127c 3BE0     		b	.L187
 2837              	.L191:
 611:main.c        ****                         if((touch1[LCDRx] == 0x00) ||(touch1[LCDRx] == 0xFF))
 2838              		.loc 1 611 0
 2839 127e 97F82230 		ldrb	r3, [r7, #34]	@ zero_extendqisi2
 2840 1282 124A     		ldr	r2, .L228
 2841 1284 D35C     		ldrb	r3, [r2, r3]	@ zero_extendqisi2
 2842 1286 002B     		cmp	r3, #0
 2843 1288 39D0     		beq	.L188
 2844              		.loc 1 611 0 is_stmt 0 discriminator 1
 2845 128a 97F82230 		ldrb	r3, [r7, #34]	@ zero_extendqisi2
 2846 128e 0F4A     		ldr	r2, .L228
 2847 1290 D35C     		ldrb	r3, [r2, r3]	@ zero_extendqisi2
 2848 1292 FF2B     		cmp	r3, #255
 2849 1294 33D0     		beq	.L188
 612:main.c        ****                             break;
 613:main.c        ****                         if(touch1[LCDRx] > 96 && touch1[LCDRx] < 123){
 2850              		.loc 1 613 0 is_stmt 1
 2851 1296 97F82230 		ldrb	r3, [r7, #34]	@ zero_extendqisi2
 2852 129a 0C4A     		ldr	r2, .L228
 2853 129c D35C     		ldrb	r3, [r2, r3]	@ zero_extendqisi2
 2854 129e 602B     		cmp	r3, #96
 2855 12a0 18D9     		bls	.L189
 2856              		.loc 1 613 0 is_stmt 0 discriminator 1
 2857 12a2 97F82230 		ldrb	r3, [r7, #34]	@ zero_extendqisi2
 2858 12a6 094A     		ldr	r2, .L228
 2859 12a8 D35C     		ldrb	r3, [r2, r3]	@ zero_extendqisi2
 2860 12aa 7A2B     		cmp	r3, #122
 2861 12ac 12D8     		bhi	.L189
 614:main.c        ****                             side.c.msn_plate[LCDRx-7] = touch1[LCDRx]-0x20;                        
 2862              		.loc 1 614 0 is_stmt 1
 2863 12ae 97F82230 		ldrb	r3, [r7, #34]	@ zero_extendqisi2
 2864 12b2 073B     		subs	r3, r3, #7
 2865 12b4 97F82220 		ldrb	r2, [r7, #34]	@ zero_extendqisi2
 2866 12b8 0449     		ldr	r1, .L228
 2867 12ba 8A5C     		ldrb	r2, [r1, r2]	@ zero_extendqisi2
 2868 12bc 203A     		subs	r2, r2, #32
 2869 12be D1B2     		uxtb	r1, r2
 2870 12c0 034A     		ldr	r2, .L228+4
 2871 12c2 1344     		add	r3, r3, r2
 2872 12c4 0A46     		mov	r2, r1
 2873 12c6 83F88D23 		strb	r2, [r3, #909]
 2874 12ca 0FE0     		b	.L190
 2875              	.L229:
 2876              		.align	2
 2877              	.L228:
 2878 12cc 00000000 		.word	touch1
 2879 12d0 00000000 		.word	side
 2880              	.L189:
 615:main.c        ****                         }else{
 616:main.c        ****                             side.c.msn_plate[LCDRx-7] = touch1[LCDRx];
ARM GAS  C:\Users\Diego\AppData\Local\Temp\ccdqF4gL.s 			page 64


 2881              		.loc 1 616 0
 2882 12d4 97F82230 		ldrb	r3, [r7, #34]	@ zero_extendqisi2
 2883 12d8 073B     		subs	r3, r3, #7
 2884 12da 97F82220 		ldrb	r2, [r7, #34]	@ zero_extendqisi2
 2885 12de 6C49     		ldr	r1, .L230
 2886 12e0 895C     		ldrb	r1, [r1, r2]	@ zero_extendqisi2
 2887 12e2 6C4A     		ldr	r2, .L230+4
 2888 12e4 1344     		add	r3, r3, r2
 2889 12e6 0A46     		mov	r2, r1
 2890 12e8 83F88D23 		strb	r2, [r3, #909]
 2891              	.L190:
 610:main.c        ****                         if((touch1[LCDRx] == 0x00) ||(touch1[LCDRx] == 0xFF))
 2892              		.loc 1 610 0 discriminator 2
 2893 12ec 97F82230 		ldrb	r3, [r7, #34]	@ zero_extendqisi2
 2894 12f0 0133     		adds	r3, r3, #1
 2895 12f2 87F82230 		strb	r3, [r7, #34]
 2896              	.L187:
 610:main.c        ****                         if((touch1[LCDRx] == 0x00) ||(touch1[LCDRx] == 0xFF))
 2897              		.loc 1 610 0 is_stmt 0 discriminator 1
 2898 12f6 97F82230 		ldrb	r3, [r7, #34]	@ zero_extendqisi2
 2899 12fa 0E2B     		cmp	r3, #14
 2900 12fc BFD9     		bls	.L191
 2901              	.L188:
 2902              	.LBE43:
 2903              	.LBB44:
 617:main.c        ****                         }
 618:main.c        ****             		}
 619:main.c        ****                     for(uint8 LCDRx = 0; LCDRx < 20; LCDRx++){
 2904              		.loc 1 619 0 is_stmt 1
 2905 12fe 0023     		movs	r3, #0
 2906 1300 87F82130 		strb	r3, [r7, #33]
 2907 1304 09E0     		b	.L192
 2908              	.L193:
 620:main.c        ****             			touch1[LCDRx] = 0x00;
 2909              		.loc 1 620 0 discriminator 3
 2910 1306 97F82130 		ldrb	r3, [r7, #33]	@ zero_extendqisi2
 2911 130a 614A     		ldr	r2, .L230
 2912 130c 0021     		movs	r1, #0
 2913 130e D154     		strb	r1, [r2, r3]
 619:main.c        ****             			touch1[LCDRx] = 0x00;
 2914              		.loc 1 619 0 discriminator 3
 2915 1310 97F82130 		ldrb	r3, [r7, #33]	@ zero_extendqisi2
 2916 1314 0133     		adds	r3, r3, #1
 2917 1316 87F82130 		strb	r3, [r7, #33]
 2918              	.L192:
 619:main.c        ****             			touch1[LCDRx] = 0x00;
 2919              		.loc 1 619 0 is_stmt 0 discriminator 1
 2920 131a 97F82130 		ldrb	r3, [r7, #33]	@ zero_extendqisi2
 2921 131e 132B     		cmp	r3, #19
 2922 1320 F1D9     		bls	.L193
 2923              	.LBE44:
 621:main.c        ****             		}
 622:main.c        ****                     PrintReceipt(side.c.dir);
 2924              		.loc 1 622 0 is_stmt 1
 2925 1322 5C4B     		ldr	r3, .L230+4
 2926 1324 93F86A32 		ldrb	r3, [r3, #618]	@ zero_extendqisi2
 2927 1328 1846     		mov	r0, r3
ARM GAS  C:\Users\Diego\AppData\Local\Temp\ccdqF4gL.s 			page 65


 2928 132a FFF7FEFF 		bl	PrintReceipt
 623:main.c        ****                     side.c.Copy = 1;
 2929              		.loc 1 623 0
 2930 132e 594B     		ldr	r3, .L230+4
 2931 1330 0122     		movs	r2, #1
 2932 1332 83F89E23 		strb	r2, [r3, #926]
 624:main.c        ****                     W_autorize =0xCC;
 2933              		.loc 1 624 0
 2934 1336 CC23     		movs	r3, #204
 2935 1338 87F84E30 		strb	r3, [r7, #78]
 2936              	.L186:
 625:main.c        ****                 }
 626:main.c        ****                 if(touch1[3] == 0x83 && W_autorize == 0x1D){                                 
 2937              		.loc 1 626 0
 2938 133c 544B     		ldr	r3, .L230
 2939 133e DB78     		ldrb	r3, [r3, #3]	@ zero_extendqisi2
 2940 1340 832B     		cmp	r3, #131
 2941 1342 38D1     		bne	.L194
 2942              		.loc 1 626 0 is_stmt 0 discriminator 1
 2943 1344 97F84E30 		ldrb	r3, [r7, #78]	@ zero_extendqisi2
 2944 1348 1D2B     		cmp	r3, #29
 2945 134a 34D1     		bne	.L194
 2946              	.LBB45:
 627:main.c        ****                     for(uint8 LCDRx = 7; LCDRx < 15; LCDRx++){
 2947              		.loc 1 627 0 is_stmt 1
 2948 134c 0723     		movs	r3, #7
 2949 134e 87F82030 		strb	r3, [r7, #32]
 2950 1352 1CE0     		b	.L195
 2951              	.L197:
 628:main.c        ****                         if((touch1[LCDRx] == 0x00) ||(touch1[LCDRx] == 0xFF))
 2952              		.loc 1 628 0
 2953 1354 97F82030 		ldrb	r3, [r7, #32]	@ zero_extendqisi2
 2954 1358 4D4A     		ldr	r2, .L230
 2955 135a D35C     		ldrb	r3, [r2, r3]	@ zero_extendqisi2
 2956 135c 002B     		cmp	r3, #0
 2957 135e 1AD0     		beq	.L196
 2958              		.loc 1 628 0 is_stmt 0 discriminator 1
 2959 1360 97F82030 		ldrb	r3, [r7, #32]	@ zero_extendqisi2
 2960 1364 4A4A     		ldr	r2, .L230
 2961 1366 D35C     		ldrb	r3, [r2, r3]	@ zero_extendqisi2
 2962 1368 FF2B     		cmp	r3, #255
 2963 136a 14D0     		beq	.L196
 629:main.c        ****                             break;
 630:main.c        ****                         side.d.km[LCDRx-7] = touch1[LCDRx];
 2964              		.loc 1 630 0 is_stmt 1 discriminator 2
 2965 136c 97F82030 		ldrb	r3, [r7, #32]	@ zero_extendqisi2
 2966 1370 073B     		subs	r3, r3, #7
 2967 1372 97F82020 		ldrb	r2, [r7, #32]	@ zero_extendqisi2
 2968 1376 4649     		ldr	r1, .L230
 2969 1378 895C     		ldrb	r1, [r1, r2]	@ zero_extendqisi2
 2970 137a 464A     		ldr	r2, .L230+4
 2971 137c 1344     		add	r3, r3, r2
 2972 137e 0A46     		mov	r2, r1
 2973 1380 83F8CC24 		strb	r2, [r3, #1228]
 627:main.c        ****                         if((touch1[LCDRx] == 0x00) ||(touch1[LCDRx] == 0xFF))
 2974              		.loc 1 627 0 discriminator 2
 2975 1384 97F82030 		ldrb	r3, [r7, #32]	@ zero_extendqisi2
ARM GAS  C:\Users\Diego\AppData\Local\Temp\ccdqF4gL.s 			page 66


 2976 1388 0133     		adds	r3, r3, #1
 2977 138a 87F82030 		strb	r3, [r7, #32]
 2978              	.L195:
 627:main.c        ****                         if((touch1[LCDRx] == 0x00) ||(touch1[LCDRx] == 0xFF))
 2979              		.loc 1 627 0 is_stmt 0 discriminator 1
 2980 138e 97F82030 		ldrb	r3, [r7, #32]	@ zero_extendqisi2
 2981 1392 0E2B     		cmp	r3, #14
 2982 1394 DED9     		bls	.L197
 2983              	.L196:
 2984              	.LBE45:
 2985              	.LBB46:
 631:main.c        ****             		}
 632:main.c        ****                     for(uint8 LCDRx = 0; LCDRx < 20; LCDRx++){
 2986              		.loc 1 632 0 is_stmt 1
 2987 1396 0023     		movs	r3, #0
 2988 1398 FB77     		strb	r3, [r7, #31]
 2989 139a 06E0     		b	.L198
 2990              	.L199:
 633:main.c        ****             			touch1[LCDRx] = 0x00;
 2991              		.loc 1 633 0 discriminator 3
 2992 139c FB7F     		ldrb	r3, [r7, #31]	@ zero_extendqisi2
 2993 139e 3C4A     		ldr	r2, .L230
 2994 13a0 0021     		movs	r1, #0
 2995 13a2 D154     		strb	r1, [r2, r3]
 632:main.c        ****             			touch1[LCDRx] = 0x00;
 2996              		.loc 1 632 0 discriminator 3
 2997 13a4 FB7F     		ldrb	r3, [r7, #31]	@ zero_extendqisi2
 2998 13a6 0133     		adds	r3, r3, #1
 2999 13a8 FB77     		strb	r3, [r7, #31]
 3000              	.L198:
 632:main.c        ****             			touch1[LCDRx] = 0x00;
 3001              		.loc 1 632 0 is_stmt 0 discriminator 1
 3002 13aa FB7F     		ldrb	r3, [r7, #31]	@ zero_extendqisi2
 3003 13ac 132B     		cmp	r3, #19
 3004 13ae F5D9     		bls	.L199
 3005              	.LBE46:
 634:main.c        ****             		}                    
 635:main.c        ****                     W_autorize = 0x0D;
 3006              		.loc 1 635 0 is_stmt 1
 3007 13b0 0D23     		movs	r3, #13
 3008 13b2 87F84E30 		strb	r3, [r7, #78]
 3009              	.L194:
 636:main.c        ****                 }
 637:main.c        ****                 if(touch1[3] == 0x83 && W_autorize == 0x0D){             
 3010              		.loc 1 637 0
 3011 13b6 364B     		ldr	r3, .L230
 3012 13b8 DB78     		ldrb	r3, [r3, #3]	@ zero_extendqisi2
 3013 13ba 832B     		cmp	r3, #131
 3014 13bc 63D1     		bne	.L217
 3015              		.loc 1 637 0 is_stmt 0 discriminator 1
 3016 13be 97F84E30 		ldrb	r3, [r7, #78]	@ zero_extendqisi2
 3017 13c2 0D2B     		cmp	r3, #13
 3018 13c4 5FD1     		bne	.L217
 638:main.c        ****                     W_autorize = 0;
 3019              		.loc 1 638 0 is_stmt 1
 3020 13c6 0023     		movs	r3, #0
 3021 13c8 87F84E30 		strb	r3, [r7, #78]
ARM GAS  C:\Users\Diego\AppData\Local\Temp\ccdqF4gL.s 			page 67


 3022              	.LBB47:
 639:main.c        ****                     for(uint8 LCDRx = 7; LCDRx < 15; LCDRx++){
 3023              		.loc 1 639 0
 3024 13cc 0723     		movs	r3, #7
 3025 13ce BB77     		strb	r3, [r7, #30]
 3026 13d0 2DE0     		b	.L201
 3027              	.L205:
 640:main.c        ****                         if((touch1[LCDRx] == 0x00) ||(touch1[LCDRx] == 0xFF))
 3028              		.loc 1 640 0
 3029 13d2 BB7F     		ldrb	r3, [r7, #30]	@ zero_extendqisi2
 3030 13d4 2E4A     		ldr	r2, .L230
 3031 13d6 D35C     		ldrb	r3, [r2, r3]	@ zero_extendqisi2
 3032 13d8 002B     		cmp	r3, #0
 3033 13da 2BD0     		beq	.L202
 3034              		.loc 1 640 0 is_stmt 0 discriminator 1
 3035 13dc BB7F     		ldrb	r3, [r7, #30]	@ zero_extendqisi2
 3036 13de 2C4A     		ldr	r2, .L230
 3037 13e0 D35C     		ldrb	r3, [r2, r3]	@ zero_extendqisi2
 3038 13e2 FF2B     		cmp	r3, #255
 3039 13e4 26D0     		beq	.L202
 641:main.c        ****                             break;
 642:main.c        ****                         if(touch1[LCDRx] > 96 && touch1[LCDRx] < 123){
 3040              		.loc 1 642 0 is_stmt 1
 3041 13e6 BB7F     		ldrb	r3, [r7, #30]	@ zero_extendqisi2
 3042 13e8 294A     		ldr	r2, .L230
 3043 13ea D35C     		ldrb	r3, [r2, r3]	@ zero_extendqisi2
 3044 13ec 602B     		cmp	r3, #96
 3045 13ee 11D9     		bls	.L203
 3046              		.loc 1 642 0 is_stmt 0 discriminator 1
 3047 13f0 BB7F     		ldrb	r3, [r7, #30]	@ zero_extendqisi2
 3048 13f2 274A     		ldr	r2, .L230
 3049 13f4 D35C     		ldrb	r3, [r2, r3]	@ zero_extendqisi2
 3050 13f6 7A2B     		cmp	r3, #122
 3051 13f8 0CD8     		bhi	.L203
 643:main.c        ****                             side.d.msn_plate[LCDRx-7] = touch1[LCDRx]-0x20;                        
 3052              		.loc 1 643 0 is_stmt 1
 3053 13fa BB7F     		ldrb	r3, [r7, #30]	@ zero_extendqisi2
 3054 13fc 073B     		subs	r3, r3, #7
 3055 13fe BA7F     		ldrb	r2, [r7, #30]	@ zero_extendqisi2
 3056 1400 2349     		ldr	r1, .L230
 3057 1402 8A5C     		ldrb	r2, [r1, r2]	@ zero_extendqisi2
 3058 1404 203A     		subs	r2, r2, #32
 3059 1406 D1B2     		uxtb	r1, r2
 3060 1408 224A     		ldr	r2, .L230+4
 3061 140a 1344     		add	r3, r3, r2
 3062 140c 0A46     		mov	r2, r1
 3063 140e 83F8C224 		strb	r2, [r3, #1218]
 3064 1412 09E0     		b	.L204
 3065              	.L203:
 644:main.c        ****                         }else{
 645:main.c        ****                             side.d.msn_plate[LCDRx-7] = touch1[LCDRx];
 3066              		.loc 1 645 0
 3067 1414 BB7F     		ldrb	r3, [r7, #30]	@ zero_extendqisi2
 3068 1416 073B     		subs	r3, r3, #7
 3069 1418 BA7F     		ldrb	r2, [r7, #30]	@ zero_extendqisi2
 3070 141a 1D49     		ldr	r1, .L230
 3071 141c 895C     		ldrb	r1, [r1, r2]	@ zero_extendqisi2
ARM GAS  C:\Users\Diego\AppData\Local\Temp\ccdqF4gL.s 			page 68


 3072 141e 1D4A     		ldr	r2, .L230+4
 3073 1420 1344     		add	r3, r3, r2
 3074 1422 0A46     		mov	r2, r1
 3075 1424 83F8C224 		strb	r2, [r3, #1218]
 3076              	.L204:
 639:main.c        ****                         if((touch1[LCDRx] == 0x00) ||(touch1[LCDRx] == 0xFF))
 3077              		.loc 1 639 0 discriminator 2
 3078 1428 BB7F     		ldrb	r3, [r7, #30]	@ zero_extendqisi2
 3079 142a 0133     		adds	r3, r3, #1
 3080 142c BB77     		strb	r3, [r7, #30]
 3081              	.L201:
 639:main.c        ****                         if((touch1[LCDRx] == 0x00) ||(touch1[LCDRx] == 0xFF))
 3082              		.loc 1 639 0 is_stmt 0 discriminator 1
 3083 142e BB7F     		ldrb	r3, [r7, #30]	@ zero_extendqisi2
 3084 1430 0E2B     		cmp	r3, #14
 3085 1432 CED9     		bls	.L205
 3086              	.L202:
 3087              	.LBE47:
 3088              	.LBB48:
 646:main.c        ****                         }
 647:main.c        ****             		}
 648:main.c        ****                     for(uint8 LCDRx = 0; LCDRx < 20; LCDRx++){
 3089              		.loc 1 648 0 is_stmt 1
 3090 1434 0023     		movs	r3, #0
 3091 1436 7B77     		strb	r3, [r7, #29]
 3092 1438 06E0     		b	.L206
 3093              	.L207:
 649:main.c        ****             			touch1[LCDRx] = 0x00;
 3094              		.loc 1 649 0 discriminator 3
 3095 143a 7B7F     		ldrb	r3, [r7, #29]	@ zero_extendqisi2
 3096 143c 144A     		ldr	r2, .L230
 3097 143e 0021     		movs	r1, #0
 3098 1440 D154     		strb	r1, [r2, r3]
 648:main.c        ****             			touch1[LCDRx] = 0x00;
 3099              		.loc 1 648 0 discriminator 3
 3100 1442 7B7F     		ldrb	r3, [r7, #29]	@ zero_extendqisi2
 3101 1444 0133     		adds	r3, r3, #1
 3102 1446 7B77     		strb	r3, [r7, #29]
 3103              	.L206:
 648:main.c        ****             			touch1[LCDRx] = 0x00;
 3104              		.loc 1 648 0 is_stmt 0 discriminator 1
 3105 1448 7B7F     		ldrb	r3, [r7, #29]	@ zero_extendqisi2
 3106 144a 132B     		cmp	r3, #19
 3107 144c F5D9     		bls	.L207
 3108              	.LBE48:
 650:main.c        ****             		}
 651:main.c        ****                     PrintReceipt(side.d.dir);
 3109              		.loc 1 651 0 is_stmt 1
 3110 144e 114B     		ldr	r3, .L230+4
 3111 1450 93F89F33 		ldrb	r3, [r3, #927]	@ zero_extendqisi2
 3112 1454 1846     		mov	r0, r3
 3113 1456 FFF7FEFF 		bl	PrintReceipt
 652:main.c        ****                     side.d.Copy = 1;
 3114              		.loc 1 652 0
 3115 145a 0E4B     		ldr	r3, .L230+4
 3116 145c 0122     		movs	r2, #1
 3117 145e 83F8D324 		strb	r2, [r3, #1235]
ARM GAS  C:\Users\Diego\AppData\Local\Temp\ccdqF4gL.s 			page 69


 653:main.c        ****                     W_autorize =0xDC;
 3118              		.loc 1 653 0
 3119 1462 DC23     		movs	r3, #220
 3120 1464 87F84E30 		strb	r3, [r7, #78]
 654:main.c        ****                 }
 655:main.c        ****         	break;
 3121              		.loc 1 655 0
 3122 1468 0DE0     		b	.L217
 3123              	.L209:
 292:main.c        ****         	case 0x0B:
 3124              		.loc 1 292 0
 3125 146a 00BF     		nop
 3126 146c 0CE0     		b	.L52
 3127              	.L210:
 323:main.c        ****                 
 3128              		.loc 1 323 0
 3129 146e 00BF     		nop
 3130 1470 0AE0     		b	.L52
 3131              	.L211:
 355:main.c        ****                 
 3132              		.loc 1 355 0
 3133 1472 00BF     		nop
 3134 1474 08E0     		b	.L52
 3135              	.L212:
 387:main.c        ****                 
 3136              		.loc 1 387 0
 3137 1476 00BF     		nop
 3138 1478 06E0     		b	.L52
 3139              	.L213:
 429:main.c        ****             case 0x4E:
 3140              		.loc 1 429 0
 3141 147a 00BF     		nop
 3142 147c 04E0     		b	.L52
 3143              	.L214:
 447:main.c        ****             case 0xE1:
 3144              		.loc 1 447 0
 3145 147e 00BF     		nop
 3146 1480 02E0     		b	.L52
 3147              	.L215:
 455:main.c        ****         	default:
 3148              		.loc 1 455 0
 3149 1482 00BF     		nop
 3150 1484 00E0     		b	.L52
 3151              	.L217:
 3152              		.loc 1 655 0
 3153 1486 00BF     		nop
 3154              	.L52:
 656:main.c        ****         }
 657:main.c        ****         screen_size = 0;
 3155              		.loc 1 657 0
 3156 1488 0023     		movs	r3, #0
 3157 148a 3B77     		strb	r3, [r7, #28]
 658:main.c        ****     }
 3158              		.loc 1 658 0
 3159 148c FEF7E3BE 		b	.L208
 3160              	.L231:
 3161              		.align	2
ARM GAS  C:\Users\Diego\AppData\Local\Temp\ccdqF4gL.s 			page 70


 3162              	.L230:
 3163 1490 00000000 		.word	touch1
 3164 1494 00000000 		.word	side
 3165              		.cfi_endproc
 3166              	.LFE64:
 3167              		.size	main, .-main
 3168              		.text
 3169              	.Letext0:
 3170              		.file 2 "c:\\program files (x86)\\cypress\\psoc creator\\4.2\\psoc creator\\import\\gnu\\arm\\5.4.
 3171              		.file 3 "c:\\program files (x86)\\cypress\\psoc creator\\4.2\\psoc creator\\import\\gnu\\arm\\5.4.
 3172              		.file 4 "Generated_Source\\PSoC5/cytypes.h"
 3173              		.file 5 "./GVar.h"
 3174              		.file 6 "Generated_Source\\PSoC5/core_cm3.h"
 3175              		.section	.debug_info,"",%progbits
 3176              	.Ldebug_info0:
 3177 0000 880A0000 		.4byte	0xa88
 3178 0004 0400     		.2byte	0x4
 3179 0006 00000000 		.4byte	.Ldebug_abbrev0
 3180 000a 04       		.byte	0x4
 3181 000b 01       		.uleb128 0x1
 3182 000c 7A000000 		.4byte	.LASF72
 3183 0010 0C       		.byte	0xc
 3184 0011 34030000 		.4byte	.LASF73
 3185 0015 60020000 		.4byte	.LASF74
 3186 0019 00000000 		.4byte	.Ldebug_ranges0+0
 3187 001d 00000000 		.4byte	0
 3188 0021 00000000 		.4byte	.Ldebug_line0
 3189 0025 02       		.uleb128 0x2
 3190 0026 01       		.byte	0x1
 3191 0027 06       		.byte	0x6
 3192 0028 3D020000 		.4byte	.LASF0
 3193 002c 02       		.uleb128 0x2
 3194 002d 01       		.byte	0x1
 3195 002e 08       		.byte	0x8
 3196 002f 15020000 		.4byte	.LASF1
 3197 0033 02       		.uleb128 0x2
 3198 0034 02       		.byte	0x2
 3199 0035 05       		.byte	0x5
 3200 0036 4D000000 		.4byte	.LASF2
 3201 003a 02       		.uleb128 0x2
 3202 003b 02       		.byte	0x2
 3203 003c 07       		.byte	0x7
 3204 003d BB020000 		.4byte	.LASF3
 3205 0041 03       		.uleb128 0x3
 3206 0042 70030000 		.4byte	.LASF9
 3207 0046 02       		.byte	0x2
 3208 0047 3F       		.byte	0x3f
 3209 0048 4C000000 		.4byte	0x4c
 3210 004c 02       		.uleb128 0x2
 3211 004d 04       		.byte	0x4
 3212 004e 05       		.byte	0x5
 3213 004f 8E010000 		.4byte	.LASF4
 3214 0053 02       		.uleb128 0x2
 3215 0054 04       		.byte	0x4
 3216 0055 07       		.byte	0x7
 3217 0056 3B030000 		.4byte	.LASF5
 3218 005a 02       		.uleb128 0x2
ARM GAS  C:\Users\Diego\AppData\Local\Temp\ccdqF4gL.s 			page 71


 3219 005b 08       		.byte	0x8
 3220 005c 05       		.byte	0x5
 3221 005d 71010000 		.4byte	.LASF6
 3222 0061 02       		.uleb128 0x2
 3223 0062 08       		.byte	0x8
 3224 0063 07       		.byte	0x7
 3225 0064 49020000 		.4byte	.LASF7
 3226 0068 04       		.uleb128 0x4
 3227 0069 04       		.byte	0x4
 3228 006a 05       		.byte	0x5
 3229 006b 696E7400 		.ascii	"int\000"
 3230 006f 02       		.uleb128 0x2
 3231 0070 04       		.byte	0x4
 3232 0071 07       		.byte	0x7
 3233 0072 94020000 		.4byte	.LASF8
 3234 0076 03       		.uleb128 0x3
 3235 0077 E9020000 		.4byte	.LASF10
 3236 007b 03       		.byte	0x3
 3237 007c 2C       		.byte	0x2c
 3238 007d 41000000 		.4byte	0x41
 3239 0081 05       		.uleb128 0x5
 3240 0082 34010000 		.4byte	.LASF11
 3241 0086 04       		.byte	0x4
 3242 0087 E401     		.2byte	0x1e4
 3243 0089 2C000000 		.4byte	0x2c
 3244 008d 05       		.uleb128 0x5
 3245 008e 23010000 		.4byte	.LASF12
 3246 0092 04       		.byte	0x4
 3247 0093 E501     		.2byte	0x1e5
 3248 0095 3A000000 		.4byte	0x3a
 3249 0099 02       		.uleb128 0x2
 3250 009a 04       		.byte	0x4
 3251 009b 04       		.byte	0x4
 3252 009c 00000000 		.4byte	.LASF13
 3253 00a0 02       		.uleb128 0x2
 3254 00a1 08       		.byte	0x8
 3255 00a2 04       		.byte	0x4
 3256 00a3 AA030000 		.4byte	.LASF14
 3257 00a7 05       		.uleb128 0x5
 3258 00a8 74000000 		.4byte	.LASF15
 3259 00ac 04       		.byte	0x4
 3260 00ad F501     		.2byte	0x1f5
 3261 00af B3000000 		.4byte	0xb3
 3262 00b3 02       		.uleb128 0x2
 3263 00b4 01       		.byte	0x1
 3264 00b5 08       		.byte	0x8
 3265 00b6 D8020000 		.4byte	.LASF16
 3266 00ba 02       		.uleb128 0x2
 3267 00bb 08       		.byte	0x8
 3268 00bc 04       		.byte	0x4
 3269 00bd FD010000 		.4byte	.LASF17
 3270 00c1 02       		.uleb128 0x2
 3271 00c2 04       		.byte	0x4
 3272 00c3 07       		.byte	0x7
 3273 00c4 57000000 		.4byte	.LASF18
 3274 00c8 06       		.uleb128 0x6
 3275 00c9 4F010000 		.4byte	.LASF35
ARM GAS  C:\Users\Diego\AppData\Local\Temp\ccdqF4gL.s 			page 72


 3276 00cd 3501     		.2byte	0x135
 3277 00cf 05       		.byte	0x5
 3278 00d0 23       		.byte	0x23
 3279 00d1 B4010000 		.4byte	0x1b4
 3280 00d5 07       		.uleb128 0x7
 3281 00d6 64697200 		.ascii	"dir\000"
 3282 00da 05       		.byte	0x5
 3283 00db 24       		.byte	0x24
 3284 00dc 81000000 		.4byte	0x81
 3285 00e0 00       		.byte	0
 3286 00e1 08       		.uleb128 0x8
 3287 00e2 1A030000 		.4byte	.LASF19
 3288 00e6 05       		.byte	0x5
 3289 00e7 25       		.byte	0x25
 3290 00e8 B4010000 		.4byte	0x1b4
 3291 00ec 01       		.byte	0x1
 3292 00ed 08       		.uleb128 0x8
 3293 00ee 2A010000 		.4byte	.LASF20
 3294 00f2 05       		.byte	0x5
 3295 00f3 26       		.byte	0x26
 3296 00f4 D0010000 		.4byte	0x1d0
 3297 00f8 29       		.byte	0x29
 3298 00f9 08       		.uleb128 0x8
 3299 00fa CE020000 		.4byte	.LASF21
 3300 00fe 05       		.byte	0x5
 3301 00ff 27       		.byte	0x27
 3302 0100 E6010000 		.4byte	0x1e6
 3303 0104 35       		.byte	0x35
 3304 0105 08       		.uleb128 0x8
 3305 0106 D9010000 		.4byte	.LASF22
 3306 010a 05       		.byte	0x5
 3307 010b 28       		.byte	0x28
 3308 010c E6010000 		.4byte	0x1e6
 3309 0110 39       		.byte	0x39
 3310 0111 08       		.uleb128 0x8
 3311 0112 A7020000 		.4byte	.LASF23
 3312 0116 05       		.byte	0x5
 3313 0117 29       		.byte	0x29
 3314 0118 F6010000 		.4byte	0x1f6
 3315 011c 3D       		.byte	0x3d
 3316 011d 08       		.uleb128 0x8
 3317 011e F1010000 		.4byte	.LASF24
 3318 0122 05       		.byte	0x5
 3319 0123 2A       		.byte	0x2a
 3320 0124 81000000 		.4byte	0x81
 3321 0128 4B       		.byte	0x4b
 3322 0129 08       		.uleb128 0x8
 3323 012a 7F010000 		.4byte	.LASF25
 3324 012e 05       		.byte	0x5
 3325 012f 2B       		.byte	0x2b
 3326 0130 06020000 		.4byte	0x206
 3327 0134 4C       		.byte	0x4c
 3328 0135 08       		.uleb128 0x8
 3329 0136 8B030000 		.4byte	.LASF26
 3330 013a 05       		.byte	0x5
 3331 013b 2C       		.byte	0x2c
 3332 013c 16020000 		.4byte	0x216
ARM GAS  C:\Users\Diego\AppData\Local\Temp\ccdqF4gL.s 			page 73


 3333 0140 51       		.byte	0x51
 3334 0141 08       		.uleb128 0x8
 3335 0142 38000000 		.4byte	.LASF27
 3336 0146 05       		.byte	0x5
 3337 0147 2D       		.byte	0x2d
 3338 0148 26020000 		.4byte	0x226
 3339 014c 83       		.byte	0x83
 3340 014d 08       		.uleb128 0x8
 3341 014e 97030000 		.4byte	.LASF28
 3342 0152 05       		.byte	0x5
 3343 0153 2E       		.byte	0x2e
 3344 0154 42020000 		.4byte	0x242
 3345 0158 FB       		.byte	0xfb
 3346 0159 09       		.uleb128 0x9
 3347 015a 97010000 		.4byte	.LASF29
 3348 015e 05       		.byte	0x5
 3349 015f 2F       		.byte	0x2f
 3350 0160 42020000 		.4byte	0x242
 3351 0164 0301     		.2byte	0x103
 3352 0166 09       		.uleb128 0x9
 3353 0167 27030000 		.4byte	.LASF30
 3354 016b 05       		.byte	0x5
 3355 016c 30       		.byte	0x30
 3356 016d 52020000 		.4byte	0x252
 3357 0171 0B01     		.2byte	0x10b
 3358 0173 09       		.uleb128 0x9
 3359 0174 E2030000 		.4byte	.LASF31
 3360 0178 05       		.byte	0x5
 3361 0179 31       		.byte	0x31
 3362 017a 42020000 		.4byte	0x242
 3363 017e 2301     		.2byte	0x123
 3364 0180 09       		.uleb128 0x9
 3365 0181 2D000000 		.4byte	.LASF32
 3366 0185 05       		.byte	0x5
 3367 0186 32       		.byte	0x32
 3368 0187 81000000 		.4byte	0x81
 3369 018b 2B01     		.2byte	0x12b
 3370 018d 09       		.uleb128 0x9
 3371 018e CB030000 		.4byte	.LASF33
 3372 0192 05       		.byte	0x5
 3373 0193 33       		.byte	0x33
 3374 0194 81000000 		.4byte	0x81
 3375 0198 2C01     		.2byte	0x12c
 3376 019a 0A       		.uleb128 0xa
 3377 019b 6B6D00   		.ascii	"km\000"
 3378 019e 05       		.byte	0x5
 3379 019f 34       		.byte	0x34
 3380 01a0 68020000 		.4byte	0x268
 3381 01a4 2D01     		.2byte	0x12d
 3382 01a6 09       		.uleb128 0x9
 3383 01a7 4A010000 		.4byte	.LASF34
 3384 01ab 05       		.byte	0x5
 3385 01ac 35       		.byte	0x35
 3386 01ad 81000000 		.4byte	0x81
 3387 01b1 3401     		.2byte	0x134
 3388 01b3 00       		.byte	0
 3389 01b4 0B       		.uleb128 0xb
ARM GAS  C:\Users\Diego\AppData\Local\Temp\ccdqF4gL.s 			page 74


 3390 01b5 81000000 		.4byte	0x81
 3391 01b9 D0010000 		.4byte	0x1d0
 3392 01bd 0C       		.uleb128 0xc
 3393 01be C1000000 		.4byte	0xc1
 3394 01c2 03       		.byte	0x3
 3395 01c3 0C       		.uleb128 0xc
 3396 01c4 C1000000 		.4byte	0xc1
 3397 01c8 01       		.byte	0x1
 3398 01c9 0C       		.uleb128 0xc
 3399 01ca C1000000 		.4byte	0xc1
 3400 01ce 04       		.byte	0x4
 3401 01cf 00       		.byte	0
 3402 01d0 0B       		.uleb128 0xb
 3403 01d1 81000000 		.4byte	0x81
 3404 01d5 E6010000 		.4byte	0x1e6
 3405 01d9 0C       		.uleb128 0xc
 3406 01da C1000000 		.4byte	0xc1
 3407 01de 03       		.byte	0x3
 3408 01df 0C       		.uleb128 0xc
 3409 01e0 C1000000 		.4byte	0xc1
 3410 01e4 02       		.byte	0x2
 3411 01e5 00       		.byte	0
 3412 01e6 0B       		.uleb128 0xb
 3413 01e7 81000000 		.4byte	0x81
 3414 01eb F6010000 		.4byte	0x1f6
 3415 01ef 0C       		.uleb128 0xc
 3416 01f0 C1000000 		.4byte	0xc1
 3417 01f4 03       		.byte	0x3
 3418 01f5 00       		.byte	0
 3419 01f6 0B       		.uleb128 0xb
 3420 01f7 81000000 		.4byte	0x81
 3421 01fb 06020000 		.4byte	0x206
 3422 01ff 0C       		.uleb128 0xc
 3423 0200 C1000000 		.4byte	0xc1
 3424 0204 0D       		.byte	0xd
 3425 0205 00       		.byte	0
 3426 0206 0B       		.uleb128 0xb
 3427 0207 81000000 		.4byte	0x81
 3428 020b 16020000 		.4byte	0x216
 3429 020f 0C       		.uleb128 0xc
 3430 0210 C1000000 		.4byte	0xc1
 3431 0214 04       		.byte	0x4
 3432 0215 00       		.byte	0
 3433 0216 0B       		.uleb128 0xb
 3434 0217 81000000 		.4byte	0x81
 3435 021b 26020000 		.4byte	0x226
 3436 021f 0C       		.uleb128 0xc
 3437 0220 C1000000 		.4byte	0xc1
 3438 0224 31       		.byte	0x31
 3439 0225 00       		.byte	0
 3440 0226 0B       		.uleb128 0xb
 3441 0227 A7000000 		.4byte	0xa7
 3442 022b 42020000 		.4byte	0x242
 3443 022f 0C       		.uleb128 0xc
 3444 0230 C1000000 		.4byte	0xc1
 3445 0234 03       		.byte	0x3
 3446 0235 0C       		.uleb128 0xc
ARM GAS  C:\Users\Diego\AppData\Local\Temp\ccdqF4gL.s 			page 75


 3447 0236 C1000000 		.4byte	0xc1
 3448 023a 02       		.byte	0x2
 3449 023b 0C       		.uleb128 0xc
 3450 023c C1000000 		.4byte	0xc1
 3451 0240 09       		.byte	0x9
 3452 0241 00       		.byte	0
 3453 0242 0B       		.uleb128 0xb
 3454 0243 81000000 		.4byte	0x81
 3455 0247 52020000 		.4byte	0x252
 3456 024b 0C       		.uleb128 0xc
 3457 024c C1000000 		.4byte	0xc1
 3458 0250 07       		.byte	0x7
 3459 0251 00       		.byte	0
 3460 0252 0B       		.uleb128 0xb
 3461 0253 81000000 		.4byte	0x81
 3462 0257 68020000 		.4byte	0x268
 3463 025b 0C       		.uleb128 0xc
 3464 025c C1000000 		.4byte	0xc1
 3465 0260 03       		.byte	0x3
 3466 0261 0C       		.uleb128 0xc
 3467 0262 C1000000 		.4byte	0xc1
 3468 0266 05       		.byte	0x5
 3469 0267 00       		.byte	0
 3470 0268 0B       		.uleb128 0xb
 3471 0269 81000000 		.4byte	0x81
 3472 026d 78020000 		.4byte	0x278
 3473 0271 0C       		.uleb128 0xc
 3474 0272 C1000000 		.4byte	0xc1
 3475 0276 06       		.byte	0x6
 3476 0277 00       		.byte	0
 3477 0278 06       		.uleb128 0x6
 3478 0279 09030000 		.4byte	.LASF36
 3479 027d D404     		.2byte	0x4d4
 3480 027f 05       		.byte	0x5
 3481 0280 38       		.byte	0x38
 3482 0281 B1020000 		.4byte	0x2b1
 3483 0285 07       		.uleb128 0x7
 3484 0286 6100     		.ascii	"a\000"
 3485 0288 05       		.byte	0x5
 3486 0289 39       		.byte	0x39
 3487 028a C8000000 		.4byte	0xc8
 3488 028e 00       		.byte	0
 3489 028f 0A       		.uleb128 0xa
 3490 0290 6200     		.ascii	"b\000"
 3491 0292 05       		.byte	0x5
 3492 0293 3A       		.byte	0x3a
 3493 0294 C8000000 		.4byte	0xc8
 3494 0298 3501     		.2byte	0x135
 3495 029a 0A       		.uleb128 0xa
 3496 029b 6300     		.ascii	"c\000"
 3497 029d 05       		.byte	0x5
 3498 029e 3B       		.byte	0x3b
 3499 029f C8000000 		.4byte	0xc8
 3500 02a3 6A02     		.2byte	0x26a
 3501 02a5 0A       		.uleb128 0xa
 3502 02a6 6400     		.ascii	"d\000"
 3503 02a8 05       		.byte	0x5
ARM GAS  C:\Users\Diego\AppData\Local\Temp\ccdqF4gL.s 			page 76


 3504 02a9 3C       		.byte	0x3c
 3505 02aa C8000000 		.4byte	0xc8
 3506 02ae 9F03     		.2byte	0x39f
 3507 02b0 00       		.byte	0
 3508 02b1 0D       		.uleb128 0xd
 3509 02b2 06000000 		.4byte	.LASF75
 3510 02b6 01       		.byte	0x1
 3511 02b7 2C000000 		.4byte	0x2c
 3512 02bb 05       		.byte	0x5
 3513 02bc 41       		.byte	0x41
 3514 02bd D4020000 		.4byte	0x2d4
 3515 02c1 0E       		.uleb128 0xe
 3516 02c2 BE030000 		.4byte	.LASF37
 3517 02c6 00       		.byte	0
 3518 02c7 0E       		.uleb128 0xe
 3519 02c8 BD010000 		.4byte	.LASF38
 3520 02cc 06       		.byte	0x6
 3521 02cd 0E       		.uleb128 0xe
 3522 02ce 1C000000 		.4byte	.LASF39
 3523 02d2 04       		.byte	0x4
 3524 02d3 00       		.byte	0
 3525 02d4 0F       		.uleb128 0xf
 3526 02d5 CE010000 		.4byte	.LASF40
 3527 02d9 01       		.byte	0x1
 3528 02da 34       		.byte	0x34
 3529 02db 00000000 		.4byte	.LFB63
 3530 02df 20020000 		.4byte	.LFE63-.LFB63
 3531 02e3 01       		.uleb128 0x1
 3532 02e4 9C       		.byte	0x9c
 3533 02e5 F3020000 		.4byte	0x2f3
 3534 02e9 10       		.uleb128 0x10
 3535 02ea 7800     		.ascii	"x\000"
 3536 02ec 01       		.byte	0x1
 3537 02ed 35       		.byte	0x35
 3538 02ee 81000000 		.4byte	0x81
 3539 02f2 00       		.byte	0
 3540 02f3 11       		.uleb128 0x11
 3541 02f4 6F000000 		.4byte	.LASF41
 3542 02f8 01       		.byte	0x1
 3543 02f9 86       		.byte	0x86
 3544 02fa 68000000 		.4byte	0x68
 3545 02fe 00000000 		.4byte	.LFB64
 3546 0302 98140000 		.4byte	.LFE64-.LFB64
 3547 0306 01       		.uleb128 0x1
 3548 0307 9C       		.byte	0x9c
 3549 0308 E5080000 		.4byte	0x8e5
 3550 030c 12       		.uleb128 0x12
 3551 030d 7800     		.ascii	"x\000"
 3552 030f 01       		.byte	0x1
 3553 0310 89       		.byte	0x89
 3554 0311 81000000 		.4byte	0x81
 3555 0315 02       		.uleb128 0x2
 3556 0316 91       		.byte	0x91
 3557 0317 6F       		.sleb128 -17
 3558 0318 13       		.uleb128 0x13
 3559 0319 AF020000 		.4byte	.LASF42
 3560 031d 01       		.byte	0x1
ARM GAS  C:\Users\Diego\AppData\Local\Temp\ccdqF4gL.s 			page 77


 3561 031e 89       		.byte	0x89
 3562 031f 81000000 		.4byte	0x81
 3563 0323 03       		.uleb128 0x3
 3564 0324 91       		.byte	0x91
 3565 0325 BC7F     		.sleb128 -68
 3566 0327 13       		.uleb128 0x13
 3567 0328 B2010000 		.4byte	.LASF43
 3568 032c 01       		.byte	0x1
 3569 032d 89       		.byte	0x89
 3570 032e 81000000 		.4byte	0x81
 3571 0332 02       		.uleb128 0x2
 3572 0333 91       		.byte	0x91
 3573 0334 6E       		.sleb128 -18
 3574 0335 12       		.uleb128 0x12
 3575 0336 7900     		.ascii	"y\000"
 3576 0338 01       		.byte	0x1
 3577 0339 89       		.byte	0x89
 3578 033a 81000000 		.4byte	0x81
 3579 033e 02       		.uleb128 0x2
 3580 033f 91       		.byte	0x91
 3581 0340 6D       		.sleb128 -19
 3582 0341 14       		.uleb128 0x14
 3583 0342 48000000 		.4byte	.LASF44
 3584 0346 01       		.byte	0x1
 3585 0347 89       		.byte	0x89
 3586 0348 81000000 		.4byte	0x81
 3587 034c 13       		.uleb128 0x13
 3588 034d 6B010000 		.4byte	.LASF45
 3589 0351 01       		.byte	0x1
 3590 0352 8A       		.byte	0x8a
 3591 0353 E6010000 		.4byte	0x1e6
 3592 0357 03       		.uleb128 0x3
 3593 0358 91       		.byte	0x91
 3594 0359 B87F     		.sleb128 -72
 3595 035b 13       		.uleb128 0x13
 3596 035c F1020000 		.4byte	.LASF46
 3597 0360 01       		.byte	0x1
 3598 0361 8B       		.byte	0x8b
 3599 0362 68020000 		.4byte	0x268
 3600 0366 03       		.uleb128 0x3
 3601 0367 91       		.byte	0x91
 3602 0368 B07F     		.sleb128 -80
 3603 036a 13       		.uleb128 0x13
 3604 036b DD020000 		.4byte	.LASF47
 3605 036f 01       		.byte	0x1
 3606 0370 8C       		.byte	0x8c
 3607 0371 68020000 		.4byte	0x268
 3608 0375 03       		.uleb128 0x3
 3609 0376 91       		.byte	0x91
 3610 0377 A87F     		.sleb128 -88
 3611 0379 13       		.uleb128 0x13
 3612 037a FC020000 		.4byte	.LASF48
 3613 037e 01       		.byte	0x1
 3614 037f 8D       		.byte	0x8d
 3615 0380 81000000 		.4byte	0x81
 3616 0384 02       		.uleb128 0x2
 3617 0385 91       		.byte	0x91
ARM GAS  C:\Users\Diego\AppData\Local\Temp\ccdqF4gL.s 			page 78


 3618 0386 6C       		.sleb128 -20
 3619 0387 13       		.uleb128 0x13
 3620 0388 D2030000 		.4byte	.LASF49
 3621 038c 01       		.byte	0x1
 3622 038d 8E       		.byte	0x8e
 3623 038e 06020000 		.4byte	0x206
 3624 0392 03       		.uleb128 0x3
 3625 0393 91       		.byte	0x91
 3626 0394 A07F     		.sleb128 -96
 3627 0396 15       		.uleb128 0x15
 3628 0397 68020000 		.4byte	.LBB2
 3629 039b 2C000000 		.4byte	.LBE2-.LBB2
 3630 039f B2030000 		.4byte	0x3b2
 3631 03a3 13       		.uleb128 0x13
 3632 03a4 A1020000 		.4byte	.LASF50
 3633 03a8 01       		.byte	0x1
 3634 03a9 E5       		.byte	0xe5
 3635 03aa 81000000 		.4byte	0x81
 3636 03ae 02       		.uleb128 0x2
 3637 03af 91       		.byte	0x91
 3638 03b0 6B       		.sleb128 -21
 3639 03b1 00       		.byte	0
 3640 03b2 15       		.uleb128 0x15
 3641 03b3 10030000 		.4byte	.LBB3
 3642 03b7 58000000 		.4byte	.LBE3-.LBB3
 3643 03bb CE030000 		.4byte	0x3ce
 3644 03bf 13       		.uleb128 0x13
 3645 03c0 A1020000 		.4byte	.LASF50
 3646 03c4 01       		.byte	0x1
 3647 03c5 F3       		.byte	0xf3
 3648 03c6 81000000 		.4byte	0x81
 3649 03ca 02       		.uleb128 0x2
 3650 03cb 91       		.byte	0x91
 3651 03cc 6A       		.sleb128 -22
 3652 03cd 00       		.byte	0
 3653 03ce 15       		.uleb128 0x15
 3654 03cf 72030000 		.4byte	.LBB4
 3655 03d3 24000000 		.4byte	.LBE4-.LBB4
 3656 03d7 EA030000 		.4byte	0x3ea
 3657 03db 13       		.uleb128 0x13
 3658 03dc A1020000 		.4byte	.LASF50
 3659 03e0 01       		.byte	0x1
 3660 03e1 F9       		.byte	0xf9
 3661 03e2 81000000 		.4byte	0x81
 3662 03e6 02       		.uleb128 0x2
 3663 03e7 91       		.byte	0x91
 3664 03e8 69       		.sleb128 -23
 3665 03e9 00       		.byte	0
 3666 03ea 15       		.uleb128 0x15
 3667 03eb A0030000 		.4byte	.LBB5
 3668 03ef 24000000 		.4byte	.LBE5-.LBB5
 3669 03f3 06040000 		.4byte	0x406
 3670 03f7 13       		.uleb128 0x13
 3671 03f8 A1020000 		.4byte	.LASF50
 3672 03fc 01       		.byte	0x1
 3673 03fd FF       		.byte	0xff
 3674 03fe 81000000 		.4byte	0x81
ARM GAS  C:\Users\Diego\AppData\Local\Temp\ccdqF4gL.s 			page 79


 3675 0402 02       		.uleb128 0x2
 3676 0403 91       		.byte	0x91
 3677 0404 68       		.sleb128 -24
 3678 0405 00       		.byte	0
 3679 0406 15       		.uleb128 0x15
 3680 0407 E0030000 		.4byte	.LBB6
 3681 040b 24000000 		.4byte	.LBE6-.LBB6
 3682 040f 23040000 		.4byte	0x423
 3683 0413 16       		.uleb128 0x16
 3684 0414 A1020000 		.4byte	.LASF50
 3685 0418 01       		.byte	0x1
 3686 0419 0801     		.2byte	0x108
 3687 041b 81000000 		.4byte	0x81
 3688 041f 02       		.uleb128 0x2
 3689 0420 91       		.byte	0x91
 3690 0421 67       		.sleb128 -25
 3691 0422 00       		.byte	0
 3692 0423 15       		.uleb128 0x15
 3693 0424 36040000 		.4byte	.LBB7
 3694 0428 24000000 		.4byte	.LBE7-.LBB7
 3695 042c 40040000 		.4byte	0x440
 3696 0430 16       		.uleb128 0x16
 3697 0431 A1020000 		.4byte	.LASF50
 3698 0435 01       		.byte	0x1
 3699 0436 1101     		.2byte	0x111
 3700 0438 81000000 		.4byte	0x81
 3701 043c 02       		.uleb128 0x2
 3702 043d 91       		.byte	0x91
 3703 043e 66       		.sleb128 -26
 3704 043f 00       		.byte	0
 3705 0440 15       		.uleb128 0x15
 3706 0441 8E040000 		.4byte	.LBB8
 3707 0445 24000000 		.4byte	.LBE8-.LBB8
 3708 0449 5D040000 		.4byte	0x45d
 3709 044d 16       		.uleb128 0x16
 3710 044e A1020000 		.4byte	.LASF50
 3711 0452 01       		.byte	0x1
 3712 0453 1A01     		.2byte	0x11a
 3713 0455 81000000 		.4byte	0x81
 3714 0459 02       		.uleb128 0x2
 3715 045a 91       		.byte	0x91
 3716 045b 65       		.sleb128 -27
 3717 045c 00       		.byte	0
 3718 045d 15       		.uleb128 0x15
 3719 045e B2040000 		.4byte	.LBB9
 3720 0462 28000000 		.4byte	.LBE9-.LBB9
 3721 0466 7A040000 		.4byte	0x47a
 3722 046a 16       		.uleb128 0x16
 3723 046b A1020000 		.4byte	.LASF50
 3724 046f 01       		.byte	0x1
 3725 0470 1D01     		.2byte	0x11d
 3726 0472 81000000 		.4byte	0x81
 3727 0476 02       		.uleb128 0x2
 3728 0477 91       		.byte	0x91
 3729 0478 64       		.sleb128 -28
 3730 0479 00       		.byte	0
 3731 047a 15       		.uleb128 0x15
ARM GAS  C:\Users\Diego\AppData\Local\Temp\ccdqF4gL.s 			page 80


 3732 047b DA040000 		.4byte	.LBB10
 3733 047f 28000000 		.4byte	.LBE10-.LBB10
 3734 0483 97040000 		.4byte	0x497
 3735 0487 16       		.uleb128 0x16
 3736 0488 A1020000 		.4byte	.LASF50
 3737 048c 01       		.byte	0x1
 3738 048d 2001     		.2byte	0x120
 3739 048f 81000000 		.4byte	0x81
 3740 0493 02       		.uleb128 0x2
 3741 0494 91       		.byte	0x91
 3742 0495 63       		.sleb128 -29
 3743 0496 00       		.byte	0
 3744 0497 15       		.uleb128 0x15
 3745 0498 20050000 		.4byte	.LBB11
 3746 049c 24000000 		.4byte	.LBE11-.LBB11
 3747 04a0 B4040000 		.4byte	0x4b4
 3748 04a4 16       		.uleb128 0x16
 3749 04a5 A1020000 		.4byte	.LASF50
 3750 04a9 01       		.byte	0x1
 3751 04aa 2A01     		.2byte	0x12a
 3752 04ac 81000000 		.4byte	0x81
 3753 04b0 02       		.uleb128 0x2
 3754 04b1 91       		.byte	0x91
 3755 04b2 62       		.sleb128 -30
 3756 04b3 00       		.byte	0
 3757 04b4 15       		.uleb128 0x15
 3758 04b5 B6050000 		.4byte	.LBB12
 3759 04b9 24000000 		.4byte	.LBE12-.LBB12
 3760 04bd D1040000 		.4byte	0x4d1
 3761 04c1 16       		.uleb128 0x16
 3762 04c2 A1020000 		.4byte	.LASF50
 3763 04c6 01       		.byte	0x1
 3764 04c7 3901     		.2byte	0x139
 3765 04c9 81000000 		.4byte	0x81
 3766 04cd 02       		.uleb128 0x2
 3767 04ce 91       		.byte	0x91
 3768 04cf 61       		.sleb128 -31
 3769 04d0 00       		.byte	0
 3770 04d1 15       		.uleb128 0x15
 3771 04d2 DA050000 		.4byte	.LBB13
 3772 04d6 28000000 		.4byte	.LBE13-.LBB13
 3773 04da EE040000 		.4byte	0x4ee
 3774 04de 16       		.uleb128 0x16
 3775 04df A1020000 		.4byte	.LASF50
 3776 04e3 01       		.byte	0x1
 3777 04e4 3C01     		.2byte	0x13c
 3778 04e6 81000000 		.4byte	0x81
 3779 04ea 02       		.uleb128 0x2
 3780 04eb 91       		.byte	0x91
 3781 04ec 60       		.sleb128 -32
 3782 04ed 00       		.byte	0
 3783 04ee 15       		.uleb128 0x15
 3784 04ef 02060000 		.4byte	.LBB14
 3785 04f3 28000000 		.4byte	.LBE14-.LBB14
 3786 04f7 0B050000 		.4byte	0x50b
 3787 04fb 16       		.uleb128 0x16
 3788 04fc A1020000 		.4byte	.LASF50
ARM GAS  C:\Users\Diego\AppData\Local\Temp\ccdqF4gL.s 			page 81


 3789 0500 01       		.byte	0x1
 3790 0501 3F01     		.2byte	0x13f
 3791 0503 81000000 		.4byte	0x81
 3792 0507 02       		.uleb128 0x2
 3793 0508 91       		.byte	0x91
 3794 0509 5F       		.sleb128 -33
 3795 050a 00       		.byte	0
 3796 050b 15       		.uleb128 0x15
 3797 050c 48060000 		.4byte	.LBB15
 3798 0510 30000000 		.4byte	.LBE15-.LBB15
 3799 0514 28050000 		.4byte	0x528
 3800 0518 16       		.uleb128 0x16
 3801 0519 A1020000 		.4byte	.LASF50
 3802 051d 01       		.byte	0x1
 3803 051e 4A01     		.2byte	0x14a
 3804 0520 81000000 		.4byte	0x81
 3805 0524 02       		.uleb128 0x2
 3806 0525 91       		.byte	0x91
 3807 0526 5E       		.sleb128 -34
 3808 0527 00       		.byte	0
 3809 0528 15       		.uleb128 0x15
 3810 0529 EA060000 		.4byte	.LBB16
 3811 052d 24000000 		.4byte	.LBE16-.LBB16
 3812 0531 45050000 		.4byte	0x545
 3813 0535 16       		.uleb128 0x16
 3814 0536 A1020000 		.4byte	.LASF50
 3815 053a 01       		.byte	0x1
 3816 053b 5901     		.2byte	0x159
 3817 053d 81000000 		.4byte	0x81
 3818 0541 02       		.uleb128 0x2
 3819 0542 91       		.byte	0x91
 3820 0543 5D       		.sleb128 -35
 3821 0544 00       		.byte	0
 3822 0545 15       		.uleb128 0x15
 3823 0546 0E070000 		.4byte	.LBB17
 3824 054a 28000000 		.4byte	.LBE17-.LBB17
 3825 054e 62050000 		.4byte	0x562
 3826 0552 16       		.uleb128 0x16
 3827 0553 A1020000 		.4byte	.LASF50
 3828 0557 01       		.byte	0x1
 3829 0558 5C01     		.2byte	0x15c
 3830 055a 81000000 		.4byte	0x81
 3831 055e 02       		.uleb128 0x2
 3832 055f 91       		.byte	0x91
 3833 0560 5C       		.sleb128 -36
 3834 0561 00       		.byte	0
 3835 0562 15       		.uleb128 0x15
 3836 0563 36070000 		.4byte	.LBB18
 3837 0567 28000000 		.4byte	.LBE18-.LBB18
 3838 056b 7F050000 		.4byte	0x57f
 3839 056f 16       		.uleb128 0x16
 3840 0570 A1020000 		.4byte	.LASF50
 3841 0574 01       		.byte	0x1
 3842 0575 5F01     		.2byte	0x15f
 3843 0577 81000000 		.4byte	0x81
 3844 057b 02       		.uleb128 0x2
 3845 057c 91       		.byte	0x91
ARM GAS  C:\Users\Diego\AppData\Local\Temp\ccdqF4gL.s 			page 82


 3846 057d 5B       		.sleb128 -37
 3847 057e 00       		.byte	0
 3848 057f 15       		.uleb128 0x15
 3849 0580 7C070000 		.4byte	.LBB19
 3850 0584 24000000 		.4byte	.LBE19-.LBB19
 3851 0588 9C050000 		.4byte	0x59c
 3852 058c 16       		.uleb128 0x16
 3853 058d A1020000 		.4byte	.LASF50
 3854 0591 01       		.byte	0x1
 3855 0592 6A01     		.2byte	0x16a
 3856 0594 81000000 		.4byte	0x81
 3857 0598 02       		.uleb128 0x2
 3858 0599 91       		.byte	0x91
 3859 059a 5A       		.sleb128 -38
 3860 059b 00       		.byte	0
 3861 059c 15       		.uleb128 0x15
 3862 059d 12080000 		.4byte	.LBB20
 3863 05a1 24000000 		.4byte	.LBE20-.LBB20
 3864 05a5 B9050000 		.4byte	0x5b9
 3865 05a9 16       		.uleb128 0x16
 3866 05aa A1020000 		.4byte	.LASF50
 3867 05ae 01       		.byte	0x1
 3868 05af 7901     		.2byte	0x179
 3869 05b1 81000000 		.4byte	0x81
 3870 05b5 02       		.uleb128 0x2
 3871 05b6 91       		.byte	0x91
 3872 05b7 59       		.sleb128 -39
 3873 05b8 00       		.byte	0
 3874 05b9 15       		.uleb128 0x15
 3875 05ba 36080000 		.4byte	.LBB21
 3876 05be 28000000 		.4byte	.LBE21-.LBB21
 3877 05c2 D6050000 		.4byte	0x5d6
 3878 05c6 16       		.uleb128 0x16
 3879 05c7 A1020000 		.4byte	.LASF50
 3880 05cb 01       		.byte	0x1
 3881 05cc 7C01     		.2byte	0x17c
 3882 05ce 81000000 		.4byte	0x81
 3883 05d2 02       		.uleb128 0x2
 3884 05d3 91       		.byte	0x91
 3885 05d4 58       		.sleb128 -40
 3886 05d5 00       		.byte	0
 3887 05d6 15       		.uleb128 0x15
 3888 05d7 5E080000 		.4byte	.LBB22
 3889 05db 28000000 		.4byte	.LBE22-.LBB22
 3890 05df F3050000 		.4byte	0x5f3
 3891 05e3 16       		.uleb128 0x16
 3892 05e4 A1020000 		.4byte	.LASF50
 3893 05e8 01       		.byte	0x1
 3894 05e9 7F01     		.2byte	0x17f
 3895 05eb 81000000 		.4byte	0x81
 3896 05ef 02       		.uleb128 0x2
 3897 05f0 91       		.byte	0x91
 3898 05f1 57       		.sleb128 -41
 3899 05f2 00       		.byte	0
 3900 05f3 15       		.uleb128 0x15
 3901 05f4 4A090000 		.4byte	.LBB23
 3902 05f8 24000000 		.4byte	.LBE23-.LBB23
ARM GAS  C:\Users\Diego\AppData\Local\Temp\ccdqF4gL.s 			page 83


 3903 05fc 10060000 		.4byte	0x610
 3904 0600 16       		.uleb128 0x16
 3905 0601 A1020000 		.4byte	.LASF50
 3906 0605 01       		.byte	0x1
 3907 0606 9701     		.2byte	0x197
 3908 0608 81000000 		.4byte	0x81
 3909 060c 02       		.uleb128 0x2
 3910 060d 91       		.byte	0x91
 3911 060e 56       		.sleb128 -42
 3912 060f 00       		.byte	0
 3913 0610 15       		.uleb128 0x15
 3914 0611 960A0000 		.4byte	.LBB24
 3915 0615 28000000 		.4byte	.LBE24-.LBB24
 3916 0619 2D060000 		.4byte	0x62d
 3917 061d 16       		.uleb128 0x16
 3918 061e A1020000 		.4byte	.LASF50
 3919 0622 01       		.byte	0x1
 3920 0623 CA01     		.2byte	0x1ca
 3921 0625 81000000 		.4byte	0x81
 3922 0629 02       		.uleb128 0x2
 3923 062a 91       		.byte	0x91
 3924 062b 55       		.sleb128 -43
 3925 062c 00       		.byte	0
 3926 062d 15       		.uleb128 0x15
 3927 062e D00A0000 		.4byte	.LBB25
 3928 0632 54000000 		.4byte	.LBE25-.LBB25
 3929 0636 4A060000 		.4byte	0x64a
 3930 063a 16       		.uleb128 0x16
 3931 063b A1020000 		.4byte	.LASF50
 3932 063f 01       		.byte	0x1
 3933 0640 D001     		.2byte	0x1d0
 3934 0642 81000000 		.4byte	0x81
 3935 0646 02       		.uleb128 0x2
 3936 0647 91       		.byte	0x91
 3937 0648 54       		.sleb128 -44
 3938 0649 00       		.byte	0
 3939 064a 15       		.uleb128 0x15
 3940 064b 140C0000 		.4byte	.LBB26
 3941 064f 24000000 		.4byte	.LBE26-.LBB26
 3942 0653 67060000 		.4byte	0x667
 3943 0657 16       		.uleb128 0x16
 3944 0658 A1020000 		.4byte	.LASF50
 3945 065c 01       		.byte	0x1
 3946 065d E301     		.2byte	0x1e3
 3947 065f 81000000 		.4byte	0x81
 3948 0663 02       		.uleb128 0x2
 3949 0664 91       		.byte	0x91
 3950 0665 53       		.sleb128 -45
 3951 0666 00       		.byte	0
 3952 0667 15       		.uleb128 0x15
 3953 0668 9C0C0000 		.4byte	.LBB27
 3954 066c 3A000000 		.4byte	.LBE27-.LBB27
 3955 0670 84060000 		.4byte	0x684
 3956 0674 16       		.uleb128 0x16
 3957 0675 A1020000 		.4byte	.LASF50
 3958 0679 01       		.byte	0x1
 3959 067a EE01     		.2byte	0x1ee
ARM GAS  C:\Users\Diego\AppData\Local\Temp\ccdqF4gL.s 			page 84


 3960 067c 81000000 		.4byte	0x81
 3961 0680 02       		.uleb128 0x2
 3962 0681 91       		.byte	0x91
 3963 0682 52       		.sleb128 -46
 3964 0683 00       		.byte	0
 3965 0684 15       		.uleb128 0x15
 3966 0685 F80C0000 		.4byte	.LBB28
 3967 0689 24000000 		.4byte	.LBE28-.LBB28
 3968 068d A1060000 		.4byte	0x6a1
 3969 0691 16       		.uleb128 0x16
 3970 0692 A1020000 		.4byte	.LASF50
 3971 0696 01       		.byte	0x1
 3972 0697 F701     		.2byte	0x1f7
 3973 0699 81000000 		.4byte	0x81
 3974 069d 02       		.uleb128 0x2
 3975 069e 91       		.byte	0x91
 3976 069f 51       		.sleb128 -47
 3977 06a0 00       		.byte	0
 3978 06a1 15       		.uleb128 0x15
 3979 06a2 2C0D0000 		.4byte	.LBB29
 3980 06a6 4A000000 		.4byte	.LBE29-.LBB29
 3981 06aa BE060000 		.4byte	0x6be
 3982 06ae 16       		.uleb128 0x16
 3983 06af A1020000 		.4byte	.LASF50
 3984 06b3 01       		.byte	0x1
 3985 06b4 FC01     		.2byte	0x1fc
 3986 06b6 81000000 		.4byte	0x81
 3987 06ba 02       		.uleb128 0x2
 3988 06bb 91       		.byte	0x91
 3989 06bc 50       		.sleb128 -48
 3990 06bd 00       		.byte	0
 3991 06be 15       		.uleb128 0x15
 3992 06bf 760D0000 		.4byte	.LBB30
 3993 06c3 24000000 		.4byte	.LBE30-.LBB30
 3994 06c7 DB060000 		.4byte	0x6db
 3995 06cb 16       		.uleb128 0x16
 3996 06cc A1020000 		.4byte	.LASF50
 3997 06d0 01       		.byte	0x1
 3998 06d1 0102     		.2byte	0x201
 3999 06d3 81000000 		.4byte	0x81
 4000 06d7 02       		.uleb128 0x2
 4001 06d8 91       		.byte	0x91
 4002 06d9 4F       		.sleb128 -49
 4003 06da 00       		.byte	0
 4004 06db 15       		.uleb128 0x15
 4005 06dc B00D0000 		.4byte	.LBB31
 4006 06e0 4E000000 		.4byte	.LBE31-.LBB31
 4007 06e4 F8060000 		.4byte	0x6f8
 4008 06e8 16       		.uleb128 0x16
 4009 06e9 A1020000 		.4byte	.LASF50
 4010 06ed 01       		.byte	0x1
 4011 06ee 0702     		.2byte	0x207
 4012 06f0 81000000 		.4byte	0x81
 4013 06f4 02       		.uleb128 0x2
 4014 06f5 91       		.byte	0x91
 4015 06f6 4E       		.sleb128 -50
 4016 06f7 00       		.byte	0
ARM GAS  C:\Users\Diego\AppData\Local\Temp\ccdqF4gL.s 			page 85


 4017 06f8 15       		.uleb128 0x15
 4018 06f9 FE0D0000 		.4byte	.LBB32
 4019 06fd 24000000 		.4byte	.LBE32-.LBB32
 4020 0701 15070000 		.4byte	0x715
 4021 0705 16       		.uleb128 0x16
 4022 0706 A1020000 		.4byte	.LASF50
 4023 070a 01       		.byte	0x1
 4024 070b 0D02     		.2byte	0x20d
 4025 070d 81000000 		.4byte	0x81
 4026 0711 02       		.uleb128 0x2
 4027 0712 91       		.byte	0x91
 4028 0713 4D       		.sleb128 -51
 4029 0714 00       		.byte	0
 4030 0715 15       		.uleb128 0x15
 4031 0716 B00E0000 		.4byte	.LBB33
 4032 071a 4E000000 		.4byte	.LBE33-.LBB33
 4033 071e 32070000 		.4byte	0x732
 4034 0722 16       		.uleb128 0x16
 4035 0723 A1020000 		.4byte	.LASF50
 4036 0727 01       		.byte	0x1
 4037 0728 1702     		.2byte	0x217
 4038 072a 81000000 		.4byte	0x81
 4039 072e 02       		.uleb128 0x2
 4040 072f 91       		.byte	0x91
 4041 0730 4C       		.sleb128 -52
 4042 0731 00       		.byte	0
 4043 0732 15       		.uleb128 0x15
 4044 0733 FE0E0000 		.4byte	.LBB34
 4045 0737 24000000 		.4byte	.LBE34-.LBB34
 4046 073b 4F070000 		.4byte	0x74f
 4047 073f 16       		.uleb128 0x16
 4048 0740 A1020000 		.4byte	.LASF50
 4049 0744 01       		.byte	0x1
 4050 0745 1D02     		.2byte	0x21d
 4051 0747 81000000 		.4byte	0x81
 4052 074b 02       		.uleb128 0x2
 4053 074c 91       		.byte	0x91
 4054 074d 4B       		.sleb128 -53
 4055 074e 00       		.byte	0
 4056 074f 15       		.uleb128 0x15
 4057 0750 B80F0000 		.4byte	.LBB35
 4058 0754 90000000 		.4byte	.LBE35-.LBB35
 4059 0758 6C070000 		.4byte	0x76c
 4060 075c 16       		.uleb128 0x16
 4061 075d A1020000 		.4byte	.LASF50
 4062 0761 01       		.byte	0x1
 4063 0762 2802     		.2byte	0x228
 4064 0764 81000000 		.4byte	0x81
 4065 0768 02       		.uleb128 0x2
 4066 0769 91       		.byte	0x91
 4067 076a 4A       		.sleb128 -54
 4068 076b 00       		.byte	0
 4069 076c 15       		.uleb128 0x15
 4070 076d 48100000 		.4byte	.LBB36
 4071 0771 24000000 		.4byte	.LBE36-.LBB36
 4072 0775 89070000 		.4byte	0x789
 4073 0779 16       		.uleb128 0x16
ARM GAS  C:\Users\Diego\AppData\Local\Temp\ccdqF4gL.s 			page 86


 4074 077a A1020000 		.4byte	.LASF50
 4075 077e 01       		.byte	0x1
 4076 077f 3102     		.2byte	0x231
 4077 0781 81000000 		.4byte	0x81
 4078 0785 02       		.uleb128 0x2
 4079 0786 91       		.byte	0x91
 4080 0787 49       		.sleb128 -55
 4081 0788 00       		.byte	0
 4082 0789 15       		.uleb128 0x15
 4083 078a 94100000 		.4byte	.LBB37
 4084 078e 4A000000 		.4byte	.LBE37-.LBB37
 4085 0792 A6070000 		.4byte	0x7a6
 4086 0796 16       		.uleb128 0x16
 4087 0797 A1020000 		.4byte	.LASF50
 4088 079b 01       		.byte	0x1
 4089 079c 3902     		.2byte	0x239
 4090 079e 81000000 		.4byte	0x81
 4091 07a2 02       		.uleb128 0x2
 4092 07a3 91       		.byte	0x91
 4093 07a4 48       		.sleb128 -56
 4094 07a5 00       		.byte	0
 4095 07a6 15       		.uleb128 0x15
 4096 07a7 DE100000 		.4byte	.LBB38
 4097 07ab 24000000 		.4byte	.LBE38-.LBB38
 4098 07af C3070000 		.4byte	0x7c3
 4099 07b3 16       		.uleb128 0x16
 4100 07b4 A1020000 		.4byte	.LASF50
 4101 07b8 01       		.byte	0x1
 4102 07b9 3E02     		.2byte	0x23e
 4103 07bb 81000000 		.4byte	0x81
 4104 07bf 02       		.uleb128 0x2
 4105 07c0 91       		.byte	0x91
 4106 07c1 47       		.sleb128 -57
 4107 07c2 00       		.byte	0
 4108 07c3 15       		.uleb128 0x15
 4109 07c4 1E110000 		.4byte	.LBB39
 4110 07c8 80000000 		.4byte	.LBE39-.LBB39
 4111 07cc E0070000 		.4byte	0x7e0
 4112 07d0 16       		.uleb128 0x16
 4113 07d1 A1020000 		.4byte	.LASF50
 4114 07d5 01       		.byte	0x1
 4115 07d6 4502     		.2byte	0x245
 4116 07d8 81000000 		.4byte	0x81
 4117 07dc 02       		.uleb128 0x2
 4118 07dd 91       		.byte	0x91
 4119 07de 46       		.sleb128 -58
 4120 07df 00       		.byte	0
 4121 07e0 15       		.uleb128 0x15
 4122 07e1 9E110000 		.4byte	.LBB40
 4123 07e5 24000000 		.4byte	.LBE40-.LBB40
 4124 07e9 FD070000 		.4byte	0x7fd
 4125 07ed 16       		.uleb128 0x16
 4126 07ee A1020000 		.4byte	.LASF50
 4127 07f2 01       		.byte	0x1
 4128 07f3 4E02     		.2byte	0x24e
 4129 07f5 81000000 		.4byte	0x81
 4130 07f9 02       		.uleb128 0x2
ARM GAS  C:\Users\Diego\AppData\Local\Temp\ccdqF4gL.s 			page 87


 4131 07fa 91       		.byte	0x91
 4132 07fb 45       		.sleb128 -59
 4133 07fc 00       		.byte	0
 4134 07fd 15       		.uleb128 0x15
 4135 07fe EC110000 		.4byte	.LBB41
 4136 0802 4A000000 		.4byte	.LBE41-.LBB41
 4137 0806 1A080000 		.4byte	0x81a
 4138 080a 16       		.uleb128 0x16
 4139 080b A1020000 		.4byte	.LASF50
 4140 080f 01       		.byte	0x1
 4141 0810 5602     		.2byte	0x256
 4142 0812 81000000 		.4byte	0x81
 4143 0816 02       		.uleb128 0x2
 4144 0817 91       		.byte	0x91
 4145 0818 44       		.sleb128 -60
 4146 0819 00       		.byte	0
 4147 081a 15       		.uleb128 0x15
 4148 081b 36120000 		.4byte	.LBB42
 4149 081f 24000000 		.4byte	.LBE42-.LBB42
 4150 0823 37080000 		.4byte	0x837
 4151 0827 16       		.uleb128 0x16
 4152 0828 A1020000 		.4byte	.LASF50
 4153 082c 01       		.byte	0x1
 4154 082d 5B02     		.2byte	0x25b
 4155 082f 81000000 		.4byte	0x81
 4156 0833 02       		.uleb128 0x2
 4157 0834 91       		.byte	0x91
 4158 0835 43       		.sleb128 -61
 4159 0836 00       		.byte	0
 4160 0837 15       		.uleb128 0x15
 4161 0838 76120000 		.4byte	.LBB43
 4162 083c 88000000 		.4byte	.LBE43-.LBB43
 4163 0840 54080000 		.4byte	0x854
 4164 0844 16       		.uleb128 0x16
 4165 0845 A1020000 		.4byte	.LASF50
 4166 0849 01       		.byte	0x1
 4167 084a 6202     		.2byte	0x262
 4168 084c 81000000 		.4byte	0x81
 4169 0850 02       		.uleb128 0x2
 4170 0851 91       		.byte	0x91
 4171 0852 42       		.sleb128 -62
 4172 0853 00       		.byte	0
 4173 0854 15       		.uleb128 0x15
 4174 0855 FE120000 		.4byte	.LBB44
 4175 0859 24000000 		.4byte	.LBE44-.LBB44
 4176 085d 71080000 		.4byte	0x871
 4177 0861 16       		.uleb128 0x16
 4178 0862 A1020000 		.4byte	.LASF50
 4179 0866 01       		.byte	0x1
 4180 0867 6B02     		.2byte	0x26b
 4181 0869 81000000 		.4byte	0x81
 4182 086d 02       		.uleb128 0x2
 4183 086e 91       		.byte	0x91
 4184 086f 41       		.sleb128 -63
 4185 0870 00       		.byte	0
 4186 0871 15       		.uleb128 0x15
 4187 0872 4C130000 		.4byte	.LBB45
ARM GAS  C:\Users\Diego\AppData\Local\Temp\ccdqF4gL.s 			page 88


 4188 0876 4A000000 		.4byte	.LBE45-.LBB45
 4189 087a 8E080000 		.4byte	0x88e
 4190 087e 16       		.uleb128 0x16
 4191 087f A1020000 		.4byte	.LASF50
 4192 0883 01       		.byte	0x1
 4193 0884 7302     		.2byte	0x273
 4194 0886 81000000 		.4byte	0x81
 4195 088a 02       		.uleb128 0x2
 4196 088b 91       		.byte	0x91
 4197 088c 40       		.sleb128 -64
 4198 088d 00       		.byte	0
 4199 088e 15       		.uleb128 0x15
 4200 088f 96130000 		.4byte	.LBB46
 4201 0893 1A000000 		.4byte	.LBE46-.LBB46
 4202 0897 AC080000 		.4byte	0x8ac
 4203 089b 16       		.uleb128 0x16
 4204 089c A1020000 		.4byte	.LASF50
 4205 08a0 01       		.byte	0x1
 4206 08a1 7802     		.2byte	0x278
 4207 08a3 81000000 		.4byte	0x81
 4208 08a7 03       		.uleb128 0x3
 4209 08a8 91       		.byte	0x91
 4210 08a9 BF7F     		.sleb128 -65
 4211 08ab 00       		.byte	0
 4212 08ac 15       		.uleb128 0x15
 4213 08ad CC130000 		.4byte	.LBB47
 4214 08b1 68000000 		.4byte	.LBE47-.LBB47
 4215 08b5 CA080000 		.4byte	0x8ca
 4216 08b9 16       		.uleb128 0x16
 4217 08ba A1020000 		.4byte	.LASF50
 4218 08be 01       		.byte	0x1
 4219 08bf 7F02     		.2byte	0x27f
 4220 08c1 81000000 		.4byte	0x81
 4221 08c5 03       		.uleb128 0x3
 4222 08c6 91       		.byte	0x91
 4223 08c7 BE7F     		.sleb128 -66
 4224 08c9 00       		.byte	0
 4225 08ca 17       		.uleb128 0x17
 4226 08cb 34140000 		.4byte	.LBB48
 4227 08cf 1A000000 		.4byte	.LBE48-.LBB48
 4228 08d3 16       		.uleb128 0x16
 4229 08d4 A1020000 		.4byte	.LASF50
 4230 08d8 01       		.byte	0x1
 4231 08d9 8802     		.2byte	0x288
 4232 08db 81000000 		.4byte	0x81
 4233 08df 03       		.uleb128 0x3
 4234 08e0 91       		.byte	0x91
 4235 08e1 BD7F     		.sleb128 -67
 4236 08e3 00       		.byte	0
 4237 08e4 00       		.byte	0
 4238 08e5 18       		.uleb128 0x18
 4239 08e6 63030000 		.4byte	.LASF51
 4240 08ea 06       		.byte	0x6
 4241 08eb 1207     		.2byte	0x712
 4242 08ed F1080000 		.4byte	0x8f1
 4243 08f1 19       		.uleb128 0x19
 4244 08f2 76000000 		.4byte	0x76
ARM GAS  C:\Users\Diego\AppData\Local\Temp\ccdqF4gL.s 			page 89


 4245 08f6 1A       		.uleb128 0x1a
 4246 08f7 58010000 		.4byte	.LASF52
 4247 08fb 05       		.byte	0x5
 4248 08fc 10       		.byte	0x10
 4249 08fd 8D000000 		.4byte	0x8d
 4250 0901 05       		.uleb128 0x5
 4251 0902 03       		.byte	0x3
 4252 0903 00000000 		.4byte	PollCounter
 4253 0907 1A       		.uleb128 0x1a
 4254 0908 23020000 		.4byte	.LASF53
 4255 090c 05       		.byte	0x5
 4256 090d 11       		.byte	0x11
 4257 090e 81000000 		.4byte	0x81
 4258 0912 05       		.uleb128 0x5
 4259 0913 03       		.byte	0x3
 4260 0914 00000000 		.4byte	CurrentState
 4261 0918 1A       		.uleb128 0x1a
 4262 0919 B1030000 		.4byte	.LASF54
 4263 091d 05       		.byte	0x5
 4264 091e 12       		.byte	0x12
 4265 091f 81000000 		.4byte	0x81
 4266 0923 05       		.uleb128 0x5
 4267 0924 03       		.byte	0x3
 4268 0925 00000000 		.4byte	Receipt
 4269 0929 0B       		.uleb128 0xb
 4270 092a 81000000 		.4byte	0x81
 4271 092e 39090000 		.4byte	0x939
 4272 0932 0C       		.uleb128 0xc
 4273 0933 C1000000 		.4byte	0xc1
 4274 0937 05       		.byte	0x5
 4275 0938 00       		.byte	0
 4276 0939 1A       		.uleb128 0x1a
 4277 093a 0E030000 		.4byte	.LASF55
 4278 093e 05       		.byte	0x5
 4279 093f 13       		.byte	0x13
 4280 0940 29090000 		.4byte	0x929
 4281 0944 05       		.uleb128 0x5
 4282 0945 03       		.byte	0x3
 4283 0946 00000000 		.4byte	sale_number
 4284 094a 1A       		.uleb128 0x1a
 4285 094b 08010000 		.4byte	.LASF56
 4286 094f 05       		.byte	0x5
 4287 0950 14       		.byte	0x14
 4288 0951 29090000 		.4byte	0x929
 4289 0955 05       		.uleb128 0x5
 4290 0956 03       		.byte	0x3
 4291 0957 00000000 		.4byte	sale_number_copy
 4292 095b 1A       		.uleb128 0x1a
 4293 095c 60000000 		.4byte	.LASF57
 4294 0960 05       		.byte	0x5
 4295 0961 15       		.byte	0x15
 4296 0962 81000000 		.4byte	0x81
 4297 0966 05       		.uleb128 0x5
 4298 0967 03       		.byte	0x3
 4299 0968 00000000 		.4byte	int_salenumber
 4300 096c 1A       		.uleb128 0x1a
 4301 096d 30020000 		.4byte	.LASF58
ARM GAS  C:\Users\Diego\AppData\Local\Temp\ccdqF4gL.s 			page 90


 4302 0971 05       		.byte	0x5
 4303 0972 16       		.byte	0x16
 4304 0973 29090000 		.4byte	0x929
 4305 0977 05       		.uleb128 0x5
 4306 0978 03       		.byte	0x3
 4307 0979 00000000 		.4byte	shift_number
 4308 097d 1A       		.uleb128 0x1a
 4309 097e 3A010000 		.4byte	.LASF59
 4310 0982 05       		.byte	0x5
 4311 0983 17       		.byte	0x17
 4312 0984 81000000 		.4byte	0x81
 4313 0988 05       		.uleb128 0x5
 4314 0989 03       		.byte	0x3
 4315 098a 00000000 		.4byte	int_shiftnumber
 4316 098e 1A       		.uleb128 0x1a
 4317 098f 86010000 		.4byte	.LASF60
 4318 0993 05       		.byte	0x5
 4319 0994 18       		.byte	0x18
 4320 0995 81000000 		.4byte	0x81
 4321 0999 05       		.uleb128 0x5
 4322 099a 03       		.byte	0x3
 4323 099b 00000000 		.4byte	LCDhose
 4324 099f 1A       		.uleb128 0x1a
 4325 09a0 B9030000 		.4byte	.LASF61
 4326 09a4 05       		.byte	0x5
 4327 09a5 3F       		.byte	0x3f
 4328 09a6 78020000 		.4byte	0x278
 4329 09aa 05       		.uleb128 0x5
 4330 09ab 03       		.byte	0x3
 4331 09ac 00000000 		.4byte	side
 4332 09b0 1A       		.uleb128 0x1a
 4333 09b1 54030000 		.4byte	.LASF62
 4334 09b5 05       		.byte	0x5
 4335 09b6 48       		.byte	0x48
 4336 09b7 16020000 		.4byte	0x216
 4337 09bb 05       		.uleb128 0x5
 4338 09bc 03       		.byte	0x3
 4339 09bd 00000000 		.4byte	MepsanResponse
 4340 09c1 1A       		.uleb128 0x1a
 4341 09c2 E4010000 		.4byte	.LASF63
 4342 09c6 05       		.byte	0x5
 4343 09c7 49       		.byte	0x49
 4344 09c8 16020000 		.4byte	0x216
 4345 09cc 05       		.uleb128 0x5
 4346 09cd 03       		.byte	0x3
 4347 09ce 00000000 		.4byte	MepsanSendTo
 4348 09d2 0B       		.uleb128 0xb
 4349 09d3 81000000 		.4byte	0x81
 4350 09d7 E2090000 		.4byte	0x9e2
 4351 09db 0C       		.uleb128 0xc
 4352 09dc C1000000 		.4byte	0xc1
 4353 09e0 0E       		.byte	0xe
 4354 09e1 00       		.byte	0
 4355 09e2 1A       		.uleb128 0x1a
 4356 09e3 09020000 		.4byte	.LASF64
 4357 09e7 05       		.byte	0x5
 4358 09e8 4A       		.byte	0x4a
ARM GAS  C:\Users\Diego\AppData\Local\Temp\ccdqF4gL.s 			page 91


 4359 09e9 D2090000 		.4byte	0x9d2
 4360 09ed 05       		.uleb128 0x5
 4361 09ee 03       		.byte	0x3
 4362 09ef 00000000 		.4byte	PumpAddress
 4363 09f3 1B       		.uleb128 0x1b
 4364 09f4 43524300 		.ascii	"CRC\000"
 4365 09f8 05       		.byte	0x5
 4366 09f9 4B       		.byte	0x4b
 4367 09fa 8D000000 		.4byte	0x8d
 4368 09fe 05       		.uleb128 0x5
 4369 09ff 03       		.byte	0x3
 4370 0a00 00000000 		.4byte	CRC
 4371 0a04 1A       		.uleb128 0x1a
 4372 0a05 15000000 		.4byte	.LASF65
 4373 0a09 05       		.byte	0x5
 4374 0a0a 4C       		.byte	0x4c
 4375 0a0b 81000000 		.4byte	0x81
 4376 0a0f 05       		.uleb128 0x5
 4377 0a10 03       		.byte	0x3
 4378 0a11 00000000 		.4byte	crc_lo
 4379 0a15 1A       		.uleb128 0x1a
 4380 0a16 DB030000 		.4byte	.LASF66
 4381 0a1a 05       		.byte	0x5
 4382 0a1b 4C       		.byte	0x4c
 4383 0a1c 81000000 		.4byte	0x81
 4384 0a20 05       		.uleb128 0x5
 4385 0a21 03       		.byte	0x3
 4386 0a22 00000000 		.4byte	crc_hi
 4387 0a26 1A       		.uleb128 0x1a
 4388 0a27 19010000 		.4byte	.LASF67
 4389 0a2b 05       		.byte	0x5
 4390 0a2c 4D       		.byte	0x4d
 4391 0a2d 81000000 		.4byte	0x81
 4392 0a31 05       		.uleb128 0x5
 4393 0a32 03       		.byte	0x3
 4394 0a33 00000000 		.4byte	Positions
 4395 0a37 1A       		.uleb128 0x1a
 4396 0a38 7A030000 		.4byte	.LASF68
 4397 0a3c 05       		.byte	0x5
 4398 0a3d 4E       		.byte	0x4e
 4399 0a3e 81000000 		.4byte	0x81
 4400 0a42 05       		.uleb128 0x5
 4401 0a43 03       		.byte	0x3
 4402 0a44 00000000 		.4byte	TotalRequestType
 4403 0a48 1A       		.uleb128 0x1a
 4404 0a49 64010000 		.4byte	.LASF69
 4405 0a4d 05       		.byte	0x5
 4406 0a4e 4F       		.byte	0x4f
 4407 0a4f 81000000 		.4byte	0x81
 4408 0a53 05       		.uleb128 0x5
 4409 0a54 03       		.byte	0x3
 4410 0a55 00000000 		.4byte	DecVol
 4411 0a59 0B       		.uleb128 0xb
 4412 0a5a 81000000 		.4byte	0x81
 4413 0a5e 690A0000 		.4byte	0xa69
 4414 0a62 0C       		.uleb128 0xc
 4415 0a63 C1000000 		.4byte	0xc1
ARM GAS  C:\Users\Diego\AppData\Local\Temp\ccdqF4gL.s 			page 92


 4416 0a67 13       		.byte	0x13
 4417 0a68 00       		.byte	0
 4418 0a69 1A       		.uleb128 0x1a
 4419 0a6a 4D030000 		.4byte	.LASF70
 4420 0a6e 05       		.byte	0x5
 4421 0a6f 58       		.byte	0x58
 4422 0a70 590A0000 		.4byte	0xa59
 4423 0a74 05       		.uleb128 0x5
 4424 0a75 03       		.byte	0x3
 4425 0a76 00000000 		.4byte	touch1
 4426 0a7a 1A       		.uleb128 0x1a
 4427 0a7b AB010000 		.4byte	.LASF71
 4428 0a7f 05       		.byte	0x5
 4429 0a80 61       		.byte	0x61
 4430 0a81 81000000 		.4byte	0x81
 4431 0a85 05       		.uleb128 0x5
 4432 0a86 03       		.byte	0x3
 4433 0a87 00000000 		.4byte	dirGbr
 4434 0a8b 00       		.byte	0
 4435              		.section	.debug_abbrev,"",%progbits
 4436              	.Ldebug_abbrev0:
 4437 0000 01       		.uleb128 0x1
 4438 0001 11       		.uleb128 0x11
 4439 0002 01       		.byte	0x1
 4440 0003 25       		.uleb128 0x25
 4441 0004 0E       		.uleb128 0xe
 4442 0005 13       		.uleb128 0x13
 4443 0006 0B       		.uleb128 0xb
 4444 0007 03       		.uleb128 0x3
 4445 0008 0E       		.uleb128 0xe
 4446 0009 1B       		.uleb128 0x1b
 4447 000a 0E       		.uleb128 0xe
 4448 000b 55       		.uleb128 0x55
 4449 000c 17       		.uleb128 0x17
 4450 000d 11       		.uleb128 0x11
 4451 000e 01       		.uleb128 0x1
 4452 000f 10       		.uleb128 0x10
 4453 0010 17       		.uleb128 0x17
 4454 0011 00       		.byte	0
 4455 0012 00       		.byte	0
 4456 0013 02       		.uleb128 0x2
 4457 0014 24       		.uleb128 0x24
 4458 0015 00       		.byte	0
 4459 0016 0B       		.uleb128 0xb
 4460 0017 0B       		.uleb128 0xb
 4461 0018 3E       		.uleb128 0x3e
 4462 0019 0B       		.uleb128 0xb
 4463 001a 03       		.uleb128 0x3
 4464 001b 0E       		.uleb128 0xe
 4465 001c 00       		.byte	0
 4466 001d 00       		.byte	0
 4467 001e 03       		.uleb128 0x3
 4468 001f 16       		.uleb128 0x16
 4469 0020 00       		.byte	0
 4470 0021 03       		.uleb128 0x3
 4471 0022 0E       		.uleb128 0xe
 4472 0023 3A       		.uleb128 0x3a
ARM GAS  C:\Users\Diego\AppData\Local\Temp\ccdqF4gL.s 			page 93


 4473 0024 0B       		.uleb128 0xb
 4474 0025 3B       		.uleb128 0x3b
 4475 0026 0B       		.uleb128 0xb
 4476 0027 49       		.uleb128 0x49
 4477 0028 13       		.uleb128 0x13
 4478 0029 00       		.byte	0
 4479 002a 00       		.byte	0
 4480 002b 04       		.uleb128 0x4
 4481 002c 24       		.uleb128 0x24
 4482 002d 00       		.byte	0
 4483 002e 0B       		.uleb128 0xb
 4484 002f 0B       		.uleb128 0xb
 4485 0030 3E       		.uleb128 0x3e
 4486 0031 0B       		.uleb128 0xb
 4487 0032 03       		.uleb128 0x3
 4488 0033 08       		.uleb128 0x8
 4489 0034 00       		.byte	0
 4490 0035 00       		.byte	0
 4491 0036 05       		.uleb128 0x5
 4492 0037 16       		.uleb128 0x16
 4493 0038 00       		.byte	0
 4494 0039 03       		.uleb128 0x3
 4495 003a 0E       		.uleb128 0xe
 4496 003b 3A       		.uleb128 0x3a
 4497 003c 0B       		.uleb128 0xb
 4498 003d 3B       		.uleb128 0x3b
 4499 003e 05       		.uleb128 0x5
 4500 003f 49       		.uleb128 0x49
 4501 0040 13       		.uleb128 0x13
 4502 0041 00       		.byte	0
 4503 0042 00       		.byte	0
 4504 0043 06       		.uleb128 0x6
 4505 0044 13       		.uleb128 0x13
 4506 0045 01       		.byte	0x1
 4507 0046 03       		.uleb128 0x3
 4508 0047 0E       		.uleb128 0xe
 4509 0048 0B       		.uleb128 0xb
 4510 0049 05       		.uleb128 0x5
 4511 004a 3A       		.uleb128 0x3a
 4512 004b 0B       		.uleb128 0xb
 4513 004c 3B       		.uleb128 0x3b
 4514 004d 0B       		.uleb128 0xb
 4515 004e 01       		.uleb128 0x1
 4516 004f 13       		.uleb128 0x13
 4517 0050 00       		.byte	0
 4518 0051 00       		.byte	0
 4519 0052 07       		.uleb128 0x7
 4520 0053 0D       		.uleb128 0xd
 4521 0054 00       		.byte	0
 4522 0055 03       		.uleb128 0x3
 4523 0056 08       		.uleb128 0x8
 4524 0057 3A       		.uleb128 0x3a
 4525 0058 0B       		.uleb128 0xb
 4526 0059 3B       		.uleb128 0x3b
 4527 005a 0B       		.uleb128 0xb
 4528 005b 49       		.uleb128 0x49
 4529 005c 13       		.uleb128 0x13
ARM GAS  C:\Users\Diego\AppData\Local\Temp\ccdqF4gL.s 			page 94


 4530 005d 38       		.uleb128 0x38
 4531 005e 0B       		.uleb128 0xb
 4532 005f 00       		.byte	0
 4533 0060 00       		.byte	0
 4534 0061 08       		.uleb128 0x8
 4535 0062 0D       		.uleb128 0xd
 4536 0063 00       		.byte	0
 4537 0064 03       		.uleb128 0x3
 4538 0065 0E       		.uleb128 0xe
 4539 0066 3A       		.uleb128 0x3a
 4540 0067 0B       		.uleb128 0xb
 4541 0068 3B       		.uleb128 0x3b
 4542 0069 0B       		.uleb128 0xb
 4543 006a 49       		.uleb128 0x49
 4544 006b 13       		.uleb128 0x13
 4545 006c 38       		.uleb128 0x38
 4546 006d 0B       		.uleb128 0xb
 4547 006e 00       		.byte	0
 4548 006f 00       		.byte	0
 4549 0070 09       		.uleb128 0x9
 4550 0071 0D       		.uleb128 0xd
 4551 0072 00       		.byte	0
 4552 0073 03       		.uleb128 0x3
 4553 0074 0E       		.uleb128 0xe
 4554 0075 3A       		.uleb128 0x3a
 4555 0076 0B       		.uleb128 0xb
 4556 0077 3B       		.uleb128 0x3b
 4557 0078 0B       		.uleb128 0xb
 4558 0079 49       		.uleb128 0x49
 4559 007a 13       		.uleb128 0x13
 4560 007b 38       		.uleb128 0x38
 4561 007c 05       		.uleb128 0x5
 4562 007d 00       		.byte	0
 4563 007e 00       		.byte	0
 4564 007f 0A       		.uleb128 0xa
 4565 0080 0D       		.uleb128 0xd
 4566 0081 00       		.byte	0
 4567 0082 03       		.uleb128 0x3
 4568 0083 08       		.uleb128 0x8
 4569 0084 3A       		.uleb128 0x3a
 4570 0085 0B       		.uleb128 0xb
 4571 0086 3B       		.uleb128 0x3b
 4572 0087 0B       		.uleb128 0xb
 4573 0088 49       		.uleb128 0x49
 4574 0089 13       		.uleb128 0x13
 4575 008a 38       		.uleb128 0x38
 4576 008b 05       		.uleb128 0x5
 4577 008c 00       		.byte	0
 4578 008d 00       		.byte	0
 4579 008e 0B       		.uleb128 0xb
 4580 008f 01       		.uleb128 0x1
 4581 0090 01       		.byte	0x1
 4582 0091 49       		.uleb128 0x49
 4583 0092 13       		.uleb128 0x13
 4584 0093 01       		.uleb128 0x1
 4585 0094 13       		.uleb128 0x13
 4586 0095 00       		.byte	0
ARM GAS  C:\Users\Diego\AppData\Local\Temp\ccdqF4gL.s 			page 95


 4587 0096 00       		.byte	0
 4588 0097 0C       		.uleb128 0xc
 4589 0098 21       		.uleb128 0x21
 4590 0099 00       		.byte	0
 4591 009a 49       		.uleb128 0x49
 4592 009b 13       		.uleb128 0x13
 4593 009c 2F       		.uleb128 0x2f
 4594 009d 0B       		.uleb128 0xb
 4595 009e 00       		.byte	0
 4596 009f 00       		.byte	0
 4597 00a0 0D       		.uleb128 0xd
 4598 00a1 04       		.uleb128 0x4
 4599 00a2 01       		.byte	0x1
 4600 00a3 03       		.uleb128 0x3
 4601 00a4 0E       		.uleb128 0xe
 4602 00a5 0B       		.uleb128 0xb
 4603 00a6 0B       		.uleb128 0xb
 4604 00a7 49       		.uleb128 0x49
 4605 00a8 13       		.uleb128 0x13
 4606 00a9 3A       		.uleb128 0x3a
 4607 00aa 0B       		.uleb128 0xb
 4608 00ab 3B       		.uleb128 0x3b
 4609 00ac 0B       		.uleb128 0xb
 4610 00ad 01       		.uleb128 0x1
 4611 00ae 13       		.uleb128 0x13
 4612 00af 00       		.byte	0
 4613 00b0 00       		.byte	0
 4614 00b1 0E       		.uleb128 0xe
 4615 00b2 28       		.uleb128 0x28
 4616 00b3 00       		.byte	0
 4617 00b4 03       		.uleb128 0x3
 4618 00b5 0E       		.uleb128 0xe
 4619 00b6 1C       		.uleb128 0x1c
 4620 00b7 0B       		.uleb128 0xb
 4621 00b8 00       		.byte	0
 4622 00b9 00       		.byte	0
 4623 00ba 0F       		.uleb128 0xf
 4624 00bb 2E       		.uleb128 0x2e
 4625 00bc 01       		.byte	0x1
 4626 00bd 3F       		.uleb128 0x3f
 4627 00be 19       		.uleb128 0x19
 4628 00bf 03       		.uleb128 0x3
 4629 00c0 0E       		.uleb128 0xe
 4630 00c1 3A       		.uleb128 0x3a
 4631 00c2 0B       		.uleb128 0xb
 4632 00c3 3B       		.uleb128 0x3b
 4633 00c4 0B       		.uleb128 0xb
 4634 00c5 27       		.uleb128 0x27
 4635 00c6 19       		.uleb128 0x19
 4636 00c7 11       		.uleb128 0x11
 4637 00c8 01       		.uleb128 0x1
 4638 00c9 12       		.uleb128 0x12
 4639 00ca 06       		.uleb128 0x6
 4640 00cb 40       		.uleb128 0x40
 4641 00cc 18       		.uleb128 0x18
 4642 00cd 9642     		.uleb128 0x2116
 4643 00cf 19       		.uleb128 0x19
ARM GAS  C:\Users\Diego\AppData\Local\Temp\ccdqF4gL.s 			page 96


 4644 00d0 01       		.uleb128 0x1
 4645 00d1 13       		.uleb128 0x13
 4646 00d2 00       		.byte	0
 4647 00d3 00       		.byte	0
 4648 00d4 10       		.uleb128 0x10
 4649 00d5 34       		.uleb128 0x34
 4650 00d6 00       		.byte	0
 4651 00d7 03       		.uleb128 0x3
 4652 00d8 08       		.uleb128 0x8
 4653 00d9 3A       		.uleb128 0x3a
 4654 00da 0B       		.uleb128 0xb
 4655 00db 3B       		.uleb128 0x3b
 4656 00dc 0B       		.uleb128 0xb
 4657 00dd 49       		.uleb128 0x49
 4658 00de 13       		.uleb128 0x13
 4659 00df 00       		.byte	0
 4660 00e0 00       		.byte	0
 4661 00e1 11       		.uleb128 0x11
 4662 00e2 2E       		.uleb128 0x2e
 4663 00e3 01       		.byte	0x1
 4664 00e4 3F       		.uleb128 0x3f
 4665 00e5 19       		.uleb128 0x19
 4666 00e6 03       		.uleb128 0x3
 4667 00e7 0E       		.uleb128 0xe
 4668 00e8 3A       		.uleb128 0x3a
 4669 00e9 0B       		.uleb128 0xb
 4670 00ea 3B       		.uleb128 0x3b
 4671 00eb 0B       		.uleb128 0xb
 4672 00ec 49       		.uleb128 0x49
 4673 00ed 13       		.uleb128 0x13
 4674 00ee 11       		.uleb128 0x11
 4675 00ef 01       		.uleb128 0x1
 4676 00f0 12       		.uleb128 0x12
 4677 00f1 06       		.uleb128 0x6
 4678 00f2 40       		.uleb128 0x40
 4679 00f3 18       		.uleb128 0x18
 4680 00f4 9642     		.uleb128 0x2116
 4681 00f6 19       		.uleb128 0x19
 4682 00f7 01       		.uleb128 0x1
 4683 00f8 13       		.uleb128 0x13
 4684 00f9 00       		.byte	0
 4685 00fa 00       		.byte	0
 4686 00fb 12       		.uleb128 0x12
 4687 00fc 34       		.uleb128 0x34
 4688 00fd 00       		.byte	0
 4689 00fe 03       		.uleb128 0x3
 4690 00ff 08       		.uleb128 0x8
 4691 0100 3A       		.uleb128 0x3a
 4692 0101 0B       		.uleb128 0xb
 4693 0102 3B       		.uleb128 0x3b
 4694 0103 0B       		.uleb128 0xb
 4695 0104 49       		.uleb128 0x49
 4696 0105 13       		.uleb128 0x13
 4697 0106 02       		.uleb128 0x2
 4698 0107 18       		.uleb128 0x18
 4699 0108 00       		.byte	0
 4700 0109 00       		.byte	0
ARM GAS  C:\Users\Diego\AppData\Local\Temp\ccdqF4gL.s 			page 97


 4701 010a 13       		.uleb128 0x13
 4702 010b 34       		.uleb128 0x34
 4703 010c 00       		.byte	0
 4704 010d 03       		.uleb128 0x3
 4705 010e 0E       		.uleb128 0xe
 4706 010f 3A       		.uleb128 0x3a
 4707 0110 0B       		.uleb128 0xb
 4708 0111 3B       		.uleb128 0x3b
 4709 0112 0B       		.uleb128 0xb
 4710 0113 49       		.uleb128 0x49
 4711 0114 13       		.uleb128 0x13
 4712 0115 02       		.uleb128 0x2
 4713 0116 18       		.uleb128 0x18
 4714 0117 00       		.byte	0
 4715 0118 00       		.byte	0
 4716 0119 14       		.uleb128 0x14
 4717 011a 34       		.uleb128 0x34
 4718 011b 00       		.byte	0
 4719 011c 03       		.uleb128 0x3
 4720 011d 0E       		.uleb128 0xe
 4721 011e 3A       		.uleb128 0x3a
 4722 011f 0B       		.uleb128 0xb
 4723 0120 3B       		.uleb128 0x3b
 4724 0121 0B       		.uleb128 0xb
 4725 0122 49       		.uleb128 0x49
 4726 0123 13       		.uleb128 0x13
 4727 0124 00       		.byte	0
 4728 0125 00       		.byte	0
 4729 0126 15       		.uleb128 0x15
 4730 0127 0B       		.uleb128 0xb
 4731 0128 01       		.byte	0x1
 4732 0129 11       		.uleb128 0x11
 4733 012a 01       		.uleb128 0x1
 4734 012b 12       		.uleb128 0x12
 4735 012c 06       		.uleb128 0x6
 4736 012d 01       		.uleb128 0x1
 4737 012e 13       		.uleb128 0x13
 4738 012f 00       		.byte	0
 4739 0130 00       		.byte	0
 4740 0131 16       		.uleb128 0x16
 4741 0132 34       		.uleb128 0x34
 4742 0133 00       		.byte	0
 4743 0134 03       		.uleb128 0x3
 4744 0135 0E       		.uleb128 0xe
 4745 0136 3A       		.uleb128 0x3a
 4746 0137 0B       		.uleb128 0xb
 4747 0138 3B       		.uleb128 0x3b
 4748 0139 05       		.uleb128 0x5
 4749 013a 49       		.uleb128 0x49
 4750 013b 13       		.uleb128 0x13
 4751 013c 02       		.uleb128 0x2
 4752 013d 18       		.uleb128 0x18
 4753 013e 00       		.byte	0
 4754 013f 00       		.byte	0
 4755 0140 17       		.uleb128 0x17
 4756 0141 0B       		.uleb128 0xb
 4757 0142 01       		.byte	0x1
ARM GAS  C:\Users\Diego\AppData\Local\Temp\ccdqF4gL.s 			page 98


 4758 0143 11       		.uleb128 0x11
 4759 0144 01       		.uleb128 0x1
 4760 0145 12       		.uleb128 0x12
 4761 0146 06       		.uleb128 0x6
 4762 0147 00       		.byte	0
 4763 0148 00       		.byte	0
 4764 0149 18       		.uleb128 0x18
 4765 014a 34       		.uleb128 0x34
 4766 014b 00       		.byte	0
 4767 014c 03       		.uleb128 0x3
 4768 014d 0E       		.uleb128 0xe
 4769 014e 3A       		.uleb128 0x3a
 4770 014f 0B       		.uleb128 0xb
 4771 0150 3B       		.uleb128 0x3b
 4772 0151 05       		.uleb128 0x5
 4773 0152 49       		.uleb128 0x49
 4774 0153 13       		.uleb128 0x13
 4775 0154 3F       		.uleb128 0x3f
 4776 0155 19       		.uleb128 0x19
 4777 0156 3C       		.uleb128 0x3c
 4778 0157 19       		.uleb128 0x19
 4779 0158 00       		.byte	0
 4780 0159 00       		.byte	0
 4781 015a 19       		.uleb128 0x19
 4782 015b 35       		.uleb128 0x35
 4783 015c 00       		.byte	0
 4784 015d 49       		.uleb128 0x49
 4785 015e 13       		.uleb128 0x13
 4786 015f 00       		.byte	0
 4787 0160 00       		.byte	0
 4788 0161 1A       		.uleb128 0x1a
 4789 0162 34       		.uleb128 0x34
 4790 0163 00       		.byte	0
 4791 0164 03       		.uleb128 0x3
 4792 0165 0E       		.uleb128 0xe
 4793 0166 3A       		.uleb128 0x3a
 4794 0167 0B       		.uleb128 0xb
 4795 0168 3B       		.uleb128 0x3b
 4796 0169 0B       		.uleb128 0xb
 4797 016a 49       		.uleb128 0x49
 4798 016b 13       		.uleb128 0x13
 4799 016c 3F       		.uleb128 0x3f
 4800 016d 19       		.uleb128 0x19
 4801 016e 02       		.uleb128 0x2
 4802 016f 18       		.uleb128 0x18
 4803 0170 00       		.byte	0
 4804 0171 00       		.byte	0
 4805 0172 1B       		.uleb128 0x1b
 4806 0173 34       		.uleb128 0x34
 4807 0174 00       		.byte	0
 4808 0175 03       		.uleb128 0x3
 4809 0176 08       		.uleb128 0x8
 4810 0177 3A       		.uleb128 0x3a
 4811 0178 0B       		.uleb128 0xb
 4812 0179 3B       		.uleb128 0x3b
 4813 017a 0B       		.uleb128 0xb
 4814 017b 49       		.uleb128 0x49
ARM GAS  C:\Users\Diego\AppData\Local\Temp\ccdqF4gL.s 			page 99


 4815 017c 13       		.uleb128 0x13
 4816 017d 3F       		.uleb128 0x3f
 4817 017e 19       		.uleb128 0x19
 4818 017f 02       		.uleb128 0x2
 4819 0180 18       		.uleb128 0x18
 4820 0181 00       		.byte	0
 4821 0182 00       		.byte	0
 4822 0183 00       		.byte	0
 4823              		.section	.debug_aranges,"",%progbits
 4824 0000 24000000 		.4byte	0x24
 4825 0004 0200     		.2byte	0x2
 4826 0006 00000000 		.4byte	.Ldebug_info0
 4827 000a 04       		.byte	0x4
 4828 000b 00       		.byte	0
 4829 000c 0000     		.2byte	0
 4830 000e 0000     		.2byte	0
 4831 0010 00000000 		.4byte	.LFB63
 4832 0014 20020000 		.4byte	.LFE63-.LFB63
 4833 0018 00000000 		.4byte	.LFB64
 4834 001c 98140000 		.4byte	.LFE64-.LFB64
 4835 0020 00000000 		.4byte	0
 4836 0024 00000000 		.4byte	0
 4837              		.section	.debug_ranges,"",%progbits
 4838              	.Ldebug_ranges0:
 4839 0000 00000000 		.4byte	.LFB63
 4840 0004 20020000 		.4byte	.LFE63
 4841 0008 00000000 		.4byte	.LFB64
 4842 000c 98140000 		.4byte	.LFE64
 4843 0010 00000000 		.4byte	0
 4844 0014 00000000 		.4byte	0
 4845              		.section	.debug_line,"",%progbits
 4846              	.Ldebug_line0:
 4847 0000 68070000 		.section	.debug_str,"MS",%progbits,1
 4847      02005801 
 4847      00000201 
 4847      FB0E0D00 
 4847      01010101 
 4848              	.LASF13:
 4849 0000 666C6F61 		.ascii	"float\000"
 4849      7400
 4850              	.LASF75:
 4851 0006 4D455053 		.ascii	"MEPSAN_REQUEST\000"
 4851      414E5F52 
 4851      45515545 
 4851      535400
 4852              	.LASF65:
 4853 0015 6372635F 		.ascii	"crc_lo\000"
 4853      6C6F00
 4854              	.LASF39:
 4855 001c 4D455053 		.ascii	"MEPSAN_R_FILLING\000"
 4855      414E5F52 
 4855      5F46494C 
 4855      4C494E47 
 4855      00
 4856              	.LASF32:
 4857 002d 4D657052 		.ascii	"MepRequest\000"
 4857      65717565 
ARM GAS  C:\Users\Diego\AppData\Local\Temp\ccdqF4gL.s 			page 100


 4857      737400
 4858              	.LASF27:
 4859 0038 50726F63 		.ascii	"ProcessedTotals\000"
 4859      65737365 
 4859      64546F74 
 4859      616C7300 
 4860              	.LASF44:
 4861 0048 74656D70 		.ascii	"temp\000"
 4861      00
 4862              	.LASF2:
 4863 004d 73686F72 		.ascii	"short int\000"
 4863      7420696E 
 4863      7400
 4864              	.LASF18:
 4865 0057 73697A65 		.ascii	"sizetype\000"
 4865      74797065 
 4865      00
 4866              	.LASF57:
 4867 0060 696E745F 		.ascii	"int_salenumber\000"
 4867      73616C65 
 4867      6E756D62 
 4867      657200
 4868              	.LASF41:
 4869 006f 6D61696E 		.ascii	"main\000"
 4869      00
 4870              	.LASF15:
 4871 0074 63686172 		.ascii	"char8\000"
 4871      3800
 4872              	.LASF72:
 4873 007a 474E5520 		.ascii	"GNU C11 5.4.1 20160609 (release) [ARM/embedded-5-br"
 4873      43313120 
 4873      352E342E 
 4873      31203230 
 4873      31363036 
 4874 00ad 616E6368 		.ascii	"anch revision 237715] -mcpu=cortex-m3 -mthumb -g -O"
 4874      20726576 
 4874      6973696F 
 4874      6E203233 
 4874      37373135 
 4875 00e0 30202D66 		.ascii	"0 -ffunction-sections -ffat-lto-objects\000"
 4875      66756E63 
 4875      74696F6E 
 4875      2D736563 
 4875      74696F6E 
 4876              	.LASF56:
 4877 0108 73616C65 		.ascii	"sale_number_copy\000"
 4877      5F6E756D 
 4877      6265725F 
 4877      636F7079 
 4877      00
 4878              	.LASF67:
 4879 0119 506F7369 		.ascii	"Positions\000"
 4879      74696F6E 
 4879      7300
 4880              	.LASF12:
 4881 0123 75696E74 		.ascii	"uint16\000"
 4881      313600
ARM GAS  C:\Users\Diego\AppData\Local\Temp\ccdqF4gL.s 			page 101


 4882              	.LASF20:
 4883 012a 7070754E 		.ascii	"ppuNozzle\000"
 4883      6F7A7A6C 
 4883      6500
 4884              	.LASF11:
 4885 0134 75696E74 		.ascii	"uint8\000"
 4885      3800
 4886              	.LASF59:
 4887 013a 696E745F 		.ascii	"int_shiftnumber\000"
 4887      73686966 
 4887      746E756D 
 4887      62657200 
 4888              	.LASF34:
 4889 014a 436F7079 		.ascii	"Copy\000"
 4889      00
 4890              	.LASF35:
 4891 014f 706F7369 		.ascii	"position\000"
 4891      74696F6E 
 4891      00
 4892              	.LASF52:
 4893 0158 506F6C6C 		.ascii	"PollCounter\000"
 4893      436F756E 
 4893      74657200 
 4894              	.LASF69:
 4895 0164 44656356 		.ascii	"DecVol\000"
 4895      6F6C00
 4896              	.LASF45:
 4897 016b 70617373 		.ascii	"passw\000"
 4897      7700
 4898              	.LASF6:
 4899 0171 6C6F6E67 		.ascii	"long long int\000"
 4899      206C6F6E 
 4899      6720696E 
 4899      7400
 4900              	.LASF25:
 4901 017f 73746174 		.ascii	"states\000"
 4901      657300
 4902              	.LASF60:
 4903 0186 4C434468 		.ascii	"LCDhose\000"
 4903      6F736500 
 4904              	.LASF4:
 4905 018e 6C6F6E67 		.ascii	"long int\000"
 4905      20696E74 
 4905      00
 4906              	.LASF29:
 4907 0197 50726F63 		.ascii	"ProcessedvolumeSale\000"
 4907      65737365 
 4907      64766F6C 
 4907      756D6553 
 4907      616C6500 
 4908              	.LASF71:
 4909 01ab 64697247 		.ascii	"dirGbr\000"
 4909      627200
 4910              	.LASF43:
 4911 01b2 575F6175 		.ascii	"W_autorize\000"
 4911      746F7269 
 4911      7A6500
ARM GAS  C:\Users\Diego\AppData\Local\Temp\ccdqF4gL.s 			page 102


 4912              	.LASF38:
 4913 01bd 4D455053 		.ascii	"MEPSAN_AUTHORIZE\000"
 4913      414E5F41 
 4913      5554484F 
 4913      52495A45 
 4913      00
 4914              	.LASF40:
 4915 01ce 506F6C6C 		.ascii	"PollingPos\000"
 4915      696E6750 
 4915      6F7300
 4916              	.LASF22:
 4917 01d9 766F6C75 		.ascii	"volumeSale\000"
 4917      6D655361 
 4917      6C6500
 4918              	.LASF63:
 4919 01e4 4D657073 		.ascii	"MepsanSendTo\000"
 4919      616E5365 
 4919      6E64546F 
 4919      00
 4920              	.LASF24:
 4921 01f1 70726F64 		.ascii	"productSale\000"
 4921      75637453 
 4921      616C6500 
 4922              	.LASF17:
 4923 01fd 6C6F6E67 		.ascii	"long double\000"
 4923      20646F75 
 4923      626C6500 
 4924              	.LASF64:
 4925 0209 50756D70 		.ascii	"PumpAddress\000"
 4925      41646472 
 4925      65737300 
 4926              	.LASF1:
 4927 0215 756E7369 		.ascii	"unsigned char\000"
 4927      676E6564 
 4927      20636861 
 4927      7200
 4928              	.LASF53:
 4929 0223 43757272 		.ascii	"CurrentState\000"
 4929      656E7453 
 4929      74617465 
 4929      00
 4930              	.LASF58:
 4931 0230 73686966 		.ascii	"shift_number\000"
 4931      745F6E75 
 4931      6D626572 
 4931      00
 4932              	.LASF0:
 4933 023d 7369676E 		.ascii	"signed char\000"
 4933      65642063 
 4933      68617200 
 4934              	.LASF7:
 4935 0249 6C6F6E67 		.ascii	"long long unsigned int\000"
 4935      206C6F6E 
 4935      6720756E 
 4935      7369676E 
 4935      65642069 
 4936              	.LASF74:
ARM GAS  C:\Users\Diego\AppData\Local\Temp\ccdqF4gL.s 			page 103


 4937 0260 433A5C55 		.ascii	"C:\\Users\\Diego\\Documents\\GitHub\\Mepsan\\Mepsan"
 4937      73657273 
 4937      5C446965 
 4937      676F5C44 
 4937      6F63756D 
 4938 028d 2E637964 		.ascii	".cydsn\000"
 4938      736E00
 4939              	.LASF8:
 4940 0294 756E7369 		.ascii	"unsigned int\000"
 4940      676E6564 
 4940      20696E74 
 4940      00
 4941              	.LASF50:
 4942 02a1 4C434452 		.ascii	"LCDRx\000"
 4942      7800
 4943              	.LASF23:
 4944 02a7 70707553 		.ascii	"ppuSale\000"
 4944      616C6500 
 4945              	.LASF42:
 4946 02af 73637265 		.ascii	"screen_size\000"
 4946      656E5F73 
 4946      697A6500 
 4947              	.LASF3:
 4948 02bb 73686F72 		.ascii	"short unsigned int\000"
 4948      7420756E 
 4948      7369676E 
 4948      65642069 
 4948      6E7400
 4949              	.LASF21:
 4950 02ce 6D6F6E65 		.ascii	"moneySale\000"
 4950      7953616C 
 4950      6500
 4951              	.LASF16:
 4952 02d8 63686172 		.ascii	"char\000"
 4952      00
 4953              	.LASF47:
 4954 02dd 6368616E 		.ascii	"change_pic2\000"
 4954      67655F70 
 4954      69633200 
 4955              	.LASF10:
 4956 02e9 696E7433 		.ascii	"int32_t\000"
 4956      325F7400 
 4957              	.LASF46:
 4958 02f1 6368616E 		.ascii	"change_pic\000"
 4958      67655F70 
 4958      696300
 4959              	.LASF48:
 4960 02fc 70726963 		.ascii	"price_change\000"
 4960      655F6368 
 4960      616E6765 
 4960      00
 4961              	.LASF36:
 4962 0309 70756D70 		.ascii	"pump\000"
 4962      00
 4963              	.LASF55:
 4964 030e 73616C65 		.ascii	"sale_number\000"
 4964      5F6E756D 
ARM GAS  C:\Users\Diego\AppData\Local\Temp\ccdqF4gL.s 			page 104


 4964      62657200 
 4965              	.LASF19:
 4966 031a 746F7461 		.ascii	"totalsNozzle\000"
 4966      6C734E6F 
 4966      7A7A6C65 
 4966      00
 4967              	.LASF30:
 4968 0327 50726F63 		.ascii	"ProcessedPPU\000"
 4968      65737365 
 4968      64505055 
 4968      00
 4969              	.LASF73:
 4970 0334 6D61696E 		.ascii	"main.c\000"
 4970      2E6300
 4971              	.LASF5:
 4972 033b 6C6F6E67 		.ascii	"long unsigned int\000"
 4972      20756E73 
 4972      69676E65 
 4972      6420696E 
 4972      7400
 4973              	.LASF70:
 4974 034d 746F7563 		.ascii	"touch1\000"
 4974      683100
 4975              	.LASF62:
 4976 0354 4D657073 		.ascii	"MepsanResponse\000"
 4976      616E5265 
 4976      73706F6E 
 4976      736500
 4977              	.LASF51:
 4978 0363 49544D5F 		.ascii	"ITM_RxBuffer\000"
 4978      52784275 
 4978      66666572 
 4978      00
 4979              	.LASF9:
 4980 0370 5F5F696E 		.ascii	"__int32_t\000"
 4980      7433325F 
 4980      7400
 4981              	.LASF68:
 4982 037a 546F7461 		.ascii	"TotalRequestType\000"
 4982      6C526571 
 4982      75657374 
 4982      54797065 
 4982      00
 4983              	.LASF26:
 4984 038b 4D657073 		.ascii	"MepsanStore\000"
 4984      616E5374 
 4984      6F726500 
 4985              	.LASF28:
 4986 0397 50726F63 		.ascii	"ProcessedmoneySale\000"
 4986      65737365 
 4986      646D6F6E 
 4986      65795361 
 4986      6C6500
 4987              	.LASF14:
 4988 03aa 646F7562 		.ascii	"double\000"
 4988      6C6500
 4989              	.LASF54:
ARM GAS  C:\Users\Diego\AppData\Local\Temp\ccdqF4gL.s 			page 105


 4990 03b1 52656365 		.ascii	"Receipt\000"
 4990      69707400 
 4991              	.LASF61:
 4992 03b9 73696465 		.ascii	"side\000"
 4992      00
 4993              	.LASF37:
 4994 03be 4D455053 		.ascii	"MEPSAN_STATE\000"
 4994      414E5F53 
 4994      54415445 
 4994      00
 4995              	.LASF33:
 4996 03cb 4E6F7A7A 		.ascii	"Nozzle\000"
 4996      6C6500
 4997              	.LASF49:
 4998 03d2 61757850 		.ascii	"auxPrice\000"
 4998      72696365 
 4998      00
 4999              	.LASF66:
 5000 03db 6372635F 		.ascii	"crc_hi\000"
 5000      686900
 5001              	.LASF31:
 5002 03e2 6D736E5F 		.ascii	"msn_plate\000"
 5002      706C6174 
 5002      6500
 5003              		.ident	"GCC: (GNU Tools for ARM Embedded Processors) 5.4.1 20160609 (release) [ARM/embedded-5-bran
