ARM GAS  C:\Users\Lenovo\AppData\Local\Temp\ccYK011w.s 			page 1


   1              		.syntax unified
   2              		.cpu cortex-m3
   3              		.fpu softvfp
   4              		.eabi_attribute 20, 1
   5              		.eabi_attribute 21, 1
   6              		.eabi_attribute 23, 3
   7              		.eabi_attribute 24, 1
   8              		.eabi_attribute 25, 1
   9              		.eabi_attribute 26, 1
  10              		.eabi_attribute 30, 6
  11              		.eabi_attribute 34, 1
  12              		.eabi_attribute 18, 4
  13              		.thumb
  14              		.syntax unified
  15              		.file	"main.c"
  16              		.text
  17              	.Ltext0:
  18              		.cfi_sections	.debug_frame
  19              		.comm	PollCounter,2,2
  20              		.comm	CurrentState,1,1
  21              		.comm	Receipt,1,1
  22              		.comm	side,1164,4
  23              		.comm	MepsanResponse,50,4
  24              		.comm	MepsanSendTo,50,4
  25              		.comm	PumpAddress,15,4
  26              		.comm	CRC,2,2
  27              		.comm	crc_lo,1,1
  28              		.comm	crc_hi,1,1
  29              		.comm	Positions,1,1
  30              		.comm	TotalRequestType,1,1
  31              		.comm	DecVol,1,1
  32              		.comm	dirGbr,1,1
  33              		.section	.text.polling,"ax",%progbits
  34              		.align	2
  35              		.global	polling
  36              		.thumb
  37              		.thumb_func
  38              		.type	polling, %function
  39              	polling:
  40              	.LFB63:
  41              		.file 1 "main.c"
   1:main.c        **** /******************************************************************************
   2:main.c        **** * File Name: main.c
   3:main.c        **** *
   4:main.c        **** * Version: 1.10
   5:main.c        **** *
   6:main.c        **** * Description: This is the source code for the Blinking LED code example.
   7:main.c        **** *
   8:main.c        **** * Related Document: CE195352_PSoC_5LP_Blinking_LED.pdf
   9:main.c        **** *
  10:main.c        **** * Hardware Dependency: See CE195352_PSoC_5LP_Blinking_LED.pdf
  11:main.c        **** *
  12:main.c        **** *******************************************************************************
  13:main.c        **** * Copyright (2018), Cypress Semiconductor Corporation. All rights reserved.
  14:main.c        **** *******************************************************************************
  15:main.c        **** * This software, including source code, documentation and related materials
  16:main.c        **** * (“Software”), is owned by Cypress Semiconductor Corporation or one of its
ARM GAS  C:\Users\Lenovo\AppData\Local\Temp\ccYK011w.s 			page 2


  17:main.c        **** * subsidiaries (“Cypress”) and is protected by and subject to worldwide patent
  18:main.c        **** * protection (United States and foreign), United States copyright laws and
  19:main.c        **** * international treaty provisions. Therefore, you may use this Software only
  20:main.c        **** * as provided in the license agreement accompanying the software package from
  21:main.c        **** * which you obtained this Software (“EULA”).
  22:main.c        **** *
  23:main.c        **** * If no EULA applies, Cypress hereby grants you a personal, nonexclusive,
  24:main.c        **** * non-transferable license to copy, modify, and compile the Software source
  25:main.c        **** * code solely for use in connection with Cypress’s integrated circuit products.
  26:main.c        **** * Any reproduction, modification, translation, compilation, or representation
  27:main.c        **** * of this Software except as specified above is prohibited without the express
  28:main.c        **** * written permission of Cypress.
  29:main.c        **** *
  30:main.c        **** * Disclaimer: THIS SOFTWARE IS PROVIDED AS-IS, WITH NO WARRANTY OF ANY KIND, 
  31:main.c        **** * EXPRESS OR IMPLIED, INCLUDING, BUT NOT LIMITED TO, NONINFRINGEMENT, IMPLIED 
  32:main.c        **** * WARRANTIES OF MERCHANTABILITY AND FITNESS FOR A PARTICULAR PURPOSE. Cypress 
  33:main.c        **** * reserves the right to make changes to the Software without notice. Cypress 
  34:main.c        **** * does not assume any liability arising out of the application or use of the 
  35:main.c        **** * Software or any product or circuit described in the Software. Cypress does 
  36:main.c        **** * not authorize its products for use in any products where a malfunction or 
  37:main.c        **** * failure of the Cypress product may reasonably be expected to result in 
  38:main.c        **** * significant property damage, injury or death (“High Risk Product”). By 
  39:main.c        **** * including Cypress’s product in a High Risk Product, the manufacturer of such 
  40:main.c        **** * system or application assumes all risk of such use and in doing so agrees to 
  41:main.c        **** * indemnify Cypress against all liability.
  42:main.c        **** *******************************************************************************/
  43:main.c        **** 
  44:main.c        **** #include <project.h>
  45:main.c        **** #include <GVar.h>
  46:main.c        **** #include <PumpCom.h>
  47:main.c        **** #include <Gbr.h>
  48:main.c        **** #include <printer.h>
  49:main.c        **** 
  50:main.c        **** CY_ISR(polling);
  51:main.c        **** 
  52:main.c        **** 
  53:main.c        **** 
  54:main.c        **** 
  55:main.c        **** CY_ISR(polling){
  42              		.loc 1 55 0
  43              		.cfi_startproc
  44              		@ args = 0, pretend = 0, frame = 0
  45              		@ frame_needed = 1, uses_anonymous_args = 0
  46 0000 80B5     		push	{r7, lr}
  47              		.cfi_def_cfa_offset 8
  48              		.cfi_offset 7, -8
  49              		.cfi_offset 14, -4
  50 0002 00AF     		add	r7, sp, #0
  51              		.cfi_def_cfa_register 7
  56:main.c        ****     Timer_1_ReadStatusRegister();    											 
  52              		.loc 1 56 0
  53 0004 FFF7FEFF 		bl	Timer_1_ReadStatusRegister
  57:main.c        ****     PollCounter++; //Incrementa el contador    
  54              		.loc 1 57 0
  55 0008 034B     		ldr	r3, .L2
  56 000a 1B88     		ldrh	r3, [r3]
  57 000c 0133     		adds	r3, r3, #1
ARM GAS  C:\Users\Lenovo\AppData\Local\Temp\ccYK011w.s 			page 3


  58 000e 9AB2     		uxth	r2, r3
  59 0010 014B     		ldr	r3, .L2
  60 0012 1A80     		strh	r2, [r3]	@ movhi
  58:main.c        **** }
  61              		.loc 1 58 0
  62 0014 00BF     		nop
  63 0016 80BD     		pop	{r7, pc}
  64              	.L3:
  65              		.align	2
  66              	.L2:
  67 0018 00000000 		.word	PollCounter
  68              		.cfi_endproc
  69              	.LFE63:
  70              		.size	polling, .-polling
  71              		.section	.text.PollingPos,"ax",%progbits
  72              		.align	2
  73              		.global	PollingPos
  74              		.thumb
  75              		.thumb_func
  76              		.type	PollingPos, %function
  77              	PollingPos:
  78              	.LFB64:
  59:main.c        **** 
  60:main.c        **** 
  61:main.c        **** void PollingPos(void){
  79              		.loc 1 61 0
  80              		.cfi_startproc
  81              		@ args = 0, pretend = 0, frame = 8
  82              		@ frame_needed = 1, uses_anonymous_args = 0
  83 0000 90B5     		push	{r4, r7, lr}
  84              		.cfi_def_cfa_offset 12
  85              		.cfi_offset 4, -12
  86              		.cfi_offset 7, -8
  87              		.cfi_offset 14, -4
  88 0002 83B0     		sub	sp, sp, #12
  89              		.cfi_def_cfa_offset 24
  90 0004 00AF     		add	r7, sp, #0
  91              		.cfi_def_cfa_register 7
  62:main.c        ****     uint8 x;
  63:main.c        ****     if(side.a.dir != 0xFF && side.b.dir == 0xFF){
  92              		.loc 1 63 0
  93 0006 684B     		ldr	r3, .L18
  94 0008 1B78     		ldrb	r3, [r3]	@ zero_extendqisi2
  95 000a FF2B     		cmp	r3, #255
  96 000c 07D0     		beq	.L5
  97              		.loc 1 63 0 is_stmt 0 discriminator 1
  98 000e 664B     		ldr	r3, .L18
  99 0010 93F82331 		ldrb	r3, [r3, #291]	@ zero_extendqisi2
 100 0014 FF2B     		cmp	r3, #255
 101 0016 02D1     		bne	.L5
  64:main.c        ****         Positions = 1;
 102              		.loc 1 64 0 is_stmt 1
 103 0018 644B     		ldr	r3, .L18+4
 104 001a 0122     		movs	r2, #1
 105 001c 1A70     		strb	r2, [r3]
 106              	.L5:
  65:main.c        ****     }
ARM GAS  C:\Users\Lenovo\AppData\Local\Temp\ccYK011w.s 			page 4


  66:main.c        ****     if(side.a.dir != 0xFF && side.b.dir != 0xFF){
 107              		.loc 1 66 0
 108 001e 624B     		ldr	r3, .L18
 109 0020 1B78     		ldrb	r3, [r3]	@ zero_extendqisi2
 110 0022 FF2B     		cmp	r3, #255
 111 0024 07D0     		beq	.L6
 112              		.loc 1 66 0 is_stmt 0 discriminator 1
 113 0026 604B     		ldr	r3, .L18
 114 0028 93F82331 		ldrb	r3, [r3, #291]	@ zero_extendqisi2
 115 002c FF2B     		cmp	r3, #255
 116 002e 02D0     		beq	.L6
  67:main.c        ****         Positions = 2;
 117              		.loc 1 67 0 is_stmt 1
 118 0030 5E4B     		ldr	r3, .L18+4
 119 0032 0222     		movs	r2, #2
 120 0034 1A70     		strb	r2, [r3]
 121              	.L6:
  68:main.c        ****     }
  69:main.c        ****     if(side.c.dir != 0xFF && side.d.dir == 0xFF){
 122              		.loc 1 69 0
 123 0036 5C4B     		ldr	r3, .L18
 124 0038 93F84632 		ldrb	r3, [r3, #582]	@ zero_extendqisi2
 125 003c FF2B     		cmp	r3, #255
 126 003e 07D0     		beq	.L7
 127              		.loc 1 69 0 is_stmt 0 discriminator 1
 128 0040 594B     		ldr	r3, .L18
 129 0042 93F86933 		ldrb	r3, [r3, #873]	@ zero_extendqisi2
 130 0046 FF2B     		cmp	r3, #255
 131 0048 02D1     		bne	.L7
  70:main.c        ****         Positions = 3;
 132              		.loc 1 70 0 is_stmt 1
 133 004a 584B     		ldr	r3, .L18+4
 134 004c 0322     		movs	r2, #3
 135 004e 1A70     		strb	r2, [r3]
 136              	.L7:
  71:main.c        ****     }
  72:main.c        ****     if(side.c.dir != 0xFF && side.d.dir != 0xFF){
 137              		.loc 1 72 0
 138 0050 554B     		ldr	r3, .L18
 139 0052 93F84632 		ldrb	r3, [r3, #582]	@ zero_extendqisi2
 140 0056 FF2B     		cmp	r3, #255
 141 0058 07D0     		beq	.L8
 142              		.loc 1 72 0 is_stmt 0 discriminator 1
 143 005a 534B     		ldr	r3, .L18
 144 005c 93F86933 		ldrb	r3, [r3, #873]	@ zero_extendqisi2
 145 0060 FF2B     		cmp	r3, #255
 146 0062 02D0     		beq	.L8
  73:main.c        ****         Positions = 4;
 147              		.loc 1 73 0 is_stmt 1
 148 0064 514B     		ldr	r3, .L18+4
 149 0066 0422     		movs	r2, #4
 150 0068 1A70     		strb	r2, [r3]
 151              	.L8:
  74:main.c        ****     }
  75:main.c        ****     if(Positions == 1){       
 152              		.loc 1 75 0
 153 006a 504B     		ldr	r3, .L18+4
ARM GAS  C:\Users\Lenovo\AppData\Local\Temp\ccYK011w.s 			page 5


 154 006c 1B78     		ldrb	r3, [r3]	@ zero_extendqisi2
 155 006e 012B     		cmp	r3, #1
 156 0070 09D1     		bne	.L9
  76:main.c        ****         side.a.states[0] = PumpState(side.a.dir);                                    
 157              		.loc 1 76 0
 158 0072 4D4B     		ldr	r3, .L18
 159 0074 1B78     		ldrb	r3, [r3]	@ zero_extendqisi2
 160 0076 1846     		mov	r0, r3
 161 0078 FFF7FEFF 		bl	PumpState
 162 007c 0346     		mov	r3, r0
 163 007e 1A46     		mov	r2, r3
 164 0080 494B     		ldr	r3, .L18
 165 0082 83F84C20 		strb	r2, [r3, #76]
 166              	.L9:
  77:main.c        ****         //ReturnStatus(side.a.dir);        
  78:main.c        ****     }
  79:main.c        ****     if(Positions == 2){
 167              		.loc 1 79 0
 168 0086 494B     		ldr	r3, .L18+4
 169 0088 1B78     		ldrb	r3, [r3]	@ zero_extendqisi2
 170 008a 022B     		cmp	r3, #2
 171 008c 14D1     		bne	.L10
  80:main.c        ****         
  81:main.c        ****         side.a.states[0] = PumpState(side.a.dir);
 172              		.loc 1 81 0
 173 008e 464B     		ldr	r3, .L18
 174 0090 1B78     		ldrb	r3, [r3]	@ zero_extendqisi2
 175 0092 1846     		mov	r0, r3
 176 0094 FFF7FEFF 		bl	PumpState
 177 0098 0346     		mov	r3, r0
 178 009a 1A46     		mov	r2, r3
 179 009c 424B     		ldr	r3, .L18
 180 009e 83F84C20 		strb	r2, [r3, #76]
  82:main.c        ****         side.b.states[0] = PumpState(side.b.dir);
 181              		.loc 1 82 0
 182 00a2 414B     		ldr	r3, .L18
 183 00a4 93F82331 		ldrb	r3, [r3, #291]	@ zero_extendqisi2
 184 00a8 1846     		mov	r0, r3
 185 00aa FFF7FEFF 		bl	PumpState
 186 00ae 0346     		mov	r3, r0
 187 00b0 1A46     		mov	r2, r3
 188 00b2 3D4B     		ldr	r3, .L18
 189 00b4 83F86F21 		strb	r2, [r3, #367]
 190              	.L10:
  83:main.c        ****                     
  84:main.c        ****     }
  85:main.c        ****     if(Positions == 3){
 191              		.loc 1 85 0
 192 00b8 3C4B     		ldr	r3, .L18+4
 193 00ba 1B78     		ldrb	r3, [r3]	@ zero_extendqisi2
 194 00bc 032B     		cmp	r3, #3
 195 00be 2ED1     		bne	.L11
  86:main.c        ****         for(x = 0; x < 5; x++){
 196              		.loc 1 86 0
 197 00c0 0023     		movs	r3, #0
 198 00c2 FB71     		strb	r3, [r7, #7]
 199 00c4 28E0     		b	.L12
ARM GAS  C:\Users\Lenovo\AppData\Local\Temp\ccYK011w.s 			page 6


 200              	.L13:
  87:main.c        ****             side.a.states[x] = PumpState(side.a.dir);
 201              		.loc 1 87 0 discriminator 3
 202 00c6 FC79     		ldrb	r4, [r7, #7]	@ zero_extendqisi2
 203 00c8 374B     		ldr	r3, .L18
 204 00ca 1B78     		ldrb	r3, [r3]	@ zero_extendqisi2
 205 00cc 1846     		mov	r0, r3
 206 00ce FFF7FEFF 		bl	PumpState
 207 00d2 0346     		mov	r3, r0
 208 00d4 1A46     		mov	r2, r3
 209 00d6 344B     		ldr	r3, .L18
 210 00d8 2344     		add	r3, r3, r4
 211 00da 83F84C20 		strb	r2, [r3, #76]
  88:main.c        ****             side.b.states[x] = PumpState(side.b.dir);
 212              		.loc 1 88 0 discriminator 3
 213 00de FC79     		ldrb	r4, [r7, #7]	@ zero_extendqisi2
 214 00e0 314B     		ldr	r3, .L18
 215 00e2 93F82331 		ldrb	r3, [r3, #291]	@ zero_extendqisi2
 216 00e6 1846     		mov	r0, r3
 217 00e8 FFF7FEFF 		bl	PumpState
 218 00ec 0346     		mov	r3, r0
 219 00ee 1A46     		mov	r2, r3
 220 00f0 2D4B     		ldr	r3, .L18
 221 00f2 2344     		add	r3, r3, r4
 222 00f4 83F86F21 		strb	r2, [r3, #367]
  89:main.c        ****             side.c.states[x] = PumpState(side.c.dir);
 223              		.loc 1 89 0 discriminator 3
 224 00f8 FC79     		ldrb	r4, [r7, #7]	@ zero_extendqisi2
 225 00fa 2B4B     		ldr	r3, .L18
 226 00fc 93F84632 		ldrb	r3, [r3, #582]	@ zero_extendqisi2
 227 0100 1846     		mov	r0, r3
 228 0102 FFF7FEFF 		bl	PumpState
 229 0106 0346     		mov	r3, r0
 230 0108 1A46     		mov	r2, r3
 231 010a 274B     		ldr	r3, .L18
 232 010c 2344     		add	r3, r3, r4
 233 010e 83F89222 		strb	r2, [r3, #658]
  86:main.c        ****             side.a.states[x] = PumpState(side.a.dir);
 234              		.loc 1 86 0 discriminator 3
 235 0112 FB79     		ldrb	r3, [r7, #7]	@ zero_extendqisi2
 236 0114 0133     		adds	r3, r3, #1
 237 0116 FB71     		strb	r3, [r7, #7]
 238              	.L12:
  86:main.c        ****             side.a.states[x] = PumpState(side.a.dir);
 239              		.loc 1 86 0 is_stmt 0 discriminator 1
 240 0118 FB79     		ldrb	r3, [r7, #7]	@ zero_extendqisi2
 241 011a 042B     		cmp	r3, #4
 242 011c D3D9     		bls	.L13
 243              	.L11:
  90:main.c        ****         }
  91:main.c        ****         
  92:main.c        ****     }
  93:main.c        ****     if(Positions == 4){
 244              		.loc 1 93 0 is_stmt 1
 245 011e 234B     		ldr	r3, .L18+4
 246 0120 1B78     		ldrb	r3, [r3]	@ zero_extendqisi2
 247 0122 042B     		cmp	r3, #4
ARM GAS  C:\Users\Lenovo\AppData\Local\Temp\ccYK011w.s 			page 7


 248 0124 3BD1     		bne	.L17
  94:main.c        ****         for(x = 0; x < 5; x++){
 249              		.loc 1 94 0
 250 0126 0023     		movs	r3, #0
 251 0128 FB71     		strb	r3, [r7, #7]
 252 012a 35E0     		b	.L15
 253              	.L16:
  95:main.c        ****             side.a.states[x] = PumpState(side.a.dir);
 254              		.loc 1 95 0 discriminator 3
 255 012c FC79     		ldrb	r4, [r7, #7]	@ zero_extendqisi2
 256 012e 1E4B     		ldr	r3, .L18
 257 0130 1B78     		ldrb	r3, [r3]	@ zero_extendqisi2
 258 0132 1846     		mov	r0, r3
 259 0134 FFF7FEFF 		bl	PumpState
 260 0138 0346     		mov	r3, r0
 261 013a 1A46     		mov	r2, r3
 262 013c 1A4B     		ldr	r3, .L18
 263 013e 2344     		add	r3, r3, r4
 264 0140 83F84C20 		strb	r2, [r3, #76]
  96:main.c        ****             side.b.states[x] = PumpState(side.b.dir);
 265              		.loc 1 96 0 discriminator 3
 266 0144 FC79     		ldrb	r4, [r7, #7]	@ zero_extendqisi2
 267 0146 184B     		ldr	r3, .L18
 268 0148 93F82331 		ldrb	r3, [r3, #291]	@ zero_extendqisi2
 269 014c 1846     		mov	r0, r3
 270 014e FFF7FEFF 		bl	PumpState
 271 0152 0346     		mov	r3, r0
 272 0154 1A46     		mov	r2, r3
 273 0156 144B     		ldr	r3, .L18
 274 0158 2344     		add	r3, r3, r4
 275 015a 83F86F21 		strb	r2, [r3, #367]
  97:main.c        ****             side.c.states[x] = PumpState(side.c.dir);
 276              		.loc 1 97 0 discriminator 3
 277 015e FC79     		ldrb	r4, [r7, #7]	@ zero_extendqisi2
 278 0160 114B     		ldr	r3, .L18
 279 0162 93F84632 		ldrb	r3, [r3, #582]	@ zero_extendqisi2
 280 0166 1846     		mov	r0, r3
 281 0168 FFF7FEFF 		bl	PumpState
 282 016c 0346     		mov	r3, r0
 283 016e 1A46     		mov	r2, r3
 284 0170 0D4B     		ldr	r3, .L18
 285 0172 2344     		add	r3, r3, r4
 286 0174 83F89222 		strb	r2, [r3, #658]
  98:main.c        ****             side.d.states[x] = PumpState(side.d.dir);
 287              		.loc 1 98 0 discriminator 3
 288 0178 FC79     		ldrb	r4, [r7, #7]	@ zero_extendqisi2
 289 017a 0B4B     		ldr	r3, .L18
 290 017c 93F86933 		ldrb	r3, [r3, #873]	@ zero_extendqisi2
 291 0180 1846     		mov	r0, r3
 292 0182 FFF7FEFF 		bl	PumpState
 293 0186 0346     		mov	r3, r0
 294 0188 1A46     		mov	r2, r3
 295 018a 074B     		ldr	r3, .L18
 296 018c 2344     		add	r3, r3, r4
 297 018e 83F8B523 		strb	r2, [r3, #949]
  94:main.c        ****             side.a.states[x] = PumpState(side.a.dir);
 298              		.loc 1 94 0 discriminator 3
ARM GAS  C:\Users\Lenovo\AppData\Local\Temp\ccYK011w.s 			page 8


 299 0192 FB79     		ldrb	r3, [r7, #7]	@ zero_extendqisi2
 300 0194 0133     		adds	r3, r3, #1
 301 0196 FB71     		strb	r3, [r7, #7]
 302              	.L15:
  94:main.c        ****             side.a.states[x] = PumpState(side.a.dir);
 303              		.loc 1 94 0 is_stmt 0 discriminator 1
 304 0198 FB79     		ldrb	r3, [r7, #7]	@ zero_extendqisi2
 305 019a 042B     		cmp	r3, #4
 306 019c C6D9     		bls	.L16
 307              	.L17:
  99:main.c        ****         }            
 100:main.c        ****     } 
 101:main.c        **** 
 102:main.c        **** }
 308              		.loc 1 102 0 is_stmt 1
 309 019e 00BF     		nop
 310 01a0 0C37     		adds	r7, r7, #12
 311              		.cfi_def_cfa_offset 12
 312 01a2 BD46     		mov	sp, r7
 313              		.cfi_def_cfa_register 13
 314              		@ sp needed
 315 01a4 90BD     		pop	{r4, r7, pc}
 316              	.L19:
 317 01a6 00BF     		.align	2
 318              	.L18:
 319 01a8 00000000 		.word	side
 320 01ac 00000000 		.word	Positions
 321              		.cfi_endproc
 322              	.LFE64:
 323              		.size	PollingPos, .-PollingPos
 324              		.section	.text.main,"ax",%progbits
 325              		.align	2
 326              		.global	main
 327              		.thumb
 328              		.thumb_func
 329              		.type	main, %function
 330              	main:
 331              	.LFB65:
 103:main.c        **** 
 104:main.c        **** /*******************************************************************************
 105:main.c        **** * Function Name: main
 106:main.c        **** ********************************************************************************
 107:main.c        **** *
 108:main.c        **** *
 109:main.c        **** *******************************************************************************/
 110:main.c        **** 
 111:main.c        **** int main()
 112:main.c        **** {
 332              		.loc 1 112 0
 333              		.cfi_startproc
 334              		@ args = 0, pretend = 0, frame = 8
 335              		@ frame_needed = 1, uses_anonymous_args = 0
 336 0000 90B5     		push	{r4, r7, lr}
 337              		.cfi_def_cfa_offset 12
 338              		.cfi_offset 4, -12
 339              		.cfi_offset 7, -8
 340              		.cfi_offset 14, -4
ARM GAS  C:\Users\Lenovo\AppData\Local\Temp\ccYK011w.s 			page 9


 341 0002 83B0     		sub	sp, sp, #12
 342              		.cfi_def_cfa_offset 24
 343 0004 00AF     		add	r7, sp, #0
 344              		.cfi_def_cfa_register 7
 113:main.c        ****     /* Prepare components */
 114:main.c        ****     uint8 x;
 115:main.c        ****     DecVol = 3;
 345              		.loc 1 115 0
 346 0006 9B4B     		ldr	r3, .L30
 347 0008 0322     		movs	r2, #3
 348 000a 1A70     		strb	r2, [r3]
 116:main.c        ****     PWM_1_Start(); 
 349              		.loc 1 116 0
 350 000c FFF7FEFF 		bl	PWM_1_Start
 117:main.c        ****     CyGlobalIntEnable;
 351              		.loc 1 117 0
 352              		.syntax unified
 353              	@ 117 "main.c" 1
 354 0010 62B6     		CPSIE   i
 355              	@ 0 "" 2
 118:main.c        ****     UART_1_Start();
 356              		.loc 1 118 0
 357              		.thumb
 358              		.syntax unified
 359 0012 FFF7FEFF 		bl	UART_1_Start
 119:main.c        ****     UART_2_Start();
 360              		.loc 1 119 0
 361 0016 FFF7FEFF 		bl	UART_2_Start
 120:main.c        ****     UART_3_Start();
 362              		.loc 1 120 0
 363 001a FFF7FEFF 		bl	UART_3_Start
 121:main.c        ****     Timer_1_Start();    
 364              		.loc 1 121 0
 365 001e FFF7FEFF 		bl	Timer_1_Start
 122:main.c        ****     side.a.ppuNozzle[0][0]=0x01;
 366              		.loc 1 122 0
 367 0022 954B     		ldr	r3, .L30+4
 368 0024 0122     		movs	r2, #1
 369 0026 83F82920 		strb	r2, [r3, #41]
 123:main.c        ****     side.a.ppuNozzle[0][1]=0x04;
 370              		.loc 1 123 0
 371 002a 934B     		ldr	r3, .L30+4
 372 002c 0422     		movs	r2, #4
 373 002e 83F82A20 		strb	r2, [r3, #42]
 124:main.c        ****     side.a.ppuNozzle[0][2]=0x20;
 374              		.loc 1 124 0
 375 0032 914B     		ldr	r3, .L30+4
 376 0034 2022     		movs	r2, #32
 377 0036 83F82B20 		strb	r2, [r3, #43]
 125:main.c        ****     
 126:main.c        ****     side.b.ppuNozzle[0][0]=0x00;
 378              		.loc 1 126 0
 379 003a 8F4B     		ldr	r3, .L30+4
 380 003c 0022     		movs	r2, #0
 381 003e 83F84C21 		strb	r2, [r3, #332]
 127:main.c        ****     side.b.ppuNozzle[0][1]=0x84;
 382              		.loc 1 127 0
ARM GAS  C:\Users\Lenovo\AppData\Local\Temp\ccYK011w.s 			page 10


 383 0042 8D4B     		ldr	r3, .L30+4
 384 0044 8422     		movs	r2, #132
 385 0046 83F84D21 		strb	r2, [r3, #333]
 128:main.c        ****     side.b.ppuNozzle[0][2]=0x55;
 386              		.loc 1 128 0
 387 004a 8B4B     		ldr	r3, .L30+4
 388 004c 5522     		movs	r2, #85
 389 004e 83F84E21 		strb	r2, [r3, #334]
 129:main.c        ****     
 130:main.c        ****     side.a.ProcessedPPU[0][0] = (side.a.ppuNozzle[0][0] >> 4) + 0x30;
 390              		.loc 1 130 0
 391 0052 894B     		ldr	r3, .L30+4
 392 0054 93F82930 		ldrb	r3, [r3, #41]	@ zero_extendqisi2
 393 0058 1B09     		lsrs	r3, r3, #4
 394 005a DBB2     		uxtb	r3, r3
 395 005c 3033     		adds	r3, r3, #48
 396 005e DAB2     		uxtb	r2, r3
 397 0060 854B     		ldr	r3, .L30+4
 398 0062 83F80B21 		strb	r2, [r3, #267]
 131:main.c        ****     side.a.ProcessedPPU[0][1] = (side.a.ppuNozzle[0][0] & 0x0F) + 0x30;
 399              		.loc 1 131 0
 400 0066 844B     		ldr	r3, .L30+4
 401 0068 93F82930 		ldrb	r3, [r3, #41]	@ zero_extendqisi2
 402 006c 03F00F03 		and	r3, r3, #15
 403 0070 DBB2     		uxtb	r3, r3
 404 0072 3033     		adds	r3, r3, #48
 405 0074 DAB2     		uxtb	r2, r3
 406 0076 804B     		ldr	r3, .L30+4
 407 0078 83F80C21 		strb	r2, [r3, #268]
 132:main.c        ****     side.a.ProcessedPPU[0][2] = (side.a.ppuNozzle[0][1] >> 4) + 0x30;
 408              		.loc 1 132 0
 409 007c 7E4B     		ldr	r3, .L30+4
 410 007e 93F82A30 		ldrb	r3, [r3, #42]	@ zero_extendqisi2
 411 0082 1B09     		lsrs	r3, r3, #4
 412 0084 DBB2     		uxtb	r3, r3
 413 0086 3033     		adds	r3, r3, #48
 414 0088 DAB2     		uxtb	r2, r3
 415 008a 7B4B     		ldr	r3, .L30+4
 416 008c 83F80D21 		strb	r2, [r3, #269]
 133:main.c        ****     side.a.ProcessedPPU[0][3] = (side.a.ppuNozzle[0][1] & 0x0F) + 0x30;
 417              		.loc 1 133 0
 418 0090 794B     		ldr	r3, .L30+4
 419 0092 93F82A30 		ldrb	r3, [r3, #42]	@ zero_extendqisi2
 420 0096 03F00F03 		and	r3, r3, #15
 421 009a DBB2     		uxtb	r3, r3
 422 009c 3033     		adds	r3, r3, #48
 423 009e DAB2     		uxtb	r2, r3
 424 00a0 754B     		ldr	r3, .L30+4
 425 00a2 83F80E21 		strb	r2, [r3, #270]
 134:main.c        ****     side.a.ProcessedPPU[0][4] = (side.a.ppuNozzle[0][2] >> 4) + 0x30;
 426              		.loc 1 134 0
 427 00a6 744B     		ldr	r3, .L30+4
 428 00a8 93F82B30 		ldrb	r3, [r3, #43]	@ zero_extendqisi2
 429 00ac 1B09     		lsrs	r3, r3, #4
 430 00ae DBB2     		uxtb	r3, r3
 431 00b0 3033     		adds	r3, r3, #48
 432 00b2 DAB2     		uxtb	r2, r3
ARM GAS  C:\Users\Lenovo\AppData\Local\Temp\ccYK011w.s 			page 11


 433 00b4 704B     		ldr	r3, .L30+4
 434 00b6 83F80F21 		strb	r2, [r3, #271]
 135:main.c        ****     side.a.ProcessedPPU[0][5] = (side.a.ppuNozzle[0][2] & 0x0F) + 0x30;
 435              		.loc 1 135 0
 436 00ba 6F4B     		ldr	r3, .L30+4
 437 00bc 93F82B30 		ldrb	r3, [r3, #43]	@ zero_extendqisi2
 438 00c0 03F00F03 		and	r3, r3, #15
 439 00c4 DBB2     		uxtb	r3, r3
 440 00c6 3033     		adds	r3, r3, #48
 441 00c8 DAB2     		uxtb	r2, r3
 442 00ca 6B4B     		ldr	r3, .L30+4
 443 00cc 83F81021 		strb	r2, [r3, #272]
 136:main.c        ****     
 137:main.c        ****     side.b.ProcessedPPU[0][0] = (side.b.ppuNozzle[0][0] >> 4) + 0x30;
 444              		.loc 1 137 0
 445 00d0 694B     		ldr	r3, .L30+4
 446 00d2 93F84C31 		ldrb	r3, [r3, #332]	@ zero_extendqisi2
 447 00d6 1B09     		lsrs	r3, r3, #4
 448 00d8 DBB2     		uxtb	r3, r3
 449 00da 3033     		adds	r3, r3, #48
 450 00dc DAB2     		uxtb	r2, r3
 451 00de 664B     		ldr	r3, .L30+4
 452 00e0 83F82E22 		strb	r2, [r3, #558]
 138:main.c        ****     side.b.ProcessedPPU[0][1] = (side.b.ppuNozzle[0][0] & 0x0F) + 0x30;
 453              		.loc 1 138 0
 454 00e4 644B     		ldr	r3, .L30+4
 455 00e6 93F84C31 		ldrb	r3, [r3, #332]	@ zero_extendqisi2
 456 00ea 03F00F03 		and	r3, r3, #15
 457 00ee DBB2     		uxtb	r3, r3
 458 00f0 3033     		adds	r3, r3, #48
 459 00f2 DAB2     		uxtb	r2, r3
 460 00f4 604B     		ldr	r3, .L30+4
 461 00f6 83F82F22 		strb	r2, [r3, #559]
 139:main.c        ****     side.b.ProcessedPPU[0][2] = (side.b.ppuNozzle[0][1] >> 4) + 0x30;
 462              		.loc 1 139 0
 463 00fa 5F4B     		ldr	r3, .L30+4
 464 00fc 93F84D31 		ldrb	r3, [r3, #333]	@ zero_extendqisi2
 465 0100 1B09     		lsrs	r3, r3, #4
 466 0102 DBB2     		uxtb	r3, r3
 467 0104 3033     		adds	r3, r3, #48
 468 0106 DAB2     		uxtb	r2, r3
 469 0108 5B4B     		ldr	r3, .L30+4
 470 010a 83F83022 		strb	r2, [r3, #560]
 140:main.c        ****     side.b.ProcessedPPU[0][3] = (side.b.ppuNozzle[0][1] & 0x0F) + 0x30;
 471              		.loc 1 140 0
 472 010e 5A4B     		ldr	r3, .L30+4
 473 0110 93F84D31 		ldrb	r3, [r3, #333]	@ zero_extendqisi2
 474 0114 03F00F03 		and	r3, r3, #15
 475 0118 DBB2     		uxtb	r3, r3
 476 011a 3033     		adds	r3, r3, #48
 477 011c DAB2     		uxtb	r2, r3
 478 011e 564B     		ldr	r3, .L30+4
 479 0120 83F83122 		strb	r2, [r3, #561]
 141:main.c        ****     side.b.ProcessedPPU[0][4] = (side.b.ppuNozzle[0][2] >> 4) + 0x30;
 480              		.loc 1 141 0
 481 0124 544B     		ldr	r3, .L30+4
 482 0126 93F84E31 		ldrb	r3, [r3, #334]	@ zero_extendqisi2
ARM GAS  C:\Users\Lenovo\AppData\Local\Temp\ccYK011w.s 			page 12


 483 012a 1B09     		lsrs	r3, r3, #4
 484 012c DBB2     		uxtb	r3, r3
 485 012e 3033     		adds	r3, r3, #48
 486 0130 DAB2     		uxtb	r2, r3
 487 0132 514B     		ldr	r3, .L30+4
 488 0134 83F83222 		strb	r2, [r3, #562]
 142:main.c        ****     side.b.ProcessedPPU[0][5] = (side.b.ppuNozzle[0][2] & 0x0F) + 0x30;
 489              		.loc 1 142 0
 490 0138 4F4B     		ldr	r3, .L30+4
 491 013a 93F84E31 		ldrb	r3, [r3, #334]	@ zero_extendqisi2
 492 013e 03F00F03 		and	r3, r3, #15
 493 0142 DBB2     		uxtb	r3, r3
 494 0144 3033     		adds	r3, r3, #48
 495 0146 DAB2     		uxtb	r2, r3
 496 0148 4B4B     		ldr	r3, .L30+4
 497 014a 83F83322 		strb	r2, [r3, #563]
 498              	.LBB2:
 143:main.c        ****     
 144:main.c        ****     //while(side.a.dir == 0xFF){
 145:main.c        ****         for(uint8 y = 0; y < 16; y ++){
 499              		.loc 1 145 0
 500 014e 0023     		movs	r3, #0
 501 0150 FB71     		strb	r3, [r7, #7]
 502 0152 0BE0     		b	.L21
 503              	.L22:
 146:main.c        ****             PumpAddress[y] = GetAddress(y); //Posiciones activas      
 504              		.loc 1 146 0 discriminator 3
 505 0154 FC79     		ldrb	r4, [r7, #7]	@ zero_extendqisi2
 506 0156 FB79     		ldrb	r3, [r7, #7]	@ zero_extendqisi2
 507 0158 1846     		mov	r0, r3
 508 015a FFF7FEFF 		bl	GetAddress
 509 015e 0346     		mov	r3, r0
 510 0160 1A46     		mov	r2, r3
 511 0162 464B     		ldr	r3, .L30+8
 512 0164 1A55     		strb	r2, [r3, r4]
 145:main.c        ****             PumpAddress[y] = GetAddress(y); //Posiciones activas      
 513              		.loc 1 145 0 discriminator 3
 514 0166 FB79     		ldrb	r3, [r7, #7]	@ zero_extendqisi2
 515 0168 0133     		adds	r3, r3, #1
 516 016a FB71     		strb	r3, [r7, #7]
 517              	.L21:
 145:main.c        ****             PumpAddress[y] = GetAddress(y); //Posiciones activas      
 518              		.loc 1 145 0 is_stmt 0 discriminator 1
 519 016c FB79     		ldrb	r3, [r7, #7]	@ zero_extendqisi2
 520 016e 0F2B     		cmp	r3, #15
 521 0170 F0D9     		bls	.L22
 522              	.LBE2:
 147:main.c        ****         } 
 148:main.c        ****     //}
 149:main.c        ****     
 150:main.c        ****     side.a.dir = PumpAddress[1];
 523              		.loc 1 150 0 is_stmt 1
 524 0172 424B     		ldr	r3, .L30+8
 525 0174 5A78     		ldrb	r2, [r3, #1]	@ zero_extendqisi2
 526 0176 404B     		ldr	r3, .L30+4
 527 0178 1A70     		strb	r2, [r3]
 151:main.c        ****     side.b.dir = PumpAddress[2];
ARM GAS  C:\Users\Lenovo\AppData\Local\Temp\ccYK011w.s 			page 13


 528              		.loc 1 151 0
 529 017a 404B     		ldr	r3, .L30+8
 530 017c 9A78     		ldrb	r2, [r3, #2]	@ zero_extendqisi2
 531 017e 3E4B     		ldr	r3, .L30+4
 532 0180 83F82321 		strb	r2, [r3, #291]
 152:main.c        ****     side.c.dir = PumpAddress[3];
 533              		.loc 1 152 0
 534 0184 3D4B     		ldr	r3, .L30+8
 535 0186 DA78     		ldrb	r2, [r3, #3]	@ zero_extendqisi2
 536 0188 3B4B     		ldr	r3, .L30+4
 537 018a 83F84622 		strb	r2, [r3, #582]
 153:main.c        ****     side.d.dir = PumpAddress[4]; 
 538              		.loc 1 153 0
 539 018e 3B4B     		ldr	r3, .L30+8
 540 0190 1A79     		ldrb	r2, [r3, #4]	@ zero_extendqisi2
 541 0192 394B     		ldr	r3, .L30+4
 542 0194 83F86923 		strb	r2, [r3, #873]
 154:main.c        ****     side.a.dir = 0x00;
 543              		.loc 1 154 0
 544 0198 374B     		ldr	r3, .L30+4
 545 019a 0022     		movs	r2, #0
 546 019c 1A70     		strb	r2, [r3]
 155:main.c        ****     side.b.dir = 0x01;
 547              		.loc 1 155 0
 548 019e 364B     		ldr	r3, .L30+4
 549 01a0 0122     		movs	r2, #1
 550 01a2 83F82321 		strb	r2, [r3, #291]
 156:main.c        ****     TotalRequestType = 0; 
 551              		.loc 1 156 0
 552 01a6 364B     		ldr	r3, .L30+12
 553 01a8 0022     		movs	r2, #0
 554 01aa 1A70     		strb	r2, [r3]
 157:main.c        ****     Receipt = 0;        
 555              		.loc 1 157 0
 556 01ac 354B     		ldr	r3, .L30+16
 557 01ae 0022     		movs	r2, #0
 558 01b0 1A70     		strb	r2, [r3]
 559              	.L29:
 158:main.c        ****     for (;;)
 159:main.c        ****     {
 160:main.c        ****         if(EnablePin_1_Read() == 1u){
 560              		.loc 1 160 0
 561 01b2 FFF7FEFF 		bl	EnablePin_1_Read
 562 01b6 0346     		mov	r3, r0
 563 01b8 012B     		cmp	r3, #1
 564 01ba 0DD1     		bne	.L23
 161:main.c        ****             PriceUpdate(side.b.dir,side.b.ppuNozzle[0]);
 565              		.loc 1 161 0
 566 01bc 2E4B     		ldr	r3, .L30+4
 567 01be 93F82331 		ldrb	r3, [r3, #291]	@ zero_extendqisi2
 568 01c2 3149     		ldr	r1, .L30+20
 569 01c4 1846     		mov	r0, r3
 570 01c6 FFF7FEFF 		bl	PriceUpdate
 162:main.c        ****             Authorize(side.b.dir);            
 571              		.loc 1 162 0
 572 01ca 2B4B     		ldr	r3, .L30+4
 573 01cc 93F82331 		ldrb	r3, [r3, #291]	@ zero_extendqisi2
ARM GAS  C:\Users\Lenovo\AppData\Local\Temp\ccYK011w.s 			page 14


 574 01d0 1846     		mov	r0, r3
 575 01d2 FFF7FEFF 		bl	Authorize
 576 01d6 01E0     		b	.L24
 577              	.L23:
 163:main.c        ****         }else{
 164:main.c        ****             PollingPos();                       
 578              		.loc 1 164 0
 579 01d8 FFF7FEFF 		bl	PollingPos
 580              	.L24:
 165:main.c        ****         }                
 166:main.c        ****         if(Kill_Switch_Read() == 0u){
 581              		.loc 1 166 0
 582 01dc FFF7FEFF 		bl	Kill_Switch_Read
 583 01e0 0346     		mov	r3, r0
 584 01e2 002B     		cmp	r3, #0
 585 01e4 E5D1     		bne	.L29
 167:main.c        ****             //PriceUpdate(0,side.a.ppuNozzle[0]);
 168:main.c        ****             //ReturnStatus(0);
 169:main.c        ****             PumpState(side.b.dir);            
 586              		.loc 1 169 0
 587 01e6 244B     		ldr	r3, .L30+4
 588 01e8 93F82331 		ldrb	r3, [r3, #291]	@ zero_extendqisi2
 589 01ec 1846     		mov	r0, r3
 590 01ee FFF7FEFF 		bl	PumpState
 170:main.c        ****             TotalRequest(side.b.dir, TotalRequestType, 1); //dir 0, volume, nozzle 1               
 591              		.loc 1 170 0
 592 01f2 214B     		ldr	r3, .L30+4
 593 01f4 93F82301 		ldrb	r0, [r3, #291]	@ zero_extendqisi2
 594 01f8 214B     		ldr	r3, .L30+12
 595 01fa 1B78     		ldrb	r3, [r3]	@ zero_extendqisi2
 596 01fc 0122     		movs	r2, #1
 597 01fe 1946     		mov	r1, r3
 598 0200 FFF7FEFF 		bl	TotalRequest
 171:main.c        ****             PumpState(side.a.dir);            
 599              		.loc 1 171 0
 600 0204 1C4B     		ldr	r3, .L30+4
 601 0206 1B78     		ldrb	r3, [r3]	@ zero_extendqisi2
 602 0208 1846     		mov	r0, r3
 603 020a FFF7FEFF 		bl	PumpState
 172:main.c        ****             if(Receipt == 1){
 604              		.loc 1 172 0
 605 020e 1D4B     		ldr	r3, .L30+16
 606 0210 1B78     		ldrb	r3, [r3]	@ zero_extendqisi2
 607 0212 012B     		cmp	r3, #1
 608 0214 07D1     		bne	.L26
 173:main.c        ****                 Receipt = 0;
 609              		.loc 1 173 0
 610 0216 1B4B     		ldr	r3, .L30+16
 611 0218 0022     		movs	r2, #0
 612 021a 1A70     		strb	r2, [r3]
 174:main.c        ****                 PrintReceipt(side.a.dir);
 613              		.loc 1 174 0
 614 021c 164B     		ldr	r3, .L30+4
 615 021e 1B78     		ldrb	r3, [r3]	@ zero_extendqisi2
 616 0220 1846     		mov	r0, r3
 617 0222 FFF7FEFF 		bl	PrintReceipt
 618              	.L26:
ARM GAS  C:\Users\Lenovo\AppData\Local\Temp\ccYK011w.s 			page 15


 175:main.c        ****             }
 176:main.c        ****             if(Receipt == 2){
 619              		.loc 1 176 0
 620 0226 174B     		ldr	r3, .L30+16
 621 0228 1B78     		ldrb	r3, [r3]	@ zero_extendqisi2
 622 022a 022B     		cmp	r3, #2
 623 022c 08D1     		bne	.L27
 177:main.c        ****                 Receipt = 0;
 624              		.loc 1 177 0
 625 022e 154B     		ldr	r3, .L30+16
 626 0230 0022     		movs	r2, #0
 627 0232 1A70     		strb	r2, [r3]
 178:main.c        ****                 PrintReceipt(side.b.dir);
 628              		.loc 1 178 0
 629 0234 104B     		ldr	r3, .L30+4
 630 0236 93F82331 		ldrb	r3, [r3, #291]	@ zero_extendqisi2
 631 023a 1846     		mov	r0, r3
 632 023c FFF7FEFF 		bl	PrintReceipt
 633              	.L27:
 179:main.c        ****             }
 180:main.c        ****             if(Receipt == 4){
 634              		.loc 1 180 0
 635 0240 104B     		ldr	r3, .L30+16
 636 0242 1B78     		ldrb	r3, [r3]	@ zero_extendqisi2
 637 0244 042B     		cmp	r3, #4
 638 0246 07D1     		bne	.L28
 181:main.c        ****                 Receipt = 0;
 639              		.loc 1 181 0
 640 0248 0E4B     		ldr	r3, .L30+16
 641 024a 0022     		movs	r2, #0
 642 024c 1A70     		strb	r2, [r3]
 182:main.c        ****                 PrintShift(side.a.dir);
 643              		.loc 1 182 0
 644 024e 0A4B     		ldr	r3, .L30+4
 645 0250 1B78     		ldrb	r3, [r3]	@ zero_extendqisi2
 646 0252 1846     		mov	r0, r3
 647 0254 FFF7FEFF 		bl	PrintShift
 648              	.L28:
 183:main.c        ****             }
 184:main.c        ****             if(Receipt == 5){
 649              		.loc 1 184 0
 650 0258 0A4B     		ldr	r3, .L30+16
 651 025a 1B78     		ldrb	r3, [r3]	@ zero_extendqisi2
 652 025c 052B     		cmp	r3, #5
 653 025e A8D1     		bne	.L29
 185:main.c        ****                 Receipt = 0;
 654              		.loc 1 185 0
 655 0260 084B     		ldr	r3, .L30+16
 656 0262 0022     		movs	r2, #0
 657 0264 1A70     		strb	r2, [r3]
 186:main.c        ****                 PrintShift(side.b.dir);
 658              		.loc 1 186 0
 659 0266 044B     		ldr	r3, .L30+4
 660 0268 93F82331 		ldrb	r3, [r3, #291]	@ zero_extendqisi2
 661 026c 1846     		mov	r0, r3
 662 026e FFF7FEFF 		bl	PrintShift
 187:main.c        ****             }
ARM GAS  C:\Users\Lenovo\AppData\Local\Temp\ccYK011w.s 			page 16


 188:main.c        ****         }        
 189:main.c        ****     }
 663              		.loc 1 189 0
 664 0272 9EE7     		b	.L29
 665              	.L31:
 666              		.align	2
 667              	.L30:
 668 0274 00000000 		.word	DecVol
 669 0278 00000000 		.word	side
 670 027c 00000000 		.word	PumpAddress
 671 0280 00000000 		.word	TotalRequestType
 672 0284 00000000 		.word	Receipt
 673 0288 4C010000 		.word	side+332
 674              		.cfi_endproc
 675              	.LFE65:
 676              		.size	main, .-main
 677              		.text
 678              	.Letext0:
 679              		.file 2 "c:\\program files (x86)\\cypress\\psoc creator\\4.2\\psoc creator\\import\\gnu\\arm\\5.4.
 680              		.file 3 "c:\\program files (x86)\\cypress\\psoc creator\\4.2\\psoc creator\\import\\gnu\\arm\\5.4.
 681              		.file 4 "Generated_Source\\PSoC5/cytypes.h"
 682              		.file 5 "./GVar.h"
 683              		.file 6 "Generated_Source\\PSoC5/core_cm3.h"
 684              		.section	.debug_info,"",%progbits
 685              	.Ldebug_info0:
 686 0000 CD030000 		.4byte	0x3cd
 687 0004 0400     		.2byte	0x4
 688 0006 00000000 		.4byte	.Ldebug_abbrev0
 689 000a 04       		.byte	0x4
 690 000b 01       		.uleb128 0x1
 691 000c 00000000 		.4byte	.LASF48
 692 0010 0C       		.byte	0xc
 693 0011 25020000 		.4byte	.LASF49
 694 0015 D9010000 		.4byte	.LASF50
 695 0019 00000000 		.4byte	.Ldebug_ranges0+0
 696 001d 00000000 		.4byte	0
 697 0021 00000000 		.4byte	.Ldebug_line0
 698 0025 02       		.uleb128 0x2
 699 0026 01       		.byte	0x1
 700 0027 06       		.byte	0x6
 701 0028 E3000000 		.4byte	.LASF0
 702 002c 02       		.uleb128 0x2
 703 002d 01       		.byte	0x1
 704 002e 08       		.byte	0x8
 705 002f 30010000 		.4byte	.LASF1
 706 0033 02       		.uleb128 0x2
 707 0034 02       		.byte	0x2
 708 0035 05       		.byte	0x5
 709 0036 58020000 		.4byte	.LASF2
 710 003a 02       		.uleb128 0x2
 711 003b 02       		.byte	0x2
 712 003c 07       		.byte	0x7
 713 003d 1D010000 		.4byte	.LASF3
 714 0041 03       		.uleb128 0x3
 715 0042 A3000000 		.4byte	.LASF9
 716 0046 02       		.byte	0x2
 717 0047 3F       		.byte	0x3f
ARM GAS  C:\Users\Lenovo\AppData\Local\Temp\ccYK011w.s 			page 17


 718 0048 4C000000 		.4byte	0x4c
 719 004c 02       		.uleb128 0x2
 720 004d 04       		.byte	0x4
 721 004e 05       		.byte	0x5
 722 004f 71020000 		.4byte	.LASF4
 723 0053 02       		.uleb128 0x2
 724 0054 04       		.byte	0x4
 725 0055 07       		.byte	0x7
 726 0056 0B010000 		.4byte	.LASF5
 727 005a 02       		.uleb128 0x2
 728 005b 08       		.byte	0x8
 729 005c 05       		.byte	0x5
 730 005d 0E020000 		.4byte	.LASF6
 731 0061 02       		.uleb128 0x2
 732 0062 08       		.byte	0x8
 733 0063 07       		.byte	0x7
 734 0064 A1010000 		.4byte	.LASF7
 735 0068 04       		.uleb128 0x4
 736 0069 04       		.byte	0x4
 737 006a 05       		.byte	0x5
 738 006b 696E7400 		.ascii	"int\000"
 739 006f 02       		.uleb128 0x2
 740 0070 04       		.byte	0x4
 741 0071 07       		.byte	0x7
 742 0072 8D010000 		.4byte	.LASF8
 743 0076 03       		.uleb128 0x3
 744 0077 C0010000 		.4byte	.LASF10
 745 007b 03       		.byte	0x3
 746 007c 2C       		.byte	0x2c
 747 007d 41000000 		.4byte	0x41
 748 0081 05       		.uleb128 0x5
 749 0082 62020000 		.4byte	.LASF11
 750 0086 04       		.byte	0x4
 751 0087 E401     		.2byte	0x1e4
 752 0089 2C000000 		.4byte	0x2c
 753 008d 05       		.uleb128 0x5
 754 008e 57010000 		.4byte	.LASF12
 755 0092 04       		.byte	0x4
 756 0093 E501     		.2byte	0x1e5
 757 0095 3A000000 		.4byte	0x3a
 758 0099 02       		.uleb128 0x2
 759 009a 04       		.byte	0x4
 760 009b 04       		.byte	0x4
 761 009c D5000000 		.4byte	.LASF13
 762 00a0 02       		.uleb128 0x2
 763 00a1 08       		.byte	0x8
 764 00a2 04       		.byte	0x4
 765 00a3 3E010000 		.4byte	.LASF14
 766 00a7 02       		.uleb128 0x2
 767 00a8 01       		.byte	0x1
 768 00a9 08       		.byte	0x8
 769 00aa 2C020000 		.4byte	.LASF15
 770 00ae 02       		.uleb128 0x2
 771 00af 08       		.byte	0x8
 772 00b0 04       		.byte	0x4
 773 00b1 81020000 		.4byte	.LASF16
 774 00b5 02       		.uleb128 0x2
ARM GAS  C:\Users\Lenovo\AppData\Local\Temp\ccYK011w.s 			page 18


 775 00b6 04       		.byte	0x4
 776 00b7 07       		.byte	0x7
 777 00b8 1C020000 		.4byte	.LASF17
 778 00bc 06       		.uleb128 0x6
 779 00bd 68020000 		.4byte	.LASF30
 780 00c1 2301     		.2byte	0x123
 781 00c3 05       		.byte	0x5
 782 00c4 1C       		.byte	0x1c
 783 00c5 68010000 		.4byte	0x168
 784 00c9 07       		.uleb128 0x7
 785 00ca 64697200 		.ascii	"dir\000"
 786 00ce 05       		.byte	0x5
 787 00cf 1D       		.byte	0x1d
 788 00d0 81000000 		.4byte	0x81
 789 00d4 00       		.byte	0
 790 00d5 08       		.uleb128 0x8
 791 00d6 4B020000 		.4byte	.LASF18
 792 00da 05       		.byte	0x5
 793 00db 1E       		.byte	0x1e
 794 00dc 68010000 		.4byte	0x168
 795 00e0 01       		.byte	0x1
 796 00e1 08       		.uleb128 0x8
 797 00e2 8E000000 		.4byte	.LASF19
 798 00e6 05       		.byte	0x5
 799 00e7 1F       		.byte	0x1f
 800 00e8 84010000 		.4byte	0x184
 801 00ec 29       		.byte	0x29
 802 00ed 08       		.uleb128 0x8
 803 00ee BC000000 		.4byte	.LASF20
 804 00f2 05       		.byte	0x5
 805 00f3 20       		.byte	0x20
 806 00f4 9A010000 		.4byte	0x19a
 807 00f8 35       		.byte	0x35
 808 00f9 08       		.uleb128 0x8
 809 00fa 98000000 		.4byte	.LASF21
 810 00fe 05       		.byte	0x5
 811 00ff 21       		.byte	0x21
 812 0100 9A010000 		.4byte	0x19a
 813 0104 39       		.byte	0x39
 814 0105 08       		.uleb128 0x8
 815 0106 DB000000 		.4byte	.LASF22
 816 010a 05       		.byte	0x5
 817 010b 22       		.byte	0x22
 818 010c AA010000 		.4byte	0x1aa
 819 0110 3D       		.byte	0x3d
 820 0111 08       		.uleb128 0x8
 821 0112 D7020000 		.4byte	.LASF23
 822 0116 05       		.byte	0x5
 823 0117 23       		.byte	0x23
 824 0118 81000000 		.4byte	0x81
 825 011c 4B       		.byte	0x4b
 826 011d 08       		.uleb128 0x8
 827 011e 44020000 		.4byte	.LASF24
 828 0122 05       		.byte	0x5
 829 0123 24       		.byte	0x24
 830 0124 BA010000 		.4byte	0x1ba
 831 0128 4C       		.byte	0x4c
ARM GAS  C:\Users\Lenovo\AppData\Local\Temp\ccYK011w.s 			page 19


 832 0129 08       		.uleb128 0x8
 833 012a C8010000 		.4byte	.LASF25
 834 012e 05       		.byte	0x5
 835 012f 25       		.byte	0x25
 836 0130 CA010000 		.4byte	0x1ca
 837 0134 51       		.byte	0x51
 838 0135 08       		.uleb128 0x8
 839 0136 69010000 		.4byte	.LASF26
 840 013a 05       		.byte	0x5
 841 013b 26       		.byte	0x26
 842 013c DA010000 		.4byte	0x1da
 843 0140 83       		.byte	0x83
 844 0141 08       		.uleb128 0x8
 845 0142 31020000 		.4byte	.LASF27
 846 0146 05       		.byte	0x5
 847 0147 27       		.byte	0x27
 848 0148 F6010000 		.4byte	0x1f6
 849 014c FB       		.byte	0xfb
 850 014d 09       		.uleb128 0x9
 851 014e 8D020000 		.4byte	.LASF28
 852 0152 05       		.byte	0x5
 853 0153 28       		.byte	0x28
 854 0154 F6010000 		.4byte	0x1f6
 855 0158 0301     		.2byte	0x103
 856 015a 09       		.uleb128 0x9
 857 015b F6000000 		.4byte	.LASF29
 858 015f 05       		.byte	0x5
 859 0160 29       		.byte	0x29
 860 0161 06020000 		.4byte	0x206
 861 0165 0B01     		.2byte	0x10b
 862 0167 00       		.byte	0
 863 0168 0A       		.uleb128 0xa
 864 0169 81000000 		.4byte	0x81
 865 016d 84010000 		.4byte	0x184
 866 0171 0B       		.uleb128 0xb
 867 0172 B5000000 		.4byte	0xb5
 868 0176 03       		.byte	0x3
 869 0177 0B       		.uleb128 0xb
 870 0178 B5000000 		.4byte	0xb5
 871 017c 01       		.byte	0x1
 872 017d 0B       		.uleb128 0xb
 873 017e B5000000 		.4byte	0xb5
 874 0182 04       		.byte	0x4
 875 0183 00       		.byte	0
 876 0184 0A       		.uleb128 0xa
 877 0185 81000000 		.4byte	0x81
 878 0189 9A010000 		.4byte	0x19a
 879 018d 0B       		.uleb128 0xb
 880 018e B5000000 		.4byte	0xb5
 881 0192 03       		.byte	0x3
 882 0193 0B       		.uleb128 0xb
 883 0194 B5000000 		.4byte	0xb5
 884 0198 02       		.byte	0x2
 885 0199 00       		.byte	0
 886 019a 0A       		.uleb128 0xa
 887 019b 81000000 		.4byte	0x81
 888 019f AA010000 		.4byte	0x1aa
ARM GAS  C:\Users\Lenovo\AppData\Local\Temp\ccYK011w.s 			page 20


 889 01a3 0B       		.uleb128 0xb
 890 01a4 B5000000 		.4byte	0xb5
 891 01a8 03       		.byte	0x3
 892 01a9 00       		.byte	0
 893 01aa 0A       		.uleb128 0xa
 894 01ab 81000000 		.4byte	0x81
 895 01af BA010000 		.4byte	0x1ba
 896 01b3 0B       		.uleb128 0xb
 897 01b4 B5000000 		.4byte	0xb5
 898 01b8 0D       		.byte	0xd
 899 01b9 00       		.byte	0
 900 01ba 0A       		.uleb128 0xa
 901 01bb 81000000 		.4byte	0x81
 902 01bf CA010000 		.4byte	0x1ca
 903 01c3 0B       		.uleb128 0xb
 904 01c4 B5000000 		.4byte	0xb5
 905 01c8 04       		.byte	0x4
 906 01c9 00       		.byte	0
 907 01ca 0A       		.uleb128 0xa
 908 01cb 81000000 		.4byte	0x81
 909 01cf DA010000 		.4byte	0x1da
 910 01d3 0B       		.uleb128 0xb
 911 01d4 B5000000 		.4byte	0xb5
 912 01d8 31       		.byte	0x31
 913 01d9 00       		.byte	0
 914 01da 0A       		.uleb128 0xa
 915 01db 81000000 		.4byte	0x81
 916 01df F6010000 		.4byte	0x1f6
 917 01e3 0B       		.uleb128 0xb
 918 01e4 B5000000 		.4byte	0xb5
 919 01e8 03       		.byte	0x3
 920 01e9 0B       		.uleb128 0xb
 921 01ea B5000000 		.4byte	0xb5
 922 01ee 02       		.byte	0x2
 923 01ef 0B       		.uleb128 0xb
 924 01f0 B5000000 		.4byte	0xb5
 925 01f4 09       		.byte	0x9
 926 01f5 00       		.byte	0
 927 01f6 0A       		.uleb128 0xa
 928 01f7 81000000 		.4byte	0x81
 929 01fb 06020000 		.4byte	0x206
 930 01ff 0B       		.uleb128 0xb
 931 0200 B5000000 		.4byte	0xb5
 932 0204 07       		.byte	0x7
 933 0205 00       		.byte	0
 934 0206 0A       		.uleb128 0xa
 935 0207 81000000 		.4byte	0x81
 936 020b 1C020000 		.4byte	0x21c
 937 020f 0B       		.uleb128 0xb
 938 0210 B5000000 		.4byte	0xb5
 939 0214 03       		.byte	0x3
 940 0215 0B       		.uleb128 0xb
 941 0216 B5000000 		.4byte	0xb5
 942 021a 05       		.byte	0x5
 943 021b 00       		.byte	0
 944 021c 06       		.uleb128 0x6
 945 021d B7000000 		.4byte	.LASF31
ARM GAS  C:\Users\Lenovo\AppData\Local\Temp\ccYK011w.s 			page 21


 946 0221 8C04     		.2byte	0x48c
 947 0223 05       		.byte	0x5
 948 0224 2D       		.byte	0x2d
 949 0225 55020000 		.4byte	0x255
 950 0229 07       		.uleb128 0x7
 951 022a 6100     		.ascii	"a\000"
 952 022c 05       		.byte	0x5
 953 022d 2E       		.byte	0x2e
 954 022e BC000000 		.4byte	0xbc
 955 0232 00       		.byte	0
 956 0233 0C       		.uleb128 0xc
 957 0234 6200     		.ascii	"b\000"
 958 0236 05       		.byte	0x5
 959 0237 2F       		.byte	0x2f
 960 0238 BC000000 		.4byte	0xbc
 961 023c 2301     		.2byte	0x123
 962 023e 0C       		.uleb128 0xc
 963 023f 6300     		.ascii	"c\000"
 964 0241 05       		.byte	0x5
 965 0242 30       		.byte	0x30
 966 0243 BC000000 		.4byte	0xbc
 967 0247 4602     		.2byte	0x246
 968 0249 0C       		.uleb128 0xc
 969 024a 6400     		.ascii	"d\000"
 970 024c 05       		.byte	0x5
 971 024d 31       		.byte	0x31
 972 024e BC000000 		.4byte	0xbc
 973 0252 6903     		.2byte	0x369
 974 0254 00       		.byte	0
 975 0255 0D       		.uleb128 0xd
 976 0256 B8010000 		.4byte	.LASF51
 977 025a 01       		.byte	0x1
 978 025b 37       		.byte	0x37
 979 025c 00000000 		.4byte	.LFB63
 980 0260 1C000000 		.4byte	.LFE63-.LFB63
 981 0264 01       		.uleb128 0x1
 982 0265 9C       		.byte	0x9c
 983 0266 0E       		.uleb128 0xe
 984 0267 5E010000 		.4byte	.LASF32
 985 026b 01       		.byte	0x1
 986 026c 3D       		.byte	0x3d
 987 026d 00000000 		.4byte	.LFB64
 988 0271 B0010000 		.4byte	.LFE64-.LFB64
 989 0275 01       		.uleb128 0x1
 990 0276 9C       		.byte	0x9c
 991 0277 88020000 		.4byte	0x288
 992 027b 0F       		.uleb128 0xf
 993 027c 7800     		.ascii	"x\000"
 994 027e 01       		.byte	0x1
 995 027f 3E       		.byte	0x3e
 996 0280 81000000 		.4byte	0x81
 997 0284 02       		.uleb128 0x2
 998 0285 91       		.byte	0x91
 999 0286 6F       		.sleb128 -17
 1000 0287 00       		.byte	0
 1001 0288 10       		.uleb128 0x10
 1002 0289 45010000 		.4byte	.LASF33
ARM GAS  C:\Users\Lenovo\AppData\Local\Temp\ccYK011w.s 			page 22


 1003 028d 01       		.byte	0x1
 1004 028e 6F       		.byte	0x6f
 1005 028f 68000000 		.4byte	0x68
 1006 0293 00000000 		.4byte	.LFB65
 1007 0297 8C020000 		.4byte	.LFE65-.LFB65
 1008 029b 01       		.uleb128 0x1
 1009 029c 9C       		.byte	0x9c
 1010 029d C1020000 		.4byte	0x2c1
 1011 02a1 11       		.uleb128 0x11
 1012 02a2 7800     		.ascii	"x\000"
 1013 02a4 01       		.byte	0x1
 1014 02a5 72       		.byte	0x72
 1015 02a6 81000000 		.4byte	0x81
 1016 02aa 12       		.uleb128 0x12
 1017 02ab 4E010000 		.4byte	.LBB2
 1018 02af 24000000 		.4byte	.LBE2-.LBB2
 1019 02b3 0F       		.uleb128 0xf
 1020 02b4 7900     		.ascii	"y\000"
 1021 02b6 01       		.byte	0x1
 1022 02b7 91       		.byte	0x91
 1023 02b8 81000000 		.4byte	0x81
 1024 02bc 02       		.uleb128 0x2
 1025 02bd 91       		.byte	0x91
 1026 02be 6F       		.sleb128 -17
 1027 02bf 00       		.byte	0
 1028 02c0 00       		.byte	0
 1029 02c1 13       		.uleb128 0x13
 1030 02c2 79010000 		.4byte	.LASF34
 1031 02c6 06       		.byte	0x6
 1032 02c7 1207     		.2byte	0x712
 1033 02c9 CD020000 		.4byte	0x2cd
 1034 02cd 14       		.uleb128 0x14
 1035 02ce 76000000 		.4byte	0x76
 1036 02d2 15       		.uleb128 0x15
 1037 02d3 CB020000 		.4byte	.LASF35
 1038 02d7 05       		.byte	0x5
 1039 02d8 10       		.byte	0x10
 1040 02d9 8D000000 		.4byte	0x8d
 1041 02dd 05       		.uleb128 0x5
 1042 02de 03       		.byte	0x3
 1043 02df 00000000 		.4byte	PollCounter
 1044 02e3 15       		.uleb128 0x15
 1045 02e4 BE020000 		.4byte	.LASF36
 1046 02e8 05       		.byte	0x5
 1047 02e9 11       		.byte	0x11
 1048 02ea 81000000 		.4byte	0x81
 1049 02ee 05       		.uleb128 0x5
 1050 02ef 03       		.byte	0x3
 1051 02f0 00000000 		.4byte	CurrentState
 1052 02f4 15       		.uleb128 0x15
 1053 02f5 03010000 		.4byte	.LASF37
 1054 02f9 05       		.byte	0x5
 1055 02fa 12       		.byte	0x12
 1056 02fb 81000000 		.4byte	0x81
 1057 02ff 05       		.uleb128 0x5
 1058 0300 03       		.byte	0x3
 1059 0301 00000000 		.4byte	Receipt
ARM GAS  C:\Users\Lenovo\AppData\Local\Temp\ccYK011w.s 			page 23


 1060 0305 15       		.uleb128 0x15
 1061 0306 D4010000 		.4byte	.LASF38
 1062 030a 05       		.byte	0x5
 1063 030b 34       		.byte	0x34
 1064 030c 1C020000 		.4byte	0x21c
 1065 0310 05       		.uleb128 0x5
 1066 0311 03       		.byte	0x3
 1067 0312 00000000 		.4byte	side
 1068 0316 15       		.uleb128 0x15
 1069 0317 C6000000 		.4byte	.LASF39
 1070 031b 05       		.byte	0x5
 1071 031c 3D       		.byte	0x3d
 1072 031d CA010000 		.4byte	0x1ca
 1073 0321 05       		.uleb128 0x5
 1074 0322 03       		.byte	0x3
 1075 0323 00000000 		.4byte	MepsanResponse
 1076 0327 15       		.uleb128 0x15
 1077 0328 4A010000 		.4byte	.LASF40
 1078 032c 05       		.byte	0x5
 1079 032d 3E       		.byte	0x3e
 1080 032e CA010000 		.4byte	0x1ca
 1081 0332 05       		.uleb128 0x5
 1082 0333 03       		.byte	0x3
 1083 0334 00000000 		.4byte	MepsanSendTo
 1084 0338 0A       		.uleb128 0xa
 1085 0339 81000000 		.4byte	0x81
 1086 033d 48030000 		.4byte	0x348
 1087 0341 0B       		.uleb128 0xb
 1088 0342 B5000000 		.4byte	0xb5
 1089 0346 0E       		.byte	0xe
 1090 0347 00       		.byte	0
 1091 0348 15       		.uleb128 0x15
 1092 0349 B2020000 		.4byte	.LASF41
 1093 034d 05       		.byte	0x5
 1094 034e 3F       		.byte	0x3f
 1095 034f 38030000 		.4byte	0x338
 1096 0353 05       		.uleb128 0x5
 1097 0354 03       		.byte	0x3
 1098 0355 00000000 		.4byte	PumpAddress
 1099 0359 16       		.uleb128 0x16
 1100 035a 43524300 		.ascii	"CRC\000"
 1101 035e 05       		.byte	0x5
 1102 035f 40       		.byte	0x40
 1103 0360 8D000000 		.4byte	0x8d
 1104 0364 05       		.uleb128 0x5
 1105 0365 03       		.byte	0x3
 1106 0366 00000000 		.4byte	CRC
 1107 036a 15       		.uleb128 0x15
 1108 036b EF000000 		.4byte	.LASF42
 1109 036f 05       		.byte	0x5
 1110 0370 41       		.byte	0x41
 1111 0371 81000000 		.4byte	0x81
 1112 0375 05       		.uleb128 0x5
 1113 0376 03       		.byte	0x3
 1114 0377 00000000 		.4byte	crc_lo
 1115 037b 15       		.uleb128 0x15
 1116 037c 7A020000 		.4byte	.LASF43
ARM GAS  C:\Users\Lenovo\AppData\Local\Temp\ccYK011w.s 			page 24


 1117 0380 05       		.byte	0x5
 1118 0381 41       		.byte	0x41
 1119 0382 81000000 		.4byte	0x81
 1120 0386 05       		.uleb128 0x5
 1121 0387 03       		.byte	0x3
 1122 0388 00000000 		.4byte	crc_hi
 1123 038c 15       		.uleb128 0x15
 1124 038d AD000000 		.4byte	.LASF44
 1125 0391 05       		.byte	0x5
 1126 0392 42       		.byte	0x42
 1127 0393 81000000 		.4byte	0x81
 1128 0397 05       		.uleb128 0x5
 1129 0398 03       		.byte	0x3
 1130 0399 00000000 		.4byte	Positions
 1131 039d 15       		.uleb128 0x15
 1132 039e A1020000 		.4byte	.LASF45
 1133 03a2 05       		.byte	0x5
 1134 03a3 43       		.byte	0x43
 1135 03a4 81000000 		.4byte	0x81
 1136 03a8 05       		.uleb128 0x5
 1137 03a9 03       		.byte	0x3
 1138 03aa 00000000 		.4byte	TotalRequestType
 1139 03ae 15       		.uleb128 0x15
 1140 03af 9A010000 		.4byte	.LASF46
 1141 03b3 05       		.byte	0x5
 1142 03b4 44       		.byte	0x44
 1143 03b5 81000000 		.4byte	0x81
 1144 03b9 05       		.uleb128 0x5
 1145 03ba 03       		.byte	0x3
 1146 03bb 00000000 		.4byte	DecVol
 1147 03bf 15       		.uleb128 0x15
 1148 03c0 86010000 		.4byte	.LASF47
 1149 03c4 05       		.byte	0x5
 1150 03c5 4F       		.byte	0x4f
 1151 03c6 81000000 		.4byte	0x81
 1152 03ca 05       		.uleb128 0x5
 1153 03cb 03       		.byte	0x3
 1154 03cc 00000000 		.4byte	dirGbr
 1155 03d0 00       		.byte	0
 1156              		.section	.debug_abbrev,"",%progbits
 1157              	.Ldebug_abbrev0:
 1158 0000 01       		.uleb128 0x1
 1159 0001 11       		.uleb128 0x11
 1160 0002 01       		.byte	0x1
 1161 0003 25       		.uleb128 0x25
 1162 0004 0E       		.uleb128 0xe
 1163 0005 13       		.uleb128 0x13
 1164 0006 0B       		.uleb128 0xb
 1165 0007 03       		.uleb128 0x3
 1166 0008 0E       		.uleb128 0xe
 1167 0009 1B       		.uleb128 0x1b
 1168 000a 0E       		.uleb128 0xe
 1169 000b 55       		.uleb128 0x55
 1170 000c 17       		.uleb128 0x17
 1171 000d 11       		.uleb128 0x11
 1172 000e 01       		.uleb128 0x1
 1173 000f 10       		.uleb128 0x10
ARM GAS  C:\Users\Lenovo\AppData\Local\Temp\ccYK011w.s 			page 25


 1174 0010 17       		.uleb128 0x17
 1175 0011 00       		.byte	0
 1176 0012 00       		.byte	0
 1177 0013 02       		.uleb128 0x2
 1178 0014 24       		.uleb128 0x24
 1179 0015 00       		.byte	0
 1180 0016 0B       		.uleb128 0xb
 1181 0017 0B       		.uleb128 0xb
 1182 0018 3E       		.uleb128 0x3e
 1183 0019 0B       		.uleb128 0xb
 1184 001a 03       		.uleb128 0x3
 1185 001b 0E       		.uleb128 0xe
 1186 001c 00       		.byte	0
 1187 001d 00       		.byte	0
 1188 001e 03       		.uleb128 0x3
 1189 001f 16       		.uleb128 0x16
 1190 0020 00       		.byte	0
 1191 0021 03       		.uleb128 0x3
 1192 0022 0E       		.uleb128 0xe
 1193 0023 3A       		.uleb128 0x3a
 1194 0024 0B       		.uleb128 0xb
 1195 0025 3B       		.uleb128 0x3b
 1196 0026 0B       		.uleb128 0xb
 1197 0027 49       		.uleb128 0x49
 1198 0028 13       		.uleb128 0x13
 1199 0029 00       		.byte	0
 1200 002a 00       		.byte	0
 1201 002b 04       		.uleb128 0x4
 1202 002c 24       		.uleb128 0x24
 1203 002d 00       		.byte	0
 1204 002e 0B       		.uleb128 0xb
 1205 002f 0B       		.uleb128 0xb
 1206 0030 3E       		.uleb128 0x3e
 1207 0031 0B       		.uleb128 0xb
 1208 0032 03       		.uleb128 0x3
 1209 0033 08       		.uleb128 0x8
 1210 0034 00       		.byte	0
 1211 0035 00       		.byte	0
 1212 0036 05       		.uleb128 0x5
 1213 0037 16       		.uleb128 0x16
 1214 0038 00       		.byte	0
 1215 0039 03       		.uleb128 0x3
 1216 003a 0E       		.uleb128 0xe
 1217 003b 3A       		.uleb128 0x3a
 1218 003c 0B       		.uleb128 0xb
 1219 003d 3B       		.uleb128 0x3b
 1220 003e 05       		.uleb128 0x5
 1221 003f 49       		.uleb128 0x49
 1222 0040 13       		.uleb128 0x13
 1223 0041 00       		.byte	0
 1224 0042 00       		.byte	0
 1225 0043 06       		.uleb128 0x6
 1226 0044 13       		.uleb128 0x13
 1227 0045 01       		.byte	0x1
 1228 0046 03       		.uleb128 0x3
 1229 0047 0E       		.uleb128 0xe
 1230 0048 0B       		.uleb128 0xb
ARM GAS  C:\Users\Lenovo\AppData\Local\Temp\ccYK011w.s 			page 26


 1231 0049 05       		.uleb128 0x5
 1232 004a 3A       		.uleb128 0x3a
 1233 004b 0B       		.uleb128 0xb
 1234 004c 3B       		.uleb128 0x3b
 1235 004d 0B       		.uleb128 0xb
 1236 004e 01       		.uleb128 0x1
 1237 004f 13       		.uleb128 0x13
 1238 0050 00       		.byte	0
 1239 0051 00       		.byte	0
 1240 0052 07       		.uleb128 0x7
 1241 0053 0D       		.uleb128 0xd
 1242 0054 00       		.byte	0
 1243 0055 03       		.uleb128 0x3
 1244 0056 08       		.uleb128 0x8
 1245 0057 3A       		.uleb128 0x3a
 1246 0058 0B       		.uleb128 0xb
 1247 0059 3B       		.uleb128 0x3b
 1248 005a 0B       		.uleb128 0xb
 1249 005b 49       		.uleb128 0x49
 1250 005c 13       		.uleb128 0x13
 1251 005d 38       		.uleb128 0x38
 1252 005e 0B       		.uleb128 0xb
 1253 005f 00       		.byte	0
 1254 0060 00       		.byte	0
 1255 0061 08       		.uleb128 0x8
 1256 0062 0D       		.uleb128 0xd
 1257 0063 00       		.byte	0
 1258 0064 03       		.uleb128 0x3
 1259 0065 0E       		.uleb128 0xe
 1260 0066 3A       		.uleb128 0x3a
 1261 0067 0B       		.uleb128 0xb
 1262 0068 3B       		.uleb128 0x3b
 1263 0069 0B       		.uleb128 0xb
 1264 006a 49       		.uleb128 0x49
 1265 006b 13       		.uleb128 0x13
 1266 006c 38       		.uleb128 0x38
 1267 006d 0B       		.uleb128 0xb
 1268 006e 00       		.byte	0
 1269 006f 00       		.byte	0
 1270 0070 09       		.uleb128 0x9
 1271 0071 0D       		.uleb128 0xd
 1272 0072 00       		.byte	0
 1273 0073 03       		.uleb128 0x3
 1274 0074 0E       		.uleb128 0xe
 1275 0075 3A       		.uleb128 0x3a
 1276 0076 0B       		.uleb128 0xb
 1277 0077 3B       		.uleb128 0x3b
 1278 0078 0B       		.uleb128 0xb
 1279 0079 49       		.uleb128 0x49
 1280 007a 13       		.uleb128 0x13
 1281 007b 38       		.uleb128 0x38
 1282 007c 05       		.uleb128 0x5
 1283 007d 00       		.byte	0
 1284 007e 00       		.byte	0
 1285 007f 0A       		.uleb128 0xa
 1286 0080 01       		.uleb128 0x1
 1287 0081 01       		.byte	0x1
ARM GAS  C:\Users\Lenovo\AppData\Local\Temp\ccYK011w.s 			page 27


 1288 0082 49       		.uleb128 0x49
 1289 0083 13       		.uleb128 0x13
 1290 0084 01       		.uleb128 0x1
 1291 0085 13       		.uleb128 0x13
 1292 0086 00       		.byte	0
 1293 0087 00       		.byte	0
 1294 0088 0B       		.uleb128 0xb
 1295 0089 21       		.uleb128 0x21
 1296 008a 00       		.byte	0
 1297 008b 49       		.uleb128 0x49
 1298 008c 13       		.uleb128 0x13
 1299 008d 2F       		.uleb128 0x2f
 1300 008e 0B       		.uleb128 0xb
 1301 008f 00       		.byte	0
 1302 0090 00       		.byte	0
 1303 0091 0C       		.uleb128 0xc
 1304 0092 0D       		.uleb128 0xd
 1305 0093 00       		.byte	0
 1306 0094 03       		.uleb128 0x3
 1307 0095 08       		.uleb128 0x8
 1308 0096 3A       		.uleb128 0x3a
 1309 0097 0B       		.uleb128 0xb
 1310 0098 3B       		.uleb128 0x3b
 1311 0099 0B       		.uleb128 0xb
 1312 009a 49       		.uleb128 0x49
 1313 009b 13       		.uleb128 0x13
 1314 009c 38       		.uleb128 0x38
 1315 009d 05       		.uleb128 0x5
 1316 009e 00       		.byte	0
 1317 009f 00       		.byte	0
 1318 00a0 0D       		.uleb128 0xd
 1319 00a1 2E       		.uleb128 0x2e
 1320 00a2 00       		.byte	0
 1321 00a3 3F       		.uleb128 0x3f
 1322 00a4 19       		.uleb128 0x19
 1323 00a5 03       		.uleb128 0x3
 1324 00a6 0E       		.uleb128 0xe
 1325 00a7 3A       		.uleb128 0x3a
 1326 00a8 0B       		.uleb128 0xb
 1327 00a9 3B       		.uleb128 0x3b
 1328 00aa 0B       		.uleb128 0xb
 1329 00ab 27       		.uleb128 0x27
 1330 00ac 19       		.uleb128 0x19
 1331 00ad 11       		.uleb128 0x11
 1332 00ae 01       		.uleb128 0x1
 1333 00af 12       		.uleb128 0x12
 1334 00b0 06       		.uleb128 0x6
 1335 00b1 40       		.uleb128 0x40
 1336 00b2 18       		.uleb128 0x18
 1337 00b3 9642     		.uleb128 0x2116
 1338 00b5 19       		.uleb128 0x19
 1339 00b6 00       		.byte	0
 1340 00b7 00       		.byte	0
 1341 00b8 0E       		.uleb128 0xe
 1342 00b9 2E       		.uleb128 0x2e
 1343 00ba 01       		.byte	0x1
 1344 00bb 3F       		.uleb128 0x3f
ARM GAS  C:\Users\Lenovo\AppData\Local\Temp\ccYK011w.s 			page 28


 1345 00bc 19       		.uleb128 0x19
 1346 00bd 03       		.uleb128 0x3
 1347 00be 0E       		.uleb128 0xe
 1348 00bf 3A       		.uleb128 0x3a
 1349 00c0 0B       		.uleb128 0xb
 1350 00c1 3B       		.uleb128 0x3b
 1351 00c2 0B       		.uleb128 0xb
 1352 00c3 27       		.uleb128 0x27
 1353 00c4 19       		.uleb128 0x19
 1354 00c5 11       		.uleb128 0x11
 1355 00c6 01       		.uleb128 0x1
 1356 00c7 12       		.uleb128 0x12
 1357 00c8 06       		.uleb128 0x6
 1358 00c9 40       		.uleb128 0x40
 1359 00ca 18       		.uleb128 0x18
 1360 00cb 9642     		.uleb128 0x2116
 1361 00cd 19       		.uleb128 0x19
 1362 00ce 01       		.uleb128 0x1
 1363 00cf 13       		.uleb128 0x13
 1364 00d0 00       		.byte	0
 1365 00d1 00       		.byte	0
 1366 00d2 0F       		.uleb128 0xf
 1367 00d3 34       		.uleb128 0x34
 1368 00d4 00       		.byte	0
 1369 00d5 03       		.uleb128 0x3
 1370 00d6 08       		.uleb128 0x8
 1371 00d7 3A       		.uleb128 0x3a
 1372 00d8 0B       		.uleb128 0xb
 1373 00d9 3B       		.uleb128 0x3b
 1374 00da 0B       		.uleb128 0xb
 1375 00db 49       		.uleb128 0x49
 1376 00dc 13       		.uleb128 0x13
 1377 00dd 02       		.uleb128 0x2
 1378 00de 18       		.uleb128 0x18
 1379 00df 00       		.byte	0
 1380 00e0 00       		.byte	0
 1381 00e1 10       		.uleb128 0x10
 1382 00e2 2E       		.uleb128 0x2e
 1383 00e3 01       		.byte	0x1
 1384 00e4 3F       		.uleb128 0x3f
 1385 00e5 19       		.uleb128 0x19
 1386 00e6 03       		.uleb128 0x3
 1387 00e7 0E       		.uleb128 0xe
 1388 00e8 3A       		.uleb128 0x3a
 1389 00e9 0B       		.uleb128 0xb
 1390 00ea 3B       		.uleb128 0x3b
 1391 00eb 0B       		.uleb128 0xb
 1392 00ec 49       		.uleb128 0x49
 1393 00ed 13       		.uleb128 0x13
 1394 00ee 11       		.uleb128 0x11
 1395 00ef 01       		.uleb128 0x1
 1396 00f0 12       		.uleb128 0x12
 1397 00f1 06       		.uleb128 0x6
 1398 00f2 40       		.uleb128 0x40
 1399 00f3 18       		.uleb128 0x18
 1400 00f4 9642     		.uleb128 0x2116
 1401 00f6 19       		.uleb128 0x19
ARM GAS  C:\Users\Lenovo\AppData\Local\Temp\ccYK011w.s 			page 29


 1402 00f7 01       		.uleb128 0x1
 1403 00f8 13       		.uleb128 0x13
 1404 00f9 00       		.byte	0
 1405 00fa 00       		.byte	0
 1406 00fb 11       		.uleb128 0x11
 1407 00fc 34       		.uleb128 0x34
 1408 00fd 00       		.byte	0
 1409 00fe 03       		.uleb128 0x3
 1410 00ff 08       		.uleb128 0x8
 1411 0100 3A       		.uleb128 0x3a
 1412 0101 0B       		.uleb128 0xb
 1413 0102 3B       		.uleb128 0x3b
 1414 0103 0B       		.uleb128 0xb
 1415 0104 49       		.uleb128 0x49
 1416 0105 13       		.uleb128 0x13
 1417 0106 00       		.byte	0
 1418 0107 00       		.byte	0
 1419 0108 12       		.uleb128 0x12
 1420 0109 0B       		.uleb128 0xb
 1421 010a 01       		.byte	0x1
 1422 010b 11       		.uleb128 0x11
 1423 010c 01       		.uleb128 0x1
 1424 010d 12       		.uleb128 0x12
 1425 010e 06       		.uleb128 0x6
 1426 010f 00       		.byte	0
 1427 0110 00       		.byte	0
 1428 0111 13       		.uleb128 0x13
 1429 0112 34       		.uleb128 0x34
 1430 0113 00       		.byte	0
 1431 0114 03       		.uleb128 0x3
 1432 0115 0E       		.uleb128 0xe
 1433 0116 3A       		.uleb128 0x3a
 1434 0117 0B       		.uleb128 0xb
 1435 0118 3B       		.uleb128 0x3b
 1436 0119 05       		.uleb128 0x5
 1437 011a 49       		.uleb128 0x49
 1438 011b 13       		.uleb128 0x13
 1439 011c 3F       		.uleb128 0x3f
 1440 011d 19       		.uleb128 0x19
 1441 011e 3C       		.uleb128 0x3c
 1442 011f 19       		.uleb128 0x19
 1443 0120 00       		.byte	0
 1444 0121 00       		.byte	0
 1445 0122 14       		.uleb128 0x14
 1446 0123 35       		.uleb128 0x35
 1447 0124 00       		.byte	0
 1448 0125 49       		.uleb128 0x49
 1449 0126 13       		.uleb128 0x13
 1450 0127 00       		.byte	0
 1451 0128 00       		.byte	0
 1452 0129 15       		.uleb128 0x15
 1453 012a 34       		.uleb128 0x34
 1454 012b 00       		.byte	0
 1455 012c 03       		.uleb128 0x3
 1456 012d 0E       		.uleb128 0xe
 1457 012e 3A       		.uleb128 0x3a
 1458 012f 0B       		.uleb128 0xb
ARM GAS  C:\Users\Lenovo\AppData\Local\Temp\ccYK011w.s 			page 30


 1459 0130 3B       		.uleb128 0x3b
 1460 0131 0B       		.uleb128 0xb
 1461 0132 49       		.uleb128 0x49
 1462 0133 13       		.uleb128 0x13
 1463 0134 3F       		.uleb128 0x3f
 1464 0135 19       		.uleb128 0x19
 1465 0136 02       		.uleb128 0x2
 1466 0137 18       		.uleb128 0x18
 1467 0138 00       		.byte	0
 1468 0139 00       		.byte	0
 1469 013a 16       		.uleb128 0x16
 1470 013b 34       		.uleb128 0x34
 1471 013c 00       		.byte	0
 1472 013d 03       		.uleb128 0x3
 1473 013e 08       		.uleb128 0x8
 1474 013f 3A       		.uleb128 0x3a
 1475 0140 0B       		.uleb128 0xb
 1476 0141 3B       		.uleb128 0x3b
 1477 0142 0B       		.uleb128 0xb
 1478 0143 49       		.uleb128 0x49
 1479 0144 13       		.uleb128 0x13
 1480 0145 3F       		.uleb128 0x3f
 1481 0146 19       		.uleb128 0x19
 1482 0147 02       		.uleb128 0x2
 1483 0148 18       		.uleb128 0x18
 1484 0149 00       		.byte	0
 1485 014a 00       		.byte	0
 1486 014b 00       		.byte	0
 1487              		.section	.debug_aranges,"",%progbits
 1488 0000 2C000000 		.4byte	0x2c
 1489 0004 0200     		.2byte	0x2
 1490 0006 00000000 		.4byte	.Ldebug_info0
 1491 000a 04       		.byte	0x4
 1492 000b 00       		.byte	0
 1493 000c 0000     		.2byte	0
 1494 000e 0000     		.2byte	0
 1495 0010 00000000 		.4byte	.LFB63
 1496 0014 1C000000 		.4byte	.LFE63-.LFB63
 1497 0018 00000000 		.4byte	.LFB64
 1498 001c B0010000 		.4byte	.LFE64-.LFB64
 1499 0020 00000000 		.4byte	.LFB65
 1500 0024 8C020000 		.4byte	.LFE65-.LFB65
 1501 0028 00000000 		.4byte	0
 1502 002c 00000000 		.4byte	0
 1503              		.section	.debug_ranges,"",%progbits
 1504              	.Ldebug_ranges0:
 1505 0000 00000000 		.4byte	.LFB63
 1506 0004 1C000000 		.4byte	.LFE63
 1507 0008 00000000 		.4byte	.LFB64
 1508 000c B0010000 		.4byte	.LFE64
 1509 0010 00000000 		.4byte	.LFB65
 1510 0014 8C020000 		.4byte	.LFE65
 1511 0018 00000000 		.4byte	0
 1512 001c 00000000 		.4byte	0
 1513              		.section	.debug_line,"",%progbits
 1514              	.Ldebug_line0:
 1515 0000 40020000 		.section	.debug_str,"MS",%progbits,1
ARM GAS  C:\Users\Lenovo\AppData\Local\Temp\ccYK011w.s 			page 31


 1515      02005801 
 1515      00000201 
 1515      FB0E0D00 
 1515      01010101 
 1516              	.LASF48:
 1517 0000 474E5520 		.ascii	"GNU C11 5.4.1 20160609 (release) [ARM/embedded-5-br"
 1517      43313120 
 1517      352E342E 
 1517      31203230 
 1517      31363036 
 1518 0033 616E6368 		.ascii	"anch revision 237715] -mcpu=cortex-m3 -mthumb -g -O"
 1518      20726576 
 1518      6973696F 
 1518      6E203233 
 1518      37373135 
 1519 0066 30202D66 		.ascii	"0 -ffunction-sections -ffat-lto-objects\000"
 1519      66756E63 
 1519      74696F6E 
 1519      2D736563 
 1519      74696F6E 
 1520              	.LASF19:
 1521 008e 7070754E 		.ascii	"ppuNozzle\000"
 1521      6F7A7A6C 
 1521      6500
 1522              	.LASF21:
 1523 0098 766F6C75 		.ascii	"volumeSale\000"
 1523      6D655361 
 1523      6C6500
 1524              	.LASF9:
 1525 00a3 5F5F696E 		.ascii	"__int32_t\000"
 1525      7433325F 
 1525      7400
 1526              	.LASF44:
 1527 00ad 506F7369 		.ascii	"Positions\000"
 1527      74696F6E 
 1527      7300
 1528              	.LASF31:
 1529 00b7 70756D70 		.ascii	"pump\000"
 1529      00
 1530              	.LASF20:
 1531 00bc 6D6F6E65 		.ascii	"moneySale\000"
 1531      7953616C 
 1531      6500
 1532              	.LASF39:
 1533 00c6 4D657073 		.ascii	"MepsanResponse\000"
 1533      616E5265 
 1533      73706F6E 
 1533      736500
 1534              	.LASF13:
 1535 00d5 666C6F61 		.ascii	"float\000"
 1535      7400
 1536              	.LASF22:
 1537 00db 70707553 		.ascii	"ppuSale\000"
 1537      616C6500 
 1538              	.LASF0:
 1539 00e3 7369676E 		.ascii	"signed char\000"
 1539      65642063 
ARM GAS  C:\Users\Lenovo\AppData\Local\Temp\ccYK011w.s 			page 32


 1539      68617200 
 1540              	.LASF42:
 1541 00ef 6372635F 		.ascii	"crc_lo\000"
 1541      6C6F00
 1542              	.LASF29:
 1543 00f6 50726F63 		.ascii	"ProcessedPPU\000"
 1543      65737365 
 1543      64505055 
 1543      00
 1544              	.LASF37:
 1545 0103 52656365 		.ascii	"Receipt\000"
 1545      69707400 
 1546              	.LASF5:
 1547 010b 6C6F6E67 		.ascii	"long unsigned int\000"
 1547      20756E73 
 1547      69676E65 
 1547      6420696E 
 1547      7400
 1548              	.LASF3:
 1549 011d 73686F72 		.ascii	"short unsigned int\000"
 1549      7420756E 
 1549      7369676E 
 1549      65642069 
 1549      6E7400
 1550              	.LASF1:
 1551 0130 756E7369 		.ascii	"unsigned char\000"
 1551      676E6564 
 1551      20636861 
 1551      7200
 1552              	.LASF14:
 1553 013e 646F7562 		.ascii	"double\000"
 1553      6C6500
 1554              	.LASF33:
 1555 0145 6D61696E 		.ascii	"main\000"
 1555      00
 1556              	.LASF40:
 1557 014a 4D657073 		.ascii	"MepsanSendTo\000"
 1557      616E5365 
 1557      6E64546F 
 1557      00
 1558              	.LASF12:
 1559 0157 75696E74 		.ascii	"uint16\000"
 1559      313600
 1560              	.LASF32:
 1561 015e 506F6C6C 		.ascii	"PollingPos\000"
 1561      696E6750 
 1561      6F7300
 1562              	.LASF26:
 1563 0169 50726F63 		.ascii	"ProcessedTotals\000"
 1563      65737365 
 1563      64546F74 
 1563      616C7300 
 1564              	.LASF34:
 1565 0179 49544D5F 		.ascii	"ITM_RxBuffer\000"
 1565      52784275 
 1565      66666572 
 1565      00
ARM GAS  C:\Users\Lenovo\AppData\Local\Temp\ccYK011w.s 			page 33


 1566              	.LASF47:
 1567 0186 64697247 		.ascii	"dirGbr\000"
 1567      627200
 1568              	.LASF8:
 1569 018d 756E7369 		.ascii	"unsigned int\000"
 1569      676E6564 
 1569      20696E74 
 1569      00
 1570              	.LASF46:
 1571 019a 44656356 		.ascii	"DecVol\000"
 1571      6F6C00
 1572              	.LASF7:
 1573 01a1 6C6F6E67 		.ascii	"long long unsigned int\000"
 1573      206C6F6E 
 1573      6720756E 
 1573      7369676E 
 1573      65642069 
 1574              	.LASF51:
 1575 01b8 706F6C6C 		.ascii	"polling\000"
 1575      696E6700 
 1576              	.LASF10:
 1577 01c0 696E7433 		.ascii	"int32_t\000"
 1577      325F7400 
 1578              	.LASF25:
 1579 01c8 4D657073 		.ascii	"MepsanStore\000"
 1579      616E5374 
 1579      6F726500 
 1580              	.LASF38:
 1581 01d4 73696465 		.ascii	"side\000"
 1581      00
 1582              	.LASF50:
 1583 01d9 433A5C55 		.ascii	"C:\\Users\\Lenovo\\Documents\\GitHub\\Mepsan\\Mepsa"
 1583      73657273 
 1583      5C4C656E 
 1583      6F766F5C 
 1583      446F6375 
 1584 0206 6E2E6379 		.ascii	"n.cydsn\000"
 1584      64736E00 
 1585              	.LASF6:
 1586 020e 6C6F6E67 		.ascii	"long long int\000"
 1586      206C6F6E 
 1586      6720696E 
 1586      7400
 1587              	.LASF17:
 1588 021c 73697A65 		.ascii	"sizetype\000"
 1588      74797065 
 1588      00
 1589              	.LASF49:
 1590 0225 6D61696E 		.ascii	"main.c\000"
 1590      2E6300
 1591              	.LASF15:
 1592 022c 63686172 		.ascii	"char\000"
 1592      00
 1593              	.LASF27:
 1594 0231 50726F63 		.ascii	"ProcessedmoneySale\000"
 1594      65737365 
 1594      646D6F6E 
ARM GAS  C:\Users\Lenovo\AppData\Local\Temp\ccYK011w.s 			page 34


 1594      65795361 
 1594      6C6500
 1595              	.LASF24:
 1596 0244 73746174 		.ascii	"states\000"
 1596      657300
 1597              	.LASF18:
 1598 024b 746F7461 		.ascii	"totalsNozzle\000"
 1598      6C734E6F 
 1598      7A7A6C65 
 1598      00
 1599              	.LASF2:
 1600 0258 73686F72 		.ascii	"short int\000"
 1600      7420696E 
 1600      7400
 1601              	.LASF11:
 1602 0262 75696E74 		.ascii	"uint8\000"
 1602      3800
 1603              	.LASF30:
 1604 0268 706F7369 		.ascii	"position\000"
 1604      74696F6E 
 1604      00
 1605              	.LASF4:
 1606 0271 6C6F6E67 		.ascii	"long int\000"
 1606      20696E74 
 1606      00
 1607              	.LASF43:
 1608 027a 6372635F 		.ascii	"crc_hi\000"
 1608      686900
 1609              	.LASF16:
 1610 0281 6C6F6E67 		.ascii	"long double\000"
 1610      20646F75 
 1610      626C6500 
 1611              	.LASF28:
 1612 028d 50726F63 		.ascii	"ProcessedvolumeSale\000"
 1612      65737365 
 1612      64766F6C 
 1612      756D6553 
 1612      616C6500 
 1613              	.LASF45:
 1614 02a1 546F7461 		.ascii	"TotalRequestType\000"
 1614      6C526571 
 1614      75657374 
 1614      54797065 
 1614      00
 1615              	.LASF41:
 1616 02b2 50756D70 		.ascii	"PumpAddress\000"
 1616      41646472 
 1616      65737300 
 1617              	.LASF36:
 1618 02be 43757272 		.ascii	"CurrentState\000"
 1618      656E7453 
 1618      74617465 
 1618      00
 1619              	.LASF35:
 1620 02cb 506F6C6C 		.ascii	"PollCounter\000"
 1620      436F756E 
 1620      74657200 
ARM GAS  C:\Users\Lenovo\AppData\Local\Temp\ccYK011w.s 			page 35


 1621              	.LASF23:
 1622 02d7 70726F64 		.ascii	"productSale\000"
 1622      75637453 
 1622      616C6500 
 1623              		.ident	"GCC: (GNU Tools for ARM Embedded Processors) 5.4.1 20160609 (release) [ARM/embedded-5-bran
