ARM GAS  C:\Users\Diego\AppData\Local\Temp\cccxrA3i.s 			page 1


   1              		.syntax unified
   2              		.cpu cortex-m3
   3              		.fpu softvfp
   4              		.eabi_attribute 20, 1
   5              		.eabi_attribute 21, 1
   6              		.eabi_attribute 23, 3
   7              		.eabi_attribute 24, 1
   8              		.eabi_attribute 25, 1
   9              		.eabi_attribute 26, 1
  10              		.eabi_attribute 30, 6
  11              		.eabi_attribute 34, 1
  12              		.eabi_attribute 18, 4
  13              		.thumb
  14              		.syntax unified
  15              		.file	"main.c"
  16              		.text
  17              	.Ltext0:
  18              		.cfi_sections	.debug_frame
  19              		.comm	PollCounter,2,2
  20              		.comm	CurrentState,1,1
  21              		.comm	Receipt,1,1
  22              		.comm	sale_number,6,4
  23              		.comm	sale_number_copy,6,4
  24              		.comm	int_salenumber,1,1
  25              		.comm	shift_number,6,4
  26              		.comm	int_shiftnumber,1,1
  27              		.comm	LCDhose,1,1
  28              		.comm	side,1236,4
  29              		.comm	MepsanResponse,50,4
  30              		.comm	MepsanSendTo,50,4
  31              		.comm	PumpAddress,15,4
  32              		.comm	CRC,2,2
  33              		.comm	crc_lo,1,1
  34              		.comm	crc_hi,1,1
  35              		.comm	Positions,1,1
  36              		.comm	TotalRequestType,1,1
  37              		.comm	DecVol,1,1
  38              		.comm	touch1,20,4
  39              		.comm	dirGbr,1,1
  40              		.section	.text.PollingPos,"ax",%progbits
  41              		.align	2
  42              		.global	PollingPos
  43              		.thumb
  44              		.thumb_func
  45              		.type	PollingPos, %function
  46              	PollingPos:
  47              	.LFB63:
  48              		.file 1 "main.c"
   1:main.c        **** /******************************************************************************
   2:main.c        **** * File Name: main.c
   3:main.c        **** *
   4:main.c        **** * Version: 1.10
   5:main.c        **** *
   6:main.c        **** * Description: This is the source code for the Blinking LED code example.
   7:main.c        **** *
   8:main.c        **** * Related Document: CE195352_PSoC_5LP_Blinking_LED.pdf
   9:main.c        **** *
ARM GAS  C:\Users\Diego\AppData\Local\Temp\cccxrA3i.s 			page 2


  10:main.c        **** * Hardware Dependency: See CE195352_PSoC_5LP_Blinking_LED.pdf
  11:main.c        **** *
  12:main.c        **** *******************************************************************************
  13:main.c        **** * Copyright (2018), Cypress Semiconductor Corporation. All rights reserved.
  14:main.c        **** *******************************************************************************
  15:main.c        **** * This software, including source code, documentation and related materials
  16:main.c        **** * (“Software”), is owned by Cypress Semiconductor Corporation or one of its
  17:main.c        **** * subsidiaries (“Cypress”) and is protected by and subject to worldwide patent
  18:main.c        **** * protection (United States and foreign), United States copyright laws and
  19:main.c        **** * international treaty provisions. Therefore, you may use this Software only
  20:main.c        **** * as provided in the license agreement accompanying the software package from
  21:main.c        **** * which you obtained this Software (“EULA”).
  22:main.c        **** *
  23:main.c        **** * If no EULA applies, Cypress hereby grants you a personal, nonexclusive,
  24:main.c        **** * non-transferable license to copy, modify, and compile the Software source
  25:main.c        **** * code solely for use in connection with Cypress’s integrated circuit products.
  26:main.c        **** * Any reproduction, modification, translation, compilation, or representation
  27:main.c        **** * of this Software except as specified above is prohibited without the express
  28:main.c        **** * written permission of Cypress.
  29:main.c        **** *
  30:main.c        **** * Disclaimer: THIS SOFTWARE IS PROVIDED AS-IS, WITH NO WARRANTY OF ANY KIND, 
  31:main.c        **** * EXPRESS OR IMPLIED, INCLUDING, BUT NOT LIMITED TO, NONINFRINGEMENT, IMPLIED 
  32:main.c        **** * WARRANTIES OF MERCHANTABILITY AND FITNESS FOR A PARTICULAR PURPOSE. Cypress 
  33:main.c        **** * reserves the right to make changes to the Software without notice. Cypress 
  34:main.c        **** * does not assume any liability arising out of the application or use of the 
  35:main.c        **** * Software or any product or circuit described in the Software. Cypress does 
  36:main.c        **** * not authorize its products for use in any products where a malfunction or 
  37:main.c        **** * failure of the Cypress product may reasonably be expected to result in 
  38:main.c        **** * significant property damage, injury or death (“High Risk Product”). By 
  39:main.c        **** * including Cypress’s product in a High Risk Product, the manufacturer of such 
  40:main.c        **** * system or application assumes all risk of such use and in doing so agrees to 
  41:main.c        **** * indemnify Cypress against all liability.
  42:main.c        **** *******************************************************************************/
  43:main.c        **** 
  44:main.c        **** #include <project.h>
  45:main.c        **** #include <GVar.h>
  46:main.c        **** #include <PumpCom.h>
  47:main.c        **** #include <Gbr.h>
  48:main.c        **** #include <printer.h>
  49:main.c        **** 
  50:main.c        **** 
  51:main.c        **** 
  52:main.c        **** void PollingPos(void){
  49              		.loc 1 52 0
  50              		.cfi_startproc
  51              		@ args = 0, pretend = 0, frame = 8
  52              		@ frame_needed = 1, uses_anonymous_args = 0
  53 0000 90B5     		push	{r4, r7, lr}
  54              		.cfi_def_cfa_offset 12
  55              		.cfi_offset 4, -12
  56              		.cfi_offset 7, -8
  57              		.cfi_offset 14, -4
  58 0002 83B0     		sub	sp, sp, #12
  59              		.cfi_def_cfa_offset 24
  60 0004 00AF     		add	r7, sp, #0
  61              		.cfi_def_cfa_register 7
  53:main.c        ****     uint8 x;
ARM GAS  C:\Users\Diego\AppData\Local\Temp\cccxrA3i.s 			page 3


  54:main.c        ****     if(side.a.dir != 0xFF && side.b.dir == 0xFF){
  62              		.loc 1 54 0
  63 0006 764B     		ldr	r3, .L17
  64 0008 1B78     		ldrb	r3, [r3]	@ zero_extendqisi2
  65 000a FF2B     		cmp	r3, #255
  66 000c 07D0     		beq	.L2
  67              		.loc 1 54 0 is_stmt 0 discriminator 1
  68 000e 744B     		ldr	r3, .L17
  69 0010 93F83531 		ldrb	r3, [r3, #309]	@ zero_extendqisi2
  70 0014 FF2B     		cmp	r3, #255
  71 0016 02D1     		bne	.L2
  55:main.c        ****         Positions = 1;
  72              		.loc 1 55 0 is_stmt 1
  73 0018 724B     		ldr	r3, .L17+4
  74 001a 0122     		movs	r2, #1
  75 001c 1A70     		strb	r2, [r3]
  76              	.L2:
  56:main.c        ****     }
  57:main.c        ****     if(side.a.dir != 0xFF && side.b.dir != 0xFF){
  77              		.loc 1 57 0
  78 001e 704B     		ldr	r3, .L17
  79 0020 1B78     		ldrb	r3, [r3]	@ zero_extendqisi2
  80 0022 FF2B     		cmp	r3, #255
  81 0024 07D0     		beq	.L3
  82              		.loc 1 57 0 is_stmt 0 discriminator 1
  83 0026 6E4B     		ldr	r3, .L17
  84 0028 93F83531 		ldrb	r3, [r3, #309]	@ zero_extendqisi2
  85 002c FF2B     		cmp	r3, #255
  86 002e 02D0     		beq	.L3
  58:main.c        ****         Positions = 2;
  87              		.loc 1 58 0 is_stmt 1
  88 0030 6C4B     		ldr	r3, .L17+4
  89 0032 0222     		movs	r2, #2
  90 0034 1A70     		strb	r2, [r3]
  91              	.L3:
  59:main.c        ****     }
  60:main.c        ****     if(side.c.dir != 0xFF && side.d.dir == 0xFF){
  92              		.loc 1 60 0
  93 0036 6A4B     		ldr	r3, .L17
  94 0038 93F86A32 		ldrb	r3, [r3, #618]	@ zero_extendqisi2
  95 003c FF2B     		cmp	r3, #255
  96 003e 07D0     		beq	.L4
  97              		.loc 1 60 0 is_stmt 0 discriminator 1
  98 0040 674B     		ldr	r3, .L17
  99 0042 93F89F33 		ldrb	r3, [r3, #927]	@ zero_extendqisi2
 100 0046 FF2B     		cmp	r3, #255
 101 0048 02D1     		bne	.L4
  61:main.c        ****         Positions = 3;
 102              		.loc 1 61 0 is_stmt 1
 103 004a 664B     		ldr	r3, .L17+4
 104 004c 0322     		movs	r2, #3
 105 004e 1A70     		strb	r2, [r3]
 106              	.L4:
  62:main.c        ****     }
  63:main.c        ****     if(side.c.dir != 0xFF && side.d.dir != 0xFF){
 107              		.loc 1 63 0
 108 0050 634B     		ldr	r3, .L17
ARM GAS  C:\Users\Diego\AppData\Local\Temp\cccxrA3i.s 			page 4


 109 0052 93F86A32 		ldrb	r3, [r3, #618]	@ zero_extendqisi2
 110 0056 FF2B     		cmp	r3, #255
 111 0058 07D0     		beq	.L5
 112              		.loc 1 63 0 is_stmt 0 discriminator 1
 113 005a 614B     		ldr	r3, .L17
 114 005c 93F89F33 		ldrb	r3, [r3, #927]	@ zero_extendqisi2
 115 0060 FF2B     		cmp	r3, #255
 116 0062 02D0     		beq	.L5
  64:main.c        ****         Positions = 4;
 117              		.loc 1 64 0 is_stmt 1
 118 0064 5F4B     		ldr	r3, .L17+4
 119 0066 0422     		movs	r2, #4
 120 0068 1A70     		strb	r2, [r3]
 121              	.L5:
  65:main.c        ****     }
  66:main.c        ****     if(Positions == 1){       
 122              		.loc 1 66 0
 123 006a 5E4B     		ldr	r3, .L17+4
 124 006c 1B78     		ldrb	r3, [r3]	@ zero_extendqisi2
 125 006e 012B     		cmp	r3, #1
 126 0070 09D1     		bne	.L6
  67:main.c        ****         side.a.states[0] = PumpState(side.a.dir);                                    
 127              		.loc 1 67 0
 128 0072 5B4B     		ldr	r3, .L17
 129 0074 1B78     		ldrb	r3, [r3]	@ zero_extendqisi2
 130 0076 1846     		mov	r0, r3
 131 0078 FFF7FEFF 		bl	PumpState
 132 007c 0346     		mov	r3, r0
 133 007e 1A46     		mov	r2, r3
 134 0080 574B     		ldr	r3, .L17
 135 0082 83F84C20 		strb	r2, [r3, #76]
 136              	.L6:
  68:main.c        ****         //ReturnStatus(side.a.dir);        
  69:main.c        ****     }
  70:main.c        ****     if(Positions == 2){
 137              		.loc 1 70 0
 138 0086 574B     		ldr	r3, .L17+4
 139 0088 1B78     		ldrb	r3, [r3]	@ zero_extendqisi2
 140 008a 022B     		cmp	r3, #2
 141 008c 31D1     		bne	.L7
  71:main.c        ****         if(side.a.MepRequest == MEPSAN_AUTHORIZE){
 142              		.loc 1 71 0
 143 008e 544B     		ldr	r3, .L17
 144 0090 93F82B31 		ldrb	r3, [r3, #299]	@ zero_extendqisi2
 145 0094 062B     		cmp	r3, #6
 146 0096 08D1     		bne	.L8
  72:main.c        ****             Authorize(side.a.dir);
 147              		.loc 1 72 0
 148 0098 514B     		ldr	r3, .L17
 149 009a 1B78     		ldrb	r3, [r3]	@ zero_extendqisi2
 150 009c 1846     		mov	r0, r3
 151 009e FFF7FEFF 		bl	Authorize
  73:main.c        ****             side.a.Copy = 0;
 152              		.loc 1 73 0
 153 00a2 4F4B     		ldr	r3, .L17
 154 00a4 0022     		movs	r2, #0
 155 00a6 83F83421 		strb	r2, [r3, #308]
ARM GAS  C:\Users\Diego\AppData\Local\Temp\cccxrA3i.s 			page 5


 156              	.L8:
  74:main.c        ****         }
  75:main.c        ****         if(side.b.MepRequest == MEPSAN_AUTHORIZE){
 157              		.loc 1 75 0
 158 00aa 4D4B     		ldr	r3, .L17
 159 00ac 93F86032 		ldrb	r3, [r3, #608]	@ zero_extendqisi2
 160 00b0 062B     		cmp	r3, #6
 161 00b2 09D1     		bne	.L9
  76:main.c        ****             Authorize(side.b.dir);
 162              		.loc 1 76 0
 163 00b4 4A4B     		ldr	r3, .L17
 164 00b6 93F83531 		ldrb	r3, [r3, #309]	@ zero_extendqisi2
 165 00ba 1846     		mov	r0, r3
 166 00bc FFF7FEFF 		bl	Authorize
  77:main.c        ****             side.b.Copy = 0;
 167              		.loc 1 77 0
 168 00c0 474B     		ldr	r3, .L17
 169 00c2 0022     		movs	r2, #0
 170 00c4 83F86922 		strb	r2, [r3, #617]
 171              	.L9:
  78:main.c        ****         }
  79:main.c        ****         side.a.states[0] = PumpState(side.a.dir);
 172              		.loc 1 79 0
 173 00c8 454B     		ldr	r3, .L17
 174 00ca 1B78     		ldrb	r3, [r3]	@ zero_extendqisi2
 175 00cc 1846     		mov	r0, r3
 176 00ce FFF7FEFF 		bl	PumpState
 177 00d2 0346     		mov	r3, r0
 178 00d4 1A46     		mov	r2, r3
 179 00d6 424B     		ldr	r3, .L17
 180 00d8 83F84C20 		strb	r2, [r3, #76]
  80:main.c        ****         side.b.states[0] = PumpState(side.b.dir);        
 181              		.loc 1 80 0
 182 00dc 404B     		ldr	r3, .L17
 183 00de 93F83531 		ldrb	r3, [r3, #309]	@ zero_extendqisi2
 184 00e2 1846     		mov	r0, r3
 185 00e4 FFF7FEFF 		bl	PumpState
 186 00e8 0346     		mov	r3, r0
 187 00ea 1A46     		mov	r2, r3
 188 00ec 3C4B     		ldr	r3, .L17
 189 00ee 83F88121 		strb	r2, [r3, #385]
 190              	.L7:
  81:main.c        ****                     
  82:main.c        ****     }
  83:main.c        ****     if(Positions == 3){
 191              		.loc 1 83 0
 192 00f2 3C4B     		ldr	r3, .L17+4
 193 00f4 1B78     		ldrb	r3, [r3]	@ zero_extendqisi2
 194 00f6 032B     		cmp	r3, #3
 195 00f8 2ED1     		bne	.L10
  84:main.c        ****         for(x = 0; x < 5; x++){
 196              		.loc 1 84 0
 197 00fa 0023     		movs	r3, #0
 198 00fc FB71     		strb	r3, [r7, #7]
 199 00fe 28E0     		b	.L11
 200              	.L12:
  85:main.c        ****             side.a.states[x] = PumpState(side.a.dir);
ARM GAS  C:\Users\Diego\AppData\Local\Temp\cccxrA3i.s 			page 6


 201              		.loc 1 85 0 discriminator 3
 202 0100 FC79     		ldrb	r4, [r7, #7]	@ zero_extendqisi2
 203 0102 374B     		ldr	r3, .L17
 204 0104 1B78     		ldrb	r3, [r3]	@ zero_extendqisi2
 205 0106 1846     		mov	r0, r3
 206 0108 FFF7FEFF 		bl	PumpState
 207 010c 0346     		mov	r3, r0
 208 010e 1A46     		mov	r2, r3
 209 0110 334B     		ldr	r3, .L17
 210 0112 2344     		add	r3, r3, r4
 211 0114 83F84C20 		strb	r2, [r3, #76]
  86:main.c        ****             side.b.states[x] = PumpState(side.b.dir);
 212              		.loc 1 86 0 discriminator 3
 213 0118 FC79     		ldrb	r4, [r7, #7]	@ zero_extendqisi2
 214 011a 314B     		ldr	r3, .L17
 215 011c 93F83531 		ldrb	r3, [r3, #309]	@ zero_extendqisi2
 216 0120 1846     		mov	r0, r3
 217 0122 FFF7FEFF 		bl	PumpState
 218 0126 0346     		mov	r3, r0
 219 0128 1A46     		mov	r2, r3
 220 012a 2D4B     		ldr	r3, .L17
 221 012c 2344     		add	r3, r3, r4
 222 012e 83F88121 		strb	r2, [r3, #385]
  87:main.c        ****             side.c.states[x] = PumpState(side.c.dir);
 223              		.loc 1 87 0 discriminator 3
 224 0132 FC79     		ldrb	r4, [r7, #7]	@ zero_extendqisi2
 225 0134 2A4B     		ldr	r3, .L17
 226 0136 93F86A32 		ldrb	r3, [r3, #618]	@ zero_extendqisi2
 227 013a 1846     		mov	r0, r3
 228 013c FFF7FEFF 		bl	PumpState
 229 0140 0346     		mov	r3, r0
 230 0142 1A46     		mov	r2, r3
 231 0144 264B     		ldr	r3, .L17
 232 0146 2344     		add	r3, r3, r4
 233 0148 83F8B622 		strb	r2, [r3, #694]
  84:main.c        ****             side.a.states[x] = PumpState(side.a.dir);
 234              		.loc 1 84 0 discriminator 3
 235 014c FB79     		ldrb	r3, [r7, #7]	@ zero_extendqisi2
 236 014e 0133     		adds	r3, r3, #1
 237 0150 FB71     		strb	r3, [r7, #7]
 238              	.L11:
  84:main.c        ****             side.a.states[x] = PumpState(side.a.dir);
 239              		.loc 1 84 0 is_stmt 0 discriminator 1
 240 0152 FB79     		ldrb	r3, [r7, #7]	@ zero_extendqisi2
 241 0154 042B     		cmp	r3, #4
 242 0156 D3D9     		bls	.L12
 243              	.L10:
  88:main.c        ****         }
  89:main.c        ****         
  90:main.c        ****     }
  91:main.c        ****     if(Positions == 4){
 244              		.loc 1 91 0 is_stmt 1
 245 0158 224B     		ldr	r3, .L17+4
 246 015a 1B78     		ldrb	r3, [r3]	@ zero_extendqisi2
 247 015c 042B     		cmp	r3, #4
 248 015e 3BD1     		bne	.L16
  92:main.c        ****         for(x = 0; x < 5; x++){
ARM GAS  C:\Users\Diego\AppData\Local\Temp\cccxrA3i.s 			page 7


 249              		.loc 1 92 0
 250 0160 0023     		movs	r3, #0
 251 0162 FB71     		strb	r3, [r7, #7]
 252 0164 35E0     		b	.L14
 253              	.L15:
  93:main.c        ****             side.a.states[x] = PumpState(side.a.dir);
 254              		.loc 1 93 0 discriminator 3
 255 0166 FC79     		ldrb	r4, [r7, #7]	@ zero_extendqisi2
 256 0168 1D4B     		ldr	r3, .L17
 257 016a 1B78     		ldrb	r3, [r3]	@ zero_extendqisi2
 258 016c 1846     		mov	r0, r3
 259 016e FFF7FEFF 		bl	PumpState
 260 0172 0346     		mov	r3, r0
 261 0174 1A46     		mov	r2, r3
 262 0176 1A4B     		ldr	r3, .L17
 263 0178 2344     		add	r3, r3, r4
 264 017a 83F84C20 		strb	r2, [r3, #76]
  94:main.c        ****             side.b.states[x] = PumpState(side.b.dir);
 265              		.loc 1 94 0 discriminator 3
 266 017e FC79     		ldrb	r4, [r7, #7]	@ zero_extendqisi2
 267 0180 174B     		ldr	r3, .L17
 268 0182 93F83531 		ldrb	r3, [r3, #309]	@ zero_extendqisi2
 269 0186 1846     		mov	r0, r3
 270 0188 FFF7FEFF 		bl	PumpState
 271 018c 0346     		mov	r3, r0
 272 018e 1A46     		mov	r2, r3
 273 0190 134B     		ldr	r3, .L17
 274 0192 2344     		add	r3, r3, r4
 275 0194 83F88121 		strb	r2, [r3, #385]
  95:main.c        ****             side.c.states[x] = PumpState(side.c.dir);
 276              		.loc 1 95 0 discriminator 3
 277 0198 FC79     		ldrb	r4, [r7, #7]	@ zero_extendqisi2
 278 019a 114B     		ldr	r3, .L17
 279 019c 93F86A32 		ldrb	r3, [r3, #618]	@ zero_extendqisi2
 280 01a0 1846     		mov	r0, r3
 281 01a2 FFF7FEFF 		bl	PumpState
 282 01a6 0346     		mov	r3, r0
 283 01a8 1A46     		mov	r2, r3
 284 01aa 0D4B     		ldr	r3, .L17
 285 01ac 2344     		add	r3, r3, r4
 286 01ae 83F8B622 		strb	r2, [r3, #694]
  96:main.c        ****             side.d.states[x] = PumpState(side.d.dir);
 287              		.loc 1 96 0 discriminator 3
 288 01b2 FC79     		ldrb	r4, [r7, #7]	@ zero_extendqisi2
 289 01b4 0A4B     		ldr	r3, .L17
 290 01b6 93F89F33 		ldrb	r3, [r3, #927]	@ zero_extendqisi2
 291 01ba 1846     		mov	r0, r3
 292 01bc FFF7FEFF 		bl	PumpState
 293 01c0 0346     		mov	r3, r0
 294 01c2 1A46     		mov	r2, r3
 295 01c4 064B     		ldr	r3, .L17
 296 01c6 2344     		add	r3, r3, r4
 297 01c8 83F8EB23 		strb	r2, [r3, #1003]
  92:main.c        ****             side.a.states[x] = PumpState(side.a.dir);
 298              		.loc 1 92 0 discriminator 3
 299 01cc FB79     		ldrb	r3, [r7, #7]	@ zero_extendqisi2
 300 01ce 0133     		adds	r3, r3, #1
ARM GAS  C:\Users\Diego\AppData\Local\Temp\cccxrA3i.s 			page 8


 301 01d0 FB71     		strb	r3, [r7, #7]
 302              	.L14:
  92:main.c        ****             side.a.states[x] = PumpState(side.a.dir);
 303              		.loc 1 92 0 is_stmt 0 discriminator 1
 304 01d2 FB79     		ldrb	r3, [r7, #7]	@ zero_extendqisi2
 305 01d4 042B     		cmp	r3, #4
 306 01d6 C6D9     		bls	.L15
 307              	.L16:
  97:main.c        ****         }            
  98:main.c        ****     } 
  99:main.c        **** 
 100:main.c        **** }
 308              		.loc 1 100 0 is_stmt 1
 309 01d8 00BF     		nop
 310 01da 0C37     		adds	r7, r7, #12
 311              		.cfi_def_cfa_offset 12
 312 01dc BD46     		mov	sp, r7
 313              		.cfi_def_cfa_register 13
 314              		@ sp needed
 315 01de 90BD     		pop	{r4, r7, pc}
 316              	.L18:
 317              		.align	2
 318              	.L17:
 319 01e0 00000000 		.word	side
 320 01e4 00000000 		.word	Positions
 321              		.cfi_endproc
 322              	.LFE63:
 323              		.size	PollingPos, .-PollingPos
 324              		.section	.rodata
 325              		.align	2
 326              	.LC0:
 327 0000 31       		.byte	49
 328 0001 32       		.byte	50
 329 0002 33       		.byte	51
 330 0003 34       		.byte	52
 331              		.align	2
 332              	.LC1:
 333 0004 5A       		.byte	90
 334 0005 A5       		.byte	-91
 335 0006 04       		.byte	4
 336 0007 80       		.byte	-128
 337 0008 03       		.byte	3
 338 0009 00       		.byte	0
 339 000a 06       		.byte	6
 340 000b 00       		.align	2
 341              	.LC2:
 342 000c 5A       		.byte	90
 343 000d A5       		.byte	-91
 344 000e 04       		.byte	4
 345 000f 80       		.byte	-128
 346 0010 03       		.byte	3
 347 0011 00       		.byte	0
 348 0012 09       		.byte	9
 349              		.section	.text.main,"ax",%progbits
 350              		.align	2
 351              		.global	main
 352              		.thumb
ARM GAS  C:\Users\Diego\AppData\Local\Temp\cccxrA3i.s 			page 9


 353              		.thumb_func
 354              		.type	main, %function
 355              	main:
 356              	.LFB64:
 101:main.c        **** 
 102:main.c        **** /*******************************************************************************
 103:main.c        **** * Function Name: main
 104:main.c        **** ********************************************************************************
 105:main.c        **** *
 106:main.c        **** *
 107:main.c        **** *******************************************************************************/
 108:main.c        **** 
 109:main.c        **** int main()
 110:main.c        **** {
 357              		.loc 1 110 0
 358              		.cfi_startproc
 359              		@ args = 0, pretend = 0, frame = 72
 360              		@ frame_needed = 1, uses_anonymous_args = 0
 361 0000 90B5     		push	{r4, r7, lr}
 362              		.cfi_def_cfa_offset 12
 363              		.cfi_offset 4, -12
 364              		.cfi_offset 7, -8
 365              		.cfi_offset 14, -4
 366 0002 93B0     		sub	sp, sp, #76
 367              		.cfi_def_cfa_offset 88
 368 0004 00AF     		add	r7, sp, #0
 369              		.cfi_def_cfa_register 7
 111:main.c        ****     /* Prepare components */
 112:main.c        ****     uint8 x,screen_size,W_autorize,y,temp;
 113:main.c        ****     uint8 passw[4]={'1','2','3','4'};
 370              		.loc 1 113 0
 371 0006 C44A     		ldr	r2, .L162
 372 0008 07F11C03 		add	r3, r7, #28
 373 000c 1068     		ldr	r0, [r2]	@ unaligned
 374 000e 1860     		str	r0, [r3]	@ unaligned
 114:main.c        ****     uint8 change_pic[]={0x5A,0xA5,0x04,0x80,0x03,0x00,0x06};
 375              		.loc 1 114 0
 376 0010 C24A     		ldr	r2, .L162+4
 377 0012 07F11403 		add	r3, r7, #20
 378 0016 1068     		ldr	r0, [r2]	@ unaligned
 379 0018 1860     		str	r0, [r3]	@ unaligned
 380 001a 9188     		ldrh	r1, [r2, #4]	@ unaligned
 381 001c 9279     		ldrb	r2, [r2, #6]
 382 001e 9980     		strh	r1, [r3, #4]	@ unaligned
 383 0020 9A71     		strb	r2, [r3, #6]
 115:main.c        ****     uint8 change_pic2[]={0x5A,0xA5,0x04,0x80,0x03,0x00,0x09};
 384              		.loc 1 115 0
 385 0022 BF4A     		ldr	r2, .L162+8
 386 0024 07F10C03 		add	r3, r7, #12
 387 0028 1068     		ldr	r0, [r2]	@ unaligned
 388 002a 1860     		str	r0, [r3]	@ unaligned
 389 002c 9188     		ldrh	r1, [r2, #4]	@ unaligned
 390 002e 9279     		ldrb	r2, [r2, #6]
 391 0030 9980     		strh	r1, [r3, #4]	@ unaligned
 392 0032 9A71     		strb	r2, [r3, #6]
 116:main.c        ****     uint8 price_change;
 117:main.c        ****     uint8 auxPrice[5];
ARM GAS  C:\Users\Diego\AppData\Local\Temp\cccxrA3i.s 			page 10


 118:main.c        ****     DecVol = 3;
 393              		.loc 1 118 0
 394 0034 BB4B     		ldr	r3, .L162+12
 395 0036 0322     		movs	r2, #3
 396 0038 1A70     		strb	r2, [r3]
 119:main.c        ****     PWM_1_Start(); 
 397              		.loc 1 119 0
 398 003a FFF7FEFF 		bl	PWM_1_Start
 120:main.c        ****     CyGlobalIntEnable;
 399              		.loc 1 120 0
 400              		.syntax unified
 401              	@ 120 "main.c" 1
 402 003e 62B6     		CPSIE   i
 403              	@ 0 "" 2
 121:main.c        ****     MEPSAN_Start();
 404              		.loc 1 121 0
 405              		.thumb
 406              		.syntax unified
 407 0040 FFF7FEFF 		bl	MEPSAN_Start
 122:main.c        ****     GBCL_Start();
 408              		.loc 1 122 0
 409 0044 FFF7FEFF 		bl	GBCL_Start
 123:main.c        ****     PRINTER_A_Start();
 410              		.loc 1 123 0
 411 0048 FFF7FEFF 		bl	PRINTER_A_Start
 124:main.c        ****     screen_Start();
 412              		.loc 1 124 0
 413 004c FFF7FEFF 		bl	screen_Start
 125:main.c        ****     EEPROM_1_Start();
 414              		.loc 1 125 0
 415 0050 FFF7FEFF 		bl	EEPROM_1_Start
 126:main.c        ****     side.a.Copy = 0;
 416              		.loc 1 126 0
 417 0054 B44B     		ldr	r3, .L162+16
 418 0056 0022     		movs	r2, #0
 419 0058 83F83421 		strb	r2, [r3, #308]
 127:main.c        ****     side.b.Copy = 0;
 420              		.loc 1 127 0
 421 005c B24B     		ldr	r3, .L162+16
 422 005e 0022     		movs	r2, #0
 423 0060 83F86922 		strb	r2, [r3, #617]
 128:main.c        ****     if(EEPROM_1_ReadByte(0) == 0x5A){
 424              		.loc 1 128 0
 425 0064 0020     		movs	r0, #0
 426 0066 FFF7FEFF 		bl	EEPROM_1_ReadByte
 427 006a 0346     		mov	r3, r0
 428 006c 5A2B     		cmp	r3, #90
 429 006e 19D1     		bne	.L20
 129:main.c        ****         for(x=0;x<6;x++){
 430              		.loc 1 129 0
 431 0070 0023     		movs	r3, #0
 432 0072 87F84730 		strb	r3, [r7, #71]
 433 0076 10E0     		b	.L21
 434              	.L22:
 130:main.c        ****     		sale_number[x]=EEPROM_1_ReadByte(x);
 435              		.loc 1 130 0 discriminator 3
 436 0078 97F84740 		ldrb	r4, [r7, #71]	@ zero_extendqisi2
ARM GAS  C:\Users\Diego\AppData\Local\Temp\cccxrA3i.s 			page 11


 437 007c 97F84730 		ldrb	r3, [r7, #71]	@ zero_extendqisi2
 438 0080 9BB2     		uxth	r3, r3
 439 0082 1846     		mov	r0, r3
 440 0084 FFF7FEFF 		bl	EEPROM_1_ReadByte
 441 0088 0346     		mov	r3, r0
 442 008a 1A46     		mov	r2, r3
 443 008c A74B     		ldr	r3, .L162+20
 444 008e 1A55     		strb	r2, [r3, r4]
 129:main.c        ****         for(x=0;x<6;x++){
 445              		.loc 1 129 0 discriminator 3
 446 0090 97F84730 		ldrb	r3, [r7, #71]	@ zero_extendqisi2
 447 0094 0133     		adds	r3, r3, #1
 448 0096 87F84730 		strb	r3, [r7, #71]
 449              	.L21:
 129:main.c        ****         for(x=0;x<6;x++){
 450              		.loc 1 129 0 is_stmt 0 discriminator 1
 451 009a 97F84730 		ldrb	r3, [r7, #71]	@ zero_extendqisi2
 452 009e 052B     		cmp	r3, #5
 453 00a0 EAD9     		bls	.L22
 454 00a2 15E0     		b	.L23
 455              	.L20:
 131:main.c        ****     	}
 132:main.c        ****     }else{
 133:main.c        ****         EEPROM_1_WriteByte(0x5A,0);
 456              		.loc 1 133 0 is_stmt 1
 457 00a4 0021     		movs	r1, #0
 458 00a6 5A20     		movs	r0, #90
 459 00a8 FFF7FEFF 		bl	EEPROM_1_WriteByte
 134:main.c        ****         for(x=1;x<6;x++){
 460              		.loc 1 134 0
 461 00ac 0123     		movs	r3, #1
 462 00ae 87F84730 		strb	r3, [r7, #71]
 463 00b2 09E0     		b	.L24
 464              	.L25:
 135:main.c        ****     		sale_number[x]='0';
 465              		.loc 1 135 0 discriminator 3
 466 00b4 97F84730 		ldrb	r3, [r7, #71]	@ zero_extendqisi2
 467 00b8 9C4A     		ldr	r2, .L162+20
 468 00ba 3021     		movs	r1, #48
 469 00bc D154     		strb	r1, [r2, r3]
 134:main.c        ****         for(x=1;x<6;x++){
 470              		.loc 1 134 0 discriminator 3
 471 00be 97F84730 		ldrb	r3, [r7, #71]	@ zero_extendqisi2
 472 00c2 0133     		adds	r3, r3, #1
 473 00c4 87F84730 		strb	r3, [r7, #71]
 474              	.L24:
 134:main.c        ****         for(x=1;x<6;x++){
 475              		.loc 1 134 0 is_stmt 0 discriminator 1
 476 00c8 97F84730 		ldrb	r3, [r7, #71]	@ zero_extendqisi2
 477 00cc 052B     		cmp	r3, #5
 478 00ce F1D9     		bls	.L25
 479              	.L23:
 136:main.c        ****     	}
 137:main.c        ****     }
 138:main.c        ****     int_salenumber=((sale_number[5]&0x0F)*10000)+((sale_number[4]&0x0F)*1000)+((sale_number[3]&0x0F
 480              		.loc 1 138 0 is_stmt 1
 481 00d0 964B     		ldr	r3, .L162+20
ARM GAS  C:\Users\Diego\AppData\Local\Temp\cccxrA3i.s 			page 12


 482 00d2 5B79     		ldrb	r3, [r3, #5]	@ zero_extendqisi2
 483 00d4 03F00F03 		and	r3, r3, #15
 484 00d8 DBB2     		uxtb	r3, r3
 485 00da 1B01     		lsls	r3, r3, #4
 486 00dc DAB2     		uxtb	r2, r3
 487 00de 934B     		ldr	r3, .L162+20
 488 00e0 1B79     		ldrb	r3, [r3, #4]	@ zero_extendqisi2
 489 00e2 03F00F03 		and	r3, r3, #15
 490 00e6 DBB2     		uxtb	r3, r3
 491 00e8 1946     		mov	r1, r3
 492 00ea 9B00     		lsls	r3, r3, #2
 493 00ec CB1A     		subs	r3, r1, r3
 494 00ee DB00     		lsls	r3, r3, #3
 495 00f0 DBB2     		uxtb	r3, r3
 496 00f2 1344     		add	r3, r3, r2
 497 00f4 DAB2     		uxtb	r2, r3
 498 00f6 8D4B     		ldr	r3, .L162+20
 499 00f8 9B78     		ldrb	r3, [r3, #2]	@ zero_extendqisi2
 500 00fa 03F00F03 		and	r3, r3, #15
 501 00fe DBB2     		uxtb	r3, r3
 502 0100 1946     		mov	r1, r3
 503 0102 8900     		lsls	r1, r1, #2
 504 0104 0B44     		add	r3, r3, r1
 505 0106 5B00     		lsls	r3, r3, #1
 506 0108 D9B2     		uxtb	r1, r3
 507 010a 884B     		ldr	r3, .L162+20
 508 010c DB78     		ldrb	r3, [r3, #3]	@ zero_extendqisi2
 509 010e 03F00F03 		and	r3, r3, #15
 510 0112 DBB2     		uxtb	r3, r3
 511 0114 1846     		mov	r0, r3
 512 0116 8000     		lsls	r0, r0, #2
 513 0118 0344     		add	r3, r3, r0
 514 011a 1846     		mov	r0, r3
 515 011c 8400     		lsls	r4, r0, #2
 516 011e 1846     		mov	r0, r3
 517 0120 2346     		mov	r3, r4
 518 0122 0344     		add	r3, r3, r0
 519 0124 9B00     		lsls	r3, r3, #2
 520 0126 DBB2     		uxtb	r3, r3
 521 0128 0B44     		add	r3, r3, r1
 522 012a DBB2     		uxtb	r3, r3
 523 012c 1344     		add	r3, r3, r2
 524 012e DAB2     		uxtb	r2, r3
 525 0130 7E4B     		ldr	r3, .L162+20
 526 0132 5B78     		ldrb	r3, [r3, #1]	@ zero_extendqisi2
 527 0134 03F00F03 		and	r3, r3, #15
 528 0138 DBB2     		uxtb	r3, r3
 529 013a 1344     		add	r3, r3, r2
 530 013c DAB2     		uxtb	r2, r3
 531 013e 7C4B     		ldr	r3, .L162+24
 532 0140 1A70     		strb	r2, [r3]
 139:main.c        ****     if(EEPROM_1_ReadByte(6) == 0x5A){
 533              		.loc 1 139 0
 534 0142 0620     		movs	r0, #6
 535 0144 FFF7FEFF 		bl	EEPROM_1_ReadByte
 536 0148 0346     		mov	r3, r0
 537 014a 5A2B     		cmp	r3, #90
ARM GAS  C:\Users\Diego\AppData\Local\Temp\cccxrA3i.s 			page 13


 538 014c 1CD1     		bne	.L26
 140:main.c        ****         for(x=0;x<6;x++){
 539              		.loc 1 140 0
 540 014e 0023     		movs	r3, #0
 541 0150 87F84730 		strb	r3, [r7, #71]
 542 0154 13E0     		b	.L27
 543              	.L28:
 141:main.c        ****     		shift_number[x+6]=EEPROM_1_ReadByte(x+6);
 544              		.loc 1 141 0 discriminator 3
 545 0156 97F84730 		ldrb	r3, [r7, #71]	@ zero_extendqisi2
 546 015a 9C1D     		adds	r4, r3, #6
 547 015c 97F84730 		ldrb	r3, [r7, #71]	@ zero_extendqisi2
 548 0160 9BB2     		uxth	r3, r3
 549 0162 0633     		adds	r3, r3, #6
 550 0164 9BB2     		uxth	r3, r3
 551 0166 1846     		mov	r0, r3
 552 0168 FFF7FEFF 		bl	EEPROM_1_ReadByte
 553 016c 0346     		mov	r3, r0
 554 016e 1A46     		mov	r2, r3
 555 0170 704B     		ldr	r3, .L162+28
 556 0172 1A55     		strb	r2, [r3, r4]
 140:main.c        ****         for(x=0;x<6;x++){
 557              		.loc 1 140 0 discriminator 3
 558 0174 97F84730 		ldrb	r3, [r7, #71]	@ zero_extendqisi2
 559 0178 0133     		adds	r3, r3, #1
 560 017a 87F84730 		strb	r3, [r7, #71]
 561              	.L27:
 140:main.c        ****         for(x=0;x<6;x++){
 562              		.loc 1 140 0 is_stmt 0 discriminator 1
 563 017e 97F84730 		ldrb	r3, [r7, #71]	@ zero_extendqisi2
 564 0182 052B     		cmp	r3, #5
 565 0184 E7D9     		bls	.L28
 566 0186 16E0     		b	.L29
 567              	.L26:
 142:main.c        ****     	}
 143:main.c        ****     }else{
 144:main.c        ****         EEPROM_1_WriteByte(0x5A,6);
 568              		.loc 1 144 0 is_stmt 1
 569 0188 0621     		movs	r1, #6
 570 018a 5A20     		movs	r0, #90
 571 018c FFF7FEFF 		bl	EEPROM_1_WriteByte
 145:main.c        ****         for(x=1;x<6;x++){
 572              		.loc 1 145 0
 573 0190 0123     		movs	r3, #1
 574 0192 87F84730 		strb	r3, [r7, #71]
 575 0196 0AE0     		b	.L30
 576              	.L31:
 146:main.c        ****     		shift_number[x+6]='0';
 577              		.loc 1 146 0 discriminator 3
 578 0198 97F84730 		ldrb	r3, [r7, #71]	@ zero_extendqisi2
 579 019c 0633     		adds	r3, r3, #6
 580 019e 654A     		ldr	r2, .L162+28
 581 01a0 3021     		movs	r1, #48
 582 01a2 D154     		strb	r1, [r2, r3]
 145:main.c        ****         for(x=1;x<6;x++){
 583              		.loc 1 145 0 discriminator 3
 584 01a4 97F84730 		ldrb	r3, [r7, #71]	@ zero_extendqisi2
ARM GAS  C:\Users\Diego\AppData\Local\Temp\cccxrA3i.s 			page 14


 585 01a8 0133     		adds	r3, r3, #1
 586 01aa 87F84730 		strb	r3, [r7, #71]
 587              	.L30:
 145:main.c        ****         for(x=1;x<6;x++){
 588              		.loc 1 145 0 is_stmt 0 discriminator 1
 589 01ae 97F84730 		ldrb	r3, [r7, #71]	@ zero_extendqisi2
 590 01b2 052B     		cmp	r3, #5
 591 01b4 F0D9     		bls	.L31
 592              	.L29:
 147:main.c        ****     	}
 148:main.c        ****     }
 149:main.c        ****     int_shiftnumber=((shift_number[5]&0x0F)*10000)+((shift_number[4]&0x0F)*1000)+((shift_number[3]&
 593              		.loc 1 149 0 is_stmt 1
 594 01b6 5F4B     		ldr	r3, .L162+28
 595 01b8 5B79     		ldrb	r3, [r3, #5]	@ zero_extendqisi2
 596 01ba 03F00F03 		and	r3, r3, #15
 597 01be DBB2     		uxtb	r3, r3
 598 01c0 1B01     		lsls	r3, r3, #4
 599 01c2 DAB2     		uxtb	r2, r3
 600 01c4 5B4B     		ldr	r3, .L162+28
 601 01c6 1B79     		ldrb	r3, [r3, #4]	@ zero_extendqisi2
 602 01c8 03F00F03 		and	r3, r3, #15
 603 01cc DBB2     		uxtb	r3, r3
 604 01ce 1946     		mov	r1, r3
 605 01d0 9B00     		lsls	r3, r3, #2
 606 01d2 CB1A     		subs	r3, r1, r3
 607 01d4 DB00     		lsls	r3, r3, #3
 608 01d6 DBB2     		uxtb	r3, r3
 609 01d8 1344     		add	r3, r3, r2
 610 01da DAB2     		uxtb	r2, r3
 611 01dc 554B     		ldr	r3, .L162+28
 612 01de 9B78     		ldrb	r3, [r3, #2]	@ zero_extendqisi2
 613 01e0 03F00F03 		and	r3, r3, #15
 614 01e4 DBB2     		uxtb	r3, r3
 615 01e6 1946     		mov	r1, r3
 616 01e8 8900     		lsls	r1, r1, #2
 617 01ea 0B44     		add	r3, r3, r1
 618 01ec 5B00     		lsls	r3, r3, #1
 619 01ee D9B2     		uxtb	r1, r3
 620 01f0 504B     		ldr	r3, .L162+28
 621 01f2 DB78     		ldrb	r3, [r3, #3]	@ zero_extendqisi2
 622 01f4 03F00F03 		and	r3, r3, #15
 623 01f8 DBB2     		uxtb	r3, r3
 624 01fa 1846     		mov	r0, r3
 625 01fc 8000     		lsls	r0, r0, #2
 626 01fe 0344     		add	r3, r3, r0
 627 0200 1846     		mov	r0, r3
 628 0202 8400     		lsls	r4, r0, #2
 629 0204 1846     		mov	r0, r3
 630 0206 2346     		mov	r3, r4
 631 0208 0344     		add	r3, r3, r0
 632 020a 9B00     		lsls	r3, r3, #2
 633 020c DBB2     		uxtb	r3, r3
 634 020e 0B44     		add	r3, r3, r1
 635 0210 DBB2     		uxtb	r3, r3
 636 0212 1344     		add	r3, r3, r2
 637 0214 DAB2     		uxtb	r2, r3
ARM GAS  C:\Users\Diego\AppData\Local\Temp\cccxrA3i.s 			page 15


 638 0216 474B     		ldr	r3, .L162+28
 639 0218 5B78     		ldrb	r3, [r3, #1]	@ zero_extendqisi2
 640 021a 03F00F03 		and	r3, r3, #15
 641 021e DBB2     		uxtb	r3, r3
 642 0220 1344     		add	r3, r3, r2
 643 0222 DAB2     		uxtb	r2, r3
 644 0224 444B     		ldr	r3, .L162+32
 645 0226 1A70     		strb	r2, [r3]
 646              	.LBB2:
 150:main.c        ****     
 151:main.c        ****         
 152:main.c        **** //    for(x = 0; x < 3; x ++){
 153:main.c        **** //        side.a.ppuNozzle[0][x] = EEPROM_1_ReadByte(12 + x);
 154:main.c        **** //        side.a.ppuNozzle[1][x] = EEPROM_1_ReadByte(15 + x);
 155:main.c        **** //        side.a.ppuNozzle[2][x] = EEPROM_1_ReadByte(18 + x);
 156:main.c        **** //        side.a.ppuNozzle[3][x] = EEPROM_1_ReadByte(21 + x);
 157:main.c        **** //        side.b.ppuNozzle[0][x] = EEPROM_1_ReadByte(24 + x);
 158:main.c        **** //        side.b.ppuNozzle[1][x] = EEPROM_1_ReadByte(27 + x);
 159:main.c        **** //        side.b.ppuNozzle[2][x] = EEPROM_1_ReadByte(30 + x);
 160:main.c        **** //        side.b.ppuNozzle[3][x] = EEPROM_1_ReadByte(33 + x);
 161:main.c        **** //    }
 162:main.c        **** //    
 163:main.c        **** //    side.a.ProcessedPPU[0][0] = (side.a.ppuNozzle[0][0] >> 4) + 0x30;
 164:main.c        **** //    side.a.ProcessedPPU[0][1] = (side.a.ppuNozzle[0][0] & 0x0F) + 0x30;
 165:main.c        **** //    side.a.ProcessedPPU[0][2] = (side.a.ppuNozzle[0][1] >> 4) + 0x30;
 166:main.c        **** //    side.a.ProcessedPPU[0][3] = (side.a.ppuNozzle[0][1] & 0x0F) + 0x30;
 167:main.c        **** //    side.a.ProcessedPPU[0][4] = (side.a.ppuNozzle[0][2] >> 4) + 0x30;
 168:main.c        **** //    side.a.ProcessedPPU[0][5] = (side.a.ppuNozzle[0][2] & 0x0F) + 0x30;
 169:main.c        **** //    
 170:main.c        **** //    side.b.ProcessedPPU[0][0] = (side.b.ppuNozzle[0][0] >> 4) + 0x30;
 171:main.c        **** //    side.b.ProcessedPPU[0][1] = (side.b.ppuNozzle[0][0] & 0x0F) + 0x30;
 172:main.c        **** //    side.b.ProcessedPPU[0][2] = (side.b.ppuNozzle[0][1] >> 4) + 0x30;
 173:main.c        **** //    side.b.ProcessedPPU[0][3] = (side.b.ppuNozzle[0][1] & 0x0F) + 0x30;
 174:main.c        **** //    side.b.ProcessedPPU[0][4] = (side.b.ppuNozzle[0][2] >> 4) + 0x30;
 175:main.c        **** //    side.b.ProcessedPPU[0][5] = (side.b.ppuNozzle[0][2] & 0x0F) + 0x30;
 176:main.c        ****     
 177:main.c        ****     //while(side.a.dir == 0xFF){
 178:main.c        ****         for(uint8 y = 0; y < 16; y ++){
 647              		.loc 1 178 0
 648 0228 0023     		movs	r3, #0
 649 022a 87F84330 		strb	r3, [r7, #67]
 650 022e 0FE0     		b	.L32
 651              	.L33:
 179:main.c        ****             PumpAddress[y] = GetAddress(y); //Posiciones activas      
 652              		.loc 1 179 0 discriminator 3
 653 0230 97F84340 		ldrb	r4, [r7, #67]	@ zero_extendqisi2
 654 0234 97F84330 		ldrb	r3, [r7, #67]	@ zero_extendqisi2
 655 0238 1846     		mov	r0, r3
 656 023a FFF7FEFF 		bl	GetAddress
 657 023e 0346     		mov	r3, r0
 658 0240 1A46     		mov	r2, r3
 659 0242 3E4B     		ldr	r3, .L162+36
 660 0244 1A55     		strb	r2, [r3, r4]
 178:main.c        ****             PumpAddress[y] = GetAddress(y); //Posiciones activas      
 661              		.loc 1 178 0 discriminator 3
 662 0246 97F84330 		ldrb	r3, [r7, #67]	@ zero_extendqisi2
 663 024a 0133     		adds	r3, r3, #1
ARM GAS  C:\Users\Diego\AppData\Local\Temp\cccxrA3i.s 			page 16


 664 024c 87F84330 		strb	r3, [r7, #67]
 665              	.L32:
 178:main.c        ****             PumpAddress[y] = GetAddress(y); //Posiciones activas      
 666              		.loc 1 178 0 is_stmt 0 discriminator 1
 667 0250 97F84330 		ldrb	r3, [r7, #67]	@ zero_extendqisi2
 668 0254 0F2B     		cmp	r3, #15
 669 0256 EBD9     		bls	.L33
 670              	.LBE2:
 180:main.c        ****         } 
 181:main.c        ****     //}
 182:main.c        ****     
 183:main.c        ****     side.a.dir = PumpAddress[1];
 671              		.loc 1 183 0 is_stmt 1
 672 0258 384B     		ldr	r3, .L162+36
 673 025a 5A78     		ldrb	r2, [r3, #1]	@ zero_extendqisi2
 674 025c 324B     		ldr	r3, .L162+16
 675 025e 1A70     		strb	r2, [r3]
 184:main.c        ****     side.b.dir = PumpAddress[2];
 676              		.loc 1 184 0
 677 0260 364B     		ldr	r3, .L162+36
 678 0262 9A78     		ldrb	r2, [r3, #2]	@ zero_extendqisi2
 679 0264 304B     		ldr	r3, .L162+16
 680 0266 83F83521 		strb	r2, [r3, #309]
 185:main.c        ****     side.c.dir = PumpAddress[3];
 681              		.loc 1 185 0
 682 026a 344B     		ldr	r3, .L162+36
 683 026c DA78     		ldrb	r2, [r3, #3]	@ zero_extendqisi2
 684 026e 2E4B     		ldr	r3, .L162+16
 685 0270 83F86A22 		strb	r2, [r3, #618]
 186:main.c        ****     side.d.dir = PumpAddress[4]; 
 686              		.loc 1 186 0
 687 0274 314B     		ldr	r3, .L162+36
 688 0276 1A79     		ldrb	r2, [r3, #4]	@ zero_extendqisi2
 689 0278 2B4B     		ldr	r3, .L162+16
 690 027a 83F89F23 		strb	r2, [r3, #927]
 187:main.c        ****     side.a.dir = 0x00;
 691              		.loc 1 187 0
 692 027e 2A4B     		ldr	r3, .L162+16
 693 0280 0022     		movs	r2, #0
 694 0282 1A70     		strb	r2, [r3]
 188:main.c        ****     side.b.dir = 0x01;
 695              		.loc 1 188 0
 696 0284 284B     		ldr	r3, .L162+16
 697 0286 0122     		movs	r2, #1
 698 0288 83F83521 		strb	r2, [r3, #309]
 189:main.c        ****     TotalRequestType = 0; 
 699              		.loc 1 189 0
 700 028c 2C4B     		ldr	r3, .L162+40
 701 028e 0022     		movs	r2, #0
 702 0290 1A70     		strb	r2, [r3]
 190:main.c        ****     W_autorize = 0;        
 703              		.loc 1 190 0
 704 0292 0023     		movs	r3, #0
 705 0294 87F84630 		strb	r3, [r7, #70]
 191:main.c        ****     LCDhose = 0;
 706              		.loc 1 191 0
 707 0298 2A4B     		ldr	r3, .L162+44
ARM GAS  C:\Users\Diego\AppData\Local\Temp\cccxrA3i.s 			page 17


 708 029a 0022     		movs	r2, #0
 709 029c 1A70     		strb	r2, [r3]
 710              	.L154:
 192:main.c        ****     for (;;)
 193:main.c        ****     {
 194:main.c        ****         PollingPos(); 
 711              		.loc 1 194 0
 712 029e FFF7FEFF 		bl	PollingPos
 195:main.c        ****         //screen_PutChar(0x5A);
 196:main.c        ****         screen_size = screen_GetRxBufferSize();
 713              		.loc 1 196 0
 714 02a2 FFF7FEFF 		bl	screen_GetRxBufferSize
 715 02a6 0346     		mov	r3, r0
 716 02a8 87F82330 		strb	r3, [r7, #35]
 197:main.c        ****         if(screen_size >= 5 ){
 717              		.loc 1 197 0
 718 02ac 97F82330 		ldrb	r3, [r7, #35]	@ zero_extendqisi2
 719 02b0 042B     		cmp	r3, #4
 720 02b2 16D9     		bls	.L34
 721              	.LBB3:
 198:main.c        ****             for(uint8 LCDRx = 0; LCDRx < screen_size; LCDRx++){
 722              		.loc 1 198 0
 723 02b4 0023     		movs	r3, #0
 724 02b6 87F84230 		strb	r3, [r7, #66]
 725 02ba 0CE0     		b	.L35
 726              	.L36:
 199:main.c        ****                 touch1[LCDRx] = screen_ReadRxData();
 727              		.loc 1 199 0 discriminator 3
 728 02bc 97F84240 		ldrb	r4, [r7, #66]	@ zero_extendqisi2
 729 02c0 FFF7FEFF 		bl	screen_ReadRxData
 730 02c4 0346     		mov	r3, r0
 731 02c6 1A46     		mov	r2, r3
 732 02c8 1F4B     		ldr	r3, .L162+48
 733 02ca 1A55     		strb	r2, [r3, r4]
 198:main.c        ****             for(uint8 LCDRx = 0; LCDRx < screen_size; LCDRx++){
 734              		.loc 1 198 0 discriminator 3
 735 02cc 97F84230 		ldrb	r3, [r7, #66]	@ zero_extendqisi2
 736 02d0 0133     		adds	r3, r3, #1
 737 02d2 87F84230 		strb	r3, [r7, #66]
 738              	.L35:
 198:main.c        ****             for(uint8 LCDRx = 0; LCDRx < screen_size; LCDRx++){
 739              		.loc 1 198 0 is_stmt 0 discriminator 1
 740 02d6 97F84220 		ldrb	r2, [r7, #66]	@ zero_extendqisi2
 741 02da 97F82330 		ldrb	r3, [r7, #35]	@ zero_extendqisi2
 742 02de 9A42     		cmp	r2, r3
 743 02e0 ECD3     		bcc	.L36
 744              	.L34:
 745              	.LBE3:
 200:main.c        ****             }            
 201:main.c        ****         }
 202:main.c        ****         CyDelay(4);
 746              		.loc 1 202 0 is_stmt 1
 747 02e2 0420     		movs	r0, #4
 748 02e4 FFF7FEFF 		bl	CyDelay
 203:main.c        ****         switch(touch1[8]){
 749              		.loc 1 203 0
 750 02e8 174B     		ldr	r3, .L162+48
ARM GAS  C:\Users\Diego\AppData\Local\Temp\cccxrA3i.s 			page 18


 751 02ea 1B7A     		ldrb	r3, [r3, #8]	@ zero_extendqisi2
 752 02ec 4E2B     		cmp	r3, #78
 753 02ee 00F05982 		beq	.L38
 754 02f2 4E2B     		cmp	r3, #78
 755 02f4 2ADC     		bgt	.L39
 756 02f6 0A2B     		cmp	r3, #10
 757 02f8 00F08880 		beq	.L40
 758 02fc 0A2B     		cmp	r3, #10
 759 02fe 04DC     		bgt	.L41
 760 0300 012B     		cmp	r3, #1
 761 0302 34D0     		beq	.L42
 762 0304 022B     		cmp	r3, #2
 763 0306 37D0     		beq	.L43
 764 0308 74E2     		b	.L37
 765              	.L41:
 766 030a 0B2B     		cmp	r3, #11
 767 030c 00F01D81 		beq	.L44
 768 0310 1C2B     		cmp	r3, #28
 769 0312 4DD0     		beq	.L45
 770 0314 6EE2     		b	.L37
 771              	.L163:
 772 0316 00BF     		.align	2
 773              	.L162:
 774 0318 00000000 		.word	.LC0
 775 031c 04000000 		.word	.LC1
 776 0320 0C000000 		.word	.LC2
 777 0324 00000000 		.word	DecVol
 778 0328 00000000 		.word	side
 779 032c 00000000 		.word	sale_number
 780 0330 00000000 		.word	int_salenumber
 781 0334 00000000 		.word	shift_number
 782 0338 00000000 		.word	int_shiftnumber
 783 033c 00000000 		.word	PumpAddress
 784 0340 00000000 		.word	TotalRequestType
 785 0344 00000000 		.word	LCDhose
 786 0348 00000000 		.word	touch1
 787              	.L39:
 788 034c CA2B     		cmp	r3, #202
 789 034e 46D0     		beq	.L46
 790 0350 CA2B     		cmp	r3, #202
 791 0352 05DC     		bgt	.L47
 792 0354 532B     		cmp	r3, #83
 793 0356 00F00882 		beq	.L48
 794 035a AA2B     		cmp	r3, #170
 795 035c 11D0     		beq	.L49
 796 035e 49E2     		b	.L37
 797              	.L47:
 798 0360 CC2B     		cmp	r3, #204
 799 0362 00F08D81 		beq	.L50
 800 0366 E12B     		cmp	r3, #225
 801 0368 00F03482 		beq	.L51
 802 036c 42E2     		b	.L37
 803              	.L42:
 204:main.c        ****             case 0x01:
 205:main.c        ****                 W_autorize = 0xE1;
 804              		.loc 1 205 0
 805 036e E123     		movs	r3, #225
ARM GAS  C:\Users\Diego\AppData\Local\Temp\cccxrA3i.s 			page 19


 806 0370 87F84630 		strb	r3, [r7, #70]
 206:main.c        ****             break;
 807              		.loc 1 206 0
 808 0374 00F094BD 		b	.L52
 809              	.L43:
 207:main.c        ****             case 0x02:
 208:main.c        ****                 W_autorize = 0xE2;
 810              		.loc 1 208 0
 811 0378 E223     		movs	r3, #226
 812 037a 87F84630 		strb	r3, [r7, #70]
 209:main.c        ****             break;
 813              		.loc 1 209 0
 814 037e 00F08FBD 		b	.L52
 815              	.L49:
 210:main.c        ****         	case 0xAA:
 211:main.c        ****         		W_autorize = 1;
 816              		.loc 1 211 0
 817 0382 0123     		movs	r3, #1
 818 0384 87F84630 		strb	r3, [r7, #70]
 819              	.LBB4:
 212:main.c        ****         		for(uint8 LCDRx = 0; LCDRx < 20; LCDRx++){
 820              		.loc 1 212 0
 821 0388 0023     		movs	r3, #0
 822 038a 87F84130 		strb	r3, [r7, #65]
 823 038e 09E0     		b	.L53
 824              	.L54:
 213:main.c        ****         			touch1[LCDRx] = 0x00;
 825              		.loc 1 213 0 discriminator 3
 826 0390 97F84130 		ldrb	r3, [r7, #65]	@ zero_extendqisi2
 827 0394 B74A     		ldr	r2, .L164
 828 0396 0021     		movs	r1, #0
 829 0398 D154     		strb	r1, [r2, r3]
 212:main.c        ****         		for(uint8 LCDRx = 0; LCDRx < 20; LCDRx++){
 830              		.loc 1 212 0 discriminator 3
 831 039a 97F84130 		ldrb	r3, [r7, #65]	@ zero_extendqisi2
 832 039e 0133     		adds	r3, r3, #1
 833 03a0 87F84130 		strb	r3, [r7, #65]
 834              	.L53:
 212:main.c        ****         		for(uint8 LCDRx = 0; LCDRx < 20; LCDRx++){
 835              		.loc 1 212 0 is_stmt 0 discriminator 1
 836 03a4 97F84130 		ldrb	r3, [r7, #65]	@ zero_extendqisi2
 837 03a8 132B     		cmp	r3, #19
 838 03aa F1D9     		bls	.L54
 839              	.LBE4:
 214:main.c        ****         		}
 215:main.c        ****         	break;
 840              		.loc 1 215 0 is_stmt 1
 841 03ac 00F078BD 		b	.L52
 842              	.L45:
 216:main.c        ****         	case 0x1C:
 217:main.c        ****         		W_autorize = 'k';
 843              		.loc 1 217 0
 844 03b0 6B23     		movs	r3, #107
 845 03b2 87F84630 		strb	r3, [r7, #70]
 846              	.LBB5:
 218:main.c        ****         		for(uint8 LCDRx = 0; LCDRx < 20; LCDRx++){
 847              		.loc 1 218 0
ARM GAS  C:\Users\Diego\AppData\Local\Temp\cccxrA3i.s 			page 20


 848 03b6 0023     		movs	r3, #0
 849 03b8 87F84030 		strb	r3, [r7, #64]
 850 03bc 09E0     		b	.L55
 851              	.L56:
 219:main.c        ****         			touch1[LCDRx] = 0x00;
 852              		.loc 1 219 0 discriminator 3
 853 03be 97F84030 		ldrb	r3, [r7, #64]	@ zero_extendqisi2
 854 03c2 AC4A     		ldr	r2, .L164
 855 03c4 0021     		movs	r1, #0
 856 03c6 D154     		strb	r1, [r2, r3]
 218:main.c        ****         		for(uint8 LCDRx = 0; LCDRx < 20; LCDRx++){
 857              		.loc 1 218 0 discriminator 3
 858 03c8 97F84030 		ldrb	r3, [r7, #64]	@ zero_extendqisi2
 859 03cc 0133     		adds	r3, r3, #1
 860 03ce 87F84030 		strb	r3, [r7, #64]
 861              	.L55:
 218:main.c        ****         		for(uint8 LCDRx = 0; LCDRx < 20; LCDRx++){
 862              		.loc 1 218 0 is_stmt 0 discriminator 1
 863 03d2 97F84030 		ldrb	r3, [r7, #64]	@ zero_extendqisi2
 864 03d6 132B     		cmp	r3, #19
 865 03d8 F1D9     		bls	.L56
 866              	.LBE5:
 220:main.c        ****         		}		
 221:main.c        ****         	break;
 867              		.loc 1 221 0 is_stmt 1
 868 03da 00F061BD 		b	.L52
 869              	.L46:
 222:main.c        ****         	case 0xCA:
 223:main.c        ****         		W_autorize = 3;
 870              		.loc 1 223 0
 871 03de 0323     		movs	r3, #3
 872 03e0 87F84630 		strb	r3, [r7, #70]
 873              	.LBB6:
 224:main.c        ****         		for(uint8 LCDRx = 0; LCDRx < 20; LCDRx++){
 874              		.loc 1 224 0
 875 03e4 0023     		movs	r3, #0
 876 03e6 87F83F30 		strb	r3, [r7, #63]
 877 03ea 09E0     		b	.L57
 878              	.L58:
 225:main.c        ****         			touch1[LCDRx] = 0x00;
 879              		.loc 1 225 0 discriminator 3
 880 03ec 97F83F30 		ldrb	r3, [r7, #63]	@ zero_extendqisi2
 881 03f0 A04A     		ldr	r2, .L164
 882 03f2 0021     		movs	r1, #0
 883 03f4 D154     		strb	r1, [r2, r3]
 224:main.c        ****         		for(uint8 LCDRx = 0; LCDRx < 20; LCDRx++){
 884              		.loc 1 224 0 discriminator 3
 885 03f6 97F83F30 		ldrb	r3, [r7, #63]	@ zero_extendqisi2
 886 03fa 0133     		adds	r3, r3, #1
 887 03fc 87F83F30 		strb	r3, [r7, #63]
 888              	.L57:
 224:main.c        ****         		for(uint8 LCDRx = 0; LCDRx < 20; LCDRx++){
 889              		.loc 1 224 0 is_stmt 0 discriminator 1
 890 0400 97F83F30 		ldrb	r3, [r7, #63]	@ zero_extendqisi2
 891 0404 132B     		cmp	r3, #19
 892 0406 F1D9     		bls	.L58
 893              	.LBE6:
ARM GAS  C:\Users\Diego\AppData\Local\Temp\cccxrA3i.s 			page 21


 226:main.c        ****         		}		
 227:main.c        ****         	break;             
 894              		.loc 1 227 0 is_stmt 1
 895 0408 00F04ABD 		b	.L52
 896              	.L40:
 228:main.c        ****         	case 0x0A:
 229:main.c        ****         		if(W_autorize == 1){
 897              		.loc 1 229 0
 898 040c 97F84630 		ldrb	r3, [r7, #70]	@ zero_extendqisi2
 899 0410 012B     		cmp	r3, #1
 900 0412 19D1     		bne	.L59
 230:main.c        ****         			W_autorize = 0;                    
 901              		.loc 1 230 0
 902 0414 0023     		movs	r3, #0
 903 0416 87F84630 		strb	r3, [r7, #70]
 231:main.c        ****                     //PriceUpdate(side.a.dir,side.a.ppuNozzle[0]);
 232:main.c        ****                     Authorize(side.a.dir);
 904              		.loc 1 232 0
 905 041a 974B     		ldr	r3, .L164+4
 906 041c 1B78     		ldrb	r3, [r3]	@ zero_extendqisi2
 907 041e 1846     		mov	r0, r3
 908 0420 FFF7FEFF 		bl	Authorize
 909              	.LBB7:
 233:main.c        ****                     for(uint8 LCDRx = 0; LCDRx < 20; LCDRx++){
 910              		.loc 1 233 0
 911 0424 0023     		movs	r3, #0
 912 0426 87F83E30 		strb	r3, [r7, #62]
 913 042a 09E0     		b	.L60
 914              	.L61:
 234:main.c        ****                         touch1[LCDRx] = 0x00;
 915              		.loc 1 234 0 discriminator 3
 916 042c 97F83E30 		ldrb	r3, [r7, #62]	@ zero_extendqisi2
 917 0430 904A     		ldr	r2, .L164
 918 0432 0021     		movs	r1, #0
 919 0434 D154     		strb	r1, [r2, r3]
 233:main.c        ****                     for(uint8 LCDRx = 0; LCDRx < 20; LCDRx++){
 920              		.loc 1 233 0 discriminator 3
 921 0436 97F83E30 		ldrb	r3, [r7, #62]	@ zero_extendqisi2
 922 043a 0133     		adds	r3, r3, #1
 923 043c 87F83E30 		strb	r3, [r7, #62]
 924              	.L60:
 233:main.c        ****                     for(uint8 LCDRx = 0; LCDRx < 20; LCDRx++){
 925              		.loc 1 233 0 is_stmt 0 discriminator 1
 926 0440 97F83E30 		ldrb	r3, [r7, #62]	@ zero_extendqisi2
 927 0444 132B     		cmp	r3, #19
 928 0446 F1D9     		bls	.L61
 929              	.L59:
 930              	.LBE7:
 235:main.c        ****                     }
 236:main.c        ****         		}
 237:main.c        ****         		if(W_autorize == 2){ 
 931              		.loc 1 237 0 is_stmt 1
 932 0448 97F84630 		ldrb	r3, [r7, #70]	@ zero_extendqisi2
 933 044c 022B     		cmp	r3, #2
 934 044e 26D1     		bne	.L62
 238:main.c        ****                     W_autorize = 0x0A;
 935              		.loc 1 238 0
ARM GAS  C:\Users\Diego\AppData\Local\Temp\cccxrA3i.s 			page 22


 936 0450 0A23     		movs	r3, #10
 937 0452 87F84630 		strb	r3, [r7, #70]
 239:main.c        ****                     PumpState(side.a.dir);            
 938              		.loc 1 239 0
 939 0456 884B     		ldr	r3, .L164+4
 940 0458 1B78     		ldrb	r3, [r3]	@ zero_extendqisi2
 941 045a 1846     		mov	r0, r3
 942 045c FFF7FEFF 		bl	PumpState
 240:main.c        ****                     TotalRequest(side.a.dir, TotalRequestType, 1); //dir 0, volume, nozzle 1       
 943              		.loc 1 240 0
 944 0460 854B     		ldr	r3, .L164+4
 945 0462 1878     		ldrb	r0, [r3]	@ zero_extendqisi2
 946 0464 854B     		ldr	r3, .L164+8
 947 0466 1B78     		ldrb	r3, [r3]	@ zero_extendqisi2
 948 0468 0122     		movs	r2, #1
 949 046a 1946     		mov	r1, r3
 950 046c FFF7FEFF 		bl	TotalRequest
 241:main.c        ****                     PumpState(side.a.dir);
 951              		.loc 1 241 0
 952 0470 814B     		ldr	r3, .L164+4
 953 0472 1B78     		ldrb	r3, [r3]	@ zero_extendqisi2
 954 0474 1846     		mov	r0, r3
 955 0476 FFF7FEFF 		bl	PumpState
 956              	.LBB8:
 242:main.c        ****                     for(uint8 LCDRx = 0; LCDRx < 20; LCDRx++){
 957              		.loc 1 242 0
 958 047a 0023     		movs	r3, #0
 959 047c 87F83D30 		strb	r3, [r7, #61]
 960 0480 09E0     		b	.L63
 961              	.L64:
 243:main.c        ****                         touch1[LCDRx] = 0x00;
 962              		.loc 1 243 0 discriminator 3
 963 0482 97F83D30 		ldrb	r3, [r7, #61]	@ zero_extendqisi2
 964 0486 7B4A     		ldr	r2, .L164
 965 0488 0021     		movs	r1, #0
 966 048a D154     		strb	r1, [r2, r3]
 242:main.c        ****                     for(uint8 LCDRx = 0; LCDRx < 20; LCDRx++){
 967              		.loc 1 242 0 discriminator 3
 968 048c 97F83D30 		ldrb	r3, [r7, #61]	@ zero_extendqisi2
 969 0490 0133     		adds	r3, r3, #1
 970 0492 87F83D30 		strb	r3, [r7, #61]
 971              	.L63:
 242:main.c        ****                     for(uint8 LCDRx = 0; LCDRx < 20; LCDRx++){
 972              		.loc 1 242 0 is_stmt 0 discriminator 1
 973 0496 97F83D30 		ldrb	r3, [r7, #61]	@ zero_extendqisi2
 974 049a 132B     		cmp	r3, #19
 975 049c F1D9     		bls	.L64
 976              	.L62:
 977              	.LBE8:
 244:main.c        ****                     }                    
 245:main.c        ****         		}
 246:main.c        ****                 if(W_autorize == 'k'){                    
 978              		.loc 1 246 0 is_stmt 1
 979 049e 97F84630 		ldrb	r3, [r7, #70]	@ zero_extendqisi2
 980 04a2 6B2B     		cmp	r3, #107
 981 04a4 40F0F184 		bne	.L155
 247:main.c        ****                     W_autorize = 0x1A; 
ARM GAS  C:\Users\Diego\AppData\Local\Temp\cccxrA3i.s 			page 23


 982              		.loc 1 247 0
 983 04a8 1A23     		movs	r3, #26
 984 04aa 87F84630 		strb	r3, [r7, #70]
 248:main.c        ****                     PumpState(side.a.dir);            
 985              		.loc 1 248 0
 986 04ae 724B     		ldr	r3, .L164+4
 987 04b0 1B78     		ldrb	r3, [r3]	@ zero_extendqisi2
 988 04b2 1846     		mov	r0, r3
 989 04b4 FFF7FEFF 		bl	PumpState
 249:main.c        ****                     TotalRequest(side.a.dir, TotalRequestType, 1); //dir 0, volume, nozzle 1       
 990              		.loc 1 249 0
 991 04b8 6F4B     		ldr	r3, .L164+4
 992 04ba 1878     		ldrb	r0, [r3]	@ zero_extendqisi2
 993 04bc 6F4B     		ldr	r3, .L164+8
 994 04be 1B78     		ldrb	r3, [r3]	@ zero_extendqisi2
 995 04c0 0122     		movs	r2, #1
 996 04c2 1946     		mov	r1, r3
 997 04c4 FFF7FEFF 		bl	TotalRequest
 250:main.c        ****                     PumpState(side.a.dir);
 998              		.loc 1 250 0
 999 04c8 6B4B     		ldr	r3, .L164+4
 1000 04ca 1B78     		ldrb	r3, [r3]	@ zero_extendqisi2
 1001 04cc 1846     		mov	r0, r3
 1002 04ce FFF7FEFF 		bl	PumpState
 1003              	.LBB9:
 251:main.c        ****                     for(uint8 LCDRx = 0; LCDRx < 20; LCDRx++){
 1004              		.loc 1 251 0
 1005 04d2 0023     		movs	r3, #0
 1006 04d4 87F83C30 		strb	r3, [r7, #60]
 1007 04d8 09E0     		b	.L66
 1008              	.L67:
 252:main.c        ****                         touch1[LCDRx] = 0x00;
 1009              		.loc 1 252 0 discriminator 3
 1010 04da 97F83C30 		ldrb	r3, [r7, #60]	@ zero_extendqisi2
 1011 04de 654A     		ldr	r2, .L164
 1012 04e0 0021     		movs	r1, #0
 1013 04e2 D154     		strb	r1, [r2, r3]
 251:main.c        ****                     for(uint8 LCDRx = 0; LCDRx < 20; LCDRx++){
 1014              		.loc 1 251 0 discriminator 3
 1015 04e4 97F83C30 		ldrb	r3, [r7, #60]	@ zero_extendqisi2
 1016 04e8 0133     		adds	r3, r3, #1
 1017 04ea 87F83C30 		strb	r3, [r7, #60]
 1018              	.L66:
 251:main.c        ****                     for(uint8 LCDRx = 0; LCDRx < 20; LCDRx++){
 1019              		.loc 1 251 0 is_stmt 0 discriminator 1
 1020 04ee 97F83C30 		ldrb	r3, [r7, #60]	@ zero_extendqisi2
 1021 04f2 132B     		cmp	r3, #19
 1022 04f4 F1D9     		bls	.L67
 1023              	.LBE9:
 1024              	.LBB10:
 253:main.c        ****                     }
 254:main.c        ****                     for(uint8 LCDRx = 0; LCDRx < 8; LCDRx++){
 1025              		.loc 1 254 0 is_stmt 1
 1026 04f6 0023     		movs	r3, #0
 1027 04f8 87F83B30 		strb	r3, [r7, #59]
 1028 04fc 0BE0     		b	.L68
 1029              	.L69:
ARM GAS  C:\Users\Diego\AppData\Local\Temp\cccxrA3i.s 			page 24


 255:main.c        ****                         side.a.msn_plate[LCDRx] = 0x20;
 1030              		.loc 1 255 0 discriminator 3
 1031 04fe 97F83B30 		ldrb	r3, [r7, #59]	@ zero_extendqisi2
 1032 0502 5D4A     		ldr	r2, .L164+4
 1033 0504 1344     		add	r3, r3, r2
 1034 0506 2022     		movs	r2, #32
 1035 0508 83F82321 		strb	r2, [r3, #291]
 254:main.c        ****                         side.a.msn_plate[LCDRx] = 0x20;
 1036              		.loc 1 254 0 discriminator 3
 1037 050c 97F83B30 		ldrb	r3, [r7, #59]	@ zero_extendqisi2
 1038 0510 0133     		adds	r3, r3, #1
 1039 0512 87F83B30 		strb	r3, [r7, #59]
 1040              	.L68:
 254:main.c        ****                         side.a.msn_plate[LCDRx] = 0x20;
 1041              		.loc 1 254 0 is_stmt 0 discriminator 1
 1042 0516 97F83B30 		ldrb	r3, [r7, #59]	@ zero_extendqisi2
 1043 051a 072B     		cmp	r3, #7
 1044 051c EFD9     		bls	.L69
 1045              	.LBE10:
 1046              	.LBB11:
 256:main.c        ****                     }
 257:main.c        ****                     for(uint8 LCDRx = 0; LCDRx < 6; LCDRx++){
 1047              		.loc 1 257 0 is_stmt 1
 1048 051e 0023     		movs	r3, #0
 1049 0520 87F83A30 		strb	r3, [r7, #58]
 1050 0524 0BE0     		b	.L70
 1051              	.L71:
 258:main.c        ****                         side.a.km[LCDRx] = 0x20;
 1052              		.loc 1 258 0 discriminator 3
 1053 0526 97F83A30 		ldrb	r3, [r7, #58]	@ zero_extendqisi2
 1054 052a 534A     		ldr	r2, .L164+4
 1055 052c 1344     		add	r3, r3, r2
 1056 052e 2022     		movs	r2, #32
 1057 0530 83F82D21 		strb	r2, [r3, #301]
 257:main.c        ****                         side.a.km[LCDRx] = 0x20;
 1058              		.loc 1 257 0 discriminator 3
 1059 0534 97F83A30 		ldrb	r3, [r7, #58]	@ zero_extendqisi2
 1060 0538 0133     		adds	r3, r3, #1
 1061 053a 87F83A30 		strb	r3, [r7, #58]
 1062              	.L70:
 257:main.c        ****                         side.a.km[LCDRx] = 0x20;
 1063              		.loc 1 257 0 is_stmt 0 discriminator 1
 1064 053e 97F83A30 		ldrb	r3, [r7, #58]	@ zero_extendqisi2
 1065 0542 052B     		cmp	r3, #5
 1066 0544 EFD9     		bls	.L71
 1067              	.LBE11:
 259:main.c        ****                     }                                        
 260:main.c        ****         		}
 261:main.c        ****         	break;            
 1068              		.loc 1 261 0 is_stmt 1
 1069 0546 00F0A0BC 		b	.L155
 1070              	.L44:
 262:main.c        ****         	case 0x0B:
 263:main.c        ****         		if(W_autorize == 1){
 1071              		.loc 1 263 0
 1072 054a 97F84630 		ldrb	r3, [r7, #70]	@ zero_extendqisi2
 1073 054e 012B     		cmp	r3, #1
ARM GAS  C:\Users\Diego\AppData\Local\Temp\cccxrA3i.s 			page 25


 1074 0550 1AD1     		bne	.L72
 264:main.c        ****         			W_autorize = 0;
 1075              		.loc 1 264 0
 1076 0552 0023     		movs	r3, #0
 1077 0554 87F84630 		strb	r3, [r7, #70]
 265:main.c        ****                     //PriceUpdate(side.b.dir,side.b.ppuNozzle[0]);
 266:main.c        ****                     Authorize(side.b.dir);
 1078              		.loc 1 266 0
 1079 0558 474B     		ldr	r3, .L164+4
 1080 055a 93F83531 		ldrb	r3, [r3, #309]	@ zero_extendqisi2
 1081 055e 1846     		mov	r0, r3
 1082 0560 FFF7FEFF 		bl	Authorize
 1083              	.LBB12:
 267:main.c        ****                     for(uint8 LCDRx = 0; LCDRx < 20; LCDRx++){
 1084              		.loc 1 267 0
 1085 0564 0023     		movs	r3, #0
 1086 0566 87F83930 		strb	r3, [r7, #57]
 1087 056a 09E0     		b	.L73
 1088              	.L74:
 268:main.c        ****                         touch1[LCDRx] = 0x00;
 1089              		.loc 1 268 0 discriminator 3
 1090 056c 97F83930 		ldrb	r3, [r7, #57]	@ zero_extendqisi2
 1091 0570 404A     		ldr	r2, .L164
 1092 0572 0021     		movs	r1, #0
 1093 0574 D154     		strb	r1, [r2, r3]
 267:main.c        ****                     for(uint8 LCDRx = 0; LCDRx < 20; LCDRx++){
 1094              		.loc 1 267 0 discriminator 3
 1095 0576 97F83930 		ldrb	r3, [r7, #57]	@ zero_extendqisi2
 1096 057a 0133     		adds	r3, r3, #1
 1097 057c 87F83930 		strb	r3, [r7, #57]
 1098              	.L73:
 267:main.c        ****                     for(uint8 LCDRx = 0; LCDRx < 20; LCDRx++){
 1099              		.loc 1 267 0 is_stmt 0 discriminator 1
 1100 0580 97F83930 		ldrb	r3, [r7, #57]	@ zero_extendqisi2
 1101 0584 132B     		cmp	r3, #19
 1102 0586 F1D9     		bls	.L74
 1103              	.L72:
 1104              	.LBE12:
 269:main.c        ****                     }
 270:main.c        ****         		}
 271:main.c        ****         		if(W_autorize == 2){
 1105              		.loc 1 271 0 is_stmt 1
 1106 0588 97F84630 		ldrb	r3, [r7, #70]	@ zero_extendqisi2
 1107 058c 022B     		cmp	r3, #2
 1108 058e 17D1     		bne	.L75
 272:main.c        ****                     W_autorize = 0x0B;
 1109              		.loc 1 272 0
 1110 0590 0B23     		movs	r3, #11
 1111 0592 87F84630 		strb	r3, [r7, #70]
 273:main.c        ****                     PumpState(side.b.dir);            
 1112              		.loc 1 273 0
 1113 0596 384B     		ldr	r3, .L164+4
 1114 0598 93F83531 		ldrb	r3, [r3, #309]	@ zero_extendqisi2
 1115 059c 1846     		mov	r0, r3
 1116 059e FFF7FEFF 		bl	PumpState
 274:main.c        ****                     TotalRequest(side.b.dir, TotalRequestType, 1); //dir 0, volume, nozzle 1       
 1117              		.loc 1 274 0
ARM GAS  C:\Users\Diego\AppData\Local\Temp\cccxrA3i.s 			page 26


 1118 05a2 354B     		ldr	r3, .L164+4
 1119 05a4 93F83501 		ldrb	r0, [r3, #309]	@ zero_extendqisi2
 1120 05a8 344B     		ldr	r3, .L164+8
 1121 05aa 1B78     		ldrb	r3, [r3]	@ zero_extendqisi2
 1122 05ac 0122     		movs	r2, #1
 1123 05ae 1946     		mov	r1, r3
 1124 05b0 FFF7FEFF 		bl	TotalRequest
 275:main.c        ****                     PumpState(side.b.dir);                     
 1125              		.loc 1 275 0
 1126 05b4 304B     		ldr	r3, .L164+4
 1127 05b6 93F83531 		ldrb	r3, [r3, #309]	@ zero_extendqisi2
 1128 05ba 1846     		mov	r0, r3
 1129 05bc FFF7FEFF 		bl	PumpState
 1130              	.L75:
 276:main.c        ****                 }                
 277:main.c        ****                 if(W_autorize == 'k'){                    
 1131              		.loc 1 277 0
 1132 05c0 97F84630 		ldrb	r3, [r7, #70]	@ zero_extendqisi2
 1133 05c4 6B2B     		cmp	r3, #107
 1134 05c6 40F06284 		bne	.L156
 278:main.c        ****                     W_autorize = 0x1B; 
 1135              		.loc 1 278 0
 1136 05ca 1B23     		movs	r3, #27
 1137 05cc 87F84630 		strb	r3, [r7, #70]
 279:main.c        ****                     PumpState(side.b.dir);            
 1138              		.loc 1 279 0
 1139 05d0 294B     		ldr	r3, .L164+4
 1140 05d2 93F83531 		ldrb	r3, [r3, #309]	@ zero_extendqisi2
 1141 05d6 1846     		mov	r0, r3
 1142 05d8 FFF7FEFF 		bl	PumpState
 280:main.c        ****                     TotalRequest(side.b.dir, TotalRequestType, 1); //dir 0, volume, nozzle 1       
 1143              		.loc 1 280 0
 1144 05dc 264B     		ldr	r3, .L164+4
 1145 05de 93F83501 		ldrb	r0, [r3, #309]	@ zero_extendqisi2
 1146 05e2 264B     		ldr	r3, .L164+8
 1147 05e4 1B78     		ldrb	r3, [r3]	@ zero_extendqisi2
 1148 05e6 0122     		movs	r2, #1
 1149 05e8 1946     		mov	r1, r3
 1150 05ea FFF7FEFF 		bl	TotalRequest
 281:main.c        ****                     PumpState(side.b.dir);
 1151              		.loc 1 281 0
 1152 05ee 224B     		ldr	r3, .L164+4
 1153 05f0 93F83531 		ldrb	r3, [r3, #309]	@ zero_extendqisi2
 1154 05f4 1846     		mov	r0, r3
 1155 05f6 FFF7FEFF 		bl	PumpState
 1156              	.LBB13:
 282:main.c        ****                     for(uint8 LCDRx = 0; LCDRx < 20; LCDRx++){
 1157              		.loc 1 282 0
 1158 05fa 0023     		movs	r3, #0
 1159 05fc 87F83830 		strb	r3, [r7, #56]
 1160 0600 09E0     		b	.L77
 1161              	.L78:
 283:main.c        ****                         touch1[LCDRx] = 0x00;
 1162              		.loc 1 283 0 discriminator 3
 1163 0602 97F83830 		ldrb	r3, [r7, #56]	@ zero_extendqisi2
 1164 0606 1B4A     		ldr	r2, .L164
 1165 0608 0021     		movs	r1, #0
ARM GAS  C:\Users\Diego\AppData\Local\Temp\cccxrA3i.s 			page 27


 1166 060a D154     		strb	r1, [r2, r3]
 282:main.c        ****                     for(uint8 LCDRx = 0; LCDRx < 20; LCDRx++){
 1167              		.loc 1 282 0 discriminator 3
 1168 060c 97F83830 		ldrb	r3, [r7, #56]	@ zero_extendqisi2
 1169 0610 0133     		adds	r3, r3, #1
 1170 0612 87F83830 		strb	r3, [r7, #56]
 1171              	.L77:
 282:main.c        ****                     for(uint8 LCDRx = 0; LCDRx < 20; LCDRx++){
 1172              		.loc 1 282 0 is_stmt 0 discriminator 1
 1173 0616 97F83830 		ldrb	r3, [r7, #56]	@ zero_extendqisi2
 1174 061a 132B     		cmp	r3, #19
 1175 061c F1D9     		bls	.L78
 1176              	.LBE13:
 1177              	.LBB14:
 284:main.c        ****                     }
 285:main.c        ****                     for(uint8 LCDRx = 0; LCDRx < 8; LCDRx++){
 1178              		.loc 1 285 0 is_stmt 1
 1179 061e 0023     		movs	r3, #0
 1180 0620 87F83730 		strb	r3, [r7, #55]
 1181 0624 0BE0     		b	.L79
 1182              	.L80:
 286:main.c        ****                         side.b.msn_plate[LCDRx] = 0x20;
 1183              		.loc 1 286 0 discriminator 3
 1184 0626 97F83730 		ldrb	r3, [r7, #55]	@ zero_extendqisi2
 1185 062a 134A     		ldr	r2, .L164+4
 1186 062c 1344     		add	r3, r3, r2
 1187 062e 2022     		movs	r2, #32
 1188 0630 83F85822 		strb	r2, [r3, #600]
 285:main.c        ****                         side.b.msn_plate[LCDRx] = 0x20;
 1189              		.loc 1 285 0 discriminator 3
 1190 0634 97F83730 		ldrb	r3, [r7, #55]	@ zero_extendqisi2
 1191 0638 0133     		adds	r3, r3, #1
 1192 063a 87F83730 		strb	r3, [r7, #55]
 1193              	.L79:
 285:main.c        ****                         side.b.msn_plate[LCDRx] = 0x20;
 1194              		.loc 1 285 0 is_stmt 0 discriminator 1
 1195 063e 97F83730 		ldrb	r3, [r7, #55]	@ zero_extendqisi2
 1196 0642 072B     		cmp	r3, #7
 1197 0644 EFD9     		bls	.L80
 1198              	.LBE14:
 1199              	.LBB15:
 287:main.c        ****                     }
 288:main.c        ****                     for(uint8 LCDRx = 0; LCDRx < 6; LCDRx++){
 1200              		.loc 1 288 0 is_stmt 1
 1201 0646 0023     		movs	r3, #0
 1202 0648 87F83630 		strb	r3, [r7, #54]
 1203 064c 0BE0     		b	.L81
 1204              	.L82:
 289:main.c        ****                         side.b.km[LCDRx] = 0x20;
 1205              		.loc 1 289 0 discriminator 3
 1206 064e 97F83630 		ldrb	r3, [r7, #54]	@ zero_extendqisi2
 1207 0652 094A     		ldr	r2, .L164+4
 1208 0654 1344     		add	r3, r3, r2
 1209 0656 2022     		movs	r2, #32
 1210 0658 83F86222 		strb	r2, [r3, #610]
 288:main.c        ****                         side.b.km[LCDRx] = 0x20;
 1211              		.loc 1 288 0 discriminator 3
ARM GAS  C:\Users\Diego\AppData\Local\Temp\cccxrA3i.s 			page 28


 1212 065c 97F83630 		ldrb	r3, [r7, #54]	@ zero_extendqisi2
 1213 0660 0133     		adds	r3, r3, #1
 1214 0662 87F83630 		strb	r3, [r7, #54]
 1215              	.L81:
 288:main.c        ****                         side.b.km[LCDRx] = 0x20;
 1216              		.loc 1 288 0 is_stmt 0 discriminator 1
 1217 0666 97F83630 		ldrb	r3, [r7, #54]	@ zero_extendqisi2
 1218 066a 052B     		cmp	r3, #5
 1219 066c EFD9     		bls	.L82
 1220              	.LBE15:
 290:main.c        ****                     }                                        
 291:main.c        ****         		}
 292:main.c        ****         	break;
 1221              		.loc 1 292 0 is_stmt 1
 1222 066e 00F00EBC 		b	.L156
 1223              	.L165:
 1224 0672 00BF     		.align	2
 1225              	.L164:
 1226 0674 00000000 		.word	touch1
 1227 0678 00000000 		.word	side
 1228 067c 00000000 		.word	TotalRequestType
 1229              	.L50:
 293:main.c        ****         	case 0xCC:
 294:main.c        ****         		PumpState(side.b.dir);            
 1230              		.loc 1 294 0
 1231 0680 C54B     		ldr	r3, .L166
 1232 0682 93F83531 		ldrb	r3, [r3, #309]	@ zero_extendqisi2
 1233 0686 1846     		mov	r0, r3
 1234 0688 FFF7FEFF 		bl	PumpState
 295:main.c        ****         		TotalRequest(side.b.dir, TotalRequestType, 1); //dir 0, volume, nozzle 1      
 1235              		.loc 1 295 0
 1236 068c C24B     		ldr	r3, .L166
 1237 068e 93F83501 		ldrb	r0, [r3, #309]	@ zero_extendqisi2
 1238 0692 C24B     		ldr	r3, .L166+4
 1239 0694 1B78     		ldrb	r3, [r3]	@ zero_extendqisi2
 1240 0696 0122     		movs	r2, #1
 1241 0698 1946     		mov	r1, r3
 1242 069a FFF7FEFF 		bl	TotalRequest
 296:main.c        ****                 CyDelay(10);
 1243              		.loc 1 296 0
 1244 069e 0A20     		movs	r0, #10
 1245 06a0 FFF7FEFF 		bl	CyDelay
 297:main.c        ****         		PumpState(side.b.dir); 
 1246              		.loc 1 297 0
 1247 06a4 BC4B     		ldr	r3, .L166
 1248 06a6 93F83531 		ldrb	r3, [r3, #309]	@ zero_extendqisi2
 1249 06aa 1846     		mov	r0, r3
 1250 06ac FFF7FEFF 		bl	PumpState
 298:main.c        ****         		PumpState(side.a.dir);            
 1251              		.loc 1 298 0
 1252 06b0 B94B     		ldr	r3, .L166
 1253 06b2 1B78     		ldrb	r3, [r3]	@ zero_extendqisi2
 1254 06b4 1846     		mov	r0, r3
 1255 06b6 FFF7FEFF 		bl	PumpState
 299:main.c        ****         		TotalRequest(side.a.dir, TotalRequestType, 1); //dir 0, volume, nozzle 1   
 1256              		.loc 1 299 0
 1257 06ba B74B     		ldr	r3, .L166
ARM GAS  C:\Users\Diego\AppData\Local\Temp\cccxrA3i.s 			page 29


 1258 06bc 1878     		ldrb	r0, [r3]	@ zero_extendqisi2
 1259 06be B74B     		ldr	r3, .L166+4
 1260 06c0 1B78     		ldrb	r3, [r3]	@ zero_extendqisi2
 1261 06c2 0122     		movs	r2, #1
 1262 06c4 1946     		mov	r1, r3
 1263 06c6 FFF7FEFF 		bl	TotalRequest
 300:main.c        ****                 CyDelay(10);
 1264              		.loc 1 300 0
 1265 06ca 0A20     		movs	r0, #10
 1266 06cc FFF7FEFF 		bl	CyDelay
 301:main.c        ****         		PumpState(side.a.dir);
 1267              		.loc 1 301 0
 1268 06d0 B14B     		ldr	r3, .L166
 1269 06d2 1B78     		ldrb	r3, [r3]	@ zero_extendqisi2
 1270 06d4 1846     		mov	r0, r3
 1271 06d6 FFF7FEFF 		bl	PumpState
 302:main.c        ****                 PumpState(side.b.dir);
 1272              		.loc 1 302 0
 1273 06da AF4B     		ldr	r3, .L166
 1274 06dc 93F83531 		ldrb	r3, [r3, #309]	@ zero_extendqisi2
 1275 06e0 1846     		mov	r0, r3
 1276 06e2 FFF7FEFF 		bl	PumpState
 303:main.c        ****                 TotalRequest(side.b.dir, TotalRequestType, 2); //dir 0, volume, nozzle 1  
 1277              		.loc 1 303 0
 1278 06e6 AC4B     		ldr	r3, .L166
 1279 06e8 93F83501 		ldrb	r0, [r3, #309]	@ zero_extendqisi2
 1280 06ec AB4B     		ldr	r3, .L166+4
 1281 06ee 1B78     		ldrb	r3, [r3]	@ zero_extendqisi2
 1282 06f0 0222     		movs	r2, #2
 1283 06f2 1946     		mov	r1, r3
 1284 06f4 FFF7FEFF 		bl	TotalRequest
 304:main.c        ****                 CyDelay(10);
 1285              		.loc 1 304 0
 1286 06f8 0A20     		movs	r0, #10
 1287 06fa FFF7FEFF 		bl	CyDelay
 305:main.c        ****         		PumpState(side.b.dir); 
 1288              		.loc 1 305 0
 1289 06fe A64B     		ldr	r3, .L166
 1290 0700 93F83531 		ldrb	r3, [r3, #309]	@ zero_extendqisi2
 1291 0704 1846     		mov	r0, r3
 1292 0706 FFF7FEFF 		bl	PumpState
 306:main.c        ****         		PumpState(side.a.dir);            
 1293              		.loc 1 306 0
 1294 070a A34B     		ldr	r3, .L166
 1295 070c 1B78     		ldrb	r3, [r3]	@ zero_extendqisi2
 1296 070e 1846     		mov	r0, r3
 1297 0710 FFF7FEFF 		bl	PumpState
 307:main.c        ****         		TotalRequest(side.a.dir, TotalRequestType, 2); //dir 0, volume, nozzle 1 
 1298              		.loc 1 307 0
 1299 0714 A04B     		ldr	r3, .L166
 1300 0716 1878     		ldrb	r0, [r3]	@ zero_extendqisi2
 1301 0718 A04B     		ldr	r3, .L166+4
 1302 071a 1B78     		ldrb	r3, [r3]	@ zero_extendqisi2
 1303 071c 0222     		movs	r2, #2
 1304 071e 1946     		mov	r1, r3
 1305 0720 FFF7FEFF 		bl	TotalRequest
 308:main.c        ****                 CyDelay(10);
ARM GAS  C:\Users\Diego\AppData\Local\Temp\cccxrA3i.s 			page 30


 1306              		.loc 1 308 0
 1307 0724 0A20     		movs	r0, #10
 1308 0726 FFF7FEFF 		bl	CyDelay
 309:main.c        ****         		PumpState(side.a.dir);
 1309              		.loc 1 309 0
 1310 072a 9B4B     		ldr	r3, .L166
 1311 072c 1B78     		ldrb	r3, [r3]	@ zero_extendqisi2
 1312 072e 1846     		mov	r0, r3
 1313 0730 FFF7FEFF 		bl	PumpState
 310:main.c        ****                 PumpState(side.b.dir);
 1314              		.loc 1 310 0
 1315 0734 984B     		ldr	r3, .L166
 1316 0736 93F83531 		ldrb	r3, [r3, #309]	@ zero_extendqisi2
 1317 073a 1846     		mov	r0, r3
 1318 073c FFF7FEFF 		bl	PumpState
 1319              	.LBB16:
 311:main.c        ****         		for(uint8 LCDRx = 0; LCDRx < 20; LCDRx++){
 1320              		.loc 1 311 0
 1321 0740 0023     		movs	r3, #0
 1322 0742 87F83530 		strb	r3, [r7, #53]
 1323 0746 09E0     		b	.L83
 1324              	.L84:
 312:main.c        ****         			touch1[LCDRx] = 0x00;
 1325              		.loc 1 312 0 discriminator 3
 1326 0748 97F83530 		ldrb	r3, [r7, #53]	@ zero_extendqisi2
 1327 074c 944A     		ldr	r2, .L166+8
 1328 074e 0021     		movs	r1, #0
 1329 0750 D154     		strb	r1, [r2, r3]
 311:main.c        ****         		for(uint8 LCDRx = 0; LCDRx < 20; LCDRx++){
 1330              		.loc 1 311 0 discriminator 3
 1331 0752 97F83530 		ldrb	r3, [r7, #53]	@ zero_extendqisi2
 1332 0756 0133     		adds	r3, r3, #1
 1333 0758 87F83530 		strb	r3, [r7, #53]
 1334              	.L83:
 311:main.c        ****         		for(uint8 LCDRx = 0; LCDRx < 20; LCDRx++){
 1335              		.loc 1 311 0 is_stmt 0 discriminator 1
 1336 075c 97F83530 		ldrb	r3, [r7, #53]	@ zero_extendqisi2
 1337 0760 132B     		cmp	r3, #19
 1338 0762 F1D9     		bls	.L84
 1339              	.LBE16:
 313:main.c        ****         		}                        
 314:main.c        ****         		PrintShift(); 
 1340              		.loc 1 314 0 is_stmt 1
 1341 0764 FFF7FEFF 		bl	PrintShift
 315:main.c        ****         	break;
 1342              		.loc 1 315 0
 1343 0768 9AE3     		b	.L52
 1344              	.L48:
 316:main.c        ****             case 0x53:
 317:main.c        ****                 if(W_autorize == 0xAC){
 1345              		.loc 1 317 0
 1346 076a 97F84630 		ldrb	r3, [r7, #70]	@ zero_extendqisi2
 1347 076e AC2B     		cmp	r3, #172
 1348 0770 08D1     		bne	.L85
 318:main.c        ****                     side.a.Copy = 1;
 1349              		.loc 1 318 0
 1350 0772 894B     		ldr	r3, .L166
ARM GAS  C:\Users\Diego\AppData\Local\Temp\cccxrA3i.s 			page 31


 1351 0774 0122     		movs	r2, #1
 1352 0776 83F83421 		strb	r2, [r3, #308]
 319:main.c        ****                     PrintReceipt(side.a.dir);
 1353              		.loc 1 319 0
 1354 077a 874B     		ldr	r3, .L166
 1355 077c 1B78     		ldrb	r3, [r3]	@ zero_extendqisi2
 1356 077e 1846     		mov	r0, r3
 1357 0780 FFF7FEFF 		bl	PrintReceipt
 1358              	.L85:
 320:main.c        ****                 }
 321:main.c        ****                 if(W_autorize == 0xBC){
 1359              		.loc 1 321 0
 1360 0784 97F84630 		ldrb	r3, [r7, #70]	@ zero_extendqisi2
 1361 0788 BC2B     		cmp	r3, #188
 1362 078a 40F08283 		bne	.L157
 322:main.c        ****                     side.b.Copy = 1;
 1363              		.loc 1 322 0
 1364 078e 824B     		ldr	r3, .L166
 1365 0790 0122     		movs	r2, #1
 1366 0792 83F86922 		strb	r2, [r3, #617]
 323:main.c        ****                     PrintReceipt(side.b.dir);
 1367              		.loc 1 323 0
 1368 0796 804B     		ldr	r3, .L166
 1369 0798 93F83531 		ldrb	r3, [r3, #309]	@ zero_extendqisi2
 1370 079c 1846     		mov	r0, r3
 1371 079e FFF7FEFF 		bl	PrintReceipt
 324:main.c        ****                 }                
 325:main.c        ****             break;
 1372              		.loc 1 325 0
 1373 07a2 76E3     		b	.L157
 1374              	.L38:
 326:main.c        ****             case 0x4E:
 327:main.c        ****                 if(W_autorize == 0xAC){
 1375              		.loc 1 327 0
 1376 07a4 97F84630 		ldrb	r3, [r7, #70]	@ zero_extendqisi2
 1377 07a8 AC2B     		cmp	r3, #172
 1378 07aa 06D1     		bne	.L87
 328:main.c        ****                     W_autorize = 0;
 1379              		.loc 1 328 0
 1380 07ac 0023     		movs	r3, #0
 1381 07ae 87F84630 		strb	r3, [r7, #70]
 329:main.c        ****                     side.a.Copy = 0;                    
 1382              		.loc 1 329 0
 1383 07b2 794B     		ldr	r3, .L166
 1384 07b4 0022     		movs	r2, #0
 1385 07b6 83F83421 		strb	r2, [r3, #308]
 1386              	.L87:
 330:main.c        ****                 }
 331:main.c        ****                 if(W_autorize == 0xBC){
 1387              		.loc 1 331 0
 1388 07ba 97F84630 		ldrb	r3, [r7, #70]	@ zero_extendqisi2
 1389 07be BC2B     		cmp	r3, #188
 1390 07c0 40F06983 		bne	.L158
 332:main.c        ****                     W_autorize = 0;
 1391              		.loc 1 332 0
 1392 07c4 0023     		movs	r3, #0
 1393 07c6 87F84630 		strb	r3, [r7, #70]
ARM GAS  C:\Users\Diego\AppData\Local\Temp\cccxrA3i.s 			page 32


 333:main.c        ****                     side.b.Copy = 0;                                        
 1394              		.loc 1 333 0
 1395 07ca 734B     		ldr	r3, .L166
 1396 07cc 0022     		movs	r2, #0
 1397 07ce 83F86922 		strb	r2, [r3, #617]
 334:main.c        ****                 }                
 335:main.c        ****             break;
 1398              		.loc 1 335 0
 1399 07d2 60E3     		b	.L158
 1400              	.L51:
 336:main.c        ****             case 0xE1:
 337:main.c        ****                 if(W_autorize == 0xE1){
 1401              		.loc 1 337 0
 1402 07d4 97F84630 		ldrb	r3, [r7, #70]	@ zero_extendqisi2
 1403 07d8 E12B     		cmp	r3, #225
 1404 07da 02D1     		bne	.L89
 338:main.c        ****                     W_autorize = 0xC1;
 1405              		.loc 1 338 0
 1406 07dc C123     		movs	r3, #193
 1407 07de 87F84630 		strb	r3, [r7, #70]
 1408              	.L89:
 339:main.c        ****                 }
 340:main.c        ****                 if(W_autorize == 0xE2){
 1409              		.loc 1 340 0
 1410 07e2 97F84630 		ldrb	r3, [r7, #70]	@ zero_extendqisi2
 1411 07e6 E22B     		cmp	r3, #226
 1412 07e8 40F05783 		bne	.L159
 341:main.c        ****                     W_autorize = 0xC2;
 1413              		.loc 1 341 0
 1414 07ec C223     		movs	r3, #194
 1415 07ee 87F84630 		strb	r3, [r7, #70]
 342:main.c        ****                 }
 343:main.c        ****             break;
 1416              		.loc 1 343 0
 1417 07f2 52E3     		b	.L159
 1418              	.L37:
 344:main.c        ****         	default:
 345:main.c        ****                 if(touch1[3] == 0x83 && price_change == 0x0A && touch1[8] != 0xE1){
 1419              		.loc 1 345 0
 1420 07f4 6A4B     		ldr	r3, .L166+8
 1421 07f6 DB78     		ldrb	r3, [r3, #3]	@ zero_extendqisi2
 1422 07f8 832B     		cmp	r3, #131
 1423 07fa 40F0E380 		bne	.L91
 1424              		.loc 1 345 0 is_stmt 0 discriminator 1
 1425 07fe 97F84430 		ldrb	r3, [r7, #68]	@ zero_extendqisi2
 1426 0802 0A2B     		cmp	r3, #10
 1427 0804 40F0DE80 		bne	.L91
 1428              		.loc 1 345 0 discriminator 2
 1429 0808 654B     		ldr	r3, .L166+8
 1430 080a 1B7A     		ldrb	r3, [r3, #8]	@ zero_extendqisi2
 1431 080c E12B     		cmp	r3, #225
 1432 080e 00F0D980 		beq	.L91
 1433              	.LBB17:
 346:main.c        ****                     for(uint8 LCDRx = 0; LCDRx < 6; LCDRx++){                        
 1434              		.loc 1 346 0 is_stmt 1
 1435 0812 0023     		movs	r3, #0
 1436 0814 87F83430 		strb	r3, [r7, #52]
ARM GAS  C:\Users\Diego\AppData\Local\Temp\cccxrA3i.s 			page 33


 1437 0818 0BE0     		b	.L92
 1438              	.L93:
 347:main.c        ****                         side.a.ProcessedPPU[0][LCDRx] = 0x30;
 1439              		.loc 1 347 0 discriminator 3
 1440 081a 97F83430 		ldrb	r3, [r7, #52]	@ zero_extendqisi2
 1441 081e 5E4A     		ldr	r2, .L166
 1442 0820 1344     		add	r3, r3, r2
 1443 0822 3022     		movs	r2, #48
 1444 0824 83F80B21 		strb	r2, [r3, #267]
 346:main.c        ****                     for(uint8 LCDRx = 0; LCDRx < 6; LCDRx++){                        
 1445              		.loc 1 346 0 discriminator 3
 1446 0828 97F83430 		ldrb	r3, [r7, #52]	@ zero_extendqisi2
 1447 082c 0133     		adds	r3, r3, #1
 1448 082e 87F83430 		strb	r3, [r7, #52]
 1449              	.L92:
 346:main.c        ****                     for(uint8 LCDRx = 0; LCDRx < 6; LCDRx++){                        
 1450              		.loc 1 346 0 is_stmt 0 discriminator 1
 1451 0832 97F83430 		ldrb	r3, [r7, #52]	@ zero_extendqisi2
 1452 0836 052B     		cmp	r3, #5
 1453 0838 EFD9     		bls	.L93
 1454              	.LBE17:
 348:main.c        ****             		}
 349:main.c        ****                     y = 0;
 1455              		.loc 1 349 0 is_stmt 1
 1456 083a 0023     		movs	r3, #0
 1457 083c 87F84530 		strb	r3, [r7, #69]
 350:main.c        ****                     LCDhose = 0;
 1458              		.loc 1 350 0
 1459 0840 584B     		ldr	r3, .L166+12
 1460 0842 0022     		movs	r2, #0
 1461 0844 1A70     		strb	r2, [r3]
 351:main.c        ****                     price_change = 0;
 1462              		.loc 1 351 0
 1463 0846 0023     		movs	r3, #0
 1464 0848 87F84430 		strb	r3, [r7, #68]
 1465              	.LBB18:
 352:main.c        ****                     for(uint8 LCDRx = 7; LCDRx < 12; LCDRx++){
 1466              		.loc 1 352 0
 1467 084c 0723     		movs	r3, #7
 1468 084e 87F83330 		strb	r3, [r7, #51]
 1469 0852 21E0     		b	.L94
 1470              	.L96:
 353:main.c        ****                         if((touch1[LCDRx] == 0x00) ||(touch1[LCDRx] == 0xFF))
 1471              		.loc 1 353 0
 1472 0854 97F83330 		ldrb	r3, [r7, #51]	@ zero_extendqisi2
 1473 0858 514A     		ldr	r2, .L166+8
 1474 085a D35C     		ldrb	r3, [r2, r3]	@ zero_extendqisi2
 1475 085c 002B     		cmp	r3, #0
 1476 085e 1FD0     		beq	.L95
 1477              		.loc 1 353 0 is_stmt 0 discriminator 1
 1478 0860 97F83330 		ldrb	r3, [r7, #51]	@ zero_extendqisi2
 1479 0864 4E4A     		ldr	r2, .L166+8
 1480 0866 D35C     		ldrb	r3, [r2, r3]	@ zero_extendqisi2
 1481 0868 FF2B     		cmp	r3, #255
 1482 086a 19D0     		beq	.L95
 354:main.c        ****                             break;
 355:main.c        ****                         auxPrice[LCDRx-7] = touch1[LCDRx];
ARM GAS  C:\Users\Diego\AppData\Local\Temp\cccxrA3i.s 			page 34


 1483              		.loc 1 355 0 is_stmt 1 discriminator 2
 1484 086c 97F83330 		ldrb	r3, [r7, #51]	@ zero_extendqisi2
 1485 0870 073B     		subs	r3, r3, #7
 1486 0872 97F83320 		ldrb	r2, [r7, #51]	@ zero_extendqisi2
 1487 0876 4A49     		ldr	r1, .L166+8
 1488 0878 8A5C     		ldrb	r2, [r1, r2]	@ zero_extendqisi2
 1489 087a 07F14801 		add	r1, r7, #72
 1490 087e 0B44     		add	r3, r3, r1
 1491 0880 03F8442C 		strb	r2, [r3, #-68]
 356:main.c        ****                         y++;
 1492              		.loc 1 356 0 discriminator 2
 1493 0884 97F84530 		ldrb	r3, [r7, #69]	@ zero_extendqisi2
 1494 0888 0133     		adds	r3, r3, #1
 1495 088a 87F84530 		strb	r3, [r7, #69]
 352:main.c        ****                         if((touch1[LCDRx] == 0x00) ||(touch1[LCDRx] == 0xFF))
 1496              		.loc 1 352 0 discriminator 2
 1497 088e 97F83330 		ldrb	r3, [r7, #51]	@ zero_extendqisi2
 1498 0892 0133     		adds	r3, r3, #1
 1499 0894 87F83330 		strb	r3, [r7, #51]
 1500              	.L94:
 352:main.c        ****                         if((touch1[LCDRx] == 0x00) ||(touch1[LCDRx] == 0xFF))
 1501              		.loc 1 352 0 is_stmt 0 discriminator 1
 1502 0898 97F83330 		ldrb	r3, [r7, #51]	@ zero_extendqisi2
 1503 089c 0B2B     		cmp	r3, #11
 1504 089e D9D9     		bls	.L96
 1505              	.L95:
 1506              	.LBE18:
 357:main.c        ****             		}
 358:main.c        ****                     for (x = 6; x >0; x--){
 1507              		.loc 1 358 0 is_stmt 1
 1508 08a0 0623     		movs	r3, #6
 1509 08a2 87F84730 		strb	r3, [r7, #71]
 1510 08a6 1BE0     		b	.L97
 1511              	.L100:
 359:main.c        ****                         side.a.ProcessedPPU[0][x] = auxPrice[y];                        
 1512              		.loc 1 359 0
 1513 08a8 97F84730 		ldrb	r3, [r7, #71]	@ zero_extendqisi2
 1514 08ac 97F84520 		ldrb	r2, [r7, #69]	@ zero_extendqisi2
 1515 08b0 07F14801 		add	r1, r7, #72
 1516 08b4 0A44     		add	r2, r2, r1
 1517 08b6 12F8441C 		ldrb	r1, [r2, #-68]	@ zero_extendqisi2
 1518 08ba 374A     		ldr	r2, .L166
 1519 08bc 1344     		add	r3, r3, r2
 1520 08be 0A46     		mov	r2, r1
 1521 08c0 83F80B21 		strb	r2, [r3, #267]
 360:main.c        ****                         if(y == 0 )
 1522              		.loc 1 360 0
 1523 08c4 97F84530 		ldrb	r3, [r7, #69]	@ zero_extendqisi2
 1524 08c8 002B     		cmp	r3, #0
 1525 08ca 0ED0     		beq	.L160
 361:main.c        ****                             break;
 362:main.c        ****                         y--;
 1526              		.loc 1 362 0 discriminator 2
 1527 08cc 97F84530 		ldrb	r3, [r7, #69]	@ zero_extendqisi2
 1528 08d0 013B     		subs	r3, r3, #1
 1529 08d2 87F84530 		strb	r3, [r7, #69]
 358:main.c        ****                         side.a.ProcessedPPU[0][x] = auxPrice[y];                        
ARM GAS  C:\Users\Diego\AppData\Local\Temp\cccxrA3i.s 			page 35


 1530              		.loc 1 358 0 discriminator 2
 1531 08d6 97F84730 		ldrb	r3, [r7, #71]	@ zero_extendqisi2
 1532 08da 013B     		subs	r3, r3, #1
 1533 08dc 87F84730 		strb	r3, [r7, #71]
 1534              	.L97:
 358:main.c        ****                         side.a.ProcessedPPU[0][x] = auxPrice[y];                        
 1535              		.loc 1 358 0 is_stmt 0 discriminator 1
 1536 08e0 97F84730 		ldrb	r3, [r7, #71]	@ zero_extendqisi2
 1537 08e4 002B     		cmp	r3, #0
 1538 08e6 DFD1     		bne	.L100
 1539 08e8 00E0     		b	.L99
 1540              	.L160:
 361:main.c        ****                             break;
 1541              		.loc 1 361 0 is_stmt 1
 1542 08ea 00BF     		nop
 1543              	.L99:
 363:main.c        ****                     }
 364:main.c        ****                     
 365:main.c        ****                     side.a.ppuNozzle[0][0] = ((side.a.ProcessedPPU[0][0] - 0x30)<<4) |((side.a.Proc
 1544              		.loc 1 365 0
 1545 08ec 2A4B     		ldr	r3, .L166
 1546 08ee 93F80B31 		ldrb	r3, [r3, #267]	@ zero_extendqisi2
 1547 08f2 303B     		subs	r3, r3, #48
 1548 08f4 1B01     		lsls	r3, r3, #4
 1549 08f6 5AB2     		sxtb	r2, r3
 1550 08f8 274B     		ldr	r3, .L166
 1551 08fa 93F80C31 		ldrb	r3, [r3, #268]	@ zero_extendqisi2
 1552 08fe 303B     		subs	r3, r3, #48
 1553 0900 DBB2     		uxtb	r3, r3
 1554 0902 5BB2     		sxtb	r3, r3
 1555 0904 1343     		orrs	r3, r3, r2
 1556 0906 5BB2     		sxtb	r3, r3
 1557 0908 DAB2     		uxtb	r2, r3
 1558 090a 234B     		ldr	r3, .L166
 1559 090c 83F82920 		strb	r2, [r3, #41]
 366:main.c        ****                     side.a.ppuNozzle[0][1] = ((side.a.ProcessedPPU[0][2] - 0x30)<<4) |((side.a.Proc
 1560              		.loc 1 366 0
 1561 0910 214B     		ldr	r3, .L166
 1562 0912 93F80D31 		ldrb	r3, [r3, #269]	@ zero_extendqisi2
 1563 0916 303B     		subs	r3, r3, #48
 1564 0918 1B01     		lsls	r3, r3, #4
 1565 091a 5AB2     		sxtb	r2, r3
 1566 091c 1E4B     		ldr	r3, .L166
 1567 091e 93F80E31 		ldrb	r3, [r3, #270]	@ zero_extendqisi2
 1568 0922 303B     		subs	r3, r3, #48
 1569 0924 DBB2     		uxtb	r3, r3
 1570 0926 5BB2     		sxtb	r3, r3
 1571 0928 1343     		orrs	r3, r3, r2
 1572 092a 5BB2     		sxtb	r3, r3
 1573 092c DAB2     		uxtb	r2, r3
 1574 092e 1A4B     		ldr	r3, .L166
 1575 0930 83F82A20 		strb	r2, [r3, #42]
 367:main.c        ****                     side.a.ppuNozzle[0][2] = ((side.a.ProcessedPPU[0][4] - 0x30)<<4) |((side.a.Proc
 1576              		.loc 1 367 0
 1577 0934 184B     		ldr	r3, .L166
 1578 0936 93F80F31 		ldrb	r3, [r3, #271]	@ zero_extendqisi2
 1579 093a 303B     		subs	r3, r3, #48
ARM GAS  C:\Users\Diego\AppData\Local\Temp\cccxrA3i.s 			page 36


 1580 093c 1B01     		lsls	r3, r3, #4
 1581 093e 5AB2     		sxtb	r2, r3
 1582 0940 154B     		ldr	r3, .L166
 1583 0942 93F81031 		ldrb	r3, [r3, #272]	@ zero_extendqisi2
 1584 0946 303B     		subs	r3, r3, #48
 1585 0948 DBB2     		uxtb	r3, r3
 1586 094a 5BB2     		sxtb	r3, r3
 1587 094c 1343     		orrs	r3, r3, r2
 1588 094e 5BB2     		sxtb	r3, r3
 1589 0950 DAB2     		uxtb	r2, r3
 1590 0952 114B     		ldr	r3, .L166
 1591 0954 83F82B20 		strb	r2, [r3, #43]
 368:main.c        ****                     for(x = 0; x < 3; x++){
 1592              		.loc 1 368 0
 1593 0958 0023     		movs	r3, #0
 1594 095a 87F84730 		strb	r3, [r7, #71]
 1595 095e 13E0     		b	.L101
 1596              	.L102:
 369:main.c        ****                         EEPROM_1_WriteByte(side.a.ppuNozzle[0][x],12+x);
 1597              		.loc 1 369 0 discriminator 3
 1598 0960 97F84730 		ldrb	r3, [r7, #71]	@ zero_extendqisi2
 1599 0964 0C4A     		ldr	r2, .L166
 1600 0966 1344     		add	r3, r3, r2
 1601 0968 93F82920 		ldrb	r2, [r3, #41]	@ zero_extendqisi2
 1602 096c 97F84730 		ldrb	r3, [r7, #71]	@ zero_extendqisi2
 1603 0970 9BB2     		uxth	r3, r3
 1604 0972 0C33     		adds	r3, r3, #12
 1605 0974 9BB2     		uxth	r3, r3
 1606 0976 1946     		mov	r1, r3
 1607 0978 1046     		mov	r0, r2
 1608 097a FFF7FEFF 		bl	EEPROM_1_WriteByte
 368:main.c        ****                     for(x = 0; x < 3; x++){
 1609              		.loc 1 368 0 discriminator 3
 1610 097e 97F84730 		ldrb	r3, [r7, #71]	@ zero_extendqisi2
 1611 0982 0133     		adds	r3, r3, #1
 1612 0984 87F84730 		strb	r3, [r7, #71]
 1613              	.L101:
 368:main.c        ****                     for(x = 0; x < 3; x++){
 1614              		.loc 1 368 0 is_stmt 0 discriminator 1
 1615 0988 97F84730 		ldrb	r3, [r7, #71]	@ zero_extendqisi2
 1616 098c 022B     		cmp	r3, #2
 1617 098e E7D9     		bls	.L102
 1618              	.LBB19:
 370:main.c        ****                     }                                                            
 371:main.c        ****                     for(uint8 LCDRx = 0; LCDRx < 20; LCDRx++){
 1619              		.loc 1 371 0 is_stmt 1
 1620 0990 0023     		movs	r3, #0
 1621 0992 87F83230 		strb	r3, [r7, #50]
 1622 0996 11E0     		b	.L103
 1623              	.L167:
 1624              		.align	2
 1625              	.L166:
 1626 0998 00000000 		.word	side
 1627 099c 00000000 		.word	TotalRequestType
 1628 09a0 00000000 		.word	touch1
 1629 09a4 00000000 		.word	LCDhose
 1630              	.L104:
ARM GAS  C:\Users\Diego\AppData\Local\Temp\cccxrA3i.s 			page 37


 372:main.c        ****             			touch1[LCDRx] = 0x00;
 1631              		.loc 1 372 0 discriminator 3
 1632 09a8 97F83230 		ldrb	r3, [r7, #50]	@ zero_extendqisi2
 1633 09ac AE4A     		ldr	r2, .L168
 1634 09ae 0021     		movs	r1, #0
 1635 09b0 D154     		strb	r1, [r2, r3]
 371:main.c        ****             			touch1[LCDRx] = 0x00;
 1636              		.loc 1 371 0 discriminator 3
 1637 09b2 97F83230 		ldrb	r3, [r7, #50]	@ zero_extendqisi2
 1638 09b6 0133     		adds	r3, r3, #1
 1639 09b8 87F83230 		strb	r3, [r7, #50]
 1640              	.L103:
 371:main.c        ****             			touch1[LCDRx] = 0x00;
 1641              		.loc 1 371 0 is_stmt 0 discriminator 1
 1642 09bc 97F83230 		ldrb	r3, [r7, #50]	@ zero_extendqisi2
 1643 09c0 132B     		cmp	r3, #19
 1644 09c2 F1D9     		bls	.L104
 1645              	.L91:
 1646              	.LBE19:
 373:main.c        ****             		}
 374:main.c        ****                 }
 375:main.c        ****                 if(touch1[3] == 0x83 && price_change == 1 ){
 1647              		.loc 1 375 0 is_stmt 1
 1648 09c4 A84B     		ldr	r3, .L168
 1649 09c6 DB78     		ldrb	r3, [r3, #3]	@ zero_extendqisi2
 1650 09c8 832B     		cmp	r3, #131
 1651 09ca 0AD1     		bne	.L105
 1652              		.loc 1 375 0 is_stmt 0 discriminator 1
 1653 09cc 97F84430 		ldrb	r3, [r7, #68]	@ zero_extendqisi2
 1654 09d0 012B     		cmp	r3, #1
 1655 09d2 06D1     		bne	.L105
 376:main.c        ****                     LCDhose = touch1[8];
 1656              		.loc 1 376 0 is_stmt 1
 1657 09d4 A44B     		ldr	r3, .L168
 1658 09d6 1A7A     		ldrb	r2, [r3, #8]	@ zero_extendqisi2
 1659 09d8 A44B     		ldr	r3, .L168+4
 1660 09da 1A70     		strb	r2, [r3]
 377:main.c        ****                     price_change = 0x0A;
 1661              		.loc 1 377 0
 1662 09dc 0A23     		movs	r3, #10
 1663 09de 87F84430 		strb	r3, [r7, #68]
 1664              	.L105:
 378:main.c        ****                 }
 379:main.c        ****         		if(touch1[3] == 0x83 && W_autorize == 3){             
 1665              		.loc 1 379 0
 1666 09e2 A14B     		ldr	r3, .L168
 1667 09e4 DB78     		ldrb	r3, [r3, #3]	@ zero_extendqisi2
 1668 09e6 832B     		cmp	r3, #131
 1669 09e8 58D1     		bne	.L106
 1670              		.loc 1 379 0 is_stmt 0 discriminator 1
 1671 09ea 97F84630 		ldrb	r3, [r7, #70]	@ zero_extendqisi2
 1672 09ee 032B     		cmp	r3, #3
 1673 09f0 54D1     		bne	.L106
 380:main.c        ****                     W_autorize = 0;
 1674              		.loc 1 380 0 is_stmt 1
 1675 09f2 0023     		movs	r3, #0
 1676 09f4 87F84630 		strb	r3, [r7, #70]
ARM GAS  C:\Users\Diego\AppData\Local\Temp\cccxrA3i.s 			page 38


 381:main.c        ****                     if((touch1[7] == passw[0])&&(touch1[8] == passw[1])&&(touch1[9] == passw[2]) &&
 1677              		.loc 1 381 0
 1678 09f8 9B4B     		ldr	r3, .L168
 1679 09fa DA79     		ldrb	r2, [r3, #7]	@ zero_extendqisi2
 1680 09fc 3B7F     		ldrb	r3, [r7, #28]	@ zero_extendqisi2
 1681 09fe 9A42     		cmp	r2, r3
 1682 0a00 2CD1     		bne	.L107
 1683              		.loc 1 381 0 is_stmt 0 discriminator 1
 1684 0a02 994B     		ldr	r3, .L168
 1685 0a04 1A7A     		ldrb	r2, [r3, #8]	@ zero_extendqisi2
 1686 0a06 7B7F     		ldrb	r3, [r7, #29]	@ zero_extendqisi2
 1687 0a08 9A42     		cmp	r2, r3
 1688 0a0a 27D1     		bne	.L107
 1689              		.loc 1 381 0 discriminator 2
 1690 0a0c 964B     		ldr	r3, .L168
 1691 0a0e 5A7A     		ldrb	r2, [r3, #9]	@ zero_extendqisi2
 1692 0a10 BB7F     		ldrb	r3, [r7, #30]	@ zero_extendqisi2
 1693 0a12 9A42     		cmp	r2, r3
 1694 0a14 22D1     		bne	.L107
 1695              		.loc 1 381 0 discriminator 3
 1696 0a16 944B     		ldr	r3, .L168
 1697 0a18 9A7A     		ldrb	r2, [r3, #10]	@ zero_extendqisi2
 1698 0a1a FB7F     		ldrb	r3, [r7, #31]	@ zero_extendqisi2
 1699 0a1c 9A42     		cmp	r2, r3
 1700 0a1e 1DD1     		bne	.L107
 1701              		.loc 1 381 0 discriminator 4
 1702 0a20 914B     		ldr	r3, .L168
 1703 0a22 DB7A     		ldrb	r3, [r3, #11]	@ zero_extendqisi2
 1704 0a24 FF2B     		cmp	r3, #255
 1705 0a26 19D1     		bne	.L107
 1706              	.LBB20:
 382:main.c        ****                         for(uint8 LCDRx = 0; LCDRx < 6; LCDRx++){
 1707              		.loc 1 382 0 is_stmt 1
 1708 0a28 0023     		movs	r3, #0
 1709 0a2a 87F83130 		strb	r3, [r7, #49]
 1710 0a2e 0EE0     		b	.L108
 1711              	.L109:
 383:main.c        ****                             screen_PutChar(change_pic[LCDRx]);
 1712              		.loc 1 383 0 discriminator 3
 1713 0a30 97F83130 		ldrb	r3, [r7, #49]	@ zero_extendqisi2
 1714 0a34 07F14802 		add	r2, r7, #72
 1715 0a38 1344     		add	r3, r3, r2
 1716 0a3a 13F8343C 		ldrb	r3, [r3, #-52]	@ zero_extendqisi2
 1717 0a3e 1846     		mov	r0, r3
 1718 0a40 FFF7FEFF 		bl	screen_PutChar
 382:main.c        ****                         for(uint8 LCDRx = 0; LCDRx < 6; LCDRx++){
 1719              		.loc 1 382 0 discriminator 3
 1720 0a44 97F83130 		ldrb	r3, [r7, #49]	@ zero_extendqisi2
 1721 0a48 0133     		adds	r3, r3, #1
 1722 0a4a 87F83130 		strb	r3, [r7, #49]
 1723              	.L108:
 382:main.c        ****                         for(uint8 LCDRx = 0; LCDRx < 6; LCDRx++){
 1724              		.loc 1 382 0 is_stmt 0 discriminator 1
 1725 0a4e 97F83130 		ldrb	r3, [r7, #49]	@ zero_extendqisi2
 1726 0a52 052B     		cmp	r3, #5
 1727 0a54 ECD9     		bls	.L109
 1728              	.LBE20:
ARM GAS  C:\Users\Diego\AppData\Local\Temp\cccxrA3i.s 			page 39


 384:main.c        ****                         }
 385:main.c        ****                         CyDelay(4);
 1729              		.loc 1 385 0 is_stmt 1
 1730 0a56 0420     		movs	r0, #4
 1731 0a58 FFF7FEFF 		bl	CyDelay
 1732              	.L107:
 386:main.c        ****                     }
 387:main.c        ****                     if(touch1[8] == 0x01)
 1733              		.loc 1 387 0
 1734 0a5c 824B     		ldr	r3, .L168
 1735 0a5e 1B7A     		ldrb	r3, [r3, #8]	@ zero_extendqisi2
 1736 0a60 012B     		cmp	r3, #1
 1737 0a62 02D1     		bne	.L110
 388:main.c        ****                         price_change = 1;
 1738              		.loc 1 388 0
 1739 0a64 0123     		movs	r3, #1
 1740 0a66 87F84430 		strb	r3, [r7, #68]
 1741              	.L110:
 389:main.c        ****                     if(touch1[8] == 0x02)
 1742              		.loc 1 389 0
 1743 0a6a 7F4B     		ldr	r3, .L168
 1744 0a6c 1B7A     		ldrb	r3, [r3, #8]	@ zero_extendqisi2
 1745 0a6e 022B     		cmp	r3, #2
 1746 0a70 02D1     		bne	.L111
 390:main.c        ****                         price_change = 2;
 1747              		.loc 1 390 0
 1748 0a72 0223     		movs	r3, #2
 1749 0a74 87F84430 		strb	r3, [r7, #68]
 1750              	.L111:
 1751              	.LBB21:
 391:main.c        ****                     for(uint8 LCDRx = 0; LCDRx < 20; LCDRx++){
 1752              		.loc 1 391 0
 1753 0a78 0023     		movs	r3, #0
 1754 0a7a 87F83030 		strb	r3, [r7, #48]
 1755 0a7e 09E0     		b	.L112
 1756              	.L113:
 392:main.c        ****             			touch1[LCDRx] = 0x00;
 1757              		.loc 1 392 0 discriminator 3
 1758 0a80 97F83030 		ldrb	r3, [r7, #48]	@ zero_extendqisi2
 1759 0a84 784A     		ldr	r2, .L168
 1760 0a86 0021     		movs	r1, #0
 1761 0a88 D154     		strb	r1, [r2, r3]
 391:main.c        ****                     for(uint8 LCDRx = 0; LCDRx < 20; LCDRx++){
 1762              		.loc 1 391 0 discriminator 3
 1763 0a8a 97F83030 		ldrb	r3, [r7, #48]	@ zero_extendqisi2
 1764 0a8e 0133     		adds	r3, r3, #1
 1765 0a90 87F83030 		strb	r3, [r7, #48]
 1766              	.L112:
 391:main.c        ****                     for(uint8 LCDRx = 0; LCDRx < 20; LCDRx++){
 1767              		.loc 1 391 0 is_stmt 0 discriminator 1
 1768 0a94 97F83030 		ldrb	r3, [r7, #48]	@ zero_extendqisi2
 1769 0a98 132B     		cmp	r3, #19
 1770 0a9a F1D9     		bls	.L113
 1771              	.L106:
 1772              	.LBE21:
 393:main.c        ****             		}
 394:main.c        ****                 } 
ARM GAS  C:\Users\Diego\AppData\Local\Temp\cccxrA3i.s 			page 40


 395:main.c        ****                 if(touch1[3] == 0x83 && W_autorize == 0x1A){                                 
 1773              		.loc 1 395 0 is_stmt 1
 1774 0a9c 724B     		ldr	r3, .L168
 1775 0a9e DB78     		ldrb	r3, [r3, #3]	@ zero_extendqisi2
 1776 0aa0 832B     		cmp	r3, #131
 1777 0aa2 3DD1     		bne	.L114
 1778              		.loc 1 395 0 is_stmt 0 discriminator 1
 1779 0aa4 97F84630 		ldrb	r3, [r7, #70]	@ zero_extendqisi2
 1780 0aa8 1A2B     		cmp	r3, #26
 1781 0aaa 39D1     		bne	.L114
 1782              	.LBB22:
 396:main.c        ****                     for(uint8 LCDRx = 7; LCDRx < 15; LCDRx++){
 1783              		.loc 1 396 0 is_stmt 1
 1784 0aac 0723     		movs	r3, #7
 1785 0aae 87F82F30 		strb	r3, [r7, #47]
 1786 0ab2 1CE0     		b	.L115
 1787              	.L117:
 397:main.c        ****                         if((touch1[LCDRx] == 0x00) ||(touch1[LCDRx] == 0xFF))
 1788              		.loc 1 397 0
 1789 0ab4 97F82F30 		ldrb	r3, [r7, #47]	@ zero_extendqisi2
 1790 0ab8 6B4A     		ldr	r2, .L168
 1791 0aba D35C     		ldrb	r3, [r2, r3]	@ zero_extendqisi2
 1792 0abc 002B     		cmp	r3, #0
 1793 0abe 1AD0     		beq	.L116
 1794              		.loc 1 397 0 is_stmt 0 discriminator 1
 1795 0ac0 97F82F30 		ldrb	r3, [r7, #47]	@ zero_extendqisi2
 1796 0ac4 684A     		ldr	r2, .L168
 1797 0ac6 D35C     		ldrb	r3, [r2, r3]	@ zero_extendqisi2
 1798 0ac8 FF2B     		cmp	r3, #255
 1799 0aca 14D0     		beq	.L116
 398:main.c        ****                             break;
 399:main.c        ****                         side.a.km[LCDRx-7] = touch1[LCDRx];
 1800              		.loc 1 399 0 is_stmt 1 discriminator 2
 1801 0acc 97F82F30 		ldrb	r3, [r7, #47]	@ zero_extendqisi2
 1802 0ad0 073B     		subs	r3, r3, #7
 1803 0ad2 97F82F20 		ldrb	r2, [r7, #47]	@ zero_extendqisi2
 1804 0ad6 6449     		ldr	r1, .L168
 1805 0ad8 895C     		ldrb	r1, [r1, r2]	@ zero_extendqisi2
 1806 0ada 654A     		ldr	r2, .L168+8
 1807 0adc 1344     		add	r3, r3, r2
 1808 0ade 0A46     		mov	r2, r1
 1809 0ae0 83F82D21 		strb	r2, [r3, #301]
 396:main.c        ****                         if((touch1[LCDRx] == 0x00) ||(touch1[LCDRx] == 0xFF))
 1810              		.loc 1 396 0 discriminator 2
 1811 0ae4 97F82F30 		ldrb	r3, [r7, #47]	@ zero_extendqisi2
 1812 0ae8 0133     		adds	r3, r3, #1
 1813 0aea 87F82F30 		strb	r3, [r7, #47]
 1814              	.L115:
 396:main.c        ****                         if((touch1[LCDRx] == 0x00) ||(touch1[LCDRx] == 0xFF))
 1815              		.loc 1 396 0 is_stmt 0 discriminator 1
 1816 0aee 97F82F30 		ldrb	r3, [r7, #47]	@ zero_extendqisi2
 1817 0af2 0E2B     		cmp	r3, #14
 1818 0af4 DED9     		bls	.L117
 1819              	.L116:
 1820              	.LBE22:
 1821              	.LBB23:
 400:main.c        ****             		}
ARM GAS  C:\Users\Diego\AppData\Local\Temp\cccxrA3i.s 			page 41


 401:main.c        ****                     for(uint8 LCDRx = 0; LCDRx < 20; LCDRx++){
 1822              		.loc 1 401 0 is_stmt 1
 1823 0af6 0023     		movs	r3, #0
 1824 0af8 87F82E30 		strb	r3, [r7, #46]
 1825 0afc 09E0     		b	.L118
 1826              	.L119:
 402:main.c        ****             			touch1[LCDRx] = 0x00;
 1827              		.loc 1 402 0 discriminator 3
 1828 0afe 97F82E30 		ldrb	r3, [r7, #46]	@ zero_extendqisi2
 1829 0b02 594A     		ldr	r2, .L168
 1830 0b04 0021     		movs	r1, #0
 1831 0b06 D154     		strb	r1, [r2, r3]
 401:main.c        ****             			touch1[LCDRx] = 0x00;
 1832              		.loc 1 401 0 discriminator 3
 1833 0b08 97F82E30 		ldrb	r3, [r7, #46]	@ zero_extendqisi2
 1834 0b0c 0133     		adds	r3, r3, #1
 1835 0b0e 87F82E30 		strb	r3, [r7, #46]
 1836              	.L118:
 401:main.c        ****             			touch1[LCDRx] = 0x00;
 1837              		.loc 1 401 0 is_stmt 0 discriminator 1
 1838 0b12 97F82E30 		ldrb	r3, [r7, #46]	@ zero_extendqisi2
 1839 0b16 132B     		cmp	r3, #19
 1840 0b18 F1D9     		bls	.L119
 1841              	.LBE23:
 403:main.c        ****             		}                    
 404:main.c        ****                     W_autorize = 0x0A;
 1842              		.loc 1 404 0 is_stmt 1
 1843 0b1a 0A23     		movs	r3, #10
 1844 0b1c 87F84630 		strb	r3, [r7, #70]
 1845              	.L114:
 405:main.c        ****                 }
 406:main.c        ****                 if(touch1[3] == 0x83 && W_autorize == 0xC1){                                 
 1846              		.loc 1 406 0
 1847 0b20 514B     		ldr	r3, .L168
 1848 0b22 DB78     		ldrb	r3, [r3, #3]	@ zero_extendqisi2
 1849 0b24 832B     		cmp	r3, #131
 1850 0b26 45D1     		bne	.L120
 1851              		.loc 1 406 0 is_stmt 0 discriminator 1
 1852 0b28 97F84630 		ldrb	r3, [r7, #70]	@ zero_extendqisi2
 1853 0b2c C12B     		cmp	r3, #193
 1854 0b2e 41D1     		bne	.L120
 1855              	.LBB24:
 407:main.c        ****                     for(uint8 LCDRx = 7; LCDRx < 11; LCDRx++){
 1856              		.loc 1 407 0 is_stmt 1
 1857 0b30 0723     		movs	r3, #7
 1858 0b32 87F82D30 		strb	r3, [r7, #45]
 1859 0b36 1EE0     		b	.L121
 1860              	.L123:
 408:main.c        ****                         if((touch1[LCDRx] == 0x00) ||(touch1[LCDRx] == 0xFF))
 1861              		.loc 1 408 0
 1862 0b38 97F82D30 		ldrb	r3, [r7, #45]	@ zero_extendqisi2
 1863 0b3c 4A4A     		ldr	r2, .L168
 1864 0b3e D35C     		ldrb	r3, [r2, r3]	@ zero_extendqisi2
 1865 0b40 002B     		cmp	r3, #0
 1866 0b42 1CD0     		beq	.L122
 1867              		.loc 1 408 0 is_stmt 0 discriminator 1
 1868 0b44 97F82D30 		ldrb	r3, [r7, #45]	@ zero_extendqisi2
ARM GAS  C:\Users\Diego\AppData\Local\Temp\cccxrA3i.s 			page 42


 1869 0b48 474A     		ldr	r2, .L168
 1870 0b4a D35C     		ldrb	r3, [r2, r3]	@ zero_extendqisi2
 1871 0b4c FF2B     		cmp	r3, #255
 1872 0b4e 16D0     		beq	.L122
 409:main.c        ****                             break;                        
 410:main.c        ****                             side.a.ppuNozzle[0][LCDRx-7] = touch1[LCDRx]- 0x30;
 1873              		.loc 1 410 0 is_stmt 1 discriminator 2
 1874 0b50 97F82D30 		ldrb	r3, [r7, #45]	@ zero_extendqisi2
 1875 0b54 073B     		subs	r3, r3, #7
 1876 0b56 97F82D20 		ldrb	r2, [r7, #45]	@ zero_extendqisi2
 1877 0b5a 4349     		ldr	r1, .L168
 1878 0b5c 8A5C     		ldrb	r2, [r1, r2]	@ zero_extendqisi2
 1879 0b5e 303A     		subs	r2, r2, #48
 1880 0b60 D1B2     		uxtb	r1, r2
 1881 0b62 434A     		ldr	r2, .L168+8
 1882 0b64 1344     		add	r3, r3, r2
 1883 0b66 0A46     		mov	r2, r1
 1884 0b68 83F82920 		strb	r2, [r3, #41]
 407:main.c        ****                         if((touch1[LCDRx] == 0x00) ||(touch1[LCDRx] == 0xFF))
 1885              		.loc 1 407 0 discriminator 2
 1886 0b6c 97F82D30 		ldrb	r3, [r7, #45]	@ zero_extendqisi2
 1887 0b70 0133     		adds	r3, r3, #1
 1888 0b72 87F82D30 		strb	r3, [r7, #45]
 1889              	.L121:
 407:main.c        ****                         if((touch1[LCDRx] == 0x00) ||(touch1[LCDRx] == 0xFF))
 1890              		.loc 1 407 0 is_stmt 0 discriminator 1
 1891 0b76 97F82D30 		ldrb	r3, [r7, #45]	@ zero_extendqisi2
 1892 0b7a 0A2B     		cmp	r3, #10
 1893 0b7c DCD9     		bls	.L123
 1894              	.L122:
 1895              	.LBE24:
 1896              	.LBB25:
 411:main.c        ****                         
 412:main.c        ****             		}
 413:main.c        ****                     for(uint8 LCDRx = 0; LCDRx < 20; LCDRx++){
 1897              		.loc 1 413 0 is_stmt 1
 1898 0b7e 0023     		movs	r3, #0
 1899 0b80 87F82C30 		strb	r3, [r7, #44]
 1900 0b84 09E0     		b	.L124
 1901              	.L125:
 414:main.c        ****             			touch1[LCDRx] = 0x00;
 1902              		.loc 1 414 0 discriminator 3
 1903 0b86 97F82C30 		ldrb	r3, [r7, #44]	@ zero_extendqisi2
 1904 0b8a 374A     		ldr	r2, .L168
 1905 0b8c 0021     		movs	r1, #0
 1906 0b8e D154     		strb	r1, [r2, r3]
 413:main.c        ****             			touch1[LCDRx] = 0x00;
 1907              		.loc 1 413 0 discriminator 3
 1908 0b90 97F82C30 		ldrb	r3, [r7, #44]	@ zero_extendqisi2
 1909 0b94 0133     		adds	r3, r3, #1
 1910 0b96 87F82C30 		strb	r3, [r7, #44]
 1911              	.L124:
 413:main.c        ****             			touch1[LCDRx] = 0x00;
 1912              		.loc 1 413 0 is_stmt 0 discriminator 1
 1913 0b9a 97F82C30 		ldrb	r3, [r7, #44]	@ zero_extendqisi2
 1914 0b9e 132B     		cmp	r3, #19
 1915 0ba0 F1D9     		bls	.L125
ARM GAS  C:\Users\Diego\AppData\Local\Temp\cccxrA3i.s 			page 43


 1916              	.LBE25:
 415:main.c        ****             		}
 416:main.c        ****                     PriceUpdate(side.a.dir,side.a.ppuNozzle[0]);
 1917              		.loc 1 416 0 is_stmt 1
 1918 0ba2 334B     		ldr	r3, .L168+8
 1919 0ba4 1B78     		ldrb	r3, [r3]	@ zero_extendqisi2
 1920 0ba6 3349     		ldr	r1, .L168+12
 1921 0ba8 1846     		mov	r0, r3
 1922 0baa FFF7FEFF 		bl	PriceUpdate
 417:main.c        ****                     W_autorize = 0;
 1923              		.loc 1 417 0
 1924 0bae 0023     		movs	r3, #0
 1925 0bb0 87F84630 		strb	r3, [r7, #70]
 1926              	.L120:
 418:main.c        ****                 }
 419:main.c        ****                 if(touch1[3] == 0x83 && W_autorize == 0xC2){                                 
 1927              		.loc 1 419 0
 1928 0bb4 2C4B     		ldr	r3, .L168
 1929 0bb6 DB78     		ldrb	r3, [r3, #3]	@ zero_extendqisi2
 1930 0bb8 832B     		cmp	r3, #131
 1931 0bba 46D1     		bne	.L126
 1932              		.loc 1 419 0 is_stmt 0 discriminator 1
 1933 0bbc 97F84630 		ldrb	r3, [r7, #70]	@ zero_extendqisi2
 1934 0bc0 C22B     		cmp	r3, #194
 1935 0bc2 42D1     		bne	.L126
 1936              	.LBB26:
 420:main.c        ****                     for(uint8 LCDRx = 7; LCDRx < 11; LCDRx++){
 1937              		.loc 1 420 0 is_stmt 1
 1938 0bc4 0723     		movs	r3, #7
 1939 0bc6 87F82B30 		strb	r3, [r7, #43]
 1940 0bca 1EE0     		b	.L127
 1941              	.L129:
 421:main.c        ****                         if((touch1[LCDRx] == 0x00) ||(touch1[LCDRx] == 0xFF))
 1942              		.loc 1 421 0
 1943 0bcc 97F82B30 		ldrb	r3, [r7, #43]	@ zero_extendqisi2
 1944 0bd0 254A     		ldr	r2, .L168
 1945 0bd2 D35C     		ldrb	r3, [r2, r3]	@ zero_extendqisi2
 1946 0bd4 002B     		cmp	r3, #0
 1947 0bd6 1CD0     		beq	.L128
 1948              		.loc 1 421 0 is_stmt 0 discriminator 1
 1949 0bd8 97F82B30 		ldrb	r3, [r7, #43]	@ zero_extendqisi2
 1950 0bdc 224A     		ldr	r2, .L168
 1951 0bde D35C     		ldrb	r3, [r2, r3]	@ zero_extendqisi2
 1952 0be0 FF2B     		cmp	r3, #255
 1953 0be2 16D0     		beq	.L128
 422:main.c        ****                             break;                        
 423:main.c        ****                             side.b.ppuNozzle[0][LCDRx-7] = touch1[LCDRx]- 0x30;
 1954              		.loc 1 423 0 is_stmt 1 discriminator 2
 1955 0be4 97F82B30 		ldrb	r3, [r7, #43]	@ zero_extendqisi2
 1956 0be8 073B     		subs	r3, r3, #7
 1957 0bea 97F82B20 		ldrb	r2, [r7, #43]	@ zero_extendqisi2
 1958 0bee 1E49     		ldr	r1, .L168
 1959 0bf0 8A5C     		ldrb	r2, [r1, r2]	@ zero_extendqisi2
 1960 0bf2 303A     		subs	r2, r2, #48
 1961 0bf4 D1B2     		uxtb	r1, r2
 1962 0bf6 1E4A     		ldr	r2, .L168+8
 1963 0bf8 1344     		add	r3, r3, r2
ARM GAS  C:\Users\Diego\AppData\Local\Temp\cccxrA3i.s 			page 44


 1964 0bfa 0A46     		mov	r2, r1
 1965 0bfc 83F85E21 		strb	r2, [r3, #350]
 420:main.c        ****                         if((touch1[LCDRx] == 0x00) ||(touch1[LCDRx] == 0xFF))
 1966              		.loc 1 420 0 discriminator 2
 1967 0c00 97F82B30 		ldrb	r3, [r7, #43]	@ zero_extendqisi2
 1968 0c04 0133     		adds	r3, r3, #1
 1969 0c06 87F82B30 		strb	r3, [r7, #43]
 1970              	.L127:
 420:main.c        ****                         if((touch1[LCDRx] == 0x00) ||(touch1[LCDRx] == 0xFF))
 1971              		.loc 1 420 0 is_stmt 0 discriminator 1
 1972 0c0a 97F82B30 		ldrb	r3, [r7, #43]	@ zero_extendqisi2
 1973 0c0e 0A2B     		cmp	r3, #10
 1974 0c10 DCD9     		bls	.L129
 1975              	.L128:
 1976              	.LBE26:
 1977              	.LBB27:
 424:main.c        ****                         
 425:main.c        ****             		}
 426:main.c        ****                     for(uint8 LCDRx = 0; LCDRx < 20; LCDRx++){
 1978              		.loc 1 426 0 is_stmt 1
 1979 0c12 0023     		movs	r3, #0
 1980 0c14 87F82A30 		strb	r3, [r7, #42]
 1981 0c18 09E0     		b	.L130
 1982              	.L131:
 427:main.c        ****             			touch1[LCDRx] = 0x00;
 1983              		.loc 1 427 0 discriminator 3
 1984 0c1a 97F82A30 		ldrb	r3, [r7, #42]	@ zero_extendqisi2
 1985 0c1e 124A     		ldr	r2, .L168
 1986 0c20 0021     		movs	r1, #0
 1987 0c22 D154     		strb	r1, [r2, r3]
 426:main.c        ****             			touch1[LCDRx] = 0x00;
 1988              		.loc 1 426 0 discriminator 3
 1989 0c24 97F82A30 		ldrb	r3, [r7, #42]	@ zero_extendqisi2
 1990 0c28 0133     		adds	r3, r3, #1
 1991 0c2a 87F82A30 		strb	r3, [r7, #42]
 1992              	.L130:
 426:main.c        ****             			touch1[LCDRx] = 0x00;
 1993              		.loc 1 426 0 is_stmt 0 discriminator 1
 1994 0c2e 97F82A30 		ldrb	r3, [r7, #42]	@ zero_extendqisi2
 1995 0c32 132B     		cmp	r3, #19
 1996 0c34 F1D9     		bls	.L131
 1997              	.LBE27:
 428:main.c        ****             		}
 429:main.c        ****                     PriceUpdate(side.b.dir,side.b.ppuNozzle[0]);
 1998              		.loc 1 429 0 is_stmt 1
 1999 0c36 0E4B     		ldr	r3, .L168+8
 2000 0c38 93F83531 		ldrb	r3, [r3, #309]	@ zero_extendqisi2
 2001 0c3c 0E49     		ldr	r1, .L168+16
 2002 0c3e 1846     		mov	r0, r3
 2003 0c40 FFF7FEFF 		bl	PriceUpdate
 430:main.c        ****                     W_autorize = 0;
 2004              		.loc 1 430 0
 2005 0c44 0023     		movs	r3, #0
 2006 0c46 87F84630 		strb	r3, [r7, #70]
 2007              	.L126:
 431:main.c        ****                 }
 432:main.c        ****                 if(touch1[3] == 0x83 && W_autorize == 0x0A){             
ARM GAS  C:\Users\Diego\AppData\Local\Temp\cccxrA3i.s 			page 45


 2008              		.loc 1 432 0
 2009 0c4a 074B     		ldr	r3, .L168
 2010 0c4c DB78     		ldrb	r3, [r3, #3]	@ zero_extendqisi2
 2011 0c4e 832B     		cmp	r3, #131
 2012 0c50 6ED1     		bne	.L132
 2013              		.loc 1 432 0 is_stmt 0 discriminator 1
 2014 0c52 97F84630 		ldrb	r3, [r7, #70]	@ zero_extendqisi2
 2015 0c56 0A2B     		cmp	r3, #10
 2016 0c58 6AD1     		bne	.L132
 433:main.c        ****                     W_autorize = 0;
 2017              		.loc 1 433 0 is_stmt 1
 2018 0c5a 0023     		movs	r3, #0
 2019 0c5c 87F84630 		strb	r3, [r7, #70]
 2020              	.LBB28:
 434:main.c        ****                     for(uint8 LCDRx = 7; LCDRx < 15; LCDRx++){
 2021              		.loc 1 434 0
 2022 0c60 0723     		movs	r3, #7
 2023 0c62 87F82930 		strb	r3, [r7, #41]
 2024 0c66 41E0     		b	.L133
 2025              	.L169:
 2026              		.align	2
 2027              	.L168:
 2028 0c68 00000000 		.word	touch1
 2029 0c6c 00000000 		.word	LCDhose
 2030 0c70 00000000 		.word	side
 2031 0c74 29000000 		.word	side+41
 2032 0c78 5E010000 		.word	side+350
 2033              	.L137:
 435:main.c        ****                         if((touch1[LCDRx] == 0x00) ||(touch1[LCDRx] == 0xFF))
 2034              		.loc 1 435 0
 2035 0c7c 97F82930 		ldrb	r3, [r7, #41]	@ zero_extendqisi2
 2036 0c80 8A4A     		ldr	r2, .L170
 2037 0c82 D35C     		ldrb	r3, [r2, r3]	@ zero_extendqisi2
 2038 0c84 002B     		cmp	r3, #0
 2039 0c86 35D0     		beq	.L134
 2040              		.loc 1 435 0 is_stmt 0 discriminator 1
 2041 0c88 97F82930 		ldrb	r3, [r7, #41]	@ zero_extendqisi2
 2042 0c8c 874A     		ldr	r2, .L170
 2043 0c8e D35C     		ldrb	r3, [r2, r3]	@ zero_extendqisi2
 2044 0c90 FF2B     		cmp	r3, #255
 2045 0c92 2FD0     		beq	.L134
 436:main.c        ****                             break;
 437:main.c        ****                         if(touch1[LCDRx] > 96 && touch1[LCDRx] < 123){
 2046              		.loc 1 437 0 is_stmt 1
 2047 0c94 97F82930 		ldrb	r3, [r7, #41]	@ zero_extendqisi2
 2048 0c98 844A     		ldr	r2, .L170
 2049 0c9a D35C     		ldrb	r3, [r2, r3]	@ zero_extendqisi2
 2050 0c9c 602B     		cmp	r3, #96
 2051 0c9e 14D9     		bls	.L135
 2052              		.loc 1 437 0 is_stmt 0 discriminator 1
 2053 0ca0 97F82930 		ldrb	r3, [r7, #41]	@ zero_extendqisi2
 2054 0ca4 814A     		ldr	r2, .L170
 2055 0ca6 D35C     		ldrb	r3, [r2, r3]	@ zero_extendqisi2
 2056 0ca8 7A2B     		cmp	r3, #122
 2057 0caa 0ED8     		bhi	.L135
 438:main.c        ****                             side.a.msn_plate[LCDRx-7] = touch1[LCDRx]-0x20;                        
 2058              		.loc 1 438 0 is_stmt 1
ARM GAS  C:\Users\Diego\AppData\Local\Temp\cccxrA3i.s 			page 46


 2059 0cac 97F82930 		ldrb	r3, [r7, #41]	@ zero_extendqisi2
 2060 0cb0 073B     		subs	r3, r3, #7
 2061 0cb2 97F82920 		ldrb	r2, [r7, #41]	@ zero_extendqisi2
 2062 0cb6 7D49     		ldr	r1, .L170
 2063 0cb8 8A5C     		ldrb	r2, [r1, r2]	@ zero_extendqisi2
 2064 0cba 203A     		subs	r2, r2, #32
 2065 0cbc D1B2     		uxtb	r1, r2
 2066 0cbe 7C4A     		ldr	r2, .L170+4
 2067 0cc0 1344     		add	r3, r3, r2
 2068 0cc2 0A46     		mov	r2, r1
 2069 0cc4 83F82321 		strb	r2, [r3, #291]
 2070 0cc8 0BE0     		b	.L136
 2071              	.L135:
 439:main.c        ****                         }else{
 440:main.c        ****                             side.a.msn_plate[LCDRx-7] = touch1[LCDRx];
 2072              		.loc 1 440 0
 2073 0cca 97F82930 		ldrb	r3, [r7, #41]	@ zero_extendqisi2
 2074 0cce 073B     		subs	r3, r3, #7
 2075 0cd0 97F82920 		ldrb	r2, [r7, #41]	@ zero_extendqisi2
 2076 0cd4 7549     		ldr	r1, .L170
 2077 0cd6 895C     		ldrb	r1, [r1, r2]	@ zero_extendqisi2
 2078 0cd8 754A     		ldr	r2, .L170+4
 2079 0cda 1344     		add	r3, r3, r2
 2080 0cdc 0A46     		mov	r2, r1
 2081 0cde 83F82321 		strb	r2, [r3, #291]
 2082              	.L136:
 434:main.c        ****                         if((touch1[LCDRx] == 0x00) ||(touch1[LCDRx] == 0xFF))
 2083              		.loc 1 434 0 discriminator 2
 2084 0ce2 97F82930 		ldrb	r3, [r7, #41]	@ zero_extendqisi2
 2085 0ce6 0133     		adds	r3, r3, #1
 2086 0ce8 87F82930 		strb	r3, [r7, #41]
 2087              	.L133:
 434:main.c        ****                         if((touch1[LCDRx] == 0x00) ||(touch1[LCDRx] == 0xFF))
 2088              		.loc 1 434 0 is_stmt 0 discriminator 1
 2089 0cec 97F82930 		ldrb	r3, [r7, #41]	@ zero_extendqisi2
 2090 0cf0 0E2B     		cmp	r3, #14
 2091 0cf2 C3D9     		bls	.L137
 2092              	.L134:
 2093              	.LBE28:
 2094              	.LBB29:
 441:main.c        ****                         }
 442:main.c        ****             		}
 443:main.c        ****                     for(uint8 LCDRx = 0; LCDRx < 20; LCDRx++){
 2095              		.loc 1 443 0 is_stmt 1
 2096 0cf4 0023     		movs	r3, #0
 2097 0cf6 87F82830 		strb	r3, [r7, #40]
 2098 0cfa 09E0     		b	.L138
 2099              	.L139:
 444:main.c        ****             			touch1[LCDRx] = 0x00;
 2100              		.loc 1 444 0 discriminator 3
 2101 0cfc 97F82830 		ldrb	r3, [r7, #40]	@ zero_extendqisi2
 2102 0d00 6A4A     		ldr	r2, .L170
 2103 0d02 0021     		movs	r1, #0
 2104 0d04 D154     		strb	r1, [r2, r3]
 443:main.c        ****             			touch1[LCDRx] = 0x00;
 2105              		.loc 1 443 0 discriminator 3
 2106 0d06 97F82830 		ldrb	r3, [r7, #40]	@ zero_extendqisi2
ARM GAS  C:\Users\Diego\AppData\Local\Temp\cccxrA3i.s 			page 47


 2107 0d0a 0133     		adds	r3, r3, #1
 2108 0d0c 87F82830 		strb	r3, [r7, #40]
 2109              	.L138:
 443:main.c        ****             			touch1[LCDRx] = 0x00;
 2110              		.loc 1 443 0 is_stmt 0 discriminator 1
 2111 0d10 97F82830 		ldrb	r3, [r7, #40]	@ zero_extendqisi2
 2112 0d14 132B     		cmp	r3, #19
 2113 0d16 F1D9     		bls	.L139
 2114              	.LBE29:
 445:main.c        ****             		}
 446:main.c        ****                     PrintReceipt(side.a.dir);
 2115              		.loc 1 446 0 is_stmt 1
 2116 0d18 654B     		ldr	r3, .L170+4
 2117 0d1a 1B78     		ldrb	r3, [r3]	@ zero_extendqisi2
 2118 0d1c 1846     		mov	r0, r3
 2119 0d1e FFF7FEFF 		bl	PrintReceipt
 447:main.c        ****                     side.a.Copy = 1;
 2120              		.loc 1 447 0
 2121 0d22 634B     		ldr	r3, .L170+4
 2122 0d24 0122     		movs	r2, #1
 2123 0d26 83F83421 		strb	r2, [r3, #308]
 448:main.c        ****                     W_autorize =0xAC;
 2124              		.loc 1 448 0
 2125 0d2a AC23     		movs	r3, #172
 2126 0d2c 87F84630 		strb	r3, [r7, #70]
 2127              	.L132:
 449:main.c        ****                 } 
 450:main.c        ****                 if(touch1[3] == 0x83 && W_autorize == 0x1B){                                 
 2128              		.loc 1 450 0
 2129 0d30 5E4B     		ldr	r3, .L170
 2130 0d32 DB78     		ldrb	r3, [r3, #3]	@ zero_extendqisi2
 2131 0d34 832B     		cmp	r3, #131
 2132 0d36 3DD1     		bne	.L140
 2133              		.loc 1 450 0 is_stmt 0 discriminator 1
 2134 0d38 97F84630 		ldrb	r3, [r7, #70]	@ zero_extendqisi2
 2135 0d3c 1B2B     		cmp	r3, #27
 2136 0d3e 39D1     		bne	.L140
 2137              	.LBB30:
 451:main.c        ****                     for(uint8 LCDRx = 7; LCDRx < 15; LCDRx++){
 2138              		.loc 1 451 0 is_stmt 1
 2139 0d40 0723     		movs	r3, #7
 2140 0d42 87F82730 		strb	r3, [r7, #39]
 2141 0d46 1CE0     		b	.L141
 2142              	.L143:
 452:main.c        ****                         if((touch1[LCDRx] == 0x00) ||(touch1[LCDRx] == 0xFF))
 2143              		.loc 1 452 0
 2144 0d48 97F82730 		ldrb	r3, [r7, #39]	@ zero_extendqisi2
 2145 0d4c 574A     		ldr	r2, .L170
 2146 0d4e D35C     		ldrb	r3, [r2, r3]	@ zero_extendqisi2
 2147 0d50 002B     		cmp	r3, #0
 2148 0d52 1AD0     		beq	.L142
 2149              		.loc 1 452 0 is_stmt 0 discriminator 1
 2150 0d54 97F82730 		ldrb	r3, [r7, #39]	@ zero_extendqisi2
 2151 0d58 544A     		ldr	r2, .L170
 2152 0d5a D35C     		ldrb	r3, [r2, r3]	@ zero_extendqisi2
 2153 0d5c FF2B     		cmp	r3, #255
 2154 0d5e 14D0     		beq	.L142
ARM GAS  C:\Users\Diego\AppData\Local\Temp\cccxrA3i.s 			page 48


 453:main.c        ****                             break;
 454:main.c        ****                         side.b.km[LCDRx-7] = touch1[LCDRx];
 2155              		.loc 1 454 0 is_stmt 1 discriminator 2
 2156 0d60 97F82730 		ldrb	r3, [r7, #39]	@ zero_extendqisi2
 2157 0d64 073B     		subs	r3, r3, #7
 2158 0d66 97F82720 		ldrb	r2, [r7, #39]	@ zero_extendqisi2
 2159 0d6a 5049     		ldr	r1, .L170
 2160 0d6c 895C     		ldrb	r1, [r1, r2]	@ zero_extendqisi2
 2161 0d6e 504A     		ldr	r2, .L170+4
 2162 0d70 1344     		add	r3, r3, r2
 2163 0d72 0A46     		mov	r2, r1
 2164 0d74 83F86222 		strb	r2, [r3, #610]
 451:main.c        ****                         if((touch1[LCDRx] == 0x00) ||(touch1[LCDRx] == 0xFF))
 2165              		.loc 1 451 0 discriminator 2
 2166 0d78 97F82730 		ldrb	r3, [r7, #39]	@ zero_extendqisi2
 2167 0d7c 0133     		adds	r3, r3, #1
 2168 0d7e 87F82730 		strb	r3, [r7, #39]
 2169              	.L141:
 451:main.c        ****                         if((touch1[LCDRx] == 0x00) ||(touch1[LCDRx] == 0xFF))
 2170              		.loc 1 451 0 is_stmt 0 discriminator 1
 2171 0d82 97F82730 		ldrb	r3, [r7, #39]	@ zero_extendqisi2
 2172 0d86 0E2B     		cmp	r3, #14
 2173 0d88 DED9     		bls	.L143
 2174              	.L142:
 2175              	.LBE30:
 2176              	.LBB31:
 455:main.c        ****             		}
 456:main.c        ****                     for(uint8 LCDRx = 0; LCDRx < 20; LCDRx++){
 2177              		.loc 1 456 0 is_stmt 1
 2178 0d8a 0023     		movs	r3, #0
 2179 0d8c 87F82630 		strb	r3, [r7, #38]
 2180 0d90 09E0     		b	.L144
 2181              	.L145:
 457:main.c        ****             			touch1[LCDRx] = 0x00;
 2182              		.loc 1 457 0 discriminator 3
 2183 0d92 97F82630 		ldrb	r3, [r7, #38]	@ zero_extendqisi2
 2184 0d96 454A     		ldr	r2, .L170
 2185 0d98 0021     		movs	r1, #0
 2186 0d9a D154     		strb	r1, [r2, r3]
 456:main.c        ****             			touch1[LCDRx] = 0x00;
 2187              		.loc 1 456 0 discriminator 3
 2188 0d9c 97F82630 		ldrb	r3, [r7, #38]	@ zero_extendqisi2
 2189 0da0 0133     		adds	r3, r3, #1
 2190 0da2 87F82630 		strb	r3, [r7, #38]
 2191              	.L144:
 456:main.c        ****             			touch1[LCDRx] = 0x00;
 2192              		.loc 1 456 0 is_stmt 0 discriminator 1
 2193 0da6 97F82630 		ldrb	r3, [r7, #38]	@ zero_extendqisi2
 2194 0daa 132B     		cmp	r3, #19
 2195 0dac F1D9     		bls	.L145
 2196              	.LBE31:
 458:main.c        ****             		}                    
 459:main.c        ****                     W_autorize = 0x0B;
 2197              		.loc 1 459 0 is_stmt 1
 2198 0dae 0B23     		movs	r3, #11
 2199 0db0 87F84630 		strb	r3, [r7, #70]
 2200              	.L140:
ARM GAS  C:\Users\Diego\AppData\Local\Temp\cccxrA3i.s 			page 49


 460:main.c        ****                 }
 461:main.c        ****                 if(touch1[3] == 0x83 && W_autorize == 0x0B){             
 2201              		.loc 1 461 0
 2202 0db4 3D4B     		ldr	r3, .L170
 2203 0db6 DB78     		ldrb	r3, [r3, #3]	@ zero_extendqisi2
 2204 0db8 832B     		cmp	r3, #131
 2205 0dba 70D1     		bne	.L161
 2206              		.loc 1 461 0 is_stmt 0 discriminator 1
 2207 0dbc 97F84630 		ldrb	r3, [r7, #70]	@ zero_extendqisi2
 2208 0dc0 0B2B     		cmp	r3, #11
 2209 0dc2 6CD1     		bne	.L161
 462:main.c        ****                     W_autorize = 0;
 2210              		.loc 1 462 0 is_stmt 1
 2211 0dc4 0023     		movs	r3, #0
 2212 0dc6 87F84630 		strb	r3, [r7, #70]
 2213              	.LBB32:
 463:main.c        ****                     for(uint8 LCDRx = 7; LCDRx < 15; LCDRx++){
 2214              		.loc 1 463 0
 2215 0dca 0723     		movs	r3, #7
 2216 0dcc 87F82530 		strb	r3, [r7, #37]
 2217 0dd0 37E0     		b	.L147
 2218              	.L151:
 464:main.c        ****                         if((touch1[LCDRx] == 0x00) ||(touch1[LCDRx] == 0xFF))
 2219              		.loc 1 464 0
 2220 0dd2 97F82530 		ldrb	r3, [r7, #37]	@ zero_extendqisi2
 2221 0dd6 354A     		ldr	r2, .L170
 2222 0dd8 D35C     		ldrb	r3, [r2, r3]	@ zero_extendqisi2
 2223 0dda 002B     		cmp	r3, #0
 2224 0ddc 35D0     		beq	.L148
 2225              		.loc 1 464 0 is_stmt 0 discriminator 1
 2226 0dde 97F82530 		ldrb	r3, [r7, #37]	@ zero_extendqisi2
 2227 0de2 324A     		ldr	r2, .L170
 2228 0de4 D35C     		ldrb	r3, [r2, r3]	@ zero_extendqisi2
 2229 0de6 FF2B     		cmp	r3, #255
 2230 0de8 2FD0     		beq	.L148
 465:main.c        ****                             break;
 466:main.c        ****                         if(touch1[LCDRx] > 96 && touch1[LCDRx] < 123){
 2231              		.loc 1 466 0 is_stmt 1
 2232 0dea 97F82530 		ldrb	r3, [r7, #37]	@ zero_extendqisi2
 2233 0dee 2F4A     		ldr	r2, .L170
 2234 0df0 D35C     		ldrb	r3, [r2, r3]	@ zero_extendqisi2
 2235 0df2 602B     		cmp	r3, #96
 2236 0df4 14D9     		bls	.L149
 2237              		.loc 1 466 0 is_stmt 0 discriminator 1
 2238 0df6 97F82530 		ldrb	r3, [r7, #37]	@ zero_extendqisi2
 2239 0dfa 2C4A     		ldr	r2, .L170
 2240 0dfc D35C     		ldrb	r3, [r2, r3]	@ zero_extendqisi2
 2241 0dfe 7A2B     		cmp	r3, #122
 2242 0e00 0ED8     		bhi	.L149
 467:main.c        ****                             side.b.msn_plate[LCDRx-7] = touch1[LCDRx]-0x20;                        
 2243              		.loc 1 467 0 is_stmt 1
 2244 0e02 97F82530 		ldrb	r3, [r7, #37]	@ zero_extendqisi2
 2245 0e06 073B     		subs	r3, r3, #7
 2246 0e08 97F82520 		ldrb	r2, [r7, #37]	@ zero_extendqisi2
 2247 0e0c 2749     		ldr	r1, .L170
 2248 0e0e 8A5C     		ldrb	r2, [r1, r2]	@ zero_extendqisi2
 2249 0e10 203A     		subs	r2, r2, #32
ARM GAS  C:\Users\Diego\AppData\Local\Temp\cccxrA3i.s 			page 50


 2250 0e12 D1B2     		uxtb	r1, r2
 2251 0e14 264A     		ldr	r2, .L170+4
 2252 0e16 1344     		add	r3, r3, r2
 2253 0e18 0A46     		mov	r2, r1
 2254 0e1a 83F85822 		strb	r2, [r3, #600]
 2255 0e1e 0BE0     		b	.L150
 2256              	.L149:
 468:main.c        ****                         }else{
 469:main.c        ****                             side.b.msn_plate[LCDRx-7] = touch1[LCDRx];
 2257              		.loc 1 469 0
 2258 0e20 97F82530 		ldrb	r3, [r7, #37]	@ zero_extendqisi2
 2259 0e24 073B     		subs	r3, r3, #7
 2260 0e26 97F82520 		ldrb	r2, [r7, #37]	@ zero_extendqisi2
 2261 0e2a 2049     		ldr	r1, .L170
 2262 0e2c 895C     		ldrb	r1, [r1, r2]	@ zero_extendqisi2
 2263 0e2e 204A     		ldr	r2, .L170+4
 2264 0e30 1344     		add	r3, r3, r2
 2265 0e32 0A46     		mov	r2, r1
 2266 0e34 83F85822 		strb	r2, [r3, #600]
 2267              	.L150:
 463:main.c        ****                         if((touch1[LCDRx] == 0x00) ||(touch1[LCDRx] == 0xFF))
 2268              		.loc 1 463 0 discriminator 2
 2269 0e38 97F82530 		ldrb	r3, [r7, #37]	@ zero_extendqisi2
 2270 0e3c 0133     		adds	r3, r3, #1
 2271 0e3e 87F82530 		strb	r3, [r7, #37]
 2272              	.L147:
 463:main.c        ****                         if((touch1[LCDRx] == 0x00) ||(touch1[LCDRx] == 0xFF))
 2273              		.loc 1 463 0 is_stmt 0 discriminator 1
 2274 0e42 97F82530 		ldrb	r3, [r7, #37]	@ zero_extendqisi2
 2275 0e46 0E2B     		cmp	r3, #14
 2276 0e48 C3D9     		bls	.L151
 2277              	.L148:
 2278              	.LBE32:
 2279              	.LBB33:
 470:main.c        ****                         }
 471:main.c        ****             		}
 472:main.c        ****                     for(uint8 LCDRx = 0; LCDRx < 20; LCDRx++){
 2280              		.loc 1 472 0 is_stmt 1
 2281 0e4a 0023     		movs	r3, #0
 2282 0e4c 87F82430 		strb	r3, [r7, #36]
 2283 0e50 09E0     		b	.L152
 2284              	.L153:
 473:main.c        ****             			touch1[LCDRx] = 0x00;
 2285              		.loc 1 473 0 discriminator 3
 2286 0e52 97F82430 		ldrb	r3, [r7, #36]	@ zero_extendqisi2
 2287 0e56 154A     		ldr	r2, .L170
 2288 0e58 0021     		movs	r1, #0
 2289 0e5a D154     		strb	r1, [r2, r3]
 472:main.c        ****             			touch1[LCDRx] = 0x00;
 2290              		.loc 1 472 0 discriminator 3
 2291 0e5c 97F82430 		ldrb	r3, [r7, #36]	@ zero_extendqisi2
 2292 0e60 0133     		adds	r3, r3, #1
 2293 0e62 87F82430 		strb	r3, [r7, #36]
 2294              	.L152:
 472:main.c        ****             			touch1[LCDRx] = 0x00;
 2295              		.loc 1 472 0 is_stmt 0 discriminator 1
 2296 0e66 97F82430 		ldrb	r3, [r7, #36]	@ zero_extendqisi2
ARM GAS  C:\Users\Diego\AppData\Local\Temp\cccxrA3i.s 			page 51


 2297 0e6a 132B     		cmp	r3, #19
 2298 0e6c F1D9     		bls	.L153
 2299              	.LBE33:
 474:main.c        ****             		}
 475:main.c        ****                     PrintReceipt(side.b.dir);
 2300              		.loc 1 475 0 is_stmt 1
 2301 0e6e 104B     		ldr	r3, .L170+4
 2302 0e70 93F83531 		ldrb	r3, [r3, #309]	@ zero_extendqisi2
 2303 0e74 1846     		mov	r0, r3
 2304 0e76 FFF7FEFF 		bl	PrintReceipt
 476:main.c        ****                     side.b.Copy = 1;
 2305              		.loc 1 476 0
 2306 0e7a 0D4B     		ldr	r3, .L170+4
 2307 0e7c 0122     		movs	r2, #1
 2308 0e7e 83F86922 		strb	r2, [r3, #617]
 477:main.c        ****                     W_autorize  = 0xBC;
 2309              		.loc 1 477 0
 2310 0e82 BC23     		movs	r3, #188
 2311 0e84 87F84630 		strb	r3, [r7, #70]
 478:main.c        ****                 }
 479:main.c        ****                 
 480:main.c        ****         	break;
 2312              		.loc 1 480 0
 2313 0e88 09E0     		b	.L161
 2314              	.L155:
 261:main.c        ****         	case 0x0B:
 2315              		.loc 1 261 0
 2316 0e8a 00BF     		nop
 2317 0e8c 08E0     		b	.L52
 2318              	.L156:
 292:main.c        ****         	case 0xCC:
 2319              		.loc 1 292 0
 2320 0e8e 00BF     		nop
 2321 0e90 06E0     		b	.L52
 2322              	.L157:
 325:main.c        ****             case 0x4E:
 2323              		.loc 1 325 0
 2324 0e92 00BF     		nop
 2325 0e94 04E0     		b	.L52
 2326              	.L158:
 335:main.c        ****             case 0xE1:
 2327              		.loc 1 335 0
 2328 0e96 00BF     		nop
 2329 0e98 02E0     		b	.L52
 2330              	.L159:
 343:main.c        ****         	default:
 2331              		.loc 1 343 0
 2332 0e9a 00BF     		nop
 2333 0e9c 00E0     		b	.L52
 2334              	.L161:
 2335              		.loc 1 480 0
 2336 0e9e 00BF     		nop
 2337              	.L52:
 481:main.c        ****         }
 482:main.c        ****         screen_size = 0;
 2338              		.loc 1 482 0
 2339 0ea0 0023     		movs	r3, #0
ARM GAS  C:\Users\Diego\AppData\Local\Temp\cccxrA3i.s 			page 52


 2340 0ea2 87F82330 		strb	r3, [r7, #35]
 483:main.c        ****     }
 2341              		.loc 1 483 0
 2342 0ea6 FFF7FAB9 		b	.L154
 2343              	.L171:
 2344 0eaa 00BF     		.align	2
 2345              	.L170:
 2346 0eac 00000000 		.word	touch1
 2347 0eb0 00000000 		.word	side
 2348              		.cfi_endproc
 2349              	.LFE64:
 2350              		.size	main, .-main
 2351              		.text
 2352              	.Letext0:
 2353              		.file 2 "c:\\program files (x86)\\cypress\\psoc creator\\4.2\\psoc creator\\import\\gnu\\arm\\5.4.
 2354              		.file 3 "c:\\program files (x86)\\cypress\\psoc creator\\4.2\\psoc creator\\import\\gnu\\arm\\5.4.
 2355              		.file 4 "Generated_Source\\PSoC5/cytypes.h"
 2356              		.file 5 "./GVar.h"
 2357              		.file 6 "Generated_Source\\PSoC5/core_cm3.h"
 2358              		.section	.debug_info,"",%progbits
 2359              	.Ldebug_info0:
 2360 0000 CC080000 		.4byte	0x8cc
 2361 0004 0400     		.2byte	0x4
 2362 0006 00000000 		.4byte	.Ldebug_abbrev0
 2363 000a 04       		.byte	0x4
 2364 000b 01       		.uleb128 0x1
 2365 000c 7A000000 		.4byte	.LASF71
 2366 0010 0C       		.byte	0xc
 2367 0011 34030000 		.4byte	.LASF72
 2368 0015 60020000 		.4byte	.LASF73
 2369 0019 00000000 		.4byte	.Ldebug_ranges0+0
 2370 001d 00000000 		.4byte	0
 2371 0021 00000000 		.4byte	.Ldebug_line0
 2372 0025 02       		.uleb128 0x2
 2373 0026 01       		.byte	0x1
 2374 0027 06       		.byte	0x6
 2375 0028 3D020000 		.4byte	.LASF0
 2376 002c 02       		.uleb128 0x2
 2377 002d 01       		.byte	0x1
 2378 002e 08       		.byte	0x8
 2379 002f 15020000 		.4byte	.LASF1
 2380 0033 02       		.uleb128 0x2
 2381 0034 02       		.byte	0x2
 2382 0035 05       		.byte	0x5
 2383 0036 4D000000 		.4byte	.LASF2
 2384 003a 02       		.uleb128 0x2
 2385 003b 02       		.byte	0x2
 2386 003c 07       		.byte	0x7
 2387 003d BB020000 		.4byte	.LASF3
 2388 0041 03       		.uleb128 0x3
 2389 0042 70030000 		.4byte	.LASF9
 2390 0046 02       		.byte	0x2
 2391 0047 3F       		.byte	0x3f
 2392 0048 4C000000 		.4byte	0x4c
 2393 004c 02       		.uleb128 0x2
 2394 004d 04       		.byte	0x4
 2395 004e 05       		.byte	0x5
ARM GAS  C:\Users\Diego\AppData\Local\Temp\cccxrA3i.s 			page 53


 2396 004f 8E010000 		.4byte	.LASF4
 2397 0053 02       		.uleb128 0x2
 2398 0054 04       		.byte	0x4
 2399 0055 07       		.byte	0x7
 2400 0056 3B030000 		.4byte	.LASF5
 2401 005a 02       		.uleb128 0x2
 2402 005b 08       		.byte	0x8
 2403 005c 05       		.byte	0x5
 2404 005d 71010000 		.4byte	.LASF6
 2405 0061 02       		.uleb128 0x2
 2406 0062 08       		.byte	0x8
 2407 0063 07       		.byte	0x7
 2408 0064 49020000 		.4byte	.LASF7
 2409 0068 04       		.uleb128 0x4
 2410 0069 04       		.byte	0x4
 2411 006a 05       		.byte	0x5
 2412 006b 696E7400 		.ascii	"int\000"
 2413 006f 02       		.uleb128 0x2
 2414 0070 04       		.byte	0x4
 2415 0071 07       		.byte	0x7
 2416 0072 94020000 		.4byte	.LASF8
 2417 0076 03       		.uleb128 0x3
 2418 0077 E9020000 		.4byte	.LASF10
 2419 007b 03       		.byte	0x3
 2420 007c 2C       		.byte	0x2c
 2421 007d 41000000 		.4byte	0x41
 2422 0081 05       		.uleb128 0x5
 2423 0082 34010000 		.4byte	.LASF11
 2424 0086 04       		.byte	0x4
 2425 0087 E401     		.2byte	0x1e4
 2426 0089 2C000000 		.4byte	0x2c
 2427 008d 05       		.uleb128 0x5
 2428 008e 23010000 		.4byte	.LASF12
 2429 0092 04       		.byte	0x4
 2430 0093 E501     		.2byte	0x1e5
 2431 0095 3A000000 		.4byte	0x3a
 2432 0099 02       		.uleb128 0x2
 2433 009a 04       		.byte	0x4
 2434 009b 04       		.byte	0x4
 2435 009c 00000000 		.4byte	.LASF13
 2436 00a0 02       		.uleb128 0x2
 2437 00a1 08       		.byte	0x8
 2438 00a2 04       		.byte	0x4
 2439 00a3 AA030000 		.4byte	.LASF14
 2440 00a7 05       		.uleb128 0x5
 2441 00a8 74000000 		.4byte	.LASF15
 2442 00ac 04       		.byte	0x4
 2443 00ad F501     		.2byte	0x1f5
 2444 00af B3000000 		.4byte	0xb3
 2445 00b3 02       		.uleb128 0x2
 2446 00b4 01       		.byte	0x1
 2447 00b5 08       		.byte	0x8
 2448 00b6 D8020000 		.4byte	.LASF16
 2449 00ba 02       		.uleb128 0x2
 2450 00bb 08       		.byte	0x8
 2451 00bc 04       		.byte	0x4
 2452 00bd FD010000 		.4byte	.LASF17
ARM GAS  C:\Users\Diego\AppData\Local\Temp\cccxrA3i.s 			page 54


 2453 00c1 02       		.uleb128 0x2
 2454 00c2 04       		.byte	0x4
 2455 00c3 07       		.byte	0x7
 2456 00c4 57000000 		.4byte	.LASF18
 2457 00c8 06       		.uleb128 0x6
 2458 00c9 4F010000 		.4byte	.LASF35
 2459 00cd 3501     		.2byte	0x135
 2460 00cf 05       		.byte	0x5
 2461 00d0 23       		.byte	0x23
 2462 00d1 B4010000 		.4byte	0x1b4
 2463 00d5 07       		.uleb128 0x7
 2464 00d6 64697200 		.ascii	"dir\000"
 2465 00da 05       		.byte	0x5
 2466 00db 24       		.byte	0x24
 2467 00dc 81000000 		.4byte	0x81
 2468 00e0 00       		.byte	0
 2469 00e1 08       		.uleb128 0x8
 2470 00e2 1A030000 		.4byte	.LASF19
 2471 00e6 05       		.byte	0x5
 2472 00e7 25       		.byte	0x25
 2473 00e8 B4010000 		.4byte	0x1b4
 2474 00ec 01       		.byte	0x1
 2475 00ed 08       		.uleb128 0x8
 2476 00ee 2A010000 		.4byte	.LASF20
 2477 00f2 05       		.byte	0x5
 2478 00f3 26       		.byte	0x26
 2479 00f4 D0010000 		.4byte	0x1d0
 2480 00f8 29       		.byte	0x29
 2481 00f9 08       		.uleb128 0x8
 2482 00fa CE020000 		.4byte	.LASF21
 2483 00fe 05       		.byte	0x5
 2484 00ff 27       		.byte	0x27
 2485 0100 E6010000 		.4byte	0x1e6
 2486 0104 35       		.byte	0x35
 2487 0105 08       		.uleb128 0x8
 2488 0106 D9010000 		.4byte	.LASF22
 2489 010a 05       		.byte	0x5
 2490 010b 28       		.byte	0x28
 2491 010c E6010000 		.4byte	0x1e6
 2492 0110 39       		.byte	0x39
 2493 0111 08       		.uleb128 0x8
 2494 0112 A7020000 		.4byte	.LASF23
 2495 0116 05       		.byte	0x5
 2496 0117 29       		.byte	0x29
 2497 0118 F6010000 		.4byte	0x1f6
 2498 011c 3D       		.byte	0x3d
 2499 011d 08       		.uleb128 0x8
 2500 011e F1010000 		.4byte	.LASF24
 2501 0122 05       		.byte	0x5
 2502 0123 2A       		.byte	0x2a
 2503 0124 81000000 		.4byte	0x81
 2504 0128 4B       		.byte	0x4b
 2505 0129 08       		.uleb128 0x8
 2506 012a 7F010000 		.4byte	.LASF25
 2507 012e 05       		.byte	0x5
 2508 012f 2B       		.byte	0x2b
 2509 0130 06020000 		.4byte	0x206
ARM GAS  C:\Users\Diego\AppData\Local\Temp\cccxrA3i.s 			page 55


 2510 0134 4C       		.byte	0x4c
 2511 0135 08       		.uleb128 0x8
 2512 0136 8B030000 		.4byte	.LASF26
 2513 013a 05       		.byte	0x5
 2514 013b 2C       		.byte	0x2c
 2515 013c 16020000 		.4byte	0x216
 2516 0140 51       		.byte	0x51
 2517 0141 08       		.uleb128 0x8
 2518 0142 38000000 		.4byte	.LASF27
 2519 0146 05       		.byte	0x5
 2520 0147 2D       		.byte	0x2d
 2521 0148 26020000 		.4byte	0x226
 2522 014c 83       		.byte	0x83
 2523 014d 08       		.uleb128 0x8
 2524 014e 97030000 		.4byte	.LASF28
 2525 0152 05       		.byte	0x5
 2526 0153 2E       		.byte	0x2e
 2527 0154 42020000 		.4byte	0x242
 2528 0158 FB       		.byte	0xfb
 2529 0159 09       		.uleb128 0x9
 2530 015a 97010000 		.4byte	.LASF29
 2531 015e 05       		.byte	0x5
 2532 015f 2F       		.byte	0x2f
 2533 0160 42020000 		.4byte	0x242
 2534 0164 0301     		.2byte	0x103
 2535 0166 09       		.uleb128 0x9
 2536 0167 27030000 		.4byte	.LASF30
 2537 016b 05       		.byte	0x5
 2538 016c 30       		.byte	0x30
 2539 016d 52020000 		.4byte	0x252
 2540 0171 0B01     		.2byte	0x10b
 2541 0173 09       		.uleb128 0x9
 2542 0174 E2030000 		.4byte	.LASF31
 2543 0178 05       		.byte	0x5
 2544 0179 31       		.byte	0x31
 2545 017a 42020000 		.4byte	0x242
 2546 017e 2301     		.2byte	0x123
 2547 0180 09       		.uleb128 0x9
 2548 0181 2D000000 		.4byte	.LASF32
 2549 0185 05       		.byte	0x5
 2550 0186 32       		.byte	0x32
 2551 0187 81000000 		.4byte	0x81
 2552 018b 2B01     		.2byte	0x12b
 2553 018d 09       		.uleb128 0x9
 2554 018e CB030000 		.4byte	.LASF33
 2555 0192 05       		.byte	0x5
 2556 0193 33       		.byte	0x33
 2557 0194 81000000 		.4byte	0x81
 2558 0198 2C01     		.2byte	0x12c
 2559 019a 0A       		.uleb128 0xa
 2560 019b 6B6D00   		.ascii	"km\000"
 2561 019e 05       		.byte	0x5
 2562 019f 34       		.byte	0x34
 2563 01a0 68020000 		.4byte	0x268
 2564 01a4 2D01     		.2byte	0x12d
 2565 01a6 09       		.uleb128 0x9
 2566 01a7 4A010000 		.4byte	.LASF34
ARM GAS  C:\Users\Diego\AppData\Local\Temp\cccxrA3i.s 			page 56


 2567 01ab 05       		.byte	0x5
 2568 01ac 35       		.byte	0x35
 2569 01ad 81000000 		.4byte	0x81
 2570 01b1 3401     		.2byte	0x134
 2571 01b3 00       		.byte	0
 2572 01b4 0B       		.uleb128 0xb
 2573 01b5 81000000 		.4byte	0x81
 2574 01b9 D0010000 		.4byte	0x1d0
 2575 01bd 0C       		.uleb128 0xc
 2576 01be C1000000 		.4byte	0xc1
 2577 01c2 03       		.byte	0x3
 2578 01c3 0C       		.uleb128 0xc
 2579 01c4 C1000000 		.4byte	0xc1
 2580 01c8 01       		.byte	0x1
 2581 01c9 0C       		.uleb128 0xc
 2582 01ca C1000000 		.4byte	0xc1
 2583 01ce 04       		.byte	0x4
 2584 01cf 00       		.byte	0
 2585 01d0 0B       		.uleb128 0xb
 2586 01d1 81000000 		.4byte	0x81
 2587 01d5 E6010000 		.4byte	0x1e6
 2588 01d9 0C       		.uleb128 0xc
 2589 01da C1000000 		.4byte	0xc1
 2590 01de 03       		.byte	0x3
 2591 01df 0C       		.uleb128 0xc
 2592 01e0 C1000000 		.4byte	0xc1
 2593 01e4 02       		.byte	0x2
 2594 01e5 00       		.byte	0
 2595 01e6 0B       		.uleb128 0xb
 2596 01e7 81000000 		.4byte	0x81
 2597 01eb F6010000 		.4byte	0x1f6
 2598 01ef 0C       		.uleb128 0xc
 2599 01f0 C1000000 		.4byte	0xc1
 2600 01f4 03       		.byte	0x3
 2601 01f5 00       		.byte	0
 2602 01f6 0B       		.uleb128 0xb
 2603 01f7 81000000 		.4byte	0x81
 2604 01fb 06020000 		.4byte	0x206
 2605 01ff 0C       		.uleb128 0xc
 2606 0200 C1000000 		.4byte	0xc1
 2607 0204 0D       		.byte	0xd
 2608 0205 00       		.byte	0
 2609 0206 0B       		.uleb128 0xb
 2610 0207 81000000 		.4byte	0x81
 2611 020b 16020000 		.4byte	0x216
 2612 020f 0C       		.uleb128 0xc
 2613 0210 C1000000 		.4byte	0xc1
 2614 0214 04       		.byte	0x4
 2615 0215 00       		.byte	0
 2616 0216 0B       		.uleb128 0xb
 2617 0217 81000000 		.4byte	0x81
 2618 021b 26020000 		.4byte	0x226
 2619 021f 0C       		.uleb128 0xc
 2620 0220 C1000000 		.4byte	0xc1
 2621 0224 31       		.byte	0x31
 2622 0225 00       		.byte	0
 2623 0226 0B       		.uleb128 0xb
ARM GAS  C:\Users\Diego\AppData\Local\Temp\cccxrA3i.s 			page 57


 2624 0227 A7000000 		.4byte	0xa7
 2625 022b 42020000 		.4byte	0x242
 2626 022f 0C       		.uleb128 0xc
 2627 0230 C1000000 		.4byte	0xc1
 2628 0234 03       		.byte	0x3
 2629 0235 0C       		.uleb128 0xc
 2630 0236 C1000000 		.4byte	0xc1
 2631 023a 02       		.byte	0x2
 2632 023b 0C       		.uleb128 0xc
 2633 023c C1000000 		.4byte	0xc1
 2634 0240 09       		.byte	0x9
 2635 0241 00       		.byte	0
 2636 0242 0B       		.uleb128 0xb
 2637 0243 81000000 		.4byte	0x81
 2638 0247 52020000 		.4byte	0x252
 2639 024b 0C       		.uleb128 0xc
 2640 024c C1000000 		.4byte	0xc1
 2641 0250 07       		.byte	0x7
 2642 0251 00       		.byte	0
 2643 0252 0B       		.uleb128 0xb
 2644 0253 81000000 		.4byte	0x81
 2645 0257 68020000 		.4byte	0x268
 2646 025b 0C       		.uleb128 0xc
 2647 025c C1000000 		.4byte	0xc1
 2648 0260 03       		.byte	0x3
 2649 0261 0C       		.uleb128 0xc
 2650 0262 C1000000 		.4byte	0xc1
 2651 0266 05       		.byte	0x5
 2652 0267 00       		.byte	0
 2653 0268 0B       		.uleb128 0xb
 2654 0269 81000000 		.4byte	0x81
 2655 026d 78020000 		.4byte	0x278
 2656 0271 0C       		.uleb128 0xc
 2657 0272 C1000000 		.4byte	0xc1
 2658 0276 06       		.byte	0x6
 2659 0277 00       		.byte	0
 2660 0278 06       		.uleb128 0x6
 2661 0279 09030000 		.4byte	.LASF36
 2662 027d D404     		.2byte	0x4d4
 2663 027f 05       		.byte	0x5
 2664 0280 38       		.byte	0x38
 2665 0281 B1020000 		.4byte	0x2b1
 2666 0285 07       		.uleb128 0x7
 2667 0286 6100     		.ascii	"a\000"
 2668 0288 05       		.byte	0x5
 2669 0289 39       		.byte	0x39
 2670 028a C8000000 		.4byte	0xc8
 2671 028e 00       		.byte	0
 2672 028f 0A       		.uleb128 0xa
 2673 0290 6200     		.ascii	"b\000"
 2674 0292 05       		.byte	0x5
 2675 0293 3A       		.byte	0x3a
 2676 0294 C8000000 		.4byte	0xc8
 2677 0298 3501     		.2byte	0x135
 2678 029a 0A       		.uleb128 0xa
 2679 029b 6300     		.ascii	"c\000"
 2680 029d 05       		.byte	0x5
ARM GAS  C:\Users\Diego\AppData\Local\Temp\cccxrA3i.s 			page 58


 2681 029e 3B       		.byte	0x3b
 2682 029f C8000000 		.4byte	0xc8
 2683 02a3 6A02     		.2byte	0x26a
 2684 02a5 0A       		.uleb128 0xa
 2685 02a6 6400     		.ascii	"d\000"
 2686 02a8 05       		.byte	0x5
 2687 02a9 3C       		.byte	0x3c
 2688 02aa C8000000 		.4byte	0xc8
 2689 02ae 9F03     		.2byte	0x39f
 2690 02b0 00       		.byte	0
 2691 02b1 0D       		.uleb128 0xd
 2692 02b2 06000000 		.4byte	.LASF74
 2693 02b6 01       		.byte	0x1
 2694 02b7 2C000000 		.4byte	0x2c
 2695 02bb 05       		.byte	0x5
 2696 02bc 41       		.byte	0x41
 2697 02bd D4020000 		.4byte	0x2d4
 2698 02c1 0E       		.uleb128 0xe
 2699 02c2 BE030000 		.4byte	.LASF37
 2700 02c6 00       		.byte	0
 2701 02c7 0E       		.uleb128 0xe
 2702 02c8 BD010000 		.4byte	.LASF38
 2703 02cc 06       		.byte	0x6
 2704 02cd 0E       		.uleb128 0xe
 2705 02ce 1C000000 		.4byte	.LASF39
 2706 02d2 04       		.byte	0x4
 2707 02d3 00       		.byte	0
 2708 02d4 0F       		.uleb128 0xf
 2709 02d5 CE010000 		.4byte	.LASF40
 2710 02d9 01       		.byte	0x1
 2711 02da 34       		.byte	0x34
 2712 02db 00000000 		.4byte	.LFB63
 2713 02df E8010000 		.4byte	.LFE63-.LFB63
 2714 02e3 01       		.uleb128 0x1
 2715 02e4 9C       		.byte	0x9c
 2716 02e5 F6020000 		.4byte	0x2f6
 2717 02e9 10       		.uleb128 0x10
 2718 02ea 7800     		.ascii	"x\000"
 2719 02ec 01       		.byte	0x1
 2720 02ed 35       		.byte	0x35
 2721 02ee 81000000 		.4byte	0x81
 2722 02f2 02       		.uleb128 0x2
 2723 02f3 91       		.byte	0x91
 2724 02f4 6F       		.sleb128 -17
 2725 02f5 00       		.byte	0
 2726 02f6 11       		.uleb128 0x11
 2727 02f7 6F000000 		.4byte	.LASF41
 2728 02fb 01       		.byte	0x1
 2729 02fc 6D       		.byte	0x6d
 2730 02fd 68000000 		.4byte	0x68
 2731 0301 00000000 		.4byte	.LFB64
 2732 0305 B40E0000 		.4byte	.LFE64-.LFB64
 2733 0309 01       		.uleb128 0x1
 2734 030a 9C       		.byte	0x9c
 2735 030b 29070000 		.4byte	0x729
 2736 030f 10       		.uleb128 0x10
 2737 0310 7800     		.ascii	"x\000"
ARM GAS  C:\Users\Diego\AppData\Local\Temp\cccxrA3i.s 			page 59


 2738 0312 01       		.byte	0x1
 2739 0313 70       		.byte	0x70
 2740 0314 81000000 		.4byte	0x81
 2741 0318 02       		.uleb128 0x2
 2742 0319 91       		.byte	0x91
 2743 031a 6F       		.sleb128 -17
 2744 031b 12       		.uleb128 0x12
 2745 031c AF020000 		.4byte	.LASF42
 2746 0320 01       		.byte	0x1
 2747 0321 70       		.byte	0x70
 2748 0322 81000000 		.4byte	0x81
 2749 0326 02       		.uleb128 0x2
 2750 0327 91       		.byte	0x91
 2751 0328 4B       		.sleb128 -53
 2752 0329 12       		.uleb128 0x12
 2753 032a B2010000 		.4byte	.LASF43
 2754 032e 01       		.byte	0x1
 2755 032f 70       		.byte	0x70
 2756 0330 81000000 		.4byte	0x81
 2757 0334 02       		.uleb128 0x2
 2758 0335 91       		.byte	0x91
 2759 0336 6E       		.sleb128 -18
 2760 0337 10       		.uleb128 0x10
 2761 0338 7900     		.ascii	"y\000"
 2762 033a 01       		.byte	0x1
 2763 033b 70       		.byte	0x70
 2764 033c 81000000 		.4byte	0x81
 2765 0340 02       		.uleb128 0x2
 2766 0341 91       		.byte	0x91
 2767 0342 6D       		.sleb128 -19
 2768 0343 13       		.uleb128 0x13
 2769 0344 48000000 		.4byte	.LASF75
 2770 0348 01       		.byte	0x1
 2771 0349 70       		.byte	0x70
 2772 034a 81000000 		.4byte	0x81
 2773 034e 12       		.uleb128 0x12
 2774 034f 6B010000 		.4byte	.LASF44
 2775 0353 01       		.byte	0x1
 2776 0354 71       		.byte	0x71
 2777 0355 E6010000 		.4byte	0x1e6
 2778 0359 02       		.uleb128 0x2
 2779 035a 91       		.byte	0x91
 2780 035b 44       		.sleb128 -60
 2781 035c 12       		.uleb128 0x12
 2782 035d F1020000 		.4byte	.LASF45
 2783 0361 01       		.byte	0x1
 2784 0362 72       		.byte	0x72
 2785 0363 68020000 		.4byte	0x268
 2786 0367 03       		.uleb128 0x3
 2787 0368 91       		.byte	0x91
 2788 0369 BC7F     		.sleb128 -68
 2789 036b 12       		.uleb128 0x12
 2790 036c DD020000 		.4byte	.LASF46
 2791 0370 01       		.byte	0x1
 2792 0371 73       		.byte	0x73
 2793 0372 68020000 		.4byte	0x268
 2794 0376 03       		.uleb128 0x3
ARM GAS  C:\Users\Diego\AppData\Local\Temp\cccxrA3i.s 			page 60


 2795 0377 91       		.byte	0x91
 2796 0378 B47F     		.sleb128 -76
 2797 037a 12       		.uleb128 0x12
 2798 037b FC020000 		.4byte	.LASF47
 2799 037f 01       		.byte	0x1
 2800 0380 74       		.byte	0x74
 2801 0381 81000000 		.4byte	0x81
 2802 0385 02       		.uleb128 0x2
 2803 0386 91       		.byte	0x91
 2804 0387 6C       		.sleb128 -20
 2805 0388 12       		.uleb128 0x12
 2806 0389 D2030000 		.4byte	.LASF48
 2807 038d 01       		.byte	0x1
 2808 038e 75       		.byte	0x75
 2809 038f 06020000 		.4byte	0x206
 2810 0393 03       		.uleb128 0x3
 2811 0394 91       		.byte	0x91
 2812 0395 AC7F     		.sleb128 -84
 2813 0397 14       		.uleb128 0x14
 2814 0398 28020000 		.4byte	.LBB2
 2815 039c 30000000 		.4byte	.LBE2-.LBB2
 2816 03a0 B1030000 		.4byte	0x3b1
 2817 03a4 10       		.uleb128 0x10
 2818 03a5 7900     		.ascii	"y\000"
 2819 03a7 01       		.byte	0x1
 2820 03a8 B2       		.byte	0xb2
 2821 03a9 81000000 		.4byte	0x81
 2822 03ad 02       		.uleb128 0x2
 2823 03ae 91       		.byte	0x91
 2824 03af 6B       		.sleb128 -21
 2825 03b0 00       		.byte	0
 2826 03b1 14       		.uleb128 0x14
 2827 03b2 B4020000 		.4byte	.LBB3
 2828 03b6 2E000000 		.4byte	.LBE3-.LBB3
 2829 03ba CD030000 		.4byte	0x3cd
 2830 03be 12       		.uleb128 0x12
 2831 03bf A1020000 		.4byte	.LASF49
 2832 03c3 01       		.byte	0x1
 2833 03c4 C6       		.byte	0xc6
 2834 03c5 81000000 		.4byte	0x81
 2835 03c9 02       		.uleb128 0x2
 2836 03ca 91       		.byte	0x91
 2837 03cb 6A       		.sleb128 -22
 2838 03cc 00       		.byte	0
 2839 03cd 14       		.uleb128 0x14
 2840 03ce 88030000 		.4byte	.LBB4
 2841 03d2 24000000 		.4byte	.LBE4-.LBB4
 2842 03d6 E9030000 		.4byte	0x3e9
 2843 03da 12       		.uleb128 0x12
 2844 03db A1020000 		.4byte	.LASF49
 2845 03df 01       		.byte	0x1
 2846 03e0 D4       		.byte	0xd4
 2847 03e1 81000000 		.4byte	0x81
 2848 03e5 02       		.uleb128 0x2
 2849 03e6 91       		.byte	0x91
 2850 03e7 69       		.sleb128 -23
 2851 03e8 00       		.byte	0
ARM GAS  C:\Users\Diego\AppData\Local\Temp\cccxrA3i.s 			page 61


 2852 03e9 14       		.uleb128 0x14
 2853 03ea B6030000 		.4byte	.LBB5
 2854 03ee 24000000 		.4byte	.LBE5-.LBB5
 2855 03f2 05040000 		.4byte	0x405
 2856 03f6 12       		.uleb128 0x12
 2857 03f7 A1020000 		.4byte	.LASF49
 2858 03fb 01       		.byte	0x1
 2859 03fc DA       		.byte	0xda
 2860 03fd 81000000 		.4byte	0x81
 2861 0401 02       		.uleb128 0x2
 2862 0402 91       		.byte	0x91
 2863 0403 68       		.sleb128 -24
 2864 0404 00       		.byte	0
 2865 0405 14       		.uleb128 0x14
 2866 0406 E4030000 		.4byte	.LBB6
 2867 040a 24000000 		.4byte	.LBE6-.LBB6
 2868 040e 21040000 		.4byte	0x421
 2869 0412 12       		.uleb128 0x12
 2870 0413 A1020000 		.4byte	.LASF49
 2871 0417 01       		.byte	0x1
 2872 0418 E0       		.byte	0xe0
 2873 0419 81000000 		.4byte	0x81
 2874 041d 02       		.uleb128 0x2
 2875 041e 91       		.byte	0x91
 2876 041f 67       		.sleb128 -25
 2877 0420 00       		.byte	0
 2878 0421 14       		.uleb128 0x14
 2879 0422 24040000 		.4byte	.LBB7
 2880 0426 24000000 		.4byte	.LBE7-.LBB7
 2881 042a 3D040000 		.4byte	0x43d
 2882 042e 12       		.uleb128 0x12
 2883 042f A1020000 		.4byte	.LASF49
 2884 0433 01       		.byte	0x1
 2885 0434 E9       		.byte	0xe9
 2886 0435 81000000 		.4byte	0x81
 2887 0439 02       		.uleb128 0x2
 2888 043a 91       		.byte	0x91
 2889 043b 66       		.sleb128 -26
 2890 043c 00       		.byte	0
 2891 043d 14       		.uleb128 0x14
 2892 043e 7A040000 		.4byte	.LBB8
 2893 0442 24000000 		.4byte	.LBE8-.LBB8
 2894 0446 59040000 		.4byte	0x459
 2895 044a 12       		.uleb128 0x12
 2896 044b A1020000 		.4byte	.LASF49
 2897 044f 01       		.byte	0x1
 2898 0450 F2       		.byte	0xf2
 2899 0451 81000000 		.4byte	0x81
 2900 0455 02       		.uleb128 0x2
 2901 0456 91       		.byte	0x91
 2902 0457 65       		.sleb128 -27
 2903 0458 00       		.byte	0
 2904 0459 14       		.uleb128 0x14
 2905 045a D2040000 		.4byte	.LBB9
 2906 045e 24000000 		.4byte	.LBE9-.LBB9
 2907 0462 75040000 		.4byte	0x475
 2908 0466 12       		.uleb128 0x12
ARM GAS  C:\Users\Diego\AppData\Local\Temp\cccxrA3i.s 			page 62


 2909 0467 A1020000 		.4byte	.LASF49
 2910 046b 01       		.byte	0x1
 2911 046c FB       		.byte	0xfb
 2912 046d 81000000 		.4byte	0x81
 2913 0471 02       		.uleb128 0x2
 2914 0472 91       		.byte	0x91
 2915 0473 64       		.sleb128 -28
 2916 0474 00       		.byte	0
 2917 0475 14       		.uleb128 0x14
 2918 0476 F6040000 		.4byte	.LBB10
 2919 047a 28000000 		.4byte	.LBE10-.LBB10
 2920 047e 91040000 		.4byte	0x491
 2921 0482 12       		.uleb128 0x12
 2922 0483 A1020000 		.4byte	.LASF49
 2923 0487 01       		.byte	0x1
 2924 0488 FE       		.byte	0xfe
 2925 0489 81000000 		.4byte	0x81
 2926 048d 02       		.uleb128 0x2
 2927 048e 91       		.byte	0x91
 2928 048f 63       		.sleb128 -29
 2929 0490 00       		.byte	0
 2930 0491 14       		.uleb128 0x14
 2931 0492 1E050000 		.4byte	.LBB11
 2932 0496 28000000 		.4byte	.LBE11-.LBB11
 2933 049a AE040000 		.4byte	0x4ae
 2934 049e 15       		.uleb128 0x15
 2935 049f A1020000 		.4byte	.LASF49
 2936 04a3 01       		.byte	0x1
 2937 04a4 0101     		.2byte	0x101
 2938 04a6 81000000 		.4byte	0x81
 2939 04aa 02       		.uleb128 0x2
 2940 04ab 91       		.byte	0x91
 2941 04ac 62       		.sleb128 -30
 2942 04ad 00       		.byte	0
 2943 04ae 14       		.uleb128 0x14
 2944 04af 64050000 		.4byte	.LBB12
 2945 04b3 24000000 		.4byte	.LBE12-.LBB12
 2946 04b7 CB040000 		.4byte	0x4cb
 2947 04bb 15       		.uleb128 0x15
 2948 04bc A1020000 		.4byte	.LASF49
 2949 04c0 01       		.byte	0x1
 2950 04c1 0B01     		.2byte	0x10b
 2951 04c3 81000000 		.4byte	0x81
 2952 04c7 02       		.uleb128 0x2
 2953 04c8 91       		.byte	0x91
 2954 04c9 61       		.sleb128 -31
 2955 04ca 00       		.byte	0
 2956 04cb 14       		.uleb128 0x14
 2957 04cc FA050000 		.4byte	.LBB13
 2958 04d0 24000000 		.4byte	.LBE13-.LBB13
 2959 04d4 E8040000 		.4byte	0x4e8
 2960 04d8 15       		.uleb128 0x15
 2961 04d9 A1020000 		.4byte	.LASF49
 2962 04dd 01       		.byte	0x1
 2963 04de 1A01     		.2byte	0x11a
 2964 04e0 81000000 		.4byte	0x81
 2965 04e4 02       		.uleb128 0x2
ARM GAS  C:\Users\Diego\AppData\Local\Temp\cccxrA3i.s 			page 63


 2966 04e5 91       		.byte	0x91
 2967 04e6 60       		.sleb128 -32
 2968 04e7 00       		.byte	0
 2969 04e8 14       		.uleb128 0x14
 2970 04e9 1E060000 		.4byte	.LBB14
 2971 04ed 28000000 		.4byte	.LBE14-.LBB14
 2972 04f1 05050000 		.4byte	0x505
 2973 04f5 15       		.uleb128 0x15
 2974 04f6 A1020000 		.4byte	.LASF49
 2975 04fa 01       		.byte	0x1
 2976 04fb 1D01     		.2byte	0x11d
 2977 04fd 81000000 		.4byte	0x81
 2978 0501 02       		.uleb128 0x2
 2979 0502 91       		.byte	0x91
 2980 0503 5F       		.sleb128 -33
 2981 0504 00       		.byte	0
 2982 0505 14       		.uleb128 0x14
 2983 0506 46060000 		.4byte	.LBB15
 2984 050a 28000000 		.4byte	.LBE15-.LBB15
 2985 050e 22050000 		.4byte	0x522
 2986 0512 15       		.uleb128 0x15
 2987 0513 A1020000 		.4byte	.LASF49
 2988 0517 01       		.byte	0x1
 2989 0518 2001     		.2byte	0x120
 2990 051a 81000000 		.4byte	0x81
 2991 051e 02       		.uleb128 0x2
 2992 051f 91       		.byte	0x91
 2993 0520 5E       		.sleb128 -34
 2994 0521 00       		.byte	0
 2995 0522 14       		.uleb128 0x14
 2996 0523 40070000 		.4byte	.LBB16
 2997 0527 24000000 		.4byte	.LBE16-.LBB16
 2998 052b 3F050000 		.4byte	0x53f
 2999 052f 15       		.uleb128 0x15
 3000 0530 A1020000 		.4byte	.LASF49
 3001 0534 01       		.byte	0x1
 3002 0535 3701     		.2byte	0x137
 3003 0537 81000000 		.4byte	0x81
 3004 053b 02       		.uleb128 0x2
 3005 053c 91       		.byte	0x91
 3006 053d 5D       		.sleb128 -35
 3007 053e 00       		.byte	0
 3008 053f 14       		.uleb128 0x14
 3009 0540 12080000 		.4byte	.LBB17
 3010 0544 28000000 		.4byte	.LBE17-.LBB17
 3011 0548 5C050000 		.4byte	0x55c
 3012 054c 15       		.uleb128 0x15
 3013 054d A1020000 		.4byte	.LASF49
 3014 0551 01       		.byte	0x1
 3015 0552 5A01     		.2byte	0x15a
 3016 0554 81000000 		.4byte	0x81
 3017 0558 02       		.uleb128 0x2
 3018 0559 91       		.byte	0x91
 3019 055a 5C       		.sleb128 -36
 3020 055b 00       		.byte	0
 3021 055c 14       		.uleb128 0x14
 3022 055d 4C080000 		.4byte	.LBB18
ARM GAS  C:\Users\Diego\AppData\Local\Temp\cccxrA3i.s 			page 64


 3023 0561 54000000 		.4byte	.LBE18-.LBB18
 3024 0565 79050000 		.4byte	0x579
 3025 0569 15       		.uleb128 0x15
 3026 056a A1020000 		.4byte	.LASF49
 3027 056e 01       		.byte	0x1
 3028 056f 6001     		.2byte	0x160
 3029 0571 81000000 		.4byte	0x81
 3030 0575 02       		.uleb128 0x2
 3031 0576 91       		.byte	0x91
 3032 0577 5B       		.sleb128 -37
 3033 0578 00       		.byte	0
 3034 0579 14       		.uleb128 0x14
 3035 057a 90090000 		.4byte	.LBB19
 3036 057e 34000000 		.4byte	.LBE19-.LBB19
 3037 0582 96050000 		.4byte	0x596
 3038 0586 15       		.uleb128 0x15
 3039 0587 A1020000 		.4byte	.LASF49
 3040 058b 01       		.byte	0x1
 3041 058c 7301     		.2byte	0x173
 3042 058e 81000000 		.4byte	0x81
 3043 0592 02       		.uleb128 0x2
 3044 0593 91       		.byte	0x91
 3045 0594 5A       		.sleb128 -38
 3046 0595 00       		.byte	0
 3047 0596 14       		.uleb128 0x14
 3048 0597 280A0000 		.4byte	.LBB20
 3049 059b 2E000000 		.4byte	.LBE20-.LBB20
 3050 059f B3050000 		.4byte	0x5b3
 3051 05a3 15       		.uleb128 0x15
 3052 05a4 A1020000 		.4byte	.LASF49
 3053 05a8 01       		.byte	0x1
 3054 05a9 7E01     		.2byte	0x17e
 3055 05ab 81000000 		.4byte	0x81
 3056 05af 02       		.uleb128 0x2
 3057 05b0 91       		.byte	0x91
 3058 05b1 59       		.sleb128 -39
 3059 05b2 00       		.byte	0
 3060 05b3 14       		.uleb128 0x14
 3061 05b4 780A0000 		.4byte	.LBB21
 3062 05b8 24000000 		.4byte	.LBE21-.LBB21
 3063 05bc D0050000 		.4byte	0x5d0
 3064 05c0 15       		.uleb128 0x15
 3065 05c1 A1020000 		.4byte	.LASF49
 3066 05c5 01       		.byte	0x1
 3067 05c6 8701     		.2byte	0x187
 3068 05c8 81000000 		.4byte	0x81
 3069 05cc 02       		.uleb128 0x2
 3070 05cd 91       		.byte	0x91
 3071 05ce 58       		.sleb128 -40
 3072 05cf 00       		.byte	0
 3073 05d0 14       		.uleb128 0x14
 3074 05d1 AC0A0000 		.4byte	.LBB22
 3075 05d5 4A000000 		.4byte	.LBE22-.LBB22
 3076 05d9 ED050000 		.4byte	0x5ed
 3077 05dd 15       		.uleb128 0x15
 3078 05de A1020000 		.4byte	.LASF49
 3079 05e2 01       		.byte	0x1
ARM GAS  C:\Users\Diego\AppData\Local\Temp\cccxrA3i.s 			page 65


 3080 05e3 8C01     		.2byte	0x18c
 3081 05e5 81000000 		.4byte	0x81
 3082 05e9 02       		.uleb128 0x2
 3083 05ea 91       		.byte	0x91
 3084 05eb 57       		.sleb128 -41
 3085 05ec 00       		.byte	0
 3086 05ed 14       		.uleb128 0x14
 3087 05ee F60A0000 		.4byte	.LBB23
 3088 05f2 24000000 		.4byte	.LBE23-.LBB23
 3089 05f6 0A060000 		.4byte	0x60a
 3090 05fa 15       		.uleb128 0x15
 3091 05fb A1020000 		.4byte	.LASF49
 3092 05ff 01       		.byte	0x1
 3093 0600 9101     		.2byte	0x191
 3094 0602 81000000 		.4byte	0x81
 3095 0606 02       		.uleb128 0x2
 3096 0607 91       		.byte	0x91
 3097 0608 56       		.sleb128 -42
 3098 0609 00       		.byte	0
 3099 060a 14       		.uleb128 0x14
 3100 060b 300B0000 		.4byte	.LBB24
 3101 060f 4E000000 		.4byte	.LBE24-.LBB24
 3102 0613 27060000 		.4byte	0x627
 3103 0617 15       		.uleb128 0x15
 3104 0618 A1020000 		.4byte	.LASF49
 3105 061c 01       		.byte	0x1
 3106 061d 9701     		.2byte	0x197
 3107 061f 81000000 		.4byte	0x81
 3108 0623 02       		.uleb128 0x2
 3109 0624 91       		.byte	0x91
 3110 0625 55       		.sleb128 -43
 3111 0626 00       		.byte	0
 3112 0627 14       		.uleb128 0x14
 3113 0628 7E0B0000 		.4byte	.LBB25
 3114 062c 24000000 		.4byte	.LBE25-.LBB25
 3115 0630 44060000 		.4byte	0x644
 3116 0634 15       		.uleb128 0x15
 3117 0635 A1020000 		.4byte	.LASF49
 3118 0639 01       		.byte	0x1
 3119 063a 9D01     		.2byte	0x19d
 3120 063c 81000000 		.4byte	0x81
 3121 0640 02       		.uleb128 0x2
 3122 0641 91       		.byte	0x91
 3123 0642 54       		.sleb128 -44
 3124 0643 00       		.byte	0
 3125 0644 14       		.uleb128 0x14
 3126 0645 C40B0000 		.4byte	.LBB26
 3127 0649 4E000000 		.4byte	.LBE26-.LBB26
 3128 064d 61060000 		.4byte	0x661
 3129 0651 15       		.uleb128 0x15
 3130 0652 A1020000 		.4byte	.LASF49
 3131 0656 01       		.byte	0x1
 3132 0657 A401     		.2byte	0x1a4
 3133 0659 81000000 		.4byte	0x81
 3134 065d 02       		.uleb128 0x2
 3135 065e 91       		.byte	0x91
 3136 065f 53       		.sleb128 -45
ARM GAS  C:\Users\Diego\AppData\Local\Temp\cccxrA3i.s 			page 66


 3137 0660 00       		.byte	0
 3138 0661 14       		.uleb128 0x14
 3139 0662 120C0000 		.4byte	.LBB27
 3140 0666 24000000 		.4byte	.LBE27-.LBB27
 3141 066a 7E060000 		.4byte	0x67e
 3142 066e 15       		.uleb128 0x15
 3143 066f A1020000 		.4byte	.LASF49
 3144 0673 01       		.byte	0x1
 3145 0674 AA01     		.2byte	0x1aa
 3146 0676 81000000 		.4byte	0x81
 3147 067a 02       		.uleb128 0x2
 3148 067b 91       		.byte	0x91
 3149 067c 52       		.sleb128 -46
 3150 067d 00       		.byte	0
 3151 067e 14       		.uleb128 0x14
 3152 067f 600C0000 		.4byte	.LBB28
 3153 0683 94000000 		.4byte	.LBE28-.LBB28
 3154 0687 9B060000 		.4byte	0x69b
 3155 068b 15       		.uleb128 0x15
 3156 068c A1020000 		.4byte	.LASF49
 3157 0690 01       		.byte	0x1
 3158 0691 B201     		.2byte	0x1b2
 3159 0693 81000000 		.4byte	0x81
 3160 0697 02       		.uleb128 0x2
 3161 0698 91       		.byte	0x91
 3162 0699 51       		.sleb128 -47
 3163 069a 00       		.byte	0
 3164 069b 14       		.uleb128 0x14
 3165 069c F40C0000 		.4byte	.LBB29
 3166 06a0 24000000 		.4byte	.LBE29-.LBB29
 3167 06a4 B8060000 		.4byte	0x6b8
 3168 06a8 15       		.uleb128 0x15
 3169 06a9 A1020000 		.4byte	.LASF49
 3170 06ad 01       		.byte	0x1
 3171 06ae BB01     		.2byte	0x1bb
 3172 06b0 81000000 		.4byte	0x81
 3173 06b4 02       		.uleb128 0x2
 3174 06b5 91       		.byte	0x91
 3175 06b6 50       		.sleb128 -48
 3176 06b7 00       		.byte	0
 3177 06b8 14       		.uleb128 0x14
 3178 06b9 400D0000 		.4byte	.LBB30
 3179 06bd 4A000000 		.4byte	.LBE30-.LBB30
 3180 06c1 D5060000 		.4byte	0x6d5
 3181 06c5 15       		.uleb128 0x15
 3182 06c6 A1020000 		.4byte	.LASF49
 3183 06ca 01       		.byte	0x1
 3184 06cb C301     		.2byte	0x1c3
 3185 06cd 81000000 		.4byte	0x81
 3186 06d1 02       		.uleb128 0x2
 3187 06d2 91       		.byte	0x91
 3188 06d3 4F       		.sleb128 -49
 3189 06d4 00       		.byte	0
 3190 06d5 14       		.uleb128 0x14
 3191 06d6 8A0D0000 		.4byte	.LBB31
 3192 06da 24000000 		.4byte	.LBE31-.LBB31
 3193 06de F2060000 		.4byte	0x6f2
ARM GAS  C:\Users\Diego\AppData\Local\Temp\cccxrA3i.s 			page 67


 3194 06e2 15       		.uleb128 0x15
 3195 06e3 A1020000 		.4byte	.LASF49
 3196 06e7 01       		.byte	0x1
 3197 06e8 C801     		.2byte	0x1c8
 3198 06ea 81000000 		.4byte	0x81
 3199 06ee 02       		.uleb128 0x2
 3200 06ef 91       		.byte	0x91
 3201 06f0 4E       		.sleb128 -50
 3202 06f1 00       		.byte	0
 3203 06f2 14       		.uleb128 0x14
 3204 06f3 CA0D0000 		.4byte	.LBB32
 3205 06f7 80000000 		.4byte	.LBE32-.LBB32
 3206 06fb 0F070000 		.4byte	0x70f
 3207 06ff 15       		.uleb128 0x15
 3208 0700 A1020000 		.4byte	.LASF49
 3209 0704 01       		.byte	0x1
 3210 0705 CF01     		.2byte	0x1cf
 3211 0707 81000000 		.4byte	0x81
 3212 070b 02       		.uleb128 0x2
 3213 070c 91       		.byte	0x91
 3214 070d 4D       		.sleb128 -51
 3215 070e 00       		.byte	0
 3216 070f 16       		.uleb128 0x16
 3217 0710 4A0E0000 		.4byte	.LBB33
 3218 0714 24000000 		.4byte	.LBE33-.LBB33
 3219 0718 15       		.uleb128 0x15
 3220 0719 A1020000 		.4byte	.LASF49
 3221 071d 01       		.byte	0x1
 3222 071e D801     		.2byte	0x1d8
 3223 0720 81000000 		.4byte	0x81
 3224 0724 02       		.uleb128 0x2
 3225 0725 91       		.byte	0x91
 3226 0726 4C       		.sleb128 -52
 3227 0727 00       		.byte	0
 3228 0728 00       		.byte	0
 3229 0729 17       		.uleb128 0x17
 3230 072a 63030000 		.4byte	.LASF50
 3231 072e 06       		.byte	0x6
 3232 072f 1207     		.2byte	0x712
 3233 0731 35070000 		.4byte	0x735
 3234 0735 18       		.uleb128 0x18
 3235 0736 76000000 		.4byte	0x76
 3236 073a 19       		.uleb128 0x19
 3237 073b 58010000 		.4byte	.LASF51
 3238 073f 05       		.byte	0x5
 3239 0740 10       		.byte	0x10
 3240 0741 8D000000 		.4byte	0x8d
 3241 0745 05       		.uleb128 0x5
 3242 0746 03       		.byte	0x3
 3243 0747 00000000 		.4byte	PollCounter
 3244 074b 19       		.uleb128 0x19
 3245 074c 23020000 		.4byte	.LASF52
 3246 0750 05       		.byte	0x5
 3247 0751 11       		.byte	0x11
 3248 0752 81000000 		.4byte	0x81
 3249 0756 05       		.uleb128 0x5
 3250 0757 03       		.byte	0x3
ARM GAS  C:\Users\Diego\AppData\Local\Temp\cccxrA3i.s 			page 68


 3251 0758 00000000 		.4byte	CurrentState
 3252 075c 19       		.uleb128 0x19
 3253 075d B1030000 		.4byte	.LASF53
 3254 0761 05       		.byte	0x5
 3255 0762 12       		.byte	0x12
 3256 0763 81000000 		.4byte	0x81
 3257 0767 05       		.uleb128 0x5
 3258 0768 03       		.byte	0x3
 3259 0769 00000000 		.4byte	Receipt
 3260 076d 0B       		.uleb128 0xb
 3261 076e 81000000 		.4byte	0x81
 3262 0772 7D070000 		.4byte	0x77d
 3263 0776 0C       		.uleb128 0xc
 3264 0777 C1000000 		.4byte	0xc1
 3265 077b 05       		.byte	0x5
 3266 077c 00       		.byte	0
 3267 077d 19       		.uleb128 0x19
 3268 077e 0E030000 		.4byte	.LASF54
 3269 0782 05       		.byte	0x5
 3270 0783 13       		.byte	0x13
 3271 0784 6D070000 		.4byte	0x76d
 3272 0788 05       		.uleb128 0x5
 3273 0789 03       		.byte	0x3
 3274 078a 00000000 		.4byte	sale_number
 3275 078e 19       		.uleb128 0x19
 3276 078f 08010000 		.4byte	.LASF55
 3277 0793 05       		.byte	0x5
 3278 0794 14       		.byte	0x14
 3279 0795 6D070000 		.4byte	0x76d
 3280 0799 05       		.uleb128 0x5
 3281 079a 03       		.byte	0x3
 3282 079b 00000000 		.4byte	sale_number_copy
 3283 079f 19       		.uleb128 0x19
 3284 07a0 60000000 		.4byte	.LASF56
 3285 07a4 05       		.byte	0x5
 3286 07a5 15       		.byte	0x15
 3287 07a6 81000000 		.4byte	0x81
 3288 07aa 05       		.uleb128 0x5
 3289 07ab 03       		.byte	0x3
 3290 07ac 00000000 		.4byte	int_salenumber
 3291 07b0 19       		.uleb128 0x19
 3292 07b1 30020000 		.4byte	.LASF57
 3293 07b5 05       		.byte	0x5
 3294 07b6 16       		.byte	0x16
 3295 07b7 6D070000 		.4byte	0x76d
 3296 07bb 05       		.uleb128 0x5
 3297 07bc 03       		.byte	0x3
 3298 07bd 00000000 		.4byte	shift_number
 3299 07c1 19       		.uleb128 0x19
 3300 07c2 3A010000 		.4byte	.LASF58
 3301 07c6 05       		.byte	0x5
 3302 07c7 17       		.byte	0x17
 3303 07c8 81000000 		.4byte	0x81
 3304 07cc 05       		.uleb128 0x5
 3305 07cd 03       		.byte	0x3
 3306 07ce 00000000 		.4byte	int_shiftnumber
 3307 07d2 19       		.uleb128 0x19
ARM GAS  C:\Users\Diego\AppData\Local\Temp\cccxrA3i.s 			page 69


 3308 07d3 86010000 		.4byte	.LASF59
 3309 07d7 05       		.byte	0x5
 3310 07d8 18       		.byte	0x18
 3311 07d9 81000000 		.4byte	0x81
 3312 07dd 05       		.uleb128 0x5
 3313 07de 03       		.byte	0x3
 3314 07df 00000000 		.4byte	LCDhose
 3315 07e3 19       		.uleb128 0x19
 3316 07e4 B9030000 		.4byte	.LASF60
 3317 07e8 05       		.byte	0x5
 3318 07e9 3F       		.byte	0x3f
 3319 07ea 78020000 		.4byte	0x278
 3320 07ee 05       		.uleb128 0x5
 3321 07ef 03       		.byte	0x3
 3322 07f0 00000000 		.4byte	side
 3323 07f4 19       		.uleb128 0x19
 3324 07f5 54030000 		.4byte	.LASF61
 3325 07f9 05       		.byte	0x5
 3326 07fa 48       		.byte	0x48
 3327 07fb 16020000 		.4byte	0x216
 3328 07ff 05       		.uleb128 0x5
 3329 0800 03       		.byte	0x3
 3330 0801 00000000 		.4byte	MepsanResponse
 3331 0805 19       		.uleb128 0x19
 3332 0806 E4010000 		.4byte	.LASF62
 3333 080a 05       		.byte	0x5
 3334 080b 49       		.byte	0x49
 3335 080c 16020000 		.4byte	0x216
 3336 0810 05       		.uleb128 0x5
 3337 0811 03       		.byte	0x3
 3338 0812 00000000 		.4byte	MepsanSendTo
 3339 0816 0B       		.uleb128 0xb
 3340 0817 81000000 		.4byte	0x81
 3341 081b 26080000 		.4byte	0x826
 3342 081f 0C       		.uleb128 0xc
 3343 0820 C1000000 		.4byte	0xc1
 3344 0824 0E       		.byte	0xe
 3345 0825 00       		.byte	0
 3346 0826 19       		.uleb128 0x19
 3347 0827 09020000 		.4byte	.LASF63
 3348 082b 05       		.byte	0x5
 3349 082c 4A       		.byte	0x4a
 3350 082d 16080000 		.4byte	0x816
 3351 0831 05       		.uleb128 0x5
 3352 0832 03       		.byte	0x3
 3353 0833 00000000 		.4byte	PumpAddress
 3354 0837 1A       		.uleb128 0x1a
 3355 0838 43524300 		.ascii	"CRC\000"
 3356 083c 05       		.byte	0x5
 3357 083d 4B       		.byte	0x4b
 3358 083e 8D000000 		.4byte	0x8d
 3359 0842 05       		.uleb128 0x5
 3360 0843 03       		.byte	0x3
 3361 0844 00000000 		.4byte	CRC
 3362 0848 19       		.uleb128 0x19
 3363 0849 15000000 		.4byte	.LASF64
 3364 084d 05       		.byte	0x5
ARM GAS  C:\Users\Diego\AppData\Local\Temp\cccxrA3i.s 			page 70


 3365 084e 4C       		.byte	0x4c
 3366 084f 81000000 		.4byte	0x81
 3367 0853 05       		.uleb128 0x5
 3368 0854 03       		.byte	0x3
 3369 0855 00000000 		.4byte	crc_lo
 3370 0859 19       		.uleb128 0x19
 3371 085a DB030000 		.4byte	.LASF65
 3372 085e 05       		.byte	0x5
 3373 085f 4C       		.byte	0x4c
 3374 0860 81000000 		.4byte	0x81
 3375 0864 05       		.uleb128 0x5
 3376 0865 03       		.byte	0x3
 3377 0866 00000000 		.4byte	crc_hi
 3378 086a 19       		.uleb128 0x19
 3379 086b 19010000 		.4byte	.LASF66
 3380 086f 05       		.byte	0x5
 3381 0870 4D       		.byte	0x4d
 3382 0871 81000000 		.4byte	0x81
 3383 0875 05       		.uleb128 0x5
 3384 0876 03       		.byte	0x3
 3385 0877 00000000 		.4byte	Positions
 3386 087b 19       		.uleb128 0x19
 3387 087c 7A030000 		.4byte	.LASF67
 3388 0880 05       		.byte	0x5
 3389 0881 4E       		.byte	0x4e
 3390 0882 81000000 		.4byte	0x81
 3391 0886 05       		.uleb128 0x5
 3392 0887 03       		.byte	0x3
 3393 0888 00000000 		.4byte	TotalRequestType
 3394 088c 19       		.uleb128 0x19
 3395 088d 64010000 		.4byte	.LASF68
 3396 0891 05       		.byte	0x5
 3397 0892 4F       		.byte	0x4f
 3398 0893 81000000 		.4byte	0x81
 3399 0897 05       		.uleb128 0x5
 3400 0898 03       		.byte	0x3
 3401 0899 00000000 		.4byte	DecVol
 3402 089d 0B       		.uleb128 0xb
 3403 089e 81000000 		.4byte	0x81
 3404 08a2 AD080000 		.4byte	0x8ad
 3405 08a6 0C       		.uleb128 0xc
 3406 08a7 C1000000 		.4byte	0xc1
 3407 08ab 13       		.byte	0x13
 3408 08ac 00       		.byte	0
 3409 08ad 19       		.uleb128 0x19
 3410 08ae 4D030000 		.4byte	.LASF69
 3411 08b2 05       		.byte	0x5
 3412 08b3 58       		.byte	0x58
 3413 08b4 9D080000 		.4byte	0x89d
 3414 08b8 05       		.uleb128 0x5
 3415 08b9 03       		.byte	0x3
 3416 08ba 00000000 		.4byte	touch1
 3417 08be 19       		.uleb128 0x19
 3418 08bf AB010000 		.4byte	.LASF70
 3419 08c3 05       		.byte	0x5
 3420 08c4 61       		.byte	0x61
 3421 08c5 81000000 		.4byte	0x81
ARM GAS  C:\Users\Diego\AppData\Local\Temp\cccxrA3i.s 			page 71


 3422 08c9 05       		.uleb128 0x5
 3423 08ca 03       		.byte	0x3
 3424 08cb 00000000 		.4byte	dirGbr
 3425 08cf 00       		.byte	0
 3426              		.section	.debug_abbrev,"",%progbits
 3427              	.Ldebug_abbrev0:
 3428 0000 01       		.uleb128 0x1
 3429 0001 11       		.uleb128 0x11
 3430 0002 01       		.byte	0x1
 3431 0003 25       		.uleb128 0x25
 3432 0004 0E       		.uleb128 0xe
 3433 0005 13       		.uleb128 0x13
 3434 0006 0B       		.uleb128 0xb
 3435 0007 03       		.uleb128 0x3
 3436 0008 0E       		.uleb128 0xe
 3437 0009 1B       		.uleb128 0x1b
 3438 000a 0E       		.uleb128 0xe
 3439 000b 55       		.uleb128 0x55
 3440 000c 17       		.uleb128 0x17
 3441 000d 11       		.uleb128 0x11
 3442 000e 01       		.uleb128 0x1
 3443 000f 10       		.uleb128 0x10
 3444 0010 17       		.uleb128 0x17
 3445 0011 00       		.byte	0
 3446 0012 00       		.byte	0
 3447 0013 02       		.uleb128 0x2
 3448 0014 24       		.uleb128 0x24
 3449 0015 00       		.byte	0
 3450 0016 0B       		.uleb128 0xb
 3451 0017 0B       		.uleb128 0xb
 3452 0018 3E       		.uleb128 0x3e
 3453 0019 0B       		.uleb128 0xb
 3454 001a 03       		.uleb128 0x3
 3455 001b 0E       		.uleb128 0xe
 3456 001c 00       		.byte	0
 3457 001d 00       		.byte	0
 3458 001e 03       		.uleb128 0x3
 3459 001f 16       		.uleb128 0x16
 3460 0020 00       		.byte	0
 3461 0021 03       		.uleb128 0x3
 3462 0022 0E       		.uleb128 0xe
 3463 0023 3A       		.uleb128 0x3a
 3464 0024 0B       		.uleb128 0xb
 3465 0025 3B       		.uleb128 0x3b
 3466 0026 0B       		.uleb128 0xb
 3467 0027 49       		.uleb128 0x49
 3468 0028 13       		.uleb128 0x13
 3469 0029 00       		.byte	0
 3470 002a 00       		.byte	0
 3471 002b 04       		.uleb128 0x4
 3472 002c 24       		.uleb128 0x24
 3473 002d 00       		.byte	0
 3474 002e 0B       		.uleb128 0xb
 3475 002f 0B       		.uleb128 0xb
 3476 0030 3E       		.uleb128 0x3e
 3477 0031 0B       		.uleb128 0xb
 3478 0032 03       		.uleb128 0x3
ARM GAS  C:\Users\Diego\AppData\Local\Temp\cccxrA3i.s 			page 72


 3479 0033 08       		.uleb128 0x8
 3480 0034 00       		.byte	0
 3481 0035 00       		.byte	0
 3482 0036 05       		.uleb128 0x5
 3483 0037 16       		.uleb128 0x16
 3484 0038 00       		.byte	0
 3485 0039 03       		.uleb128 0x3
 3486 003a 0E       		.uleb128 0xe
 3487 003b 3A       		.uleb128 0x3a
 3488 003c 0B       		.uleb128 0xb
 3489 003d 3B       		.uleb128 0x3b
 3490 003e 05       		.uleb128 0x5
 3491 003f 49       		.uleb128 0x49
 3492 0040 13       		.uleb128 0x13
 3493 0041 00       		.byte	0
 3494 0042 00       		.byte	0
 3495 0043 06       		.uleb128 0x6
 3496 0044 13       		.uleb128 0x13
 3497 0045 01       		.byte	0x1
 3498 0046 03       		.uleb128 0x3
 3499 0047 0E       		.uleb128 0xe
 3500 0048 0B       		.uleb128 0xb
 3501 0049 05       		.uleb128 0x5
 3502 004a 3A       		.uleb128 0x3a
 3503 004b 0B       		.uleb128 0xb
 3504 004c 3B       		.uleb128 0x3b
 3505 004d 0B       		.uleb128 0xb
 3506 004e 01       		.uleb128 0x1
 3507 004f 13       		.uleb128 0x13
 3508 0050 00       		.byte	0
 3509 0051 00       		.byte	0
 3510 0052 07       		.uleb128 0x7
 3511 0053 0D       		.uleb128 0xd
 3512 0054 00       		.byte	0
 3513 0055 03       		.uleb128 0x3
 3514 0056 08       		.uleb128 0x8
 3515 0057 3A       		.uleb128 0x3a
 3516 0058 0B       		.uleb128 0xb
 3517 0059 3B       		.uleb128 0x3b
 3518 005a 0B       		.uleb128 0xb
 3519 005b 49       		.uleb128 0x49
 3520 005c 13       		.uleb128 0x13
 3521 005d 38       		.uleb128 0x38
 3522 005e 0B       		.uleb128 0xb
 3523 005f 00       		.byte	0
 3524 0060 00       		.byte	0
 3525 0061 08       		.uleb128 0x8
 3526 0062 0D       		.uleb128 0xd
 3527 0063 00       		.byte	0
 3528 0064 03       		.uleb128 0x3
 3529 0065 0E       		.uleb128 0xe
 3530 0066 3A       		.uleb128 0x3a
 3531 0067 0B       		.uleb128 0xb
 3532 0068 3B       		.uleb128 0x3b
 3533 0069 0B       		.uleb128 0xb
 3534 006a 49       		.uleb128 0x49
 3535 006b 13       		.uleb128 0x13
ARM GAS  C:\Users\Diego\AppData\Local\Temp\cccxrA3i.s 			page 73


 3536 006c 38       		.uleb128 0x38
 3537 006d 0B       		.uleb128 0xb
 3538 006e 00       		.byte	0
 3539 006f 00       		.byte	0
 3540 0070 09       		.uleb128 0x9
 3541 0071 0D       		.uleb128 0xd
 3542 0072 00       		.byte	0
 3543 0073 03       		.uleb128 0x3
 3544 0074 0E       		.uleb128 0xe
 3545 0075 3A       		.uleb128 0x3a
 3546 0076 0B       		.uleb128 0xb
 3547 0077 3B       		.uleb128 0x3b
 3548 0078 0B       		.uleb128 0xb
 3549 0079 49       		.uleb128 0x49
 3550 007a 13       		.uleb128 0x13
 3551 007b 38       		.uleb128 0x38
 3552 007c 05       		.uleb128 0x5
 3553 007d 00       		.byte	0
 3554 007e 00       		.byte	0
 3555 007f 0A       		.uleb128 0xa
 3556 0080 0D       		.uleb128 0xd
 3557 0081 00       		.byte	0
 3558 0082 03       		.uleb128 0x3
 3559 0083 08       		.uleb128 0x8
 3560 0084 3A       		.uleb128 0x3a
 3561 0085 0B       		.uleb128 0xb
 3562 0086 3B       		.uleb128 0x3b
 3563 0087 0B       		.uleb128 0xb
 3564 0088 49       		.uleb128 0x49
 3565 0089 13       		.uleb128 0x13
 3566 008a 38       		.uleb128 0x38
 3567 008b 05       		.uleb128 0x5
 3568 008c 00       		.byte	0
 3569 008d 00       		.byte	0
 3570 008e 0B       		.uleb128 0xb
 3571 008f 01       		.uleb128 0x1
 3572 0090 01       		.byte	0x1
 3573 0091 49       		.uleb128 0x49
 3574 0092 13       		.uleb128 0x13
 3575 0093 01       		.uleb128 0x1
 3576 0094 13       		.uleb128 0x13
 3577 0095 00       		.byte	0
 3578 0096 00       		.byte	0
 3579 0097 0C       		.uleb128 0xc
 3580 0098 21       		.uleb128 0x21
 3581 0099 00       		.byte	0
 3582 009a 49       		.uleb128 0x49
 3583 009b 13       		.uleb128 0x13
 3584 009c 2F       		.uleb128 0x2f
 3585 009d 0B       		.uleb128 0xb
 3586 009e 00       		.byte	0
 3587 009f 00       		.byte	0
 3588 00a0 0D       		.uleb128 0xd
 3589 00a1 04       		.uleb128 0x4
 3590 00a2 01       		.byte	0x1
 3591 00a3 03       		.uleb128 0x3
 3592 00a4 0E       		.uleb128 0xe
ARM GAS  C:\Users\Diego\AppData\Local\Temp\cccxrA3i.s 			page 74


 3593 00a5 0B       		.uleb128 0xb
 3594 00a6 0B       		.uleb128 0xb
 3595 00a7 49       		.uleb128 0x49
 3596 00a8 13       		.uleb128 0x13
 3597 00a9 3A       		.uleb128 0x3a
 3598 00aa 0B       		.uleb128 0xb
 3599 00ab 3B       		.uleb128 0x3b
 3600 00ac 0B       		.uleb128 0xb
 3601 00ad 01       		.uleb128 0x1
 3602 00ae 13       		.uleb128 0x13
 3603 00af 00       		.byte	0
 3604 00b0 00       		.byte	0
 3605 00b1 0E       		.uleb128 0xe
 3606 00b2 28       		.uleb128 0x28
 3607 00b3 00       		.byte	0
 3608 00b4 03       		.uleb128 0x3
 3609 00b5 0E       		.uleb128 0xe
 3610 00b6 1C       		.uleb128 0x1c
 3611 00b7 0B       		.uleb128 0xb
 3612 00b8 00       		.byte	0
 3613 00b9 00       		.byte	0
 3614 00ba 0F       		.uleb128 0xf
 3615 00bb 2E       		.uleb128 0x2e
 3616 00bc 01       		.byte	0x1
 3617 00bd 3F       		.uleb128 0x3f
 3618 00be 19       		.uleb128 0x19
 3619 00bf 03       		.uleb128 0x3
 3620 00c0 0E       		.uleb128 0xe
 3621 00c1 3A       		.uleb128 0x3a
 3622 00c2 0B       		.uleb128 0xb
 3623 00c3 3B       		.uleb128 0x3b
 3624 00c4 0B       		.uleb128 0xb
 3625 00c5 27       		.uleb128 0x27
 3626 00c6 19       		.uleb128 0x19
 3627 00c7 11       		.uleb128 0x11
 3628 00c8 01       		.uleb128 0x1
 3629 00c9 12       		.uleb128 0x12
 3630 00ca 06       		.uleb128 0x6
 3631 00cb 40       		.uleb128 0x40
 3632 00cc 18       		.uleb128 0x18
 3633 00cd 9642     		.uleb128 0x2116
 3634 00cf 19       		.uleb128 0x19
 3635 00d0 01       		.uleb128 0x1
 3636 00d1 13       		.uleb128 0x13
 3637 00d2 00       		.byte	0
 3638 00d3 00       		.byte	0
 3639 00d4 10       		.uleb128 0x10
 3640 00d5 34       		.uleb128 0x34
 3641 00d6 00       		.byte	0
 3642 00d7 03       		.uleb128 0x3
 3643 00d8 08       		.uleb128 0x8
 3644 00d9 3A       		.uleb128 0x3a
 3645 00da 0B       		.uleb128 0xb
 3646 00db 3B       		.uleb128 0x3b
 3647 00dc 0B       		.uleb128 0xb
 3648 00dd 49       		.uleb128 0x49
 3649 00de 13       		.uleb128 0x13
ARM GAS  C:\Users\Diego\AppData\Local\Temp\cccxrA3i.s 			page 75


 3650 00df 02       		.uleb128 0x2
 3651 00e0 18       		.uleb128 0x18
 3652 00e1 00       		.byte	0
 3653 00e2 00       		.byte	0
 3654 00e3 11       		.uleb128 0x11
 3655 00e4 2E       		.uleb128 0x2e
 3656 00e5 01       		.byte	0x1
 3657 00e6 3F       		.uleb128 0x3f
 3658 00e7 19       		.uleb128 0x19
 3659 00e8 03       		.uleb128 0x3
 3660 00e9 0E       		.uleb128 0xe
 3661 00ea 3A       		.uleb128 0x3a
 3662 00eb 0B       		.uleb128 0xb
 3663 00ec 3B       		.uleb128 0x3b
 3664 00ed 0B       		.uleb128 0xb
 3665 00ee 49       		.uleb128 0x49
 3666 00ef 13       		.uleb128 0x13
 3667 00f0 11       		.uleb128 0x11
 3668 00f1 01       		.uleb128 0x1
 3669 00f2 12       		.uleb128 0x12
 3670 00f3 06       		.uleb128 0x6
 3671 00f4 40       		.uleb128 0x40
 3672 00f5 18       		.uleb128 0x18
 3673 00f6 9642     		.uleb128 0x2116
 3674 00f8 19       		.uleb128 0x19
 3675 00f9 01       		.uleb128 0x1
 3676 00fa 13       		.uleb128 0x13
 3677 00fb 00       		.byte	0
 3678 00fc 00       		.byte	0
 3679 00fd 12       		.uleb128 0x12
 3680 00fe 34       		.uleb128 0x34
 3681 00ff 00       		.byte	0
 3682 0100 03       		.uleb128 0x3
 3683 0101 0E       		.uleb128 0xe
 3684 0102 3A       		.uleb128 0x3a
 3685 0103 0B       		.uleb128 0xb
 3686 0104 3B       		.uleb128 0x3b
 3687 0105 0B       		.uleb128 0xb
 3688 0106 49       		.uleb128 0x49
 3689 0107 13       		.uleb128 0x13
 3690 0108 02       		.uleb128 0x2
 3691 0109 18       		.uleb128 0x18
 3692 010a 00       		.byte	0
 3693 010b 00       		.byte	0
 3694 010c 13       		.uleb128 0x13
 3695 010d 34       		.uleb128 0x34
 3696 010e 00       		.byte	0
 3697 010f 03       		.uleb128 0x3
 3698 0110 0E       		.uleb128 0xe
 3699 0111 3A       		.uleb128 0x3a
 3700 0112 0B       		.uleb128 0xb
 3701 0113 3B       		.uleb128 0x3b
 3702 0114 0B       		.uleb128 0xb
 3703 0115 49       		.uleb128 0x49
 3704 0116 13       		.uleb128 0x13
 3705 0117 00       		.byte	0
 3706 0118 00       		.byte	0
ARM GAS  C:\Users\Diego\AppData\Local\Temp\cccxrA3i.s 			page 76


 3707 0119 14       		.uleb128 0x14
 3708 011a 0B       		.uleb128 0xb
 3709 011b 01       		.byte	0x1
 3710 011c 11       		.uleb128 0x11
 3711 011d 01       		.uleb128 0x1
 3712 011e 12       		.uleb128 0x12
 3713 011f 06       		.uleb128 0x6
 3714 0120 01       		.uleb128 0x1
 3715 0121 13       		.uleb128 0x13
 3716 0122 00       		.byte	0
 3717 0123 00       		.byte	0
 3718 0124 15       		.uleb128 0x15
 3719 0125 34       		.uleb128 0x34
 3720 0126 00       		.byte	0
 3721 0127 03       		.uleb128 0x3
 3722 0128 0E       		.uleb128 0xe
 3723 0129 3A       		.uleb128 0x3a
 3724 012a 0B       		.uleb128 0xb
 3725 012b 3B       		.uleb128 0x3b
 3726 012c 05       		.uleb128 0x5
 3727 012d 49       		.uleb128 0x49
 3728 012e 13       		.uleb128 0x13
 3729 012f 02       		.uleb128 0x2
 3730 0130 18       		.uleb128 0x18
 3731 0131 00       		.byte	0
 3732 0132 00       		.byte	0
 3733 0133 16       		.uleb128 0x16
 3734 0134 0B       		.uleb128 0xb
 3735 0135 01       		.byte	0x1
 3736 0136 11       		.uleb128 0x11
 3737 0137 01       		.uleb128 0x1
 3738 0138 12       		.uleb128 0x12
 3739 0139 06       		.uleb128 0x6
 3740 013a 00       		.byte	0
 3741 013b 00       		.byte	0
 3742 013c 17       		.uleb128 0x17
 3743 013d 34       		.uleb128 0x34
 3744 013e 00       		.byte	0
 3745 013f 03       		.uleb128 0x3
 3746 0140 0E       		.uleb128 0xe
 3747 0141 3A       		.uleb128 0x3a
 3748 0142 0B       		.uleb128 0xb
 3749 0143 3B       		.uleb128 0x3b
 3750 0144 05       		.uleb128 0x5
 3751 0145 49       		.uleb128 0x49
 3752 0146 13       		.uleb128 0x13
 3753 0147 3F       		.uleb128 0x3f
 3754 0148 19       		.uleb128 0x19
 3755 0149 3C       		.uleb128 0x3c
 3756 014a 19       		.uleb128 0x19
 3757 014b 00       		.byte	0
 3758 014c 00       		.byte	0
 3759 014d 18       		.uleb128 0x18
 3760 014e 35       		.uleb128 0x35
 3761 014f 00       		.byte	0
 3762 0150 49       		.uleb128 0x49
 3763 0151 13       		.uleb128 0x13
ARM GAS  C:\Users\Diego\AppData\Local\Temp\cccxrA3i.s 			page 77


 3764 0152 00       		.byte	0
 3765 0153 00       		.byte	0
 3766 0154 19       		.uleb128 0x19
 3767 0155 34       		.uleb128 0x34
 3768 0156 00       		.byte	0
 3769 0157 03       		.uleb128 0x3
 3770 0158 0E       		.uleb128 0xe
 3771 0159 3A       		.uleb128 0x3a
 3772 015a 0B       		.uleb128 0xb
 3773 015b 3B       		.uleb128 0x3b
 3774 015c 0B       		.uleb128 0xb
 3775 015d 49       		.uleb128 0x49
 3776 015e 13       		.uleb128 0x13
 3777 015f 3F       		.uleb128 0x3f
 3778 0160 19       		.uleb128 0x19
 3779 0161 02       		.uleb128 0x2
 3780 0162 18       		.uleb128 0x18
 3781 0163 00       		.byte	0
 3782 0164 00       		.byte	0
 3783 0165 1A       		.uleb128 0x1a
 3784 0166 34       		.uleb128 0x34
 3785 0167 00       		.byte	0
 3786 0168 03       		.uleb128 0x3
 3787 0169 08       		.uleb128 0x8
 3788 016a 3A       		.uleb128 0x3a
 3789 016b 0B       		.uleb128 0xb
 3790 016c 3B       		.uleb128 0x3b
 3791 016d 0B       		.uleb128 0xb
 3792 016e 49       		.uleb128 0x49
 3793 016f 13       		.uleb128 0x13
 3794 0170 3F       		.uleb128 0x3f
 3795 0171 19       		.uleb128 0x19
 3796 0172 02       		.uleb128 0x2
 3797 0173 18       		.uleb128 0x18
 3798 0174 00       		.byte	0
 3799 0175 00       		.byte	0
 3800 0176 00       		.byte	0
 3801              		.section	.debug_aranges,"",%progbits
 3802 0000 24000000 		.4byte	0x24
 3803 0004 0200     		.2byte	0x2
 3804 0006 00000000 		.4byte	.Ldebug_info0
 3805 000a 04       		.byte	0x4
 3806 000b 00       		.byte	0
 3807 000c 0000     		.2byte	0
 3808 000e 0000     		.2byte	0
 3809 0010 00000000 		.4byte	.LFB63
 3810 0014 E8010000 		.4byte	.LFE63-.LFB63
 3811 0018 00000000 		.4byte	.LFB64
 3812 001c B40E0000 		.4byte	.LFE64-.LFB64
 3813 0020 00000000 		.4byte	0
 3814 0024 00000000 		.4byte	0
 3815              		.section	.debug_ranges,"",%progbits
 3816              	.Ldebug_ranges0:
 3817 0000 00000000 		.4byte	.LFB63
 3818 0004 E8010000 		.4byte	.LFE63
 3819 0008 00000000 		.4byte	.LFB64
 3820 000c B40E0000 		.4byte	.LFE64
ARM GAS  C:\Users\Diego\AppData\Local\Temp\cccxrA3i.s 			page 78


 3821 0010 00000000 		.4byte	0
 3822 0014 00000000 		.4byte	0
 3823              		.section	.debug_line,"",%progbits
 3824              	.Ldebug_line0:
 3825 0000 F7050000 		.section	.debug_str,"MS",%progbits,1
 3825      02005801 
 3825      00000201 
 3825      FB0E0D00 
 3825      01010101 
 3826              	.LASF13:
 3827 0000 666C6F61 		.ascii	"float\000"
 3827      7400
 3828              	.LASF74:
 3829 0006 4D455053 		.ascii	"MEPSAN_REQUEST\000"
 3829      414E5F52 
 3829      45515545 
 3829      535400
 3830              	.LASF64:
 3831 0015 6372635F 		.ascii	"crc_lo\000"
 3831      6C6F00
 3832              	.LASF39:
 3833 001c 4D455053 		.ascii	"MEPSAN_R_FILLING\000"
 3833      414E5F52 
 3833      5F46494C 
 3833      4C494E47 
 3833      00
 3834              	.LASF32:
 3835 002d 4D657052 		.ascii	"MepRequest\000"
 3835      65717565 
 3835      737400
 3836              	.LASF27:
 3837 0038 50726F63 		.ascii	"ProcessedTotals\000"
 3837      65737365 
 3837      64546F74 
 3837      616C7300 
 3838              	.LASF75:
 3839 0048 74656D70 		.ascii	"temp\000"
 3839      00
 3840              	.LASF2:
 3841 004d 73686F72 		.ascii	"short int\000"
 3841      7420696E 
 3841      7400
 3842              	.LASF18:
 3843 0057 73697A65 		.ascii	"sizetype\000"
 3843      74797065 
 3843      00
 3844              	.LASF56:
 3845 0060 696E745F 		.ascii	"int_salenumber\000"
 3845      73616C65 
 3845      6E756D62 
 3845      657200
 3846              	.LASF41:
 3847 006f 6D61696E 		.ascii	"main\000"
 3847      00
 3848              	.LASF15:
 3849 0074 63686172 		.ascii	"char8\000"
 3849      3800
ARM GAS  C:\Users\Diego\AppData\Local\Temp\cccxrA3i.s 			page 79


 3850              	.LASF71:
 3851 007a 474E5520 		.ascii	"GNU C11 5.4.1 20160609 (release) [ARM/embedded-5-br"
 3851      43313120 
 3851      352E342E 
 3851      31203230 
 3851      31363036 
 3852 00ad 616E6368 		.ascii	"anch revision 237715] -mcpu=cortex-m3 -mthumb -g -O"
 3852      20726576 
 3852      6973696F 
 3852      6E203233 
 3852      37373135 
 3853 00e0 30202D66 		.ascii	"0 -ffunction-sections -ffat-lto-objects\000"
 3853      66756E63 
 3853      74696F6E 
 3853      2D736563 
 3853      74696F6E 
 3854              	.LASF55:
 3855 0108 73616C65 		.ascii	"sale_number_copy\000"
 3855      5F6E756D 
 3855      6265725F 
 3855      636F7079 
 3855      00
 3856              	.LASF66:
 3857 0119 506F7369 		.ascii	"Positions\000"
 3857      74696F6E 
 3857      7300
 3858              	.LASF12:
 3859 0123 75696E74 		.ascii	"uint16\000"
 3859      313600
 3860              	.LASF20:
 3861 012a 7070754E 		.ascii	"ppuNozzle\000"
 3861      6F7A7A6C 
 3861      6500
 3862              	.LASF11:
 3863 0134 75696E74 		.ascii	"uint8\000"
 3863      3800
 3864              	.LASF58:
 3865 013a 696E745F 		.ascii	"int_shiftnumber\000"
 3865      73686966 
 3865      746E756D 
 3865      62657200 
 3866              	.LASF34:
 3867 014a 436F7079 		.ascii	"Copy\000"
 3867      00
 3868              	.LASF35:
 3869 014f 706F7369 		.ascii	"position\000"
 3869      74696F6E 
 3869      00
 3870              	.LASF51:
 3871 0158 506F6C6C 		.ascii	"PollCounter\000"
 3871      436F756E 
 3871      74657200 
 3872              	.LASF68:
 3873 0164 44656356 		.ascii	"DecVol\000"
 3873      6F6C00
 3874              	.LASF44:
 3875 016b 70617373 		.ascii	"passw\000"
ARM GAS  C:\Users\Diego\AppData\Local\Temp\cccxrA3i.s 			page 80


 3875      7700
 3876              	.LASF6:
 3877 0171 6C6F6E67 		.ascii	"long long int\000"
 3877      206C6F6E 
 3877      6720696E 
 3877      7400
 3878              	.LASF25:
 3879 017f 73746174 		.ascii	"states\000"
 3879      657300
 3880              	.LASF59:
 3881 0186 4C434468 		.ascii	"LCDhose\000"
 3881      6F736500 
 3882              	.LASF4:
 3883 018e 6C6F6E67 		.ascii	"long int\000"
 3883      20696E74 
 3883      00
 3884              	.LASF29:
 3885 0197 50726F63 		.ascii	"ProcessedvolumeSale\000"
 3885      65737365 
 3885      64766F6C 
 3885      756D6553 
 3885      616C6500 
 3886              	.LASF70:
 3887 01ab 64697247 		.ascii	"dirGbr\000"
 3887      627200
 3888              	.LASF43:
 3889 01b2 575F6175 		.ascii	"W_autorize\000"
 3889      746F7269 
 3889      7A6500
 3890              	.LASF38:
 3891 01bd 4D455053 		.ascii	"MEPSAN_AUTHORIZE\000"
 3891      414E5F41 
 3891      5554484F 
 3891      52495A45 
 3891      00
 3892              	.LASF40:
 3893 01ce 506F6C6C 		.ascii	"PollingPos\000"
 3893      696E6750 
 3893      6F7300
 3894              	.LASF22:
 3895 01d9 766F6C75 		.ascii	"volumeSale\000"
 3895      6D655361 
 3895      6C6500
 3896              	.LASF62:
 3897 01e4 4D657073 		.ascii	"MepsanSendTo\000"
 3897      616E5365 
 3897      6E64546F 
 3897      00
 3898              	.LASF24:
 3899 01f1 70726F64 		.ascii	"productSale\000"
 3899      75637453 
 3899      616C6500 
 3900              	.LASF17:
 3901 01fd 6C6F6E67 		.ascii	"long double\000"
 3901      20646F75 
 3901      626C6500 
 3902              	.LASF63:
ARM GAS  C:\Users\Diego\AppData\Local\Temp\cccxrA3i.s 			page 81


 3903 0209 50756D70 		.ascii	"PumpAddress\000"
 3903      41646472 
 3903      65737300 
 3904              	.LASF1:
 3905 0215 756E7369 		.ascii	"unsigned char\000"
 3905      676E6564 
 3905      20636861 
 3905      7200
 3906              	.LASF52:
 3907 0223 43757272 		.ascii	"CurrentState\000"
 3907      656E7453 
 3907      74617465 
 3907      00
 3908              	.LASF57:
 3909 0230 73686966 		.ascii	"shift_number\000"
 3909      745F6E75 
 3909      6D626572 
 3909      00
 3910              	.LASF0:
 3911 023d 7369676E 		.ascii	"signed char\000"
 3911      65642063 
 3911      68617200 
 3912              	.LASF7:
 3913 0249 6C6F6E67 		.ascii	"long long unsigned int\000"
 3913      206C6F6E 
 3913      6720756E 
 3913      7369676E 
 3913      65642069 
 3914              	.LASF73:
 3915 0260 433A5C55 		.ascii	"C:\\Users\\Diego\\Documents\\GitHub\\Mepsan\\Mepsan"
 3915      73657273 
 3915      5C446965 
 3915      676F5C44 
 3915      6F63756D 
 3916 028d 2E637964 		.ascii	".cydsn\000"
 3916      736E00
 3917              	.LASF8:
 3918 0294 756E7369 		.ascii	"unsigned int\000"
 3918      676E6564 
 3918      20696E74 
 3918      00
 3919              	.LASF49:
 3920 02a1 4C434452 		.ascii	"LCDRx\000"
 3920      7800
 3921              	.LASF23:
 3922 02a7 70707553 		.ascii	"ppuSale\000"
 3922      616C6500 
 3923              	.LASF42:
 3924 02af 73637265 		.ascii	"screen_size\000"
 3924      656E5F73 
 3924      697A6500 
 3925              	.LASF3:
 3926 02bb 73686F72 		.ascii	"short unsigned int\000"
 3926      7420756E 
 3926      7369676E 
 3926      65642069 
 3926      6E7400
ARM GAS  C:\Users\Diego\AppData\Local\Temp\cccxrA3i.s 			page 82


 3927              	.LASF21:
 3928 02ce 6D6F6E65 		.ascii	"moneySale\000"
 3928      7953616C 
 3928      6500
 3929              	.LASF16:
 3930 02d8 63686172 		.ascii	"char\000"
 3930      00
 3931              	.LASF46:
 3932 02dd 6368616E 		.ascii	"change_pic2\000"
 3932      67655F70 
 3932      69633200 
 3933              	.LASF10:
 3934 02e9 696E7433 		.ascii	"int32_t\000"
 3934      325F7400 
 3935              	.LASF45:
 3936 02f1 6368616E 		.ascii	"change_pic\000"
 3936      67655F70 
 3936      696300
 3937              	.LASF47:
 3938 02fc 70726963 		.ascii	"price_change\000"
 3938      655F6368 
 3938      616E6765 
 3938      00
 3939              	.LASF36:
 3940 0309 70756D70 		.ascii	"pump\000"
 3940      00
 3941              	.LASF54:
 3942 030e 73616C65 		.ascii	"sale_number\000"
 3942      5F6E756D 
 3942      62657200 
 3943              	.LASF19:
 3944 031a 746F7461 		.ascii	"totalsNozzle\000"
 3944      6C734E6F 
 3944      7A7A6C65 
 3944      00
 3945              	.LASF30:
 3946 0327 50726F63 		.ascii	"ProcessedPPU\000"
 3946      65737365 
 3946      64505055 
 3946      00
 3947              	.LASF72:
 3948 0334 6D61696E 		.ascii	"main.c\000"
 3948      2E6300
 3949              	.LASF5:
 3950 033b 6C6F6E67 		.ascii	"long unsigned int\000"
 3950      20756E73 
 3950      69676E65 
 3950      6420696E 
 3950      7400
 3951              	.LASF69:
 3952 034d 746F7563 		.ascii	"touch1\000"
 3952      683100
 3953              	.LASF61:
 3954 0354 4D657073 		.ascii	"MepsanResponse\000"
 3954      616E5265 
 3954      73706F6E 
 3954      736500
ARM GAS  C:\Users\Diego\AppData\Local\Temp\cccxrA3i.s 			page 83


 3955              	.LASF50:
 3956 0363 49544D5F 		.ascii	"ITM_RxBuffer\000"
 3956      52784275 
 3956      66666572 
 3956      00
 3957              	.LASF9:
 3958 0370 5F5F696E 		.ascii	"__int32_t\000"
 3958      7433325F 
 3958      7400
 3959              	.LASF67:
 3960 037a 546F7461 		.ascii	"TotalRequestType\000"
 3960      6C526571 
 3960      75657374 
 3960      54797065 
 3960      00
 3961              	.LASF26:
 3962 038b 4D657073 		.ascii	"MepsanStore\000"
 3962      616E5374 
 3962      6F726500 
 3963              	.LASF28:
 3964 0397 50726F63 		.ascii	"ProcessedmoneySale\000"
 3964      65737365 
 3964      646D6F6E 
 3964      65795361 
 3964      6C6500
 3965              	.LASF14:
 3966 03aa 646F7562 		.ascii	"double\000"
 3966      6C6500
 3967              	.LASF53:
 3968 03b1 52656365 		.ascii	"Receipt\000"
 3968      69707400 
 3969              	.LASF60:
 3970 03b9 73696465 		.ascii	"side\000"
 3970      00
 3971              	.LASF37:
 3972 03be 4D455053 		.ascii	"MEPSAN_STATE\000"
 3972      414E5F53 
 3972      54415445 
 3972      00
 3973              	.LASF33:
 3974 03cb 4E6F7A7A 		.ascii	"Nozzle\000"
 3974      6C6500
 3975              	.LASF48:
 3976 03d2 61757850 		.ascii	"auxPrice\000"
 3976      72696365 
 3976      00
 3977              	.LASF65:
 3978 03db 6372635F 		.ascii	"crc_hi\000"
 3978      686900
 3979              	.LASF31:
 3980 03e2 6D736E5F 		.ascii	"msn_plate\000"
 3980      706C6174 
 3980      6500
 3981              		.ident	"GCC: (GNU Tools for ARM Embedded Processors) 5.4.1 20160609 (release) [ARM/embedded-5-bran
