ARM GAS  C:\Users\Lenovo\AppData\Local\Temp\ccR8lQ2a.s 			page 1


   1              		.syntax unified
   2              		.cpu cortex-m3
   3              		.fpu softvfp
   4              		.eabi_attribute 20, 1
   5              		.eabi_attribute 21, 1
   6              		.eabi_attribute 23, 3
   7              		.eabi_attribute 24, 1
   8              		.eabi_attribute 25, 1
   9              		.eabi_attribute 26, 1
  10              		.eabi_attribute 30, 6
  11              		.eabi_attribute 34, 1
  12              		.eabi_attribute 18, 4
  13              		.thumb
  14              		.syntax unified
  15              		.file	"main.c"
  16              		.text
  17              	.Ltext0:
  18              		.cfi_sections	.debug_frame
  19              		.comm	PollCounter,2,2
  20              		.comm	CurrentState,1,1
  21              		.comm	side,1228,4
  22              		.comm	MepsanResponse,50,4
  23              		.comm	MepsanSendTo,50,4
  24              		.comm	PumpAddress,15,4
  25              		.comm	CRC,2,2
  26              		.comm	crc_lo,1,1
  27              		.comm	crc_hi,1,1
  28              		.comm	Positions,1,1
  29              		.comm	TotalRequestType,1,1
  30              		.comm	dirGbr,1,1
  31              		.section	.text.polling,"ax",%progbits
  32              		.align	2
  33              		.global	polling
  34              		.thumb
  35              		.thumb_func
  36              		.type	polling, %function
  37              	polling:
  38              	.LFB63:
  39              		.file 1 "main.c"
   1:main.c        **** /******************************************************************************
   2:main.c        **** * File Name: main.c
   3:main.c        **** *
   4:main.c        **** * Version: 1.10
   5:main.c        **** *
   6:main.c        **** * Description: This is the source code for the Blinking LED code example.
   7:main.c        **** *
   8:main.c        **** * Related Document: CE195352_PSoC_5LP_Blinking_LED.pdf
   9:main.c        **** *
  10:main.c        **** * Hardware Dependency: See CE195352_PSoC_5LP_Blinking_LED.pdf
  11:main.c        **** *
  12:main.c        **** *******************************************************************************
  13:main.c        **** * Copyright (2018), Cypress Semiconductor Corporation. All rights reserved.
  14:main.c        **** *******************************************************************************
  15:main.c        **** * This software, including source code, documentation and related materials
  16:main.c        **** * (“Software”), is owned by Cypress Semiconductor Corporation or one of its
  17:main.c        **** * subsidiaries (“Cypress”) and is protected by and subject to worldwide patent
  18:main.c        **** * protection (United States and foreign), United States copyright laws and
ARM GAS  C:\Users\Lenovo\AppData\Local\Temp\ccR8lQ2a.s 			page 2


  19:main.c        **** * international treaty provisions. Therefore, you may use this Software only
  20:main.c        **** * as provided in the license agreement accompanying the software package from
  21:main.c        **** * which you obtained this Software (“EULA”).
  22:main.c        **** *
  23:main.c        **** * If no EULA applies, Cypress hereby grants you a personal, nonexclusive,
  24:main.c        **** * non-transferable license to copy, modify, and compile the Software source
  25:main.c        **** * code solely for use in connection with Cypress’s integrated circuit products.
  26:main.c        **** * Any reproduction, modification, translation, compilation, or representation
  27:main.c        **** * of this Software except as specified above is prohibited without the express
  28:main.c        **** * written permission of Cypress.
  29:main.c        **** *
  30:main.c        **** * Disclaimer: THIS SOFTWARE IS PROVIDED AS-IS, WITH NO WARRANTY OF ANY KIND, 
  31:main.c        **** * EXPRESS OR IMPLIED, INCLUDING, BUT NOT LIMITED TO, NONINFRINGEMENT, IMPLIED 
  32:main.c        **** * WARRANTIES OF MERCHANTABILITY AND FITNESS FOR A PARTICULAR PURPOSE. Cypress 
  33:main.c        **** * reserves the right to make changes to the Software without notice. Cypress 
  34:main.c        **** * does not assume any liability arising out of the application or use of the 
  35:main.c        **** * Software or any product or circuit described in the Software. Cypress does 
  36:main.c        **** * not authorize its products for use in any products where a malfunction or 
  37:main.c        **** * failure of the Cypress product may reasonably be expected to result in 
  38:main.c        **** * significant property damage, injury or death (“High Risk Product”). By 
  39:main.c        **** * including Cypress’s product in a High Risk Product, the manufacturer of such 
  40:main.c        **** * system or application assumes all risk of such use and in doing so agrees to 
  41:main.c        **** * indemnify Cypress against all liability.
  42:main.c        **** *******************************************************************************/
  43:main.c        **** 
  44:main.c        **** #include <project.h>
  45:main.c        **** #include <GVar.h>
  46:main.c        **** #include <PumpCom.h>
  47:main.c        **** #include <Gbr.h>
  48:main.c        **** #include <printer.h>
  49:main.c        **** 
  50:main.c        **** CY_ISR(polling);
  51:main.c        **** 
  52:main.c        **** 
  53:main.c        **** 
  54:main.c        **** 
  55:main.c        **** CY_ISR(polling){
  40              		.loc 1 55 0
  41              		.cfi_startproc
  42              		@ args = 0, pretend = 0, frame = 0
  43              		@ frame_needed = 1, uses_anonymous_args = 0
  44 0000 80B5     		push	{r7, lr}
  45              		.cfi_def_cfa_offset 8
  46              		.cfi_offset 7, -8
  47              		.cfi_offset 14, -4
  48 0002 00AF     		add	r7, sp, #0
  49              		.cfi_def_cfa_register 7
  56:main.c        ****     Timer_1_ReadStatusRegister();    											 
  50              		.loc 1 56 0
  51 0004 FFF7FEFF 		bl	Timer_1_ReadStatusRegister
  57:main.c        ****     PollCounter++; //Incrementa el contador    
  52              		.loc 1 57 0
  53 0008 034B     		ldr	r3, .L2
  54 000a 1B88     		ldrh	r3, [r3]
  55 000c 0133     		adds	r3, r3, #1
  56 000e 9AB2     		uxth	r2, r3
  57 0010 014B     		ldr	r3, .L2
ARM GAS  C:\Users\Lenovo\AppData\Local\Temp\ccR8lQ2a.s 			page 3


  58 0012 1A80     		strh	r2, [r3]	@ movhi
  58:main.c        **** }
  59              		.loc 1 58 0
  60 0014 00BF     		nop
  61 0016 80BD     		pop	{r7, pc}
  62              	.L3:
  63              		.align	2
  64              	.L2:
  65 0018 00000000 		.word	PollCounter
  66              		.cfi_endproc
  67              	.LFE63:
  68              		.size	polling, .-polling
  69              		.section	.text.PollingPos,"ax",%progbits
  70              		.align	2
  71              		.global	PollingPos
  72              		.thumb
  73              		.thumb_func
  74              		.type	PollingPos, %function
  75              	PollingPos:
  76              	.LFB64:
  59:main.c        **** 
  60:main.c        **** 
  61:main.c        **** void PollingPos(void){
  77              		.loc 1 61 0
  78              		.cfi_startproc
  79              		@ args = 0, pretend = 0, frame = 8
  80              		@ frame_needed = 1, uses_anonymous_args = 0
  81 0000 90B5     		push	{r4, r7, lr}
  82              		.cfi_def_cfa_offset 12
  83              		.cfi_offset 4, -12
  84              		.cfi_offset 7, -8
  85              		.cfi_offset 14, -4
  86 0002 83B0     		sub	sp, sp, #12
  87              		.cfi_def_cfa_offset 24
  88 0004 00AF     		add	r7, sp, #0
  89              		.cfi_def_cfa_register 7
  62:main.c        ****     uint8 x;
  63:main.c        ****     if(side.a.dir != 0xFF && side.b.dir == 0xFF){
  90              		.loc 1 63 0
  91 0006 6E4B     		ldr	r3, .L20
  92 0008 1B78     		ldrb	r3, [r3]	@ zero_extendqisi2
  93 000a FF2B     		cmp	r3, #255
  94 000c 07D0     		beq	.L5
  95              		.loc 1 63 0 is_stmt 0 discriminator 1
  96 000e 6C4B     		ldr	r3, .L20
  97 0010 93F83331 		ldrb	r3, [r3, #307]	@ zero_extendqisi2
  98 0014 FF2B     		cmp	r3, #255
  99 0016 02D1     		bne	.L5
  64:main.c        ****         Positions = 1;
 100              		.loc 1 64 0 is_stmt 1
 101 0018 6A4B     		ldr	r3, .L20+4
 102 001a 0122     		movs	r2, #1
 103 001c 1A70     		strb	r2, [r3]
 104              	.L5:
  65:main.c        ****     }
  66:main.c        ****     if(side.a.dir != 0xFF && side.b.dir != 0xFF){
 105              		.loc 1 66 0
ARM GAS  C:\Users\Lenovo\AppData\Local\Temp\ccR8lQ2a.s 			page 4


 106 001e 684B     		ldr	r3, .L20
 107 0020 1B78     		ldrb	r3, [r3]	@ zero_extendqisi2
 108 0022 FF2B     		cmp	r3, #255
 109 0024 07D0     		beq	.L6
 110              		.loc 1 66 0 is_stmt 0 discriminator 1
 111 0026 664B     		ldr	r3, .L20
 112 0028 93F83331 		ldrb	r3, [r3, #307]	@ zero_extendqisi2
 113 002c FF2B     		cmp	r3, #255
 114 002e 02D0     		beq	.L6
  67:main.c        ****         Positions = 2;
 115              		.loc 1 67 0 is_stmt 1
 116 0030 644B     		ldr	r3, .L20+4
 117 0032 0222     		movs	r2, #2
 118 0034 1A70     		strb	r2, [r3]
 119              	.L6:
  68:main.c        ****     }
  69:main.c        ****     if(side.c.dir != 0xFF && side.d.dir == 0xFF){
 120              		.loc 1 69 0
 121 0036 624B     		ldr	r3, .L20
 122 0038 93F86632 		ldrb	r3, [r3, #614]	@ zero_extendqisi2
 123 003c FF2B     		cmp	r3, #255
 124 003e 07D0     		beq	.L7
 125              		.loc 1 69 0 is_stmt 0 discriminator 1
 126 0040 5F4B     		ldr	r3, .L20
 127 0042 93F89933 		ldrb	r3, [r3, #921]	@ zero_extendqisi2
 128 0046 FF2B     		cmp	r3, #255
 129 0048 02D1     		bne	.L7
  70:main.c        ****         Positions = 3;
 130              		.loc 1 70 0 is_stmt 1
 131 004a 5E4B     		ldr	r3, .L20+4
 132 004c 0322     		movs	r2, #3
 133 004e 1A70     		strb	r2, [r3]
 134              	.L7:
  71:main.c        ****     }
  72:main.c        ****     if(side.c.dir != 0xFF && side.d.dir != 0xFF){
 135              		.loc 1 72 0
 136 0050 5B4B     		ldr	r3, .L20
 137 0052 93F86632 		ldrb	r3, [r3, #614]	@ zero_extendqisi2
 138 0056 FF2B     		cmp	r3, #255
 139 0058 07D0     		beq	.L8
 140              		.loc 1 72 0 is_stmt 0 discriminator 1
 141 005a 594B     		ldr	r3, .L20
 142 005c 93F89933 		ldrb	r3, [r3, #921]	@ zero_extendqisi2
 143 0060 FF2B     		cmp	r3, #255
 144 0062 02D0     		beq	.L8
  73:main.c        ****         Positions = 4;
 145              		.loc 1 73 0 is_stmt 1
 146 0064 574B     		ldr	r3, .L20+4
 147 0066 0422     		movs	r2, #4
 148 0068 1A70     		strb	r2, [r3]
 149              	.L8:
  74:main.c        ****     }
  75:main.c        ****     if(Positions == 1){       
 150              		.loc 1 75 0
 151 006a 564B     		ldr	r3, .L20+4
 152 006c 1B78     		ldrb	r3, [r3]	@ zero_extendqisi2
 153 006e 012B     		cmp	r3, #1
ARM GAS  C:\Users\Lenovo\AppData\Local\Temp\ccR8lQ2a.s 			page 5


 154 0070 09D1     		bne	.L9
  76:main.c        ****         side.a.states[0] = PumpState(side.a.dir);                                    
 155              		.loc 1 76 0
 156 0072 534B     		ldr	r3, .L20
 157 0074 1B78     		ldrb	r3, [r3]	@ zero_extendqisi2
 158 0076 1846     		mov	r0, r3
 159 0078 FFF7FEFF 		bl	PumpState
 160 007c 0346     		mov	r3, r0
 161 007e 1A46     		mov	r2, r3
 162 0080 4F4B     		ldr	r3, .L20
 163 0082 83F87420 		strb	r2, [r3, #116]
 164              	.L9:
  77:main.c        ****         //ReturnStatus(side.a.dir);        
  78:main.c        ****     }
  79:main.c        ****     if(Positions == 2){
 165              		.loc 1 79 0
 166 0086 4F4B     		ldr	r3, .L20+4
 167 0088 1B78     		ldrb	r3, [r3]	@ zero_extendqisi2
 168 008a 022B     		cmp	r3, #2
 169 008c 21D1     		bne	.L10
  80:main.c        ****         for(x = 0; x < 5; x++){
 170              		.loc 1 80 0
 171 008e 0023     		movs	r3, #0
 172 0090 FB71     		strb	r3, [r7, #7]
 173 0092 1BE0     		b	.L11
 174              	.L12:
  81:main.c        ****             side.a.states[x] = PumpState(side.a.dir);
 175              		.loc 1 81 0 discriminator 3
 176 0094 FC79     		ldrb	r4, [r7, #7]	@ zero_extendqisi2
 177 0096 4A4B     		ldr	r3, .L20
 178 0098 1B78     		ldrb	r3, [r3]	@ zero_extendqisi2
 179 009a 1846     		mov	r0, r3
 180 009c FFF7FEFF 		bl	PumpState
 181 00a0 0346     		mov	r3, r0
 182 00a2 1A46     		mov	r2, r3
 183 00a4 464B     		ldr	r3, .L20
 184 00a6 2344     		add	r3, r3, r4
 185 00a8 83F87420 		strb	r2, [r3, #116]
  82:main.c        ****             side.b.states[x] = PumpState(side.b.dir);
 186              		.loc 1 82 0 discriminator 3
 187 00ac FC79     		ldrb	r4, [r7, #7]	@ zero_extendqisi2
 188 00ae 444B     		ldr	r3, .L20
 189 00b0 93F83331 		ldrb	r3, [r3, #307]	@ zero_extendqisi2
 190 00b4 1846     		mov	r0, r3
 191 00b6 FFF7FEFF 		bl	PumpState
 192 00ba 0346     		mov	r3, r0
 193 00bc 1A46     		mov	r2, r3
 194 00be 404B     		ldr	r3, .L20
 195 00c0 2344     		add	r3, r3, r4
 196 00c2 83F8A721 		strb	r2, [r3, #423]
  80:main.c        ****         for(x = 0; x < 5; x++){
 197              		.loc 1 80 0 discriminator 3
 198 00c6 FB79     		ldrb	r3, [r7, #7]	@ zero_extendqisi2
 199 00c8 0133     		adds	r3, r3, #1
 200 00ca FB71     		strb	r3, [r7, #7]
 201              	.L11:
  80:main.c        ****         for(x = 0; x < 5; x++){
ARM GAS  C:\Users\Lenovo\AppData\Local\Temp\ccR8lQ2a.s 			page 6


 202              		.loc 1 80 0 is_stmt 0 discriminator 1
 203 00cc FB79     		ldrb	r3, [r7, #7]	@ zero_extendqisi2
 204 00ce 042B     		cmp	r3, #4
 205 00d0 E0D9     		bls	.L12
 206              	.L10:
  83:main.c        ****         }            
  84:main.c        ****     }
  85:main.c        ****     if(Positions == 3){
 207              		.loc 1 85 0 is_stmt 1
 208 00d2 3C4B     		ldr	r3, .L20+4
 209 00d4 1B78     		ldrb	r3, [r3]	@ zero_extendqisi2
 210 00d6 032B     		cmp	r3, #3
 211 00d8 2ED1     		bne	.L13
  86:main.c        ****         for(x = 0; x < 5; x++){
 212              		.loc 1 86 0
 213 00da 0023     		movs	r3, #0
 214 00dc FB71     		strb	r3, [r7, #7]
 215 00de 28E0     		b	.L14
 216              	.L15:
  87:main.c        ****             side.a.states[x] = PumpState(side.a.dir);
 217              		.loc 1 87 0 discriminator 3
 218 00e0 FC79     		ldrb	r4, [r7, #7]	@ zero_extendqisi2
 219 00e2 374B     		ldr	r3, .L20
 220 00e4 1B78     		ldrb	r3, [r3]	@ zero_extendqisi2
 221 00e6 1846     		mov	r0, r3
 222 00e8 FFF7FEFF 		bl	PumpState
 223 00ec 0346     		mov	r3, r0
 224 00ee 1A46     		mov	r2, r3
 225 00f0 334B     		ldr	r3, .L20
 226 00f2 2344     		add	r3, r3, r4
 227 00f4 83F87420 		strb	r2, [r3, #116]
  88:main.c        ****             side.b.states[x] = PumpState(side.b.dir);
 228              		.loc 1 88 0 discriminator 3
 229 00f8 FC79     		ldrb	r4, [r7, #7]	@ zero_extendqisi2
 230 00fa 314B     		ldr	r3, .L20
 231 00fc 93F83331 		ldrb	r3, [r3, #307]	@ zero_extendqisi2
 232 0100 1846     		mov	r0, r3
 233 0102 FFF7FEFF 		bl	PumpState
 234 0106 0346     		mov	r3, r0
 235 0108 1A46     		mov	r2, r3
 236 010a 2D4B     		ldr	r3, .L20
 237 010c 2344     		add	r3, r3, r4
 238 010e 83F8A721 		strb	r2, [r3, #423]
  89:main.c        ****             side.c.states[x] = PumpState(side.c.dir);
 239              		.loc 1 89 0 discriminator 3
 240 0112 FC79     		ldrb	r4, [r7, #7]	@ zero_extendqisi2
 241 0114 2A4B     		ldr	r3, .L20
 242 0116 93F86632 		ldrb	r3, [r3, #614]	@ zero_extendqisi2
 243 011a 1846     		mov	r0, r3
 244 011c FFF7FEFF 		bl	PumpState
 245 0120 0346     		mov	r3, r0
 246 0122 1A46     		mov	r2, r3
 247 0124 264B     		ldr	r3, .L20
 248 0126 2344     		add	r3, r3, r4
 249 0128 83F8DA22 		strb	r2, [r3, #730]
  86:main.c        ****             side.a.states[x] = PumpState(side.a.dir);
 250              		.loc 1 86 0 discriminator 3
ARM GAS  C:\Users\Lenovo\AppData\Local\Temp\ccR8lQ2a.s 			page 7


 251 012c FB79     		ldrb	r3, [r7, #7]	@ zero_extendqisi2
 252 012e 0133     		adds	r3, r3, #1
 253 0130 FB71     		strb	r3, [r7, #7]
 254              	.L14:
  86:main.c        ****             side.a.states[x] = PumpState(side.a.dir);
 255              		.loc 1 86 0 is_stmt 0 discriminator 1
 256 0132 FB79     		ldrb	r3, [r7, #7]	@ zero_extendqisi2
 257 0134 042B     		cmp	r3, #4
 258 0136 D3D9     		bls	.L15
 259              	.L13:
  90:main.c        ****         }
  91:main.c        ****         
  92:main.c        ****     }
  93:main.c        ****     if(Positions == 4){
 260              		.loc 1 93 0 is_stmt 1
 261 0138 224B     		ldr	r3, .L20+4
 262 013a 1B78     		ldrb	r3, [r3]	@ zero_extendqisi2
 263 013c 042B     		cmp	r3, #4
 264 013e 3BD1     		bne	.L19
  94:main.c        ****         for(x = 0; x < 5; x++){
 265              		.loc 1 94 0
 266 0140 0023     		movs	r3, #0
 267 0142 FB71     		strb	r3, [r7, #7]
 268 0144 35E0     		b	.L17
 269              	.L18:
  95:main.c        ****             side.a.states[x] = PumpState(side.a.dir);
 270              		.loc 1 95 0 discriminator 3
 271 0146 FC79     		ldrb	r4, [r7, #7]	@ zero_extendqisi2
 272 0148 1D4B     		ldr	r3, .L20
 273 014a 1B78     		ldrb	r3, [r3]	@ zero_extendqisi2
 274 014c 1846     		mov	r0, r3
 275 014e FFF7FEFF 		bl	PumpState
 276 0152 0346     		mov	r3, r0
 277 0154 1A46     		mov	r2, r3
 278 0156 1A4B     		ldr	r3, .L20
 279 0158 2344     		add	r3, r3, r4
 280 015a 83F87420 		strb	r2, [r3, #116]
  96:main.c        ****             side.b.states[x] = PumpState(side.b.dir);
 281              		.loc 1 96 0 discriminator 3
 282 015e FC79     		ldrb	r4, [r7, #7]	@ zero_extendqisi2
 283 0160 174B     		ldr	r3, .L20
 284 0162 93F83331 		ldrb	r3, [r3, #307]	@ zero_extendqisi2
 285 0166 1846     		mov	r0, r3
 286 0168 FFF7FEFF 		bl	PumpState
 287 016c 0346     		mov	r3, r0
 288 016e 1A46     		mov	r2, r3
 289 0170 134B     		ldr	r3, .L20
 290 0172 2344     		add	r3, r3, r4
 291 0174 83F8A721 		strb	r2, [r3, #423]
  97:main.c        ****             side.c.states[x] = PumpState(side.c.dir);
 292              		.loc 1 97 0 discriminator 3
 293 0178 FC79     		ldrb	r4, [r7, #7]	@ zero_extendqisi2
 294 017a 114B     		ldr	r3, .L20
 295 017c 93F86632 		ldrb	r3, [r3, #614]	@ zero_extendqisi2
 296 0180 1846     		mov	r0, r3
 297 0182 FFF7FEFF 		bl	PumpState
 298 0186 0346     		mov	r3, r0
ARM GAS  C:\Users\Lenovo\AppData\Local\Temp\ccR8lQ2a.s 			page 8


 299 0188 1A46     		mov	r2, r3
 300 018a 0D4B     		ldr	r3, .L20
 301 018c 2344     		add	r3, r3, r4
 302 018e 83F8DA22 		strb	r2, [r3, #730]
  98:main.c        ****             side.d.states[x] = PumpState(side.d.dir);
 303              		.loc 1 98 0 discriminator 3
 304 0192 FC79     		ldrb	r4, [r7, #7]	@ zero_extendqisi2
 305 0194 0A4B     		ldr	r3, .L20
 306 0196 93F89933 		ldrb	r3, [r3, #921]	@ zero_extendqisi2
 307 019a 1846     		mov	r0, r3
 308 019c FFF7FEFF 		bl	PumpState
 309 01a0 0346     		mov	r3, r0
 310 01a2 1A46     		mov	r2, r3
 311 01a4 064B     		ldr	r3, .L20
 312 01a6 2344     		add	r3, r3, r4
 313 01a8 83F80D24 		strb	r2, [r3, #1037]
  94:main.c        ****             side.a.states[x] = PumpState(side.a.dir);
 314              		.loc 1 94 0 discriminator 3
 315 01ac FB79     		ldrb	r3, [r7, #7]	@ zero_extendqisi2
 316 01ae 0133     		adds	r3, r3, #1
 317 01b0 FB71     		strb	r3, [r7, #7]
 318              	.L17:
  94:main.c        ****             side.a.states[x] = PumpState(side.a.dir);
 319              		.loc 1 94 0 is_stmt 0 discriminator 1
 320 01b2 FB79     		ldrb	r3, [r7, #7]	@ zero_extendqisi2
 321 01b4 042B     		cmp	r3, #4
 322 01b6 C6D9     		bls	.L18
 323              	.L19:
  99:main.c        ****         }            
 100:main.c        ****     } 
 101:main.c        **** 
 102:main.c        **** }
 324              		.loc 1 102 0 is_stmt 1
 325 01b8 00BF     		nop
 326 01ba 0C37     		adds	r7, r7, #12
 327              		.cfi_def_cfa_offset 12
 328 01bc BD46     		mov	sp, r7
 329              		.cfi_def_cfa_register 13
 330              		@ sp needed
 331 01be 90BD     		pop	{r4, r7, pc}
 332              	.L21:
 333              		.align	2
 334              	.L20:
 335 01c0 00000000 		.word	side
 336 01c4 00000000 		.word	Positions
 337              		.cfi_endproc
 338              	.LFE64:
 339              		.size	PollingPos, .-PollingPos
 340              		.section	.text.main,"ax",%progbits
 341              		.align	2
 342              		.global	main
 343              		.thumb
 344              		.thumb_func
 345              		.type	main, %function
 346              	main:
 347              	.LFB65:
 103:main.c        **** 
ARM GAS  C:\Users\Lenovo\AppData\Local\Temp\ccR8lQ2a.s 			page 9


 104:main.c        **** /*******************************************************************************
 105:main.c        **** * Function Name: main
 106:main.c        **** ********************************************************************************
 107:main.c        **** *
 108:main.c        **** *
 109:main.c        **** *******************************************************************************/
 110:main.c        **** 
 111:main.c        **** int main()
 112:main.c        **** {
 348              		.loc 1 112 0
 349              		.cfi_startproc
 350              		@ args = 0, pretend = 0, frame = 8
 351              		@ frame_needed = 1, uses_anonymous_args = 0
 352 0000 90B5     		push	{r4, r7, lr}
 353              		.cfi_def_cfa_offset 12
 354              		.cfi_offset 4, -12
 355              		.cfi_offset 7, -8
 356              		.cfi_offset 14, -4
 357 0002 83B0     		sub	sp, sp, #12
 358              		.cfi_def_cfa_offset 24
 359 0004 00AF     		add	r7, sp, #0
 360              		.cfi_def_cfa_register 7
 113:main.c        ****     /* Prepare components */
 114:main.c        ****     uint8 x;
 115:main.c        ****     PWM_1_Start(); 
 361              		.loc 1 115 0
 362 0006 FFF7FEFF 		bl	PWM_1_Start
 116:main.c        ****     CyGlobalIntEnable;
 363              		.loc 1 116 0
 364              		.syntax unified
 365              	@ 116 "main.c" 1
 366 000a 62B6     		CPSIE   i
 367              	@ 0 "" 2
 117:main.c        ****     UART_1_Start();
 368              		.loc 1 117 0
 369              		.thumb
 370              		.syntax unified
 371 000c FFF7FEFF 		bl	UART_1_Start
 118:main.c        ****     UART_2_Start();
 372              		.loc 1 118 0
 373 0010 FFF7FEFF 		bl	UART_2_Start
 119:main.c        ****     UART_3_Start();
 374              		.loc 1 119 0
 375 0014 FFF7FEFF 		bl	UART_3_Start
 120:main.c        ****     Timer_1_Start();    
 376              		.loc 1 120 0
 377 0018 FFF7FEFF 		bl	Timer_1_Start
 121:main.c        ****     side.a.ppuNozzle[0][0]=0x01;
 378              		.loc 1 121 0
 379 001c 2C4B     		ldr	r3, .L29
 380 001e 0122     		movs	r2, #1
 381 0020 83F83D20 		strb	r2, [r3, #61]
 122:main.c        ****     side.a.ppuNozzle[0][1]=0x05;
 382              		.loc 1 122 0
 383 0024 2A4B     		ldr	r3, .L29
 384 0026 0522     		movs	r2, #5
 385 0028 83F83E20 		strb	r2, [r3, #62]
ARM GAS  C:\Users\Lenovo\AppData\Local\Temp\ccR8lQ2a.s 			page 10


 123:main.c        ****     side.a.ppuNozzle[0][2]=0x30;    
 386              		.loc 1 123 0
 387 002c 284B     		ldr	r3, .L29
 388 002e 3022     		movs	r2, #48
 389 0030 83F83F20 		strb	r2, [r3, #63]
 390              	.LBB2:
 124:main.c        ****     for(uint8 y = 0; y < 16; y ++){
 391              		.loc 1 124 0
 392 0034 0023     		movs	r3, #0
 393 0036 FB71     		strb	r3, [r7, #7]
 394 0038 0BE0     		b	.L23
 395              	.L24:
 125:main.c        ****         PumpAddress[y] = GetAddress(y); //Posiciones activas      
 396              		.loc 1 125 0 discriminator 3
 397 003a FC79     		ldrb	r4, [r7, #7]	@ zero_extendqisi2
 398 003c FB79     		ldrb	r3, [r7, #7]	@ zero_extendqisi2
 399 003e 1846     		mov	r0, r3
 400 0040 FFF7FEFF 		bl	GetAddress
 401 0044 0346     		mov	r3, r0
 402 0046 1A46     		mov	r2, r3
 403 0048 224B     		ldr	r3, .L29+4
 404 004a 1A55     		strb	r2, [r3, r4]
 124:main.c        ****     for(uint8 y = 0; y < 16; y ++){
 405              		.loc 1 124 0 discriminator 3
 406 004c FB79     		ldrb	r3, [r7, #7]	@ zero_extendqisi2
 407 004e 0133     		adds	r3, r3, #1
 408 0050 FB71     		strb	r3, [r7, #7]
 409              	.L23:
 124:main.c        ****     for(uint8 y = 0; y < 16; y ++){
 410              		.loc 1 124 0 is_stmt 0 discriminator 1
 411 0052 FB79     		ldrb	r3, [r7, #7]	@ zero_extendqisi2
 412 0054 0F2B     		cmp	r3, #15
 413 0056 F0D9     		bls	.L24
 414              	.LBE2:
 126:main.c        ****     }    
 127:main.c        ****     side.a.dir = PumpAddress[1];
 415              		.loc 1 127 0 is_stmt 1
 416 0058 1E4B     		ldr	r3, .L29+4
 417 005a 5A78     		ldrb	r2, [r3, #1]	@ zero_extendqisi2
 418 005c 1C4B     		ldr	r3, .L29
 419 005e 1A70     		strb	r2, [r3]
 128:main.c        ****     side.b.dir = PumpAddress[2];
 420              		.loc 1 128 0
 421 0060 1C4B     		ldr	r3, .L29+4
 422 0062 9A78     		ldrb	r2, [r3, #2]	@ zero_extendqisi2
 423 0064 1A4B     		ldr	r3, .L29
 424 0066 83F83321 		strb	r2, [r3, #307]
 129:main.c        ****     side.c.dir = PumpAddress[3];
 425              		.loc 1 129 0
 426 006a 1A4B     		ldr	r3, .L29+4
 427 006c DA78     		ldrb	r2, [r3, #3]	@ zero_extendqisi2
 428 006e 184B     		ldr	r3, .L29
 429 0070 83F86622 		strb	r2, [r3, #614]
 130:main.c        ****     side.d.dir = PumpAddress[4]; 
 430              		.loc 1 130 0
 431 0074 174B     		ldr	r3, .L29+4
 432 0076 1A79     		ldrb	r2, [r3, #4]	@ zero_extendqisi2
ARM GAS  C:\Users\Lenovo\AppData\Local\Temp\ccR8lQ2a.s 			page 11


 433 0078 154B     		ldr	r3, .L29
 434 007a 83F89923 		strb	r2, [r3, #921]
 131:main.c        ****     TotalRequestType = 0; 
 435              		.loc 1 131 0
 436 007e 164B     		ldr	r3, .L29+8
 437 0080 0022     		movs	r2, #0
 438 0082 1A70     		strb	r2, [r3]
 439              	.L28:
 132:main.c        ****             
 133:main.c        ****     for (;;)
 134:main.c        ****     {
 135:main.c        ****         if(EnablePin_1_Read() == 1u){
 440              		.loc 1 135 0
 441 0084 FFF7FEFF 		bl	EnablePin_1_Read
 442 0088 0346     		mov	r3, r0
 443 008a 012B     		cmp	r3, #1
 444 008c 0BD1     		bne	.L25
 136:main.c        ****             PriceUpdate(0,side.a.ppuNozzle[0]);
 445              		.loc 1 136 0
 446 008e 1349     		ldr	r1, .L29+12
 447 0090 0020     		movs	r0, #0
 448 0092 FFF7FEFF 		bl	PriceUpdate
 137:main.c        ****             Authorize(side.a.dir);
 449              		.loc 1 137 0
 450 0096 0E4B     		ldr	r3, .L29
 451 0098 1B78     		ldrb	r3, [r3]	@ zero_extendqisi2
 452 009a 1846     		mov	r0, r3
 453 009c FFF7FEFF 		bl	Authorize
 138:main.c        ****             PrintReceipt();
 454              		.loc 1 138 0
 455 00a0 FFF7FEFF 		bl	PrintReceipt
 456 00a4 01E0     		b	.L26
 457              	.L25:
 139:main.c        ****         }else{
 140:main.c        ****             PollingPos();                       
 458              		.loc 1 140 0
 459 00a6 FFF7FEFF 		bl	PollingPos
 460              	.L26:
 141:main.c        ****         }                
 142:main.c        ****         if(Kill_Switch_Read() == 0u){
 461              		.loc 1 142 0
 462 00aa FFF7FEFF 		bl	Kill_Switch_Read
 463 00ae 0346     		mov	r3, r0
 464 00b0 002B     		cmp	r3, #0
 465 00b2 E7D1     		bne	.L28
 143:main.c        ****             //PriceUpdate(0,side.a.ppuNozzle[0]);
 144:main.c        ****             //ReturnStatus(0);
 145:main.c        ****             PumpState(0);            
 466              		.loc 1 145 0
 467 00b4 0020     		movs	r0, #0
 468 00b6 FFF7FEFF 		bl	PumpState
 146:main.c        ****             TotalRequest(0, TotalRequestType, 1); //dir 0, volume, nozzle 1                        
 469              		.loc 1 146 0
 470 00ba 074B     		ldr	r3, .L29+8
 471 00bc 1B78     		ldrb	r3, [r3]	@ zero_extendqisi2
 472 00be 0122     		movs	r2, #1
 473 00c0 1946     		mov	r1, r3
ARM GAS  C:\Users\Lenovo\AppData\Local\Temp\ccR8lQ2a.s 			page 12


 474 00c2 0020     		movs	r0, #0
 475 00c4 FFF7FEFF 		bl	TotalRequest
 147:main.c        ****             PumpState(0);
 476              		.loc 1 147 0
 477 00c8 0020     		movs	r0, #0
 478 00ca FFF7FEFF 		bl	PumpState
 148:main.c        ****         }        
 149:main.c        ****     }
 479              		.loc 1 149 0
 480 00ce D9E7     		b	.L28
 481              	.L30:
 482              		.align	2
 483              	.L29:
 484 00d0 00000000 		.word	side
 485 00d4 00000000 		.word	PumpAddress
 486 00d8 00000000 		.word	TotalRequestType
 487 00dc 3D000000 		.word	side+61
 488              		.cfi_endproc
 489              	.LFE65:
 490              		.size	main, .-main
 491              		.text
 492              	.Letext0:
 493              		.file 2 "c:\\program files (x86)\\cypress\\psoc creator\\4.2\\psoc creator\\import\\gnu\\arm\\5.4.
 494              		.file 3 "c:\\program files (x86)\\cypress\\psoc creator\\4.2\\psoc creator\\import\\gnu\\arm\\5.4.
 495              		.file 4 "Generated_Source\\PSoC5/cytypes.h"
 496              		.file 5 "./GVar.h"
 497              		.file 6 "Generated_Source\\PSoC5/core_cm3.h"
 498              		.section	.debug_info,"",%progbits
 499              	.Ldebug_info0:
 500 0000 89030000 		.4byte	0x389
 501 0004 0400     		.2byte	0x4
 502 0006 00000000 		.4byte	.Ldebug_abbrev0
 503 000a 04       		.byte	0x4
 504 000b 01       		.uleb128 0x1
 505 000c 00000000 		.4byte	.LASF45
 506 0010 0C       		.byte	0xc
 507 0011 09020000 		.4byte	.LASF46
 508 0015 BD010000 		.4byte	.LASF47
 509 0019 00000000 		.4byte	.Ldebug_ranges0+0
 510 001d 00000000 		.4byte	0
 511 0021 00000000 		.4byte	.Ldebug_line0
 512 0025 02       		.uleb128 0x2
 513 0026 01       		.byte	0x1
 514 0027 06       		.byte	0x6
 515 0028 E3000000 		.4byte	.LASF0
 516 002c 02       		.uleb128 0x2
 517 002d 01       		.byte	0x1
 518 002e 08       		.byte	0x8
 519 002f 1B010000 		.4byte	.LASF1
 520 0033 02       		.uleb128 0x2
 521 0034 02       		.byte	0x2
 522 0035 05       		.byte	0x5
 523 0036 3C020000 		.4byte	.LASF2
 524 003a 02       		.uleb128 0x2
 525 003b 02       		.byte	0x2
 526 003c 07       		.byte	0x7
 527 003d 08010000 		.4byte	.LASF3
ARM GAS  C:\Users\Lenovo\AppData\Local\Temp\ccR8lQ2a.s 			page 13


 528 0041 03       		.uleb128 0x3
 529 0042 A3000000 		.4byte	.LASF9
 530 0046 02       		.byte	0x2
 531 0047 3F       		.byte	0x3f
 532 0048 4C000000 		.4byte	0x4c
 533 004c 02       		.uleb128 0x2
 534 004d 04       		.byte	0x4
 535 004e 05       		.byte	0x5
 536 004f 55020000 		.4byte	.LASF4
 537 0053 02       		.uleb128 0x2
 538 0054 04       		.byte	0x4
 539 0055 07       		.byte	0x7
 540 0056 F6000000 		.4byte	.LASF5
 541 005a 02       		.uleb128 0x2
 542 005b 08       		.byte	0x8
 543 005c 05       		.byte	0x5
 544 005d F2010000 		.4byte	.LASF6
 545 0061 02       		.uleb128 0x2
 546 0062 08       		.byte	0x8
 547 0063 07       		.byte	0x7
 548 0064 85010000 		.4byte	.LASF7
 549 0068 04       		.uleb128 0x4
 550 0069 04       		.byte	0x4
 551 006a 05       		.byte	0x5
 552 006b 696E7400 		.ascii	"int\000"
 553 006f 02       		.uleb128 0x2
 554 0070 04       		.byte	0x4
 555 0071 07       		.byte	0x7
 556 0072 6B010000 		.4byte	.LASF8
 557 0076 03       		.uleb128 0x3
 558 0077 A4010000 		.4byte	.LASF10
 559 007b 03       		.byte	0x3
 560 007c 2C       		.byte	0x2c
 561 007d 41000000 		.4byte	0x41
 562 0081 05       		.uleb128 0x5
 563 0082 46020000 		.4byte	.LASF11
 564 0086 04       		.byte	0x4
 565 0087 E401     		.2byte	0x1e4
 566 0089 2C000000 		.4byte	0x2c
 567 008d 05       		.uleb128 0x5
 568 008e 35010000 		.4byte	.LASF12
 569 0092 04       		.byte	0x4
 570 0093 E501     		.2byte	0x1e5
 571 0095 3A000000 		.4byte	0x3a
 572 0099 02       		.uleb128 0x2
 573 009a 04       		.byte	0x4
 574 009b 04       		.byte	0x4
 575 009c D5000000 		.4byte	.LASF13
 576 00a0 02       		.uleb128 0x2
 577 00a1 08       		.byte	0x8
 578 00a2 04       		.byte	0x4
 579 00a3 29010000 		.4byte	.LASF14
 580 00a7 02       		.uleb128 0x2
 581 00a8 01       		.byte	0x1
 582 00a9 08       		.byte	0x8
 583 00aa 10020000 		.4byte	.LASF15
 584 00ae 02       		.uleb128 0x2
ARM GAS  C:\Users\Lenovo\AppData\Local\Temp\ccR8lQ2a.s 			page 14


 585 00af 08       		.byte	0x8
 586 00b0 04       		.byte	0x4
 587 00b1 65020000 		.4byte	.LASF16
 588 00b5 02       		.uleb128 0x2
 589 00b6 04       		.byte	0x4
 590 00b7 07       		.byte	0x7
 591 00b8 00020000 		.4byte	.LASF17
 592 00bc 06       		.uleb128 0x6
 593 00bd 4C020000 		.4byte	.LASF29
 594 00c1 3301     		.2byte	0x133
 595 00c3 05       		.byte	0x5
 596 00c4 1B       		.byte	0x1b
 597 00c5 5C010000 		.4byte	0x15c
 598 00c9 07       		.uleb128 0x7
 599 00ca 64697200 		.ascii	"dir\000"
 600 00ce 05       		.byte	0x5
 601 00cf 1C       		.byte	0x1c
 602 00d0 81000000 		.4byte	0x81
 603 00d4 00       		.byte	0
 604 00d5 08       		.uleb128 0x8
 605 00d6 2F020000 		.4byte	.LASF18
 606 00da 05       		.byte	0x5
 607 00db 1D       		.byte	0x1d
 608 00dc 5C010000 		.4byte	0x15c
 609 00e0 01       		.byte	0x1
 610 00e1 08       		.uleb128 0x8
 611 00e2 8E000000 		.4byte	.LASF19
 612 00e6 05       		.byte	0x5
 613 00e7 1E       		.byte	0x1e
 614 00e8 78010000 		.4byte	0x178
 615 00ec 3D       		.byte	0x3d
 616 00ed 08       		.uleb128 0x8
 617 00ee BC000000 		.4byte	.LASF20
 618 00f2 05       		.byte	0x5
 619 00f3 1F       		.byte	0x1f
 620 00f4 8E010000 		.4byte	0x18e
 621 00f8 5D       		.byte	0x5d
 622 00f9 08       		.uleb128 0x8
 623 00fa 98000000 		.4byte	.LASF21
 624 00fe 05       		.byte	0x5
 625 00ff 20       		.byte	0x20
 626 0100 8E010000 		.4byte	0x18e
 627 0104 61       		.byte	0x61
 628 0105 08       		.uleb128 0x8
 629 0106 DB000000 		.4byte	.LASF22
 630 010a 05       		.byte	0x5
 631 010b 21       		.byte	0x21
 632 010c 9E010000 		.4byte	0x19e
 633 0110 65       		.byte	0x65
 634 0111 08       		.uleb128 0x8
 635 0112 BB020000 		.4byte	.LASF23
 636 0116 05       		.byte	0x5
 637 0117 22       		.byte	0x22
 638 0118 81000000 		.4byte	0x81
 639 011c 73       		.byte	0x73
 640 011d 08       		.uleb128 0x8
 641 011e 28020000 		.4byte	.LASF24
ARM GAS  C:\Users\Lenovo\AppData\Local\Temp\ccR8lQ2a.s 			page 15


 642 0122 05       		.byte	0x5
 643 0123 23       		.byte	0x23
 644 0124 AE010000 		.4byte	0x1ae
 645 0128 74       		.byte	0x74
 646 0129 08       		.uleb128 0x8
 647 012a AC010000 		.4byte	.LASF25
 648 012e 05       		.byte	0x5
 649 012f 24       		.byte	0x24
 650 0130 BE010000 		.4byte	0x1be
 651 0134 79       		.byte	0x79
 652 0135 08       		.uleb128 0x8
 653 0136 47010000 		.4byte	.LASF26
 654 013a 05       		.byte	0x5
 655 013b 25       		.byte	0x25
 656 013c CE010000 		.4byte	0x1ce
 657 0140 AB       		.byte	0xab
 658 0141 09       		.uleb128 0x9
 659 0142 15020000 		.4byte	.LASF27
 660 0146 05       		.byte	0x5
 661 0147 26       		.byte	0x26
 662 0148 EA010000 		.4byte	0x1ea
 663 014c 2301     		.2byte	0x123
 664 014e 09       		.uleb128 0x9
 665 014f 71020000 		.4byte	.LASF28
 666 0153 05       		.byte	0x5
 667 0154 27       		.byte	0x27
 668 0155 EA010000 		.4byte	0x1ea
 669 0159 2B01     		.2byte	0x12b
 670 015b 00       		.byte	0
 671 015c 0A       		.uleb128 0xa
 672 015d 81000000 		.4byte	0x81
 673 0161 78010000 		.4byte	0x178
 674 0165 0B       		.uleb128 0xb
 675 0166 B5000000 		.4byte	0xb5
 676 016a 03       		.byte	0x3
 677 016b 0B       		.uleb128 0xb
 678 016c B5000000 		.4byte	0xb5
 679 0170 02       		.byte	0x2
 680 0171 0B       		.uleb128 0xb
 681 0172 B5000000 		.4byte	0xb5
 682 0176 04       		.byte	0x4
 683 0177 00       		.byte	0
 684 0178 0A       		.uleb128 0xa
 685 0179 81000000 		.4byte	0x81
 686 017d 8E010000 		.4byte	0x18e
 687 0181 0B       		.uleb128 0xb
 688 0182 B5000000 		.4byte	0xb5
 689 0186 03       		.byte	0x3
 690 0187 0B       		.uleb128 0xb
 691 0188 B5000000 		.4byte	0xb5
 692 018c 07       		.byte	0x7
 693 018d 00       		.byte	0
 694 018e 0A       		.uleb128 0xa
 695 018f 81000000 		.4byte	0x81
 696 0193 9E010000 		.4byte	0x19e
 697 0197 0B       		.uleb128 0xb
 698 0198 B5000000 		.4byte	0xb5
ARM GAS  C:\Users\Lenovo\AppData\Local\Temp\ccR8lQ2a.s 			page 16


 699 019c 03       		.byte	0x3
 700 019d 00       		.byte	0
 701 019e 0A       		.uleb128 0xa
 702 019f 81000000 		.4byte	0x81
 703 01a3 AE010000 		.4byte	0x1ae
 704 01a7 0B       		.uleb128 0xb
 705 01a8 B5000000 		.4byte	0xb5
 706 01ac 0D       		.byte	0xd
 707 01ad 00       		.byte	0
 708 01ae 0A       		.uleb128 0xa
 709 01af 81000000 		.4byte	0x81
 710 01b3 BE010000 		.4byte	0x1be
 711 01b7 0B       		.uleb128 0xb
 712 01b8 B5000000 		.4byte	0xb5
 713 01bc 04       		.byte	0x4
 714 01bd 00       		.byte	0
 715 01be 0A       		.uleb128 0xa
 716 01bf 81000000 		.4byte	0x81
 717 01c3 CE010000 		.4byte	0x1ce
 718 01c7 0B       		.uleb128 0xb
 719 01c8 B5000000 		.4byte	0xb5
 720 01cc 31       		.byte	0x31
 721 01cd 00       		.byte	0
 722 01ce 0A       		.uleb128 0xa
 723 01cf 81000000 		.4byte	0x81
 724 01d3 EA010000 		.4byte	0x1ea
 725 01d7 0B       		.uleb128 0xb
 726 01d8 B5000000 		.4byte	0xb5
 727 01dc 03       		.byte	0x3
 728 01dd 0B       		.uleb128 0xb
 729 01de B5000000 		.4byte	0xb5
 730 01e2 02       		.byte	0x2
 731 01e3 0B       		.uleb128 0xb
 732 01e4 B5000000 		.4byte	0xb5
 733 01e8 09       		.byte	0x9
 734 01e9 00       		.byte	0
 735 01ea 0A       		.uleb128 0xa
 736 01eb 81000000 		.4byte	0x81
 737 01ef FA010000 		.4byte	0x1fa
 738 01f3 0B       		.uleb128 0xb
 739 01f4 B5000000 		.4byte	0xb5
 740 01f8 07       		.byte	0x7
 741 01f9 00       		.byte	0
 742 01fa 06       		.uleb128 0x6
 743 01fb B7000000 		.4byte	.LASF30
 744 01ff CC04     		.2byte	0x4cc
 745 0201 05       		.byte	0x5
 746 0202 2B       		.byte	0x2b
 747 0203 33020000 		.4byte	0x233
 748 0207 07       		.uleb128 0x7
 749 0208 6100     		.ascii	"a\000"
 750 020a 05       		.byte	0x5
 751 020b 2C       		.byte	0x2c
 752 020c BC000000 		.4byte	0xbc
 753 0210 00       		.byte	0
 754 0211 0C       		.uleb128 0xc
 755 0212 6200     		.ascii	"b\000"
ARM GAS  C:\Users\Lenovo\AppData\Local\Temp\ccR8lQ2a.s 			page 17


 756 0214 05       		.byte	0x5
 757 0215 2D       		.byte	0x2d
 758 0216 BC000000 		.4byte	0xbc
 759 021a 3301     		.2byte	0x133
 760 021c 0C       		.uleb128 0xc
 761 021d 6300     		.ascii	"c\000"
 762 021f 05       		.byte	0x5
 763 0220 2E       		.byte	0x2e
 764 0221 BC000000 		.4byte	0xbc
 765 0225 6602     		.2byte	0x266
 766 0227 0C       		.uleb128 0xc
 767 0228 6400     		.ascii	"d\000"
 768 022a 05       		.byte	0x5
 769 022b 2F       		.byte	0x2f
 770 022c BC000000 		.4byte	0xbc
 771 0230 9903     		.2byte	0x399
 772 0232 00       		.byte	0
 773 0233 0D       		.uleb128 0xd
 774 0234 9C010000 		.4byte	.LASF48
 775 0238 01       		.byte	0x1
 776 0239 37       		.byte	0x37
 777 023a 00000000 		.4byte	.LFB63
 778 023e 1C000000 		.4byte	.LFE63-.LFB63
 779 0242 01       		.uleb128 0x1
 780 0243 9C       		.byte	0x9c
 781 0244 0E       		.uleb128 0xe
 782 0245 3C010000 		.4byte	.LASF31
 783 0249 01       		.byte	0x1
 784 024a 3D       		.byte	0x3d
 785 024b 00000000 		.4byte	.LFB64
 786 024f C8010000 		.4byte	.LFE64-.LFB64
 787 0253 01       		.uleb128 0x1
 788 0254 9C       		.byte	0x9c
 789 0255 66020000 		.4byte	0x266
 790 0259 0F       		.uleb128 0xf
 791 025a 7800     		.ascii	"x\000"
 792 025c 01       		.byte	0x1
 793 025d 3E       		.byte	0x3e
 794 025e 81000000 		.4byte	0x81
 795 0262 02       		.uleb128 0x2
 796 0263 91       		.byte	0x91
 797 0264 6F       		.sleb128 -17
 798 0265 00       		.byte	0
 799 0266 10       		.uleb128 0x10
 800 0267 30010000 		.4byte	.LASF32
 801 026b 01       		.byte	0x1
 802 026c 6F       		.byte	0x6f
 803 026d 68000000 		.4byte	0x68
 804 0271 00000000 		.4byte	.LFB65
 805 0275 E0000000 		.4byte	.LFE65-.LFB65
 806 0279 01       		.uleb128 0x1
 807 027a 9C       		.byte	0x9c
 808 027b 9F020000 		.4byte	0x29f
 809 027f 11       		.uleb128 0x11
 810 0280 7800     		.ascii	"x\000"
 811 0282 01       		.byte	0x1
 812 0283 72       		.byte	0x72
ARM GAS  C:\Users\Lenovo\AppData\Local\Temp\ccR8lQ2a.s 			page 18


 813 0284 81000000 		.4byte	0x81
 814 0288 12       		.uleb128 0x12
 815 0289 34000000 		.4byte	.LBB2
 816 028d 24000000 		.4byte	.LBE2-.LBB2
 817 0291 0F       		.uleb128 0xf
 818 0292 7900     		.ascii	"y\000"
 819 0294 01       		.byte	0x1
 820 0295 7C       		.byte	0x7c
 821 0296 81000000 		.4byte	0x81
 822 029a 02       		.uleb128 0x2
 823 029b 91       		.byte	0x91
 824 029c 6F       		.sleb128 -17
 825 029d 00       		.byte	0
 826 029e 00       		.byte	0
 827 029f 13       		.uleb128 0x13
 828 02a0 57010000 		.4byte	.LASF33
 829 02a4 06       		.byte	0x6
 830 02a5 1207     		.2byte	0x712
 831 02a7 AB020000 		.4byte	0x2ab
 832 02ab 14       		.uleb128 0x14
 833 02ac 76000000 		.4byte	0x76
 834 02b0 15       		.uleb128 0x15
 835 02b1 AF020000 		.4byte	.LASF34
 836 02b5 05       		.byte	0x5
 837 02b6 10       		.byte	0x10
 838 02b7 8D000000 		.4byte	0x8d
 839 02bb 05       		.uleb128 0x5
 840 02bc 03       		.byte	0x3
 841 02bd 00000000 		.4byte	PollCounter
 842 02c1 15       		.uleb128 0x15
 843 02c2 A2020000 		.4byte	.LASF35
 844 02c6 05       		.byte	0x5
 845 02c7 11       		.byte	0x11
 846 02c8 81000000 		.4byte	0x81
 847 02cc 05       		.uleb128 0x5
 848 02cd 03       		.byte	0x3
 849 02ce 00000000 		.4byte	CurrentState
 850 02d2 15       		.uleb128 0x15
 851 02d3 B8010000 		.4byte	.LASF36
 852 02d7 05       		.byte	0x5
 853 02d8 32       		.byte	0x32
 854 02d9 FA010000 		.4byte	0x1fa
 855 02dd 05       		.uleb128 0x5
 856 02de 03       		.byte	0x3
 857 02df 00000000 		.4byte	side
 858 02e3 15       		.uleb128 0x15
 859 02e4 C6000000 		.4byte	.LASF37
 860 02e8 05       		.byte	0x5
 861 02e9 3B       		.byte	0x3b
 862 02ea BE010000 		.4byte	0x1be
 863 02ee 05       		.uleb128 0x5
 864 02ef 03       		.byte	0x3
 865 02f0 00000000 		.4byte	MepsanResponse
 866 02f4 15       		.uleb128 0x15
 867 02f5 78010000 		.4byte	.LASF38
 868 02f9 05       		.byte	0x5
 869 02fa 3C       		.byte	0x3c
ARM GAS  C:\Users\Lenovo\AppData\Local\Temp\ccR8lQ2a.s 			page 19


 870 02fb BE010000 		.4byte	0x1be
 871 02ff 05       		.uleb128 0x5
 872 0300 03       		.byte	0x3
 873 0301 00000000 		.4byte	MepsanSendTo
 874 0305 0A       		.uleb128 0xa
 875 0306 81000000 		.4byte	0x81
 876 030a 15030000 		.4byte	0x315
 877 030e 0B       		.uleb128 0xb
 878 030f B5000000 		.4byte	0xb5
 879 0313 0E       		.byte	0xe
 880 0314 00       		.byte	0
 881 0315 15       		.uleb128 0x15
 882 0316 96020000 		.4byte	.LASF39
 883 031a 05       		.byte	0x5
 884 031b 3D       		.byte	0x3d
 885 031c 05030000 		.4byte	0x305
 886 0320 05       		.uleb128 0x5
 887 0321 03       		.byte	0x3
 888 0322 00000000 		.4byte	PumpAddress
 889 0326 16       		.uleb128 0x16
 890 0327 43524300 		.ascii	"CRC\000"
 891 032b 05       		.byte	0x5
 892 032c 3E       		.byte	0x3e
 893 032d 8D000000 		.4byte	0x8d
 894 0331 05       		.uleb128 0x5
 895 0332 03       		.byte	0x3
 896 0333 00000000 		.4byte	CRC
 897 0337 15       		.uleb128 0x15
 898 0338 EF000000 		.4byte	.LASF40
 899 033c 05       		.byte	0x5
 900 033d 3F       		.byte	0x3f
 901 033e 81000000 		.4byte	0x81
 902 0342 05       		.uleb128 0x5
 903 0343 03       		.byte	0x3
 904 0344 00000000 		.4byte	crc_lo
 905 0348 15       		.uleb128 0x15
 906 0349 5E020000 		.4byte	.LASF41
 907 034d 05       		.byte	0x5
 908 034e 3F       		.byte	0x3f
 909 034f 81000000 		.4byte	0x81
 910 0353 05       		.uleb128 0x5
 911 0354 03       		.byte	0x3
 912 0355 00000000 		.4byte	crc_hi
 913 0359 15       		.uleb128 0x15
 914 035a AD000000 		.4byte	.LASF42
 915 035e 05       		.byte	0x5
 916 035f 40       		.byte	0x40
 917 0360 81000000 		.4byte	0x81
 918 0364 05       		.uleb128 0x5
 919 0365 03       		.byte	0x3
 920 0366 00000000 		.4byte	Positions
 921 036a 15       		.uleb128 0x15
 922 036b 85020000 		.4byte	.LASF43
 923 036f 05       		.byte	0x5
 924 0370 41       		.byte	0x41
 925 0371 81000000 		.4byte	0x81
 926 0375 05       		.uleb128 0x5
ARM GAS  C:\Users\Lenovo\AppData\Local\Temp\ccR8lQ2a.s 			page 20


 927 0376 03       		.byte	0x3
 928 0377 00000000 		.4byte	TotalRequestType
 929 037b 15       		.uleb128 0x15
 930 037c 64010000 		.4byte	.LASF44
 931 0380 05       		.byte	0x5
 932 0381 4B       		.byte	0x4b
 933 0382 81000000 		.4byte	0x81
 934 0386 05       		.uleb128 0x5
 935 0387 03       		.byte	0x3
 936 0388 00000000 		.4byte	dirGbr
 937 038c 00       		.byte	0
 938              		.section	.debug_abbrev,"",%progbits
 939              	.Ldebug_abbrev0:
 940 0000 01       		.uleb128 0x1
 941 0001 11       		.uleb128 0x11
 942 0002 01       		.byte	0x1
 943 0003 25       		.uleb128 0x25
 944 0004 0E       		.uleb128 0xe
 945 0005 13       		.uleb128 0x13
 946 0006 0B       		.uleb128 0xb
 947 0007 03       		.uleb128 0x3
 948 0008 0E       		.uleb128 0xe
 949 0009 1B       		.uleb128 0x1b
 950 000a 0E       		.uleb128 0xe
 951 000b 55       		.uleb128 0x55
 952 000c 17       		.uleb128 0x17
 953 000d 11       		.uleb128 0x11
 954 000e 01       		.uleb128 0x1
 955 000f 10       		.uleb128 0x10
 956 0010 17       		.uleb128 0x17
 957 0011 00       		.byte	0
 958 0012 00       		.byte	0
 959 0013 02       		.uleb128 0x2
 960 0014 24       		.uleb128 0x24
 961 0015 00       		.byte	0
 962 0016 0B       		.uleb128 0xb
 963 0017 0B       		.uleb128 0xb
 964 0018 3E       		.uleb128 0x3e
 965 0019 0B       		.uleb128 0xb
 966 001a 03       		.uleb128 0x3
 967 001b 0E       		.uleb128 0xe
 968 001c 00       		.byte	0
 969 001d 00       		.byte	0
 970 001e 03       		.uleb128 0x3
 971 001f 16       		.uleb128 0x16
 972 0020 00       		.byte	0
 973 0021 03       		.uleb128 0x3
 974 0022 0E       		.uleb128 0xe
 975 0023 3A       		.uleb128 0x3a
 976 0024 0B       		.uleb128 0xb
 977 0025 3B       		.uleb128 0x3b
 978 0026 0B       		.uleb128 0xb
 979 0027 49       		.uleb128 0x49
 980 0028 13       		.uleb128 0x13
 981 0029 00       		.byte	0
 982 002a 00       		.byte	0
 983 002b 04       		.uleb128 0x4
ARM GAS  C:\Users\Lenovo\AppData\Local\Temp\ccR8lQ2a.s 			page 21


 984 002c 24       		.uleb128 0x24
 985 002d 00       		.byte	0
 986 002e 0B       		.uleb128 0xb
 987 002f 0B       		.uleb128 0xb
 988 0030 3E       		.uleb128 0x3e
 989 0031 0B       		.uleb128 0xb
 990 0032 03       		.uleb128 0x3
 991 0033 08       		.uleb128 0x8
 992 0034 00       		.byte	0
 993 0035 00       		.byte	0
 994 0036 05       		.uleb128 0x5
 995 0037 16       		.uleb128 0x16
 996 0038 00       		.byte	0
 997 0039 03       		.uleb128 0x3
 998 003a 0E       		.uleb128 0xe
 999 003b 3A       		.uleb128 0x3a
 1000 003c 0B       		.uleb128 0xb
 1001 003d 3B       		.uleb128 0x3b
 1002 003e 05       		.uleb128 0x5
 1003 003f 49       		.uleb128 0x49
 1004 0040 13       		.uleb128 0x13
 1005 0041 00       		.byte	0
 1006 0042 00       		.byte	0
 1007 0043 06       		.uleb128 0x6
 1008 0044 13       		.uleb128 0x13
 1009 0045 01       		.byte	0x1
 1010 0046 03       		.uleb128 0x3
 1011 0047 0E       		.uleb128 0xe
 1012 0048 0B       		.uleb128 0xb
 1013 0049 05       		.uleb128 0x5
 1014 004a 3A       		.uleb128 0x3a
 1015 004b 0B       		.uleb128 0xb
 1016 004c 3B       		.uleb128 0x3b
 1017 004d 0B       		.uleb128 0xb
 1018 004e 01       		.uleb128 0x1
 1019 004f 13       		.uleb128 0x13
 1020 0050 00       		.byte	0
 1021 0051 00       		.byte	0
 1022 0052 07       		.uleb128 0x7
 1023 0053 0D       		.uleb128 0xd
 1024 0054 00       		.byte	0
 1025 0055 03       		.uleb128 0x3
 1026 0056 08       		.uleb128 0x8
 1027 0057 3A       		.uleb128 0x3a
 1028 0058 0B       		.uleb128 0xb
 1029 0059 3B       		.uleb128 0x3b
 1030 005a 0B       		.uleb128 0xb
 1031 005b 49       		.uleb128 0x49
 1032 005c 13       		.uleb128 0x13
 1033 005d 38       		.uleb128 0x38
 1034 005e 0B       		.uleb128 0xb
 1035 005f 00       		.byte	0
 1036 0060 00       		.byte	0
 1037 0061 08       		.uleb128 0x8
 1038 0062 0D       		.uleb128 0xd
 1039 0063 00       		.byte	0
 1040 0064 03       		.uleb128 0x3
ARM GAS  C:\Users\Lenovo\AppData\Local\Temp\ccR8lQ2a.s 			page 22


 1041 0065 0E       		.uleb128 0xe
 1042 0066 3A       		.uleb128 0x3a
 1043 0067 0B       		.uleb128 0xb
 1044 0068 3B       		.uleb128 0x3b
 1045 0069 0B       		.uleb128 0xb
 1046 006a 49       		.uleb128 0x49
 1047 006b 13       		.uleb128 0x13
 1048 006c 38       		.uleb128 0x38
 1049 006d 0B       		.uleb128 0xb
 1050 006e 00       		.byte	0
 1051 006f 00       		.byte	0
 1052 0070 09       		.uleb128 0x9
 1053 0071 0D       		.uleb128 0xd
 1054 0072 00       		.byte	0
 1055 0073 03       		.uleb128 0x3
 1056 0074 0E       		.uleb128 0xe
 1057 0075 3A       		.uleb128 0x3a
 1058 0076 0B       		.uleb128 0xb
 1059 0077 3B       		.uleb128 0x3b
 1060 0078 0B       		.uleb128 0xb
 1061 0079 49       		.uleb128 0x49
 1062 007a 13       		.uleb128 0x13
 1063 007b 38       		.uleb128 0x38
 1064 007c 05       		.uleb128 0x5
 1065 007d 00       		.byte	0
 1066 007e 00       		.byte	0
 1067 007f 0A       		.uleb128 0xa
 1068 0080 01       		.uleb128 0x1
 1069 0081 01       		.byte	0x1
 1070 0082 49       		.uleb128 0x49
 1071 0083 13       		.uleb128 0x13
 1072 0084 01       		.uleb128 0x1
 1073 0085 13       		.uleb128 0x13
 1074 0086 00       		.byte	0
 1075 0087 00       		.byte	0
 1076 0088 0B       		.uleb128 0xb
 1077 0089 21       		.uleb128 0x21
 1078 008a 00       		.byte	0
 1079 008b 49       		.uleb128 0x49
 1080 008c 13       		.uleb128 0x13
 1081 008d 2F       		.uleb128 0x2f
 1082 008e 0B       		.uleb128 0xb
 1083 008f 00       		.byte	0
 1084 0090 00       		.byte	0
 1085 0091 0C       		.uleb128 0xc
 1086 0092 0D       		.uleb128 0xd
 1087 0093 00       		.byte	0
 1088 0094 03       		.uleb128 0x3
 1089 0095 08       		.uleb128 0x8
 1090 0096 3A       		.uleb128 0x3a
 1091 0097 0B       		.uleb128 0xb
 1092 0098 3B       		.uleb128 0x3b
 1093 0099 0B       		.uleb128 0xb
 1094 009a 49       		.uleb128 0x49
 1095 009b 13       		.uleb128 0x13
 1096 009c 38       		.uleb128 0x38
 1097 009d 05       		.uleb128 0x5
ARM GAS  C:\Users\Lenovo\AppData\Local\Temp\ccR8lQ2a.s 			page 23


 1098 009e 00       		.byte	0
 1099 009f 00       		.byte	0
 1100 00a0 0D       		.uleb128 0xd
 1101 00a1 2E       		.uleb128 0x2e
 1102 00a2 00       		.byte	0
 1103 00a3 3F       		.uleb128 0x3f
 1104 00a4 19       		.uleb128 0x19
 1105 00a5 03       		.uleb128 0x3
 1106 00a6 0E       		.uleb128 0xe
 1107 00a7 3A       		.uleb128 0x3a
 1108 00a8 0B       		.uleb128 0xb
 1109 00a9 3B       		.uleb128 0x3b
 1110 00aa 0B       		.uleb128 0xb
 1111 00ab 27       		.uleb128 0x27
 1112 00ac 19       		.uleb128 0x19
 1113 00ad 11       		.uleb128 0x11
 1114 00ae 01       		.uleb128 0x1
 1115 00af 12       		.uleb128 0x12
 1116 00b0 06       		.uleb128 0x6
 1117 00b1 40       		.uleb128 0x40
 1118 00b2 18       		.uleb128 0x18
 1119 00b3 9642     		.uleb128 0x2116
 1120 00b5 19       		.uleb128 0x19
 1121 00b6 00       		.byte	0
 1122 00b7 00       		.byte	0
 1123 00b8 0E       		.uleb128 0xe
 1124 00b9 2E       		.uleb128 0x2e
 1125 00ba 01       		.byte	0x1
 1126 00bb 3F       		.uleb128 0x3f
 1127 00bc 19       		.uleb128 0x19
 1128 00bd 03       		.uleb128 0x3
 1129 00be 0E       		.uleb128 0xe
 1130 00bf 3A       		.uleb128 0x3a
 1131 00c0 0B       		.uleb128 0xb
 1132 00c1 3B       		.uleb128 0x3b
 1133 00c2 0B       		.uleb128 0xb
 1134 00c3 27       		.uleb128 0x27
 1135 00c4 19       		.uleb128 0x19
 1136 00c5 11       		.uleb128 0x11
 1137 00c6 01       		.uleb128 0x1
 1138 00c7 12       		.uleb128 0x12
 1139 00c8 06       		.uleb128 0x6
 1140 00c9 40       		.uleb128 0x40
 1141 00ca 18       		.uleb128 0x18
 1142 00cb 9642     		.uleb128 0x2116
 1143 00cd 19       		.uleb128 0x19
 1144 00ce 01       		.uleb128 0x1
 1145 00cf 13       		.uleb128 0x13
 1146 00d0 00       		.byte	0
 1147 00d1 00       		.byte	0
 1148 00d2 0F       		.uleb128 0xf
 1149 00d3 34       		.uleb128 0x34
 1150 00d4 00       		.byte	0
 1151 00d5 03       		.uleb128 0x3
 1152 00d6 08       		.uleb128 0x8
 1153 00d7 3A       		.uleb128 0x3a
 1154 00d8 0B       		.uleb128 0xb
ARM GAS  C:\Users\Lenovo\AppData\Local\Temp\ccR8lQ2a.s 			page 24


 1155 00d9 3B       		.uleb128 0x3b
 1156 00da 0B       		.uleb128 0xb
 1157 00db 49       		.uleb128 0x49
 1158 00dc 13       		.uleb128 0x13
 1159 00dd 02       		.uleb128 0x2
 1160 00de 18       		.uleb128 0x18
 1161 00df 00       		.byte	0
 1162 00e0 00       		.byte	0
 1163 00e1 10       		.uleb128 0x10
 1164 00e2 2E       		.uleb128 0x2e
 1165 00e3 01       		.byte	0x1
 1166 00e4 3F       		.uleb128 0x3f
 1167 00e5 19       		.uleb128 0x19
 1168 00e6 03       		.uleb128 0x3
 1169 00e7 0E       		.uleb128 0xe
 1170 00e8 3A       		.uleb128 0x3a
 1171 00e9 0B       		.uleb128 0xb
 1172 00ea 3B       		.uleb128 0x3b
 1173 00eb 0B       		.uleb128 0xb
 1174 00ec 49       		.uleb128 0x49
 1175 00ed 13       		.uleb128 0x13
 1176 00ee 11       		.uleb128 0x11
 1177 00ef 01       		.uleb128 0x1
 1178 00f0 12       		.uleb128 0x12
 1179 00f1 06       		.uleb128 0x6
 1180 00f2 40       		.uleb128 0x40
 1181 00f3 18       		.uleb128 0x18
 1182 00f4 9642     		.uleb128 0x2116
 1183 00f6 19       		.uleb128 0x19
 1184 00f7 01       		.uleb128 0x1
 1185 00f8 13       		.uleb128 0x13
 1186 00f9 00       		.byte	0
 1187 00fa 00       		.byte	0
 1188 00fb 11       		.uleb128 0x11
 1189 00fc 34       		.uleb128 0x34
 1190 00fd 00       		.byte	0
 1191 00fe 03       		.uleb128 0x3
 1192 00ff 08       		.uleb128 0x8
 1193 0100 3A       		.uleb128 0x3a
 1194 0101 0B       		.uleb128 0xb
 1195 0102 3B       		.uleb128 0x3b
 1196 0103 0B       		.uleb128 0xb
 1197 0104 49       		.uleb128 0x49
 1198 0105 13       		.uleb128 0x13
 1199 0106 00       		.byte	0
 1200 0107 00       		.byte	0
 1201 0108 12       		.uleb128 0x12
 1202 0109 0B       		.uleb128 0xb
 1203 010a 01       		.byte	0x1
 1204 010b 11       		.uleb128 0x11
 1205 010c 01       		.uleb128 0x1
 1206 010d 12       		.uleb128 0x12
 1207 010e 06       		.uleb128 0x6
 1208 010f 00       		.byte	0
 1209 0110 00       		.byte	0
 1210 0111 13       		.uleb128 0x13
 1211 0112 34       		.uleb128 0x34
ARM GAS  C:\Users\Lenovo\AppData\Local\Temp\ccR8lQ2a.s 			page 25


 1212 0113 00       		.byte	0
 1213 0114 03       		.uleb128 0x3
 1214 0115 0E       		.uleb128 0xe
 1215 0116 3A       		.uleb128 0x3a
 1216 0117 0B       		.uleb128 0xb
 1217 0118 3B       		.uleb128 0x3b
 1218 0119 05       		.uleb128 0x5
 1219 011a 49       		.uleb128 0x49
 1220 011b 13       		.uleb128 0x13
 1221 011c 3F       		.uleb128 0x3f
 1222 011d 19       		.uleb128 0x19
 1223 011e 3C       		.uleb128 0x3c
 1224 011f 19       		.uleb128 0x19
 1225 0120 00       		.byte	0
 1226 0121 00       		.byte	0
 1227 0122 14       		.uleb128 0x14
 1228 0123 35       		.uleb128 0x35
 1229 0124 00       		.byte	0
 1230 0125 49       		.uleb128 0x49
 1231 0126 13       		.uleb128 0x13
 1232 0127 00       		.byte	0
 1233 0128 00       		.byte	0
 1234 0129 15       		.uleb128 0x15
 1235 012a 34       		.uleb128 0x34
 1236 012b 00       		.byte	0
 1237 012c 03       		.uleb128 0x3
 1238 012d 0E       		.uleb128 0xe
 1239 012e 3A       		.uleb128 0x3a
 1240 012f 0B       		.uleb128 0xb
 1241 0130 3B       		.uleb128 0x3b
 1242 0131 0B       		.uleb128 0xb
 1243 0132 49       		.uleb128 0x49
 1244 0133 13       		.uleb128 0x13
 1245 0134 3F       		.uleb128 0x3f
 1246 0135 19       		.uleb128 0x19
 1247 0136 02       		.uleb128 0x2
 1248 0137 18       		.uleb128 0x18
 1249 0138 00       		.byte	0
 1250 0139 00       		.byte	0
 1251 013a 16       		.uleb128 0x16
 1252 013b 34       		.uleb128 0x34
 1253 013c 00       		.byte	0
 1254 013d 03       		.uleb128 0x3
 1255 013e 08       		.uleb128 0x8
 1256 013f 3A       		.uleb128 0x3a
 1257 0140 0B       		.uleb128 0xb
 1258 0141 3B       		.uleb128 0x3b
 1259 0142 0B       		.uleb128 0xb
 1260 0143 49       		.uleb128 0x49
 1261 0144 13       		.uleb128 0x13
 1262 0145 3F       		.uleb128 0x3f
 1263 0146 19       		.uleb128 0x19
 1264 0147 02       		.uleb128 0x2
 1265 0148 18       		.uleb128 0x18
 1266 0149 00       		.byte	0
 1267 014a 00       		.byte	0
 1268 014b 00       		.byte	0
ARM GAS  C:\Users\Lenovo\AppData\Local\Temp\ccR8lQ2a.s 			page 26


 1269              		.section	.debug_aranges,"",%progbits
 1270 0000 2C000000 		.4byte	0x2c
 1271 0004 0200     		.2byte	0x2
 1272 0006 00000000 		.4byte	.Ldebug_info0
 1273 000a 04       		.byte	0x4
 1274 000b 00       		.byte	0
 1275 000c 0000     		.2byte	0
 1276 000e 0000     		.2byte	0
 1277 0010 00000000 		.4byte	.LFB63
 1278 0014 1C000000 		.4byte	.LFE63-.LFB63
 1279 0018 00000000 		.4byte	.LFB64
 1280 001c C8010000 		.4byte	.LFE64-.LFB64
 1281 0020 00000000 		.4byte	.LFB65
 1282 0024 E0000000 		.4byte	.LFE65-.LFB65
 1283 0028 00000000 		.4byte	0
 1284 002c 00000000 		.4byte	0
 1285              		.section	.debug_ranges,"",%progbits
 1286              	.Ldebug_ranges0:
 1287 0000 00000000 		.4byte	.LFB63
 1288 0004 1C000000 		.4byte	.LFE63
 1289 0008 00000000 		.4byte	.LFB64
 1290 000c C8010000 		.4byte	.LFE64
 1291 0010 00000000 		.4byte	.LFB65
 1292 0014 E0000000 		.4byte	.LFE65
 1293 0018 00000000 		.4byte	0
 1294 001c 00000000 		.4byte	0
 1295              		.section	.debug_line,"",%progbits
 1296              	.Ldebug_line0:
 1297 0000 37020000 		.section	.debug_str,"MS",%progbits,1
 1297      02005801 
 1297      00000201 
 1297      FB0E0D00 
 1297      01010101 
 1298              	.LASF45:
 1299 0000 474E5520 		.ascii	"GNU C11 5.4.1 20160609 (release) [ARM/embedded-5-br"
 1299      43313120 
 1299      352E342E 
 1299      31203230 
 1299      31363036 
 1300 0033 616E6368 		.ascii	"anch revision 237715] -mcpu=cortex-m3 -mthumb -g -O"
 1300      20726576 
 1300      6973696F 
 1300      6E203233 
 1300      37373135 
 1301 0066 30202D66 		.ascii	"0 -ffunction-sections -ffat-lto-objects\000"
 1301      66756E63 
 1301      74696F6E 
 1301      2D736563 
 1301      74696F6E 
 1302              	.LASF19:
 1303 008e 7070754E 		.ascii	"ppuNozzle\000"
 1303      6F7A7A6C 
 1303      6500
 1304              	.LASF21:
 1305 0098 766F6C75 		.ascii	"volumeSale\000"
 1305      6D655361 
 1305      6C6500
ARM GAS  C:\Users\Lenovo\AppData\Local\Temp\ccR8lQ2a.s 			page 27


 1306              	.LASF9:
 1307 00a3 5F5F696E 		.ascii	"__int32_t\000"
 1307      7433325F 
 1307      7400
 1308              	.LASF42:
 1309 00ad 506F7369 		.ascii	"Positions\000"
 1309      74696F6E 
 1309      7300
 1310              	.LASF30:
 1311 00b7 70756D70 		.ascii	"pump\000"
 1311      00
 1312              	.LASF20:
 1313 00bc 6D6F6E65 		.ascii	"moneySale\000"
 1313      7953616C 
 1313      6500
 1314              	.LASF37:
 1315 00c6 4D657073 		.ascii	"MepsanResponse\000"
 1315      616E5265 
 1315      73706F6E 
 1315      736500
 1316              	.LASF13:
 1317 00d5 666C6F61 		.ascii	"float\000"
 1317      7400
 1318              	.LASF22:
 1319 00db 70707553 		.ascii	"ppuSale\000"
 1319      616C6500 
 1320              	.LASF0:
 1321 00e3 7369676E 		.ascii	"signed char\000"
 1321      65642063 
 1321      68617200 
 1322              	.LASF40:
 1323 00ef 6372635F 		.ascii	"crc_lo\000"
 1323      6C6F00
 1324              	.LASF5:
 1325 00f6 6C6F6E67 		.ascii	"long unsigned int\000"
 1325      20756E73 
 1325      69676E65 
 1325      6420696E 
 1325      7400
 1326              	.LASF3:
 1327 0108 73686F72 		.ascii	"short unsigned int\000"
 1327      7420756E 
 1327      7369676E 
 1327      65642069 
 1327      6E7400
 1328              	.LASF1:
 1329 011b 756E7369 		.ascii	"unsigned char\000"
 1329      676E6564 
 1329      20636861 
 1329      7200
 1330              	.LASF14:
 1331 0129 646F7562 		.ascii	"double\000"
 1331      6C6500
 1332              	.LASF32:
 1333 0130 6D61696E 		.ascii	"main\000"
 1333      00
 1334              	.LASF12:
ARM GAS  C:\Users\Lenovo\AppData\Local\Temp\ccR8lQ2a.s 			page 28


 1335 0135 75696E74 		.ascii	"uint16\000"
 1335      313600
 1336              	.LASF31:
 1337 013c 506F6C6C 		.ascii	"PollingPos\000"
 1337      696E6750 
 1337      6F7300
 1338              	.LASF26:
 1339 0147 50726F63 		.ascii	"ProcessedTotals\000"
 1339      65737365 
 1339      64546F74 
 1339      616C7300 
 1340              	.LASF33:
 1341 0157 49544D5F 		.ascii	"ITM_RxBuffer\000"
 1341      52784275 
 1341      66666572 
 1341      00
 1342              	.LASF44:
 1343 0164 64697247 		.ascii	"dirGbr\000"
 1343      627200
 1344              	.LASF8:
 1345 016b 756E7369 		.ascii	"unsigned int\000"
 1345      676E6564 
 1345      20696E74 
 1345      00
 1346              	.LASF38:
 1347 0178 4D657073 		.ascii	"MepsanSendTo\000"
 1347      616E5365 
 1347      6E64546F 
 1347      00
 1348              	.LASF7:
 1349 0185 6C6F6E67 		.ascii	"long long unsigned int\000"
 1349      206C6F6E 
 1349      6720756E 
 1349      7369676E 
 1349      65642069 
 1350              	.LASF48:
 1351 019c 706F6C6C 		.ascii	"polling\000"
 1351      696E6700 
 1352              	.LASF10:
 1353 01a4 696E7433 		.ascii	"int32_t\000"
 1353      325F7400 
 1354              	.LASF25:
 1355 01ac 4D657073 		.ascii	"MepsanStore\000"
 1355      616E5374 
 1355      6F726500 
 1356              	.LASF36:
 1357 01b8 73696465 		.ascii	"side\000"
 1357      00
 1358              	.LASF47:
 1359 01bd 433A5C55 		.ascii	"C:\\Users\\Lenovo\\Documents\\GitHub\\Mepsan\\Mepsa"
 1359      73657273 
 1359      5C4C656E 
 1359      6F766F5C 
 1359      446F6375 
 1360 01ea 6E2E6379 		.ascii	"n.cydsn\000"
 1360      64736E00 
 1361              	.LASF6:
ARM GAS  C:\Users\Lenovo\AppData\Local\Temp\ccR8lQ2a.s 			page 29


 1362 01f2 6C6F6E67 		.ascii	"long long int\000"
 1362      206C6F6E 
 1362      6720696E 
 1362      7400
 1363              	.LASF17:
 1364 0200 73697A65 		.ascii	"sizetype\000"
 1364      74797065 
 1364      00
 1365              	.LASF46:
 1366 0209 6D61696E 		.ascii	"main.c\000"
 1366      2E6300
 1367              	.LASF15:
 1368 0210 63686172 		.ascii	"char\000"
 1368      00
 1369              	.LASF27:
 1370 0215 50726F63 		.ascii	"ProcessedmoneySale\000"
 1370      65737365 
 1370      646D6F6E 
 1370      65795361 
 1370      6C6500
 1371              	.LASF24:
 1372 0228 73746174 		.ascii	"states\000"
 1372      657300
 1373              	.LASF18:
 1374 022f 746F7461 		.ascii	"totalsNozzle\000"
 1374      6C734E6F 
 1374      7A7A6C65 
 1374      00
 1375              	.LASF2:
 1376 023c 73686F72 		.ascii	"short int\000"
 1376      7420696E 
 1376      7400
 1377              	.LASF11:
 1378 0246 75696E74 		.ascii	"uint8\000"
 1378      3800
 1379              	.LASF29:
 1380 024c 706F7369 		.ascii	"position\000"
 1380      74696F6E 
 1380      00
 1381              	.LASF4:
 1382 0255 6C6F6E67 		.ascii	"long int\000"
 1382      20696E74 
 1382      00
 1383              	.LASF41:
 1384 025e 6372635F 		.ascii	"crc_hi\000"
 1384      686900
 1385              	.LASF16:
 1386 0265 6C6F6E67 		.ascii	"long double\000"
 1386      20646F75 
 1386      626C6500 
 1387              	.LASF28:
 1388 0271 50726F63 		.ascii	"ProcessedvolumeSale\000"
 1388      65737365 
 1388      64766F6C 
 1388      756D6553 
 1388      616C6500 
 1389              	.LASF43:
ARM GAS  C:\Users\Lenovo\AppData\Local\Temp\ccR8lQ2a.s 			page 30


 1390 0285 546F7461 		.ascii	"TotalRequestType\000"
 1390      6C526571 
 1390      75657374 
 1390      54797065 
 1390      00
 1391              	.LASF39:
 1392 0296 50756D70 		.ascii	"PumpAddress\000"
 1392      41646472 
 1392      65737300 
 1393              	.LASF35:
 1394 02a2 43757272 		.ascii	"CurrentState\000"
 1394      656E7453 
 1394      74617465 
 1394      00
 1395              	.LASF34:
 1396 02af 506F6C6C 		.ascii	"PollCounter\000"
 1396      436F756E 
 1396      74657200 
 1397              	.LASF23:
 1398 02bb 70726F64 		.ascii	"productSale\000"
 1398      75637453 
 1398      616C6500 
 1399              		.ident	"GCC: (GNU Tools for ARM Embedded Processors) 5.4.1 20160609 (release) [ARM/embedded-5-bran
