ARM GAS  C:\Users\Diego\AppData\Local\Temp\ccZHiU36.s 			page 1


   1              		.syntax unified
   2              		.cpu cortex-m3
   3              		.fpu softvfp
   4              		.eabi_attribute 20, 1
   5              		.eabi_attribute 21, 1
   6              		.eabi_attribute 23, 3
   7              		.eabi_attribute 24, 1
   8              		.eabi_attribute 25, 1
   9              		.eabi_attribute 26, 1
  10              		.eabi_attribute 30, 6
  11              		.eabi_attribute 34, 1
  12              		.eabi_attribute 18, 4
  13              		.thumb
  14              		.syntax unified
  15              		.file	"main.c"
  16              		.text
  17              	.Ltext0:
  18              		.cfi_sections	.debug_frame
  19              		.comm	PollCounter,2,2
  20              		.comm	CurrentState,1,1
  21              		.comm	Receipt,1,1
  22              		.comm	sale_number,6,4
  23              		.comm	int_salenumber,1,1
  24              		.comm	shift_number,6,4
  25              		.comm	int_shiftnumber,1,1
  26              		.comm	LCDhose,1,1
  27              		.comm	side,1196,4
  28              		.comm	MepsanResponse,50,4
  29              		.comm	MepsanSendTo,50,4
  30              		.comm	PumpAddress,15,4
  31              		.comm	CRC,2,2
  32              		.comm	crc_lo,1,1
  33              		.comm	crc_hi,1,1
  34              		.comm	Positions,1,1
  35              		.comm	TotalRequestType,1,1
  36              		.comm	DecVol,1,1
  37              		.comm	touch1,20,4
  38              		.comm	dirGbr,1,1
  39              		.section	.text.PollingPos,"ax",%progbits
  40              		.align	2
  41              		.global	PollingPos
  42              		.thumb
  43              		.thumb_func
  44              		.type	PollingPos, %function
  45              	PollingPos:
  46              	.LFB63:
  47              		.file 1 "main.c"
   1:main.c        **** /******************************************************************************
   2:main.c        **** * File Name: main.c
   3:main.c        **** *
   4:main.c        **** * Version: 1.10
   5:main.c        **** *
   6:main.c        **** * Description: This is the source code for the Blinking LED code example.
   7:main.c        **** *
   8:main.c        **** * Related Document: CE195352_PSoC_5LP_Blinking_LED.pdf
   9:main.c        **** *
  10:main.c        **** * Hardware Dependency: See CE195352_PSoC_5LP_Blinking_LED.pdf
ARM GAS  C:\Users\Diego\AppData\Local\Temp\ccZHiU36.s 			page 2


  11:main.c        **** *
  12:main.c        **** *******************************************************************************
  13:main.c        **** * Copyright (2018), Cypress Semiconductor Corporation. All rights reserved.
  14:main.c        **** *******************************************************************************
  15:main.c        **** * This software, including source code, documentation and related materials
  16:main.c        **** * (“Software”), is owned by Cypress Semiconductor Corporation or one of its
  17:main.c        **** * subsidiaries (“Cypress”) and is protected by and subject to worldwide patent
  18:main.c        **** * protection (United States and foreign), United States copyright laws and
  19:main.c        **** * international treaty provisions. Therefore, you may use this Software only
  20:main.c        **** * as provided in the license agreement accompanying the software package from
  21:main.c        **** * which you obtained this Software (“EULA”).
  22:main.c        **** *
  23:main.c        **** * If no EULA applies, Cypress hereby grants you a personal, nonexclusive,
  24:main.c        **** * non-transferable license to copy, modify, and compile the Software source
  25:main.c        **** * code solely for use in connection with Cypress’s integrated circuit products.
  26:main.c        **** * Any reproduction, modification, translation, compilation, or representation
  27:main.c        **** * of this Software except as specified above is prohibited without the express
  28:main.c        **** * written permission of Cypress.
  29:main.c        **** *
  30:main.c        **** * Disclaimer: THIS SOFTWARE IS PROVIDED AS-IS, WITH NO WARRANTY OF ANY KIND, 
  31:main.c        **** * EXPRESS OR IMPLIED, INCLUDING, BUT NOT LIMITED TO, NONINFRINGEMENT, IMPLIED 
  32:main.c        **** * WARRANTIES OF MERCHANTABILITY AND FITNESS FOR A PARTICULAR PURPOSE. Cypress 
  33:main.c        **** * reserves the right to make changes to the Software without notice. Cypress 
  34:main.c        **** * does not assume any liability arising out of the application or use of the 
  35:main.c        **** * Software or any product or circuit described in the Software. Cypress does 
  36:main.c        **** * not authorize its products for use in any products where a malfunction or 
  37:main.c        **** * failure of the Cypress product may reasonably be expected to result in 
  38:main.c        **** * significant property damage, injury or death (“High Risk Product”). By 
  39:main.c        **** * including Cypress’s product in a High Risk Product, the manufacturer of such 
  40:main.c        **** * system or application assumes all risk of such use and in doing so agrees to 
  41:main.c        **** * indemnify Cypress against all liability.
  42:main.c        **** *******************************************************************************/
  43:main.c        **** 
  44:main.c        **** #include <project.h>
  45:main.c        **** #include <GVar.h>
  46:main.c        **** #include <PumpCom.h>
  47:main.c        **** #include <Gbr.h>
  48:main.c        **** #include <printer.h>
  49:main.c        **** 
  50:main.c        **** 
  51:main.c        **** 
  52:main.c        **** void PollingPos(void){
  48              		.loc 1 52 0
  49              		.cfi_startproc
  50              		@ args = 0, pretend = 0, frame = 8
  51              		@ frame_needed = 1, uses_anonymous_args = 0
  52 0000 90B5     		push	{r4, r7, lr}
  53              		.cfi_def_cfa_offset 12
  54              		.cfi_offset 4, -12
  55              		.cfi_offset 7, -8
  56              		.cfi_offset 14, -4
  57 0002 83B0     		sub	sp, sp, #12
  58              		.cfi_def_cfa_offset 24
  59 0004 00AF     		add	r7, sp, #0
  60              		.cfi_def_cfa_register 7
  53:main.c        ****     uint8 x;
  54:main.c        ****     if(side.a.dir != 0xFF && side.b.dir == 0xFF){
ARM GAS  C:\Users\Diego\AppData\Local\Temp\ccZHiU36.s 			page 3


  61              		.loc 1 54 0
  62 0006 684B     		ldr	r3, .L15
  63 0008 1B78     		ldrb	r3, [r3]	@ zero_extendqisi2
  64 000a FF2B     		cmp	r3, #255
  65 000c 07D0     		beq	.L2
  66              		.loc 1 54 0 is_stmt 0 discriminator 1
  67 000e 664B     		ldr	r3, .L15
  68 0010 93F82B31 		ldrb	r3, [r3, #299]	@ zero_extendqisi2
  69 0014 FF2B     		cmp	r3, #255
  70 0016 02D1     		bne	.L2
  55:main.c        ****         Positions = 1;
  71              		.loc 1 55 0 is_stmt 1
  72 0018 644B     		ldr	r3, .L15+4
  73 001a 0122     		movs	r2, #1
  74 001c 1A70     		strb	r2, [r3]
  75              	.L2:
  56:main.c        ****     }
  57:main.c        ****     if(side.a.dir != 0xFF && side.b.dir != 0xFF){
  76              		.loc 1 57 0
  77 001e 624B     		ldr	r3, .L15
  78 0020 1B78     		ldrb	r3, [r3]	@ zero_extendqisi2
  79 0022 FF2B     		cmp	r3, #255
  80 0024 07D0     		beq	.L3
  81              		.loc 1 57 0 is_stmt 0 discriminator 1
  82 0026 604B     		ldr	r3, .L15
  83 0028 93F82B31 		ldrb	r3, [r3, #299]	@ zero_extendqisi2
  84 002c FF2B     		cmp	r3, #255
  85 002e 02D0     		beq	.L3
  58:main.c        ****         Positions = 2;
  86              		.loc 1 58 0 is_stmt 1
  87 0030 5E4B     		ldr	r3, .L15+4
  88 0032 0222     		movs	r2, #2
  89 0034 1A70     		strb	r2, [r3]
  90              	.L3:
  59:main.c        ****     }
  60:main.c        ****     if(side.c.dir != 0xFF && side.d.dir == 0xFF){
  91              		.loc 1 60 0
  92 0036 5C4B     		ldr	r3, .L15
  93 0038 93F85632 		ldrb	r3, [r3, #598]	@ zero_extendqisi2
  94 003c FF2B     		cmp	r3, #255
  95 003e 07D0     		beq	.L4
  96              		.loc 1 60 0 is_stmt 0 discriminator 1
  97 0040 594B     		ldr	r3, .L15
  98 0042 93F88133 		ldrb	r3, [r3, #897]	@ zero_extendqisi2
  99 0046 FF2B     		cmp	r3, #255
 100 0048 02D1     		bne	.L4
  61:main.c        ****         Positions = 3;
 101              		.loc 1 61 0 is_stmt 1
 102 004a 584B     		ldr	r3, .L15+4
 103 004c 0322     		movs	r2, #3
 104 004e 1A70     		strb	r2, [r3]
 105              	.L4:
  62:main.c        ****     }
  63:main.c        ****     if(side.c.dir != 0xFF && side.d.dir != 0xFF){
 106              		.loc 1 63 0
 107 0050 554B     		ldr	r3, .L15
 108 0052 93F85632 		ldrb	r3, [r3, #598]	@ zero_extendqisi2
ARM GAS  C:\Users\Diego\AppData\Local\Temp\ccZHiU36.s 			page 4


 109 0056 FF2B     		cmp	r3, #255
 110 0058 07D0     		beq	.L5
 111              		.loc 1 63 0 is_stmt 0 discriminator 1
 112 005a 534B     		ldr	r3, .L15
 113 005c 93F88133 		ldrb	r3, [r3, #897]	@ zero_extendqisi2
 114 0060 FF2B     		cmp	r3, #255
 115 0062 02D0     		beq	.L5
  64:main.c        ****         Positions = 4;
 116              		.loc 1 64 0 is_stmt 1
 117 0064 514B     		ldr	r3, .L15+4
 118 0066 0422     		movs	r2, #4
 119 0068 1A70     		strb	r2, [r3]
 120              	.L5:
  65:main.c        ****     }
  66:main.c        ****     if(Positions == 1){       
 121              		.loc 1 66 0
 122 006a 504B     		ldr	r3, .L15+4
 123 006c 1B78     		ldrb	r3, [r3]	@ zero_extendqisi2
 124 006e 012B     		cmp	r3, #1
 125 0070 09D1     		bne	.L6
  67:main.c        ****         side.a.states[0] = PumpState(side.a.dir);                                    
 126              		.loc 1 67 0
 127 0072 4D4B     		ldr	r3, .L15
 128 0074 1B78     		ldrb	r3, [r3]	@ zero_extendqisi2
 129 0076 1846     		mov	r0, r3
 130 0078 FFF7FEFF 		bl	PumpState
 131 007c 0346     		mov	r3, r0
 132 007e 1A46     		mov	r2, r3
 133 0080 494B     		ldr	r3, .L15
 134 0082 83F84C20 		strb	r2, [r3, #76]
 135              	.L6:
  68:main.c        ****         //ReturnStatus(side.a.dir);        
  69:main.c        ****     }
  70:main.c        ****     if(Positions == 2){
 136              		.loc 1 70 0
 137 0086 494B     		ldr	r3, .L15+4
 138 0088 1B78     		ldrb	r3, [r3]	@ zero_extendqisi2
 139 008a 022B     		cmp	r3, #2
 140 008c 14D1     		bne	.L7
  71:main.c        ****         
  72:main.c        ****         side.a.states[0] = PumpState(side.a.dir);
 141              		.loc 1 72 0
 142 008e 464B     		ldr	r3, .L15
 143 0090 1B78     		ldrb	r3, [r3]	@ zero_extendqisi2
 144 0092 1846     		mov	r0, r3
 145 0094 FFF7FEFF 		bl	PumpState
 146 0098 0346     		mov	r3, r0
 147 009a 1A46     		mov	r2, r3
 148 009c 424B     		ldr	r3, .L15
 149 009e 83F84C20 		strb	r2, [r3, #76]
  73:main.c        ****         side.b.states[0] = PumpState(side.b.dir);
 150              		.loc 1 73 0
 151 00a2 414B     		ldr	r3, .L15
 152 00a4 93F82B31 		ldrb	r3, [r3, #299]	@ zero_extendqisi2
 153 00a8 1846     		mov	r0, r3
 154 00aa FFF7FEFF 		bl	PumpState
 155 00ae 0346     		mov	r3, r0
ARM GAS  C:\Users\Diego\AppData\Local\Temp\ccZHiU36.s 			page 5


 156 00b0 1A46     		mov	r2, r3
 157 00b2 3D4B     		ldr	r3, .L15
 158 00b4 83F87721 		strb	r2, [r3, #375]
 159              	.L7:
  74:main.c        ****                     
  75:main.c        ****     }
  76:main.c        ****     if(Positions == 3){
 160              		.loc 1 76 0
 161 00b8 3C4B     		ldr	r3, .L15+4
 162 00ba 1B78     		ldrb	r3, [r3]	@ zero_extendqisi2
 163 00bc 032B     		cmp	r3, #3
 164 00be 2ED1     		bne	.L8
  77:main.c        ****         for(x = 0; x < 5; x++){
 165              		.loc 1 77 0
 166 00c0 0023     		movs	r3, #0
 167 00c2 FB71     		strb	r3, [r7, #7]
 168 00c4 28E0     		b	.L9
 169              	.L10:
  78:main.c        ****             side.a.states[x] = PumpState(side.a.dir);
 170              		.loc 1 78 0 discriminator 3
 171 00c6 FC79     		ldrb	r4, [r7, #7]	@ zero_extendqisi2
 172 00c8 374B     		ldr	r3, .L15
 173 00ca 1B78     		ldrb	r3, [r3]	@ zero_extendqisi2
 174 00cc 1846     		mov	r0, r3
 175 00ce FFF7FEFF 		bl	PumpState
 176 00d2 0346     		mov	r3, r0
 177 00d4 1A46     		mov	r2, r3
 178 00d6 344B     		ldr	r3, .L15
 179 00d8 2344     		add	r3, r3, r4
 180 00da 83F84C20 		strb	r2, [r3, #76]
  79:main.c        ****             side.b.states[x] = PumpState(side.b.dir);
 181              		.loc 1 79 0 discriminator 3
 182 00de FC79     		ldrb	r4, [r7, #7]	@ zero_extendqisi2
 183 00e0 314B     		ldr	r3, .L15
 184 00e2 93F82B31 		ldrb	r3, [r3, #299]	@ zero_extendqisi2
 185 00e6 1846     		mov	r0, r3
 186 00e8 FFF7FEFF 		bl	PumpState
 187 00ec 0346     		mov	r3, r0
 188 00ee 1A46     		mov	r2, r3
 189 00f0 2D4B     		ldr	r3, .L15
 190 00f2 2344     		add	r3, r3, r4
 191 00f4 83F87721 		strb	r2, [r3, #375]
  80:main.c        ****             side.c.states[x] = PumpState(side.c.dir);
 192              		.loc 1 80 0 discriminator 3
 193 00f8 FC79     		ldrb	r4, [r7, #7]	@ zero_extendqisi2
 194 00fa 2B4B     		ldr	r3, .L15
 195 00fc 93F85632 		ldrb	r3, [r3, #598]	@ zero_extendqisi2
 196 0100 1846     		mov	r0, r3
 197 0102 FFF7FEFF 		bl	PumpState
 198 0106 0346     		mov	r3, r0
 199 0108 1A46     		mov	r2, r3
 200 010a 274B     		ldr	r3, .L15
 201 010c 2344     		add	r3, r3, r4
 202 010e 83F8A222 		strb	r2, [r3, #674]
  77:main.c        ****             side.a.states[x] = PumpState(side.a.dir);
 203              		.loc 1 77 0 discriminator 3
 204 0112 FB79     		ldrb	r3, [r7, #7]	@ zero_extendqisi2
ARM GAS  C:\Users\Diego\AppData\Local\Temp\ccZHiU36.s 			page 6


 205 0114 0133     		adds	r3, r3, #1
 206 0116 FB71     		strb	r3, [r7, #7]
 207              	.L9:
  77:main.c        ****             side.a.states[x] = PumpState(side.a.dir);
 208              		.loc 1 77 0 is_stmt 0 discriminator 1
 209 0118 FB79     		ldrb	r3, [r7, #7]	@ zero_extendqisi2
 210 011a 042B     		cmp	r3, #4
 211 011c D3D9     		bls	.L10
 212              	.L8:
  81:main.c        ****         }
  82:main.c        ****         
  83:main.c        ****     }
  84:main.c        ****     if(Positions == 4){
 213              		.loc 1 84 0 is_stmt 1
 214 011e 234B     		ldr	r3, .L15+4
 215 0120 1B78     		ldrb	r3, [r3]	@ zero_extendqisi2
 216 0122 042B     		cmp	r3, #4
 217 0124 3BD1     		bne	.L14
  85:main.c        ****         for(x = 0; x < 5; x++){
 218              		.loc 1 85 0
 219 0126 0023     		movs	r3, #0
 220 0128 FB71     		strb	r3, [r7, #7]
 221 012a 35E0     		b	.L12
 222              	.L13:
  86:main.c        ****             side.a.states[x] = PumpState(side.a.dir);
 223              		.loc 1 86 0 discriminator 3
 224 012c FC79     		ldrb	r4, [r7, #7]	@ zero_extendqisi2
 225 012e 1E4B     		ldr	r3, .L15
 226 0130 1B78     		ldrb	r3, [r3]	@ zero_extendqisi2
 227 0132 1846     		mov	r0, r3
 228 0134 FFF7FEFF 		bl	PumpState
 229 0138 0346     		mov	r3, r0
 230 013a 1A46     		mov	r2, r3
 231 013c 1A4B     		ldr	r3, .L15
 232 013e 2344     		add	r3, r3, r4
 233 0140 83F84C20 		strb	r2, [r3, #76]
  87:main.c        ****             side.b.states[x] = PumpState(side.b.dir);
 234              		.loc 1 87 0 discriminator 3
 235 0144 FC79     		ldrb	r4, [r7, #7]	@ zero_extendqisi2
 236 0146 184B     		ldr	r3, .L15
 237 0148 93F82B31 		ldrb	r3, [r3, #299]	@ zero_extendqisi2
 238 014c 1846     		mov	r0, r3
 239 014e FFF7FEFF 		bl	PumpState
 240 0152 0346     		mov	r3, r0
 241 0154 1A46     		mov	r2, r3
 242 0156 144B     		ldr	r3, .L15
 243 0158 2344     		add	r3, r3, r4
 244 015a 83F87721 		strb	r2, [r3, #375]
  88:main.c        ****             side.c.states[x] = PumpState(side.c.dir);
 245              		.loc 1 88 0 discriminator 3
 246 015e FC79     		ldrb	r4, [r7, #7]	@ zero_extendqisi2
 247 0160 114B     		ldr	r3, .L15
 248 0162 93F85632 		ldrb	r3, [r3, #598]	@ zero_extendqisi2
 249 0166 1846     		mov	r0, r3
 250 0168 FFF7FEFF 		bl	PumpState
 251 016c 0346     		mov	r3, r0
 252 016e 1A46     		mov	r2, r3
ARM GAS  C:\Users\Diego\AppData\Local\Temp\ccZHiU36.s 			page 7


 253 0170 0D4B     		ldr	r3, .L15
 254 0172 2344     		add	r3, r3, r4
 255 0174 83F8A222 		strb	r2, [r3, #674]
  89:main.c        ****             side.d.states[x] = PumpState(side.d.dir);
 256              		.loc 1 89 0 discriminator 3
 257 0178 FC79     		ldrb	r4, [r7, #7]	@ zero_extendqisi2
 258 017a 0B4B     		ldr	r3, .L15
 259 017c 93F88133 		ldrb	r3, [r3, #897]	@ zero_extendqisi2
 260 0180 1846     		mov	r0, r3
 261 0182 FFF7FEFF 		bl	PumpState
 262 0186 0346     		mov	r3, r0
 263 0188 1A46     		mov	r2, r3
 264 018a 074B     		ldr	r3, .L15
 265 018c 2344     		add	r3, r3, r4
 266 018e 83F8CD23 		strb	r2, [r3, #973]
  85:main.c        ****             side.a.states[x] = PumpState(side.a.dir);
 267              		.loc 1 85 0 discriminator 3
 268 0192 FB79     		ldrb	r3, [r7, #7]	@ zero_extendqisi2
 269 0194 0133     		adds	r3, r3, #1
 270 0196 FB71     		strb	r3, [r7, #7]
 271              	.L12:
  85:main.c        ****             side.a.states[x] = PumpState(side.a.dir);
 272              		.loc 1 85 0 is_stmt 0 discriminator 1
 273 0198 FB79     		ldrb	r3, [r7, #7]	@ zero_extendqisi2
 274 019a 042B     		cmp	r3, #4
 275 019c C6D9     		bls	.L13
 276              	.L14:
  90:main.c        ****         }            
  91:main.c        ****     } 
  92:main.c        **** 
  93:main.c        **** }
 277              		.loc 1 93 0 is_stmt 1
 278 019e 00BF     		nop
 279 01a0 0C37     		adds	r7, r7, #12
 280              		.cfi_def_cfa_offset 12
 281 01a2 BD46     		mov	sp, r7
 282              		.cfi_def_cfa_register 13
 283              		@ sp needed
 284 01a4 90BD     		pop	{r4, r7, pc}
 285              	.L16:
 286 01a6 00BF     		.align	2
 287              	.L15:
 288 01a8 00000000 		.word	side
 289 01ac 00000000 		.word	Positions
 290              		.cfi_endproc
 291              	.LFE63:
 292              		.size	PollingPos, .-PollingPos
 293              		.section	.rodata
 294              		.align	2
 295              	.LC0:
 296 0000 31       		.byte	49
 297 0001 32       		.byte	50
 298 0002 33       		.byte	51
 299 0003 34       		.byte	52
 300              		.align	2
 301              	.LC1:
 302 0004 5A       		.byte	90
ARM GAS  C:\Users\Diego\AppData\Local\Temp\ccZHiU36.s 			page 8


 303 0005 A5       		.byte	-91
 304 0006 04       		.byte	4
 305 0007 80       		.byte	-128
 306 0008 03       		.byte	3
 307 0009 00       		.byte	0
 308 000a 06       		.byte	6
 309 000b 00       		.align	2
 310              	.LC2:
 311 000c 5A       		.byte	90
 312 000d A5       		.byte	-91
 313 000e 04       		.byte	4
 314 000f 80       		.byte	-128
 315 0010 03       		.byte	3
 316 0011 00       		.byte	0
 317 0012 09       		.byte	9
 318              		.section	.text.main,"ax",%progbits
 319              		.align	2
 320              		.global	main
 321              		.thumb
 322              		.thumb_func
 323              		.type	main, %function
 324              	main:
 325              	.LFB64:
  94:main.c        **** 
  95:main.c        **** /*******************************************************************************
  96:main.c        **** * Function Name: main
  97:main.c        **** ********************************************************************************
  98:main.c        **** *
  99:main.c        **** *
 100:main.c        **** *******************************************************************************/
 101:main.c        **** 
 102:main.c        **** int main()
 103:main.c        **** {
 326              		.loc 1 103 0
 327              		.cfi_startproc
 328              		@ args = 0, pretend = 0, frame = 56
 329              		@ frame_needed = 1, uses_anonymous_args = 0
 330 0000 90B5     		push	{r4, r7, lr}
 331              		.cfi_def_cfa_offset 12
 332              		.cfi_offset 4, -12
 333              		.cfi_offset 7, -8
 334              		.cfi_offset 14, -4
 335 0002 8FB0     		sub	sp, sp, #60
 336              		.cfi_def_cfa_offset 72
 337 0004 00AF     		add	r7, sp, #0
 338              		.cfi_def_cfa_register 7
 104:main.c        ****     /* Prepare components */
 105:main.c        ****     uint8 x,screen_size,W_autorize,y,temp;
 106:main.c        ****     uint8 passw[4]={'1','2','3','4'};
 339              		.loc 1 106 0
 340 0006 864A     		ldr	r2, .L106
 341 0008 07F11C03 		add	r3, r7, #28
 342 000c 1068     		ldr	r0, [r2]	@ unaligned
 343 000e 1860     		str	r0, [r3]	@ unaligned
 107:main.c        ****     uint8 change_pic[]={0x5A,0xA5,0x04,0x80,0x03,0x00,0x06};
 344              		.loc 1 107 0
 345 0010 844A     		ldr	r2, .L106+4
ARM GAS  C:\Users\Diego\AppData\Local\Temp\ccZHiU36.s 			page 9


 346 0012 07F11403 		add	r3, r7, #20
 347 0016 1068     		ldr	r0, [r2]	@ unaligned
 348 0018 1860     		str	r0, [r3]	@ unaligned
 349 001a 9188     		ldrh	r1, [r2, #4]	@ unaligned
 350 001c 9279     		ldrb	r2, [r2, #6]
 351 001e 9980     		strh	r1, [r3, #4]	@ unaligned
 352 0020 9A71     		strb	r2, [r3, #6]
 108:main.c        ****     uint8 change_pic2[]={0x5A,0xA5,0x04,0x80,0x03,0x00,0x09};
 353              		.loc 1 108 0
 354 0022 814A     		ldr	r2, .L106+8
 355 0024 07F10C03 		add	r3, r7, #12
 356 0028 1068     		ldr	r0, [r2]	@ unaligned
 357 002a 1860     		str	r0, [r3]	@ unaligned
 358 002c 9188     		ldrh	r1, [r2, #4]	@ unaligned
 359 002e 9279     		ldrb	r2, [r2, #6]
 360 0030 9980     		strh	r1, [r3, #4]	@ unaligned
 361 0032 9A71     		strb	r2, [r3, #6]
 109:main.c        ****     uint8 price_change;
 110:main.c        ****     uint8 auxPrice[5];
 111:main.c        ****     DecVol = 3;
 362              		.loc 1 111 0
 363 0034 7D4B     		ldr	r3, .L106+12
 364 0036 0322     		movs	r2, #3
 365 0038 1A70     		strb	r2, [r3]
 112:main.c        ****     PWM_1_Start(); 
 366              		.loc 1 112 0
 367 003a FFF7FEFF 		bl	PWM_1_Start
 113:main.c        ****     CyGlobalIntEnable;
 368              		.loc 1 113 0
 369              		.syntax unified
 370              	@ 113 "main.c" 1
 371 003e 62B6     		CPSIE   i
 372              	@ 0 "" 2
 114:main.c        ****     MEPSAN_Start();
 373              		.loc 1 114 0
 374              		.thumb
 375              		.syntax unified
 376 0040 FFF7FEFF 		bl	MEPSAN_Start
 115:main.c        ****     GBCL_Start();
 377              		.loc 1 115 0
 378 0044 FFF7FEFF 		bl	GBCL_Start
 116:main.c        ****     PRINTER_A_Start();
 379              		.loc 1 116 0
 380 0048 FFF7FEFF 		bl	PRINTER_A_Start
 117:main.c        ****     screen_Start();
 381              		.loc 1 117 0
 382 004c FFF7FEFF 		bl	screen_Start
 118:main.c        ****     EEPROM_1_Start();
 383              		.loc 1 118 0
 384 0050 FFF7FEFF 		bl	EEPROM_1_Start
 119:main.c        ****     if(EEPROM_1_ReadByte(0) == 0x5A){
 385              		.loc 1 119 0
 386 0054 0020     		movs	r0, #0
 387 0056 FFF7FEFF 		bl	EEPROM_1_ReadByte
 388 005a 0346     		mov	r3, r0
 389 005c 5A2B     		cmp	r3, #90
 390 005e 19D1     		bne	.L18
ARM GAS  C:\Users\Diego\AppData\Local\Temp\ccZHiU36.s 			page 10


 120:main.c        ****         for(x=0;x<6;x++){
 391              		.loc 1 120 0
 392 0060 0023     		movs	r3, #0
 393 0062 87F83730 		strb	r3, [r7, #55]
 394 0066 10E0     		b	.L19
 395              	.L20:
 121:main.c        ****     		sale_number[x]=EEPROM_1_ReadByte(x);
 396              		.loc 1 121 0 discriminator 3
 397 0068 97F83740 		ldrb	r4, [r7, #55]	@ zero_extendqisi2
 398 006c 97F83730 		ldrb	r3, [r7, #55]	@ zero_extendqisi2
 399 0070 9BB2     		uxth	r3, r3
 400 0072 1846     		mov	r0, r3
 401 0074 FFF7FEFF 		bl	EEPROM_1_ReadByte
 402 0078 0346     		mov	r3, r0
 403 007a 1A46     		mov	r2, r3
 404 007c 6C4B     		ldr	r3, .L106+16
 405 007e 1A55     		strb	r2, [r3, r4]
 120:main.c        ****         for(x=0;x<6;x++){
 406              		.loc 1 120 0 discriminator 3
 407 0080 97F83730 		ldrb	r3, [r7, #55]	@ zero_extendqisi2
 408 0084 0133     		adds	r3, r3, #1
 409 0086 87F83730 		strb	r3, [r7, #55]
 410              	.L19:
 120:main.c        ****         for(x=0;x<6;x++){
 411              		.loc 1 120 0 is_stmt 0 discriminator 1
 412 008a 97F83730 		ldrb	r3, [r7, #55]	@ zero_extendqisi2
 413 008e 052B     		cmp	r3, #5
 414 0090 EAD9     		bls	.L20
 415 0092 15E0     		b	.L21
 416              	.L18:
 122:main.c        ****     	}
 123:main.c        ****     }else{
 124:main.c        ****         EEPROM_1_WriteByte(0x5A,0);
 417              		.loc 1 124 0 is_stmt 1
 418 0094 0021     		movs	r1, #0
 419 0096 5A20     		movs	r0, #90
 420 0098 FFF7FEFF 		bl	EEPROM_1_WriteByte
 125:main.c        ****         for(x=1;x<6;x++){
 421              		.loc 1 125 0
 422 009c 0123     		movs	r3, #1
 423 009e 87F83730 		strb	r3, [r7, #55]
 424 00a2 09E0     		b	.L22
 425              	.L23:
 126:main.c        ****     		sale_number[x]='0';
 426              		.loc 1 126 0 discriminator 3
 427 00a4 97F83730 		ldrb	r3, [r7, #55]	@ zero_extendqisi2
 428 00a8 614A     		ldr	r2, .L106+16
 429 00aa 3021     		movs	r1, #48
 430 00ac D154     		strb	r1, [r2, r3]
 125:main.c        ****         for(x=1;x<6;x++){
 431              		.loc 1 125 0 discriminator 3
 432 00ae 97F83730 		ldrb	r3, [r7, #55]	@ zero_extendqisi2
 433 00b2 0133     		adds	r3, r3, #1
 434 00b4 87F83730 		strb	r3, [r7, #55]
 435              	.L22:
 125:main.c        ****         for(x=1;x<6;x++){
 436              		.loc 1 125 0 is_stmt 0 discriminator 1
ARM GAS  C:\Users\Diego\AppData\Local\Temp\ccZHiU36.s 			page 11


 437 00b8 97F83730 		ldrb	r3, [r7, #55]	@ zero_extendqisi2
 438 00bc 052B     		cmp	r3, #5
 439 00be F1D9     		bls	.L23
 440              	.L21:
 127:main.c        ****     	}
 128:main.c        ****     }
 129:main.c        ****     int_salenumber=((sale_number[5]&0x0F)*10000)+((sale_number[4]&0x0F)*1000)+((sale_number[3]&0x0F
 441              		.loc 1 129 0 is_stmt 1
 442 00c0 5B4B     		ldr	r3, .L106+16
 443 00c2 5B79     		ldrb	r3, [r3, #5]	@ zero_extendqisi2
 444 00c4 03F00F03 		and	r3, r3, #15
 445 00c8 DBB2     		uxtb	r3, r3
 446 00ca 1B01     		lsls	r3, r3, #4
 447 00cc DAB2     		uxtb	r2, r3
 448 00ce 584B     		ldr	r3, .L106+16
 449 00d0 1B79     		ldrb	r3, [r3, #4]	@ zero_extendqisi2
 450 00d2 03F00F03 		and	r3, r3, #15
 451 00d6 DBB2     		uxtb	r3, r3
 452 00d8 1946     		mov	r1, r3
 453 00da 9B00     		lsls	r3, r3, #2
 454 00dc CB1A     		subs	r3, r1, r3
 455 00de DB00     		lsls	r3, r3, #3
 456 00e0 DBB2     		uxtb	r3, r3
 457 00e2 1344     		add	r3, r3, r2
 458 00e4 DAB2     		uxtb	r2, r3
 459 00e6 524B     		ldr	r3, .L106+16
 460 00e8 9B78     		ldrb	r3, [r3, #2]	@ zero_extendqisi2
 461 00ea 03F00F03 		and	r3, r3, #15
 462 00ee DBB2     		uxtb	r3, r3
 463 00f0 1946     		mov	r1, r3
 464 00f2 8900     		lsls	r1, r1, #2
 465 00f4 0B44     		add	r3, r3, r1
 466 00f6 5B00     		lsls	r3, r3, #1
 467 00f8 D9B2     		uxtb	r1, r3
 468 00fa 4D4B     		ldr	r3, .L106+16
 469 00fc DB78     		ldrb	r3, [r3, #3]	@ zero_extendqisi2
 470 00fe 03F00F03 		and	r3, r3, #15
 471 0102 DBB2     		uxtb	r3, r3
 472 0104 1846     		mov	r0, r3
 473 0106 8000     		lsls	r0, r0, #2
 474 0108 0344     		add	r3, r3, r0
 475 010a 1846     		mov	r0, r3
 476 010c 8400     		lsls	r4, r0, #2
 477 010e 1846     		mov	r0, r3
 478 0110 2346     		mov	r3, r4
 479 0112 0344     		add	r3, r3, r0
 480 0114 9B00     		lsls	r3, r3, #2
 481 0116 DBB2     		uxtb	r3, r3
 482 0118 0B44     		add	r3, r3, r1
 483 011a DBB2     		uxtb	r3, r3
 484 011c 1344     		add	r3, r3, r2
 485 011e DAB2     		uxtb	r2, r3
 486 0120 434B     		ldr	r3, .L106+16
 487 0122 5B78     		ldrb	r3, [r3, #1]	@ zero_extendqisi2
 488 0124 03F00F03 		and	r3, r3, #15
 489 0128 DBB2     		uxtb	r3, r3
 490 012a 1344     		add	r3, r3, r2
ARM GAS  C:\Users\Diego\AppData\Local\Temp\ccZHiU36.s 			page 12


 491 012c DAB2     		uxtb	r2, r3
 492 012e 414B     		ldr	r3, .L106+20
 493 0130 1A70     		strb	r2, [r3]
 130:main.c        ****     if(EEPROM_1_ReadByte(6) == 0x5A){
 494              		.loc 1 130 0
 495 0132 0620     		movs	r0, #6
 496 0134 FFF7FEFF 		bl	EEPROM_1_ReadByte
 497 0138 0346     		mov	r3, r0
 498 013a 5A2B     		cmp	r3, #90
 499 013c 1CD1     		bne	.L24
 131:main.c        ****         for(x=0;x<6;x++){
 500              		.loc 1 131 0
 501 013e 0023     		movs	r3, #0
 502 0140 87F83730 		strb	r3, [r7, #55]
 503 0144 13E0     		b	.L25
 504              	.L26:
 132:main.c        ****     		shift_number[x+6]=EEPROM_1_ReadByte(x+6);
 505              		.loc 1 132 0 discriminator 3
 506 0146 97F83730 		ldrb	r3, [r7, #55]	@ zero_extendqisi2
 507 014a 9C1D     		adds	r4, r3, #6
 508 014c 97F83730 		ldrb	r3, [r7, #55]	@ zero_extendqisi2
 509 0150 9BB2     		uxth	r3, r3
 510 0152 0633     		adds	r3, r3, #6
 511 0154 9BB2     		uxth	r3, r3
 512 0156 1846     		mov	r0, r3
 513 0158 FFF7FEFF 		bl	EEPROM_1_ReadByte
 514 015c 0346     		mov	r3, r0
 515 015e 1A46     		mov	r2, r3
 516 0160 354B     		ldr	r3, .L106+24
 517 0162 1A55     		strb	r2, [r3, r4]
 131:main.c        ****         for(x=0;x<6;x++){
 518              		.loc 1 131 0 discriminator 3
 519 0164 97F83730 		ldrb	r3, [r7, #55]	@ zero_extendqisi2
 520 0168 0133     		adds	r3, r3, #1
 521 016a 87F83730 		strb	r3, [r7, #55]
 522              	.L25:
 131:main.c        ****         for(x=0;x<6;x++){
 523              		.loc 1 131 0 is_stmt 0 discriminator 1
 524 016e 97F83730 		ldrb	r3, [r7, #55]	@ zero_extendqisi2
 525 0172 052B     		cmp	r3, #5
 526 0174 E7D9     		bls	.L26
 527 0176 16E0     		b	.L27
 528              	.L24:
 133:main.c        ****     	}
 134:main.c        ****     }else{
 135:main.c        ****         EEPROM_1_WriteByte(0x5A,6);
 529              		.loc 1 135 0 is_stmt 1
 530 0178 0621     		movs	r1, #6
 531 017a 5A20     		movs	r0, #90
 532 017c FFF7FEFF 		bl	EEPROM_1_WriteByte
 136:main.c        ****         for(x=1;x<6;x++){
 533              		.loc 1 136 0
 534 0180 0123     		movs	r3, #1
 535 0182 87F83730 		strb	r3, [r7, #55]
 536 0186 0AE0     		b	.L28
 537              	.L29:
 137:main.c        ****     		shift_number[x+6]='0';
ARM GAS  C:\Users\Diego\AppData\Local\Temp\ccZHiU36.s 			page 13


 538              		.loc 1 137 0 discriminator 3
 539 0188 97F83730 		ldrb	r3, [r7, #55]	@ zero_extendqisi2
 540 018c 0633     		adds	r3, r3, #6
 541 018e 2A4A     		ldr	r2, .L106+24
 542 0190 3021     		movs	r1, #48
 543 0192 D154     		strb	r1, [r2, r3]
 136:main.c        ****         for(x=1;x<6;x++){
 544              		.loc 1 136 0 discriminator 3
 545 0194 97F83730 		ldrb	r3, [r7, #55]	@ zero_extendqisi2
 546 0198 0133     		adds	r3, r3, #1
 547 019a 87F83730 		strb	r3, [r7, #55]
 548              	.L28:
 136:main.c        ****         for(x=1;x<6;x++){
 549              		.loc 1 136 0 is_stmt 0 discriminator 1
 550 019e 97F83730 		ldrb	r3, [r7, #55]	@ zero_extendqisi2
 551 01a2 052B     		cmp	r3, #5
 552 01a4 F0D9     		bls	.L29
 553              	.L27:
 138:main.c        ****     	}
 139:main.c        ****     }
 140:main.c        ****     int_shiftnumber=((shift_number[5]&0x0F)*10000)+((shift_number[4]&0x0F)*1000)+((shift_number[3]&
 554              		.loc 1 140 0 is_stmt 1
 555 01a6 244B     		ldr	r3, .L106+24
 556 01a8 5B79     		ldrb	r3, [r3, #5]	@ zero_extendqisi2
 557 01aa 03F00F03 		and	r3, r3, #15
 558 01ae DBB2     		uxtb	r3, r3
 559 01b0 1B01     		lsls	r3, r3, #4
 560 01b2 DAB2     		uxtb	r2, r3
 561 01b4 204B     		ldr	r3, .L106+24
 562 01b6 1B79     		ldrb	r3, [r3, #4]	@ zero_extendqisi2
 563 01b8 03F00F03 		and	r3, r3, #15
 564 01bc DBB2     		uxtb	r3, r3
 565 01be 1946     		mov	r1, r3
 566 01c0 9B00     		lsls	r3, r3, #2
 567 01c2 CB1A     		subs	r3, r1, r3
 568 01c4 DB00     		lsls	r3, r3, #3
 569 01c6 DBB2     		uxtb	r3, r3
 570 01c8 1344     		add	r3, r3, r2
 571 01ca DAB2     		uxtb	r2, r3
 572 01cc 1A4B     		ldr	r3, .L106+24
 573 01ce 9B78     		ldrb	r3, [r3, #2]	@ zero_extendqisi2
 574 01d0 03F00F03 		and	r3, r3, #15
 575 01d4 DBB2     		uxtb	r3, r3
 576 01d6 1946     		mov	r1, r3
 577 01d8 8900     		lsls	r1, r1, #2
 578 01da 0B44     		add	r3, r3, r1
 579 01dc 5B00     		lsls	r3, r3, #1
 580 01de D9B2     		uxtb	r1, r3
 581 01e0 154B     		ldr	r3, .L106+24
 582 01e2 DB78     		ldrb	r3, [r3, #3]	@ zero_extendqisi2
 583 01e4 03F00F03 		and	r3, r3, #15
 584 01e8 DBB2     		uxtb	r3, r3
 585 01ea 1846     		mov	r0, r3
 586 01ec 8000     		lsls	r0, r0, #2
 587 01ee 0344     		add	r3, r3, r0
 588 01f0 1846     		mov	r0, r3
 589 01f2 8400     		lsls	r4, r0, #2
ARM GAS  C:\Users\Diego\AppData\Local\Temp\ccZHiU36.s 			page 14


 590 01f4 1846     		mov	r0, r3
 591 01f6 2346     		mov	r3, r4
 592 01f8 0344     		add	r3, r3, r0
 593 01fa 9B00     		lsls	r3, r3, #2
 594 01fc DBB2     		uxtb	r3, r3
 595 01fe 0B44     		add	r3, r3, r1
 596 0200 DBB2     		uxtb	r3, r3
 597 0202 1344     		add	r3, r3, r2
 598 0204 DAB2     		uxtb	r2, r3
 599 0206 0C4B     		ldr	r3, .L106+24
 600 0208 5B78     		ldrb	r3, [r3, #1]	@ zero_extendqisi2
 601 020a 03F00F03 		and	r3, r3, #15
 602 020e DBB2     		uxtb	r3, r3
 603 0210 1344     		add	r3, r3, r2
 604 0212 DAB2     		uxtb	r2, r3
 605 0214 094B     		ldr	r3, .L106+28
 606 0216 1A70     		strb	r2, [r3]
 141:main.c        ****     
 142:main.c        ****         
 143:main.c        ****     for(x = 0; x < 3; x ++){
 607              		.loc 1 143 0
 608 0218 0023     		movs	r3, #0
 609 021a 87F83730 		strb	r3, [r7, #55]
 610 021e 94E0     		b	.L30
 611              	.L107:
 612              		.align	2
 613              	.L106:
 614 0220 00000000 		.word	.LC0
 615 0224 04000000 		.word	.LC1
 616 0228 0C000000 		.word	.LC2
 617 022c 00000000 		.word	DecVol
 618 0230 00000000 		.word	sale_number
 619 0234 00000000 		.word	int_salenumber
 620 0238 00000000 		.word	shift_number
 621 023c 00000000 		.word	int_shiftnumber
 622              	.L31:
 144:main.c        ****         side.a.ppuNozzle[0][x] = EEPROM_1_ReadByte(12 + x);
 623              		.loc 1 144 0 discriminator 3
 624 0240 97F83740 		ldrb	r4, [r7, #55]	@ zero_extendqisi2
 625 0244 97F83730 		ldrb	r3, [r7, #55]	@ zero_extendqisi2
 626 0248 9BB2     		uxth	r3, r3
 627 024a 0C33     		adds	r3, r3, #12
 628 024c 9BB2     		uxth	r3, r3
 629 024e 1846     		mov	r0, r3
 630 0250 FFF7FEFF 		bl	EEPROM_1_ReadByte
 631 0254 0346     		mov	r3, r0
 632 0256 1A46     		mov	r2, r3
 633 0258 C64B     		ldr	r3, .L108
 634 025a 2344     		add	r3, r3, r4
 635 025c 83F82920 		strb	r2, [r3, #41]
 145:main.c        ****         side.a.ppuNozzle[1][x] = EEPROM_1_ReadByte(15 + x);
 636              		.loc 1 145 0 discriminator 3
 637 0260 97F83740 		ldrb	r4, [r7, #55]	@ zero_extendqisi2
 638 0264 97F83730 		ldrb	r3, [r7, #55]	@ zero_extendqisi2
 639 0268 9BB2     		uxth	r3, r3
 640 026a 0F33     		adds	r3, r3, #15
 641 026c 9BB2     		uxth	r3, r3
ARM GAS  C:\Users\Diego\AppData\Local\Temp\ccZHiU36.s 			page 15


 642 026e 1846     		mov	r0, r3
 643 0270 FFF7FEFF 		bl	EEPROM_1_ReadByte
 644 0274 0346     		mov	r3, r0
 645 0276 1A46     		mov	r2, r3
 646 0278 BE4B     		ldr	r3, .L108
 647 027a 2344     		add	r3, r3, r4
 648 027c 83F82C20 		strb	r2, [r3, #44]
 146:main.c        ****         side.a.ppuNozzle[2][x] = EEPROM_1_ReadByte(18 + x);
 649              		.loc 1 146 0 discriminator 3
 650 0280 97F83740 		ldrb	r4, [r7, #55]	@ zero_extendqisi2
 651 0284 97F83730 		ldrb	r3, [r7, #55]	@ zero_extendqisi2
 652 0288 9BB2     		uxth	r3, r3
 653 028a 1233     		adds	r3, r3, #18
 654 028c 9BB2     		uxth	r3, r3
 655 028e 1846     		mov	r0, r3
 656 0290 FFF7FEFF 		bl	EEPROM_1_ReadByte
 657 0294 0346     		mov	r3, r0
 658 0296 1A46     		mov	r2, r3
 659 0298 B64B     		ldr	r3, .L108
 660 029a 2344     		add	r3, r3, r4
 661 029c 83F82F20 		strb	r2, [r3, #47]
 147:main.c        ****         side.a.ppuNozzle[3][x] = EEPROM_1_ReadByte(21 + x);
 662              		.loc 1 147 0 discriminator 3
 663 02a0 97F83740 		ldrb	r4, [r7, #55]	@ zero_extendqisi2
 664 02a4 97F83730 		ldrb	r3, [r7, #55]	@ zero_extendqisi2
 665 02a8 9BB2     		uxth	r3, r3
 666 02aa 1533     		adds	r3, r3, #21
 667 02ac 9BB2     		uxth	r3, r3
 668 02ae 1846     		mov	r0, r3
 669 02b0 FFF7FEFF 		bl	EEPROM_1_ReadByte
 670 02b4 0346     		mov	r3, r0
 671 02b6 1A46     		mov	r2, r3
 672 02b8 AE4B     		ldr	r3, .L108
 673 02ba 2344     		add	r3, r3, r4
 674 02bc 83F83220 		strb	r2, [r3, #50]
 148:main.c        ****         side.b.ppuNozzle[0][x] = EEPROM_1_ReadByte(24 + x);
 675              		.loc 1 148 0 discriminator 3
 676 02c0 97F83740 		ldrb	r4, [r7, #55]	@ zero_extendqisi2
 677 02c4 97F83730 		ldrb	r3, [r7, #55]	@ zero_extendqisi2
 678 02c8 9BB2     		uxth	r3, r3
 679 02ca 1833     		adds	r3, r3, #24
 680 02cc 9BB2     		uxth	r3, r3
 681 02ce 1846     		mov	r0, r3
 682 02d0 FFF7FEFF 		bl	EEPROM_1_ReadByte
 683 02d4 0346     		mov	r3, r0
 684 02d6 1A46     		mov	r2, r3
 685 02d8 A64B     		ldr	r3, .L108
 686 02da 2344     		add	r3, r3, r4
 687 02dc 83F85421 		strb	r2, [r3, #340]
 149:main.c        ****         side.b.ppuNozzle[1][x] = EEPROM_1_ReadByte(27 + x);
 688              		.loc 1 149 0 discriminator 3
 689 02e0 97F83740 		ldrb	r4, [r7, #55]	@ zero_extendqisi2
 690 02e4 97F83730 		ldrb	r3, [r7, #55]	@ zero_extendqisi2
 691 02e8 9BB2     		uxth	r3, r3
 692 02ea 1B33     		adds	r3, r3, #27
 693 02ec 9BB2     		uxth	r3, r3
 694 02ee 1846     		mov	r0, r3
ARM GAS  C:\Users\Diego\AppData\Local\Temp\ccZHiU36.s 			page 16


 695 02f0 FFF7FEFF 		bl	EEPROM_1_ReadByte
 696 02f4 0346     		mov	r3, r0
 697 02f6 1A46     		mov	r2, r3
 698 02f8 9E4B     		ldr	r3, .L108
 699 02fa 2344     		add	r3, r3, r4
 700 02fc 83F85721 		strb	r2, [r3, #343]
 150:main.c        ****         side.b.ppuNozzle[2][x] = EEPROM_1_ReadByte(30 + x);
 701              		.loc 1 150 0 discriminator 3
 702 0300 97F83740 		ldrb	r4, [r7, #55]	@ zero_extendqisi2
 703 0304 97F83730 		ldrb	r3, [r7, #55]	@ zero_extendqisi2
 704 0308 9BB2     		uxth	r3, r3
 705 030a 1E33     		adds	r3, r3, #30
 706 030c 9BB2     		uxth	r3, r3
 707 030e 1846     		mov	r0, r3
 708 0310 FFF7FEFF 		bl	EEPROM_1_ReadByte
 709 0314 0346     		mov	r3, r0
 710 0316 1A46     		mov	r2, r3
 711 0318 964B     		ldr	r3, .L108
 712 031a 2344     		add	r3, r3, r4
 713 031c 83F85A21 		strb	r2, [r3, #346]
 151:main.c        ****         side.b.ppuNozzle[3][x] = EEPROM_1_ReadByte(33 + x);
 714              		.loc 1 151 0 discriminator 3
 715 0320 97F83740 		ldrb	r4, [r7, #55]	@ zero_extendqisi2
 716 0324 97F83730 		ldrb	r3, [r7, #55]	@ zero_extendqisi2
 717 0328 9BB2     		uxth	r3, r3
 718 032a 2133     		adds	r3, r3, #33
 719 032c 9BB2     		uxth	r3, r3
 720 032e 1846     		mov	r0, r3
 721 0330 FFF7FEFF 		bl	EEPROM_1_ReadByte
 722 0334 0346     		mov	r3, r0
 723 0336 1A46     		mov	r2, r3
 724 0338 8E4B     		ldr	r3, .L108
 725 033a 2344     		add	r3, r3, r4
 726 033c 83F85D21 		strb	r2, [r3, #349]
 143:main.c        ****         side.a.ppuNozzle[0][x] = EEPROM_1_ReadByte(12 + x);
 727              		.loc 1 143 0 discriminator 3
 728 0340 97F83730 		ldrb	r3, [r7, #55]	@ zero_extendqisi2
 729 0344 0133     		adds	r3, r3, #1
 730 0346 87F83730 		strb	r3, [r7, #55]
 731              	.L30:
 143:main.c        ****         side.a.ppuNozzle[0][x] = EEPROM_1_ReadByte(12 + x);
 732              		.loc 1 143 0 is_stmt 0 discriminator 1
 733 034a 97F83730 		ldrb	r3, [r7, #55]	@ zero_extendqisi2
 734 034e 022B     		cmp	r3, #2
 735 0350 7FF676AF 		bls	.L31
 152:main.c        ****     }
 153:main.c        ****     
 154:main.c        ****     side.a.ProcessedPPU[0][0] = (side.a.ppuNozzle[0][0] >> 4) + 0x30;
 736              		.loc 1 154 0 is_stmt 1
 737 0354 874B     		ldr	r3, .L108
 738 0356 93F82930 		ldrb	r3, [r3, #41]	@ zero_extendqisi2
 739 035a 1B09     		lsrs	r3, r3, #4
 740 035c DBB2     		uxtb	r3, r3
 741 035e 3033     		adds	r3, r3, #48
 742 0360 DAB2     		uxtb	r2, r3
 743 0362 844B     		ldr	r3, .L108
 744 0364 83F80B21 		strb	r2, [r3, #267]
ARM GAS  C:\Users\Diego\AppData\Local\Temp\ccZHiU36.s 			page 17


 155:main.c        ****     side.a.ProcessedPPU[0][1] = (side.a.ppuNozzle[0][0] & 0x0F) + 0x30;
 745              		.loc 1 155 0
 746 0368 824B     		ldr	r3, .L108
 747 036a 93F82930 		ldrb	r3, [r3, #41]	@ zero_extendqisi2
 748 036e 03F00F03 		and	r3, r3, #15
 749 0372 DBB2     		uxtb	r3, r3
 750 0374 3033     		adds	r3, r3, #48
 751 0376 DAB2     		uxtb	r2, r3
 752 0378 7E4B     		ldr	r3, .L108
 753 037a 83F80C21 		strb	r2, [r3, #268]
 156:main.c        ****     side.a.ProcessedPPU[0][2] = (side.a.ppuNozzle[0][1] >> 4) + 0x30;
 754              		.loc 1 156 0
 755 037e 7D4B     		ldr	r3, .L108
 756 0380 93F82A30 		ldrb	r3, [r3, #42]	@ zero_extendqisi2
 757 0384 1B09     		lsrs	r3, r3, #4
 758 0386 DBB2     		uxtb	r3, r3
 759 0388 3033     		adds	r3, r3, #48
 760 038a DAB2     		uxtb	r2, r3
 761 038c 794B     		ldr	r3, .L108
 762 038e 83F80D21 		strb	r2, [r3, #269]
 157:main.c        ****     side.a.ProcessedPPU[0][3] = (side.a.ppuNozzle[0][1] & 0x0F) + 0x30;
 763              		.loc 1 157 0
 764 0392 784B     		ldr	r3, .L108
 765 0394 93F82A30 		ldrb	r3, [r3, #42]	@ zero_extendqisi2
 766 0398 03F00F03 		and	r3, r3, #15
 767 039c DBB2     		uxtb	r3, r3
 768 039e 3033     		adds	r3, r3, #48
 769 03a0 DAB2     		uxtb	r2, r3
 770 03a2 744B     		ldr	r3, .L108
 771 03a4 83F80E21 		strb	r2, [r3, #270]
 158:main.c        ****     side.a.ProcessedPPU[0][4] = (side.a.ppuNozzle[0][2] >> 4) + 0x30;
 772              		.loc 1 158 0
 773 03a8 724B     		ldr	r3, .L108
 774 03aa 93F82B30 		ldrb	r3, [r3, #43]	@ zero_extendqisi2
 775 03ae 1B09     		lsrs	r3, r3, #4
 776 03b0 DBB2     		uxtb	r3, r3
 777 03b2 3033     		adds	r3, r3, #48
 778 03b4 DAB2     		uxtb	r2, r3
 779 03b6 6F4B     		ldr	r3, .L108
 780 03b8 83F80F21 		strb	r2, [r3, #271]
 159:main.c        ****     side.a.ProcessedPPU[0][5] = (side.a.ppuNozzle[0][2] & 0x0F) + 0x30;
 781              		.loc 1 159 0
 782 03bc 6D4B     		ldr	r3, .L108
 783 03be 93F82B30 		ldrb	r3, [r3, #43]	@ zero_extendqisi2
 784 03c2 03F00F03 		and	r3, r3, #15
 785 03c6 DBB2     		uxtb	r3, r3
 786 03c8 3033     		adds	r3, r3, #48
 787 03ca DAB2     		uxtb	r2, r3
 788 03cc 694B     		ldr	r3, .L108
 789 03ce 83F81021 		strb	r2, [r3, #272]
 160:main.c        ****     
 161:main.c        ****     side.b.ProcessedPPU[0][0] = (side.b.ppuNozzle[0][0] >> 4) + 0x30;
 790              		.loc 1 161 0
 791 03d2 684B     		ldr	r3, .L108
 792 03d4 93F85431 		ldrb	r3, [r3, #340]	@ zero_extendqisi2
 793 03d8 1B09     		lsrs	r3, r3, #4
 794 03da DBB2     		uxtb	r3, r3
ARM GAS  C:\Users\Diego\AppData\Local\Temp\ccZHiU36.s 			page 18


 795 03dc 3033     		adds	r3, r3, #48
 796 03de DAB2     		uxtb	r2, r3
 797 03e0 644B     		ldr	r3, .L108
 798 03e2 83F83622 		strb	r2, [r3, #566]
 162:main.c        ****     side.b.ProcessedPPU[0][1] = (side.b.ppuNozzle[0][0] & 0x0F) + 0x30;
 799              		.loc 1 162 0
 800 03e6 634B     		ldr	r3, .L108
 801 03e8 93F85431 		ldrb	r3, [r3, #340]	@ zero_extendqisi2
 802 03ec 03F00F03 		and	r3, r3, #15
 803 03f0 DBB2     		uxtb	r3, r3
 804 03f2 3033     		adds	r3, r3, #48
 805 03f4 DAB2     		uxtb	r2, r3
 806 03f6 5F4B     		ldr	r3, .L108
 807 03f8 83F83722 		strb	r2, [r3, #567]
 163:main.c        ****     side.b.ProcessedPPU[0][2] = (side.b.ppuNozzle[0][1] >> 4) + 0x30;
 808              		.loc 1 163 0
 809 03fc 5D4B     		ldr	r3, .L108
 810 03fe 93F85531 		ldrb	r3, [r3, #341]	@ zero_extendqisi2
 811 0402 1B09     		lsrs	r3, r3, #4
 812 0404 DBB2     		uxtb	r3, r3
 813 0406 3033     		adds	r3, r3, #48
 814 0408 DAB2     		uxtb	r2, r3
 815 040a 5A4B     		ldr	r3, .L108
 816 040c 83F83822 		strb	r2, [r3, #568]
 164:main.c        ****     side.b.ProcessedPPU[0][3] = (side.b.ppuNozzle[0][1] & 0x0F) + 0x30;
 817              		.loc 1 164 0
 818 0410 584B     		ldr	r3, .L108
 819 0412 93F85531 		ldrb	r3, [r3, #341]	@ zero_extendqisi2
 820 0416 03F00F03 		and	r3, r3, #15
 821 041a DBB2     		uxtb	r3, r3
 822 041c 3033     		adds	r3, r3, #48
 823 041e DAB2     		uxtb	r2, r3
 824 0420 544B     		ldr	r3, .L108
 825 0422 83F83922 		strb	r2, [r3, #569]
 165:main.c        ****     side.b.ProcessedPPU[0][4] = (side.b.ppuNozzle[0][2] >> 4) + 0x30;
 826              		.loc 1 165 0
 827 0426 534B     		ldr	r3, .L108
 828 0428 93F85631 		ldrb	r3, [r3, #342]	@ zero_extendqisi2
 829 042c 1B09     		lsrs	r3, r3, #4
 830 042e DBB2     		uxtb	r3, r3
 831 0430 3033     		adds	r3, r3, #48
 832 0432 DAB2     		uxtb	r2, r3
 833 0434 4F4B     		ldr	r3, .L108
 834 0436 83F83A22 		strb	r2, [r3, #570]
 166:main.c        ****     side.b.ProcessedPPU[0][5] = (side.b.ppuNozzle[0][2] & 0x0F) + 0x30;
 835              		.loc 1 166 0
 836 043a 4E4B     		ldr	r3, .L108
 837 043c 93F85631 		ldrb	r3, [r3, #342]	@ zero_extendqisi2
 838 0440 03F00F03 		and	r3, r3, #15
 839 0444 DBB2     		uxtb	r3, r3
 840 0446 3033     		adds	r3, r3, #48
 841 0448 DAB2     		uxtb	r2, r3
 842 044a 4A4B     		ldr	r3, .L108
 843 044c 83F83B22 		strb	r2, [r3, #571]
 844              	.LBB2:
 167:main.c        ****     
 168:main.c        ****     //while(side.a.dir == 0xFF){
ARM GAS  C:\Users\Diego\AppData\Local\Temp\ccZHiU36.s 			page 19


 169:main.c        ****         for(uint8 y = 0; y < 16; y ++){
 845              		.loc 1 169 0
 846 0450 0023     		movs	r3, #0
 847 0452 87F83330 		strb	r3, [r7, #51]
 848 0456 0FE0     		b	.L32
 849              	.L33:
 170:main.c        ****             PumpAddress[y] = GetAddress(y); //Posiciones activas      
 850              		.loc 1 170 0 discriminator 3
 851 0458 97F83340 		ldrb	r4, [r7, #51]	@ zero_extendqisi2
 852 045c 97F83330 		ldrb	r3, [r7, #51]	@ zero_extendqisi2
 853 0460 1846     		mov	r0, r3
 854 0462 FFF7FEFF 		bl	GetAddress
 855 0466 0346     		mov	r3, r0
 856 0468 1A46     		mov	r2, r3
 857 046a 434B     		ldr	r3, .L108+4
 858 046c 1A55     		strb	r2, [r3, r4]
 169:main.c        ****             PumpAddress[y] = GetAddress(y); //Posiciones activas      
 859              		.loc 1 169 0 discriminator 3
 860 046e 97F83330 		ldrb	r3, [r7, #51]	@ zero_extendqisi2
 861 0472 0133     		adds	r3, r3, #1
 862 0474 87F83330 		strb	r3, [r7, #51]
 863              	.L32:
 169:main.c        ****             PumpAddress[y] = GetAddress(y); //Posiciones activas      
 864              		.loc 1 169 0 is_stmt 0 discriminator 1
 865 0478 97F83330 		ldrb	r3, [r7, #51]	@ zero_extendqisi2
 866 047c 0F2B     		cmp	r3, #15
 867 047e EBD9     		bls	.L33
 868              	.LBE2:
 171:main.c        ****         } 
 172:main.c        ****     //}
 173:main.c        ****     
 174:main.c        ****     side.a.dir = PumpAddress[1];
 869              		.loc 1 174 0 is_stmt 1
 870 0480 3D4B     		ldr	r3, .L108+4
 871 0482 5A78     		ldrb	r2, [r3, #1]	@ zero_extendqisi2
 872 0484 3B4B     		ldr	r3, .L108
 873 0486 1A70     		strb	r2, [r3]
 175:main.c        ****     side.b.dir = PumpAddress[2];
 874              		.loc 1 175 0
 875 0488 3B4B     		ldr	r3, .L108+4
 876 048a 9A78     		ldrb	r2, [r3, #2]	@ zero_extendqisi2
 877 048c 394B     		ldr	r3, .L108
 878 048e 83F82B21 		strb	r2, [r3, #299]
 176:main.c        ****     side.c.dir = PumpAddress[3];
 879              		.loc 1 176 0
 880 0492 394B     		ldr	r3, .L108+4
 881 0494 DA78     		ldrb	r2, [r3, #3]	@ zero_extendqisi2
 882 0496 374B     		ldr	r3, .L108
 883 0498 83F85622 		strb	r2, [r3, #598]
 177:main.c        ****     side.d.dir = PumpAddress[4]; 
 884              		.loc 1 177 0
 885 049c 364B     		ldr	r3, .L108+4
 886 049e 1A79     		ldrb	r2, [r3, #4]	@ zero_extendqisi2
 887 04a0 344B     		ldr	r3, .L108
 888 04a2 83F88123 		strb	r2, [r3, #897]
 178:main.c        ****     side.a.dir = 0x00;
 889              		.loc 1 178 0
ARM GAS  C:\Users\Diego\AppData\Local\Temp\ccZHiU36.s 			page 20


 890 04a6 334B     		ldr	r3, .L108
 891 04a8 0022     		movs	r2, #0
 892 04aa 1A70     		strb	r2, [r3]
 179:main.c        ****     side.b.dir = 0x01;
 893              		.loc 1 179 0
 894 04ac 314B     		ldr	r3, .L108
 895 04ae 0122     		movs	r2, #1
 896 04b0 83F82B21 		strb	r2, [r3, #299]
 180:main.c        ****     TotalRequestType = 0; 
 897              		.loc 1 180 0
 898 04b4 314B     		ldr	r3, .L108+8
 899 04b6 0022     		movs	r2, #0
 900 04b8 1A70     		strb	r2, [r3]
 181:main.c        ****     W_autorize = 0;        
 901              		.loc 1 181 0
 902 04ba 0023     		movs	r3, #0
 903 04bc 87F83630 		strb	r3, [r7, #54]
 182:main.c        ****     LCDhose = 0;
 904              		.loc 1 182 0
 905 04c0 2F4B     		ldr	r3, .L108+12
 906 04c2 0022     		movs	r2, #0
 907 04c4 1A70     		strb	r2, [r3]
 908              	.L101:
 183:main.c        ****     for (;;)
 184:main.c        ****     {
 185:main.c        ****         PollingPos(); 
 909              		.loc 1 185 0
 910 04c6 FFF7FEFF 		bl	PollingPos
 186:main.c        ****         //screen_PutChar(0x5A);
 187:main.c        ****         screen_size = screen_GetRxBufferSize();
 911              		.loc 1 187 0
 912 04ca FFF7FEFF 		bl	screen_GetRxBufferSize
 913 04ce 0346     		mov	r3, r0
 914 04d0 87F82030 		strb	r3, [r7, #32]
 188:main.c        ****         if(screen_size >= 5 ){
 915              		.loc 1 188 0
 916 04d4 97F82030 		ldrb	r3, [r7, #32]	@ zero_extendqisi2
 917 04d8 042B     		cmp	r3, #4
 918 04da 16D9     		bls	.L34
 919              	.LBB3:
 189:main.c        ****             for(uint8 LCDRx = 0; LCDRx < screen_size; LCDRx++){
 920              		.loc 1 189 0
 921 04dc 0023     		movs	r3, #0
 922 04de 87F83230 		strb	r3, [r7, #50]
 923 04e2 0CE0     		b	.L35
 924              	.L36:
 190:main.c        ****                 touch1[LCDRx] = screen_ReadRxData();
 925              		.loc 1 190 0 discriminator 3
 926 04e4 97F83240 		ldrb	r4, [r7, #50]	@ zero_extendqisi2
 927 04e8 FFF7FEFF 		bl	screen_ReadRxData
 928 04ec 0346     		mov	r3, r0
 929 04ee 1A46     		mov	r2, r3
 930 04f0 244B     		ldr	r3, .L108+16
 931 04f2 1A55     		strb	r2, [r3, r4]
 189:main.c        ****             for(uint8 LCDRx = 0; LCDRx < screen_size; LCDRx++){
 932              		.loc 1 189 0 discriminator 3
 933 04f4 97F83230 		ldrb	r3, [r7, #50]	@ zero_extendqisi2
ARM GAS  C:\Users\Diego\AppData\Local\Temp\ccZHiU36.s 			page 21


 934 04f8 0133     		adds	r3, r3, #1
 935 04fa 87F83230 		strb	r3, [r7, #50]
 936              	.L35:
 189:main.c        ****             for(uint8 LCDRx = 0; LCDRx < screen_size; LCDRx++){
 937              		.loc 1 189 0 is_stmt 0 discriminator 1
 938 04fe 97F83220 		ldrb	r2, [r7, #50]	@ zero_extendqisi2
 939 0502 97F82030 		ldrb	r3, [r7, #32]	@ zero_extendqisi2
 940 0506 9A42     		cmp	r2, r3
 941 0508 ECD3     		bcc	.L36
 942              	.L34:
 943              	.LBE3:
 191:main.c        ****             }            
 192:main.c        ****         }
 193:main.c        ****         CyDelay(4);
 944              		.loc 1 193 0 is_stmt 1
 945 050a 0420     		movs	r0, #4
 946 050c FFF7FEFF 		bl	CyDelay
 194:main.c        ****         switch(touch1[8]){
 947              		.loc 1 194 0
 948 0510 1C4B     		ldr	r3, .L108+16
 949 0512 1B7A     		ldrb	r3, [r3, #8]	@ zero_extendqisi2
 950 0514 1C2B     		cmp	r3, #28
 951 0516 25D0     		beq	.L38
 952 0518 1C2B     		cmp	r3, #28
 953 051a 05DC     		bgt	.L39
 954 051c 0A2B     		cmp	r3, #10
 955 051e 58D0     		beq	.L40
 956 0520 0B2B     		cmp	r3, #11
 957 0522 00F0A780 		beq	.L41
 958 0526 48E1     		b	.L37
 959              	.L39:
 960 0528 CA2B     		cmp	r3, #202
 961 052a 3CD0     		beq	.L42
 962 052c CC2B     		cmp	r3, #204
 963 052e 00F0F780 		beq	.L43
 964 0532 AA2B     		cmp	r3, #170
 965 0534 40F04181 		bne	.L37
 195:main.c        ****         	case 0xAA:
 196:main.c        ****         		W_autorize = 1;
 966              		.loc 1 196 0
 967 0538 0123     		movs	r3, #1
 968 053a 87F83630 		strb	r3, [r7, #54]
 969              	.LBB4:
 197:main.c        ****         		for(uint8 LCDRx = 0; LCDRx < 20; LCDRx++){
 970              		.loc 1 197 0
 971 053e 0023     		movs	r3, #0
 972 0540 87F83130 		strb	r3, [r7, #49]
 973 0544 09E0     		b	.L45
 974              	.L46:
 198:main.c        ****         			touch1[LCDRx] = 0x00;
 975              		.loc 1 198 0 discriminator 3
 976 0546 97F83130 		ldrb	r3, [r7, #49]	@ zero_extendqisi2
 977 054a 0E4A     		ldr	r2, .L108+16
 978 054c 0021     		movs	r1, #0
 979 054e D154     		strb	r1, [r2, r3]
 197:main.c        ****         		for(uint8 LCDRx = 0; LCDRx < 20; LCDRx++){
 980              		.loc 1 197 0 discriminator 3
ARM GAS  C:\Users\Diego\AppData\Local\Temp\ccZHiU36.s 			page 22


 981 0550 97F83130 		ldrb	r3, [r7, #49]	@ zero_extendqisi2
 982 0554 0133     		adds	r3, r3, #1
 983 0556 87F83130 		strb	r3, [r7, #49]
 984              	.L45:
 197:main.c        ****         		for(uint8 LCDRx = 0; LCDRx < 20; LCDRx++){
 985              		.loc 1 197 0 is_stmt 0 discriminator 1
 986 055a 97F83130 		ldrb	r3, [r7, #49]	@ zero_extendqisi2
 987 055e 132B     		cmp	r3, #19
 988 0560 F1D9     		bls	.L46
 989              	.LBE4:
 199:main.c        ****         		}
 200:main.c        ****         	break;
 990              		.loc 1 200 0 is_stmt 1
 991 0562 17E3     		b	.L47
 992              	.L38:
 201:main.c        ****         	case 0x1C:
 202:main.c        ****         		W_autorize = 2;
 993              		.loc 1 202 0
 994 0564 0223     		movs	r3, #2
 995 0566 87F83630 		strb	r3, [r7, #54]
 996              	.LBB5:
 203:main.c        ****         		for(uint8 LCDRx = 0; LCDRx < 20; LCDRx++){
 997              		.loc 1 203 0
 998 056a 0023     		movs	r3, #0
 999 056c 87F83030 		strb	r3, [r7, #48]
 1000 0570 14E0     		b	.L48
 1001              	.L109:
 1002 0572 00BF     		.align	2
 1003              	.L108:
 1004 0574 00000000 		.word	side
 1005 0578 00000000 		.word	PumpAddress
 1006 057c 00000000 		.word	TotalRequestType
 1007 0580 00000000 		.word	LCDhose
 1008 0584 00000000 		.word	touch1
 1009              	.L49:
 204:main.c        ****         			touch1[LCDRx] = 0x00;
 1010              		.loc 1 204 0 discriminator 3
 1011 0588 97F83030 		ldrb	r3, [r7, #48]	@ zero_extendqisi2
 1012 058c C84A     		ldr	r2, .L110
 1013 058e 0021     		movs	r1, #0
 1014 0590 D154     		strb	r1, [r2, r3]
 203:main.c        ****         		for(uint8 LCDRx = 0; LCDRx < 20; LCDRx++){
 1015              		.loc 1 203 0 discriminator 3
 1016 0592 97F83030 		ldrb	r3, [r7, #48]	@ zero_extendqisi2
 1017 0596 0133     		adds	r3, r3, #1
 1018 0598 87F83030 		strb	r3, [r7, #48]
 1019              	.L48:
 203:main.c        ****         		for(uint8 LCDRx = 0; LCDRx < 20; LCDRx++){
 1020              		.loc 1 203 0 is_stmt 0 discriminator 1
 1021 059c 97F83030 		ldrb	r3, [r7, #48]	@ zero_extendqisi2
 1022 05a0 132B     		cmp	r3, #19
 1023 05a2 F1D9     		bls	.L49
 1024              	.LBE5:
 205:main.c        ****         		}		
 206:main.c        ****         	break;
 1025              		.loc 1 206 0 is_stmt 1
 1026 05a4 F6E2     		b	.L47
ARM GAS  C:\Users\Diego\AppData\Local\Temp\ccZHiU36.s 			page 23


 1027              	.L42:
 207:main.c        ****         	case 0xCA:
 208:main.c        ****         		W_autorize = 3;
 1028              		.loc 1 208 0
 1029 05a6 0323     		movs	r3, #3
 1030 05a8 87F83630 		strb	r3, [r7, #54]
 1031              	.LBB6:
 209:main.c        ****         		for(uint8 LCDRx = 0; LCDRx < 20; LCDRx++){
 1032              		.loc 1 209 0
 1033 05ac 0023     		movs	r3, #0
 1034 05ae 87F82F30 		strb	r3, [r7, #47]
 1035 05b2 09E0     		b	.L50
 1036              	.L51:
 210:main.c        ****         			touch1[LCDRx] = 0x00;
 1037              		.loc 1 210 0 discriminator 3
 1038 05b4 97F82F30 		ldrb	r3, [r7, #47]	@ zero_extendqisi2
 1039 05b8 BD4A     		ldr	r2, .L110
 1040 05ba 0021     		movs	r1, #0
 1041 05bc D154     		strb	r1, [r2, r3]
 209:main.c        ****         		for(uint8 LCDRx = 0; LCDRx < 20; LCDRx++){
 1042              		.loc 1 209 0 discriminator 3
 1043 05be 97F82F30 		ldrb	r3, [r7, #47]	@ zero_extendqisi2
 1044 05c2 0133     		adds	r3, r3, #1
 1045 05c4 87F82F30 		strb	r3, [r7, #47]
 1046              	.L50:
 209:main.c        ****         		for(uint8 LCDRx = 0; LCDRx < 20; LCDRx++){
 1047              		.loc 1 209 0 is_stmt 0 discriminator 1
 1048 05c8 97F82F30 		ldrb	r3, [r7, #47]	@ zero_extendqisi2
 1049 05cc 132B     		cmp	r3, #19
 1050 05ce F1D9     		bls	.L51
 1051              	.LBE6:
 211:main.c        ****         		}		
 212:main.c        ****         	break;
 1052              		.loc 1 212 0 is_stmt 1
 1053 05d0 E0E2     		b	.L47
 1054              	.L40:
 213:main.c        ****         	case 0x0A:
 214:main.c        ****         		if(W_autorize == 1){
 1055              		.loc 1 214 0
 1056 05d2 97F83630 		ldrb	r3, [r7, #54]	@ zero_extendqisi2
 1057 05d6 012B     		cmp	r3, #1
 1058 05d8 1FD1     		bne	.L52
 215:main.c        ****         			W_autorize = 0;                    
 1059              		.loc 1 215 0
 1060 05da 0023     		movs	r3, #0
 1061 05dc 87F83630 		strb	r3, [r7, #54]
 216:main.c        ****                     PriceUpdate(side.a.dir,side.a.ppuNozzle[0]);
 1062              		.loc 1 216 0
 1063 05e0 B44B     		ldr	r3, .L110+4
 1064 05e2 1B78     		ldrb	r3, [r3]	@ zero_extendqisi2
 1065 05e4 B449     		ldr	r1, .L110+8
 1066 05e6 1846     		mov	r0, r3
 1067 05e8 FFF7FEFF 		bl	PriceUpdate
 217:main.c        ****                     Authorize(side.a.dir);
 1068              		.loc 1 217 0
 1069 05ec B14B     		ldr	r3, .L110+4
 1070 05ee 1B78     		ldrb	r3, [r3]	@ zero_extendqisi2
ARM GAS  C:\Users\Diego\AppData\Local\Temp\ccZHiU36.s 			page 24


 1071 05f0 1846     		mov	r0, r3
 1072 05f2 FFF7FEFF 		bl	Authorize
 1073              	.LBB7:
 218:main.c        ****                     for(uint8 LCDRx = 0; LCDRx < 20; LCDRx++){
 1074              		.loc 1 218 0
 1075 05f6 0023     		movs	r3, #0
 1076 05f8 87F82E30 		strb	r3, [r7, #46]
 1077 05fc 09E0     		b	.L53
 1078              	.L54:
 219:main.c        ****                         touch1[LCDRx] = 0x00;
 1079              		.loc 1 219 0 discriminator 3
 1080 05fe 97F82E30 		ldrb	r3, [r7, #46]	@ zero_extendqisi2
 1081 0602 AB4A     		ldr	r2, .L110
 1082 0604 0021     		movs	r1, #0
 1083 0606 D154     		strb	r1, [r2, r3]
 218:main.c        ****                     for(uint8 LCDRx = 0; LCDRx < 20; LCDRx++){
 1084              		.loc 1 218 0 discriminator 3
 1085 0608 97F82E30 		ldrb	r3, [r7, #46]	@ zero_extendqisi2
 1086 060c 0133     		adds	r3, r3, #1
 1087 060e 87F82E30 		strb	r3, [r7, #46]
 1088              	.L53:
 218:main.c        ****                     for(uint8 LCDRx = 0; LCDRx < 20; LCDRx++){
 1089              		.loc 1 218 0 is_stmt 0 discriminator 1
 1090 0612 97F82E30 		ldrb	r3, [r7, #46]	@ zero_extendqisi2
 1091 0616 132B     		cmp	r3, #19
 1092 0618 F1D9     		bls	.L54
 1093              	.L52:
 1094              	.LBE7:
 220:main.c        ****                     }
 221:main.c        ****         		}
 222:main.c        ****         		if(W_autorize == 2){ 
 1095              		.loc 1 222 0 is_stmt 1
 1096 061a 97F83630 		ldrb	r3, [r7, #54]	@ zero_extendqisi2
 1097 061e 022B     		cmp	r3, #2
 1098 0620 40F0B382 		bne	.L102
 223:main.c        ****                     W_autorize = 0x0A;
 1099              		.loc 1 223 0
 1100 0624 0A23     		movs	r3, #10
 1101 0626 87F83630 		strb	r3, [r7, #54]
 224:main.c        ****                     PumpState(side.a.dir);            
 1102              		.loc 1 224 0
 1103 062a A24B     		ldr	r3, .L110+4
 1104 062c 1B78     		ldrb	r3, [r3]	@ zero_extendqisi2
 1105 062e 1846     		mov	r0, r3
 1106 0630 FFF7FEFF 		bl	PumpState
 225:main.c        ****                     TotalRequest(side.a.dir, TotalRequestType, 1); //dir 0, volume, nozzle 1       
 1107              		.loc 1 225 0
 1108 0634 9F4B     		ldr	r3, .L110+4
 1109 0636 1878     		ldrb	r0, [r3]	@ zero_extendqisi2
 1110 0638 A04B     		ldr	r3, .L110+12
 1111 063a 1B78     		ldrb	r3, [r3]	@ zero_extendqisi2
 1112 063c 0122     		movs	r2, #1
 1113 063e 1946     		mov	r1, r3
 1114 0640 FFF7FEFF 		bl	TotalRequest
 226:main.c        ****                     PumpState(side.a.dir);
 1115              		.loc 1 226 0
 1116 0644 9B4B     		ldr	r3, .L110+4
ARM GAS  C:\Users\Diego\AppData\Local\Temp\ccZHiU36.s 			page 25


 1117 0646 1B78     		ldrb	r3, [r3]	@ zero_extendqisi2
 1118 0648 1846     		mov	r0, r3
 1119 064a FFF7FEFF 		bl	PumpState
 1120              	.LBB8:
 227:main.c        ****                     for(uint8 LCDRx = 0; LCDRx < 20; LCDRx++){
 1121              		.loc 1 227 0
 1122 064e 0023     		movs	r3, #0
 1123 0650 87F82D30 		strb	r3, [r7, #45]
 1124 0654 09E0     		b	.L56
 1125              	.L57:
 228:main.c        ****                         touch1[LCDRx] = 0x00;
 1126              		.loc 1 228 0 discriminator 3
 1127 0656 97F82D30 		ldrb	r3, [r7, #45]	@ zero_extendqisi2
 1128 065a 954A     		ldr	r2, .L110
 1129 065c 0021     		movs	r1, #0
 1130 065e D154     		strb	r1, [r2, r3]
 227:main.c        ****                     for(uint8 LCDRx = 0; LCDRx < 20; LCDRx++){
 1131              		.loc 1 227 0 discriminator 3
 1132 0660 97F82D30 		ldrb	r3, [r7, #45]	@ zero_extendqisi2
 1133 0664 0133     		adds	r3, r3, #1
 1134 0666 87F82D30 		strb	r3, [r7, #45]
 1135              	.L56:
 227:main.c        ****                     for(uint8 LCDRx = 0; LCDRx < 20; LCDRx++){
 1136              		.loc 1 227 0 is_stmt 0 discriminator 1
 1137 066a 97F82D30 		ldrb	r3, [r7, #45]	@ zero_extendqisi2
 1138 066e 132B     		cmp	r3, #19
 1139 0670 F1D9     		bls	.L57
 1140              	.LBE8:
 229:main.c        ****                     }
 230:main.c        ****         		}
 231:main.c        ****         	break;
 1141              		.loc 1 231 0 is_stmt 1
 1142 0672 8AE2     		b	.L102
 1143              	.L41:
 232:main.c        ****         	case 0x0B:
 233:main.c        ****         		if(W_autorize == 1){
 1144              		.loc 1 233 0
 1145 0674 97F83630 		ldrb	r3, [r7, #54]	@ zero_extendqisi2
 1146 0678 012B     		cmp	r3, #1
 1147 067a 21D1     		bne	.L58
 234:main.c        ****         			W_autorize = 0;
 1148              		.loc 1 234 0
 1149 067c 0023     		movs	r3, #0
 1150 067e 87F83630 		strb	r3, [r7, #54]
 235:main.c        ****                     PriceUpdate(side.b.dir,side.b.ppuNozzle[0]);
 1151              		.loc 1 235 0
 1152 0682 8C4B     		ldr	r3, .L110+4
 1153 0684 93F82B31 		ldrb	r3, [r3, #299]	@ zero_extendqisi2
 1154 0688 8D49     		ldr	r1, .L110+16
 1155 068a 1846     		mov	r0, r3
 1156 068c FFF7FEFF 		bl	PriceUpdate
 236:main.c        ****                     Authorize(side.b.dir);
 1157              		.loc 1 236 0
 1158 0690 884B     		ldr	r3, .L110+4
 1159 0692 93F82B31 		ldrb	r3, [r3, #299]	@ zero_extendqisi2
 1160 0696 1846     		mov	r0, r3
 1161 0698 FFF7FEFF 		bl	Authorize
ARM GAS  C:\Users\Diego\AppData\Local\Temp\ccZHiU36.s 			page 26


 1162              	.LBB9:
 237:main.c        ****                     for(uint8 LCDRx = 0; LCDRx < 20; LCDRx++){
 1163              		.loc 1 237 0
 1164 069c 0023     		movs	r3, #0
 1165 069e 87F82C30 		strb	r3, [r7, #44]
 1166 06a2 09E0     		b	.L59
 1167              	.L60:
 238:main.c        ****                         touch1[LCDRx] = 0x00;
 1168              		.loc 1 238 0 discriminator 3
 1169 06a4 97F82C30 		ldrb	r3, [r7, #44]	@ zero_extendqisi2
 1170 06a8 814A     		ldr	r2, .L110
 1171 06aa 0021     		movs	r1, #0
 1172 06ac D154     		strb	r1, [r2, r3]
 237:main.c        ****                     for(uint8 LCDRx = 0; LCDRx < 20; LCDRx++){
 1173              		.loc 1 237 0 discriminator 3
 1174 06ae 97F82C30 		ldrb	r3, [r7, #44]	@ zero_extendqisi2
 1175 06b2 0133     		adds	r3, r3, #1
 1176 06b4 87F82C30 		strb	r3, [r7, #44]
 1177              	.L59:
 237:main.c        ****                     for(uint8 LCDRx = 0; LCDRx < 20; LCDRx++){
 1178              		.loc 1 237 0 is_stmt 0 discriminator 1
 1179 06b8 97F82C30 		ldrb	r3, [r7, #44]	@ zero_extendqisi2
 1180 06bc 132B     		cmp	r3, #19
 1181 06be F1D9     		bls	.L60
 1182              	.L58:
 1183              	.LBE9:
 239:main.c        ****                     }
 240:main.c        ****         		}
 241:main.c        ****         		if(W_autorize == 2){
 1184              		.loc 1 241 0 is_stmt 1
 1185 06c0 97F83630 		ldrb	r3, [r7, #54]	@ zero_extendqisi2
 1186 06c4 022B     		cmp	r3, #2
 1187 06c6 40F06282 		bne	.L103
 242:main.c        ****                     W_autorize = 0x0B;
 1188              		.loc 1 242 0
 1189 06ca 0B23     		movs	r3, #11
 1190 06cc 87F83630 		strb	r3, [r7, #54]
 243:main.c        ****                     PumpState(side.b.dir);            
 1191              		.loc 1 243 0
 1192 06d0 784B     		ldr	r3, .L110+4
 1193 06d2 93F82B31 		ldrb	r3, [r3, #299]	@ zero_extendqisi2
 1194 06d6 1846     		mov	r0, r3
 1195 06d8 FFF7FEFF 		bl	PumpState
 244:main.c        ****                     TotalRequest(side.b.dir, TotalRequestType, 1); //dir 0, volume, nozzle 1       
 1196              		.loc 1 244 0
 1197 06dc 754B     		ldr	r3, .L110+4
 1198 06de 93F82B01 		ldrb	r0, [r3, #299]	@ zero_extendqisi2
 1199 06e2 764B     		ldr	r3, .L110+12
 1200 06e4 1B78     		ldrb	r3, [r3]	@ zero_extendqisi2
 1201 06e6 0122     		movs	r2, #1
 1202 06e8 1946     		mov	r1, r3
 1203 06ea FFF7FEFF 		bl	TotalRequest
 245:main.c        ****                     PumpState(side.b.dir); 
 1204              		.loc 1 245 0
 1205 06ee 714B     		ldr	r3, .L110+4
 1206 06f0 93F82B31 		ldrb	r3, [r3, #299]	@ zero_extendqisi2
 1207 06f4 1846     		mov	r0, r3
ARM GAS  C:\Users\Diego\AppData\Local\Temp\ccZHiU36.s 			page 27


 1208 06f6 FFF7FEFF 		bl	PumpState
 1209              	.LBB10:
 246:main.c        ****                     for(uint8 LCDRx = 0; LCDRx < 20; LCDRx++){
 1210              		.loc 1 246 0
 1211 06fa 0023     		movs	r3, #0
 1212 06fc 87F82B30 		strb	r3, [r7, #43]
 1213 0700 09E0     		b	.L62
 1214              	.L63:
 247:main.c        ****                         touch1[LCDRx] = 0x00;
 1215              		.loc 1 247 0 discriminator 3
 1216 0702 97F82B30 		ldrb	r3, [r7, #43]	@ zero_extendqisi2
 1217 0706 6A4A     		ldr	r2, .L110
 1218 0708 0021     		movs	r1, #0
 1219 070a D154     		strb	r1, [r2, r3]
 246:main.c        ****                     for(uint8 LCDRx = 0; LCDRx < 20; LCDRx++){
 1220              		.loc 1 246 0 discriminator 3
 1221 070c 97F82B30 		ldrb	r3, [r7, #43]	@ zero_extendqisi2
 1222 0710 0133     		adds	r3, r3, #1
 1223 0712 87F82B30 		strb	r3, [r7, #43]
 1224              	.L62:
 246:main.c        ****                     for(uint8 LCDRx = 0; LCDRx < 20; LCDRx++){
 1225              		.loc 1 246 0 is_stmt 0 discriminator 1
 1226 0716 97F82B30 		ldrb	r3, [r7, #43]	@ zero_extendqisi2
 1227 071a 132B     		cmp	r3, #19
 1228 071c F1D9     		bls	.L63
 1229              	.LBE10:
 248:main.c        ****                     }                                                               
 249:main.c        ****                 } 
 250:main.c        ****         	break;
 1230              		.loc 1 250 0 is_stmt 1
 1231 071e 36E2     		b	.L103
 1232              	.L43:
 251:main.c        ****         	case 0xCC:
 252:main.c        ****         		PumpState(side.b.dir);            
 1233              		.loc 1 252 0
 1234 0720 644B     		ldr	r3, .L110+4
 1235 0722 93F82B31 		ldrb	r3, [r3, #299]	@ zero_extendqisi2
 1236 0726 1846     		mov	r0, r3
 1237 0728 FFF7FEFF 		bl	PumpState
 253:main.c        ****         		TotalRequest(side.b.dir, TotalRequestType, 1); //dir 0, volume, nozzle 1      
 1238              		.loc 1 253 0
 1239 072c 614B     		ldr	r3, .L110+4
 1240 072e 93F82B01 		ldrb	r0, [r3, #299]	@ zero_extendqisi2
 1241 0732 624B     		ldr	r3, .L110+12
 1242 0734 1B78     		ldrb	r3, [r3]	@ zero_extendqisi2
 1243 0736 0122     		movs	r2, #1
 1244 0738 1946     		mov	r1, r3
 1245 073a FFF7FEFF 		bl	TotalRequest
 254:main.c        ****                 CyDelay(10);
 1246              		.loc 1 254 0
 1247 073e 0A20     		movs	r0, #10
 1248 0740 FFF7FEFF 		bl	CyDelay
 255:main.c        ****         		PumpState(side.b.dir); 
 1249              		.loc 1 255 0
 1250 0744 5B4B     		ldr	r3, .L110+4
 1251 0746 93F82B31 		ldrb	r3, [r3, #299]	@ zero_extendqisi2
 1252 074a 1846     		mov	r0, r3
ARM GAS  C:\Users\Diego\AppData\Local\Temp\ccZHiU36.s 			page 28


 1253 074c FFF7FEFF 		bl	PumpState
 256:main.c        ****         		PumpState(side.a.dir);            
 1254              		.loc 1 256 0
 1255 0750 584B     		ldr	r3, .L110+4
 1256 0752 1B78     		ldrb	r3, [r3]	@ zero_extendqisi2
 1257 0754 1846     		mov	r0, r3
 1258 0756 FFF7FEFF 		bl	PumpState
 257:main.c        ****         		TotalRequest(side.a.dir, TotalRequestType, 1); //dir 0, volume, nozzle 1   
 1259              		.loc 1 257 0
 1260 075a 564B     		ldr	r3, .L110+4
 1261 075c 1878     		ldrb	r0, [r3]	@ zero_extendqisi2
 1262 075e 574B     		ldr	r3, .L110+12
 1263 0760 1B78     		ldrb	r3, [r3]	@ zero_extendqisi2
 1264 0762 0122     		movs	r2, #1
 1265 0764 1946     		mov	r1, r3
 1266 0766 FFF7FEFF 		bl	TotalRequest
 258:main.c        ****                 CyDelay(10);
 1267              		.loc 1 258 0
 1268 076a 0A20     		movs	r0, #10
 1269 076c FFF7FEFF 		bl	CyDelay
 259:main.c        ****         		PumpState(side.a.dir);
 1270              		.loc 1 259 0
 1271 0770 504B     		ldr	r3, .L110+4
 1272 0772 1B78     		ldrb	r3, [r3]	@ zero_extendqisi2
 1273 0774 1846     		mov	r0, r3
 1274 0776 FFF7FEFF 		bl	PumpState
 260:main.c        ****                 PumpState(side.b.dir);
 1275              		.loc 1 260 0
 1276 077a 4E4B     		ldr	r3, .L110+4
 1277 077c 93F82B31 		ldrb	r3, [r3, #299]	@ zero_extendqisi2
 1278 0780 1846     		mov	r0, r3
 1279 0782 FFF7FEFF 		bl	PumpState
 261:main.c        ****                 PumpState(side.a.dir);
 1280              		.loc 1 261 0
 1281 0786 4B4B     		ldr	r3, .L110+4
 1282 0788 1B78     		ldrb	r3, [r3]	@ zero_extendqisi2
 1283 078a 1846     		mov	r0, r3
 1284 078c FFF7FEFF 		bl	PumpState
 1285              	.LBB11:
 262:main.c        ****         		for(uint8 LCDRx = 0; LCDRx < 20; LCDRx++){
 1286              		.loc 1 262 0
 1287 0790 0023     		movs	r3, #0
 1288 0792 87F82A30 		strb	r3, [r7, #42]
 1289 0796 09E0     		b	.L64
 1290              	.L65:
 263:main.c        ****         			touch1[LCDRx] = 0x00;
 1291              		.loc 1 263 0 discriminator 3
 1292 0798 97F82A30 		ldrb	r3, [r7, #42]	@ zero_extendqisi2
 1293 079c 444A     		ldr	r2, .L110
 1294 079e 0021     		movs	r1, #0
 1295 07a0 D154     		strb	r1, [r2, r3]
 262:main.c        ****         		for(uint8 LCDRx = 0; LCDRx < 20; LCDRx++){
 1296              		.loc 1 262 0 discriminator 3
 1297 07a2 97F82A30 		ldrb	r3, [r7, #42]	@ zero_extendqisi2
 1298 07a6 0133     		adds	r3, r3, #1
 1299 07a8 87F82A30 		strb	r3, [r7, #42]
 1300              	.L64:
ARM GAS  C:\Users\Diego\AppData\Local\Temp\ccZHiU36.s 			page 29


 262:main.c        ****         		for(uint8 LCDRx = 0; LCDRx < 20; LCDRx++){
 1301              		.loc 1 262 0 is_stmt 0 discriminator 1
 1302 07ac 97F82A30 		ldrb	r3, [r7, #42]	@ zero_extendqisi2
 1303 07b0 132B     		cmp	r3, #19
 1304 07b2 F1D9     		bls	.L65
 1305              	.LBE11:
 264:main.c        ****         		}                        
 265:main.c        ****         		PrintShift(); 
 1306              		.loc 1 265 0 is_stmt 1
 1307 07b4 FFF7FEFF 		bl	PrintShift
 266:main.c        ****         	break;
 1308              		.loc 1 266 0
 1309 07b8 ECE1     		b	.L47
 1310              	.L37:
 267:main.c        ****         	default:
 268:main.c        ****                 if(touch1[3] == 0x83 && price_change == 0x0A && touch1[8] != 0xE1){
 1311              		.loc 1 268 0
 1312 07ba 3D4B     		ldr	r3, .L110
 1313 07bc DB78     		ldrb	r3, [r3, #3]	@ zero_extendqisi2
 1314 07be 832B     		cmp	r3, #131
 1315 07c0 40F0E780 		bne	.L66
 1316              		.loc 1 268 0 is_stmt 0 discriminator 1
 1317 07c4 97F83430 		ldrb	r3, [r7, #52]	@ zero_extendqisi2
 1318 07c8 0A2B     		cmp	r3, #10
 1319 07ca 40F0E280 		bne	.L66
 1320              		.loc 1 268 0 discriminator 2
 1321 07ce 384B     		ldr	r3, .L110
 1322 07d0 1B7A     		ldrb	r3, [r3, #8]	@ zero_extendqisi2
 1323 07d2 E12B     		cmp	r3, #225
 1324 07d4 00F0DD80 		beq	.L66
 1325              	.LBB12:
 269:main.c        ****                     for(uint8 LCDRx = 0; LCDRx < 6; LCDRx++){                        
 1326              		.loc 1 269 0 is_stmt 1
 1327 07d8 0023     		movs	r3, #0
 1328 07da 87F82930 		strb	r3, [r7, #41]
 1329 07de 0BE0     		b	.L67
 1330              	.L68:
 270:main.c        ****                         side.a.ProcessedPPU[0][LCDRx] = 0x30;
 1331              		.loc 1 270 0 discriminator 3
 1332 07e0 97F82930 		ldrb	r3, [r7, #41]	@ zero_extendqisi2
 1333 07e4 334A     		ldr	r2, .L110+4
 1334 07e6 1344     		add	r3, r3, r2
 1335 07e8 3022     		movs	r2, #48
 1336 07ea 83F80B21 		strb	r2, [r3, #267]
 269:main.c        ****                     for(uint8 LCDRx = 0; LCDRx < 6; LCDRx++){                        
 1337              		.loc 1 269 0 discriminator 3
 1338 07ee 97F82930 		ldrb	r3, [r7, #41]	@ zero_extendqisi2
 1339 07f2 0133     		adds	r3, r3, #1
 1340 07f4 87F82930 		strb	r3, [r7, #41]
 1341              	.L67:
 269:main.c        ****                     for(uint8 LCDRx = 0; LCDRx < 6; LCDRx++){                        
 1342              		.loc 1 269 0 is_stmt 0 discriminator 1
 1343 07f8 97F82930 		ldrb	r3, [r7, #41]	@ zero_extendqisi2
 1344 07fc 052B     		cmp	r3, #5
 1345 07fe EFD9     		bls	.L68
 1346              	.LBE12:
 271:main.c        ****             		}
ARM GAS  C:\Users\Diego\AppData\Local\Temp\ccZHiU36.s 			page 30


 272:main.c        ****                     y = 0;
 1347              		.loc 1 272 0 is_stmt 1
 1348 0800 0023     		movs	r3, #0
 1349 0802 87F83530 		strb	r3, [r7, #53]
 273:main.c        ****                     LCDhose = 0;
 1350              		.loc 1 273 0
 1351 0806 2F4B     		ldr	r3, .L110+20
 1352 0808 0022     		movs	r2, #0
 1353 080a 1A70     		strb	r2, [r3]
 274:main.c        ****                     price_change = 0;
 1354              		.loc 1 274 0
 1355 080c 0023     		movs	r3, #0
 1356 080e 87F83430 		strb	r3, [r7, #52]
 1357              	.LBB13:
 275:main.c        ****                     for(uint8 LCDRx = 7; LCDRx < 12; LCDRx++){
 1358              		.loc 1 275 0
 1359 0812 0723     		movs	r3, #7
 1360 0814 87F82830 		strb	r3, [r7, #40]
 1361 0818 21E0     		b	.L69
 1362              	.L71:
 276:main.c        ****                         if((touch1[LCDRx] == 0x00) ||(touch1[LCDRx] == 0xFF))
 1363              		.loc 1 276 0
 1364 081a 97F82830 		ldrb	r3, [r7, #40]	@ zero_extendqisi2
 1365 081e 244A     		ldr	r2, .L110
 1366 0820 D35C     		ldrb	r3, [r2, r3]	@ zero_extendqisi2
 1367 0822 002B     		cmp	r3, #0
 1368 0824 1FD0     		beq	.L70
 1369              		.loc 1 276 0 is_stmt 0 discriminator 1
 1370 0826 97F82830 		ldrb	r3, [r7, #40]	@ zero_extendqisi2
 1371 082a 214A     		ldr	r2, .L110
 1372 082c D35C     		ldrb	r3, [r2, r3]	@ zero_extendqisi2
 1373 082e FF2B     		cmp	r3, #255
 1374 0830 19D0     		beq	.L70
 277:main.c        ****                             break;
 278:main.c        ****                         auxPrice[LCDRx-7] = touch1[LCDRx];
 1375              		.loc 1 278 0 is_stmt 1 discriminator 2
 1376 0832 97F82830 		ldrb	r3, [r7, #40]	@ zero_extendqisi2
 1377 0836 073B     		subs	r3, r3, #7
 1378 0838 97F82820 		ldrb	r2, [r7, #40]	@ zero_extendqisi2
 1379 083c 1C49     		ldr	r1, .L110
 1380 083e 8A5C     		ldrb	r2, [r1, r2]	@ zero_extendqisi2
 1381 0840 07F13801 		add	r1, r7, #56
 1382 0844 0B44     		add	r3, r3, r1
 1383 0846 03F8342C 		strb	r2, [r3, #-52]
 279:main.c        ****                         y++;
 1384              		.loc 1 279 0 discriminator 2
 1385 084a 97F83530 		ldrb	r3, [r7, #53]	@ zero_extendqisi2
 1386 084e 0133     		adds	r3, r3, #1
 1387 0850 87F83530 		strb	r3, [r7, #53]
 275:main.c        ****                         if((touch1[LCDRx] == 0x00) ||(touch1[LCDRx] == 0xFF))
 1388              		.loc 1 275 0 discriminator 2
 1389 0854 97F82830 		ldrb	r3, [r7, #40]	@ zero_extendqisi2
 1390 0858 0133     		adds	r3, r3, #1
 1391 085a 87F82830 		strb	r3, [r7, #40]
 1392              	.L69:
 275:main.c        ****                         if((touch1[LCDRx] == 0x00) ||(touch1[LCDRx] == 0xFF))
 1393              		.loc 1 275 0 is_stmt 0 discriminator 1
ARM GAS  C:\Users\Diego\AppData\Local\Temp\ccZHiU36.s 			page 31


 1394 085e 97F82830 		ldrb	r3, [r7, #40]	@ zero_extendqisi2
 1395 0862 0B2B     		cmp	r3, #11
 1396 0864 D9D9     		bls	.L71
 1397              	.L70:
 1398              	.LBE13:
 280:main.c        ****             		}
 281:main.c        ****                     for (x = 6; x >0; x--){
 1399              		.loc 1 281 0 is_stmt 1
 1400 0866 0623     		movs	r3, #6
 1401 0868 87F83730 		strb	r3, [r7, #55]
 1402 086c 1BE0     		b	.L72
 1403              	.L75:
 282:main.c        ****                         side.a.ProcessedPPU[0][x] = auxPrice[y];                        
 1404              		.loc 1 282 0
 1405 086e 97F83730 		ldrb	r3, [r7, #55]	@ zero_extendqisi2
 1406 0872 97F83520 		ldrb	r2, [r7, #53]	@ zero_extendqisi2
 1407 0876 07F13801 		add	r1, r7, #56
 1408 087a 0A44     		add	r2, r2, r1
 1409 087c 12F8341C 		ldrb	r1, [r2, #-52]	@ zero_extendqisi2
 1410 0880 0C4A     		ldr	r2, .L110+4
 1411 0882 1344     		add	r3, r3, r2
 1412 0884 0A46     		mov	r2, r1
 1413 0886 83F80B21 		strb	r2, [r3, #267]
 283:main.c        ****                         if(y == 0 )
 1414              		.loc 1 283 0
 1415 088a 97F83530 		ldrb	r3, [r7, #53]	@ zero_extendqisi2
 1416 088e 002B     		cmp	r3, #0
 1417 0890 1AD0     		beq	.L104
 284:main.c        ****                             break;
 285:main.c        ****                         y--;
 1418              		.loc 1 285 0 discriminator 2
 1419 0892 97F83530 		ldrb	r3, [r7, #53]	@ zero_extendqisi2
 1420 0896 013B     		subs	r3, r3, #1
 1421 0898 87F83530 		strb	r3, [r7, #53]
 281:main.c        ****                         side.a.ProcessedPPU[0][x] = auxPrice[y];                        
 1422              		.loc 1 281 0 discriminator 2
 1423 089c 97F83730 		ldrb	r3, [r7, #55]	@ zero_extendqisi2
 1424 08a0 013B     		subs	r3, r3, #1
 1425 08a2 87F83730 		strb	r3, [r7, #55]
 1426              	.L72:
 281:main.c        ****                         side.a.ProcessedPPU[0][x] = auxPrice[y];                        
 1427              		.loc 1 281 0 is_stmt 0 discriminator 1
 1428 08a6 97F83730 		ldrb	r3, [r7, #55]	@ zero_extendqisi2
 1429 08aa 002B     		cmp	r3, #0
 1430 08ac DFD1     		bne	.L75
 1431 08ae 0CE0     		b	.L74
 1432              	.L111:
 1433              		.align	2
 1434              	.L110:
 1435 08b0 00000000 		.word	touch1
 1436 08b4 00000000 		.word	side
 1437 08b8 29000000 		.word	side+41
 1438 08bc 00000000 		.word	TotalRequestType
 1439 08c0 54010000 		.word	side+340
 1440 08c4 00000000 		.word	LCDhose
 1441              	.L104:
 284:main.c        ****                             break;
ARM GAS  C:\Users\Diego\AppData\Local\Temp\ccZHiU36.s 			page 32


 1442              		.loc 1 284 0 is_stmt 1
 1443 08c8 00BF     		nop
 1444              	.L74:
 286:main.c        ****                     }
 287:main.c        ****                     
 288:main.c        ****                     side.a.ppuNozzle[0][0] = ((side.a.ProcessedPPU[0][0] - 0x30)<<4) |((side.a.Proc
 1445              		.loc 1 288 0
 1446 08ca B44B     		ldr	r3, .L112
 1447 08cc 93F80B31 		ldrb	r3, [r3, #267]	@ zero_extendqisi2
 1448 08d0 303B     		subs	r3, r3, #48
 1449 08d2 1B01     		lsls	r3, r3, #4
 1450 08d4 5AB2     		sxtb	r2, r3
 1451 08d6 B14B     		ldr	r3, .L112
 1452 08d8 93F80C31 		ldrb	r3, [r3, #268]	@ zero_extendqisi2
 1453 08dc 303B     		subs	r3, r3, #48
 1454 08de DBB2     		uxtb	r3, r3
 1455 08e0 5BB2     		sxtb	r3, r3
 1456 08e2 1343     		orrs	r3, r3, r2
 1457 08e4 5BB2     		sxtb	r3, r3
 1458 08e6 DAB2     		uxtb	r2, r3
 1459 08e8 AC4B     		ldr	r3, .L112
 1460 08ea 83F82920 		strb	r2, [r3, #41]
 289:main.c        ****                     side.a.ppuNozzle[0][1] = ((side.a.ProcessedPPU[0][2] - 0x30)<<4) |((side.a.Proc
 1461              		.loc 1 289 0
 1462 08ee AB4B     		ldr	r3, .L112
 1463 08f0 93F80D31 		ldrb	r3, [r3, #269]	@ zero_extendqisi2
 1464 08f4 303B     		subs	r3, r3, #48
 1465 08f6 1B01     		lsls	r3, r3, #4
 1466 08f8 5AB2     		sxtb	r2, r3
 1467 08fa A84B     		ldr	r3, .L112
 1468 08fc 93F80E31 		ldrb	r3, [r3, #270]	@ zero_extendqisi2
 1469 0900 303B     		subs	r3, r3, #48
 1470 0902 DBB2     		uxtb	r3, r3
 1471 0904 5BB2     		sxtb	r3, r3
 1472 0906 1343     		orrs	r3, r3, r2
 1473 0908 5BB2     		sxtb	r3, r3
 1474 090a DAB2     		uxtb	r2, r3
 1475 090c A34B     		ldr	r3, .L112
 1476 090e 83F82A20 		strb	r2, [r3, #42]
 290:main.c        ****                     side.a.ppuNozzle[0][2] = ((side.a.ProcessedPPU[0][4] - 0x30)<<4) |((side.a.Proc
 1477              		.loc 1 290 0
 1478 0912 A24B     		ldr	r3, .L112
 1479 0914 93F80F31 		ldrb	r3, [r3, #271]	@ zero_extendqisi2
 1480 0918 303B     		subs	r3, r3, #48
 1481 091a 1B01     		lsls	r3, r3, #4
 1482 091c 5AB2     		sxtb	r2, r3
 1483 091e 9F4B     		ldr	r3, .L112
 1484 0920 93F81031 		ldrb	r3, [r3, #272]	@ zero_extendqisi2
 1485 0924 303B     		subs	r3, r3, #48
 1486 0926 DBB2     		uxtb	r3, r3
 1487 0928 5BB2     		sxtb	r3, r3
 1488 092a 1343     		orrs	r3, r3, r2
 1489 092c 5BB2     		sxtb	r3, r3
 1490 092e DAB2     		uxtb	r2, r3
 1491 0930 9A4B     		ldr	r3, .L112
 1492 0932 83F82B20 		strb	r2, [r3, #43]
 291:main.c        ****                     for(x = 0; x < 3; x++){
ARM GAS  C:\Users\Diego\AppData\Local\Temp\ccZHiU36.s 			page 33


 1493              		.loc 1 291 0
 1494 0936 0023     		movs	r3, #0
 1495 0938 87F83730 		strb	r3, [r7, #55]
 1496 093c 13E0     		b	.L76
 1497              	.L77:
 292:main.c        ****                         EEPROM_1_WriteByte(side.a.ppuNozzle[0][x],12+x);
 1498              		.loc 1 292 0 discriminator 3
 1499 093e 97F83730 		ldrb	r3, [r7, #55]	@ zero_extendqisi2
 1500 0942 964A     		ldr	r2, .L112
 1501 0944 1344     		add	r3, r3, r2
 1502 0946 93F82920 		ldrb	r2, [r3, #41]	@ zero_extendqisi2
 1503 094a 97F83730 		ldrb	r3, [r7, #55]	@ zero_extendqisi2
 1504 094e 9BB2     		uxth	r3, r3
 1505 0950 0C33     		adds	r3, r3, #12
 1506 0952 9BB2     		uxth	r3, r3
 1507 0954 1946     		mov	r1, r3
 1508 0956 1046     		mov	r0, r2
 1509 0958 FFF7FEFF 		bl	EEPROM_1_WriteByte
 291:main.c        ****                     for(x = 0; x < 3; x++){
 1510              		.loc 1 291 0 discriminator 3
 1511 095c 97F83730 		ldrb	r3, [r7, #55]	@ zero_extendqisi2
 1512 0960 0133     		adds	r3, r3, #1
 1513 0962 87F83730 		strb	r3, [r7, #55]
 1514              	.L76:
 291:main.c        ****                     for(x = 0; x < 3; x++){
 1515              		.loc 1 291 0 is_stmt 0 discriminator 1
 1516 0966 97F83730 		ldrb	r3, [r7, #55]	@ zero_extendqisi2
 1517 096a 022B     		cmp	r3, #2
 1518 096c E7D9     		bls	.L77
 1519              	.LBB14:
 293:main.c        ****                     }                                                            
 294:main.c        ****                     for(uint8 LCDRx = 0; LCDRx < 20; LCDRx++){
 1520              		.loc 1 294 0 is_stmt 1
 1521 096e 0023     		movs	r3, #0
 1522 0970 87F82730 		strb	r3, [r7, #39]
 1523 0974 09E0     		b	.L78
 1524              	.L79:
 295:main.c        ****             			touch1[LCDRx] = 0x00;
 1525              		.loc 1 295 0 discriminator 3
 1526 0976 97F82730 		ldrb	r3, [r7, #39]	@ zero_extendqisi2
 1527 097a 894A     		ldr	r2, .L112+4
 1528 097c 0021     		movs	r1, #0
 1529 097e D154     		strb	r1, [r2, r3]
 294:main.c        ****             			touch1[LCDRx] = 0x00;
 1530              		.loc 1 294 0 discriminator 3
 1531 0980 97F82730 		ldrb	r3, [r7, #39]	@ zero_extendqisi2
 1532 0984 0133     		adds	r3, r3, #1
 1533 0986 87F82730 		strb	r3, [r7, #39]
 1534              	.L78:
 294:main.c        ****             			touch1[LCDRx] = 0x00;
 1535              		.loc 1 294 0 is_stmt 0 discriminator 1
 1536 098a 97F82730 		ldrb	r3, [r7, #39]	@ zero_extendqisi2
 1537 098e 132B     		cmp	r3, #19
 1538 0990 F1D9     		bls	.L79
 1539              	.L66:
 1540              	.LBE14:
 296:main.c        ****             		}
ARM GAS  C:\Users\Diego\AppData\Local\Temp\ccZHiU36.s 			page 34


 297:main.c        ****                 }
 298:main.c        ****                 if(touch1[3] == 0x83 && price_change == 1 ){
 1541              		.loc 1 298 0 is_stmt 1
 1542 0992 834B     		ldr	r3, .L112+4
 1543 0994 DB78     		ldrb	r3, [r3, #3]	@ zero_extendqisi2
 1544 0996 832B     		cmp	r3, #131
 1545 0998 0AD1     		bne	.L80
 1546              		.loc 1 298 0 is_stmt 0 discriminator 1
 1547 099a 97F83430 		ldrb	r3, [r7, #52]	@ zero_extendqisi2
 1548 099e 012B     		cmp	r3, #1
 1549 09a0 06D1     		bne	.L80
 299:main.c        ****                     LCDhose = touch1[8];
 1550              		.loc 1 299 0 is_stmt 1
 1551 09a2 7F4B     		ldr	r3, .L112+4
 1552 09a4 1A7A     		ldrb	r2, [r3, #8]	@ zero_extendqisi2
 1553 09a6 7F4B     		ldr	r3, .L112+8
 1554 09a8 1A70     		strb	r2, [r3]
 300:main.c        ****                     price_change = 0x0A;
 1555              		.loc 1 300 0
 1556 09aa 0A23     		movs	r3, #10
 1557 09ac 87F83430 		strb	r3, [r7, #52]
 1558              	.L80:
 301:main.c        ****                 }
 302:main.c        ****         		if(touch1[3] == 0x83 && W_autorize == 3){             
 1559              		.loc 1 302 0
 1560 09b0 7B4B     		ldr	r3, .L112+4
 1561 09b2 DB78     		ldrb	r3, [r3, #3]	@ zero_extendqisi2
 1562 09b4 832B     		cmp	r3, #131
 1563 09b6 58D1     		bne	.L81
 1564              		.loc 1 302 0 is_stmt 0 discriminator 1
 1565 09b8 97F83630 		ldrb	r3, [r7, #54]	@ zero_extendqisi2
 1566 09bc 032B     		cmp	r3, #3
 1567 09be 54D1     		bne	.L81
 303:main.c        ****                     W_autorize = 0;
 1568              		.loc 1 303 0 is_stmt 1
 1569 09c0 0023     		movs	r3, #0
 1570 09c2 87F83630 		strb	r3, [r7, #54]
 304:main.c        ****                     if((touch1[7] == passw[0])&&(touch1[8] == passw[1])&&(touch1[9] == passw[2]) &&
 1571              		.loc 1 304 0
 1572 09c6 764B     		ldr	r3, .L112+4
 1573 09c8 DA79     		ldrb	r2, [r3, #7]	@ zero_extendqisi2
 1574 09ca 3B7F     		ldrb	r3, [r7, #28]	@ zero_extendqisi2
 1575 09cc 9A42     		cmp	r2, r3
 1576 09ce 2CD1     		bne	.L82
 1577              		.loc 1 304 0 is_stmt 0 discriminator 1
 1578 09d0 734B     		ldr	r3, .L112+4
 1579 09d2 1A7A     		ldrb	r2, [r3, #8]	@ zero_extendqisi2
 1580 09d4 7B7F     		ldrb	r3, [r7, #29]	@ zero_extendqisi2
 1581 09d6 9A42     		cmp	r2, r3
 1582 09d8 27D1     		bne	.L82
 1583              		.loc 1 304 0 discriminator 2
 1584 09da 714B     		ldr	r3, .L112+4
 1585 09dc 5A7A     		ldrb	r2, [r3, #9]	@ zero_extendqisi2
 1586 09de BB7F     		ldrb	r3, [r7, #30]	@ zero_extendqisi2
 1587 09e0 9A42     		cmp	r2, r3
 1588 09e2 22D1     		bne	.L82
 1589              		.loc 1 304 0 discriminator 3
ARM GAS  C:\Users\Diego\AppData\Local\Temp\ccZHiU36.s 			page 35


 1590 09e4 6E4B     		ldr	r3, .L112+4
 1591 09e6 9A7A     		ldrb	r2, [r3, #10]	@ zero_extendqisi2
 1592 09e8 FB7F     		ldrb	r3, [r7, #31]	@ zero_extendqisi2
 1593 09ea 9A42     		cmp	r2, r3
 1594 09ec 1DD1     		bne	.L82
 1595              		.loc 1 304 0 discriminator 4
 1596 09ee 6C4B     		ldr	r3, .L112+4
 1597 09f0 DB7A     		ldrb	r3, [r3, #11]	@ zero_extendqisi2
 1598 09f2 FF2B     		cmp	r3, #255
 1599 09f4 19D1     		bne	.L82
 1600              	.LBB15:
 305:main.c        ****                         for(uint8 LCDRx = 0; LCDRx < 6; LCDRx++){
 1601              		.loc 1 305 0 is_stmt 1
 1602 09f6 0023     		movs	r3, #0
 1603 09f8 87F82630 		strb	r3, [r7, #38]
 1604 09fc 0EE0     		b	.L83
 1605              	.L84:
 306:main.c        ****                             screen_PutChar(change_pic[LCDRx]);
 1606              		.loc 1 306 0 discriminator 3
 1607 09fe 97F82630 		ldrb	r3, [r7, #38]	@ zero_extendqisi2
 1608 0a02 07F13802 		add	r2, r7, #56
 1609 0a06 1344     		add	r3, r3, r2
 1610 0a08 13F8243C 		ldrb	r3, [r3, #-36]	@ zero_extendqisi2
 1611 0a0c 1846     		mov	r0, r3
 1612 0a0e FFF7FEFF 		bl	screen_PutChar
 305:main.c        ****                         for(uint8 LCDRx = 0; LCDRx < 6; LCDRx++){
 1613              		.loc 1 305 0 discriminator 3
 1614 0a12 97F82630 		ldrb	r3, [r7, #38]	@ zero_extendqisi2
 1615 0a16 0133     		adds	r3, r3, #1
 1616 0a18 87F82630 		strb	r3, [r7, #38]
 1617              	.L83:
 305:main.c        ****                         for(uint8 LCDRx = 0; LCDRx < 6; LCDRx++){
 1618              		.loc 1 305 0 is_stmt 0 discriminator 1
 1619 0a1c 97F82630 		ldrb	r3, [r7, #38]	@ zero_extendqisi2
 1620 0a20 052B     		cmp	r3, #5
 1621 0a22 ECD9     		bls	.L84
 1622              	.LBE15:
 307:main.c        ****                         }
 308:main.c        ****                         CyDelay(4);
 1623              		.loc 1 308 0 is_stmt 1
 1624 0a24 0420     		movs	r0, #4
 1625 0a26 FFF7FEFF 		bl	CyDelay
 1626              	.L82:
 309:main.c        ****                     }
 310:main.c        ****                     if(touch1[8] == 0x01)
 1627              		.loc 1 310 0
 1628 0a2a 5D4B     		ldr	r3, .L112+4
 1629 0a2c 1B7A     		ldrb	r3, [r3, #8]	@ zero_extendqisi2
 1630 0a2e 012B     		cmp	r3, #1
 1631 0a30 02D1     		bne	.L85
 311:main.c        ****                         price_change = 1;
 1632              		.loc 1 311 0
 1633 0a32 0123     		movs	r3, #1
 1634 0a34 87F83430 		strb	r3, [r7, #52]
 1635              	.L85:
 312:main.c        ****                     if(touch1[8] == 0x02)
 1636              		.loc 1 312 0
ARM GAS  C:\Users\Diego\AppData\Local\Temp\ccZHiU36.s 			page 36


 1637 0a38 594B     		ldr	r3, .L112+4
 1638 0a3a 1B7A     		ldrb	r3, [r3, #8]	@ zero_extendqisi2
 1639 0a3c 022B     		cmp	r3, #2
 1640 0a3e 02D1     		bne	.L86
 313:main.c        ****                         price_change = 2;
 1641              		.loc 1 313 0
 1642 0a40 0223     		movs	r3, #2
 1643 0a42 87F83430 		strb	r3, [r7, #52]
 1644              	.L86:
 1645              	.LBB16:
 314:main.c        ****                     for(uint8 LCDRx = 0; LCDRx < 20; LCDRx++){
 1646              		.loc 1 314 0
 1647 0a46 0023     		movs	r3, #0
 1648 0a48 87F82530 		strb	r3, [r7, #37]
 1649 0a4c 09E0     		b	.L87
 1650              	.L88:
 315:main.c        ****             			touch1[LCDRx] = 0x00;
 1651              		.loc 1 315 0 discriminator 3
 1652 0a4e 97F82530 		ldrb	r3, [r7, #37]	@ zero_extendqisi2
 1653 0a52 534A     		ldr	r2, .L112+4
 1654 0a54 0021     		movs	r1, #0
 1655 0a56 D154     		strb	r1, [r2, r3]
 314:main.c        ****                     for(uint8 LCDRx = 0; LCDRx < 20; LCDRx++){
 1656              		.loc 1 314 0 discriminator 3
 1657 0a58 97F82530 		ldrb	r3, [r7, #37]	@ zero_extendqisi2
 1658 0a5c 0133     		adds	r3, r3, #1
 1659 0a5e 87F82530 		strb	r3, [r7, #37]
 1660              	.L87:
 314:main.c        ****                     for(uint8 LCDRx = 0; LCDRx < 20; LCDRx++){
 1661              		.loc 1 314 0 is_stmt 0 discriminator 1
 1662 0a62 97F82530 		ldrb	r3, [r7, #37]	@ zero_extendqisi2
 1663 0a66 132B     		cmp	r3, #19
 1664 0a68 F1D9     		bls	.L88
 1665              	.L81:
 1666              	.LBE16:
 316:main.c        ****             		}
 317:main.c        ****                 }  
 318:main.c        ****                 if(touch1[3] == 0x83 && W_autorize == 0x0A){             
 1667              		.loc 1 318 0 is_stmt 1
 1668 0a6a 4D4B     		ldr	r3, .L112+4
 1669 0a6c DB78     		ldrb	r3, [r3, #3]	@ zero_extendqisi2
 1670 0a6e 832B     		cmp	r3, #131
 1671 0a70 42D1     		bne	.L89
 1672              		.loc 1 318 0 is_stmt 0 discriminator 1
 1673 0a72 97F83630 		ldrb	r3, [r7, #54]	@ zero_extendqisi2
 1674 0a76 0A2B     		cmp	r3, #10
 1675 0a78 3ED1     		bne	.L89
 319:main.c        ****                     W_autorize = 0;
 1676              		.loc 1 319 0 is_stmt 1
 1677 0a7a 0023     		movs	r3, #0
 1678 0a7c 87F83630 		strb	r3, [r7, #54]
 1679              	.LBB17:
 320:main.c        ****                     for(uint8 LCDRx = 7; LCDRx < 15; LCDRx++){
 1680              		.loc 1 320 0
 1681 0a80 0723     		movs	r3, #7
 1682 0a82 87F82430 		strb	r3, [r7, #36]
 1683 0a86 1CE0     		b	.L90
ARM GAS  C:\Users\Diego\AppData\Local\Temp\ccZHiU36.s 			page 37


 1684              	.L92:
 321:main.c        ****                         if((touch1[LCDRx] == 0x00) ||(touch1[LCDRx] == 0xFF))
 1685              		.loc 1 321 0
 1686 0a88 97F82430 		ldrb	r3, [r7, #36]	@ zero_extendqisi2
 1687 0a8c 444A     		ldr	r2, .L112+4
 1688 0a8e D35C     		ldrb	r3, [r2, r3]	@ zero_extendqisi2
 1689 0a90 002B     		cmp	r3, #0
 1690 0a92 1AD0     		beq	.L91
 1691              		.loc 1 321 0 is_stmt 0 discriminator 1
 1692 0a94 97F82430 		ldrb	r3, [r7, #36]	@ zero_extendqisi2
 1693 0a98 414A     		ldr	r2, .L112+4
 1694 0a9a D35C     		ldrb	r3, [r2, r3]	@ zero_extendqisi2
 1695 0a9c FF2B     		cmp	r3, #255
 1696 0a9e 14D0     		beq	.L91
 322:main.c        ****                             break;
 323:main.c        ****                         side.a.msn_plate[LCDRx-7] = touch1[LCDRx];
 1697              		.loc 1 323 0 is_stmt 1 discriminator 2
 1698 0aa0 97F82430 		ldrb	r3, [r7, #36]	@ zero_extendqisi2
 1699 0aa4 073B     		subs	r3, r3, #7
 1700 0aa6 97F82420 		ldrb	r2, [r7, #36]	@ zero_extendqisi2
 1701 0aaa 3D49     		ldr	r1, .L112+4
 1702 0aac 895C     		ldrb	r1, [r1, r2]	@ zero_extendqisi2
 1703 0aae 3B4A     		ldr	r2, .L112
 1704 0ab0 1344     		add	r3, r3, r2
 1705 0ab2 0A46     		mov	r2, r1
 1706 0ab4 83F82321 		strb	r2, [r3, #291]
 320:main.c        ****                         if((touch1[LCDRx] == 0x00) ||(touch1[LCDRx] == 0xFF))
 1707              		.loc 1 320 0 discriminator 2
 1708 0ab8 97F82430 		ldrb	r3, [r7, #36]	@ zero_extendqisi2
 1709 0abc 0133     		adds	r3, r3, #1
 1710 0abe 87F82430 		strb	r3, [r7, #36]
 1711              	.L90:
 320:main.c        ****                         if((touch1[LCDRx] == 0x00) ||(touch1[LCDRx] == 0xFF))
 1712              		.loc 1 320 0 is_stmt 0 discriminator 1
 1713 0ac2 97F82430 		ldrb	r3, [r7, #36]	@ zero_extendqisi2
 1714 0ac6 0E2B     		cmp	r3, #14
 1715 0ac8 DED9     		bls	.L92
 1716              	.L91:
 1717              	.LBE17:
 1718              	.LBB18:
 324:main.c        ****             		}
 325:main.c        ****                     for(uint8 LCDRx = 0; LCDRx < 20; LCDRx++){
 1719              		.loc 1 325 0 is_stmt 1
 1720 0aca 0023     		movs	r3, #0
 1721 0acc 87F82330 		strb	r3, [r7, #35]
 1722 0ad0 09E0     		b	.L93
 1723              	.L94:
 326:main.c        ****             			touch1[LCDRx] = 0x00;
 1724              		.loc 1 326 0 discriminator 3
 1725 0ad2 97F82330 		ldrb	r3, [r7, #35]	@ zero_extendqisi2
 1726 0ad6 324A     		ldr	r2, .L112+4
 1727 0ad8 0021     		movs	r1, #0
 1728 0ada D154     		strb	r1, [r2, r3]
 325:main.c        ****             			touch1[LCDRx] = 0x00;
 1729              		.loc 1 325 0 discriminator 3
 1730 0adc 97F82330 		ldrb	r3, [r7, #35]	@ zero_extendqisi2
 1731 0ae0 0133     		adds	r3, r3, #1
ARM GAS  C:\Users\Diego\AppData\Local\Temp\ccZHiU36.s 			page 38


 1732 0ae2 87F82330 		strb	r3, [r7, #35]
 1733              	.L93:
 325:main.c        ****             			touch1[LCDRx] = 0x00;
 1734              		.loc 1 325 0 is_stmt 0 discriminator 1
 1735 0ae6 97F82330 		ldrb	r3, [r7, #35]	@ zero_extendqisi2
 1736 0aea 132B     		cmp	r3, #19
 1737 0aec F1D9     		bls	.L94
 1738              	.LBE18:
 327:main.c        ****             		}
 328:main.c        ****                     PrintReceipt(side.a.dir);
 1739              		.loc 1 328 0 is_stmt 1
 1740 0aee 2B4B     		ldr	r3, .L112
 1741 0af0 1B78     		ldrb	r3, [r3]	@ zero_extendqisi2
 1742 0af2 1846     		mov	r0, r3
 1743 0af4 FFF7FEFF 		bl	PrintReceipt
 1744              	.L89:
 329:main.c        ****                 }
 330:main.c        ****                 if(touch1[3] == 0x83 && W_autorize == 0x0B){             
 1745              		.loc 1 330 0
 1746 0af8 294B     		ldr	r3, .L112+4
 1747 0afa DB78     		ldrb	r3, [r3, #3]	@ zero_extendqisi2
 1748 0afc 832B     		cmp	r3, #131
 1749 0afe 48D1     		bne	.L105
 1750              		.loc 1 330 0 is_stmt 0 discriminator 1
 1751 0b00 97F83630 		ldrb	r3, [r7, #54]	@ zero_extendqisi2
 1752 0b04 0B2B     		cmp	r3, #11
 1753 0b06 44D1     		bne	.L105
 331:main.c        ****                     W_autorize = 0;
 1754              		.loc 1 331 0 is_stmt 1
 1755 0b08 0023     		movs	r3, #0
 1756 0b0a 87F83630 		strb	r3, [r7, #54]
 1757              	.LBB19:
 332:main.c        ****                     for(uint8 LCDRx = 7; LCDRx < 15; LCDRx++){
 1758              		.loc 1 332 0
 1759 0b0e 0723     		movs	r3, #7
 1760 0b10 87F82230 		strb	r3, [r7, #34]
 1761 0b14 1CE0     		b	.L96
 1762              	.L98:
 333:main.c        ****                         if((touch1[LCDRx] == 0x00) ||(touch1[LCDRx] == 0xFF))
 1763              		.loc 1 333 0
 1764 0b16 97F82230 		ldrb	r3, [r7, #34]	@ zero_extendqisi2
 1765 0b1a 214A     		ldr	r2, .L112+4
 1766 0b1c D35C     		ldrb	r3, [r2, r3]	@ zero_extendqisi2
 1767 0b1e 002B     		cmp	r3, #0
 1768 0b20 1AD0     		beq	.L97
 1769              		.loc 1 333 0 is_stmt 0 discriminator 1
 1770 0b22 97F82230 		ldrb	r3, [r7, #34]	@ zero_extendqisi2
 1771 0b26 1E4A     		ldr	r2, .L112+4
 1772 0b28 D35C     		ldrb	r3, [r2, r3]	@ zero_extendqisi2
 1773 0b2a FF2B     		cmp	r3, #255
 1774 0b2c 14D0     		beq	.L97
 334:main.c        ****                             break;
 335:main.c        ****                         side.b.msn_plate[LCDRx-7] = touch1[LCDRx];
 1775              		.loc 1 335 0 is_stmt 1 discriminator 2
 1776 0b2e 97F82230 		ldrb	r3, [r7, #34]	@ zero_extendqisi2
 1777 0b32 073B     		subs	r3, r3, #7
 1778 0b34 97F82220 		ldrb	r2, [r7, #34]	@ zero_extendqisi2
ARM GAS  C:\Users\Diego\AppData\Local\Temp\ccZHiU36.s 			page 39


 1779 0b38 1949     		ldr	r1, .L112+4
 1780 0b3a 895C     		ldrb	r1, [r1, r2]	@ zero_extendqisi2
 1781 0b3c 174A     		ldr	r2, .L112
 1782 0b3e 1344     		add	r3, r3, r2
 1783 0b40 0A46     		mov	r2, r1
 1784 0b42 83F84E22 		strb	r2, [r3, #590]
 332:main.c        ****                         if((touch1[LCDRx] == 0x00) ||(touch1[LCDRx] == 0xFF))
 1785              		.loc 1 332 0 discriminator 2
 1786 0b46 97F82230 		ldrb	r3, [r7, #34]	@ zero_extendqisi2
 1787 0b4a 0133     		adds	r3, r3, #1
 1788 0b4c 87F82230 		strb	r3, [r7, #34]
 1789              	.L96:
 332:main.c        ****                         if((touch1[LCDRx] == 0x00) ||(touch1[LCDRx] == 0xFF))
 1790              		.loc 1 332 0 is_stmt 0 discriminator 1
 1791 0b50 97F82230 		ldrb	r3, [r7, #34]	@ zero_extendqisi2
 1792 0b54 0E2B     		cmp	r3, #14
 1793 0b56 DED9     		bls	.L98
 1794              	.L97:
 1795              	.LBE19:
 1796              	.LBB20:
 336:main.c        ****             		}
 337:main.c        ****                     for(uint8 LCDRx = 0; LCDRx < 20; LCDRx++){
 1797              		.loc 1 337 0 is_stmt 1
 1798 0b58 0023     		movs	r3, #0
 1799 0b5a 87F82130 		strb	r3, [r7, #33]
 1800 0b5e 09E0     		b	.L99
 1801              	.L100:
 338:main.c        ****             			touch1[LCDRx] = 0x00;
 1802              		.loc 1 338 0 discriminator 3
 1803 0b60 97F82130 		ldrb	r3, [r7, #33]	@ zero_extendqisi2
 1804 0b64 0E4A     		ldr	r2, .L112+4
 1805 0b66 0021     		movs	r1, #0
 1806 0b68 D154     		strb	r1, [r2, r3]
 337:main.c        ****             			touch1[LCDRx] = 0x00;
 1807              		.loc 1 337 0 discriminator 3
 1808 0b6a 97F82130 		ldrb	r3, [r7, #33]	@ zero_extendqisi2
 1809 0b6e 0133     		adds	r3, r3, #1
 1810 0b70 87F82130 		strb	r3, [r7, #33]
 1811              	.L99:
 337:main.c        ****             			touch1[LCDRx] = 0x00;
 1812              		.loc 1 337 0 is_stmt 0 discriminator 1
 1813 0b74 97F82130 		ldrb	r3, [r7, #33]	@ zero_extendqisi2
 1814 0b78 132B     		cmp	r3, #19
 1815 0b7a F1D9     		bls	.L100
 1816              	.LBE20:
 339:main.c        ****             		}
 340:main.c        ****                     PrintReceipt(side.b.dir);
 1817              		.loc 1 340 0 is_stmt 1
 1818 0b7c 074B     		ldr	r3, .L112
 1819 0b7e 93F82B31 		ldrb	r3, [r3, #299]	@ zero_extendqisi2
 1820 0b82 1846     		mov	r0, r3
 1821 0b84 FFF7FEFF 		bl	PrintReceipt
 341:main.c        ****                 }
 342:main.c        ****                 
 343:main.c        ****         	break;
 1822              		.loc 1 343 0
 1823 0b88 03E0     		b	.L105
ARM GAS  C:\Users\Diego\AppData\Local\Temp\ccZHiU36.s 			page 40


 1824              	.L102:
 231:main.c        ****         	case 0x0B:
 1825              		.loc 1 231 0
 1826 0b8a 00BF     		nop
 1827 0b8c 02E0     		b	.L47
 1828              	.L103:
 250:main.c        ****         	case 0xCC:
 1829              		.loc 1 250 0
 1830 0b8e 00BF     		nop
 1831 0b90 00E0     		b	.L47
 1832              	.L105:
 1833              		.loc 1 343 0
 1834 0b92 00BF     		nop
 1835              	.L47:
 344:main.c        ****         }
 345:main.c        ****         screen_size = 0;
 1836              		.loc 1 345 0
 1837 0b94 0023     		movs	r3, #0
 1838 0b96 87F82030 		strb	r3, [r7, #32]
 346:main.c        ****     }
 1839              		.loc 1 346 0
 1840 0b9a 94E4     		b	.L101
 1841              	.L113:
 1842              		.align	2
 1843              	.L112:
 1844 0b9c 00000000 		.word	side
 1845 0ba0 00000000 		.word	touch1
 1846 0ba4 00000000 		.word	LCDhose
 1847              		.cfi_endproc
 1848              	.LFE64:
 1849              		.size	main, .-main
 1850              		.text
 1851              	.Letext0:
 1852              		.file 2 "c:\\program files (x86)\\cypress\\psoc creator\\4.2\\psoc creator\\import\\gnu\\arm\\5.4.
 1853              		.file 3 "c:\\program files (x86)\\cypress\\psoc creator\\4.2\\psoc creator\\import\\gnu\\arm\\5.4.
 1854              		.file 4 "Generated_Source\\PSoC5/cytypes.h"
 1855              		.file 5 "./GVar.h"
 1856              		.file 6 "Generated_Source\\PSoC5/core_cm3.h"
 1857              		.section	.debug_info,"",%progbits
 1858              	.Ldebug_info0:
 1859 0000 EA060000 		.4byte	0x6ea
 1860 0004 0400     		.2byte	0x4
 1861 0006 00000000 		.4byte	.Ldebug_abbrev0
 1862 000a 04       		.byte	0x4
 1863 000b 01       		.uleb128 0x1
 1864 000c 4A000000 		.4byte	.LASF64
 1865 0010 0C       		.byte	0xc
 1866 0011 E2020000 		.4byte	.LASF65
 1867 0015 0E020000 		.4byte	.LASF66
 1868 0019 00000000 		.4byte	.Ldebug_ranges0+0
 1869 001d 00000000 		.4byte	0
 1870 0021 00000000 		.4byte	.Ldebug_line0
 1871 0025 02       		.uleb128 0x2
 1872 0026 01       		.byte	0x1
 1873 0027 06       		.byte	0x6
 1874 0028 EB010000 		.4byte	.LASF0
 1875 002c 02       		.uleb128 0x2
ARM GAS  C:\Users\Diego\AppData\Local\Temp\ccZHiU36.s 			page 41


 1876 002d 01       		.byte	0x1
 1877 002e 08       		.byte	0x8
 1878 002f C3010000 		.4byte	.LASF1
 1879 0033 02       		.uleb128 0x2
 1880 0034 02       		.byte	0x2
 1881 0035 05       		.byte	0x5
 1882 0036 22000000 		.4byte	.LASF2
 1883 003a 02       		.uleb128 0x2
 1884 003b 02       		.byte	0x2
 1885 003c 07       		.byte	0x7
 1886 003d 69020000 		.4byte	.LASF3
 1887 0041 03       		.uleb128 0x3
 1888 0042 11030000 		.4byte	.LASF9
 1889 0046 02       		.byte	0x2
 1890 0047 3F       		.byte	0x3f
 1891 0048 4C000000 		.4byte	0x4c
 1892 004c 02       		.uleb128 0x2
 1893 004d 04       		.byte	0x4
 1894 004e 05       		.byte	0x5
 1895 004f 4D010000 		.4byte	.LASF4
 1896 0053 02       		.uleb128 0x2
 1897 0054 04       		.byte	0x4
 1898 0055 07       		.byte	0x7
 1899 0056 E9020000 		.4byte	.LASF5
 1900 005a 02       		.uleb128 0x2
 1901 005b 08       		.byte	0x8
 1902 005c 05       		.byte	0x5
 1903 005d 30010000 		.4byte	.LASF6
 1904 0061 02       		.uleb128 0x2
 1905 0062 08       		.byte	0x8
 1906 0063 07       		.byte	0x7
 1907 0064 F7010000 		.4byte	.LASF7
 1908 0068 04       		.uleb128 0x4
 1909 0069 04       		.byte	0x4
 1910 006a 05       		.byte	0x5
 1911 006b 696E7400 		.ascii	"int\000"
 1912 006f 02       		.uleb128 0x2
 1913 0070 04       		.byte	0x4
 1914 0071 07       		.byte	0x7
 1915 0072 42020000 		.4byte	.LASF8
 1916 0076 03       		.uleb128 0x3
 1917 0077 97020000 		.4byte	.LASF10
 1918 007b 03       		.byte	0x3
 1919 007c 2C       		.byte	0x2c
 1920 007d 41000000 		.4byte	0x41
 1921 0081 05       		.uleb128 0x5
 1922 0082 F8000000 		.4byte	.LASF11
 1923 0086 04       		.byte	0x4
 1924 0087 E401     		.2byte	0x1e4
 1925 0089 2C000000 		.4byte	0x2c
 1926 008d 05       		.uleb128 0x5
 1927 008e E7000000 		.4byte	.LASF12
 1928 0092 04       		.byte	0x4
 1929 0093 E501     		.2byte	0x1e5
 1930 0095 3A000000 		.4byte	0x3a
 1931 0099 02       		.uleb128 0x2
 1932 009a 04       		.byte	0x4
ARM GAS  C:\Users\Diego\AppData\Local\Temp\ccZHiU36.s 			page 42


 1933 009b 04       		.byte	0x4
 1934 009c 00000000 		.4byte	.LASF13
 1935 00a0 02       		.uleb128 0x2
 1936 00a1 08       		.byte	0x8
 1937 00a2 04       		.byte	0x4
 1938 00a3 4B030000 		.4byte	.LASF14
 1939 00a7 05       		.uleb128 0x5
 1940 00a8 44000000 		.4byte	.LASF15
 1941 00ac 04       		.byte	0x4
 1942 00ad F501     		.2byte	0x1f5
 1943 00af B3000000 		.4byte	0xb3
 1944 00b3 02       		.uleb128 0x2
 1945 00b4 01       		.byte	0x1
 1946 00b5 08       		.byte	0x8
 1947 00b6 86020000 		.4byte	.LASF16
 1948 00ba 02       		.uleb128 0x2
 1949 00bb 08       		.byte	0x8
 1950 00bc 04       		.byte	0x4
 1951 00bd AB010000 		.4byte	.LASF17
 1952 00c1 02       		.uleb128 0x2
 1953 00c2 04       		.byte	0x4
 1954 00c3 07       		.byte	0x7
 1955 00c4 2C000000 		.4byte	.LASF18
 1956 00c8 06       		.uleb128 0x6
 1957 00c9 0E010000 		.4byte	.LASF32
 1958 00cd 2B01     		.2byte	0x12b
 1959 00cf 05       		.byte	0x5
 1960 00d0 21       		.byte	0x21
 1961 00d1 81010000 		.4byte	0x181
 1962 00d5 07       		.uleb128 0x7
 1963 00d6 64697200 		.ascii	"dir\000"
 1964 00da 05       		.byte	0x5
 1965 00db 22       		.byte	0x22
 1966 00dc 81000000 		.4byte	0x81
 1967 00e0 00       		.byte	0
 1968 00e1 08       		.uleb128 0x8
 1969 00e2 C8020000 		.4byte	.LASF19
 1970 00e6 05       		.byte	0x5
 1971 00e7 23       		.byte	0x23
 1972 00e8 81010000 		.4byte	0x181
 1973 00ec 01       		.byte	0x1
 1974 00ed 08       		.uleb128 0x8
 1975 00ee EE000000 		.4byte	.LASF20
 1976 00f2 05       		.byte	0x5
 1977 00f3 24       		.byte	0x24
 1978 00f4 9D010000 		.4byte	0x19d
 1979 00f8 29       		.byte	0x29
 1980 00f9 08       		.uleb128 0x8
 1981 00fa 7C020000 		.4byte	.LASF21
 1982 00fe 05       		.byte	0x5
 1983 00ff 25       		.byte	0x25
 1984 0100 B3010000 		.4byte	0x1b3
 1985 0104 35       		.byte	0x35
 1986 0105 08       		.uleb128 0x8
 1987 0106 87010000 		.4byte	.LASF22
 1988 010a 05       		.byte	0x5
 1989 010b 26       		.byte	0x26
ARM GAS  C:\Users\Diego\AppData\Local\Temp\ccZHiU36.s 			page 43


 1990 010c B3010000 		.4byte	0x1b3
 1991 0110 39       		.byte	0x39
 1992 0111 08       		.uleb128 0x8
 1993 0112 55020000 		.4byte	.LASF23
 1994 0116 05       		.byte	0x5
 1995 0117 27       		.byte	0x27
 1996 0118 C3010000 		.4byte	0x1c3
 1997 011c 3D       		.byte	0x3d
 1998 011d 08       		.uleb128 0x8
 1999 011e 9F010000 		.4byte	.LASF24
 2000 0122 05       		.byte	0x5
 2001 0123 28       		.byte	0x28
 2002 0124 81000000 		.4byte	0x81
 2003 0128 4B       		.byte	0x4b
 2004 0129 08       		.uleb128 0x8
 2005 012a 3E010000 		.4byte	.LASF25
 2006 012e 05       		.byte	0x5
 2007 012f 29       		.byte	0x29
 2008 0130 D3010000 		.4byte	0x1d3
 2009 0134 4C       		.byte	0x4c
 2010 0135 08       		.uleb128 0x8
 2011 0136 2C030000 		.4byte	.LASF26
 2012 013a 05       		.byte	0x5
 2013 013b 2A       		.byte	0x2a
 2014 013c E3010000 		.4byte	0x1e3
 2015 0140 51       		.byte	0x51
 2016 0141 08       		.uleb128 0x8
 2017 0142 0D000000 		.4byte	.LASF27
 2018 0146 05       		.byte	0x5
 2019 0147 2B       		.byte	0x2b
 2020 0148 F3010000 		.4byte	0x1f3
 2021 014c 83       		.byte	0x83
 2022 014d 08       		.uleb128 0x8
 2023 014e 38030000 		.4byte	.LASF28
 2024 0152 05       		.byte	0x5
 2025 0153 2C       		.byte	0x2c
 2026 0154 0F020000 		.4byte	0x20f
 2027 0158 FB       		.byte	0xfb
 2028 0159 09       		.uleb128 0x9
 2029 015a 56010000 		.4byte	.LASF29
 2030 015e 05       		.byte	0x5
 2031 015f 2D       		.byte	0x2d
 2032 0160 0F020000 		.4byte	0x20f
 2033 0164 0301     		.2byte	0x103
 2034 0166 09       		.uleb128 0x9
 2035 0167 D5020000 		.4byte	.LASF30
 2036 016b 05       		.byte	0x5
 2037 016c 2E       		.byte	0x2e
 2038 016d 1F020000 		.4byte	0x21f
 2039 0171 0B01     		.2byte	0x10b
 2040 0173 09       		.uleb128 0x9
 2041 0174 7C030000 		.4byte	.LASF31
 2042 0178 05       		.byte	0x5
 2043 0179 2F       		.byte	0x2f
 2044 017a 0F020000 		.4byte	0x20f
 2045 017e 2301     		.2byte	0x123
 2046 0180 00       		.byte	0
ARM GAS  C:\Users\Diego\AppData\Local\Temp\ccZHiU36.s 			page 44


 2047 0181 0A       		.uleb128 0xa
 2048 0182 81000000 		.4byte	0x81
 2049 0186 9D010000 		.4byte	0x19d
 2050 018a 0B       		.uleb128 0xb
 2051 018b C1000000 		.4byte	0xc1
 2052 018f 03       		.byte	0x3
 2053 0190 0B       		.uleb128 0xb
 2054 0191 C1000000 		.4byte	0xc1
 2055 0195 01       		.byte	0x1
 2056 0196 0B       		.uleb128 0xb
 2057 0197 C1000000 		.4byte	0xc1
 2058 019b 04       		.byte	0x4
 2059 019c 00       		.byte	0
 2060 019d 0A       		.uleb128 0xa
 2061 019e 81000000 		.4byte	0x81
 2062 01a2 B3010000 		.4byte	0x1b3
 2063 01a6 0B       		.uleb128 0xb
 2064 01a7 C1000000 		.4byte	0xc1
 2065 01ab 03       		.byte	0x3
 2066 01ac 0B       		.uleb128 0xb
 2067 01ad C1000000 		.4byte	0xc1
 2068 01b1 02       		.byte	0x2
 2069 01b2 00       		.byte	0
 2070 01b3 0A       		.uleb128 0xa
 2071 01b4 81000000 		.4byte	0x81
 2072 01b8 C3010000 		.4byte	0x1c3
 2073 01bc 0B       		.uleb128 0xb
 2074 01bd C1000000 		.4byte	0xc1
 2075 01c1 03       		.byte	0x3
 2076 01c2 00       		.byte	0
 2077 01c3 0A       		.uleb128 0xa
 2078 01c4 81000000 		.4byte	0x81
 2079 01c8 D3010000 		.4byte	0x1d3
 2080 01cc 0B       		.uleb128 0xb
 2081 01cd C1000000 		.4byte	0xc1
 2082 01d1 0D       		.byte	0xd
 2083 01d2 00       		.byte	0
 2084 01d3 0A       		.uleb128 0xa
 2085 01d4 81000000 		.4byte	0x81
 2086 01d8 E3010000 		.4byte	0x1e3
 2087 01dc 0B       		.uleb128 0xb
 2088 01dd C1000000 		.4byte	0xc1
 2089 01e1 04       		.byte	0x4
 2090 01e2 00       		.byte	0
 2091 01e3 0A       		.uleb128 0xa
 2092 01e4 81000000 		.4byte	0x81
 2093 01e8 F3010000 		.4byte	0x1f3
 2094 01ec 0B       		.uleb128 0xb
 2095 01ed C1000000 		.4byte	0xc1
 2096 01f1 31       		.byte	0x31
 2097 01f2 00       		.byte	0
 2098 01f3 0A       		.uleb128 0xa
 2099 01f4 A7000000 		.4byte	0xa7
 2100 01f8 0F020000 		.4byte	0x20f
 2101 01fc 0B       		.uleb128 0xb
 2102 01fd C1000000 		.4byte	0xc1
 2103 0201 03       		.byte	0x3
ARM GAS  C:\Users\Diego\AppData\Local\Temp\ccZHiU36.s 			page 45


 2104 0202 0B       		.uleb128 0xb
 2105 0203 C1000000 		.4byte	0xc1
 2106 0207 02       		.byte	0x2
 2107 0208 0B       		.uleb128 0xb
 2108 0209 C1000000 		.4byte	0xc1
 2109 020d 09       		.byte	0x9
 2110 020e 00       		.byte	0
 2111 020f 0A       		.uleb128 0xa
 2112 0210 81000000 		.4byte	0x81
 2113 0214 1F020000 		.4byte	0x21f
 2114 0218 0B       		.uleb128 0xb
 2115 0219 C1000000 		.4byte	0xc1
 2116 021d 07       		.byte	0x7
 2117 021e 00       		.byte	0
 2118 021f 0A       		.uleb128 0xa
 2119 0220 81000000 		.4byte	0x81
 2120 0224 35020000 		.4byte	0x235
 2121 0228 0B       		.uleb128 0xb
 2122 0229 C1000000 		.4byte	0xc1
 2123 022d 03       		.byte	0x3
 2124 022e 0B       		.uleb128 0xb
 2125 022f C1000000 		.4byte	0xc1
 2126 0233 05       		.byte	0x5
 2127 0234 00       		.byte	0
 2128 0235 06       		.uleb128 0x6
 2129 0236 B7020000 		.4byte	.LASF33
 2130 023a AC04     		.2byte	0x4ac
 2131 023c 05       		.byte	0x5
 2132 023d 33       		.byte	0x33
 2133 023e 6E020000 		.4byte	0x26e
 2134 0242 07       		.uleb128 0x7
 2135 0243 6100     		.ascii	"a\000"
 2136 0245 05       		.byte	0x5
 2137 0246 34       		.byte	0x34
 2138 0247 C8000000 		.4byte	0xc8
 2139 024b 00       		.byte	0
 2140 024c 0C       		.uleb128 0xc
 2141 024d 6200     		.ascii	"b\000"
 2142 024f 05       		.byte	0x5
 2143 0250 35       		.byte	0x35
 2144 0251 C8000000 		.4byte	0xc8
 2145 0255 2B01     		.2byte	0x12b
 2146 0257 0C       		.uleb128 0xc
 2147 0258 6300     		.ascii	"c\000"
 2148 025a 05       		.byte	0x5
 2149 025b 36       		.byte	0x36
 2150 025c C8000000 		.4byte	0xc8
 2151 0260 5602     		.2byte	0x256
 2152 0262 0C       		.uleb128 0xc
 2153 0263 6400     		.ascii	"d\000"
 2154 0265 05       		.byte	0x5
 2155 0266 37       		.byte	0x37
 2156 0267 C8000000 		.4byte	0xc8
 2157 026b 8103     		.2byte	0x381
 2158 026d 00       		.byte	0
 2159 026e 0D       		.uleb128 0xd
 2160 026f 7C010000 		.4byte	.LASF34
ARM GAS  C:\Users\Diego\AppData\Local\Temp\ccZHiU36.s 			page 46


 2161 0273 01       		.byte	0x1
 2162 0274 34       		.byte	0x34
 2163 0275 00000000 		.4byte	.LFB63
 2164 0279 B0010000 		.4byte	.LFE63-.LFB63
 2165 027d 01       		.uleb128 0x1
 2166 027e 9C       		.byte	0x9c
 2167 027f 90020000 		.4byte	0x290
 2168 0283 0E       		.uleb128 0xe
 2169 0284 7800     		.ascii	"x\000"
 2170 0286 01       		.byte	0x1
 2171 0287 35       		.byte	0x35
 2172 0288 81000000 		.4byte	0x81
 2173 028c 02       		.uleb128 0x2
 2174 028d 91       		.byte	0x91
 2175 028e 6F       		.sleb128 -17
 2176 028f 00       		.byte	0
 2177 0290 0F       		.uleb128 0xf
 2178 0291 D8000000 		.4byte	.LASF35
 2179 0295 01       		.byte	0x1
 2180 0296 66       		.byte	0x66
 2181 0297 68000000 		.4byte	0x68
 2182 029b 00000000 		.4byte	.LFB64
 2183 029f A80B0000 		.4byte	.LFE64-.LFB64
 2184 02a3 01       		.uleb128 0x1
 2185 02a4 9C       		.byte	0x9c
 2186 02a5 48050000 		.4byte	0x548
 2187 02a9 0E       		.uleb128 0xe
 2188 02aa 7800     		.ascii	"x\000"
 2189 02ac 01       		.byte	0x1
 2190 02ad 69       		.byte	0x69
 2191 02ae 81000000 		.4byte	0x81
 2192 02b2 02       		.uleb128 0x2
 2193 02b3 91       		.byte	0x91
 2194 02b4 6F       		.sleb128 -17
 2195 02b5 10       		.uleb128 0x10
 2196 02b6 5D020000 		.4byte	.LASF36
 2197 02ba 01       		.byte	0x1
 2198 02bb 69       		.byte	0x69
 2199 02bc 81000000 		.4byte	0x81
 2200 02c0 02       		.uleb128 0x2
 2201 02c1 91       		.byte	0x91
 2202 02c2 58       		.sleb128 -40
 2203 02c3 10       		.uleb128 0x10
 2204 02c4 71010000 		.4byte	.LASF37
 2205 02c8 01       		.byte	0x1
 2206 02c9 69       		.byte	0x69
 2207 02ca 81000000 		.4byte	0x81
 2208 02ce 02       		.uleb128 0x2
 2209 02cf 91       		.byte	0x91
 2210 02d0 6E       		.sleb128 -18
 2211 02d1 0E       		.uleb128 0xe
 2212 02d2 7900     		.ascii	"y\000"
 2213 02d4 01       		.byte	0x1
 2214 02d5 69       		.byte	0x69
 2215 02d6 81000000 		.4byte	0x81
 2216 02da 02       		.uleb128 0x2
 2217 02db 91       		.byte	0x91
ARM GAS  C:\Users\Diego\AppData\Local\Temp\ccZHiU36.s 			page 47


 2218 02dc 6D       		.sleb128 -19
 2219 02dd 11       		.uleb128 0x11
 2220 02de 1D000000 		.4byte	.LASF67
 2221 02e2 01       		.byte	0x1
 2222 02e3 69       		.byte	0x69
 2223 02e4 81000000 		.4byte	0x81
 2224 02e8 10       		.uleb128 0x10
 2225 02e9 2A010000 		.4byte	.LASF38
 2226 02ed 01       		.byte	0x1
 2227 02ee 6A       		.byte	0x6a
 2228 02ef B3010000 		.4byte	0x1b3
 2229 02f3 02       		.uleb128 0x2
 2230 02f4 91       		.byte	0x91
 2231 02f5 54       		.sleb128 -44
 2232 02f6 10       		.uleb128 0x10
 2233 02f7 9F020000 		.4byte	.LASF39
 2234 02fb 01       		.byte	0x1
 2235 02fc 6B       		.byte	0x6b
 2236 02fd 48050000 		.4byte	0x548
 2237 0301 02       		.uleb128 0x2
 2238 0302 91       		.byte	0x91
 2239 0303 4C       		.sleb128 -52
 2240 0304 10       		.uleb128 0x10
 2241 0305 8B020000 		.4byte	.LASF40
 2242 0309 01       		.byte	0x1
 2243 030a 6C       		.byte	0x6c
 2244 030b 48050000 		.4byte	0x548
 2245 030f 02       		.uleb128 0x2
 2246 0310 91       		.byte	0x91
 2247 0311 44       		.sleb128 -60
 2248 0312 10       		.uleb128 0x10
 2249 0313 AA020000 		.4byte	.LASF41
 2250 0317 01       		.byte	0x1
 2251 0318 6D       		.byte	0x6d
 2252 0319 81000000 		.4byte	0x81
 2253 031d 02       		.uleb128 0x2
 2254 031e 91       		.byte	0x91
 2255 031f 6C       		.sleb128 -20
 2256 0320 10       		.uleb128 0x10
 2257 0321 6C030000 		.4byte	.LASF42
 2258 0325 01       		.byte	0x1
 2259 0326 6E       		.byte	0x6e
 2260 0327 D3010000 		.4byte	0x1d3
 2261 032b 03       		.uleb128 0x3
 2262 032c 91       		.byte	0x91
 2263 032d BC7F     		.sleb128 -68
 2264 032f 12       		.uleb128 0x12
 2265 0330 50040000 		.4byte	.LBB2
 2266 0334 30000000 		.4byte	.LBE2-.LBB2
 2267 0338 49030000 		.4byte	0x349
 2268 033c 0E       		.uleb128 0xe
 2269 033d 7900     		.ascii	"y\000"
 2270 033f 01       		.byte	0x1
 2271 0340 A9       		.byte	0xa9
 2272 0341 81000000 		.4byte	0x81
 2273 0345 02       		.uleb128 0x2
 2274 0346 91       		.byte	0x91
ARM GAS  C:\Users\Diego\AppData\Local\Temp\ccZHiU36.s 			page 48


 2275 0347 6B       		.sleb128 -21
 2276 0348 00       		.byte	0
 2277 0349 12       		.uleb128 0x12
 2278 034a DC040000 		.4byte	.LBB3
 2279 034e 2E000000 		.4byte	.LBE3-.LBB3
 2280 0352 65030000 		.4byte	0x365
 2281 0356 10       		.uleb128 0x10
 2282 0357 4F020000 		.4byte	.LASF43
 2283 035b 01       		.byte	0x1
 2284 035c BD       		.byte	0xbd
 2285 035d 81000000 		.4byte	0x81
 2286 0361 02       		.uleb128 0x2
 2287 0362 91       		.byte	0x91
 2288 0363 6A       		.sleb128 -22
 2289 0364 00       		.byte	0
 2290 0365 12       		.uleb128 0x12
 2291 0366 3E050000 		.4byte	.LBB4
 2292 036a 24000000 		.4byte	.LBE4-.LBB4
 2293 036e 81030000 		.4byte	0x381
 2294 0372 10       		.uleb128 0x10
 2295 0373 4F020000 		.4byte	.LASF43
 2296 0377 01       		.byte	0x1
 2297 0378 C5       		.byte	0xc5
 2298 0379 81000000 		.4byte	0x81
 2299 037d 02       		.uleb128 0x2
 2300 037e 91       		.byte	0x91
 2301 037f 69       		.sleb128 -23
 2302 0380 00       		.byte	0
 2303 0381 12       		.uleb128 0x12
 2304 0382 6A050000 		.4byte	.LBB5
 2305 0386 3A000000 		.4byte	.LBE5-.LBB5
 2306 038a 9D030000 		.4byte	0x39d
 2307 038e 10       		.uleb128 0x10
 2308 038f 4F020000 		.4byte	.LASF43
 2309 0393 01       		.byte	0x1
 2310 0394 CB       		.byte	0xcb
 2311 0395 81000000 		.4byte	0x81
 2312 0399 02       		.uleb128 0x2
 2313 039a 91       		.byte	0x91
 2314 039b 68       		.sleb128 -24
 2315 039c 00       		.byte	0
 2316 039d 12       		.uleb128 0x12
 2317 039e AC050000 		.4byte	.LBB6
 2318 03a2 24000000 		.4byte	.LBE6-.LBB6
 2319 03a6 B9030000 		.4byte	0x3b9
 2320 03aa 10       		.uleb128 0x10
 2321 03ab 4F020000 		.4byte	.LASF43
 2322 03af 01       		.byte	0x1
 2323 03b0 D1       		.byte	0xd1
 2324 03b1 81000000 		.4byte	0x81
 2325 03b5 02       		.uleb128 0x2
 2326 03b6 91       		.byte	0x91
 2327 03b7 67       		.sleb128 -25
 2328 03b8 00       		.byte	0
 2329 03b9 12       		.uleb128 0x12
 2330 03ba F6050000 		.4byte	.LBB7
 2331 03be 24000000 		.4byte	.LBE7-.LBB7
ARM GAS  C:\Users\Diego\AppData\Local\Temp\ccZHiU36.s 			page 49


 2332 03c2 D5030000 		.4byte	0x3d5
 2333 03c6 10       		.uleb128 0x10
 2334 03c7 4F020000 		.4byte	.LASF43
 2335 03cb 01       		.byte	0x1
 2336 03cc DA       		.byte	0xda
 2337 03cd 81000000 		.4byte	0x81
 2338 03d1 02       		.uleb128 0x2
 2339 03d2 91       		.byte	0x91
 2340 03d3 66       		.sleb128 -26
 2341 03d4 00       		.byte	0
 2342 03d5 12       		.uleb128 0x12
 2343 03d6 4E060000 		.4byte	.LBB8
 2344 03da 24000000 		.4byte	.LBE8-.LBB8
 2345 03de F1030000 		.4byte	0x3f1
 2346 03e2 10       		.uleb128 0x10
 2347 03e3 4F020000 		.4byte	.LASF43
 2348 03e7 01       		.byte	0x1
 2349 03e8 E3       		.byte	0xe3
 2350 03e9 81000000 		.4byte	0x81
 2351 03ed 02       		.uleb128 0x2
 2352 03ee 91       		.byte	0x91
 2353 03ef 65       		.sleb128 -27
 2354 03f0 00       		.byte	0
 2355 03f1 12       		.uleb128 0x12
 2356 03f2 9C060000 		.4byte	.LBB9
 2357 03f6 24000000 		.4byte	.LBE9-.LBB9
 2358 03fa 0D040000 		.4byte	0x40d
 2359 03fe 10       		.uleb128 0x10
 2360 03ff 4F020000 		.4byte	.LASF43
 2361 0403 01       		.byte	0x1
 2362 0404 ED       		.byte	0xed
 2363 0405 81000000 		.4byte	0x81
 2364 0409 02       		.uleb128 0x2
 2365 040a 91       		.byte	0x91
 2366 040b 64       		.sleb128 -28
 2367 040c 00       		.byte	0
 2368 040d 12       		.uleb128 0x12
 2369 040e FA060000 		.4byte	.LBB10
 2370 0412 24000000 		.4byte	.LBE10-.LBB10
 2371 0416 29040000 		.4byte	0x429
 2372 041a 10       		.uleb128 0x10
 2373 041b 4F020000 		.4byte	.LASF43
 2374 041f 01       		.byte	0x1
 2375 0420 F6       		.byte	0xf6
 2376 0421 81000000 		.4byte	0x81
 2377 0425 02       		.uleb128 0x2
 2378 0426 91       		.byte	0x91
 2379 0427 63       		.sleb128 -29
 2380 0428 00       		.byte	0
 2381 0429 12       		.uleb128 0x12
 2382 042a 90070000 		.4byte	.LBB11
 2383 042e 24000000 		.4byte	.LBE11-.LBB11
 2384 0432 46040000 		.4byte	0x446
 2385 0436 13       		.uleb128 0x13
 2386 0437 4F020000 		.4byte	.LASF43
 2387 043b 01       		.byte	0x1
 2388 043c 0601     		.2byte	0x106
ARM GAS  C:\Users\Diego\AppData\Local\Temp\ccZHiU36.s 			page 50


 2389 043e 81000000 		.4byte	0x81
 2390 0442 02       		.uleb128 0x2
 2391 0443 91       		.byte	0x91
 2392 0444 62       		.sleb128 -30
 2393 0445 00       		.byte	0
 2394 0446 12       		.uleb128 0x12
 2395 0447 D8070000 		.4byte	.LBB12
 2396 044b 28000000 		.4byte	.LBE12-.LBB12
 2397 044f 63040000 		.4byte	0x463
 2398 0453 13       		.uleb128 0x13
 2399 0454 4F020000 		.4byte	.LASF43
 2400 0458 01       		.byte	0x1
 2401 0459 0D01     		.2byte	0x10d
 2402 045b 81000000 		.4byte	0x81
 2403 045f 02       		.uleb128 0x2
 2404 0460 91       		.byte	0x91
 2405 0461 61       		.sleb128 -31
 2406 0462 00       		.byte	0
 2407 0463 12       		.uleb128 0x12
 2408 0464 12080000 		.4byte	.LBB13
 2409 0468 54000000 		.4byte	.LBE13-.LBB13
 2410 046c 80040000 		.4byte	0x480
 2411 0470 13       		.uleb128 0x13
 2412 0471 4F020000 		.4byte	.LASF43
 2413 0475 01       		.byte	0x1
 2414 0476 1301     		.2byte	0x113
 2415 0478 81000000 		.4byte	0x81
 2416 047c 02       		.uleb128 0x2
 2417 047d 91       		.byte	0x91
 2418 047e 60       		.sleb128 -32
 2419 047f 00       		.byte	0
 2420 0480 12       		.uleb128 0x12
 2421 0481 6E090000 		.4byte	.LBB14
 2422 0485 24000000 		.4byte	.LBE14-.LBB14
 2423 0489 9D040000 		.4byte	0x49d
 2424 048d 13       		.uleb128 0x13
 2425 048e 4F020000 		.4byte	.LASF43
 2426 0492 01       		.byte	0x1
 2427 0493 2601     		.2byte	0x126
 2428 0495 81000000 		.4byte	0x81
 2429 0499 02       		.uleb128 0x2
 2430 049a 91       		.byte	0x91
 2431 049b 5F       		.sleb128 -33
 2432 049c 00       		.byte	0
 2433 049d 12       		.uleb128 0x12
 2434 049e F6090000 		.4byte	.LBB15
 2435 04a2 2E000000 		.4byte	.LBE15-.LBB15
 2436 04a6 BA040000 		.4byte	0x4ba
 2437 04aa 13       		.uleb128 0x13
 2438 04ab 4F020000 		.4byte	.LASF43
 2439 04af 01       		.byte	0x1
 2440 04b0 3101     		.2byte	0x131
 2441 04b2 81000000 		.4byte	0x81
 2442 04b6 02       		.uleb128 0x2
 2443 04b7 91       		.byte	0x91
 2444 04b8 5E       		.sleb128 -34
 2445 04b9 00       		.byte	0
ARM GAS  C:\Users\Diego\AppData\Local\Temp\ccZHiU36.s 			page 51


 2446 04ba 12       		.uleb128 0x12
 2447 04bb 460A0000 		.4byte	.LBB16
 2448 04bf 24000000 		.4byte	.LBE16-.LBB16
 2449 04c3 D7040000 		.4byte	0x4d7
 2450 04c7 13       		.uleb128 0x13
 2451 04c8 4F020000 		.4byte	.LASF43
 2452 04cc 01       		.byte	0x1
 2453 04cd 3A01     		.2byte	0x13a
 2454 04cf 81000000 		.4byte	0x81
 2455 04d3 02       		.uleb128 0x2
 2456 04d4 91       		.byte	0x91
 2457 04d5 5D       		.sleb128 -35
 2458 04d6 00       		.byte	0
 2459 04d7 12       		.uleb128 0x12
 2460 04d8 800A0000 		.4byte	.LBB17
 2461 04dc 4A000000 		.4byte	.LBE17-.LBB17
 2462 04e0 F4040000 		.4byte	0x4f4
 2463 04e4 13       		.uleb128 0x13
 2464 04e5 4F020000 		.4byte	.LASF43
 2465 04e9 01       		.byte	0x1
 2466 04ea 4001     		.2byte	0x140
 2467 04ec 81000000 		.4byte	0x81
 2468 04f0 02       		.uleb128 0x2
 2469 04f1 91       		.byte	0x91
 2470 04f2 5C       		.sleb128 -36
 2471 04f3 00       		.byte	0
 2472 04f4 12       		.uleb128 0x12
 2473 04f5 CA0A0000 		.4byte	.LBB18
 2474 04f9 24000000 		.4byte	.LBE18-.LBB18
 2475 04fd 11050000 		.4byte	0x511
 2476 0501 13       		.uleb128 0x13
 2477 0502 4F020000 		.4byte	.LASF43
 2478 0506 01       		.byte	0x1
 2479 0507 4501     		.2byte	0x145
 2480 0509 81000000 		.4byte	0x81
 2481 050d 02       		.uleb128 0x2
 2482 050e 91       		.byte	0x91
 2483 050f 5B       		.sleb128 -37
 2484 0510 00       		.byte	0
 2485 0511 12       		.uleb128 0x12
 2486 0512 0E0B0000 		.4byte	.LBB19
 2487 0516 4A000000 		.4byte	.LBE19-.LBB19
 2488 051a 2E050000 		.4byte	0x52e
 2489 051e 13       		.uleb128 0x13
 2490 051f 4F020000 		.4byte	.LASF43
 2491 0523 01       		.byte	0x1
 2492 0524 4C01     		.2byte	0x14c
 2493 0526 81000000 		.4byte	0x81
 2494 052a 02       		.uleb128 0x2
 2495 052b 91       		.byte	0x91
 2496 052c 5A       		.sleb128 -38
 2497 052d 00       		.byte	0
 2498 052e 14       		.uleb128 0x14
 2499 052f 580B0000 		.4byte	.LBB20
 2500 0533 24000000 		.4byte	.LBE20-.LBB20
 2501 0537 13       		.uleb128 0x13
 2502 0538 4F020000 		.4byte	.LASF43
ARM GAS  C:\Users\Diego\AppData\Local\Temp\ccZHiU36.s 			page 52


 2503 053c 01       		.byte	0x1
 2504 053d 5101     		.2byte	0x151
 2505 053f 81000000 		.4byte	0x81
 2506 0543 02       		.uleb128 0x2
 2507 0544 91       		.byte	0x91
 2508 0545 59       		.sleb128 -39
 2509 0546 00       		.byte	0
 2510 0547 00       		.byte	0
 2511 0548 0A       		.uleb128 0xa
 2512 0549 81000000 		.4byte	0x81
 2513 054d 58050000 		.4byte	0x558
 2514 0551 0B       		.uleb128 0xb
 2515 0552 C1000000 		.4byte	0xc1
 2516 0556 06       		.byte	0x6
 2517 0557 00       		.byte	0
 2518 0558 15       		.uleb128 0x15
 2519 0559 5F030000 		.4byte	.LASF44
 2520 055d 06       		.byte	0x6
 2521 055e 1207     		.2byte	0x712
 2522 0560 64050000 		.4byte	0x564
 2523 0564 16       		.uleb128 0x16
 2524 0565 76000000 		.4byte	0x76
 2525 0569 17       		.uleb128 0x17
 2526 056a 17010000 		.4byte	.LASF45
 2527 056e 05       		.byte	0x5
 2528 056f 10       		.byte	0x10
 2529 0570 8D000000 		.4byte	0x8d
 2530 0574 05       		.uleb128 0x5
 2531 0575 03       		.byte	0x3
 2532 0576 00000000 		.4byte	PollCounter
 2533 057a 17       		.uleb128 0x17
 2534 057b D1010000 		.4byte	.LASF46
 2535 057f 05       		.byte	0x5
 2536 0580 11       		.byte	0x11
 2537 0581 81000000 		.4byte	0x81
 2538 0585 05       		.uleb128 0x5
 2539 0586 03       		.byte	0x3
 2540 0587 00000000 		.4byte	CurrentState
 2541 058b 17       		.uleb128 0x17
 2542 058c 52030000 		.4byte	.LASF47
 2543 0590 05       		.byte	0x5
 2544 0591 12       		.byte	0x12
 2545 0592 81000000 		.4byte	0x81
 2546 0596 05       		.uleb128 0x5
 2547 0597 03       		.byte	0x3
 2548 0598 00000000 		.4byte	Receipt
 2549 059c 0A       		.uleb128 0xa
 2550 059d 81000000 		.4byte	0x81
 2551 05a1 AC050000 		.4byte	0x5ac
 2552 05a5 0B       		.uleb128 0xb
 2553 05a6 C1000000 		.4byte	0xc1
 2554 05aa 05       		.byte	0x5
 2555 05ab 00       		.byte	0
 2556 05ac 17       		.uleb128 0x17
 2557 05ad BC020000 		.4byte	.LASF48
 2558 05b1 05       		.byte	0x5
 2559 05b2 13       		.byte	0x13
ARM GAS  C:\Users\Diego\AppData\Local\Temp\ccZHiU36.s 			page 53


 2560 05b3 9C050000 		.4byte	0x59c
 2561 05b7 05       		.uleb128 0x5
 2562 05b8 03       		.byte	0x3
 2563 05b9 00000000 		.4byte	sale_number
 2564 05bd 17       		.uleb128 0x17
 2565 05be 35000000 		.4byte	.LASF49
 2566 05c2 05       		.byte	0x5
 2567 05c3 14       		.byte	0x14
 2568 05c4 81000000 		.4byte	0x81
 2569 05c8 05       		.uleb128 0x5
 2570 05c9 03       		.byte	0x3
 2571 05ca 00000000 		.4byte	int_salenumber
 2572 05ce 17       		.uleb128 0x17
 2573 05cf DE010000 		.4byte	.LASF50
 2574 05d3 05       		.byte	0x5
 2575 05d4 15       		.byte	0x15
 2576 05d5 9C050000 		.4byte	0x59c
 2577 05d9 05       		.uleb128 0x5
 2578 05da 03       		.byte	0x3
 2579 05db 00000000 		.4byte	shift_number
 2580 05df 17       		.uleb128 0x17
 2581 05e0 FE000000 		.4byte	.LASF51
 2582 05e4 05       		.byte	0x5
 2583 05e5 16       		.byte	0x16
 2584 05e6 81000000 		.4byte	0x81
 2585 05ea 05       		.uleb128 0x5
 2586 05eb 03       		.byte	0x3
 2587 05ec 00000000 		.4byte	int_shiftnumber
 2588 05f0 17       		.uleb128 0x17
 2589 05f1 45010000 		.4byte	.LASF52
 2590 05f5 05       		.byte	0x5
 2591 05f6 17       		.byte	0x17
 2592 05f7 81000000 		.4byte	0x81
 2593 05fb 05       		.uleb128 0x5
 2594 05fc 03       		.byte	0x3
 2595 05fd 00000000 		.4byte	LCDhose
 2596 0601 17       		.uleb128 0x17
 2597 0602 5A030000 		.4byte	.LASF53
 2598 0606 05       		.byte	0x5
 2599 0607 3A       		.byte	0x3a
 2600 0608 35020000 		.4byte	0x235
 2601 060c 05       		.uleb128 0x5
 2602 060d 03       		.byte	0x3
 2603 060e 00000000 		.4byte	side
 2604 0612 17       		.uleb128 0x17
 2605 0613 02030000 		.4byte	.LASF54
 2606 0617 05       		.byte	0x5
 2607 0618 43       		.byte	0x43
 2608 0619 E3010000 		.4byte	0x1e3
 2609 061d 05       		.uleb128 0x5
 2610 061e 03       		.byte	0x3
 2611 061f 00000000 		.4byte	MepsanResponse
 2612 0623 17       		.uleb128 0x17
 2613 0624 92010000 		.4byte	.LASF55
 2614 0628 05       		.byte	0x5
 2615 0629 44       		.byte	0x44
 2616 062a E3010000 		.4byte	0x1e3
ARM GAS  C:\Users\Diego\AppData\Local\Temp\ccZHiU36.s 			page 54


 2617 062e 05       		.uleb128 0x5
 2618 062f 03       		.byte	0x3
 2619 0630 00000000 		.4byte	MepsanSendTo
 2620 0634 0A       		.uleb128 0xa
 2621 0635 81000000 		.4byte	0x81
 2622 0639 44060000 		.4byte	0x644
 2623 063d 0B       		.uleb128 0xb
 2624 063e C1000000 		.4byte	0xc1
 2625 0642 0E       		.byte	0xe
 2626 0643 00       		.byte	0
 2627 0644 17       		.uleb128 0x17
 2628 0645 B7010000 		.4byte	.LASF56
 2629 0649 05       		.byte	0x5
 2630 064a 45       		.byte	0x45
 2631 064b 34060000 		.4byte	0x634
 2632 064f 05       		.uleb128 0x5
 2633 0650 03       		.byte	0x3
 2634 0651 00000000 		.4byte	PumpAddress
 2635 0655 18       		.uleb128 0x18
 2636 0656 43524300 		.ascii	"CRC\000"
 2637 065a 05       		.byte	0x5
 2638 065b 46       		.byte	0x46
 2639 065c 8D000000 		.4byte	0x8d
 2640 0660 05       		.uleb128 0x5
 2641 0661 03       		.byte	0x3
 2642 0662 00000000 		.4byte	CRC
 2643 0666 17       		.uleb128 0x17
 2644 0667 06000000 		.4byte	.LASF57
 2645 066b 05       		.byte	0x5
 2646 066c 47       		.byte	0x47
 2647 066d 81000000 		.4byte	0x81
 2648 0671 05       		.uleb128 0x5
 2649 0672 03       		.byte	0x3
 2650 0673 00000000 		.4byte	crc_lo
 2651 0677 17       		.uleb128 0x17
 2652 0678 75030000 		.4byte	.LASF58
 2653 067c 05       		.byte	0x5
 2654 067d 47       		.byte	0x47
 2655 067e 81000000 		.4byte	0x81
 2656 0682 05       		.uleb128 0x5
 2657 0683 03       		.byte	0x3
 2658 0684 00000000 		.4byte	crc_hi
 2659 0688 17       		.uleb128 0x17
 2660 0689 DD000000 		.4byte	.LASF59
 2661 068d 05       		.byte	0x5
 2662 068e 48       		.byte	0x48
 2663 068f 81000000 		.4byte	0x81
 2664 0693 05       		.uleb128 0x5
 2665 0694 03       		.byte	0x3
 2666 0695 00000000 		.4byte	Positions
 2667 0699 17       		.uleb128 0x17
 2668 069a 1B030000 		.4byte	.LASF60
 2669 069e 05       		.byte	0x5
 2670 069f 49       		.byte	0x49
 2671 06a0 81000000 		.4byte	0x81
 2672 06a4 05       		.uleb128 0x5
 2673 06a5 03       		.byte	0x3
ARM GAS  C:\Users\Diego\AppData\Local\Temp\ccZHiU36.s 			page 55


 2674 06a6 00000000 		.4byte	TotalRequestType
 2675 06aa 17       		.uleb128 0x17
 2676 06ab 23010000 		.4byte	.LASF61
 2677 06af 05       		.byte	0x5
 2678 06b0 4A       		.byte	0x4a
 2679 06b1 81000000 		.4byte	0x81
 2680 06b5 05       		.uleb128 0x5
 2681 06b6 03       		.byte	0x3
 2682 06b7 00000000 		.4byte	DecVol
 2683 06bb 0A       		.uleb128 0xa
 2684 06bc 81000000 		.4byte	0x81
 2685 06c0 CB060000 		.4byte	0x6cb
 2686 06c4 0B       		.uleb128 0xb
 2687 06c5 C1000000 		.4byte	0xc1
 2688 06c9 13       		.byte	0x13
 2689 06ca 00       		.byte	0
 2690 06cb 17       		.uleb128 0x17
 2691 06cc FB020000 		.4byte	.LASF62
 2692 06d0 05       		.byte	0x5
 2693 06d1 53       		.byte	0x53
 2694 06d2 BB060000 		.4byte	0x6bb
 2695 06d6 05       		.uleb128 0x5
 2696 06d7 03       		.byte	0x3
 2697 06d8 00000000 		.4byte	touch1
 2698 06dc 17       		.uleb128 0x17
 2699 06dd 6A010000 		.4byte	.LASF63
 2700 06e1 05       		.byte	0x5
 2701 06e2 5C       		.byte	0x5c
 2702 06e3 81000000 		.4byte	0x81
 2703 06e7 05       		.uleb128 0x5
 2704 06e8 03       		.byte	0x3
 2705 06e9 00000000 		.4byte	dirGbr
 2706 06ed 00       		.byte	0
 2707              		.section	.debug_abbrev,"",%progbits
 2708              	.Ldebug_abbrev0:
 2709 0000 01       		.uleb128 0x1
 2710 0001 11       		.uleb128 0x11
 2711 0002 01       		.byte	0x1
 2712 0003 25       		.uleb128 0x25
 2713 0004 0E       		.uleb128 0xe
 2714 0005 13       		.uleb128 0x13
 2715 0006 0B       		.uleb128 0xb
 2716 0007 03       		.uleb128 0x3
 2717 0008 0E       		.uleb128 0xe
 2718 0009 1B       		.uleb128 0x1b
 2719 000a 0E       		.uleb128 0xe
 2720 000b 55       		.uleb128 0x55
 2721 000c 17       		.uleb128 0x17
 2722 000d 11       		.uleb128 0x11
 2723 000e 01       		.uleb128 0x1
 2724 000f 10       		.uleb128 0x10
 2725 0010 17       		.uleb128 0x17
 2726 0011 00       		.byte	0
 2727 0012 00       		.byte	0
 2728 0013 02       		.uleb128 0x2
 2729 0014 24       		.uleb128 0x24
 2730 0015 00       		.byte	0
ARM GAS  C:\Users\Diego\AppData\Local\Temp\ccZHiU36.s 			page 56


 2731 0016 0B       		.uleb128 0xb
 2732 0017 0B       		.uleb128 0xb
 2733 0018 3E       		.uleb128 0x3e
 2734 0019 0B       		.uleb128 0xb
 2735 001a 03       		.uleb128 0x3
 2736 001b 0E       		.uleb128 0xe
 2737 001c 00       		.byte	0
 2738 001d 00       		.byte	0
 2739 001e 03       		.uleb128 0x3
 2740 001f 16       		.uleb128 0x16
 2741 0020 00       		.byte	0
 2742 0021 03       		.uleb128 0x3
 2743 0022 0E       		.uleb128 0xe
 2744 0023 3A       		.uleb128 0x3a
 2745 0024 0B       		.uleb128 0xb
 2746 0025 3B       		.uleb128 0x3b
 2747 0026 0B       		.uleb128 0xb
 2748 0027 49       		.uleb128 0x49
 2749 0028 13       		.uleb128 0x13
 2750 0029 00       		.byte	0
 2751 002a 00       		.byte	0
 2752 002b 04       		.uleb128 0x4
 2753 002c 24       		.uleb128 0x24
 2754 002d 00       		.byte	0
 2755 002e 0B       		.uleb128 0xb
 2756 002f 0B       		.uleb128 0xb
 2757 0030 3E       		.uleb128 0x3e
 2758 0031 0B       		.uleb128 0xb
 2759 0032 03       		.uleb128 0x3
 2760 0033 08       		.uleb128 0x8
 2761 0034 00       		.byte	0
 2762 0035 00       		.byte	0
 2763 0036 05       		.uleb128 0x5
 2764 0037 16       		.uleb128 0x16
 2765 0038 00       		.byte	0
 2766 0039 03       		.uleb128 0x3
 2767 003a 0E       		.uleb128 0xe
 2768 003b 3A       		.uleb128 0x3a
 2769 003c 0B       		.uleb128 0xb
 2770 003d 3B       		.uleb128 0x3b
 2771 003e 05       		.uleb128 0x5
 2772 003f 49       		.uleb128 0x49
 2773 0040 13       		.uleb128 0x13
 2774 0041 00       		.byte	0
 2775 0042 00       		.byte	0
 2776 0043 06       		.uleb128 0x6
 2777 0044 13       		.uleb128 0x13
 2778 0045 01       		.byte	0x1
 2779 0046 03       		.uleb128 0x3
 2780 0047 0E       		.uleb128 0xe
 2781 0048 0B       		.uleb128 0xb
 2782 0049 05       		.uleb128 0x5
 2783 004a 3A       		.uleb128 0x3a
 2784 004b 0B       		.uleb128 0xb
 2785 004c 3B       		.uleb128 0x3b
 2786 004d 0B       		.uleb128 0xb
 2787 004e 01       		.uleb128 0x1
ARM GAS  C:\Users\Diego\AppData\Local\Temp\ccZHiU36.s 			page 57


 2788 004f 13       		.uleb128 0x13
 2789 0050 00       		.byte	0
 2790 0051 00       		.byte	0
 2791 0052 07       		.uleb128 0x7
 2792 0053 0D       		.uleb128 0xd
 2793 0054 00       		.byte	0
 2794 0055 03       		.uleb128 0x3
 2795 0056 08       		.uleb128 0x8
 2796 0057 3A       		.uleb128 0x3a
 2797 0058 0B       		.uleb128 0xb
 2798 0059 3B       		.uleb128 0x3b
 2799 005a 0B       		.uleb128 0xb
 2800 005b 49       		.uleb128 0x49
 2801 005c 13       		.uleb128 0x13
 2802 005d 38       		.uleb128 0x38
 2803 005e 0B       		.uleb128 0xb
 2804 005f 00       		.byte	0
 2805 0060 00       		.byte	0
 2806 0061 08       		.uleb128 0x8
 2807 0062 0D       		.uleb128 0xd
 2808 0063 00       		.byte	0
 2809 0064 03       		.uleb128 0x3
 2810 0065 0E       		.uleb128 0xe
 2811 0066 3A       		.uleb128 0x3a
 2812 0067 0B       		.uleb128 0xb
 2813 0068 3B       		.uleb128 0x3b
 2814 0069 0B       		.uleb128 0xb
 2815 006a 49       		.uleb128 0x49
 2816 006b 13       		.uleb128 0x13
 2817 006c 38       		.uleb128 0x38
 2818 006d 0B       		.uleb128 0xb
 2819 006e 00       		.byte	0
 2820 006f 00       		.byte	0
 2821 0070 09       		.uleb128 0x9
 2822 0071 0D       		.uleb128 0xd
 2823 0072 00       		.byte	0
 2824 0073 03       		.uleb128 0x3
 2825 0074 0E       		.uleb128 0xe
 2826 0075 3A       		.uleb128 0x3a
 2827 0076 0B       		.uleb128 0xb
 2828 0077 3B       		.uleb128 0x3b
 2829 0078 0B       		.uleb128 0xb
 2830 0079 49       		.uleb128 0x49
 2831 007a 13       		.uleb128 0x13
 2832 007b 38       		.uleb128 0x38
 2833 007c 05       		.uleb128 0x5
 2834 007d 00       		.byte	0
 2835 007e 00       		.byte	0
 2836 007f 0A       		.uleb128 0xa
 2837 0080 01       		.uleb128 0x1
 2838 0081 01       		.byte	0x1
 2839 0082 49       		.uleb128 0x49
 2840 0083 13       		.uleb128 0x13
 2841 0084 01       		.uleb128 0x1
 2842 0085 13       		.uleb128 0x13
 2843 0086 00       		.byte	0
 2844 0087 00       		.byte	0
ARM GAS  C:\Users\Diego\AppData\Local\Temp\ccZHiU36.s 			page 58


 2845 0088 0B       		.uleb128 0xb
 2846 0089 21       		.uleb128 0x21
 2847 008a 00       		.byte	0
 2848 008b 49       		.uleb128 0x49
 2849 008c 13       		.uleb128 0x13
 2850 008d 2F       		.uleb128 0x2f
 2851 008e 0B       		.uleb128 0xb
 2852 008f 00       		.byte	0
 2853 0090 00       		.byte	0
 2854 0091 0C       		.uleb128 0xc
 2855 0092 0D       		.uleb128 0xd
 2856 0093 00       		.byte	0
 2857 0094 03       		.uleb128 0x3
 2858 0095 08       		.uleb128 0x8
 2859 0096 3A       		.uleb128 0x3a
 2860 0097 0B       		.uleb128 0xb
 2861 0098 3B       		.uleb128 0x3b
 2862 0099 0B       		.uleb128 0xb
 2863 009a 49       		.uleb128 0x49
 2864 009b 13       		.uleb128 0x13
 2865 009c 38       		.uleb128 0x38
 2866 009d 05       		.uleb128 0x5
 2867 009e 00       		.byte	0
 2868 009f 00       		.byte	0
 2869 00a0 0D       		.uleb128 0xd
 2870 00a1 2E       		.uleb128 0x2e
 2871 00a2 01       		.byte	0x1
 2872 00a3 3F       		.uleb128 0x3f
 2873 00a4 19       		.uleb128 0x19
 2874 00a5 03       		.uleb128 0x3
 2875 00a6 0E       		.uleb128 0xe
 2876 00a7 3A       		.uleb128 0x3a
 2877 00a8 0B       		.uleb128 0xb
 2878 00a9 3B       		.uleb128 0x3b
 2879 00aa 0B       		.uleb128 0xb
 2880 00ab 27       		.uleb128 0x27
 2881 00ac 19       		.uleb128 0x19
 2882 00ad 11       		.uleb128 0x11
 2883 00ae 01       		.uleb128 0x1
 2884 00af 12       		.uleb128 0x12
 2885 00b0 06       		.uleb128 0x6
 2886 00b1 40       		.uleb128 0x40
 2887 00b2 18       		.uleb128 0x18
 2888 00b3 9642     		.uleb128 0x2116
 2889 00b5 19       		.uleb128 0x19
 2890 00b6 01       		.uleb128 0x1
 2891 00b7 13       		.uleb128 0x13
 2892 00b8 00       		.byte	0
 2893 00b9 00       		.byte	0
 2894 00ba 0E       		.uleb128 0xe
 2895 00bb 34       		.uleb128 0x34
 2896 00bc 00       		.byte	0
 2897 00bd 03       		.uleb128 0x3
 2898 00be 08       		.uleb128 0x8
 2899 00bf 3A       		.uleb128 0x3a
 2900 00c0 0B       		.uleb128 0xb
 2901 00c1 3B       		.uleb128 0x3b
ARM GAS  C:\Users\Diego\AppData\Local\Temp\ccZHiU36.s 			page 59


 2902 00c2 0B       		.uleb128 0xb
 2903 00c3 49       		.uleb128 0x49
 2904 00c4 13       		.uleb128 0x13
 2905 00c5 02       		.uleb128 0x2
 2906 00c6 18       		.uleb128 0x18
 2907 00c7 00       		.byte	0
 2908 00c8 00       		.byte	0
 2909 00c9 0F       		.uleb128 0xf
 2910 00ca 2E       		.uleb128 0x2e
 2911 00cb 01       		.byte	0x1
 2912 00cc 3F       		.uleb128 0x3f
 2913 00cd 19       		.uleb128 0x19
 2914 00ce 03       		.uleb128 0x3
 2915 00cf 0E       		.uleb128 0xe
 2916 00d0 3A       		.uleb128 0x3a
 2917 00d1 0B       		.uleb128 0xb
 2918 00d2 3B       		.uleb128 0x3b
 2919 00d3 0B       		.uleb128 0xb
 2920 00d4 49       		.uleb128 0x49
 2921 00d5 13       		.uleb128 0x13
 2922 00d6 11       		.uleb128 0x11
 2923 00d7 01       		.uleb128 0x1
 2924 00d8 12       		.uleb128 0x12
 2925 00d9 06       		.uleb128 0x6
 2926 00da 40       		.uleb128 0x40
 2927 00db 18       		.uleb128 0x18
 2928 00dc 9642     		.uleb128 0x2116
 2929 00de 19       		.uleb128 0x19
 2930 00df 01       		.uleb128 0x1
 2931 00e0 13       		.uleb128 0x13
 2932 00e1 00       		.byte	0
 2933 00e2 00       		.byte	0
 2934 00e3 10       		.uleb128 0x10
 2935 00e4 34       		.uleb128 0x34
 2936 00e5 00       		.byte	0
 2937 00e6 03       		.uleb128 0x3
 2938 00e7 0E       		.uleb128 0xe
 2939 00e8 3A       		.uleb128 0x3a
 2940 00e9 0B       		.uleb128 0xb
 2941 00ea 3B       		.uleb128 0x3b
 2942 00eb 0B       		.uleb128 0xb
 2943 00ec 49       		.uleb128 0x49
 2944 00ed 13       		.uleb128 0x13
 2945 00ee 02       		.uleb128 0x2
 2946 00ef 18       		.uleb128 0x18
 2947 00f0 00       		.byte	0
 2948 00f1 00       		.byte	0
 2949 00f2 11       		.uleb128 0x11
 2950 00f3 34       		.uleb128 0x34
 2951 00f4 00       		.byte	0
 2952 00f5 03       		.uleb128 0x3
 2953 00f6 0E       		.uleb128 0xe
 2954 00f7 3A       		.uleb128 0x3a
 2955 00f8 0B       		.uleb128 0xb
 2956 00f9 3B       		.uleb128 0x3b
 2957 00fa 0B       		.uleb128 0xb
 2958 00fb 49       		.uleb128 0x49
ARM GAS  C:\Users\Diego\AppData\Local\Temp\ccZHiU36.s 			page 60


 2959 00fc 13       		.uleb128 0x13
 2960 00fd 00       		.byte	0
 2961 00fe 00       		.byte	0
 2962 00ff 12       		.uleb128 0x12
 2963 0100 0B       		.uleb128 0xb
 2964 0101 01       		.byte	0x1
 2965 0102 11       		.uleb128 0x11
 2966 0103 01       		.uleb128 0x1
 2967 0104 12       		.uleb128 0x12
 2968 0105 06       		.uleb128 0x6
 2969 0106 01       		.uleb128 0x1
 2970 0107 13       		.uleb128 0x13
 2971 0108 00       		.byte	0
 2972 0109 00       		.byte	0
 2973 010a 13       		.uleb128 0x13
 2974 010b 34       		.uleb128 0x34
 2975 010c 00       		.byte	0
 2976 010d 03       		.uleb128 0x3
 2977 010e 0E       		.uleb128 0xe
 2978 010f 3A       		.uleb128 0x3a
 2979 0110 0B       		.uleb128 0xb
 2980 0111 3B       		.uleb128 0x3b
 2981 0112 05       		.uleb128 0x5
 2982 0113 49       		.uleb128 0x49
 2983 0114 13       		.uleb128 0x13
 2984 0115 02       		.uleb128 0x2
 2985 0116 18       		.uleb128 0x18
 2986 0117 00       		.byte	0
 2987 0118 00       		.byte	0
 2988 0119 14       		.uleb128 0x14
 2989 011a 0B       		.uleb128 0xb
 2990 011b 01       		.byte	0x1
 2991 011c 11       		.uleb128 0x11
 2992 011d 01       		.uleb128 0x1
 2993 011e 12       		.uleb128 0x12
 2994 011f 06       		.uleb128 0x6
 2995 0120 00       		.byte	0
 2996 0121 00       		.byte	0
 2997 0122 15       		.uleb128 0x15
 2998 0123 34       		.uleb128 0x34
 2999 0124 00       		.byte	0
 3000 0125 03       		.uleb128 0x3
 3001 0126 0E       		.uleb128 0xe
 3002 0127 3A       		.uleb128 0x3a
 3003 0128 0B       		.uleb128 0xb
 3004 0129 3B       		.uleb128 0x3b
 3005 012a 05       		.uleb128 0x5
 3006 012b 49       		.uleb128 0x49
 3007 012c 13       		.uleb128 0x13
 3008 012d 3F       		.uleb128 0x3f
 3009 012e 19       		.uleb128 0x19
 3010 012f 3C       		.uleb128 0x3c
 3011 0130 19       		.uleb128 0x19
 3012 0131 00       		.byte	0
 3013 0132 00       		.byte	0
 3014 0133 16       		.uleb128 0x16
 3015 0134 35       		.uleb128 0x35
ARM GAS  C:\Users\Diego\AppData\Local\Temp\ccZHiU36.s 			page 61


 3016 0135 00       		.byte	0
 3017 0136 49       		.uleb128 0x49
 3018 0137 13       		.uleb128 0x13
 3019 0138 00       		.byte	0
 3020 0139 00       		.byte	0
 3021 013a 17       		.uleb128 0x17
 3022 013b 34       		.uleb128 0x34
 3023 013c 00       		.byte	0
 3024 013d 03       		.uleb128 0x3
 3025 013e 0E       		.uleb128 0xe
 3026 013f 3A       		.uleb128 0x3a
 3027 0140 0B       		.uleb128 0xb
 3028 0141 3B       		.uleb128 0x3b
 3029 0142 0B       		.uleb128 0xb
 3030 0143 49       		.uleb128 0x49
 3031 0144 13       		.uleb128 0x13
 3032 0145 3F       		.uleb128 0x3f
 3033 0146 19       		.uleb128 0x19
 3034 0147 02       		.uleb128 0x2
 3035 0148 18       		.uleb128 0x18
 3036 0149 00       		.byte	0
 3037 014a 00       		.byte	0
 3038 014b 18       		.uleb128 0x18
 3039 014c 34       		.uleb128 0x34
 3040 014d 00       		.byte	0
 3041 014e 03       		.uleb128 0x3
 3042 014f 08       		.uleb128 0x8
 3043 0150 3A       		.uleb128 0x3a
 3044 0151 0B       		.uleb128 0xb
 3045 0152 3B       		.uleb128 0x3b
 3046 0153 0B       		.uleb128 0xb
 3047 0154 49       		.uleb128 0x49
 3048 0155 13       		.uleb128 0x13
 3049 0156 3F       		.uleb128 0x3f
 3050 0157 19       		.uleb128 0x19
 3051 0158 02       		.uleb128 0x2
 3052 0159 18       		.uleb128 0x18
 3053 015a 00       		.byte	0
 3054 015b 00       		.byte	0
 3055 015c 00       		.byte	0
 3056              		.section	.debug_aranges,"",%progbits
 3057 0000 24000000 		.4byte	0x24
 3058 0004 0200     		.2byte	0x2
 3059 0006 00000000 		.4byte	.Ldebug_info0
 3060 000a 04       		.byte	0x4
 3061 000b 00       		.byte	0
 3062 000c 0000     		.2byte	0
 3063 000e 0000     		.2byte	0
 3064 0010 00000000 		.4byte	.LFB63
 3065 0014 B0010000 		.4byte	.LFE63-.LFB63
 3066 0018 00000000 		.4byte	.LFB64
 3067 001c A80B0000 		.4byte	.LFE64-.LFB64
 3068 0020 00000000 		.4byte	0
 3069 0024 00000000 		.4byte	0
 3070              		.section	.debug_ranges,"",%progbits
 3071              	.Ldebug_ranges0:
 3072 0000 00000000 		.4byte	.LFB63
ARM GAS  C:\Users\Diego\AppData\Local\Temp\ccZHiU36.s 			page 62


 3073 0004 B0010000 		.4byte	.LFE63
 3074 0008 00000000 		.4byte	.LFB64
 3075 000c A80B0000 		.4byte	.LFE64
 3076 0010 00000000 		.4byte	0
 3077 0014 00000000 		.4byte	0
 3078              		.section	.debug_line,"",%progbits
 3079              	.Ldebug_line0:
 3080 0000 C0040000 		.section	.debug_str,"MS",%progbits,1
 3080      02005801 
 3080      00000201 
 3080      FB0E0D00 
 3080      01010101 
 3081              	.LASF13:
 3082 0000 666C6F61 		.ascii	"float\000"
 3082      7400
 3083              	.LASF57:
 3084 0006 6372635F 		.ascii	"crc_lo\000"
 3084      6C6F00
 3085              	.LASF27:
 3086 000d 50726F63 		.ascii	"ProcessedTotals\000"
 3086      65737365 
 3086      64546F74 
 3086      616C7300 
 3087              	.LASF67:
 3088 001d 74656D70 		.ascii	"temp\000"
 3088      00
 3089              	.LASF2:
 3090 0022 73686F72 		.ascii	"short int\000"
 3090      7420696E 
 3090      7400
 3091              	.LASF18:
 3092 002c 73697A65 		.ascii	"sizetype\000"
 3092      74797065 
 3092      00
 3093              	.LASF49:
 3094 0035 696E745F 		.ascii	"int_salenumber\000"
 3094      73616C65 
 3094      6E756D62 
 3094      657200
 3095              	.LASF15:
 3096 0044 63686172 		.ascii	"char8\000"
 3096      3800
 3097              	.LASF64:
 3098 004a 474E5520 		.ascii	"GNU C11 5.4.1 20160609 (release) [ARM/embedded-5-br"
 3098      43313120 
 3098      352E342E 
 3098      31203230 
 3098      31363036 
 3099 007d 616E6368 		.ascii	"anch revision 237715] -mcpu=cortex-m3 -mthumb -g -O"
 3099      20726576 
 3099      6973696F 
 3099      6E203233 
 3099      37373135 
 3100 00b0 30202D66 		.ascii	"0 -ffunction-sections -ffat-lto-objects\000"
 3100      66756E63 
 3100      74696F6E 
 3100      2D736563 
ARM GAS  C:\Users\Diego\AppData\Local\Temp\ccZHiU36.s 			page 63


 3100      74696F6E 
 3101              	.LASF35:
 3102 00d8 6D61696E 		.ascii	"main\000"
 3102      00
 3103              	.LASF59:
 3104 00dd 506F7369 		.ascii	"Positions\000"
 3104      74696F6E 
 3104      7300
 3105              	.LASF12:
 3106 00e7 75696E74 		.ascii	"uint16\000"
 3106      313600
 3107              	.LASF20:
 3108 00ee 7070754E 		.ascii	"ppuNozzle\000"
 3108      6F7A7A6C 
 3108      6500
 3109              	.LASF11:
 3110 00f8 75696E74 		.ascii	"uint8\000"
 3110      3800
 3111              	.LASF51:
 3112 00fe 696E745F 		.ascii	"int_shiftnumber\000"
 3112      73686966 
 3112      746E756D 
 3112      62657200 
 3113              	.LASF32:
 3114 010e 706F7369 		.ascii	"position\000"
 3114      74696F6E 
 3114      00
 3115              	.LASF45:
 3116 0117 506F6C6C 		.ascii	"PollCounter\000"
 3116      436F756E 
 3116      74657200 
 3117              	.LASF61:
 3118 0123 44656356 		.ascii	"DecVol\000"
 3118      6F6C00
 3119              	.LASF38:
 3120 012a 70617373 		.ascii	"passw\000"
 3120      7700
 3121              	.LASF6:
 3122 0130 6C6F6E67 		.ascii	"long long int\000"
 3122      206C6F6E 
 3122      6720696E 
 3122      7400
 3123              	.LASF25:
 3124 013e 73746174 		.ascii	"states\000"
 3124      657300
 3125              	.LASF52:
 3126 0145 4C434468 		.ascii	"LCDhose\000"
 3126      6F736500 
 3127              	.LASF4:
 3128 014d 6C6F6E67 		.ascii	"long int\000"
 3128      20696E74 
 3128      00
 3129              	.LASF29:
 3130 0156 50726F63 		.ascii	"ProcessedvolumeSale\000"
 3130      65737365 
 3130      64766F6C 
 3130      756D6553 
ARM GAS  C:\Users\Diego\AppData\Local\Temp\ccZHiU36.s 			page 64


 3130      616C6500 
 3131              	.LASF63:
 3132 016a 64697247 		.ascii	"dirGbr\000"
 3132      627200
 3133              	.LASF37:
 3134 0171 575F6175 		.ascii	"W_autorize\000"
 3134      746F7269 
 3134      7A6500
 3135              	.LASF34:
 3136 017c 506F6C6C 		.ascii	"PollingPos\000"
 3136      696E6750 
 3136      6F7300
 3137              	.LASF22:
 3138 0187 766F6C75 		.ascii	"volumeSale\000"
 3138      6D655361 
 3138      6C6500
 3139              	.LASF55:
 3140 0192 4D657073 		.ascii	"MepsanSendTo\000"
 3140      616E5365 
 3140      6E64546F 
 3140      00
 3141              	.LASF24:
 3142 019f 70726F64 		.ascii	"productSale\000"
 3142      75637453 
 3142      616C6500 
 3143              	.LASF17:
 3144 01ab 6C6F6E67 		.ascii	"long double\000"
 3144      20646F75 
 3144      626C6500 
 3145              	.LASF56:
 3146 01b7 50756D70 		.ascii	"PumpAddress\000"
 3146      41646472 
 3146      65737300 
 3147              	.LASF1:
 3148 01c3 756E7369 		.ascii	"unsigned char\000"
 3148      676E6564 
 3148      20636861 
 3148      7200
 3149              	.LASF46:
 3150 01d1 43757272 		.ascii	"CurrentState\000"
 3150      656E7453 
 3150      74617465 
 3150      00
 3151              	.LASF50:
 3152 01de 73686966 		.ascii	"shift_number\000"
 3152      745F6E75 
 3152      6D626572 
 3152      00
 3153              	.LASF0:
 3154 01eb 7369676E 		.ascii	"signed char\000"
 3154      65642063 
 3154      68617200 
 3155              	.LASF7:
 3156 01f7 6C6F6E67 		.ascii	"long long unsigned int\000"
 3156      206C6F6E 
 3156      6720756E 
 3156      7369676E 
ARM GAS  C:\Users\Diego\AppData\Local\Temp\ccZHiU36.s 			page 65


 3156      65642069 
 3157              	.LASF66:
 3158 020e 433A5C55 		.ascii	"C:\\Users\\Diego\\Documents\\GitHub\\Mepsan\\Mepsan"
 3158      73657273 
 3158      5C446965 
 3158      676F5C44 
 3158      6F63756D 
 3159 023b 2E637964 		.ascii	".cydsn\000"
 3159      736E00
 3160              	.LASF8:
 3161 0242 756E7369 		.ascii	"unsigned int\000"
 3161      676E6564 
 3161      20696E74 
 3161      00
 3162              	.LASF43:
 3163 024f 4C434452 		.ascii	"LCDRx\000"
 3163      7800
 3164              	.LASF23:
 3165 0255 70707553 		.ascii	"ppuSale\000"
 3165      616C6500 
 3166              	.LASF36:
 3167 025d 73637265 		.ascii	"screen_size\000"
 3167      656E5F73 
 3167      697A6500 
 3168              	.LASF3:
 3169 0269 73686F72 		.ascii	"short unsigned int\000"
 3169      7420756E 
 3169      7369676E 
 3169      65642069 
 3169      6E7400
 3170              	.LASF21:
 3171 027c 6D6F6E65 		.ascii	"moneySale\000"
 3171      7953616C 
 3171      6500
 3172              	.LASF16:
 3173 0286 63686172 		.ascii	"char\000"
 3173      00
 3174              	.LASF40:
 3175 028b 6368616E 		.ascii	"change_pic2\000"
 3175      67655F70 
 3175      69633200 
 3176              	.LASF10:
 3177 0297 696E7433 		.ascii	"int32_t\000"
 3177      325F7400 
 3178              	.LASF39:
 3179 029f 6368616E 		.ascii	"change_pic\000"
 3179      67655F70 
 3179      696300
 3180              	.LASF41:
 3181 02aa 70726963 		.ascii	"price_change\000"
 3181      655F6368 
 3181      616E6765 
 3181      00
 3182              	.LASF33:
 3183 02b7 70756D70 		.ascii	"pump\000"
 3183      00
 3184              	.LASF48:
ARM GAS  C:\Users\Diego\AppData\Local\Temp\ccZHiU36.s 			page 66


 3185 02bc 73616C65 		.ascii	"sale_number\000"
 3185      5F6E756D 
 3185      62657200 
 3186              	.LASF19:
 3187 02c8 746F7461 		.ascii	"totalsNozzle\000"
 3187      6C734E6F 
 3187      7A7A6C65 
 3187      00
 3188              	.LASF30:
 3189 02d5 50726F63 		.ascii	"ProcessedPPU\000"
 3189      65737365 
 3189      64505055 
 3189      00
 3190              	.LASF65:
 3191 02e2 6D61696E 		.ascii	"main.c\000"
 3191      2E6300
 3192              	.LASF5:
 3193 02e9 6C6F6E67 		.ascii	"long unsigned int\000"
 3193      20756E73 
 3193      69676E65 
 3193      6420696E 
 3193      7400
 3194              	.LASF62:
 3195 02fb 746F7563 		.ascii	"touch1\000"
 3195      683100
 3196              	.LASF54:
 3197 0302 4D657073 		.ascii	"MepsanResponse\000"
 3197      616E5265 
 3197      73706F6E 
 3197      736500
 3198              	.LASF9:
 3199 0311 5F5F696E 		.ascii	"__int32_t\000"
 3199      7433325F 
 3199      7400
 3200              	.LASF60:
 3201 031b 546F7461 		.ascii	"TotalRequestType\000"
 3201      6C526571 
 3201      75657374 
 3201      54797065 
 3201      00
 3202              	.LASF26:
 3203 032c 4D657073 		.ascii	"MepsanStore\000"
 3203      616E5374 
 3203      6F726500 
 3204              	.LASF28:
 3205 0338 50726F63 		.ascii	"ProcessedmoneySale\000"
 3205      65737365 
 3205      646D6F6E 
 3205      65795361 
 3205      6C6500
 3206              	.LASF14:
 3207 034b 646F7562 		.ascii	"double\000"
 3207      6C6500
 3208              	.LASF47:
 3209 0352 52656365 		.ascii	"Receipt\000"
 3209      69707400 
 3210              	.LASF53:
ARM GAS  C:\Users\Diego\AppData\Local\Temp\ccZHiU36.s 			page 67


 3211 035a 73696465 		.ascii	"side\000"
 3211      00
 3212              	.LASF44:
 3213 035f 49544D5F 		.ascii	"ITM_RxBuffer\000"
 3213      52784275 
 3213      66666572 
 3213      00
 3214              	.LASF42:
 3215 036c 61757850 		.ascii	"auxPrice\000"
 3215      72696365 
 3215      00
 3216              	.LASF58:
 3217 0375 6372635F 		.ascii	"crc_hi\000"
 3217      686900
 3218              	.LASF31:
 3219 037c 6D736E5F 		.ascii	"msn_plate\000"
 3219      706C6174 
 3219      6500
 3220              		.ident	"GCC: (GNU Tools for ARM Embedded Processors) 5.4.1 20160609 (release) [ARM/embedded-5-bran
