ARM GAS  C:\Users\THERMA~1\AppData\Local\Temp\ccuykYyx.s 			page 1


   1              		.syntax unified
   2              		.cpu cortex-m3
   3              		.fpu softvfp
   4              		.eabi_attribute 20, 1
   5              		.eabi_attribute 21, 1
   6              		.eabi_attribute 23, 3
   7              		.eabi_attribute 24, 1
   8              		.eabi_attribute 25, 1
   9              		.eabi_attribute 26, 1
  10              		.eabi_attribute 30, 6
  11              		.eabi_attribute 34, 1
  12              		.eabi_attribute 18, 4
  13              		.thumb
  14              		.syntax unified
  15              		.file	"main.c"
  16              		.text
  17              	.Ltext0:
  18              		.cfi_sections	.debug_frame
  19              		.comm	PollCounter,2,2
  20              		.comm	CurrentState,1,1
  21              		.comm	Receipt,1,1
  22              		.comm	sale_number,6,4
  23              		.comm	int_salenumber,1,1
  24              		.comm	shift_number,6,4
  25              		.comm	int_shiftnumber,1,1
  26              		.comm	LCDhose,1,1
  27              		.comm	side,1204,4
  28              		.comm	MepsanResponse,50,4
  29              		.comm	MepsanSendTo,50,4
  30              		.comm	PumpAddress,15,4
  31              		.comm	CRC,2,2
  32              		.comm	crc_lo,1,1
  33              		.comm	crc_hi,1,1
  34              		.comm	Positions,1,1
  35              		.comm	TotalRequestType,1,1
  36              		.comm	DecVol,1,1
  37              		.comm	touch1,20,4
  38              		.comm	dirGbr,1,1
  39              		.section	.text.PollingPos,"ax",%progbits
  40              		.align	2
  41              		.global	PollingPos
  42              		.thumb
  43              		.thumb_func
  44              		.type	PollingPos, %function
  45              	PollingPos:
  46              	.LFB63:
  47              		.file 1 "main.c"
   1:main.c        **** /******************************************************************************
   2:main.c        **** * File Name: main.c
   3:main.c        **** *
   4:main.c        **** * Version: 1.10
   5:main.c        **** *
   6:main.c        **** * Description: This is the source code for the Blinking LED code example.
   7:main.c        **** *
   8:main.c        **** * Related Document: CE195352_PSoC_5LP_Blinking_LED.pdf
   9:main.c        **** *
  10:main.c        **** * Hardware Dependency: See CE195352_PSoC_5LP_Blinking_LED.pdf
ARM GAS  C:\Users\THERMA~1\AppData\Local\Temp\ccuykYyx.s 			page 2


  11:main.c        **** *
  12:main.c        **** *******************************************************************************
  13:main.c        **** * Copyright (2018), Cypress Semiconductor Corporation. All rights reserved.
  14:main.c        **** *******************************************************************************
  15:main.c        **** * This software, including source code, documentation and related materials
  16:main.c        **** * (“Software”), is owned by Cypress Semiconductor Corporation or one of its
  17:main.c        **** * subsidiaries (“Cypress”) and is protected by and subject to worldwide patent
  18:main.c        **** * protection (United States and foreign), United States copyright laws and
  19:main.c        **** * international treaty provisions. Therefore, you may use this Software only
  20:main.c        **** * as provided in the license agreement accompanying the software package from
  21:main.c        **** * which you obtained this Software (“EULA”).
  22:main.c        **** *
  23:main.c        **** * If no EULA applies, Cypress hereby grants you a personal, nonexclusive,
  24:main.c        **** * non-transferable license to copy, modify, and compile the Software source
  25:main.c        **** * code solely for use in connection with Cypress’s integrated circuit products.
  26:main.c        **** * Any reproduction, modification, translation, compilation, or representation
  27:main.c        **** * of this Software except as specified above is prohibited without the express
  28:main.c        **** * written permission of Cypress.
  29:main.c        **** *
  30:main.c        **** * Disclaimer: THIS SOFTWARE IS PROVIDED AS-IS, WITH NO WARRANTY OF ANY KIND, 
  31:main.c        **** * EXPRESS OR IMPLIED, INCLUDING, BUT NOT LIMITED TO, NONINFRINGEMENT, IMPLIED 
  32:main.c        **** * WARRANTIES OF MERCHANTABILITY AND FITNESS FOR A PARTICULAR PURPOSE. Cypress 
  33:main.c        **** * reserves the right to make changes to the Software without notice. Cypress 
  34:main.c        **** * does not assume any liability arising out of the application or use of the 
  35:main.c        **** * Software or any product or circuit described in the Software. Cypress does 
  36:main.c        **** * not authorize its products for use in any products where a malfunction or 
  37:main.c        **** * failure of the Cypress product may reasonably be expected to result in 
  38:main.c        **** * significant property damage, injury or death (“High Risk Product”). By 
  39:main.c        **** * including Cypress’s product in a High Risk Product, the manufacturer of such 
  40:main.c        **** * system or application assumes all risk of such use and in doing so agrees to 
  41:main.c        **** * indemnify Cypress against all liability.
  42:main.c        **** *******************************************************************************/
  43:main.c        **** 
  44:main.c        **** #include <project.h>
  45:main.c        **** #include <GVar.h>
  46:main.c        **** #include <PumpCom.h>
  47:main.c        **** #include <Gbr.h>
  48:main.c        **** #include <printer.h>
  49:main.c        **** 
  50:main.c        **** 
  51:main.c        **** 
  52:main.c        **** void PollingPos(void){
  48              		.loc 1 52 0
  49              		.cfi_startproc
  50              		@ args = 0, pretend = 0, frame = 8
  51              		@ frame_needed = 1, uses_anonymous_args = 0
  52 0000 90B5     		push	{r4, r7, lr}
  53              		.cfi_def_cfa_offset 12
  54              		.cfi_offset 4, -12
  55              		.cfi_offset 7, -8
  56              		.cfi_offset 14, -4
  57 0002 83B0     		sub	sp, sp, #12
  58              		.cfi_def_cfa_offset 24
  59 0004 00AF     		add	r7, sp, #0
  60              		.cfi_def_cfa_register 7
  53:main.c        ****     uint8 x;
  54:main.c        ****     if(side.a.dir != 0xFF && side.b.dir == 0xFF){
ARM GAS  C:\Users\THERMA~1\AppData\Local\Temp\ccuykYyx.s 			page 3


  61              		.loc 1 54 0
  62 0006 724B     		ldr	r3, .L17
  63 0008 1B78     		ldrb	r3, [r3]	@ zero_extendqisi2
  64 000a FF2B     		cmp	r3, #255
  65 000c 07D0     		beq	.L2
  66              		.loc 1 54 0 is_stmt 0 discriminator 1
  67 000e 704B     		ldr	r3, .L17
  68 0010 93F82D31 		ldrb	r3, [r3, #301]	@ zero_extendqisi2
  69 0014 FF2B     		cmp	r3, #255
  70 0016 02D1     		bne	.L2
  55:main.c        ****         Positions = 1;
  71              		.loc 1 55 0 is_stmt 1
  72 0018 6E4B     		ldr	r3, .L17+4
  73 001a 0122     		movs	r2, #1
  74 001c 1A70     		strb	r2, [r3]
  75              	.L2:
  56:main.c        ****     }
  57:main.c        ****     if(side.a.dir != 0xFF && side.b.dir != 0xFF){
  76              		.loc 1 57 0
  77 001e 6C4B     		ldr	r3, .L17
  78 0020 1B78     		ldrb	r3, [r3]	@ zero_extendqisi2
  79 0022 FF2B     		cmp	r3, #255
  80 0024 07D0     		beq	.L3
  81              		.loc 1 57 0 is_stmt 0 discriminator 1
  82 0026 6A4B     		ldr	r3, .L17
  83 0028 93F82D31 		ldrb	r3, [r3, #301]	@ zero_extendqisi2
  84 002c FF2B     		cmp	r3, #255
  85 002e 02D0     		beq	.L3
  58:main.c        ****         Positions = 2;
  86              		.loc 1 58 0 is_stmt 1
  87 0030 684B     		ldr	r3, .L17+4
  88 0032 0222     		movs	r2, #2
  89 0034 1A70     		strb	r2, [r3]
  90              	.L3:
  59:main.c        ****     }
  60:main.c        ****     if(side.c.dir != 0xFF && side.d.dir == 0xFF){
  91              		.loc 1 60 0
  92 0036 664B     		ldr	r3, .L17
  93 0038 93F85A32 		ldrb	r3, [r3, #602]	@ zero_extendqisi2
  94 003c FF2B     		cmp	r3, #255
  95 003e 07D0     		beq	.L4
  96              		.loc 1 60 0 is_stmt 0 discriminator 1
  97 0040 634B     		ldr	r3, .L17
  98 0042 93F88733 		ldrb	r3, [r3, #903]	@ zero_extendqisi2
  99 0046 FF2B     		cmp	r3, #255
 100 0048 02D1     		bne	.L4
  61:main.c        ****         Positions = 3;
 101              		.loc 1 61 0 is_stmt 1
 102 004a 624B     		ldr	r3, .L17+4
 103 004c 0322     		movs	r2, #3
 104 004e 1A70     		strb	r2, [r3]
 105              	.L4:
  62:main.c        ****     }
  63:main.c        ****     if(side.c.dir != 0xFF && side.d.dir != 0xFF){
 106              		.loc 1 63 0
 107 0050 5F4B     		ldr	r3, .L17
 108 0052 93F85A32 		ldrb	r3, [r3, #602]	@ zero_extendqisi2
ARM GAS  C:\Users\THERMA~1\AppData\Local\Temp\ccuykYyx.s 			page 4


 109 0056 FF2B     		cmp	r3, #255
 110 0058 07D0     		beq	.L5
 111              		.loc 1 63 0 is_stmt 0 discriminator 1
 112 005a 5D4B     		ldr	r3, .L17
 113 005c 93F88733 		ldrb	r3, [r3, #903]	@ zero_extendqisi2
 114 0060 FF2B     		cmp	r3, #255
 115 0062 02D0     		beq	.L5
  64:main.c        ****         Positions = 4;
 116              		.loc 1 64 0 is_stmt 1
 117 0064 5B4B     		ldr	r3, .L17+4
 118 0066 0422     		movs	r2, #4
 119 0068 1A70     		strb	r2, [r3]
 120              	.L5:
  65:main.c        ****     }
  66:main.c        ****     if(Positions == 1){       
 121              		.loc 1 66 0
 122 006a 5A4B     		ldr	r3, .L17+4
 123 006c 1B78     		ldrb	r3, [r3]	@ zero_extendqisi2
 124 006e 012B     		cmp	r3, #1
 125 0070 09D1     		bne	.L6
  67:main.c        ****         side.a.states[0] = PumpState(side.a.dir);                                    
 126              		.loc 1 67 0
 127 0072 574B     		ldr	r3, .L17
 128 0074 1B78     		ldrb	r3, [r3]	@ zero_extendqisi2
 129 0076 1846     		mov	r0, r3
 130 0078 FFF7FEFF 		bl	PumpState
 131 007c 0346     		mov	r3, r0
 132 007e 1A46     		mov	r2, r3
 133 0080 534B     		ldr	r3, .L17
 134 0082 83F84C20 		strb	r2, [r3, #76]
 135              	.L6:
  68:main.c        ****         //ReturnStatus(side.a.dir);        
  69:main.c        ****     }
  70:main.c        ****     if(Positions == 2){
 136              		.loc 1 70 0
 137 0086 534B     		ldr	r3, .L17+4
 138 0088 1B78     		ldrb	r3, [r3]	@ zero_extendqisi2
 139 008a 022B     		cmp	r3, #2
 140 008c 29D1     		bne	.L7
  71:main.c        ****         if(side.a.MepRequest == MEPSAN_AUTHORIZE)
 141              		.loc 1 71 0
 142 008e 504B     		ldr	r3, .L17
 143 0090 93F82B31 		ldrb	r3, [r3, #299]	@ zero_extendqisi2
 144 0094 062B     		cmp	r3, #6
 145 0096 04D1     		bne	.L8
  72:main.c        ****             Authorize(side.a.dir);
 146              		.loc 1 72 0
 147 0098 4D4B     		ldr	r3, .L17
 148 009a 1B78     		ldrb	r3, [r3]	@ zero_extendqisi2
 149 009c 1846     		mov	r0, r3
 150 009e FFF7FEFF 		bl	Authorize
 151              	.L8:
  73:main.c        ****         if(side.b.MepRequest == MEPSAN_AUTHORIZE)
 152              		.loc 1 73 0
 153 00a2 4B4B     		ldr	r3, .L17
 154 00a4 93F85832 		ldrb	r3, [r3, #600]	@ zero_extendqisi2
 155 00a8 062B     		cmp	r3, #6
ARM GAS  C:\Users\THERMA~1\AppData\Local\Temp\ccuykYyx.s 			page 5


 156 00aa 05D1     		bne	.L9
  74:main.c        ****             Authorize(side.b.dir);
 157              		.loc 1 74 0
 158 00ac 484B     		ldr	r3, .L17
 159 00ae 93F82D31 		ldrb	r3, [r3, #301]	@ zero_extendqisi2
 160 00b2 1846     		mov	r0, r3
 161 00b4 FFF7FEFF 		bl	Authorize
 162              	.L9:
  75:main.c        ****         side.a.states[0] = PumpState(side.a.dir);
 163              		.loc 1 75 0
 164 00b8 454B     		ldr	r3, .L17
 165 00ba 1B78     		ldrb	r3, [r3]	@ zero_extendqisi2
 166 00bc 1846     		mov	r0, r3
 167 00be FFF7FEFF 		bl	PumpState
 168 00c2 0346     		mov	r3, r0
 169 00c4 1A46     		mov	r2, r3
 170 00c6 424B     		ldr	r3, .L17
 171 00c8 83F84C20 		strb	r2, [r3, #76]
  76:main.c        ****         side.b.states[0] = PumpState(side.b.dir);        
 172              		.loc 1 76 0
 173 00cc 404B     		ldr	r3, .L17
 174 00ce 93F82D31 		ldrb	r3, [r3, #301]	@ zero_extendqisi2
 175 00d2 1846     		mov	r0, r3
 176 00d4 FFF7FEFF 		bl	PumpState
 177 00d8 0346     		mov	r3, r0
 178 00da 1A46     		mov	r2, r3
 179 00dc 3C4B     		ldr	r3, .L17
 180 00de 83F87921 		strb	r2, [r3, #377]
 181              	.L7:
  77:main.c        ****                     
  78:main.c        ****     }
  79:main.c        ****     if(Positions == 3){
 182              		.loc 1 79 0
 183 00e2 3C4B     		ldr	r3, .L17+4
 184 00e4 1B78     		ldrb	r3, [r3]	@ zero_extendqisi2
 185 00e6 032B     		cmp	r3, #3
 186 00e8 2ED1     		bne	.L10
  80:main.c        ****         for(x = 0; x < 5; x++){
 187              		.loc 1 80 0
 188 00ea 0023     		movs	r3, #0
 189 00ec FB71     		strb	r3, [r7, #7]
 190 00ee 28E0     		b	.L11
 191              	.L12:
  81:main.c        ****             side.a.states[x] = PumpState(side.a.dir);
 192              		.loc 1 81 0 discriminator 3
 193 00f0 FC79     		ldrb	r4, [r7, #7]	@ zero_extendqisi2
 194 00f2 374B     		ldr	r3, .L17
 195 00f4 1B78     		ldrb	r3, [r3]	@ zero_extendqisi2
 196 00f6 1846     		mov	r0, r3
 197 00f8 FFF7FEFF 		bl	PumpState
 198 00fc 0346     		mov	r3, r0
 199 00fe 1A46     		mov	r2, r3
 200 0100 334B     		ldr	r3, .L17
 201 0102 2344     		add	r3, r3, r4
 202 0104 83F84C20 		strb	r2, [r3, #76]
  82:main.c        ****             side.b.states[x] = PumpState(side.b.dir);
 203              		.loc 1 82 0 discriminator 3
ARM GAS  C:\Users\THERMA~1\AppData\Local\Temp\ccuykYyx.s 			page 6


 204 0108 FC79     		ldrb	r4, [r7, #7]	@ zero_extendqisi2
 205 010a 314B     		ldr	r3, .L17
 206 010c 93F82D31 		ldrb	r3, [r3, #301]	@ zero_extendqisi2
 207 0110 1846     		mov	r0, r3
 208 0112 FFF7FEFF 		bl	PumpState
 209 0116 0346     		mov	r3, r0
 210 0118 1A46     		mov	r2, r3
 211 011a 2D4B     		ldr	r3, .L17
 212 011c 2344     		add	r3, r3, r4
 213 011e 83F87921 		strb	r2, [r3, #377]
  83:main.c        ****             side.c.states[x] = PumpState(side.c.dir);
 214              		.loc 1 83 0 discriminator 3
 215 0122 FC79     		ldrb	r4, [r7, #7]	@ zero_extendqisi2
 216 0124 2A4B     		ldr	r3, .L17
 217 0126 93F85A32 		ldrb	r3, [r3, #602]	@ zero_extendqisi2
 218 012a 1846     		mov	r0, r3
 219 012c FFF7FEFF 		bl	PumpState
 220 0130 0346     		mov	r3, r0
 221 0132 1A46     		mov	r2, r3
 222 0134 264B     		ldr	r3, .L17
 223 0136 2344     		add	r3, r3, r4
 224 0138 83F8A622 		strb	r2, [r3, #678]
  80:main.c        ****             side.a.states[x] = PumpState(side.a.dir);
 225              		.loc 1 80 0 discriminator 3
 226 013c FB79     		ldrb	r3, [r7, #7]	@ zero_extendqisi2
 227 013e 0133     		adds	r3, r3, #1
 228 0140 FB71     		strb	r3, [r7, #7]
 229              	.L11:
  80:main.c        ****             side.a.states[x] = PumpState(side.a.dir);
 230              		.loc 1 80 0 is_stmt 0 discriminator 1
 231 0142 FB79     		ldrb	r3, [r7, #7]	@ zero_extendqisi2
 232 0144 042B     		cmp	r3, #4
 233 0146 D3D9     		bls	.L12
 234              	.L10:
  84:main.c        ****         }
  85:main.c        ****         
  86:main.c        ****     }
  87:main.c        ****     if(Positions == 4){
 235              		.loc 1 87 0 is_stmt 1
 236 0148 224B     		ldr	r3, .L17+4
 237 014a 1B78     		ldrb	r3, [r3]	@ zero_extendqisi2
 238 014c 042B     		cmp	r3, #4
 239 014e 3BD1     		bne	.L16
  88:main.c        ****         for(x = 0; x < 5; x++){
 240              		.loc 1 88 0
 241 0150 0023     		movs	r3, #0
 242 0152 FB71     		strb	r3, [r7, #7]
 243 0154 35E0     		b	.L14
 244              	.L15:
  89:main.c        ****             side.a.states[x] = PumpState(side.a.dir);
 245              		.loc 1 89 0 discriminator 3
 246 0156 FC79     		ldrb	r4, [r7, #7]	@ zero_extendqisi2
 247 0158 1D4B     		ldr	r3, .L17
 248 015a 1B78     		ldrb	r3, [r3]	@ zero_extendqisi2
 249 015c 1846     		mov	r0, r3
 250 015e FFF7FEFF 		bl	PumpState
 251 0162 0346     		mov	r3, r0
ARM GAS  C:\Users\THERMA~1\AppData\Local\Temp\ccuykYyx.s 			page 7


 252 0164 1A46     		mov	r2, r3
 253 0166 1A4B     		ldr	r3, .L17
 254 0168 2344     		add	r3, r3, r4
 255 016a 83F84C20 		strb	r2, [r3, #76]
  90:main.c        ****             side.b.states[x] = PumpState(side.b.dir);
 256              		.loc 1 90 0 discriminator 3
 257 016e FC79     		ldrb	r4, [r7, #7]	@ zero_extendqisi2
 258 0170 174B     		ldr	r3, .L17
 259 0172 93F82D31 		ldrb	r3, [r3, #301]	@ zero_extendqisi2
 260 0176 1846     		mov	r0, r3
 261 0178 FFF7FEFF 		bl	PumpState
 262 017c 0346     		mov	r3, r0
 263 017e 1A46     		mov	r2, r3
 264 0180 134B     		ldr	r3, .L17
 265 0182 2344     		add	r3, r3, r4
 266 0184 83F87921 		strb	r2, [r3, #377]
  91:main.c        ****             side.c.states[x] = PumpState(side.c.dir);
 267              		.loc 1 91 0 discriminator 3
 268 0188 FC79     		ldrb	r4, [r7, #7]	@ zero_extendqisi2
 269 018a 114B     		ldr	r3, .L17
 270 018c 93F85A32 		ldrb	r3, [r3, #602]	@ zero_extendqisi2
 271 0190 1846     		mov	r0, r3
 272 0192 FFF7FEFF 		bl	PumpState
 273 0196 0346     		mov	r3, r0
 274 0198 1A46     		mov	r2, r3
 275 019a 0D4B     		ldr	r3, .L17
 276 019c 2344     		add	r3, r3, r4
 277 019e 83F8A622 		strb	r2, [r3, #678]
  92:main.c        ****             side.d.states[x] = PumpState(side.d.dir);
 278              		.loc 1 92 0 discriminator 3
 279 01a2 FC79     		ldrb	r4, [r7, #7]	@ zero_extendqisi2
 280 01a4 0A4B     		ldr	r3, .L17
 281 01a6 93F88733 		ldrb	r3, [r3, #903]	@ zero_extendqisi2
 282 01aa 1846     		mov	r0, r3
 283 01ac FFF7FEFF 		bl	PumpState
 284 01b0 0346     		mov	r3, r0
 285 01b2 1A46     		mov	r2, r3
 286 01b4 064B     		ldr	r3, .L17
 287 01b6 2344     		add	r3, r3, r4
 288 01b8 83F8D323 		strb	r2, [r3, #979]
  88:main.c        ****             side.a.states[x] = PumpState(side.a.dir);
 289              		.loc 1 88 0 discriminator 3
 290 01bc FB79     		ldrb	r3, [r7, #7]	@ zero_extendqisi2
 291 01be 0133     		adds	r3, r3, #1
 292 01c0 FB71     		strb	r3, [r7, #7]
 293              	.L14:
  88:main.c        ****             side.a.states[x] = PumpState(side.a.dir);
 294              		.loc 1 88 0 is_stmt 0 discriminator 1
 295 01c2 FB79     		ldrb	r3, [r7, #7]	@ zero_extendqisi2
 296 01c4 042B     		cmp	r3, #4
 297 01c6 C6D9     		bls	.L15
 298              	.L16:
  93:main.c        ****         }            
  94:main.c        ****     } 
  95:main.c        **** 
  96:main.c        **** }
 299              		.loc 1 96 0 is_stmt 1
ARM GAS  C:\Users\THERMA~1\AppData\Local\Temp\ccuykYyx.s 			page 8


 300 01c8 00BF     		nop
 301 01ca 0C37     		adds	r7, r7, #12
 302              		.cfi_def_cfa_offset 12
 303 01cc BD46     		mov	sp, r7
 304              		.cfi_def_cfa_register 13
 305              		@ sp needed
 306 01ce 90BD     		pop	{r4, r7, pc}
 307              	.L18:
 308              		.align	2
 309              	.L17:
 310 01d0 00000000 		.word	side
 311 01d4 00000000 		.word	Positions
 312              		.cfi_endproc
 313              	.LFE63:
 314              		.size	PollingPos, .-PollingPos
 315              		.section	.rodata
 316              		.align	2
 317              	.LC0:
 318 0000 31       		.byte	49
 319 0001 32       		.byte	50
 320 0002 33       		.byte	51
 321 0003 34       		.byte	52
 322              		.align	2
 323              	.LC1:
 324 0004 5A       		.byte	90
 325 0005 A5       		.byte	-91
 326 0006 04       		.byte	4
 327 0007 80       		.byte	-128
 328 0008 03       		.byte	3
 329 0009 00       		.byte	0
 330 000a 06       		.byte	6
 331 000b 00       		.align	2
 332              	.LC2:
 333 000c 5A       		.byte	90
 334 000d A5       		.byte	-91
 335 000e 04       		.byte	4
 336 000f 80       		.byte	-128
 337 0010 03       		.byte	3
 338 0011 00       		.byte	0
 339 0012 09       		.byte	9
 340              		.section	.text.main,"ax",%progbits
 341              		.align	2
 342              		.global	main
 343              		.thumb
 344              		.thumb_func
 345              		.type	main, %function
 346              	main:
 347              	.LFB64:
  97:main.c        **** 
  98:main.c        **** /*******************************************************************************
  99:main.c        **** * Function Name: main
 100:main.c        **** ********************************************************************************
 101:main.c        **** *
 102:main.c        **** *
 103:main.c        **** *******************************************************************************/
 104:main.c        **** 
 105:main.c        **** int main()
ARM GAS  C:\Users\THERMA~1\AppData\Local\Temp\ccuykYyx.s 			page 9


 106:main.c        **** {
 348              		.loc 1 106 0
 349              		.cfi_startproc
 350              		@ args = 0, pretend = 0, frame = 56
 351              		@ frame_needed = 1, uses_anonymous_args = 0
 352 0000 90B5     		push	{r4, r7, lr}
 353              		.cfi_def_cfa_offset 12
 354              		.cfi_offset 4, -12
 355              		.cfi_offset 7, -8
 356              		.cfi_offset 14, -4
 357 0002 8FB0     		sub	sp, sp, #60
 358              		.cfi_def_cfa_offset 72
 359 0004 00AF     		add	r7, sp, #0
 360              		.cfi_def_cfa_register 7
 107:main.c        ****     /* Prepare components */
 108:main.c        ****     uint8 x,screen_size,W_autorize,y,temp;
 109:main.c        ****     uint8 passw[4]={'1','2','3','4'};
 361              		.loc 1 109 0
 362 0006 864A     		ldr	r2, .L112
 363 0008 07F11C03 		add	r3, r7, #28
 364 000c 1068     		ldr	r0, [r2]	@ unaligned
 365 000e 1860     		str	r0, [r3]	@ unaligned
 110:main.c        ****     uint8 change_pic[]={0x5A,0xA5,0x04,0x80,0x03,0x00,0x06};
 366              		.loc 1 110 0
 367 0010 844A     		ldr	r2, .L112+4
 368 0012 07F11403 		add	r3, r7, #20
 369 0016 1068     		ldr	r0, [r2]	@ unaligned
 370 0018 1860     		str	r0, [r3]	@ unaligned
 371 001a 9188     		ldrh	r1, [r2, #4]	@ unaligned
 372 001c 9279     		ldrb	r2, [r2, #6]
 373 001e 9980     		strh	r1, [r3, #4]	@ unaligned
 374 0020 9A71     		strb	r2, [r3, #6]
 111:main.c        ****     uint8 change_pic2[]={0x5A,0xA5,0x04,0x80,0x03,0x00,0x09};
 375              		.loc 1 111 0
 376 0022 814A     		ldr	r2, .L112+8
 377 0024 07F10C03 		add	r3, r7, #12
 378 0028 1068     		ldr	r0, [r2]	@ unaligned
 379 002a 1860     		str	r0, [r3]	@ unaligned
 380 002c 9188     		ldrh	r1, [r2, #4]	@ unaligned
 381 002e 9279     		ldrb	r2, [r2, #6]
 382 0030 9980     		strh	r1, [r3, #4]	@ unaligned
 383 0032 9A71     		strb	r2, [r3, #6]
 112:main.c        ****     uint8 price_change;
 113:main.c        ****     uint8 auxPrice[5];
 114:main.c        ****     DecVol = 3;
 384              		.loc 1 114 0
 385 0034 7D4B     		ldr	r3, .L112+12
 386 0036 0322     		movs	r2, #3
 387 0038 1A70     		strb	r2, [r3]
 115:main.c        ****     PWM_1_Start(); 
 388              		.loc 1 115 0
 389 003a FFF7FEFF 		bl	PWM_1_Start
 116:main.c        ****     CyGlobalIntEnable;
 390              		.loc 1 116 0
 391              		.syntax unified
 392              	@ 116 "main.c" 1
 393 003e 62B6     		CPSIE   i
ARM GAS  C:\Users\THERMA~1\AppData\Local\Temp\ccuykYyx.s 			page 10


 394              	@ 0 "" 2
 117:main.c        ****     MEPSAN_Start();
 395              		.loc 1 117 0
 396              		.thumb
 397              		.syntax unified
 398 0040 FFF7FEFF 		bl	MEPSAN_Start
 118:main.c        ****     GBCL_Start();
 399              		.loc 1 118 0
 400 0044 FFF7FEFF 		bl	GBCL_Start
 119:main.c        ****     PRINTER_A_Start();
 401              		.loc 1 119 0
 402 0048 FFF7FEFF 		bl	PRINTER_A_Start
 120:main.c        ****     screen_Start();
 403              		.loc 1 120 0
 404 004c FFF7FEFF 		bl	screen_Start
 121:main.c        ****     EEPROM_1_Start();
 405              		.loc 1 121 0
 406 0050 FFF7FEFF 		bl	EEPROM_1_Start
 122:main.c        ****     if(EEPROM_1_ReadByte(0) == 0x5A){
 407              		.loc 1 122 0
 408 0054 0020     		movs	r0, #0
 409 0056 FFF7FEFF 		bl	EEPROM_1_ReadByte
 410 005a 0346     		mov	r3, r0
 411 005c 5A2B     		cmp	r3, #90
 412 005e 19D1     		bne	.L20
 123:main.c        ****         for(x=0;x<6;x++){
 413              		.loc 1 123 0
 414 0060 0023     		movs	r3, #0
 415 0062 87F83730 		strb	r3, [r7, #55]
 416 0066 10E0     		b	.L21
 417              	.L22:
 124:main.c        ****     		sale_number[x]=EEPROM_1_ReadByte(x);
 418              		.loc 1 124 0 discriminator 3
 419 0068 97F83740 		ldrb	r4, [r7, #55]	@ zero_extendqisi2
 420 006c 97F83730 		ldrb	r3, [r7, #55]	@ zero_extendqisi2
 421 0070 9BB2     		uxth	r3, r3
 422 0072 1846     		mov	r0, r3
 423 0074 FFF7FEFF 		bl	EEPROM_1_ReadByte
 424 0078 0346     		mov	r3, r0
 425 007a 1A46     		mov	r2, r3
 426 007c 6C4B     		ldr	r3, .L112+16
 427 007e 1A55     		strb	r2, [r3, r4]
 123:main.c        ****         for(x=0;x<6;x++){
 428              		.loc 1 123 0 discriminator 3
 429 0080 97F83730 		ldrb	r3, [r7, #55]	@ zero_extendqisi2
 430 0084 0133     		adds	r3, r3, #1
 431 0086 87F83730 		strb	r3, [r7, #55]
 432              	.L21:
 123:main.c        ****         for(x=0;x<6;x++){
 433              		.loc 1 123 0 is_stmt 0 discriminator 1
 434 008a 97F83730 		ldrb	r3, [r7, #55]	@ zero_extendqisi2
 435 008e 052B     		cmp	r3, #5
 436 0090 EAD9     		bls	.L22
 437 0092 15E0     		b	.L23
 438              	.L20:
 125:main.c        ****     	}
 126:main.c        ****     }else{
ARM GAS  C:\Users\THERMA~1\AppData\Local\Temp\ccuykYyx.s 			page 11


 127:main.c        ****         EEPROM_1_WriteByte(0x5A,0);
 439              		.loc 1 127 0 is_stmt 1
 440 0094 0021     		movs	r1, #0
 441 0096 5A20     		movs	r0, #90
 442 0098 FFF7FEFF 		bl	EEPROM_1_WriteByte
 128:main.c        ****         for(x=1;x<6;x++){
 443              		.loc 1 128 0
 444 009c 0123     		movs	r3, #1
 445 009e 87F83730 		strb	r3, [r7, #55]
 446 00a2 09E0     		b	.L24
 447              	.L25:
 129:main.c        ****     		sale_number[x]='0';
 448              		.loc 1 129 0 discriminator 3
 449 00a4 97F83730 		ldrb	r3, [r7, #55]	@ zero_extendqisi2
 450 00a8 614A     		ldr	r2, .L112+16
 451 00aa 3021     		movs	r1, #48
 452 00ac D154     		strb	r1, [r2, r3]
 128:main.c        ****         for(x=1;x<6;x++){
 453              		.loc 1 128 0 discriminator 3
 454 00ae 97F83730 		ldrb	r3, [r7, #55]	@ zero_extendqisi2
 455 00b2 0133     		adds	r3, r3, #1
 456 00b4 87F83730 		strb	r3, [r7, #55]
 457              	.L24:
 128:main.c        ****         for(x=1;x<6;x++){
 458              		.loc 1 128 0 is_stmt 0 discriminator 1
 459 00b8 97F83730 		ldrb	r3, [r7, #55]	@ zero_extendqisi2
 460 00bc 052B     		cmp	r3, #5
 461 00be F1D9     		bls	.L25
 462              	.L23:
 130:main.c        ****     	}
 131:main.c        ****     }
 132:main.c        ****     int_salenumber=((sale_number[5]&0x0F)*10000)+((sale_number[4]&0x0F)*1000)+((sale_number[3]&0x0F
 463              		.loc 1 132 0 is_stmt 1
 464 00c0 5B4B     		ldr	r3, .L112+16
 465 00c2 5B79     		ldrb	r3, [r3, #5]	@ zero_extendqisi2
 466 00c4 03F00F03 		and	r3, r3, #15
 467 00c8 DBB2     		uxtb	r3, r3
 468 00ca 1B01     		lsls	r3, r3, #4
 469 00cc DAB2     		uxtb	r2, r3
 470 00ce 584B     		ldr	r3, .L112+16
 471 00d0 1B79     		ldrb	r3, [r3, #4]	@ zero_extendqisi2
 472 00d2 03F00F03 		and	r3, r3, #15
 473 00d6 DBB2     		uxtb	r3, r3
 474 00d8 1946     		mov	r1, r3
 475 00da 9B00     		lsls	r3, r3, #2
 476 00dc CB1A     		subs	r3, r1, r3
 477 00de DB00     		lsls	r3, r3, #3
 478 00e0 DBB2     		uxtb	r3, r3
 479 00e2 1344     		add	r3, r3, r2
 480 00e4 DAB2     		uxtb	r2, r3
 481 00e6 524B     		ldr	r3, .L112+16
 482 00e8 9B78     		ldrb	r3, [r3, #2]	@ zero_extendqisi2
 483 00ea 03F00F03 		and	r3, r3, #15
 484 00ee DBB2     		uxtb	r3, r3
 485 00f0 1946     		mov	r1, r3
 486 00f2 8900     		lsls	r1, r1, #2
 487 00f4 0B44     		add	r3, r3, r1
ARM GAS  C:\Users\THERMA~1\AppData\Local\Temp\ccuykYyx.s 			page 12


 488 00f6 5B00     		lsls	r3, r3, #1
 489 00f8 D9B2     		uxtb	r1, r3
 490 00fa 4D4B     		ldr	r3, .L112+16
 491 00fc DB78     		ldrb	r3, [r3, #3]	@ zero_extendqisi2
 492 00fe 03F00F03 		and	r3, r3, #15
 493 0102 DBB2     		uxtb	r3, r3
 494 0104 1846     		mov	r0, r3
 495 0106 8000     		lsls	r0, r0, #2
 496 0108 0344     		add	r3, r3, r0
 497 010a 1846     		mov	r0, r3
 498 010c 8400     		lsls	r4, r0, #2
 499 010e 1846     		mov	r0, r3
 500 0110 2346     		mov	r3, r4
 501 0112 0344     		add	r3, r3, r0
 502 0114 9B00     		lsls	r3, r3, #2
 503 0116 DBB2     		uxtb	r3, r3
 504 0118 0B44     		add	r3, r3, r1
 505 011a DBB2     		uxtb	r3, r3
 506 011c 1344     		add	r3, r3, r2
 507 011e DAB2     		uxtb	r2, r3
 508 0120 434B     		ldr	r3, .L112+16
 509 0122 5B78     		ldrb	r3, [r3, #1]	@ zero_extendqisi2
 510 0124 03F00F03 		and	r3, r3, #15
 511 0128 DBB2     		uxtb	r3, r3
 512 012a 1344     		add	r3, r3, r2
 513 012c DAB2     		uxtb	r2, r3
 514 012e 414B     		ldr	r3, .L112+20
 515 0130 1A70     		strb	r2, [r3]
 133:main.c        ****     if(EEPROM_1_ReadByte(6) == 0x5A){
 516              		.loc 1 133 0
 517 0132 0620     		movs	r0, #6
 518 0134 FFF7FEFF 		bl	EEPROM_1_ReadByte
 519 0138 0346     		mov	r3, r0
 520 013a 5A2B     		cmp	r3, #90
 521 013c 1CD1     		bne	.L26
 134:main.c        ****         for(x=0;x<6;x++){
 522              		.loc 1 134 0
 523 013e 0023     		movs	r3, #0
 524 0140 87F83730 		strb	r3, [r7, #55]
 525 0144 13E0     		b	.L27
 526              	.L28:
 135:main.c        ****     		shift_number[x+6]=EEPROM_1_ReadByte(x+6);
 527              		.loc 1 135 0 discriminator 3
 528 0146 97F83730 		ldrb	r3, [r7, #55]	@ zero_extendqisi2
 529 014a 9C1D     		adds	r4, r3, #6
 530 014c 97F83730 		ldrb	r3, [r7, #55]	@ zero_extendqisi2
 531 0150 9BB2     		uxth	r3, r3
 532 0152 0633     		adds	r3, r3, #6
 533 0154 9BB2     		uxth	r3, r3
 534 0156 1846     		mov	r0, r3
 535 0158 FFF7FEFF 		bl	EEPROM_1_ReadByte
 536 015c 0346     		mov	r3, r0
 537 015e 1A46     		mov	r2, r3
 538 0160 354B     		ldr	r3, .L112+24
 539 0162 1A55     		strb	r2, [r3, r4]
 134:main.c        ****         for(x=0;x<6;x++){
 540              		.loc 1 134 0 discriminator 3
ARM GAS  C:\Users\THERMA~1\AppData\Local\Temp\ccuykYyx.s 			page 13


 541 0164 97F83730 		ldrb	r3, [r7, #55]	@ zero_extendqisi2
 542 0168 0133     		adds	r3, r3, #1
 543 016a 87F83730 		strb	r3, [r7, #55]
 544              	.L27:
 134:main.c        ****         for(x=0;x<6;x++){
 545              		.loc 1 134 0 is_stmt 0 discriminator 1
 546 016e 97F83730 		ldrb	r3, [r7, #55]	@ zero_extendqisi2
 547 0172 052B     		cmp	r3, #5
 548 0174 E7D9     		bls	.L28
 549 0176 16E0     		b	.L29
 550              	.L26:
 136:main.c        ****     	}
 137:main.c        ****     }else{
 138:main.c        ****         EEPROM_1_WriteByte(0x5A,6);
 551              		.loc 1 138 0 is_stmt 1
 552 0178 0621     		movs	r1, #6
 553 017a 5A20     		movs	r0, #90
 554 017c FFF7FEFF 		bl	EEPROM_1_WriteByte
 139:main.c        ****         for(x=1;x<6;x++){
 555              		.loc 1 139 0
 556 0180 0123     		movs	r3, #1
 557 0182 87F83730 		strb	r3, [r7, #55]
 558 0186 0AE0     		b	.L30
 559              	.L31:
 140:main.c        ****     		shift_number[x+6]='0';
 560              		.loc 1 140 0 discriminator 3
 561 0188 97F83730 		ldrb	r3, [r7, #55]	@ zero_extendqisi2
 562 018c 0633     		adds	r3, r3, #6
 563 018e 2A4A     		ldr	r2, .L112+24
 564 0190 3021     		movs	r1, #48
 565 0192 D154     		strb	r1, [r2, r3]
 139:main.c        ****         for(x=1;x<6;x++){
 566              		.loc 1 139 0 discriminator 3
 567 0194 97F83730 		ldrb	r3, [r7, #55]	@ zero_extendqisi2
 568 0198 0133     		adds	r3, r3, #1
 569 019a 87F83730 		strb	r3, [r7, #55]
 570              	.L30:
 139:main.c        ****         for(x=1;x<6;x++){
 571              		.loc 1 139 0 is_stmt 0 discriminator 1
 572 019e 97F83730 		ldrb	r3, [r7, #55]	@ zero_extendqisi2
 573 01a2 052B     		cmp	r3, #5
 574 01a4 F0D9     		bls	.L31
 575              	.L29:
 141:main.c        ****     	}
 142:main.c        ****     }
 143:main.c        ****     int_shiftnumber=((shift_number[5]&0x0F)*10000)+((shift_number[4]&0x0F)*1000)+((shift_number[3]&
 576              		.loc 1 143 0 is_stmt 1
 577 01a6 244B     		ldr	r3, .L112+24
 578 01a8 5B79     		ldrb	r3, [r3, #5]	@ zero_extendqisi2
 579 01aa 03F00F03 		and	r3, r3, #15
 580 01ae DBB2     		uxtb	r3, r3
 581 01b0 1B01     		lsls	r3, r3, #4
 582 01b2 DAB2     		uxtb	r2, r3
 583 01b4 204B     		ldr	r3, .L112+24
 584 01b6 1B79     		ldrb	r3, [r3, #4]	@ zero_extendqisi2
 585 01b8 03F00F03 		and	r3, r3, #15
 586 01bc DBB2     		uxtb	r3, r3
ARM GAS  C:\Users\THERMA~1\AppData\Local\Temp\ccuykYyx.s 			page 14


 587 01be 1946     		mov	r1, r3
 588 01c0 9B00     		lsls	r3, r3, #2
 589 01c2 CB1A     		subs	r3, r1, r3
 590 01c4 DB00     		lsls	r3, r3, #3
 591 01c6 DBB2     		uxtb	r3, r3
 592 01c8 1344     		add	r3, r3, r2
 593 01ca DAB2     		uxtb	r2, r3
 594 01cc 1A4B     		ldr	r3, .L112+24
 595 01ce 9B78     		ldrb	r3, [r3, #2]	@ zero_extendqisi2
 596 01d0 03F00F03 		and	r3, r3, #15
 597 01d4 DBB2     		uxtb	r3, r3
 598 01d6 1946     		mov	r1, r3
 599 01d8 8900     		lsls	r1, r1, #2
 600 01da 0B44     		add	r3, r3, r1
 601 01dc 5B00     		lsls	r3, r3, #1
 602 01de D9B2     		uxtb	r1, r3
 603 01e0 154B     		ldr	r3, .L112+24
 604 01e2 DB78     		ldrb	r3, [r3, #3]	@ zero_extendqisi2
 605 01e4 03F00F03 		and	r3, r3, #15
 606 01e8 DBB2     		uxtb	r3, r3
 607 01ea 1846     		mov	r0, r3
 608 01ec 8000     		lsls	r0, r0, #2
 609 01ee 0344     		add	r3, r3, r0
 610 01f0 1846     		mov	r0, r3
 611 01f2 8400     		lsls	r4, r0, #2
 612 01f4 1846     		mov	r0, r3
 613 01f6 2346     		mov	r3, r4
 614 01f8 0344     		add	r3, r3, r0
 615 01fa 9B00     		lsls	r3, r3, #2
 616 01fc DBB2     		uxtb	r3, r3
 617 01fe 0B44     		add	r3, r3, r1
 618 0200 DBB2     		uxtb	r3, r3
 619 0202 1344     		add	r3, r3, r2
 620 0204 DAB2     		uxtb	r2, r3
 621 0206 0C4B     		ldr	r3, .L112+24
 622 0208 5B78     		ldrb	r3, [r3, #1]	@ zero_extendqisi2
 623 020a 03F00F03 		and	r3, r3, #15
 624 020e DBB2     		uxtb	r3, r3
 625 0210 1344     		add	r3, r3, r2
 626 0212 DAB2     		uxtb	r2, r3
 627 0214 094B     		ldr	r3, .L112+28
 628 0216 1A70     		strb	r2, [r3]
 144:main.c        ****     
 145:main.c        ****         
 146:main.c        ****     for(x = 0; x < 3; x ++){
 629              		.loc 1 146 0
 630 0218 0023     		movs	r3, #0
 631 021a 87F83730 		strb	r3, [r7, #55]
 632 021e 94E0     		b	.L32
 633              	.L113:
 634              		.align	2
 635              	.L112:
 636 0220 00000000 		.word	.LC0
 637 0224 04000000 		.word	.LC1
 638 0228 0C000000 		.word	.LC2
 639 022c 00000000 		.word	DecVol
 640 0230 00000000 		.word	sale_number
ARM GAS  C:\Users\THERMA~1\AppData\Local\Temp\ccuykYyx.s 			page 15


 641 0234 00000000 		.word	int_salenumber
 642 0238 00000000 		.word	shift_number
 643 023c 00000000 		.word	int_shiftnumber
 644              	.L33:
 147:main.c        ****         side.a.ppuNozzle[0][x] = EEPROM_1_ReadByte(12 + x);
 645              		.loc 1 147 0 discriminator 3
 646 0240 97F83740 		ldrb	r4, [r7, #55]	@ zero_extendqisi2
 647 0244 97F83730 		ldrb	r3, [r7, #55]	@ zero_extendqisi2
 648 0248 9BB2     		uxth	r3, r3
 649 024a 0C33     		adds	r3, r3, #12
 650 024c 9BB2     		uxth	r3, r3
 651 024e 1846     		mov	r0, r3
 652 0250 FFF7FEFF 		bl	EEPROM_1_ReadByte
 653 0254 0346     		mov	r3, r0
 654 0256 1A46     		mov	r2, r3
 655 0258 C64B     		ldr	r3, .L114
 656 025a 2344     		add	r3, r3, r4
 657 025c 83F82920 		strb	r2, [r3, #41]
 148:main.c        ****         side.a.ppuNozzle[1][x] = EEPROM_1_ReadByte(15 + x);
 658              		.loc 1 148 0 discriminator 3
 659 0260 97F83740 		ldrb	r4, [r7, #55]	@ zero_extendqisi2
 660 0264 97F83730 		ldrb	r3, [r7, #55]	@ zero_extendqisi2
 661 0268 9BB2     		uxth	r3, r3
 662 026a 0F33     		adds	r3, r3, #15
 663 026c 9BB2     		uxth	r3, r3
 664 026e 1846     		mov	r0, r3
 665 0270 FFF7FEFF 		bl	EEPROM_1_ReadByte
 666 0274 0346     		mov	r3, r0
 667 0276 1A46     		mov	r2, r3
 668 0278 BE4B     		ldr	r3, .L114
 669 027a 2344     		add	r3, r3, r4
 670 027c 83F82C20 		strb	r2, [r3, #44]
 149:main.c        ****         side.a.ppuNozzle[2][x] = EEPROM_1_ReadByte(18 + x);
 671              		.loc 1 149 0 discriminator 3
 672 0280 97F83740 		ldrb	r4, [r7, #55]	@ zero_extendqisi2
 673 0284 97F83730 		ldrb	r3, [r7, #55]	@ zero_extendqisi2
 674 0288 9BB2     		uxth	r3, r3
 675 028a 1233     		adds	r3, r3, #18
 676 028c 9BB2     		uxth	r3, r3
 677 028e 1846     		mov	r0, r3
 678 0290 FFF7FEFF 		bl	EEPROM_1_ReadByte
 679 0294 0346     		mov	r3, r0
 680 0296 1A46     		mov	r2, r3
 681 0298 B64B     		ldr	r3, .L114
 682 029a 2344     		add	r3, r3, r4
 683 029c 83F82F20 		strb	r2, [r3, #47]
 150:main.c        ****         side.a.ppuNozzle[3][x] = EEPROM_1_ReadByte(21 + x);
 684              		.loc 1 150 0 discriminator 3
 685 02a0 97F83740 		ldrb	r4, [r7, #55]	@ zero_extendqisi2
 686 02a4 97F83730 		ldrb	r3, [r7, #55]	@ zero_extendqisi2
 687 02a8 9BB2     		uxth	r3, r3
 688 02aa 1533     		adds	r3, r3, #21
 689 02ac 9BB2     		uxth	r3, r3
 690 02ae 1846     		mov	r0, r3
 691 02b0 FFF7FEFF 		bl	EEPROM_1_ReadByte
 692 02b4 0346     		mov	r3, r0
 693 02b6 1A46     		mov	r2, r3
ARM GAS  C:\Users\THERMA~1\AppData\Local\Temp\ccuykYyx.s 			page 16


 694 02b8 AE4B     		ldr	r3, .L114
 695 02ba 2344     		add	r3, r3, r4
 696 02bc 83F83220 		strb	r2, [r3, #50]
 151:main.c        ****         side.b.ppuNozzle[0][x] = EEPROM_1_ReadByte(24 + x);
 697              		.loc 1 151 0 discriminator 3
 698 02c0 97F83740 		ldrb	r4, [r7, #55]	@ zero_extendqisi2
 699 02c4 97F83730 		ldrb	r3, [r7, #55]	@ zero_extendqisi2
 700 02c8 9BB2     		uxth	r3, r3
 701 02ca 1833     		adds	r3, r3, #24
 702 02cc 9BB2     		uxth	r3, r3
 703 02ce 1846     		mov	r0, r3
 704 02d0 FFF7FEFF 		bl	EEPROM_1_ReadByte
 705 02d4 0346     		mov	r3, r0
 706 02d6 1A46     		mov	r2, r3
 707 02d8 A64B     		ldr	r3, .L114
 708 02da 2344     		add	r3, r3, r4
 709 02dc 83F85621 		strb	r2, [r3, #342]
 152:main.c        ****         side.b.ppuNozzle[1][x] = EEPROM_1_ReadByte(27 + x);
 710              		.loc 1 152 0 discriminator 3
 711 02e0 97F83740 		ldrb	r4, [r7, #55]	@ zero_extendqisi2
 712 02e4 97F83730 		ldrb	r3, [r7, #55]	@ zero_extendqisi2
 713 02e8 9BB2     		uxth	r3, r3
 714 02ea 1B33     		adds	r3, r3, #27
 715 02ec 9BB2     		uxth	r3, r3
 716 02ee 1846     		mov	r0, r3
 717 02f0 FFF7FEFF 		bl	EEPROM_1_ReadByte
 718 02f4 0346     		mov	r3, r0
 719 02f6 1A46     		mov	r2, r3
 720 02f8 9E4B     		ldr	r3, .L114
 721 02fa 2344     		add	r3, r3, r4
 722 02fc 83F85921 		strb	r2, [r3, #345]
 153:main.c        ****         side.b.ppuNozzle[2][x] = EEPROM_1_ReadByte(30 + x);
 723              		.loc 1 153 0 discriminator 3
 724 0300 97F83740 		ldrb	r4, [r7, #55]	@ zero_extendqisi2
 725 0304 97F83730 		ldrb	r3, [r7, #55]	@ zero_extendqisi2
 726 0308 9BB2     		uxth	r3, r3
 727 030a 1E33     		adds	r3, r3, #30
 728 030c 9BB2     		uxth	r3, r3
 729 030e 1846     		mov	r0, r3
 730 0310 FFF7FEFF 		bl	EEPROM_1_ReadByte
 731 0314 0346     		mov	r3, r0
 732 0316 1A46     		mov	r2, r3
 733 0318 964B     		ldr	r3, .L114
 734 031a 2344     		add	r3, r3, r4
 735 031c 83F85C21 		strb	r2, [r3, #348]
 154:main.c        ****         side.b.ppuNozzle[3][x] = EEPROM_1_ReadByte(33 + x);
 736              		.loc 1 154 0 discriminator 3
 737 0320 97F83740 		ldrb	r4, [r7, #55]	@ zero_extendqisi2
 738 0324 97F83730 		ldrb	r3, [r7, #55]	@ zero_extendqisi2
 739 0328 9BB2     		uxth	r3, r3
 740 032a 2133     		adds	r3, r3, #33
 741 032c 9BB2     		uxth	r3, r3
 742 032e 1846     		mov	r0, r3
 743 0330 FFF7FEFF 		bl	EEPROM_1_ReadByte
 744 0334 0346     		mov	r3, r0
 745 0336 1A46     		mov	r2, r3
 746 0338 8E4B     		ldr	r3, .L114
ARM GAS  C:\Users\THERMA~1\AppData\Local\Temp\ccuykYyx.s 			page 17


 747 033a 2344     		add	r3, r3, r4
 748 033c 83F85F21 		strb	r2, [r3, #351]
 146:main.c        ****         side.a.ppuNozzle[0][x] = EEPROM_1_ReadByte(12 + x);
 749              		.loc 1 146 0 discriminator 3
 750 0340 97F83730 		ldrb	r3, [r7, #55]	@ zero_extendqisi2
 751 0344 0133     		adds	r3, r3, #1
 752 0346 87F83730 		strb	r3, [r7, #55]
 753              	.L32:
 146:main.c        ****         side.a.ppuNozzle[0][x] = EEPROM_1_ReadByte(12 + x);
 754              		.loc 1 146 0 is_stmt 0 discriminator 1
 755 034a 97F83730 		ldrb	r3, [r7, #55]	@ zero_extendqisi2
 756 034e 022B     		cmp	r3, #2
 757 0350 7FF676AF 		bls	.L33
 155:main.c        ****     }
 156:main.c        ****     
 157:main.c        ****     side.a.ProcessedPPU[0][0] = (side.a.ppuNozzle[0][0] >> 4) + 0x30;
 758              		.loc 1 157 0 is_stmt 1
 759 0354 874B     		ldr	r3, .L114
 760 0356 93F82930 		ldrb	r3, [r3, #41]	@ zero_extendqisi2
 761 035a 1B09     		lsrs	r3, r3, #4
 762 035c DBB2     		uxtb	r3, r3
 763 035e 3033     		adds	r3, r3, #48
 764 0360 DAB2     		uxtb	r2, r3
 765 0362 844B     		ldr	r3, .L114
 766 0364 83F80B21 		strb	r2, [r3, #267]
 158:main.c        ****     side.a.ProcessedPPU[0][1] = (side.a.ppuNozzle[0][0] & 0x0F) + 0x30;
 767              		.loc 1 158 0
 768 0368 824B     		ldr	r3, .L114
 769 036a 93F82930 		ldrb	r3, [r3, #41]	@ zero_extendqisi2
 770 036e 03F00F03 		and	r3, r3, #15
 771 0372 DBB2     		uxtb	r3, r3
 772 0374 3033     		adds	r3, r3, #48
 773 0376 DAB2     		uxtb	r2, r3
 774 0378 7E4B     		ldr	r3, .L114
 775 037a 83F80C21 		strb	r2, [r3, #268]
 159:main.c        ****     side.a.ProcessedPPU[0][2] = (side.a.ppuNozzle[0][1] >> 4) + 0x30;
 776              		.loc 1 159 0
 777 037e 7D4B     		ldr	r3, .L114
 778 0380 93F82A30 		ldrb	r3, [r3, #42]	@ zero_extendqisi2
 779 0384 1B09     		lsrs	r3, r3, #4
 780 0386 DBB2     		uxtb	r3, r3
 781 0388 3033     		adds	r3, r3, #48
 782 038a DAB2     		uxtb	r2, r3
 783 038c 794B     		ldr	r3, .L114
 784 038e 83F80D21 		strb	r2, [r3, #269]
 160:main.c        ****     side.a.ProcessedPPU[0][3] = (side.a.ppuNozzle[0][1] & 0x0F) + 0x30;
 785              		.loc 1 160 0
 786 0392 784B     		ldr	r3, .L114
 787 0394 93F82A30 		ldrb	r3, [r3, #42]	@ zero_extendqisi2
 788 0398 03F00F03 		and	r3, r3, #15
 789 039c DBB2     		uxtb	r3, r3
 790 039e 3033     		adds	r3, r3, #48
 791 03a0 DAB2     		uxtb	r2, r3
 792 03a2 744B     		ldr	r3, .L114
 793 03a4 83F80E21 		strb	r2, [r3, #270]
 161:main.c        ****     side.a.ProcessedPPU[0][4] = (side.a.ppuNozzle[0][2] >> 4) + 0x30;
 794              		.loc 1 161 0
ARM GAS  C:\Users\THERMA~1\AppData\Local\Temp\ccuykYyx.s 			page 18


 795 03a8 724B     		ldr	r3, .L114
 796 03aa 93F82B30 		ldrb	r3, [r3, #43]	@ zero_extendqisi2
 797 03ae 1B09     		lsrs	r3, r3, #4
 798 03b0 DBB2     		uxtb	r3, r3
 799 03b2 3033     		adds	r3, r3, #48
 800 03b4 DAB2     		uxtb	r2, r3
 801 03b6 6F4B     		ldr	r3, .L114
 802 03b8 83F80F21 		strb	r2, [r3, #271]
 162:main.c        ****     side.a.ProcessedPPU[0][5] = (side.a.ppuNozzle[0][2] & 0x0F) + 0x30;
 803              		.loc 1 162 0
 804 03bc 6D4B     		ldr	r3, .L114
 805 03be 93F82B30 		ldrb	r3, [r3, #43]	@ zero_extendqisi2
 806 03c2 03F00F03 		and	r3, r3, #15
 807 03c6 DBB2     		uxtb	r3, r3
 808 03c8 3033     		adds	r3, r3, #48
 809 03ca DAB2     		uxtb	r2, r3
 810 03cc 694B     		ldr	r3, .L114
 811 03ce 83F81021 		strb	r2, [r3, #272]
 163:main.c        ****     
 164:main.c        ****     side.b.ProcessedPPU[0][0] = (side.b.ppuNozzle[0][0] >> 4) + 0x30;
 812              		.loc 1 164 0
 813 03d2 684B     		ldr	r3, .L114
 814 03d4 93F85631 		ldrb	r3, [r3, #342]	@ zero_extendqisi2
 815 03d8 1B09     		lsrs	r3, r3, #4
 816 03da DBB2     		uxtb	r3, r3
 817 03dc 3033     		adds	r3, r3, #48
 818 03de DAB2     		uxtb	r2, r3
 819 03e0 644B     		ldr	r3, .L114
 820 03e2 83F83822 		strb	r2, [r3, #568]
 165:main.c        ****     side.b.ProcessedPPU[0][1] = (side.b.ppuNozzle[0][0] & 0x0F) + 0x30;
 821              		.loc 1 165 0
 822 03e6 634B     		ldr	r3, .L114
 823 03e8 93F85631 		ldrb	r3, [r3, #342]	@ zero_extendqisi2
 824 03ec 03F00F03 		and	r3, r3, #15
 825 03f0 DBB2     		uxtb	r3, r3
 826 03f2 3033     		adds	r3, r3, #48
 827 03f4 DAB2     		uxtb	r2, r3
 828 03f6 5F4B     		ldr	r3, .L114
 829 03f8 83F83922 		strb	r2, [r3, #569]
 166:main.c        ****     side.b.ProcessedPPU[0][2] = (side.b.ppuNozzle[0][1] >> 4) + 0x30;
 830              		.loc 1 166 0
 831 03fc 5D4B     		ldr	r3, .L114
 832 03fe 93F85731 		ldrb	r3, [r3, #343]	@ zero_extendqisi2
 833 0402 1B09     		lsrs	r3, r3, #4
 834 0404 DBB2     		uxtb	r3, r3
 835 0406 3033     		adds	r3, r3, #48
 836 0408 DAB2     		uxtb	r2, r3
 837 040a 5A4B     		ldr	r3, .L114
 838 040c 83F83A22 		strb	r2, [r3, #570]
 167:main.c        ****     side.b.ProcessedPPU[0][3] = (side.b.ppuNozzle[0][1] & 0x0F) + 0x30;
 839              		.loc 1 167 0
 840 0410 584B     		ldr	r3, .L114
 841 0412 93F85731 		ldrb	r3, [r3, #343]	@ zero_extendqisi2
 842 0416 03F00F03 		and	r3, r3, #15
 843 041a DBB2     		uxtb	r3, r3
 844 041c 3033     		adds	r3, r3, #48
 845 041e DAB2     		uxtb	r2, r3
ARM GAS  C:\Users\THERMA~1\AppData\Local\Temp\ccuykYyx.s 			page 19


 846 0420 544B     		ldr	r3, .L114
 847 0422 83F83B22 		strb	r2, [r3, #571]
 168:main.c        ****     side.b.ProcessedPPU[0][4] = (side.b.ppuNozzle[0][2] >> 4) + 0x30;
 848              		.loc 1 168 0
 849 0426 534B     		ldr	r3, .L114
 850 0428 93F85831 		ldrb	r3, [r3, #344]	@ zero_extendqisi2
 851 042c 1B09     		lsrs	r3, r3, #4
 852 042e DBB2     		uxtb	r3, r3
 853 0430 3033     		adds	r3, r3, #48
 854 0432 DAB2     		uxtb	r2, r3
 855 0434 4F4B     		ldr	r3, .L114
 856 0436 83F83C22 		strb	r2, [r3, #572]
 169:main.c        ****     side.b.ProcessedPPU[0][5] = (side.b.ppuNozzle[0][2] & 0x0F) + 0x30;
 857              		.loc 1 169 0
 858 043a 4E4B     		ldr	r3, .L114
 859 043c 93F85831 		ldrb	r3, [r3, #344]	@ zero_extendqisi2
 860 0440 03F00F03 		and	r3, r3, #15
 861 0444 DBB2     		uxtb	r3, r3
 862 0446 3033     		adds	r3, r3, #48
 863 0448 DAB2     		uxtb	r2, r3
 864 044a 4A4B     		ldr	r3, .L114
 865 044c 83F83D22 		strb	r2, [r3, #573]
 866              	.LBB2:
 170:main.c        ****     
 171:main.c        ****     //while(side.a.dir == 0xFF){
 172:main.c        ****         for(uint8 y = 0; y < 16; y ++){
 867              		.loc 1 172 0
 868 0450 0023     		movs	r3, #0
 869 0452 87F83330 		strb	r3, [r7, #51]
 870 0456 0FE0     		b	.L34
 871              	.L35:
 173:main.c        ****             PumpAddress[y] = GetAddress(y); //Posiciones activas      
 872              		.loc 1 173 0 discriminator 3
 873 0458 97F83340 		ldrb	r4, [r7, #51]	@ zero_extendqisi2
 874 045c 97F83330 		ldrb	r3, [r7, #51]	@ zero_extendqisi2
 875 0460 1846     		mov	r0, r3
 876 0462 FFF7FEFF 		bl	GetAddress
 877 0466 0346     		mov	r3, r0
 878 0468 1A46     		mov	r2, r3
 879 046a 434B     		ldr	r3, .L114+4
 880 046c 1A55     		strb	r2, [r3, r4]
 172:main.c        ****             PumpAddress[y] = GetAddress(y); //Posiciones activas      
 881              		.loc 1 172 0 discriminator 3
 882 046e 97F83330 		ldrb	r3, [r7, #51]	@ zero_extendqisi2
 883 0472 0133     		adds	r3, r3, #1
 884 0474 87F83330 		strb	r3, [r7, #51]
 885              	.L34:
 172:main.c        ****             PumpAddress[y] = GetAddress(y); //Posiciones activas      
 886              		.loc 1 172 0 is_stmt 0 discriminator 1
 887 0478 97F83330 		ldrb	r3, [r7, #51]	@ zero_extendqisi2
 888 047c 0F2B     		cmp	r3, #15
 889 047e EBD9     		bls	.L35
 890              	.LBE2:
 174:main.c        ****         } 
 175:main.c        ****     //}
 176:main.c        ****     
 177:main.c        ****     side.a.dir = PumpAddress[1];
ARM GAS  C:\Users\THERMA~1\AppData\Local\Temp\ccuykYyx.s 			page 20


 891              		.loc 1 177 0 is_stmt 1
 892 0480 3D4B     		ldr	r3, .L114+4
 893 0482 5A78     		ldrb	r2, [r3, #1]	@ zero_extendqisi2
 894 0484 3B4B     		ldr	r3, .L114
 895 0486 1A70     		strb	r2, [r3]
 178:main.c        ****     side.b.dir = PumpAddress[2];
 896              		.loc 1 178 0
 897 0488 3B4B     		ldr	r3, .L114+4
 898 048a 9A78     		ldrb	r2, [r3, #2]	@ zero_extendqisi2
 899 048c 394B     		ldr	r3, .L114
 900 048e 83F82D21 		strb	r2, [r3, #301]
 179:main.c        ****     side.c.dir = PumpAddress[3];
 901              		.loc 1 179 0
 902 0492 394B     		ldr	r3, .L114+4
 903 0494 DA78     		ldrb	r2, [r3, #3]	@ zero_extendqisi2
 904 0496 374B     		ldr	r3, .L114
 905 0498 83F85A22 		strb	r2, [r3, #602]
 180:main.c        ****     side.d.dir = PumpAddress[4]; 
 906              		.loc 1 180 0
 907 049c 364B     		ldr	r3, .L114+4
 908 049e 1A79     		ldrb	r2, [r3, #4]	@ zero_extendqisi2
 909 04a0 344B     		ldr	r3, .L114
 910 04a2 83F88723 		strb	r2, [r3, #903]
 181:main.c        ****     side.a.dir = 0x00;
 911              		.loc 1 181 0
 912 04a6 334B     		ldr	r3, .L114
 913 04a8 0022     		movs	r2, #0
 914 04aa 1A70     		strb	r2, [r3]
 182:main.c        ****     side.b.dir = 0x01;
 915              		.loc 1 182 0
 916 04ac 314B     		ldr	r3, .L114
 917 04ae 0122     		movs	r2, #1
 918 04b0 83F82D21 		strb	r2, [r3, #301]
 183:main.c        ****     TotalRequestType = 0; 
 919              		.loc 1 183 0
 920 04b4 314B     		ldr	r3, .L114+8
 921 04b6 0022     		movs	r2, #0
 922 04b8 1A70     		strb	r2, [r3]
 184:main.c        ****     W_autorize = 0;        
 923              		.loc 1 184 0
 924 04ba 0023     		movs	r3, #0
 925 04bc 87F83630 		strb	r3, [r7, #54]
 185:main.c        ****     LCDhose = 0;
 926              		.loc 1 185 0
 927 04c0 2F4B     		ldr	r3, .L114+12
 928 04c2 0022     		movs	r2, #0
 929 04c4 1A70     		strb	r2, [r3]
 930              	.L107:
 186:main.c        ****     for (;;)
 187:main.c        ****     {
 188:main.c        ****         PollingPos(); 
 931              		.loc 1 188 0
 932 04c6 FFF7FEFF 		bl	PollingPos
 189:main.c        ****         //screen_PutChar(0x5A);
 190:main.c        ****         screen_size = screen_GetRxBufferSize();
 933              		.loc 1 190 0
 934 04ca FFF7FEFF 		bl	screen_GetRxBufferSize
ARM GAS  C:\Users\THERMA~1\AppData\Local\Temp\ccuykYyx.s 			page 21


 935 04ce 0346     		mov	r3, r0
 936 04d0 87F82030 		strb	r3, [r7, #32]
 191:main.c        ****         if(screen_size >= 5 ){
 937              		.loc 1 191 0
 938 04d4 97F82030 		ldrb	r3, [r7, #32]	@ zero_extendqisi2
 939 04d8 042B     		cmp	r3, #4
 940 04da 16D9     		bls	.L36
 941              	.LBB3:
 192:main.c        ****             for(uint8 LCDRx = 0; LCDRx < screen_size; LCDRx++){
 942              		.loc 1 192 0
 943 04dc 0023     		movs	r3, #0
 944 04de 87F83230 		strb	r3, [r7, #50]
 945 04e2 0CE0     		b	.L37
 946              	.L38:
 193:main.c        ****                 touch1[LCDRx] = screen_ReadRxData();
 947              		.loc 1 193 0 discriminator 3
 948 04e4 97F83240 		ldrb	r4, [r7, #50]	@ zero_extendqisi2
 949 04e8 FFF7FEFF 		bl	screen_ReadRxData
 950 04ec 0346     		mov	r3, r0
 951 04ee 1A46     		mov	r2, r3
 952 04f0 244B     		ldr	r3, .L114+16
 953 04f2 1A55     		strb	r2, [r3, r4]
 192:main.c        ****             for(uint8 LCDRx = 0; LCDRx < screen_size; LCDRx++){
 954              		.loc 1 192 0 discriminator 3
 955 04f4 97F83230 		ldrb	r3, [r7, #50]	@ zero_extendqisi2
 956 04f8 0133     		adds	r3, r3, #1
 957 04fa 87F83230 		strb	r3, [r7, #50]
 958              	.L37:
 192:main.c        ****             for(uint8 LCDRx = 0; LCDRx < screen_size; LCDRx++){
 959              		.loc 1 192 0 is_stmt 0 discriminator 1
 960 04fe 97F83220 		ldrb	r2, [r7, #50]	@ zero_extendqisi2
 961 0502 97F82030 		ldrb	r3, [r7, #32]	@ zero_extendqisi2
 962 0506 9A42     		cmp	r2, r3
 963 0508 ECD3     		bcc	.L38
 964              	.L36:
 965              	.LBE3:
 194:main.c        ****             }            
 195:main.c        ****         }
 196:main.c        ****         CyDelay(4);
 966              		.loc 1 196 0 is_stmt 1
 967 050a 0420     		movs	r0, #4
 968 050c FFF7FEFF 		bl	CyDelay
 197:main.c        ****         switch(touch1[8]){
 969              		.loc 1 197 0
 970 0510 1C4B     		ldr	r3, .L114+16
 971 0512 1B7A     		ldrb	r3, [r3, #8]	@ zero_extendqisi2
 972 0514 1C2B     		cmp	r3, #28
 973 0516 25D0     		beq	.L40
 974 0518 1C2B     		cmp	r3, #28
 975 051a 05DC     		bgt	.L41
 976 051c 0A2B     		cmp	r3, #10
 977 051e 58D0     		beq	.L42
 978 0520 0B2B     		cmp	r3, #11
 979 0522 00F0A180 		beq	.L43
 980 0526 3BE1     		b	.L39
 981              	.L41:
 982 0528 CA2B     		cmp	r3, #202
ARM GAS  C:\Users\THERMA~1\AppData\Local\Temp\ccuykYyx.s 			page 22


 983 052a 3CD0     		beq	.L44
 984 052c CC2B     		cmp	r3, #204
 985 052e 00F0EA80 		beq	.L45
 986 0532 AA2B     		cmp	r3, #170
 987 0534 40F03481 		bne	.L39
 198:main.c        ****         	case 0xAA:
 199:main.c        ****         		W_autorize = 1;
 988              		.loc 1 199 0
 989 0538 0123     		movs	r3, #1
 990 053a 87F83630 		strb	r3, [r7, #54]
 991              	.LBB4:
 200:main.c        ****         		for(uint8 LCDRx = 0; LCDRx < 20; LCDRx++){
 992              		.loc 1 200 0
 993 053e 0023     		movs	r3, #0
 994 0540 87F83130 		strb	r3, [r7, #49]
 995 0544 09E0     		b	.L47
 996              	.L48:
 201:main.c        ****         			touch1[LCDRx] = 0x00;
 997              		.loc 1 201 0 discriminator 3
 998 0546 97F83130 		ldrb	r3, [r7, #49]	@ zero_extendqisi2
 999 054a 0E4A     		ldr	r2, .L114+16
 1000 054c 0021     		movs	r1, #0
 1001 054e D154     		strb	r1, [r2, r3]
 200:main.c        ****         		for(uint8 LCDRx = 0; LCDRx < 20; LCDRx++){
 1002              		.loc 1 200 0 discriminator 3
 1003 0550 97F83130 		ldrb	r3, [r7, #49]	@ zero_extendqisi2
 1004 0554 0133     		adds	r3, r3, #1
 1005 0556 87F83130 		strb	r3, [r7, #49]
 1006              	.L47:
 200:main.c        ****         		for(uint8 LCDRx = 0; LCDRx < 20; LCDRx++){
 1007              		.loc 1 200 0 is_stmt 0 discriminator 1
 1008 055a 97F83130 		ldrb	r3, [r7, #49]	@ zero_extendqisi2
 1009 055e 132B     		cmp	r3, #19
 1010 0560 F1D9     		bls	.L48
 1011              	.LBE4:
 202:main.c        ****         		}
 203:main.c        ****         	break;
 1012              		.loc 1 203 0 is_stmt 1
 1013 0562 44E3     		b	.L49
 1014              	.L40:
 204:main.c        ****         	case 0x1C:
 205:main.c        ****         		W_autorize = 2;
 1015              		.loc 1 205 0
 1016 0564 0223     		movs	r3, #2
 1017 0566 87F83630 		strb	r3, [r7, #54]
 1018              	.LBB5:
 206:main.c        ****         		for(uint8 LCDRx = 0; LCDRx < 20; LCDRx++){
 1019              		.loc 1 206 0
 1020 056a 0023     		movs	r3, #0
 1021 056c 87F83030 		strb	r3, [r7, #48]
 1022 0570 14E0     		b	.L50
 1023              	.L115:
 1024 0572 00BF     		.align	2
 1025              	.L114:
 1026 0574 00000000 		.word	side
 1027 0578 00000000 		.word	PumpAddress
 1028 057c 00000000 		.word	TotalRequestType
ARM GAS  C:\Users\THERMA~1\AppData\Local\Temp\ccuykYyx.s 			page 23


 1029 0580 00000000 		.word	LCDhose
 1030 0584 00000000 		.word	touch1
 1031              	.L51:
 207:main.c        ****         			touch1[LCDRx] = 0x00;
 1032              		.loc 1 207 0 discriminator 3
 1033 0588 97F83030 		ldrb	r3, [r7, #48]	@ zero_extendqisi2
 1034 058c C24A     		ldr	r2, .L116
 1035 058e 0021     		movs	r1, #0
 1036 0590 D154     		strb	r1, [r2, r3]
 206:main.c        ****         		for(uint8 LCDRx = 0; LCDRx < 20; LCDRx++){
 1037              		.loc 1 206 0 discriminator 3
 1038 0592 97F83030 		ldrb	r3, [r7, #48]	@ zero_extendqisi2
 1039 0596 0133     		adds	r3, r3, #1
 1040 0598 87F83030 		strb	r3, [r7, #48]
 1041              	.L50:
 206:main.c        ****         		for(uint8 LCDRx = 0; LCDRx < 20; LCDRx++){
 1042              		.loc 1 206 0 is_stmt 0 discriminator 1
 1043 059c 97F83030 		ldrb	r3, [r7, #48]	@ zero_extendqisi2
 1044 05a0 132B     		cmp	r3, #19
 1045 05a2 F1D9     		bls	.L51
 1046              	.LBE5:
 208:main.c        ****         		}		
 209:main.c        ****         	break;
 1047              		.loc 1 209 0 is_stmt 1
 1048 05a4 23E3     		b	.L49
 1049              	.L44:
 210:main.c        ****         	case 0xCA:
 211:main.c        ****         		W_autorize = 3;
 1050              		.loc 1 211 0
 1051 05a6 0323     		movs	r3, #3
 1052 05a8 87F83630 		strb	r3, [r7, #54]
 1053              	.LBB6:
 212:main.c        ****         		for(uint8 LCDRx = 0; LCDRx < 20; LCDRx++){
 1054              		.loc 1 212 0
 1055 05ac 0023     		movs	r3, #0
 1056 05ae 87F82F30 		strb	r3, [r7, #47]
 1057 05b2 09E0     		b	.L52
 1058              	.L53:
 213:main.c        ****         			touch1[LCDRx] = 0x00;
 1059              		.loc 1 213 0 discriminator 3
 1060 05b4 97F82F30 		ldrb	r3, [r7, #47]	@ zero_extendqisi2
 1061 05b8 B74A     		ldr	r2, .L116
 1062 05ba 0021     		movs	r1, #0
 1063 05bc D154     		strb	r1, [r2, r3]
 212:main.c        ****         		for(uint8 LCDRx = 0; LCDRx < 20; LCDRx++){
 1064              		.loc 1 212 0 discriminator 3
 1065 05be 97F82F30 		ldrb	r3, [r7, #47]	@ zero_extendqisi2
 1066 05c2 0133     		adds	r3, r3, #1
 1067 05c4 87F82F30 		strb	r3, [r7, #47]
 1068              	.L52:
 212:main.c        ****         		for(uint8 LCDRx = 0; LCDRx < 20; LCDRx++){
 1069              		.loc 1 212 0 is_stmt 0 discriminator 1
 1070 05c8 97F82F30 		ldrb	r3, [r7, #47]	@ zero_extendqisi2
 1071 05cc 132B     		cmp	r3, #19
 1072 05ce F1D9     		bls	.L53
 1073              	.LBE6:
 214:main.c        ****         		}		
ARM GAS  C:\Users\THERMA~1\AppData\Local\Temp\ccuykYyx.s 			page 24


 215:main.c        ****         	break;
 1074              		.loc 1 215 0 is_stmt 1
 1075 05d0 0DE3     		b	.L49
 1076              	.L42:
 216:main.c        ****         	case 0x0A:
 217:main.c        ****         		if(W_autorize == 1){
 1077              		.loc 1 217 0
 1078 05d2 97F83630 		ldrb	r3, [r7, #54]	@ zero_extendqisi2
 1079 05d6 012B     		cmp	r3, #1
 1080 05d8 19D1     		bne	.L54
 218:main.c        ****         			W_autorize = 0;                    
 1081              		.loc 1 218 0
 1082 05da 0023     		movs	r3, #0
 1083 05dc 87F83630 		strb	r3, [r7, #54]
 219:main.c        ****                     //PriceUpdate(side.a.dir,side.a.ppuNozzle[0]);
 220:main.c        ****                     Authorize(side.a.dir);
 1084              		.loc 1 220 0
 1085 05e0 AE4B     		ldr	r3, .L116+4
 1086 05e2 1B78     		ldrb	r3, [r3]	@ zero_extendqisi2
 1087 05e4 1846     		mov	r0, r3
 1088 05e6 FFF7FEFF 		bl	Authorize
 1089              	.LBB7:
 221:main.c        ****                     for(uint8 LCDRx = 0; LCDRx < 20; LCDRx++){
 1090              		.loc 1 221 0
 1091 05ea 0023     		movs	r3, #0
 1092 05ec 87F82E30 		strb	r3, [r7, #46]
 1093 05f0 09E0     		b	.L55
 1094              	.L56:
 222:main.c        ****                         touch1[LCDRx] = 0x00;
 1095              		.loc 1 222 0 discriminator 3
 1096 05f2 97F82E30 		ldrb	r3, [r7, #46]	@ zero_extendqisi2
 1097 05f6 A84A     		ldr	r2, .L116
 1098 05f8 0021     		movs	r1, #0
 1099 05fa D154     		strb	r1, [r2, r3]
 221:main.c        ****                     for(uint8 LCDRx = 0; LCDRx < 20; LCDRx++){
 1100              		.loc 1 221 0 discriminator 3
 1101 05fc 97F82E30 		ldrb	r3, [r7, #46]	@ zero_extendqisi2
 1102 0600 0133     		adds	r3, r3, #1
 1103 0602 87F82E30 		strb	r3, [r7, #46]
 1104              	.L55:
 221:main.c        ****                     for(uint8 LCDRx = 0; LCDRx < 20; LCDRx++){
 1105              		.loc 1 221 0 is_stmt 0 discriminator 1
 1106 0606 97F82E30 		ldrb	r3, [r7, #46]	@ zero_extendqisi2
 1107 060a 132B     		cmp	r3, #19
 1108 060c F1D9     		bls	.L56
 1109              	.L54:
 1110              	.LBE7:
 223:main.c        ****                     }
 224:main.c        ****         		}
 225:main.c        ****         		if(W_autorize == 2){ 
 1111              		.loc 1 225 0 is_stmt 1
 1112 060e 97F83630 		ldrb	r3, [r7, #54]	@ zero_extendqisi2
 1113 0612 022B     		cmp	r3, #2
 1114 0614 40F0E682 		bne	.L108
 226:main.c        ****                     W_autorize = 0x0A;
 1115              		.loc 1 226 0
 1116 0618 0A23     		movs	r3, #10
ARM GAS  C:\Users\THERMA~1\AppData\Local\Temp\ccuykYyx.s 			page 25


 1117 061a 87F83630 		strb	r3, [r7, #54]
 227:main.c        ****                     PumpState(side.a.dir);            
 1118              		.loc 1 227 0
 1119 061e 9F4B     		ldr	r3, .L116+4
 1120 0620 1B78     		ldrb	r3, [r3]	@ zero_extendqisi2
 1121 0622 1846     		mov	r0, r3
 1122 0624 FFF7FEFF 		bl	PumpState
 228:main.c        ****                     TotalRequest(side.a.dir, TotalRequestType, 1); //dir 0, volume, nozzle 1       
 1123              		.loc 1 228 0
 1124 0628 9C4B     		ldr	r3, .L116+4
 1125 062a 1878     		ldrb	r0, [r3]	@ zero_extendqisi2
 1126 062c 9C4B     		ldr	r3, .L116+8
 1127 062e 1B78     		ldrb	r3, [r3]	@ zero_extendqisi2
 1128 0630 0122     		movs	r2, #1
 1129 0632 1946     		mov	r1, r3
 1130 0634 FFF7FEFF 		bl	TotalRequest
 229:main.c        ****                     PumpState(side.a.dir);
 1131              		.loc 1 229 0
 1132 0638 984B     		ldr	r3, .L116+4
 1133 063a 1B78     		ldrb	r3, [r3]	@ zero_extendqisi2
 1134 063c 1846     		mov	r0, r3
 1135 063e FFF7FEFF 		bl	PumpState
 1136              	.LBB8:
 230:main.c        ****                     for(uint8 LCDRx = 0; LCDRx < 20; LCDRx++){
 1137              		.loc 1 230 0
 1138 0642 0023     		movs	r3, #0
 1139 0644 87F82D30 		strb	r3, [r7, #45]
 1140 0648 09E0     		b	.L58
 1141              	.L59:
 231:main.c        ****                         touch1[LCDRx] = 0x00;
 1142              		.loc 1 231 0 discriminator 3
 1143 064a 97F82D30 		ldrb	r3, [r7, #45]	@ zero_extendqisi2
 1144 064e 924A     		ldr	r2, .L116
 1145 0650 0021     		movs	r1, #0
 1146 0652 D154     		strb	r1, [r2, r3]
 230:main.c        ****                     for(uint8 LCDRx = 0; LCDRx < 20; LCDRx++){
 1147              		.loc 1 230 0 discriminator 3
 1148 0654 97F82D30 		ldrb	r3, [r7, #45]	@ zero_extendqisi2
 1149 0658 0133     		adds	r3, r3, #1
 1150 065a 87F82D30 		strb	r3, [r7, #45]
 1151              	.L58:
 230:main.c        ****                     for(uint8 LCDRx = 0; LCDRx < 20; LCDRx++){
 1152              		.loc 1 230 0 is_stmt 0 discriminator 1
 1153 065e 97F82D30 		ldrb	r3, [r7, #45]	@ zero_extendqisi2
 1154 0662 132B     		cmp	r3, #19
 1155 0664 F1D9     		bls	.L59
 1156              	.LBE8:
 232:main.c        ****                     }
 233:main.c        ****         		}
 234:main.c        ****         	break;
 1157              		.loc 1 234 0 is_stmt 1
 1158 0666 BDE2     		b	.L108
 1159              	.L43:
 235:main.c        ****         	case 0x0B:
 236:main.c        ****         		if(W_autorize == 1){
 1160              		.loc 1 236 0
 1161 0668 97F83630 		ldrb	r3, [r7, #54]	@ zero_extendqisi2
ARM GAS  C:\Users\THERMA~1\AppData\Local\Temp\ccuykYyx.s 			page 26


 1162 066c 012B     		cmp	r3, #1
 1163 066e 1AD1     		bne	.L60
 237:main.c        ****         			W_autorize = 0;
 1164              		.loc 1 237 0
 1165 0670 0023     		movs	r3, #0
 1166 0672 87F83630 		strb	r3, [r7, #54]
 238:main.c        ****                     //PriceUpdate(side.b.dir,side.b.ppuNozzle[0]);
 239:main.c        ****                     Authorize(side.b.dir);
 1167              		.loc 1 239 0
 1168 0676 894B     		ldr	r3, .L116+4
 1169 0678 93F82D31 		ldrb	r3, [r3, #301]	@ zero_extendqisi2
 1170 067c 1846     		mov	r0, r3
 1171 067e FFF7FEFF 		bl	Authorize
 1172              	.LBB9:
 240:main.c        ****                     for(uint8 LCDRx = 0; LCDRx < 20; LCDRx++){
 1173              		.loc 1 240 0
 1174 0682 0023     		movs	r3, #0
 1175 0684 87F82C30 		strb	r3, [r7, #44]
 1176 0688 09E0     		b	.L61
 1177              	.L62:
 241:main.c        ****                         touch1[LCDRx] = 0x00;
 1178              		.loc 1 241 0 discriminator 3
 1179 068a 97F82C30 		ldrb	r3, [r7, #44]	@ zero_extendqisi2
 1180 068e 824A     		ldr	r2, .L116
 1181 0690 0021     		movs	r1, #0
 1182 0692 D154     		strb	r1, [r2, r3]
 240:main.c        ****                     for(uint8 LCDRx = 0; LCDRx < 20; LCDRx++){
 1183              		.loc 1 240 0 discriminator 3
 1184 0694 97F82C30 		ldrb	r3, [r7, #44]	@ zero_extendqisi2
 1185 0698 0133     		adds	r3, r3, #1
 1186 069a 87F82C30 		strb	r3, [r7, #44]
 1187              	.L61:
 240:main.c        ****                     for(uint8 LCDRx = 0; LCDRx < 20; LCDRx++){
 1188              		.loc 1 240 0 is_stmt 0 discriminator 1
 1189 069e 97F82C30 		ldrb	r3, [r7, #44]	@ zero_extendqisi2
 1190 06a2 132B     		cmp	r3, #19
 1191 06a4 F1D9     		bls	.L62
 1192              	.L60:
 1193              	.LBE9:
 242:main.c        ****                     }
 243:main.c        ****         		}
 244:main.c        ****         		if(W_autorize == 2){
 1194              		.loc 1 244 0 is_stmt 1
 1195 06a6 97F83630 		ldrb	r3, [r7, #54]	@ zero_extendqisi2
 1196 06aa 022B     		cmp	r3, #2
 1197 06ac 40F09C82 		bne	.L109
 245:main.c        ****                     W_autorize = 0x0B;
 1198              		.loc 1 245 0
 1199 06b0 0B23     		movs	r3, #11
 1200 06b2 87F83630 		strb	r3, [r7, #54]
 246:main.c        ****                     PumpState(side.b.dir);            
 1201              		.loc 1 246 0
 1202 06b6 794B     		ldr	r3, .L116+4
 1203 06b8 93F82D31 		ldrb	r3, [r3, #301]	@ zero_extendqisi2
 1204 06bc 1846     		mov	r0, r3
 1205 06be FFF7FEFF 		bl	PumpState
 247:main.c        ****                     TotalRequest(side.b.dir, TotalRequestType, 1); //dir 0, volume, nozzle 1       
ARM GAS  C:\Users\THERMA~1\AppData\Local\Temp\ccuykYyx.s 			page 27


 1206              		.loc 1 247 0
 1207 06c2 764B     		ldr	r3, .L116+4
 1208 06c4 93F82D01 		ldrb	r0, [r3, #301]	@ zero_extendqisi2
 1209 06c8 754B     		ldr	r3, .L116+8
 1210 06ca 1B78     		ldrb	r3, [r3]	@ zero_extendqisi2
 1211 06cc 0122     		movs	r2, #1
 1212 06ce 1946     		mov	r1, r3
 1213 06d0 FFF7FEFF 		bl	TotalRequest
 248:main.c        ****                     PumpState(side.b.dir); 
 1214              		.loc 1 248 0
 1215 06d4 714B     		ldr	r3, .L116+4
 1216 06d6 93F82D31 		ldrb	r3, [r3, #301]	@ zero_extendqisi2
 1217 06da 1846     		mov	r0, r3
 1218 06dc FFF7FEFF 		bl	PumpState
 1219              	.LBB10:
 249:main.c        ****                     for(uint8 LCDRx = 0; LCDRx < 20; LCDRx++){
 1220              		.loc 1 249 0
 1221 06e0 0023     		movs	r3, #0
 1222 06e2 87F82B30 		strb	r3, [r7, #43]
 1223 06e6 09E0     		b	.L64
 1224              	.L65:
 250:main.c        ****                         touch1[LCDRx] = 0x00;
 1225              		.loc 1 250 0 discriminator 3
 1226 06e8 97F82B30 		ldrb	r3, [r7, #43]	@ zero_extendqisi2
 1227 06ec 6A4A     		ldr	r2, .L116
 1228 06ee 0021     		movs	r1, #0
 1229 06f0 D154     		strb	r1, [r2, r3]
 249:main.c        ****                     for(uint8 LCDRx = 0; LCDRx < 20; LCDRx++){
 1230              		.loc 1 249 0 discriminator 3
 1231 06f2 97F82B30 		ldrb	r3, [r7, #43]	@ zero_extendqisi2
 1232 06f6 0133     		adds	r3, r3, #1
 1233 06f8 87F82B30 		strb	r3, [r7, #43]
 1234              	.L64:
 249:main.c        ****                     for(uint8 LCDRx = 0; LCDRx < 20; LCDRx++){
 1235              		.loc 1 249 0 is_stmt 0 discriminator 1
 1236 06fc 97F82B30 		ldrb	r3, [r7, #43]	@ zero_extendqisi2
 1237 0700 132B     		cmp	r3, #19
 1238 0702 F1D9     		bls	.L65
 1239              	.LBE10:
 251:main.c        ****                     }                                                               
 252:main.c        ****                 } 
 253:main.c        ****         	break;
 1240              		.loc 1 253 0 is_stmt 1
 1241 0704 70E2     		b	.L109
 1242              	.L45:
 254:main.c        ****         	case 0xCC:
 255:main.c        ****         		PumpState(side.b.dir);            
 1243              		.loc 1 255 0
 1244 0706 654B     		ldr	r3, .L116+4
 1245 0708 93F82D31 		ldrb	r3, [r3, #301]	@ zero_extendqisi2
 1246 070c 1846     		mov	r0, r3
 1247 070e FFF7FEFF 		bl	PumpState
 256:main.c        ****         		TotalRequest(side.b.dir, TotalRequestType, 1); //dir 0, volume, nozzle 1      
 1248              		.loc 1 256 0
 1249 0712 624B     		ldr	r3, .L116+4
 1250 0714 93F82D01 		ldrb	r0, [r3, #301]	@ zero_extendqisi2
 1251 0718 614B     		ldr	r3, .L116+8
ARM GAS  C:\Users\THERMA~1\AppData\Local\Temp\ccuykYyx.s 			page 28


 1252 071a 1B78     		ldrb	r3, [r3]	@ zero_extendqisi2
 1253 071c 0122     		movs	r2, #1
 1254 071e 1946     		mov	r1, r3
 1255 0720 FFF7FEFF 		bl	TotalRequest
 257:main.c        ****                 CyDelay(10);
 1256              		.loc 1 257 0
 1257 0724 0A20     		movs	r0, #10
 1258 0726 FFF7FEFF 		bl	CyDelay
 258:main.c        ****         		PumpState(side.b.dir); 
 1259              		.loc 1 258 0
 1260 072a 5C4B     		ldr	r3, .L116+4
 1261 072c 93F82D31 		ldrb	r3, [r3, #301]	@ zero_extendqisi2
 1262 0730 1846     		mov	r0, r3
 1263 0732 FFF7FEFF 		bl	PumpState
 259:main.c        ****         		PumpState(side.a.dir);            
 1264              		.loc 1 259 0
 1265 0736 594B     		ldr	r3, .L116+4
 1266 0738 1B78     		ldrb	r3, [r3]	@ zero_extendqisi2
 1267 073a 1846     		mov	r0, r3
 1268 073c FFF7FEFF 		bl	PumpState
 260:main.c        ****         		TotalRequest(side.a.dir, TotalRequestType, 1); //dir 0, volume, nozzle 1   
 1269              		.loc 1 260 0
 1270 0740 564B     		ldr	r3, .L116+4
 1271 0742 1878     		ldrb	r0, [r3]	@ zero_extendqisi2
 1272 0744 564B     		ldr	r3, .L116+8
 1273 0746 1B78     		ldrb	r3, [r3]	@ zero_extendqisi2
 1274 0748 0122     		movs	r2, #1
 1275 074a 1946     		mov	r1, r3
 1276 074c FFF7FEFF 		bl	TotalRequest
 261:main.c        ****                 CyDelay(10);
 1277              		.loc 1 261 0
 1278 0750 0A20     		movs	r0, #10
 1279 0752 FFF7FEFF 		bl	CyDelay
 262:main.c        ****         		PumpState(side.a.dir);
 1280              		.loc 1 262 0
 1281 0756 514B     		ldr	r3, .L116+4
 1282 0758 1B78     		ldrb	r3, [r3]	@ zero_extendqisi2
 1283 075a 1846     		mov	r0, r3
 1284 075c FFF7FEFF 		bl	PumpState
 263:main.c        ****                 PumpState(side.b.dir);
 1285              		.loc 1 263 0
 1286 0760 4E4B     		ldr	r3, .L116+4
 1287 0762 93F82D31 		ldrb	r3, [r3, #301]	@ zero_extendqisi2
 1288 0766 1846     		mov	r0, r3
 1289 0768 FFF7FEFF 		bl	PumpState
 264:main.c        ****                 PumpState(side.a.dir);
 1290              		.loc 1 264 0
 1291 076c 4B4B     		ldr	r3, .L116+4
 1292 076e 1B78     		ldrb	r3, [r3]	@ zero_extendqisi2
 1293 0770 1846     		mov	r0, r3
 1294 0772 FFF7FEFF 		bl	PumpState
 1295              	.LBB11:
 265:main.c        ****         		for(uint8 LCDRx = 0; LCDRx < 20; LCDRx++){
 1296              		.loc 1 265 0
 1297 0776 0023     		movs	r3, #0
 1298 0778 87F82A30 		strb	r3, [r7, #42]
 1299 077c 09E0     		b	.L66
ARM GAS  C:\Users\THERMA~1\AppData\Local\Temp\ccuykYyx.s 			page 29


 1300              	.L67:
 266:main.c        ****         			touch1[LCDRx] = 0x00;
 1301              		.loc 1 266 0 discriminator 3
 1302 077e 97F82A30 		ldrb	r3, [r7, #42]	@ zero_extendqisi2
 1303 0782 454A     		ldr	r2, .L116
 1304 0784 0021     		movs	r1, #0
 1305 0786 D154     		strb	r1, [r2, r3]
 265:main.c        ****         		for(uint8 LCDRx = 0; LCDRx < 20; LCDRx++){
 1306              		.loc 1 265 0 discriminator 3
 1307 0788 97F82A30 		ldrb	r3, [r7, #42]	@ zero_extendqisi2
 1308 078c 0133     		adds	r3, r3, #1
 1309 078e 87F82A30 		strb	r3, [r7, #42]
 1310              	.L66:
 265:main.c        ****         		for(uint8 LCDRx = 0; LCDRx < 20; LCDRx++){
 1311              		.loc 1 265 0 is_stmt 0 discriminator 1
 1312 0792 97F82A30 		ldrb	r3, [r7, #42]	@ zero_extendqisi2
 1313 0796 132B     		cmp	r3, #19
 1314 0798 F1D9     		bls	.L67
 1315              	.LBE11:
 267:main.c        ****         		}                        
 268:main.c        ****         		PrintShift(); 
 1316              		.loc 1 268 0 is_stmt 1
 1317 079a FFF7FEFF 		bl	PrintShift
 269:main.c        ****         	break;
 1318              		.loc 1 269 0
 1319 079e 26E2     		b	.L49
 1320              	.L39:
 270:main.c        ****         	default:
 271:main.c        ****                 if(touch1[3] == 0x83 && price_change == 0x0A && touch1[8] != 0xE1){
 1321              		.loc 1 271 0
 1322 07a0 3D4B     		ldr	r3, .L116
 1323 07a2 DB78     		ldrb	r3, [r3, #3]	@ zero_extendqisi2
 1324 07a4 832B     		cmp	r3, #131
 1325 07a6 40F0E480 		bne	.L68
 1326              		.loc 1 271 0 is_stmt 0 discriminator 1
 1327 07aa 97F83430 		ldrb	r3, [r7, #52]	@ zero_extendqisi2
 1328 07ae 0A2B     		cmp	r3, #10
 1329 07b0 40F0DF80 		bne	.L68
 1330              		.loc 1 271 0 discriminator 2
 1331 07b4 384B     		ldr	r3, .L116
 1332 07b6 1B7A     		ldrb	r3, [r3, #8]	@ zero_extendqisi2
 1333 07b8 E12B     		cmp	r3, #225
 1334 07ba 00F0DA80 		beq	.L68
 1335              	.LBB12:
 272:main.c        ****                     for(uint8 LCDRx = 0; LCDRx < 6; LCDRx++){                        
 1336              		.loc 1 272 0 is_stmt 1
 1337 07be 0023     		movs	r3, #0
 1338 07c0 87F82930 		strb	r3, [r7, #41]
 1339 07c4 0BE0     		b	.L69
 1340              	.L70:
 273:main.c        ****                         side.a.ProcessedPPU[0][LCDRx] = 0x30;
 1341              		.loc 1 273 0 discriminator 3
 1342 07c6 97F82930 		ldrb	r3, [r7, #41]	@ zero_extendqisi2
 1343 07ca 344A     		ldr	r2, .L116+4
 1344 07cc 1344     		add	r3, r3, r2
 1345 07ce 3022     		movs	r2, #48
 1346 07d0 83F80B21 		strb	r2, [r3, #267]
ARM GAS  C:\Users\THERMA~1\AppData\Local\Temp\ccuykYyx.s 			page 30


 272:main.c        ****                     for(uint8 LCDRx = 0; LCDRx < 6; LCDRx++){                        
 1347              		.loc 1 272 0 discriminator 3
 1348 07d4 97F82930 		ldrb	r3, [r7, #41]	@ zero_extendqisi2
 1349 07d8 0133     		adds	r3, r3, #1
 1350 07da 87F82930 		strb	r3, [r7, #41]
 1351              	.L69:
 272:main.c        ****                     for(uint8 LCDRx = 0; LCDRx < 6; LCDRx++){                        
 1352              		.loc 1 272 0 is_stmt 0 discriminator 1
 1353 07de 97F82930 		ldrb	r3, [r7, #41]	@ zero_extendqisi2
 1354 07e2 052B     		cmp	r3, #5
 1355 07e4 EFD9     		bls	.L70
 1356              	.LBE12:
 274:main.c        ****             		}
 275:main.c        ****                     y = 0;
 1357              		.loc 1 275 0 is_stmt 1
 1358 07e6 0023     		movs	r3, #0
 1359 07e8 87F83530 		strb	r3, [r7, #53]
 276:main.c        ****                     LCDhose = 0;
 1360              		.loc 1 276 0
 1361 07ec 2D4B     		ldr	r3, .L116+12
 1362 07ee 0022     		movs	r2, #0
 1363 07f0 1A70     		strb	r2, [r3]
 277:main.c        ****                     price_change = 0;
 1364              		.loc 1 277 0
 1365 07f2 0023     		movs	r3, #0
 1366 07f4 87F83430 		strb	r3, [r7, #52]
 1367              	.LBB13:
 278:main.c        ****                     for(uint8 LCDRx = 7; LCDRx < 12; LCDRx++){
 1368              		.loc 1 278 0
 1369 07f8 0723     		movs	r3, #7
 1370 07fa 87F82830 		strb	r3, [r7, #40]
 1371 07fe 21E0     		b	.L71
 1372              	.L73:
 279:main.c        ****                         if((touch1[LCDRx] == 0x00) ||(touch1[LCDRx] == 0xFF))
 1373              		.loc 1 279 0
 1374 0800 97F82830 		ldrb	r3, [r7, #40]	@ zero_extendqisi2
 1375 0804 244A     		ldr	r2, .L116
 1376 0806 D35C     		ldrb	r3, [r2, r3]	@ zero_extendqisi2
 1377 0808 002B     		cmp	r3, #0
 1378 080a 1FD0     		beq	.L72
 1379              		.loc 1 279 0 is_stmt 0 discriminator 1
 1380 080c 97F82830 		ldrb	r3, [r7, #40]	@ zero_extendqisi2
 1381 0810 214A     		ldr	r2, .L116
 1382 0812 D35C     		ldrb	r3, [r2, r3]	@ zero_extendqisi2
 1383 0814 FF2B     		cmp	r3, #255
 1384 0816 19D0     		beq	.L72
 280:main.c        ****                             break;
 281:main.c        ****                         auxPrice[LCDRx-7] = touch1[LCDRx];
 1385              		.loc 1 281 0 is_stmt 1 discriminator 2
 1386 0818 97F82830 		ldrb	r3, [r7, #40]	@ zero_extendqisi2
 1387 081c 073B     		subs	r3, r3, #7
 1388 081e 97F82820 		ldrb	r2, [r7, #40]	@ zero_extendqisi2
 1389 0822 1D49     		ldr	r1, .L116
 1390 0824 8A5C     		ldrb	r2, [r1, r2]	@ zero_extendqisi2
 1391 0826 07F13801 		add	r1, r7, #56
 1392 082a 0B44     		add	r3, r3, r1
 1393 082c 03F8342C 		strb	r2, [r3, #-52]
ARM GAS  C:\Users\THERMA~1\AppData\Local\Temp\ccuykYyx.s 			page 31


 282:main.c        ****                         y++;
 1394              		.loc 1 282 0 discriminator 2
 1395 0830 97F83530 		ldrb	r3, [r7, #53]	@ zero_extendqisi2
 1396 0834 0133     		adds	r3, r3, #1
 1397 0836 87F83530 		strb	r3, [r7, #53]
 278:main.c        ****                         if((touch1[LCDRx] == 0x00) ||(touch1[LCDRx] == 0xFF))
 1398              		.loc 1 278 0 discriminator 2
 1399 083a 97F82830 		ldrb	r3, [r7, #40]	@ zero_extendqisi2
 1400 083e 0133     		adds	r3, r3, #1
 1401 0840 87F82830 		strb	r3, [r7, #40]
 1402              	.L71:
 278:main.c        ****                         if((touch1[LCDRx] == 0x00) ||(touch1[LCDRx] == 0xFF))
 1403              		.loc 1 278 0 is_stmt 0 discriminator 1
 1404 0844 97F82830 		ldrb	r3, [r7, #40]	@ zero_extendqisi2
 1405 0848 0B2B     		cmp	r3, #11
 1406 084a D9D9     		bls	.L73
 1407              	.L72:
 1408              	.LBE13:
 283:main.c        ****             		}
 284:main.c        ****                     for (x = 6; x >0; x--){
 1409              		.loc 1 284 0 is_stmt 1
 1410 084c 0623     		movs	r3, #6
 1411 084e 87F83730 		strb	r3, [r7, #55]
 1412 0852 1BE0     		b	.L74
 1413              	.L77:
 285:main.c        ****                         side.a.ProcessedPPU[0][x] = auxPrice[y];                        
 1414              		.loc 1 285 0
 1415 0854 97F83730 		ldrb	r3, [r7, #55]	@ zero_extendqisi2
 1416 0858 97F83520 		ldrb	r2, [r7, #53]	@ zero_extendqisi2
 1417 085c 07F13801 		add	r1, r7, #56
 1418 0860 0A44     		add	r2, r2, r1
 1419 0862 12F8341C 		ldrb	r1, [r2, #-52]	@ zero_extendqisi2
 1420 0866 0D4A     		ldr	r2, .L116+4
 1421 0868 1344     		add	r3, r3, r2
 1422 086a 0A46     		mov	r2, r1
 1423 086c 83F80B21 		strb	r2, [r3, #267]
 286:main.c        ****                         if(y == 0 )
 1424              		.loc 1 286 0
 1425 0870 97F83530 		ldrb	r3, [r7, #53]	@ zero_extendqisi2
 1426 0874 002B     		cmp	r3, #0
 1427 0876 17D0     		beq	.L110
 287:main.c        ****                             break;
 288:main.c        ****                         y--;
 1428              		.loc 1 288 0 discriminator 2
 1429 0878 97F83530 		ldrb	r3, [r7, #53]	@ zero_extendqisi2
 1430 087c 013B     		subs	r3, r3, #1
 1431 087e 87F83530 		strb	r3, [r7, #53]
 284:main.c        ****                         side.a.ProcessedPPU[0][x] = auxPrice[y];                        
 1432              		.loc 1 284 0 discriminator 2
 1433 0882 97F83730 		ldrb	r3, [r7, #55]	@ zero_extendqisi2
 1434 0886 013B     		subs	r3, r3, #1
 1435 0888 87F83730 		strb	r3, [r7, #55]
 1436              	.L74:
 284:main.c        ****                         side.a.ProcessedPPU[0][x] = auxPrice[y];                        
 1437              		.loc 1 284 0 is_stmt 0 discriminator 1
 1438 088c 97F83730 		ldrb	r3, [r7, #55]	@ zero_extendqisi2
 1439 0890 002B     		cmp	r3, #0
ARM GAS  C:\Users\THERMA~1\AppData\Local\Temp\ccuykYyx.s 			page 32


 1440 0892 DFD1     		bne	.L77
 1441 0894 09E0     		b	.L76
 1442              	.L117:
 1443 0896 00BF     		.align	2
 1444              	.L116:
 1445 0898 00000000 		.word	touch1
 1446 089c 00000000 		.word	side
 1447 08a0 00000000 		.word	TotalRequestType
 1448 08a4 00000000 		.word	LCDhose
 1449              	.L110:
 287:main.c        ****                             break;
 1450              		.loc 1 287 0 is_stmt 1
 1451 08a8 00BF     		nop
 1452              	.L76:
 289:main.c        ****                     }
 290:main.c        ****                     
 291:main.c        ****                     side.a.ppuNozzle[0][0] = ((side.a.ProcessedPPU[0][0] - 0x30)<<4) |((side.a.Proc
 1453              		.loc 1 291 0
 1454 08aa B44B     		ldr	r3, .L118
 1455 08ac 93F80B31 		ldrb	r3, [r3, #267]	@ zero_extendqisi2
 1456 08b0 303B     		subs	r3, r3, #48
 1457 08b2 1B01     		lsls	r3, r3, #4
 1458 08b4 5AB2     		sxtb	r2, r3
 1459 08b6 B14B     		ldr	r3, .L118
 1460 08b8 93F80C31 		ldrb	r3, [r3, #268]	@ zero_extendqisi2
 1461 08bc 303B     		subs	r3, r3, #48
 1462 08be DBB2     		uxtb	r3, r3
 1463 08c0 5BB2     		sxtb	r3, r3
 1464 08c2 1343     		orrs	r3, r3, r2
 1465 08c4 5BB2     		sxtb	r3, r3
 1466 08c6 DAB2     		uxtb	r2, r3
 1467 08c8 AC4B     		ldr	r3, .L118
 1468 08ca 83F82920 		strb	r2, [r3, #41]
 292:main.c        ****                     side.a.ppuNozzle[0][1] = ((side.a.ProcessedPPU[0][2] - 0x30)<<4) |((side.a.Proc
 1469              		.loc 1 292 0
 1470 08ce AB4B     		ldr	r3, .L118
 1471 08d0 93F80D31 		ldrb	r3, [r3, #269]	@ zero_extendqisi2
 1472 08d4 303B     		subs	r3, r3, #48
 1473 08d6 1B01     		lsls	r3, r3, #4
 1474 08d8 5AB2     		sxtb	r2, r3
 1475 08da A84B     		ldr	r3, .L118
 1476 08dc 93F80E31 		ldrb	r3, [r3, #270]	@ zero_extendqisi2
 1477 08e0 303B     		subs	r3, r3, #48
 1478 08e2 DBB2     		uxtb	r3, r3
 1479 08e4 5BB2     		sxtb	r3, r3
 1480 08e6 1343     		orrs	r3, r3, r2
 1481 08e8 5BB2     		sxtb	r3, r3
 1482 08ea DAB2     		uxtb	r2, r3
 1483 08ec A34B     		ldr	r3, .L118
 1484 08ee 83F82A20 		strb	r2, [r3, #42]
 293:main.c        ****                     side.a.ppuNozzle[0][2] = ((side.a.ProcessedPPU[0][4] - 0x30)<<4) |((side.a.Proc
 1485              		.loc 1 293 0
 1486 08f2 A24B     		ldr	r3, .L118
 1487 08f4 93F80F31 		ldrb	r3, [r3, #271]	@ zero_extendqisi2
 1488 08f8 303B     		subs	r3, r3, #48
 1489 08fa 1B01     		lsls	r3, r3, #4
 1490 08fc 5AB2     		sxtb	r2, r3
ARM GAS  C:\Users\THERMA~1\AppData\Local\Temp\ccuykYyx.s 			page 33


 1491 08fe 9F4B     		ldr	r3, .L118
 1492 0900 93F81031 		ldrb	r3, [r3, #272]	@ zero_extendqisi2
 1493 0904 303B     		subs	r3, r3, #48
 1494 0906 DBB2     		uxtb	r3, r3
 1495 0908 5BB2     		sxtb	r3, r3
 1496 090a 1343     		orrs	r3, r3, r2
 1497 090c 5BB2     		sxtb	r3, r3
 1498 090e DAB2     		uxtb	r2, r3
 1499 0910 9A4B     		ldr	r3, .L118
 1500 0912 83F82B20 		strb	r2, [r3, #43]
 294:main.c        ****                     for(x = 0; x < 3; x++){
 1501              		.loc 1 294 0
 1502 0916 0023     		movs	r3, #0
 1503 0918 87F83730 		strb	r3, [r7, #55]
 1504 091c 13E0     		b	.L78
 1505              	.L79:
 295:main.c        ****                         EEPROM_1_WriteByte(side.a.ppuNozzle[0][x],12+x);
 1506              		.loc 1 295 0 discriminator 3
 1507 091e 97F83730 		ldrb	r3, [r7, #55]	@ zero_extendqisi2
 1508 0922 964A     		ldr	r2, .L118
 1509 0924 1344     		add	r3, r3, r2
 1510 0926 93F82920 		ldrb	r2, [r3, #41]	@ zero_extendqisi2
 1511 092a 97F83730 		ldrb	r3, [r7, #55]	@ zero_extendqisi2
 1512 092e 9BB2     		uxth	r3, r3
 1513 0930 0C33     		adds	r3, r3, #12
 1514 0932 9BB2     		uxth	r3, r3
 1515 0934 1946     		mov	r1, r3
 1516 0936 1046     		mov	r0, r2
 1517 0938 FFF7FEFF 		bl	EEPROM_1_WriteByte
 294:main.c        ****                     for(x = 0; x < 3; x++){
 1518              		.loc 1 294 0 discriminator 3
 1519 093c 97F83730 		ldrb	r3, [r7, #55]	@ zero_extendqisi2
 1520 0940 0133     		adds	r3, r3, #1
 1521 0942 87F83730 		strb	r3, [r7, #55]
 1522              	.L78:
 294:main.c        ****                     for(x = 0; x < 3; x++){
 1523              		.loc 1 294 0 is_stmt 0 discriminator 1
 1524 0946 97F83730 		ldrb	r3, [r7, #55]	@ zero_extendqisi2
 1525 094a 022B     		cmp	r3, #2
 1526 094c E7D9     		bls	.L79
 1527              	.LBB14:
 296:main.c        ****                     }                                                            
 297:main.c        ****                     for(uint8 LCDRx = 0; LCDRx < 20; LCDRx++){
 1528              		.loc 1 297 0 is_stmt 1
 1529 094e 0023     		movs	r3, #0
 1530 0950 87F82730 		strb	r3, [r7, #39]
 1531 0954 09E0     		b	.L80
 1532              	.L81:
 298:main.c        ****             			touch1[LCDRx] = 0x00;
 1533              		.loc 1 298 0 discriminator 3
 1534 0956 97F82730 		ldrb	r3, [r7, #39]	@ zero_extendqisi2
 1535 095a 894A     		ldr	r2, .L118+4
 1536 095c 0021     		movs	r1, #0
 1537 095e D154     		strb	r1, [r2, r3]
 297:main.c        ****             			touch1[LCDRx] = 0x00;
 1538              		.loc 1 297 0 discriminator 3
 1539 0960 97F82730 		ldrb	r3, [r7, #39]	@ zero_extendqisi2
ARM GAS  C:\Users\THERMA~1\AppData\Local\Temp\ccuykYyx.s 			page 34


 1540 0964 0133     		adds	r3, r3, #1
 1541 0966 87F82730 		strb	r3, [r7, #39]
 1542              	.L80:
 297:main.c        ****             			touch1[LCDRx] = 0x00;
 1543              		.loc 1 297 0 is_stmt 0 discriminator 1
 1544 096a 97F82730 		ldrb	r3, [r7, #39]	@ zero_extendqisi2
 1545 096e 132B     		cmp	r3, #19
 1546 0970 F1D9     		bls	.L81
 1547              	.L68:
 1548              	.LBE14:
 299:main.c        ****             		}
 300:main.c        ****                 }
 301:main.c        ****                 if(touch1[3] == 0x83 && price_change == 1 ){
 1549              		.loc 1 301 0 is_stmt 1
 1550 0972 834B     		ldr	r3, .L118+4
 1551 0974 DB78     		ldrb	r3, [r3, #3]	@ zero_extendqisi2
 1552 0976 832B     		cmp	r3, #131
 1553 0978 0AD1     		bne	.L82
 1554              		.loc 1 301 0 is_stmt 0 discriminator 1
 1555 097a 97F83430 		ldrb	r3, [r7, #52]	@ zero_extendqisi2
 1556 097e 012B     		cmp	r3, #1
 1557 0980 06D1     		bne	.L82
 302:main.c        ****                     LCDhose = touch1[8];
 1558              		.loc 1 302 0 is_stmt 1
 1559 0982 7F4B     		ldr	r3, .L118+4
 1560 0984 1A7A     		ldrb	r2, [r3, #8]	@ zero_extendqisi2
 1561 0986 7F4B     		ldr	r3, .L118+8
 1562 0988 1A70     		strb	r2, [r3]
 303:main.c        ****                     price_change = 0x0A;
 1563              		.loc 1 303 0
 1564 098a 0A23     		movs	r3, #10
 1565 098c 87F83430 		strb	r3, [r7, #52]
 1566              	.L82:
 304:main.c        ****                 }
 305:main.c        ****         		if(touch1[3] == 0x83 && W_autorize == 3){             
 1567              		.loc 1 305 0
 1568 0990 7B4B     		ldr	r3, .L118+4
 1569 0992 DB78     		ldrb	r3, [r3, #3]	@ zero_extendqisi2
 1570 0994 832B     		cmp	r3, #131
 1571 0996 58D1     		bne	.L83
 1572              		.loc 1 305 0 is_stmt 0 discriminator 1
 1573 0998 97F83630 		ldrb	r3, [r7, #54]	@ zero_extendqisi2
 1574 099c 032B     		cmp	r3, #3
 1575 099e 54D1     		bne	.L83
 306:main.c        ****                     W_autorize = 0;
 1576              		.loc 1 306 0 is_stmt 1
 1577 09a0 0023     		movs	r3, #0
 1578 09a2 87F83630 		strb	r3, [r7, #54]
 307:main.c        ****                     if((touch1[7] == passw[0])&&(touch1[8] == passw[1])&&(touch1[9] == passw[2]) &&
 1579              		.loc 1 307 0
 1580 09a6 764B     		ldr	r3, .L118+4
 1581 09a8 DA79     		ldrb	r2, [r3, #7]	@ zero_extendqisi2
 1582 09aa 3B7F     		ldrb	r3, [r7, #28]	@ zero_extendqisi2
 1583 09ac 9A42     		cmp	r2, r3
 1584 09ae 2CD1     		bne	.L84
 1585              		.loc 1 307 0 is_stmt 0 discriminator 1
 1586 09b0 734B     		ldr	r3, .L118+4
ARM GAS  C:\Users\THERMA~1\AppData\Local\Temp\ccuykYyx.s 			page 35


 1587 09b2 1A7A     		ldrb	r2, [r3, #8]	@ zero_extendqisi2
 1588 09b4 7B7F     		ldrb	r3, [r7, #29]	@ zero_extendqisi2
 1589 09b6 9A42     		cmp	r2, r3
 1590 09b8 27D1     		bne	.L84
 1591              		.loc 1 307 0 discriminator 2
 1592 09ba 714B     		ldr	r3, .L118+4
 1593 09bc 5A7A     		ldrb	r2, [r3, #9]	@ zero_extendqisi2
 1594 09be BB7F     		ldrb	r3, [r7, #30]	@ zero_extendqisi2
 1595 09c0 9A42     		cmp	r2, r3
 1596 09c2 22D1     		bne	.L84
 1597              		.loc 1 307 0 discriminator 3
 1598 09c4 6E4B     		ldr	r3, .L118+4
 1599 09c6 9A7A     		ldrb	r2, [r3, #10]	@ zero_extendqisi2
 1600 09c8 FB7F     		ldrb	r3, [r7, #31]	@ zero_extendqisi2
 1601 09ca 9A42     		cmp	r2, r3
 1602 09cc 1DD1     		bne	.L84
 1603              		.loc 1 307 0 discriminator 4
 1604 09ce 6C4B     		ldr	r3, .L118+4
 1605 09d0 DB7A     		ldrb	r3, [r3, #11]	@ zero_extendqisi2
 1606 09d2 FF2B     		cmp	r3, #255
 1607 09d4 19D1     		bne	.L84
 1608              	.LBB15:
 308:main.c        ****                         for(uint8 LCDRx = 0; LCDRx < 6; LCDRx++){
 1609              		.loc 1 308 0 is_stmt 1
 1610 09d6 0023     		movs	r3, #0
 1611 09d8 87F82630 		strb	r3, [r7, #38]
 1612 09dc 0EE0     		b	.L85
 1613              	.L86:
 309:main.c        ****                             screen_PutChar(change_pic[LCDRx]);
 1614              		.loc 1 309 0 discriminator 3
 1615 09de 97F82630 		ldrb	r3, [r7, #38]	@ zero_extendqisi2
 1616 09e2 07F13802 		add	r2, r7, #56
 1617 09e6 1344     		add	r3, r3, r2
 1618 09e8 13F8243C 		ldrb	r3, [r3, #-36]	@ zero_extendqisi2
 1619 09ec 1846     		mov	r0, r3
 1620 09ee FFF7FEFF 		bl	screen_PutChar
 308:main.c        ****                         for(uint8 LCDRx = 0; LCDRx < 6; LCDRx++){
 1621              		.loc 1 308 0 discriminator 3
 1622 09f2 97F82630 		ldrb	r3, [r7, #38]	@ zero_extendqisi2
 1623 09f6 0133     		adds	r3, r3, #1
 1624 09f8 87F82630 		strb	r3, [r7, #38]
 1625              	.L85:
 308:main.c        ****                         for(uint8 LCDRx = 0; LCDRx < 6; LCDRx++){
 1626              		.loc 1 308 0 is_stmt 0 discriminator 1
 1627 09fc 97F82630 		ldrb	r3, [r7, #38]	@ zero_extendqisi2
 1628 0a00 052B     		cmp	r3, #5
 1629 0a02 ECD9     		bls	.L86
 1630              	.LBE15:
 310:main.c        ****                         }
 311:main.c        ****                         CyDelay(4);
 1631              		.loc 1 311 0 is_stmt 1
 1632 0a04 0420     		movs	r0, #4
 1633 0a06 FFF7FEFF 		bl	CyDelay
 1634              	.L84:
 312:main.c        ****                     }
 313:main.c        ****                     if(touch1[8] == 0x01)
 1635              		.loc 1 313 0
ARM GAS  C:\Users\THERMA~1\AppData\Local\Temp\ccuykYyx.s 			page 36


 1636 0a0a 5D4B     		ldr	r3, .L118+4
 1637 0a0c 1B7A     		ldrb	r3, [r3, #8]	@ zero_extendqisi2
 1638 0a0e 012B     		cmp	r3, #1
 1639 0a10 02D1     		bne	.L87
 314:main.c        ****                         price_change = 1;
 1640              		.loc 1 314 0
 1641 0a12 0123     		movs	r3, #1
 1642 0a14 87F83430 		strb	r3, [r7, #52]
 1643              	.L87:
 315:main.c        ****                     if(touch1[8] == 0x02)
 1644              		.loc 1 315 0
 1645 0a18 594B     		ldr	r3, .L118+4
 1646 0a1a 1B7A     		ldrb	r3, [r3, #8]	@ zero_extendqisi2
 1647 0a1c 022B     		cmp	r3, #2
 1648 0a1e 02D1     		bne	.L88
 316:main.c        ****                         price_change = 2;
 1649              		.loc 1 316 0
 1650 0a20 0223     		movs	r3, #2
 1651 0a22 87F83430 		strb	r3, [r7, #52]
 1652              	.L88:
 1653              	.LBB16:
 317:main.c        ****                     for(uint8 LCDRx = 0; LCDRx < 20; LCDRx++){
 1654              		.loc 1 317 0
 1655 0a26 0023     		movs	r3, #0
 1656 0a28 87F82530 		strb	r3, [r7, #37]
 1657 0a2c 09E0     		b	.L89
 1658              	.L90:
 318:main.c        ****             			touch1[LCDRx] = 0x00;
 1659              		.loc 1 318 0 discriminator 3
 1660 0a2e 97F82530 		ldrb	r3, [r7, #37]	@ zero_extendqisi2
 1661 0a32 534A     		ldr	r2, .L118+4
 1662 0a34 0021     		movs	r1, #0
 1663 0a36 D154     		strb	r1, [r2, r3]
 317:main.c        ****                     for(uint8 LCDRx = 0; LCDRx < 20; LCDRx++){
 1664              		.loc 1 317 0 discriminator 3
 1665 0a38 97F82530 		ldrb	r3, [r7, #37]	@ zero_extendqisi2
 1666 0a3c 0133     		adds	r3, r3, #1
 1667 0a3e 87F82530 		strb	r3, [r7, #37]
 1668              	.L89:
 317:main.c        ****                     for(uint8 LCDRx = 0; LCDRx < 20; LCDRx++){
 1669              		.loc 1 317 0 is_stmt 0 discriminator 1
 1670 0a42 97F82530 		ldrb	r3, [r7, #37]	@ zero_extendqisi2
 1671 0a46 132B     		cmp	r3, #19
 1672 0a48 F1D9     		bls	.L90
 1673              	.L83:
 1674              	.LBE16:
 319:main.c        ****             		}
 320:main.c        ****                 }  
 321:main.c        ****                 if(touch1[3] == 0x83 && W_autorize == 0x0A){             
 1675              		.loc 1 321 0 is_stmt 1
 1676 0a4a 4D4B     		ldr	r3, .L118+4
 1677 0a4c DB78     		ldrb	r3, [r3, #3]	@ zero_extendqisi2
 1678 0a4e 832B     		cmp	r3, #131
 1679 0a50 5DD1     		bne	.L91
 1680              		.loc 1 321 0 is_stmt 0 discriminator 1
 1681 0a52 97F83630 		ldrb	r3, [r7, #54]	@ zero_extendqisi2
 1682 0a56 0A2B     		cmp	r3, #10
ARM GAS  C:\Users\THERMA~1\AppData\Local\Temp\ccuykYyx.s 			page 37


 1683 0a58 59D1     		bne	.L91
 322:main.c        ****                     W_autorize = 0;
 1684              		.loc 1 322 0 is_stmt 1
 1685 0a5a 0023     		movs	r3, #0
 1686 0a5c 87F83630 		strb	r3, [r7, #54]
 1687              	.LBB17:
 323:main.c        ****                     for(uint8 LCDRx = 7; LCDRx < 15; LCDRx++){
 1688              		.loc 1 323 0
 1689 0a60 0723     		movs	r3, #7
 1690 0a62 87F82430 		strb	r3, [r7, #36]
 1691 0a66 37E0     		b	.L92
 1692              	.L96:
 324:main.c        ****                         if((touch1[LCDRx] == 0x00) ||(touch1[LCDRx] == 0xFF))
 1693              		.loc 1 324 0
 1694 0a68 97F82430 		ldrb	r3, [r7, #36]	@ zero_extendqisi2
 1695 0a6c 444A     		ldr	r2, .L118+4
 1696 0a6e D35C     		ldrb	r3, [r2, r3]	@ zero_extendqisi2
 1697 0a70 002B     		cmp	r3, #0
 1698 0a72 35D0     		beq	.L93
 1699              		.loc 1 324 0 is_stmt 0 discriminator 1
 1700 0a74 97F82430 		ldrb	r3, [r7, #36]	@ zero_extendqisi2
 1701 0a78 414A     		ldr	r2, .L118+4
 1702 0a7a D35C     		ldrb	r3, [r2, r3]	@ zero_extendqisi2
 1703 0a7c FF2B     		cmp	r3, #255
 1704 0a7e 2FD0     		beq	.L93
 325:main.c        ****                             break;
 326:main.c        ****                         if(touch1[LCDRx] > 96 && touch1[LCDRx] < 123){
 1705              		.loc 1 326 0 is_stmt 1
 1706 0a80 97F82430 		ldrb	r3, [r7, #36]	@ zero_extendqisi2
 1707 0a84 3E4A     		ldr	r2, .L118+4
 1708 0a86 D35C     		ldrb	r3, [r2, r3]	@ zero_extendqisi2
 1709 0a88 602B     		cmp	r3, #96
 1710 0a8a 14D9     		bls	.L94
 1711              		.loc 1 326 0 is_stmt 0 discriminator 1
 1712 0a8c 97F82430 		ldrb	r3, [r7, #36]	@ zero_extendqisi2
 1713 0a90 3B4A     		ldr	r2, .L118+4
 1714 0a92 D35C     		ldrb	r3, [r2, r3]	@ zero_extendqisi2
 1715 0a94 7A2B     		cmp	r3, #122
 1716 0a96 0ED8     		bhi	.L94
 327:main.c        ****                             side.a.msn_plate[LCDRx-7] = touch1[LCDRx]-0x20;                        
 1717              		.loc 1 327 0 is_stmt 1
 1718 0a98 97F82430 		ldrb	r3, [r7, #36]	@ zero_extendqisi2
 1719 0a9c 073B     		subs	r3, r3, #7
 1720 0a9e 97F82420 		ldrb	r2, [r7, #36]	@ zero_extendqisi2
 1721 0aa2 3749     		ldr	r1, .L118+4
 1722 0aa4 8A5C     		ldrb	r2, [r1, r2]	@ zero_extendqisi2
 1723 0aa6 203A     		subs	r2, r2, #32
 1724 0aa8 D1B2     		uxtb	r1, r2
 1725 0aaa 344A     		ldr	r2, .L118
 1726 0aac 1344     		add	r3, r3, r2
 1727 0aae 0A46     		mov	r2, r1
 1728 0ab0 83F82321 		strb	r2, [r3, #291]
 1729 0ab4 0BE0     		b	.L95
 1730              	.L94:
 328:main.c        ****                         }else{
 329:main.c        ****                             side.a.msn_plate[LCDRx-7] = touch1[LCDRx];
 1731              		.loc 1 329 0
ARM GAS  C:\Users\THERMA~1\AppData\Local\Temp\ccuykYyx.s 			page 38


 1732 0ab6 97F82430 		ldrb	r3, [r7, #36]	@ zero_extendqisi2
 1733 0aba 073B     		subs	r3, r3, #7
 1734 0abc 97F82420 		ldrb	r2, [r7, #36]	@ zero_extendqisi2
 1735 0ac0 2F49     		ldr	r1, .L118+4
 1736 0ac2 895C     		ldrb	r1, [r1, r2]	@ zero_extendqisi2
 1737 0ac4 2D4A     		ldr	r2, .L118
 1738 0ac6 1344     		add	r3, r3, r2
 1739 0ac8 0A46     		mov	r2, r1
 1740 0aca 83F82321 		strb	r2, [r3, #291]
 1741              	.L95:
 323:main.c        ****                         if((touch1[LCDRx] == 0x00) ||(touch1[LCDRx] == 0xFF))
 1742              		.loc 1 323 0 discriminator 2
 1743 0ace 97F82430 		ldrb	r3, [r7, #36]	@ zero_extendqisi2
 1744 0ad2 0133     		adds	r3, r3, #1
 1745 0ad4 87F82430 		strb	r3, [r7, #36]
 1746              	.L92:
 323:main.c        ****                         if((touch1[LCDRx] == 0x00) ||(touch1[LCDRx] == 0xFF))
 1747              		.loc 1 323 0 is_stmt 0 discriminator 1
 1748 0ad8 97F82430 		ldrb	r3, [r7, #36]	@ zero_extendqisi2
 1749 0adc 0E2B     		cmp	r3, #14
 1750 0ade C3D9     		bls	.L96
 1751              	.L93:
 1752              	.LBE17:
 1753              	.LBB18:
 330:main.c        ****                         }
 331:main.c        ****             		}
 332:main.c        ****                     for(uint8 LCDRx = 0; LCDRx < 20; LCDRx++){
 1754              		.loc 1 332 0 is_stmt 1
 1755 0ae0 0023     		movs	r3, #0
 1756 0ae2 87F82330 		strb	r3, [r7, #35]
 1757 0ae6 09E0     		b	.L97
 1758              	.L98:
 333:main.c        ****             			touch1[LCDRx] = 0x00;
 1759              		.loc 1 333 0 discriminator 3
 1760 0ae8 97F82330 		ldrb	r3, [r7, #35]	@ zero_extendqisi2
 1761 0aec 244A     		ldr	r2, .L118+4
 1762 0aee 0021     		movs	r1, #0
 1763 0af0 D154     		strb	r1, [r2, r3]
 332:main.c        ****             			touch1[LCDRx] = 0x00;
 1764              		.loc 1 332 0 discriminator 3
 1765 0af2 97F82330 		ldrb	r3, [r7, #35]	@ zero_extendqisi2
 1766 0af6 0133     		adds	r3, r3, #1
 1767 0af8 87F82330 		strb	r3, [r7, #35]
 1768              	.L97:
 332:main.c        ****             			touch1[LCDRx] = 0x00;
 1769              		.loc 1 332 0 is_stmt 0 discriminator 1
 1770 0afc 97F82330 		ldrb	r3, [r7, #35]	@ zero_extendqisi2
 1771 0b00 132B     		cmp	r3, #19
 1772 0b02 F1D9     		bls	.L98
 1773              	.LBE18:
 334:main.c        ****             		}
 335:main.c        ****                     PrintReceipt(side.a.dir);
 1774              		.loc 1 335 0 is_stmt 1
 1775 0b04 1D4B     		ldr	r3, .L118
 1776 0b06 1B78     		ldrb	r3, [r3]	@ zero_extendqisi2
 1777 0b08 1846     		mov	r0, r3
 1778 0b0a FFF7FEFF 		bl	PrintReceipt
ARM GAS  C:\Users\THERMA~1\AppData\Local\Temp\ccuykYyx.s 			page 39


 1779              	.L91:
 336:main.c        ****                 }
 337:main.c        ****                 if(touch1[3] == 0x83 && W_autorize == 0x0B){             
 1780              		.loc 1 337 0
 1781 0b0e 1C4B     		ldr	r3, .L118+4
 1782 0b10 DB78     		ldrb	r3, [r3, #3]	@ zero_extendqisi2
 1783 0b12 832B     		cmp	r3, #131
 1784 0b14 6AD1     		bne	.L111
 1785              		.loc 1 337 0 is_stmt 0 discriminator 1
 1786 0b16 97F83630 		ldrb	r3, [r7, #54]	@ zero_extendqisi2
 1787 0b1a 0B2B     		cmp	r3, #11
 1788 0b1c 66D1     		bne	.L111
 338:main.c        ****                     W_autorize = 0;
 1789              		.loc 1 338 0 is_stmt 1
 1790 0b1e 0023     		movs	r3, #0
 1791 0b20 87F83630 		strb	r3, [r7, #54]
 1792              	.LBB19:
 339:main.c        ****                     for(uint8 LCDRx = 7; LCDRx < 15; LCDRx++){
 1793              		.loc 1 339 0
 1794 0b24 0723     		movs	r3, #7
 1795 0b26 87F82230 		strb	r3, [r7, #34]
 1796 0b2a 3EE0     		b	.L100
 1797              	.L104:
 340:main.c        ****                         if((touch1[LCDRx] == 0x00) ||(touch1[LCDRx] == 0xFF))
 1798              		.loc 1 340 0
 1799 0b2c 97F82230 		ldrb	r3, [r7, #34]	@ zero_extendqisi2
 1800 0b30 134A     		ldr	r2, .L118+4
 1801 0b32 D35C     		ldrb	r3, [r2, r3]	@ zero_extendqisi2
 1802 0b34 002B     		cmp	r3, #0
 1803 0b36 3CD0     		beq	.L101
 1804              		.loc 1 340 0 is_stmt 0 discriminator 1
 1805 0b38 97F82230 		ldrb	r3, [r7, #34]	@ zero_extendqisi2
 1806 0b3c 104A     		ldr	r2, .L118+4
 1807 0b3e D35C     		ldrb	r3, [r2, r3]	@ zero_extendqisi2
 1808 0b40 FF2B     		cmp	r3, #255
 1809 0b42 36D0     		beq	.L101
 341:main.c        ****                             break;
 342:main.c        ****                         if( touch1[LCDRx] > 96 && touch1[LCDRx] < 123 ){
 1810              		.loc 1 342 0 is_stmt 1
 1811 0b44 97F82230 		ldrb	r3, [r7, #34]	@ zero_extendqisi2
 1812 0b48 0D4A     		ldr	r2, .L118+4
 1813 0b4a D35C     		ldrb	r3, [r2, r3]	@ zero_extendqisi2
 1814 0b4c 602B     		cmp	r3, #96
 1815 0b4e 1BD9     		bls	.L102
 1816              		.loc 1 342 0 is_stmt 0 discriminator 1
 1817 0b50 97F82230 		ldrb	r3, [r7, #34]	@ zero_extendqisi2
 1818 0b54 0A4A     		ldr	r2, .L118+4
 1819 0b56 D35C     		ldrb	r3, [r2, r3]	@ zero_extendqisi2
 1820 0b58 7A2B     		cmp	r3, #122
 1821 0b5a 15D8     		bhi	.L102
 343:main.c        ****                             side.b.msn_plate[LCDRx-7] = touch1[LCDRx]-0x20;
 1822              		.loc 1 343 0 is_stmt 1
 1823 0b5c 97F82230 		ldrb	r3, [r7, #34]	@ zero_extendqisi2
 1824 0b60 073B     		subs	r3, r3, #7
 1825 0b62 97F82220 		ldrb	r2, [r7, #34]	@ zero_extendqisi2
 1826 0b66 0649     		ldr	r1, .L118+4
 1827 0b68 8A5C     		ldrb	r2, [r1, r2]	@ zero_extendqisi2
ARM GAS  C:\Users\THERMA~1\AppData\Local\Temp\ccuykYyx.s 			page 40


 1828 0b6a 203A     		subs	r2, r2, #32
 1829 0b6c D1B2     		uxtb	r1, r2
 1830 0b6e 034A     		ldr	r2, .L118
 1831 0b70 1344     		add	r3, r3, r2
 1832 0b72 0A46     		mov	r2, r1
 1833 0b74 83F85022 		strb	r2, [r3, #592]
 1834 0b78 12E0     		b	.L103
 1835              	.L119:
 1836 0b7a 00BF     		.align	2
 1837              	.L118:
 1838 0b7c 00000000 		.word	side
 1839 0b80 00000000 		.word	touch1
 1840 0b84 00000000 		.word	LCDhose
 1841              	.L102:
 344:main.c        ****                             
 345:main.c        ****                         }else{
 346:main.c        ****                             side.b.msn_plate[LCDRx-7] = touch1[LCDRx];
 1842              		.loc 1 346 0
 1843 0b88 97F82230 		ldrb	r3, [r7, #34]	@ zero_extendqisi2
 1844 0b8c 073B     		subs	r3, r3, #7
 1845 0b8e 97F82220 		ldrb	r2, [r7, #34]	@ zero_extendqisi2
 1846 0b92 1949     		ldr	r1, .L120
 1847 0b94 895C     		ldrb	r1, [r1, r2]	@ zero_extendqisi2
 1848 0b96 194A     		ldr	r2, .L120+4
 1849 0b98 1344     		add	r3, r3, r2
 1850 0b9a 0A46     		mov	r2, r1
 1851 0b9c 83F85022 		strb	r2, [r3, #592]
 1852              	.L103:
 339:main.c        ****                         if((touch1[LCDRx] == 0x00) ||(touch1[LCDRx] == 0xFF))
 1853              		.loc 1 339 0 discriminator 2
 1854 0ba0 97F82230 		ldrb	r3, [r7, #34]	@ zero_extendqisi2
 1855 0ba4 0133     		adds	r3, r3, #1
 1856 0ba6 87F82230 		strb	r3, [r7, #34]
 1857              	.L100:
 339:main.c        ****                         if((touch1[LCDRx] == 0x00) ||(touch1[LCDRx] == 0xFF))
 1858              		.loc 1 339 0 is_stmt 0 discriminator 1
 1859 0baa 97F82230 		ldrb	r3, [r7, #34]	@ zero_extendqisi2
 1860 0bae 0E2B     		cmp	r3, #14
 1861 0bb0 BCD9     		bls	.L104
 1862              	.L101:
 1863              	.LBE19:
 1864              	.LBB20:
 347:main.c        ****                         }
 348:main.c        ****             		}
 349:main.c        ****                     for(uint8 LCDRx = 0; LCDRx < 20; LCDRx++){
 1865              		.loc 1 349 0 is_stmt 1
 1866 0bb2 0023     		movs	r3, #0
 1867 0bb4 87F82130 		strb	r3, [r7, #33]
 1868 0bb8 09E0     		b	.L105
 1869              	.L106:
 350:main.c        ****             			touch1[LCDRx] = 0x00;
 1870              		.loc 1 350 0 discriminator 3
 1871 0bba 97F82130 		ldrb	r3, [r7, #33]	@ zero_extendqisi2
 1872 0bbe 0E4A     		ldr	r2, .L120
 1873 0bc0 0021     		movs	r1, #0
 1874 0bc2 D154     		strb	r1, [r2, r3]
 349:main.c        ****             			touch1[LCDRx] = 0x00;
ARM GAS  C:\Users\THERMA~1\AppData\Local\Temp\ccuykYyx.s 			page 41


 1875              		.loc 1 349 0 discriminator 3
 1876 0bc4 97F82130 		ldrb	r3, [r7, #33]	@ zero_extendqisi2
 1877 0bc8 0133     		adds	r3, r3, #1
 1878 0bca 87F82130 		strb	r3, [r7, #33]
 1879              	.L105:
 349:main.c        ****             			touch1[LCDRx] = 0x00;
 1880              		.loc 1 349 0 is_stmt 0 discriminator 1
 1881 0bce 97F82130 		ldrb	r3, [r7, #33]	@ zero_extendqisi2
 1882 0bd2 132B     		cmp	r3, #19
 1883 0bd4 F1D9     		bls	.L106
 1884              	.LBE20:
 351:main.c        ****             		}
 352:main.c        ****                     PrintReceipt(side.b.dir);
 1885              		.loc 1 352 0 is_stmt 1
 1886 0bd6 094B     		ldr	r3, .L120+4
 1887 0bd8 93F82D31 		ldrb	r3, [r3, #301]	@ zero_extendqisi2
 1888 0bdc 1846     		mov	r0, r3
 1889 0bde FFF7FEFF 		bl	PrintReceipt
 353:main.c        ****                 }
 354:main.c        ****                 
 355:main.c        ****         	break;
 1890              		.loc 1 355 0
 1891 0be2 03E0     		b	.L111
 1892              	.L108:
 234:main.c        ****         	case 0x0B:
 1893              		.loc 1 234 0
 1894 0be4 00BF     		nop
 1895 0be6 02E0     		b	.L49
 1896              	.L109:
 253:main.c        ****         	case 0xCC:
 1897              		.loc 1 253 0
 1898 0be8 00BF     		nop
 1899 0bea 00E0     		b	.L49
 1900              	.L111:
 1901              		.loc 1 355 0
 1902 0bec 00BF     		nop
 1903              	.L49:
 356:main.c        ****         }
 357:main.c        ****         screen_size = 0;
 1904              		.loc 1 357 0
 1905 0bee 0023     		movs	r3, #0
 1906 0bf0 87F82030 		strb	r3, [r7, #32]
 358:main.c        ****     }
 1907              		.loc 1 358 0
 1908 0bf4 67E4     		b	.L107
 1909              	.L121:
 1910 0bf6 00BF     		.align	2
 1911              	.L120:
 1912 0bf8 00000000 		.word	touch1
 1913 0bfc 00000000 		.word	side
 1914              		.cfi_endproc
 1915              	.LFE64:
 1916              		.size	main, .-main
 1917              		.text
 1918              	.Letext0:
 1919              		.file 2 "c:\\program files (x86)\\cypress\\psoc creator\\4.2\\psoc creator\\import\\gnu\\arm\\5.4.
 1920              		.file 3 "c:\\program files (x86)\\cypress\\psoc creator\\4.2\\psoc creator\\import\\gnu\\arm\\5.4.
ARM GAS  C:\Users\THERMA~1\AppData\Local\Temp\ccuykYyx.s 			page 42


 1921              		.file 4 "Generated_Source\\PSoC5/cytypes.h"
 1922              		.file 5 "./GVar.h"
 1923              		.file 6 "Generated_Source\\PSoC5/core_cm3.h"