ARM GAS  C:\Users\Diego\AppData\Local\Temp\cc2hwaET.s 			page 1


   1              		.syntax unified
   2              		.cpu cortex-m3
   3              		.fpu softvfp
   4              		.eabi_attribute 20, 1
   5              		.eabi_attribute 21, 1
   6              		.eabi_attribute 23, 3
   7              		.eabi_attribute 24, 1
   8              		.eabi_attribute 25, 1
   9              		.eabi_attribute 26, 1
  10              		.eabi_attribute 30, 6
  11              		.eabi_attribute 34, 1
  12              		.eabi_attribute 18, 4
  13              		.thumb
  14              		.syntax unified
  15              		.file	"main.c"
  16              		.text
  17              	.Ltext0:
  18              		.cfi_sections	.debug_frame
  19              		.comm	PollCounter,2,2
  20              		.comm	CurrentState,1,1
  21              		.comm	Receipt,1,1
  22              		.comm	sale_number,6,4
  23              		.comm	sale_number_copy,6,4
  24              		.comm	hour_copy,6,4
  25              		.comm	date_copy,6,4
  26              		.comm	int_salenumber,1,1
  27              		.comm	shift_number,6,4
  28              		.comm	int_shiftnumber,1,1
  29              		.comm	LCDhose,1,1
  30              		.comm	side,1236,4
  31              		.comm	MepsanResponse,50,4
  32              		.comm	MepsanSendTo,50,4
  33              		.comm	PumpAddress,15,4
  34              		.comm	CRC,2,2
  35              		.comm	crc_lo,1,1
  36              		.comm	crc_hi,1,1
  37              		.comm	Positions,1,1
  38              		.comm	TotalRequestType,1,1
  39              		.comm	DecVol,1,1
  40              		.comm	touch1,20,4
  41              		.comm	dirGbr,1,1
  42              		.section	.text.PollingPos,"ax",%progbits
  43              		.align	2
  44              		.global	PollingPos
  45              		.thumb
  46              		.thumb_func
  47              		.type	PollingPos, %function
  48              	PollingPos:
  49              	.LFB63:
  50              		.file 1 "main.c"
   1:main.c        **** /******************************************************************************
   2:main.c        **** * File Name: main.c
   3:main.c        **** *
   4:main.c        **** * Version: 1.10
   5:main.c        **** *
   6:main.c        **** * Description: This is the source code for the Blinking LED code example.
   7:main.c        **** *
ARM GAS  C:\Users\Diego\AppData\Local\Temp\cc2hwaET.s 			page 2


   8:main.c        **** * Related Document: CE195352_PSoC_5LP_Blinking_LED.pdf
   9:main.c        **** *
  10:main.c        **** * Hardware Dependency: See CE195352_PSoC_5LP_Blinking_LED.pdf
  11:main.c        **** *
  12:main.c        **** *******************************************************************************
  13:main.c        **** * Copyright (2018), Cypress Semiconductor Corporation. All rights reserved.
  14:main.c        **** *******************************************************************************
  15:main.c        **** * This software, including source code, documentation and related materials
  16:main.c        **** * (“Software”), is owned by Cypress Semiconductor Corporation or one of its
  17:main.c        **** * subsidiaries (“Cypress”) and is protected by and subject to worldwide patent
  18:main.c        **** * protection (United States and foreign), United States copyright laws and
  19:main.c        **** * international treaty provisions. Therefore, you may use this Software only
  20:main.c        **** * as provided in the license agreement accompanying the software package from
  21:main.c        **** * which you obtained this Software (“EULA”).
  22:main.c        **** *
  23:main.c        **** * If no EULA applies, Cypress hereby grants you a personal, nonexclusive,
  24:main.c        **** * non-transferable license to copy, modify, and compile the Software source
  25:main.c        **** * code solely for use in connection with Cypress’s integrated circuit products.
  26:main.c        **** * Any reproduction, modification, translation, compilation, or representation
  27:main.c        **** * of this Software except as specified above is prohibited without the express
  28:main.c        **** * written permission of Cypress.
  29:main.c        **** *
  30:main.c        **** * Disclaimer: THIS SOFTWARE IS PROVIDED AS-IS, WITH NO WARRANTY OF ANY KIND, 
  31:main.c        **** * EXPRESS OR IMPLIED, INCLUDING, BUT NOT LIMITED TO, NONINFRINGEMENT, IMPLIED 
  32:main.c        **** * WARRANTIES OF MERCHANTABILITY AND FITNESS FOR A PARTICULAR PURPOSE. Cypress 
  33:main.c        **** * reserves the right to make changes to the Software without notice. Cypress 
  34:main.c        **** * does not assume any liability arising out of the application or use of the 
  35:main.c        **** * Software or any product or circuit described in the Software. Cypress does 
  36:main.c        **** * not authorize its products for use in any products where a malfunction or 
  37:main.c        **** * failure of the Cypress product may reasonably be expected to result in 
  38:main.c        **** * significant property damage, injury or death (“High Risk Product”). By 
  39:main.c        **** * including Cypress’s product in a High Risk Product, the manufacturer of such 
  40:main.c        **** * system or application assumes all risk of such use and in doing so agrees to 
  41:main.c        **** * indemnify Cypress against all liability.
  42:main.c        **** *******************************************************************************/
  43:main.c        **** 
  44:main.c        **** #include <project.h>
  45:main.c        **** #include <GVar.h>
  46:main.c        **** #include <PumpCom.h>
  47:main.c        **** #include <Gbr.h>
  48:main.c        **** #include <printer.h>
  49:main.c        **** 
  50:main.c        **** //DIESEL EXTRA CORRIENTE
  51:main.c        **** //CORRIENTE EXTRA DIESEL
  52:main.c        **** 
  53:main.c        **** void PollingPos(void){
  51              		.loc 1 53 0
  52              		.cfi_startproc
  53              		@ args = 0, pretend = 0, frame = 0
  54              		@ frame_needed = 1, uses_anonymous_args = 0
  55 0000 80B5     		push	{r7, lr}
  56              		.cfi_def_cfa_offset 8
  57              		.cfi_offset 7, -8
  58              		.cfi_offset 14, -4
  59 0002 00AF     		add	r7, sp, #0
  60              		.cfi_def_cfa_register 7
  54:main.c        ****     uint8 x;
ARM GAS  C:\Users\Diego\AppData\Local\Temp\cc2hwaET.s 			page 3


  55:main.c        ****     if(side.a.dir != 0xFF && side.b.dir == 0xFF){
  61              		.loc 1 55 0
  62 0004 274B     		ldr	r3, .L8
  63 0006 1B78     		ldrb	r3, [r3]	@ zero_extendqisi2
  64 0008 FF2B     		cmp	r3, #255
  65 000a 07D0     		beq	.L2
  66              		.loc 1 55 0 is_stmt 0 discriminator 1
  67 000c 254B     		ldr	r3, .L8
  68 000e 93F83531 		ldrb	r3, [r3, #309]	@ zero_extendqisi2
  69 0012 FF2B     		cmp	r3, #255
  70 0014 02D1     		bne	.L2
  56:main.c        ****         Positions = 1;
  71              		.loc 1 56 0 is_stmt 1
  72 0016 244B     		ldr	r3, .L8+4
  73 0018 0122     		movs	r2, #1
  74 001a 1A70     		strb	r2, [r3]
  75              	.L2:
  57:main.c        ****     }
  58:main.c        ****     if(side.a.dir != 0xFF && side.b.dir != 0xFF){
  76              		.loc 1 58 0
  77 001c 214B     		ldr	r3, .L8
  78 001e 1B78     		ldrb	r3, [r3]	@ zero_extendqisi2
  79 0020 FF2B     		cmp	r3, #255
  80 0022 07D0     		beq	.L3
  81              		.loc 1 58 0 is_stmt 0 discriminator 1
  82 0024 1F4B     		ldr	r3, .L8
  83 0026 93F83531 		ldrb	r3, [r3, #309]	@ zero_extendqisi2
  84 002a FF2B     		cmp	r3, #255
  85 002c 02D0     		beq	.L3
  59:main.c        ****         Positions = 2;
  86              		.loc 1 59 0 is_stmt 1
  87 002e 1E4B     		ldr	r3, .L8+4
  88 0030 0222     		movs	r2, #2
  89 0032 1A70     		strb	r2, [r3]
  90              	.L3:
  60:main.c        ****     }
  61:main.c        **** //    if(side.c.dir != 0xFF && side.d.dir == 0xFF){
  62:main.c        **** //        Positions = 3;
  63:main.c        **** //    }
  64:main.c        **** //    if(side.c.dir != 0xFF && side.d.dir != 0xFF){
  65:main.c        **** //        Positions = 4;
  66:main.c        **** //    }
  67:main.c        **** //    if(Positions == 1){       
  68:main.c        **** //        side.a.states[0] = PumpState(side.a.dir);                                    
  69:main.c        **** //        //ReturnStatus(side.a.dir);        
  70:main.c        **** //    }
  71:main.c        ****     if(Positions == 2){
  91              		.loc 1 71 0
  92 0034 1C4B     		ldr	r3, .L8+4
  93 0036 1B78     		ldrb	r3, [r3]	@ zero_extendqisi2
  94 0038 022B     		cmp	r3, #2
  95 003a 31D1     		bne	.L7
  72:main.c        ****         if(side.a.MepRequest == MEPSAN_AUTHORIZE){
  96              		.loc 1 72 0
  97 003c 194B     		ldr	r3, .L8
  98 003e 93F82B31 		ldrb	r3, [r3, #299]	@ zero_extendqisi2
  99 0042 062B     		cmp	r3, #6
ARM GAS  C:\Users\Diego\AppData\Local\Temp\cc2hwaET.s 			page 4


 100 0044 08D1     		bne	.L5
  73:main.c        ****             Authorize(side.a.dir);
 101              		.loc 1 73 0
 102 0046 174B     		ldr	r3, .L8
 103 0048 1B78     		ldrb	r3, [r3]	@ zero_extendqisi2
 104 004a 1846     		mov	r0, r3
 105 004c FFF7FEFF 		bl	Authorize
  74:main.c        ****             side.a.Copy = 0;
 106              		.loc 1 74 0
 107 0050 144B     		ldr	r3, .L8
 108 0052 0022     		movs	r2, #0
 109 0054 83F83421 		strb	r2, [r3, #308]
 110              	.L5:
  75:main.c        ****         }
  76:main.c        ****         if(side.b.MepRequest == MEPSAN_AUTHORIZE){
 111              		.loc 1 76 0
 112 0058 124B     		ldr	r3, .L8
 113 005a 93F86032 		ldrb	r3, [r3, #608]	@ zero_extendqisi2
 114 005e 062B     		cmp	r3, #6
 115 0060 09D1     		bne	.L6
  77:main.c        ****             Authorize(side.b.dir);
 116              		.loc 1 77 0
 117 0062 104B     		ldr	r3, .L8
 118 0064 93F83531 		ldrb	r3, [r3, #309]	@ zero_extendqisi2
 119 0068 1846     		mov	r0, r3
 120 006a FFF7FEFF 		bl	Authorize
  78:main.c        ****             side.b.Copy = 0;
 121              		.loc 1 78 0
 122 006e 0D4B     		ldr	r3, .L8
 123 0070 0022     		movs	r2, #0
 124 0072 83F86922 		strb	r2, [r3, #617]
 125              	.L6:
  79:main.c        ****         }
  80:main.c        ****         side.a.states[0] = PumpState(side.a.dir);
 126              		.loc 1 80 0
 127 0076 0B4B     		ldr	r3, .L8
 128 0078 1B78     		ldrb	r3, [r3]	@ zero_extendqisi2
 129 007a 1846     		mov	r0, r3
 130 007c FFF7FEFF 		bl	PumpState
 131 0080 0346     		mov	r3, r0
 132 0082 1A46     		mov	r2, r3
 133 0084 074B     		ldr	r3, .L8
 134 0086 83F84C20 		strb	r2, [r3, #76]
  81:main.c        ****         side.b.states[0] = PumpState(side.b.dir);        
 135              		.loc 1 81 0
 136 008a 064B     		ldr	r3, .L8
 137 008c 93F83531 		ldrb	r3, [r3, #309]	@ zero_extendqisi2
 138 0090 1846     		mov	r0, r3
 139 0092 FFF7FEFF 		bl	PumpState
 140 0096 0346     		mov	r3, r0
 141 0098 1A46     		mov	r2, r3
 142 009a 024B     		ldr	r3, .L8
 143 009c 83F88121 		strb	r2, [r3, #385]
 144              	.L7:
  82:main.c        ****                     
  83:main.c        ****     }
  84:main.c        **** //    if(Positions == 3){                            
ARM GAS  C:\Users\Diego\AppData\Local\Temp\cc2hwaET.s 			page 5


  85:main.c        **** //        if(side.a.MepRequest == MEPSAN_AUTHORIZE){
  86:main.c        **** //            Authorize(side.a.dir);
  87:main.c        **** //            side.a.Copy = 0;
  88:main.c        **** //        }
  89:main.c        **** //        if(side.b.MepRequest == MEPSAN_AUTHORIZE){
  90:main.c        **** //            Authorize(side.b.dir);
  91:main.c        **** //            side.b.Copy = 0;
  92:main.c        **** //        }
  93:main.c        **** //        if(side.c.MepRequest == MEPSAN_AUTHORIZE){
  94:main.c        **** //            Authorize(side.c.dir);
  95:main.c        **** //            side.c.Copy = 0;
  96:main.c        **** //        }
  97:main.c        **** //        side.a.states[0] = PumpState(side.a.dir);
  98:main.c        **** //        side.b.states[0] = PumpState(side.b.dir);
  99:main.c        **** //        side.c.states[0] = PumpState(side.c.dir);
 100:main.c        **** //        
 101:main.c        **** //    }
 102:main.c        **** //    if(Positions == 4){
 103:main.c        **** //        if(side.a.MepRequest == MEPSAN_AUTHORIZE){
 104:main.c        **** //            Authorize(side.a.dir);
 105:main.c        **** //            side.a.Copy = 0;
 106:main.c        **** //        }
 107:main.c        **** //        if(side.b.MepRequest == MEPSAN_AUTHORIZE){
 108:main.c        **** //            Authorize(side.b.dir);
 109:main.c        **** //            side.b.Copy = 0;
 110:main.c        **** //        }
 111:main.c        **** //        if(side.c.MepRequest == MEPSAN_AUTHORIZE){
 112:main.c        **** //            Authorize(side.c.dir);
 113:main.c        **** //            side.c.Copy = 0;
 114:main.c        **** //        }
 115:main.c        **** //        if(side.d.MepRequest == MEPSAN_AUTHORIZE){
 116:main.c        **** //            Authorize(side.d.dir);
 117:main.c        **** //            side.d.Copy = 0;
 118:main.c        **** //        }
 119:main.c        **** //        side.a.states[0] = PumpState(side.a.dir);
 120:main.c        **** //        side.b.states[0] = PumpState(side.b.dir);
 121:main.c        **** //        side.c.states[0] = PumpState(side.c.dir);
 122:main.c        **** //        side.d.states[0] = PumpState(side.d.dir);
 123:main.c        **** //        
 124:main.c        **** //    } 
 125:main.c        **** 
 126:main.c        **** }
 145              		.loc 1 126 0
 146 00a0 00BF     		nop
 147 00a2 80BD     		pop	{r7, pc}
 148              	.L9:
 149              		.align	2
 150              	.L8:
 151 00a4 00000000 		.word	side
 152 00a8 00000000 		.word	Positions
 153              		.cfi_endproc
 154              	.LFE63:
 155              		.size	PollingPos, .-PollingPos
 156              		.section	.rodata
 157              		.align	2
 158              	.LC0:
 159 0000 31       		.byte	49
ARM GAS  C:\Users\Diego\AppData\Local\Temp\cc2hwaET.s 			page 6


 160 0001 32       		.byte	50
 161 0002 33       		.byte	51
 162 0003 34       		.byte	52
 163              		.align	2
 164              	.LC1:
 165 0004 5A       		.byte	90
 166 0005 A5       		.byte	-91
 167 0006 04       		.byte	4
 168 0007 80       		.byte	-128
 169 0008 03       		.byte	3
 170 0009 00       		.byte	0
 171 000a 06       		.byte	6
 172 000b 00       		.align	2
 173              	.LC2:
 174 000c 5A       		.byte	90
 175 000d A5       		.byte	-91
 176 000e 04       		.byte	4
 177 000f 80       		.byte	-128
 178 0010 03       		.byte	3
 179 0011 00       		.byte	0
 180 0012 09       		.byte	9
 181              		.section	.text.main,"ax",%progbits
 182              		.align	2
 183              		.global	main
 184              		.thumb
 185              		.thumb_func
 186              		.type	main, %function
 187              	main:
 188              	.LFB64:
 127:main.c        **** 
 128:main.c        **** /*******************************************************************************
 129:main.c        **** * Function Name: main
 130:main.c        **** ********************************************************************************
 131:main.c        **** *
 132:main.c        **** *
 133:main.c        **** *******************************************************************************/
 134:main.c        **** 
 135:main.c        **** int main()
 136:main.c        **** {
 189              		.loc 1 136 0
 190              		.cfi_startproc
 191              		@ args = 0, pretend = 0, frame = 88
 192              		@ frame_needed = 1, uses_anonymous_args = 0
 193 0000 90B5     		push	{r4, r7, lr}
 194              		.cfi_def_cfa_offset 12
 195              		.cfi_offset 4, -12
 196              		.cfi_offset 7, -8
 197              		.cfi_offset 14, -4
 198 0002 97B0     		sub	sp, sp, #92
 199              		.cfi_def_cfa_offset 104
 200 0004 00AF     		add	r7, sp, #0
 201              		.cfi_def_cfa_register 7
 137:main.c        ****     /* Prepare components */
 138:main.c        ****     uint8 x,screen_size,W_autorize,y,temp;
 139:main.c        ****     uint8 passw[4]={'1','2','3','4'};
 202              		.loc 1 139 0
 203 0006 C84A     		ldr	r2, .L209
ARM GAS  C:\Users\Diego\AppData\Local\Temp\cc2hwaET.s 			page 7


 204 0008 07F11C03 		add	r3, r7, #28
 205 000c 1068     		ldr	r0, [r2]	@ unaligned
 206 000e 1860     		str	r0, [r3]	@ unaligned
 140:main.c        ****     uint8 change_pic[]={0x5A,0xA5,0x04,0x80,0x03,0x00,0x06};
 207              		.loc 1 140 0
 208 0010 C64A     		ldr	r2, .L209+4
 209 0012 07F11403 		add	r3, r7, #20
 210 0016 1068     		ldr	r0, [r2]	@ unaligned
 211 0018 1860     		str	r0, [r3]	@ unaligned
 212 001a 9188     		ldrh	r1, [r2, #4]	@ unaligned
 213 001c 9279     		ldrb	r2, [r2, #6]
 214 001e 9980     		strh	r1, [r3, #4]	@ unaligned
 215 0020 9A71     		strb	r2, [r3, #6]
 141:main.c        ****     uint8 change_pic2[]={0x5A,0xA5,0x04,0x80,0x03,0x00,0x09};
 216              		.loc 1 141 0
 217 0022 C34A     		ldr	r2, .L209+8
 218 0024 07F10C03 		add	r3, r7, #12
 219 0028 1068     		ldr	r0, [r2]	@ unaligned
 220 002a 1860     		str	r0, [r3]	@ unaligned
 221 002c 9188     		ldrh	r1, [r2, #4]	@ unaligned
 222 002e 9279     		ldrb	r2, [r2, #6]
 223 0030 9980     		strh	r1, [r3, #4]	@ unaligned
 224 0032 9A71     		strb	r2, [r3, #6]
 142:main.c        ****     uint8 price_change;
 143:main.c        ****     uint8 auxPrice[5];
 144:main.c        ****     DecVol = 3;
 225              		.loc 1 144 0
 226 0034 BF4B     		ldr	r3, .L209+12
 227 0036 0322     		movs	r2, #3
 228 0038 1A70     		strb	r2, [r3]
 145:main.c        ****     CyDelay(2500);
 229              		.loc 1 145 0
 230 003a 40F6C410 		movw	r0, #2500
 231 003e FFF7FEFF 		bl	CyDelay
 146:main.c        ****     PWM_1_Start(); 
 232              		.loc 1 146 0
 233 0042 FFF7FEFF 		bl	PWM_1_Start
 147:main.c        ****     CyGlobalIntEnable;
 234              		.loc 1 147 0
 235              		.syntax unified
 236              	@ 147 "main.c" 1
 237 0046 62B6     		CPSIE   i
 238              	@ 0 "" 2
 148:main.c        ****     MEPSAN_Start();
 239              		.loc 1 148 0
 240              		.thumb
 241              		.syntax unified
 242 0048 FFF7FEFF 		bl	MEPSAN_Start
 149:main.c        ****     GBCL_Start();
 243              		.loc 1 149 0
 244 004c FFF7FEFF 		bl	GBCL_Start
 150:main.c        ****     PRINTER_A_Start();
 245              		.loc 1 150 0
 246 0050 FFF7FEFF 		bl	PRINTER_A_Start
 151:main.c        ****     screen_Start();
 247              		.loc 1 151 0
 248 0054 FFF7FEFF 		bl	screen_Start
ARM GAS  C:\Users\Diego\AppData\Local\Temp\cc2hwaET.s 			page 8


 152:main.c        ****     EEPROM_1_Start();
 249              		.loc 1 152 0
 250 0058 FFF7FEFF 		bl	EEPROM_1_Start
 153:main.c        ****     side.a.Copy = 0;
 251              		.loc 1 153 0
 252 005c B64B     		ldr	r3, .L209+16
 253 005e 0022     		movs	r2, #0
 254 0060 83F83421 		strb	r2, [r3, #308]
 154:main.c        ****     side.b.Copy = 0;
 255              		.loc 1 154 0
 256 0064 B44B     		ldr	r3, .L209+16
 257 0066 0022     		movs	r2, #0
 258 0068 83F86922 		strb	r2, [r3, #617]
 155:main.c        **** //    side.c.Copy = 0;
 156:main.c        **** //    side.d.Copy = 0;
 157:main.c        **** 
 158:main.c        ****     if(EEPROM_1_ReadByte(0) == 0x5A){
 259              		.loc 1 158 0
 260 006c 0020     		movs	r0, #0
 261 006e FFF7FEFF 		bl	EEPROM_1_ReadByte
 262 0072 0346     		mov	r3, r0
 263 0074 5A2B     		cmp	r3, #90
 264 0076 19D1     		bne	.L11
 159:main.c        ****         for(x=0;x<6;x++){
 265              		.loc 1 159 0
 266 0078 0023     		movs	r3, #0
 267 007a 87F85730 		strb	r3, [r7, #87]
 268 007e 10E0     		b	.L12
 269              	.L13:
 160:main.c        ****     		sale_number[x]=EEPROM_1_ReadByte(x);
 270              		.loc 1 160 0 discriminator 3
 271 0080 97F85740 		ldrb	r4, [r7, #87]	@ zero_extendqisi2
 272 0084 97F85730 		ldrb	r3, [r7, #87]	@ zero_extendqisi2
 273 0088 9BB2     		uxth	r3, r3
 274 008a 1846     		mov	r0, r3
 275 008c FFF7FEFF 		bl	EEPROM_1_ReadByte
 276 0090 0346     		mov	r3, r0
 277 0092 1A46     		mov	r2, r3
 278 0094 A94B     		ldr	r3, .L209+20
 279 0096 1A55     		strb	r2, [r3, r4]
 159:main.c        ****         for(x=0;x<6;x++){
 280              		.loc 1 159 0 discriminator 3
 281 0098 97F85730 		ldrb	r3, [r7, #87]	@ zero_extendqisi2
 282 009c 0133     		adds	r3, r3, #1
 283 009e 87F85730 		strb	r3, [r7, #87]
 284              	.L12:
 159:main.c        ****         for(x=0;x<6;x++){
 285              		.loc 1 159 0 is_stmt 0 discriminator 1
 286 00a2 97F85730 		ldrb	r3, [r7, #87]	@ zero_extendqisi2
 287 00a6 052B     		cmp	r3, #5
 288 00a8 EAD9     		bls	.L13
 289 00aa 15E0     		b	.L14
 290              	.L11:
 161:main.c        ****     	}
 162:main.c        ****     }else{
 163:main.c        ****         EEPROM_1_WriteByte(0x5A,0);
 291              		.loc 1 163 0 is_stmt 1
ARM GAS  C:\Users\Diego\AppData\Local\Temp\cc2hwaET.s 			page 9


 292 00ac 0021     		movs	r1, #0
 293 00ae 5A20     		movs	r0, #90
 294 00b0 FFF7FEFF 		bl	EEPROM_1_WriteByte
 164:main.c        ****         for(x=1;x<6;x++){
 295              		.loc 1 164 0
 296 00b4 0123     		movs	r3, #1
 297 00b6 87F85730 		strb	r3, [r7, #87]
 298 00ba 09E0     		b	.L15
 299              	.L16:
 165:main.c        ****     		sale_number[x]='0';
 300              		.loc 1 165 0 discriminator 3
 301 00bc 97F85730 		ldrb	r3, [r7, #87]	@ zero_extendqisi2
 302 00c0 9E4A     		ldr	r2, .L209+20
 303 00c2 3021     		movs	r1, #48
 304 00c4 D154     		strb	r1, [r2, r3]
 164:main.c        ****         for(x=1;x<6;x++){
 305              		.loc 1 164 0 discriminator 3
 306 00c6 97F85730 		ldrb	r3, [r7, #87]	@ zero_extendqisi2
 307 00ca 0133     		adds	r3, r3, #1
 308 00cc 87F85730 		strb	r3, [r7, #87]
 309              	.L15:
 164:main.c        ****         for(x=1;x<6;x++){
 310              		.loc 1 164 0 is_stmt 0 discriminator 1
 311 00d0 97F85730 		ldrb	r3, [r7, #87]	@ zero_extendqisi2
 312 00d4 052B     		cmp	r3, #5
 313 00d6 F1D9     		bls	.L16
 314              	.L14:
 166:main.c        ****     	}
 167:main.c        ****     }
 168:main.c        ****     int_salenumber=((sale_number[5]&0x0F)*10000)+((sale_number[4]&0x0F)*1000)+((sale_number[3]&0x0F
 315              		.loc 1 168 0 is_stmt 1
 316 00d8 984B     		ldr	r3, .L209+20
 317 00da 5B79     		ldrb	r3, [r3, #5]	@ zero_extendqisi2
 318 00dc 03F00F03 		and	r3, r3, #15
 319 00e0 DBB2     		uxtb	r3, r3
 320 00e2 1B01     		lsls	r3, r3, #4
 321 00e4 DAB2     		uxtb	r2, r3
 322 00e6 954B     		ldr	r3, .L209+20
 323 00e8 1B79     		ldrb	r3, [r3, #4]	@ zero_extendqisi2
 324 00ea 03F00F03 		and	r3, r3, #15
 325 00ee DBB2     		uxtb	r3, r3
 326 00f0 1946     		mov	r1, r3
 327 00f2 9B00     		lsls	r3, r3, #2
 328 00f4 CB1A     		subs	r3, r1, r3
 329 00f6 DB00     		lsls	r3, r3, #3
 330 00f8 DBB2     		uxtb	r3, r3
 331 00fa 1344     		add	r3, r3, r2
 332 00fc DAB2     		uxtb	r2, r3
 333 00fe 8F4B     		ldr	r3, .L209+20
 334 0100 9B78     		ldrb	r3, [r3, #2]	@ zero_extendqisi2
 335 0102 03F00F03 		and	r3, r3, #15
 336 0106 DBB2     		uxtb	r3, r3
 337 0108 1946     		mov	r1, r3
 338 010a 8900     		lsls	r1, r1, #2
 339 010c 0B44     		add	r3, r3, r1
 340 010e 5B00     		lsls	r3, r3, #1
 341 0110 D9B2     		uxtb	r1, r3
ARM GAS  C:\Users\Diego\AppData\Local\Temp\cc2hwaET.s 			page 10


 342 0112 8A4B     		ldr	r3, .L209+20
 343 0114 DB78     		ldrb	r3, [r3, #3]	@ zero_extendqisi2
 344 0116 03F00F03 		and	r3, r3, #15
 345 011a DBB2     		uxtb	r3, r3
 346 011c 1846     		mov	r0, r3
 347 011e 8000     		lsls	r0, r0, #2
 348 0120 0344     		add	r3, r3, r0
 349 0122 1846     		mov	r0, r3
 350 0124 8400     		lsls	r4, r0, #2
 351 0126 1846     		mov	r0, r3
 352 0128 2346     		mov	r3, r4
 353 012a 0344     		add	r3, r3, r0
 354 012c 9B00     		lsls	r3, r3, #2
 355 012e DBB2     		uxtb	r3, r3
 356 0130 0B44     		add	r3, r3, r1
 357 0132 DBB2     		uxtb	r3, r3
 358 0134 1344     		add	r3, r3, r2
 359 0136 DAB2     		uxtb	r2, r3
 360 0138 804B     		ldr	r3, .L209+20
 361 013a 5B78     		ldrb	r3, [r3, #1]	@ zero_extendqisi2
 362 013c 03F00F03 		and	r3, r3, #15
 363 0140 DBB2     		uxtb	r3, r3
 364 0142 1344     		add	r3, r3, r2
 365 0144 DAB2     		uxtb	r2, r3
 366 0146 7E4B     		ldr	r3, .L209+24
 367 0148 1A70     		strb	r2, [r3]
 169:main.c        ****     if(EEPROM_1_ReadByte(6) == 0x5A){
 368              		.loc 1 169 0
 369 014a 0620     		movs	r0, #6
 370 014c FFF7FEFF 		bl	EEPROM_1_ReadByte
 371 0150 0346     		mov	r3, r0
 372 0152 5A2B     		cmp	r3, #90
 373 0154 1CD1     		bne	.L17
 170:main.c        ****         for(x=0;x<6;x++){
 374              		.loc 1 170 0
 375 0156 0023     		movs	r3, #0
 376 0158 87F85730 		strb	r3, [r7, #87]
 377 015c 13E0     		b	.L18
 378              	.L19:
 171:main.c        ****     		shift_number[x+6]=EEPROM_1_ReadByte(x+6);
 379              		.loc 1 171 0 discriminator 3
 380 015e 97F85730 		ldrb	r3, [r7, #87]	@ zero_extendqisi2
 381 0162 9C1D     		adds	r4, r3, #6
 382 0164 97F85730 		ldrb	r3, [r7, #87]	@ zero_extendqisi2
 383 0168 9BB2     		uxth	r3, r3
 384 016a 0633     		adds	r3, r3, #6
 385 016c 9BB2     		uxth	r3, r3
 386 016e 1846     		mov	r0, r3
 387 0170 FFF7FEFF 		bl	EEPROM_1_ReadByte
 388 0174 0346     		mov	r3, r0
 389 0176 1A46     		mov	r2, r3
 390 0178 724B     		ldr	r3, .L209+28
 391 017a 1A55     		strb	r2, [r3, r4]
 170:main.c        ****         for(x=0;x<6;x++){
 392              		.loc 1 170 0 discriminator 3
 393 017c 97F85730 		ldrb	r3, [r7, #87]	@ zero_extendqisi2
 394 0180 0133     		adds	r3, r3, #1
ARM GAS  C:\Users\Diego\AppData\Local\Temp\cc2hwaET.s 			page 11


 395 0182 87F85730 		strb	r3, [r7, #87]
 396              	.L18:
 170:main.c        ****         for(x=0;x<6;x++){
 397              		.loc 1 170 0 is_stmt 0 discriminator 1
 398 0186 97F85730 		ldrb	r3, [r7, #87]	@ zero_extendqisi2
 399 018a 052B     		cmp	r3, #5
 400 018c E7D9     		bls	.L19
 401 018e 16E0     		b	.L20
 402              	.L17:
 172:main.c        ****     	}
 173:main.c        ****     }else{
 174:main.c        ****         EEPROM_1_WriteByte(0x5A,6);
 403              		.loc 1 174 0 is_stmt 1
 404 0190 0621     		movs	r1, #6
 405 0192 5A20     		movs	r0, #90
 406 0194 FFF7FEFF 		bl	EEPROM_1_WriteByte
 175:main.c        ****         for(x=1;x<6;x++){
 407              		.loc 1 175 0
 408 0198 0123     		movs	r3, #1
 409 019a 87F85730 		strb	r3, [r7, #87]
 410 019e 0AE0     		b	.L21
 411              	.L22:
 176:main.c        ****     		shift_number[x+6]='0';
 412              		.loc 1 176 0 discriminator 3
 413 01a0 97F85730 		ldrb	r3, [r7, #87]	@ zero_extendqisi2
 414 01a4 0633     		adds	r3, r3, #6
 415 01a6 674A     		ldr	r2, .L209+28
 416 01a8 3021     		movs	r1, #48
 417 01aa D154     		strb	r1, [r2, r3]
 175:main.c        ****         for(x=1;x<6;x++){
 418              		.loc 1 175 0 discriminator 3
 419 01ac 97F85730 		ldrb	r3, [r7, #87]	@ zero_extendqisi2
 420 01b0 0133     		adds	r3, r3, #1
 421 01b2 87F85730 		strb	r3, [r7, #87]
 422              	.L21:
 175:main.c        ****         for(x=1;x<6;x++){
 423              		.loc 1 175 0 is_stmt 0 discriminator 1
 424 01b6 97F85730 		ldrb	r3, [r7, #87]	@ zero_extendqisi2
 425 01ba 052B     		cmp	r3, #5
 426 01bc F0D9     		bls	.L22
 427              	.L20:
 177:main.c        ****     	}
 178:main.c        ****     }
 179:main.c        ****     int_shiftnumber=((shift_number[5]&0x0F)*10000)+((shift_number[4]&0x0F)*1000)+((shift_number[3]&
 428              		.loc 1 179 0 is_stmt 1
 429 01be 614B     		ldr	r3, .L209+28
 430 01c0 5B79     		ldrb	r3, [r3, #5]	@ zero_extendqisi2
 431 01c2 03F00F03 		and	r3, r3, #15
 432 01c6 DBB2     		uxtb	r3, r3
 433 01c8 1B01     		lsls	r3, r3, #4
 434 01ca DAB2     		uxtb	r2, r3
 435 01cc 5D4B     		ldr	r3, .L209+28
 436 01ce 1B79     		ldrb	r3, [r3, #4]	@ zero_extendqisi2
 437 01d0 03F00F03 		and	r3, r3, #15
 438 01d4 DBB2     		uxtb	r3, r3
 439 01d6 1946     		mov	r1, r3
 440 01d8 9B00     		lsls	r3, r3, #2
ARM GAS  C:\Users\Diego\AppData\Local\Temp\cc2hwaET.s 			page 12


 441 01da CB1A     		subs	r3, r1, r3
 442 01dc DB00     		lsls	r3, r3, #3
 443 01de DBB2     		uxtb	r3, r3
 444 01e0 1344     		add	r3, r3, r2
 445 01e2 DAB2     		uxtb	r2, r3
 446 01e4 574B     		ldr	r3, .L209+28
 447 01e6 9B78     		ldrb	r3, [r3, #2]	@ zero_extendqisi2
 448 01e8 03F00F03 		and	r3, r3, #15
 449 01ec DBB2     		uxtb	r3, r3
 450 01ee 1946     		mov	r1, r3
 451 01f0 8900     		lsls	r1, r1, #2
 452 01f2 0B44     		add	r3, r3, r1
 453 01f4 5B00     		lsls	r3, r3, #1
 454 01f6 D9B2     		uxtb	r1, r3
 455 01f8 524B     		ldr	r3, .L209+28
 456 01fa DB78     		ldrb	r3, [r3, #3]	@ zero_extendqisi2
 457 01fc 03F00F03 		and	r3, r3, #15
 458 0200 DBB2     		uxtb	r3, r3
 459 0202 1846     		mov	r0, r3
 460 0204 8000     		lsls	r0, r0, #2
 461 0206 0344     		add	r3, r3, r0
 462 0208 1846     		mov	r0, r3
 463 020a 8400     		lsls	r4, r0, #2
 464 020c 1846     		mov	r0, r3
 465 020e 2346     		mov	r3, r4
 466 0210 0344     		add	r3, r3, r0
 467 0212 9B00     		lsls	r3, r3, #2
 468 0214 DBB2     		uxtb	r3, r3
 469 0216 0B44     		add	r3, r3, r1
 470 0218 DBB2     		uxtb	r3, r3
 471 021a 1344     		add	r3, r3, r2
 472 021c DAB2     		uxtb	r2, r3
 473 021e 494B     		ldr	r3, .L209+28
 474 0220 5B78     		ldrb	r3, [r3, #1]	@ zero_extendqisi2
 475 0222 03F00F03 		and	r3, r3, #15
 476 0226 DBB2     		uxtb	r3, r3
 477 0228 1344     		add	r3, r3, r2
 478 022a DAB2     		uxtb	r2, r3
 479 022c 464B     		ldr	r3, .L209+32
 480 022e 1A70     		strb	r2, [r3]
 180:main.c        ****     
 181:main.c        ****         
 182:main.c        **** //    for(x = 0; x < 3; x ++){
 183:main.c        **** //        side.a.ppuNozzle[0][x] = EEPROM_1_ReadByte(12 + x);
 184:main.c        **** //        side.a.ppuNozzle[1][x] = EEPROM_1_ReadByte(15 + x);
 185:main.c        **** //        side.a.ppuNozzle[2][x] = EEPROM_1_ReadByte(18 + x);
 186:main.c        **** //        side.a.ppuNozzle[3][x] = EEPROM_1_ReadByte(21 + x);
 187:main.c        **** //        side.b.ppuNozzle[0][x] = EEPROM_1_ReadByte(24 + x);
 188:main.c        **** //        side.b.ppuNozzle[1][x] = EEPROM_1_ReadByte(27 + x);
 189:main.c        **** //        side.b.ppuNozzle[2][x] = EEPROM_1_ReadByte(30 + x);
 190:main.c        **** //        side.b.ppuNozzle[3][x] = EEPROM_1_ReadByte(33 + x);
 191:main.c        **** //    }
 192:main.c        **** //    
 193:main.c        **** //    side.a.ProcessedPPU[0][0] = (side.a.ppuNozzle[0][0] >> 4) + 0x30;
 194:main.c        **** //    side.a.ProcessedPPU[0][1] = (side.a.ppuNozzle[0][0] & 0x0F) + 0x30;
 195:main.c        **** //    side.a.ProcessedPPU[0][2] = (side.a.ppuNozzle[0][1] >> 4) + 0x30;
 196:main.c        **** //    side.a.ProcessedPPU[0][3] = (side.a.ppuNozzle[0][1] & 0x0F) + 0x30;
ARM GAS  C:\Users\Diego\AppData\Local\Temp\cc2hwaET.s 			page 13


 197:main.c        **** //    side.a.ProcessedPPU[0][4] = (side.a.ppuNozzle[0][2] >> 4) + 0x30;
 198:main.c        **** //    side.a.ProcessedPPU[0][5] = (side.a.ppuNozzle[0][2] & 0x0F) + 0x30;
 199:main.c        **** //    
 200:main.c        **** //    side.b.ProcessedPPU[0][0] = (side.b.ppuNozzle[0][0] >> 4) + 0x30;
 201:main.c        **** //    side.b.ProcessedPPU[0][1] = (side.b.ppuNozzle[0][0] & 0x0F) + 0x30;
 202:main.c        **** //    side.b.ProcessedPPU[0][2] = (side.b.ppuNozzle[0][1] >> 4) + 0x30;
 203:main.c        **** //    side.b.ProcessedPPU[0][3] = (side.b.ppuNozzle[0][1] & 0x0F) + 0x30;
 204:main.c        **** //    side.b.ProcessedPPU[0][4] = (side.b.ppuNozzle[0][2] >> 4) + 0x30;
 205:main.c        **** //    side.b.ProcessedPPU[0][5] = (side.b.ppuNozzle[0][2] & 0x0F) + 0x30;
 206:main.c        ****     
 207:main.c        ****     while(side.a.dir == 0xFF){
 481              		.loc 1 207 0
 482 0230 17E0     		b	.L23
 483              	.L26:
 484              	.LBB2:
 208:main.c        ****         for(uint8 y = 0; y < 16; y ++){
 485              		.loc 1 208 0
 486 0232 0023     		movs	r3, #0
 487 0234 87F85330 		strb	r3, [r7, #83]
 488 0238 0FE0     		b	.L24
 489              	.L25:
 209:main.c        ****             PumpAddress[y] = GetAddress(y); //Posiciones activas      
 490              		.loc 1 209 0 discriminator 3
 491 023a 97F85340 		ldrb	r4, [r7, #83]	@ zero_extendqisi2
 492 023e 97F85330 		ldrb	r3, [r7, #83]	@ zero_extendqisi2
 493 0242 1846     		mov	r0, r3
 494 0244 FFF7FEFF 		bl	GetAddress
 495 0248 0346     		mov	r3, r0
 496 024a 1A46     		mov	r2, r3
 497 024c 3F4B     		ldr	r3, .L209+36
 498 024e 1A55     		strb	r2, [r3, r4]
 208:main.c        ****         for(uint8 y = 0; y < 16; y ++){
 499              		.loc 1 208 0 discriminator 3
 500 0250 97F85330 		ldrb	r3, [r7, #83]	@ zero_extendqisi2
 501 0254 0133     		adds	r3, r3, #1
 502 0256 87F85330 		strb	r3, [r7, #83]
 503              	.L24:
 208:main.c        ****         for(uint8 y = 0; y < 16; y ++){
 504              		.loc 1 208 0 is_stmt 0 discriminator 1
 505 025a 97F85330 		ldrb	r3, [r7, #83]	@ zero_extendqisi2
 506 025e 0F2B     		cmp	r3, #15
 507 0260 EBD9     		bls	.L25
 508              	.L23:
 509              	.LBE2:
 207:main.c        ****         for(uint8 y = 0; y < 16; y ++){
 510              		.loc 1 207 0 is_stmt 1
 511 0262 354B     		ldr	r3, .L209+16
 512 0264 1B78     		ldrb	r3, [r3]	@ zero_extendqisi2
 513 0266 FF2B     		cmp	r3, #255
 514 0268 E3D0     		beq	.L26
 210:main.c        ****         } 
 211:main.c        ****     }
 212:main.c        ****     
 213:main.c        ****     side.a.dir = PumpAddress[1];
 515              		.loc 1 213 0
 516 026a 384B     		ldr	r3, .L209+36
 517 026c 5A78     		ldrb	r2, [r3, #1]	@ zero_extendqisi2
ARM GAS  C:\Users\Diego\AppData\Local\Temp\cc2hwaET.s 			page 14


 518 026e 324B     		ldr	r3, .L209+16
 519 0270 1A70     		strb	r2, [r3]
 214:main.c        ****     side.b.dir = PumpAddress[2];
 520              		.loc 1 214 0
 521 0272 364B     		ldr	r3, .L209+36
 522 0274 9A78     		ldrb	r2, [r3, #2]	@ zero_extendqisi2
 523 0276 304B     		ldr	r3, .L209+16
 524 0278 83F83521 		strb	r2, [r3, #309]
 215:main.c        ****     //side.c.dir = PumpAddress[3];
 216:main.c        ****     //side.d.dir = PumpAddress[4]; 
 217:main.c        **** 
 218:main.c        ****     TotalRequestType = 0; 
 525              		.loc 1 218 0
 526 027c 344B     		ldr	r3, .L209+40
 527 027e 0022     		movs	r2, #0
 528 0280 1A70     		strb	r2, [r3]
 219:main.c        ****     W_autorize = 0;        
 529              		.loc 1 219 0
 530 0282 0023     		movs	r3, #0
 531 0284 87F85630 		strb	r3, [r7, #86]
 220:main.c        ****     LCDhose = 0;
 532              		.loc 1 220 0
 533 0288 324B     		ldr	r3, .L209+44
 534 028a 0022     		movs	r2, #0
 535 028c 1A70     		strb	r2, [r3]
 221:main.c        ****     Positions = 2;
 536              		.loc 1 221 0
 537 028e 324B     		ldr	r3, .L209+48
 538 0290 0222     		movs	r2, #2
 539 0292 1A70     		strb	r2, [r3]
 540              	.L199:
 222:main.c        ****     for (;;)
 223:main.c        ****     {
 224:main.c        ****         PollingPos(); 
 541              		.loc 1 224 0
 542 0294 FFF7FEFF 		bl	PollingPos
 225:main.c        ****         //screen_PutChar(0x5A);
 226:main.c        ****         screen_size = screen_GetRxBufferSize();
 543              		.loc 1 226 0
 544 0298 FFF7FEFF 		bl	screen_GetRxBufferSize
 545 029c 0346     		mov	r3, r0
 546 029e 87F82330 		strb	r3, [r7, #35]
 227:main.c        ****         if(screen_size >= 5 ){
 547              		.loc 1 227 0
 548 02a2 97F82330 		ldrb	r3, [r7, #35]	@ zero_extendqisi2
 549 02a6 042B     		cmp	r3, #4
 550 02a8 16D9     		bls	.L27
 551              	.LBB3:
 228:main.c        ****             for(uint8 LCDRx = 0; LCDRx < screen_size; LCDRx++){
 552              		.loc 1 228 0
 553 02aa 0023     		movs	r3, #0
 554 02ac 87F85230 		strb	r3, [r7, #82]
 555 02b0 0CE0     		b	.L28
 556              	.L29:
 229:main.c        ****                 touch1[LCDRx] = screen_ReadRxData();
 557              		.loc 1 229 0 discriminator 3
 558 02b2 97F85240 		ldrb	r4, [r7, #82]	@ zero_extendqisi2
ARM GAS  C:\Users\Diego\AppData\Local\Temp\cc2hwaET.s 			page 15


 559 02b6 FFF7FEFF 		bl	screen_ReadRxData
 560 02ba 0346     		mov	r3, r0
 561 02bc 1A46     		mov	r2, r3
 562 02be 274B     		ldr	r3, .L209+52
 563 02c0 1A55     		strb	r2, [r3, r4]
 228:main.c        ****             for(uint8 LCDRx = 0; LCDRx < screen_size; LCDRx++){
 564              		.loc 1 228 0 discriminator 3
 565 02c2 97F85230 		ldrb	r3, [r7, #82]	@ zero_extendqisi2
 566 02c6 0133     		adds	r3, r3, #1
 567 02c8 87F85230 		strb	r3, [r7, #82]
 568              	.L28:
 228:main.c        ****             for(uint8 LCDRx = 0; LCDRx < screen_size; LCDRx++){
 569              		.loc 1 228 0 is_stmt 0 discriminator 1
 570 02cc 97F85220 		ldrb	r2, [r7, #82]	@ zero_extendqisi2
 571 02d0 97F82330 		ldrb	r3, [r7, #35]	@ zero_extendqisi2
 572 02d4 9A42     		cmp	r2, r3
 573 02d6 ECD3     		bcc	.L29
 574              	.L27:
 575              	.LBE3:
 230:main.c        ****             }            
 231:main.c        ****         }
 232:main.c        ****         CyDelay(4);
 576              		.loc 1 232 0 is_stmt 1
 577 02d8 0420     		movs	r0, #4
 578 02da FFF7FEFF 		bl	CyDelay
 233:main.c        ****         switch(touch1[8]){
 579              		.loc 1 233 0
 580 02de 1F4B     		ldr	r3, .L209+52
 581 02e0 1B7A     		ldrb	r3, [r3, #8]	@ zero_extendqisi2
 582 02e2 1C2B     		cmp	r3, #28
 583 02e4 66D0     		beq	.L31
 584 02e6 1C2B     		cmp	r3, #28
 585 02e8 13DC     		bgt	.L32
 586 02ea 0A2B     		cmp	r3, #10
 587 02ec 00F09080 		beq	.L33
 588 02f0 0A2B     		cmp	r3, #10
 589 02f2 04DC     		bgt	.L34
 590 02f4 012B     		cmp	r3, #1
 591 02f6 3CD0     		beq	.L35
 592 02f8 022B     		cmp	r3, #2
 593 02fa 3FD0     		beq	.L36
 594 02fc AEE3     		b	.L30
 595              	.L34:
 596 02fe 0C2B     		cmp	r3, #12
 597 0300 00F0B981 		beq	.L37
 598 0304 0C2B     		cmp	r3, #12
 599 0306 C0F22281 		blt	.L38
 600 030a 0D2B     		cmp	r3, #13
 601 030c 00F04D82 		beq	.L39
 602 0310 A4E3     		b	.L30
 603              	.L32:
 604 0312 AA2B     		cmp	r3, #170
 605 0314 37D0     		beq	.L40
 606 0316 AA2B     		cmp	r3, #170
 607 0318 22DC     		bgt	.L41
 608 031a 4E2B     		cmp	r3, #78
 609 031c 00F07483 		beq	.L42
ARM GAS  C:\Users\Diego\AppData\Local\Temp\cc2hwaET.s 			page 16


 610 0320 532B     		cmp	r3, #83
 611 0322 00F04C83 		beq	.L43
 612 0326 99E3     		b	.L30
 613              	.L210:
 614              		.align	2
 615              	.L209:
 616 0328 00000000 		.word	.LC0
 617 032c 04000000 		.word	.LC1
 618 0330 0C000000 		.word	.LC2
 619 0334 00000000 		.word	DecVol
 620 0338 00000000 		.word	side
 621 033c 00000000 		.word	sale_number
 622 0340 00000000 		.word	int_salenumber
 623 0344 00000000 		.word	shift_number
 624 0348 00000000 		.word	int_shiftnumber
 625 034c 00000000 		.word	PumpAddress
 626 0350 00000000 		.word	TotalRequestType
 627 0354 00000000 		.word	LCDhose
 628 0358 00000000 		.word	Positions
 629 035c 00000000 		.word	touch1
 630              	.L41:
 631 0360 CC2B     		cmp	r3, #204
 632 0362 00F0B682 		beq	.L44
 633 0366 E12B     		cmp	r3, #225
 634 0368 00F06783 		beq	.L45
 635 036c CA2B     		cmp	r3, #202
 636 036e 38D0     		beq	.L46
 637 0370 74E3     		b	.L30
 638              	.L35:
 234:main.c        ****             case 0x01:
 235:main.c        ****                 W_autorize = 0xE1;
 639              		.loc 1 235 0
 640 0372 E123     		movs	r3, #225
 641 0374 87F85630 		strb	r3, [r7, #86]
 236:main.c        ****             break;
 642              		.loc 1 236 0
 643 0378 01F08FB8 		b	.L47
 644              	.L36:
 237:main.c        ****             case 0x02:
 238:main.c        ****                 W_autorize = 0xE2;
 645              		.loc 1 238 0
 646 037c E223     		movs	r3, #226
 647 037e 87F85630 		strb	r3, [r7, #86]
 239:main.c        ****             break;
 648              		.loc 1 239 0
 649 0382 01F08AB8 		b	.L47
 650              	.L40:
 240:main.c        ****         	case 0xAA:
 241:main.c        ****         		W_autorize = 1;
 651              		.loc 1 241 0
 652 0386 0123     		movs	r3, #1
 653 0388 87F85630 		strb	r3, [r7, #86]
 654              	.LBB4:
 242:main.c        ****         		for(uint8 LCDRx = 0; LCDRx < 20; LCDRx++){
 655              		.loc 1 242 0
 656 038c 0023     		movs	r3, #0
 657 038e 87F85130 		strb	r3, [r7, #81]
ARM GAS  C:\Users\Diego\AppData\Local\Temp\cc2hwaET.s 			page 17


 658 0392 09E0     		b	.L48
 659              	.L49:
 243:main.c        ****         			touch1[LCDRx] = 0x00;
 660              		.loc 1 243 0 discriminator 3
 661 0394 97F85130 		ldrb	r3, [r7, #81]	@ zero_extendqisi2
 662 0398 BF4A     		ldr	r2, .L211
 663 039a 0021     		movs	r1, #0
 664 039c D154     		strb	r1, [r2, r3]
 242:main.c        ****         		for(uint8 LCDRx = 0; LCDRx < 20; LCDRx++){
 665              		.loc 1 242 0 discriminator 3
 666 039e 97F85130 		ldrb	r3, [r7, #81]	@ zero_extendqisi2
 667 03a2 0133     		adds	r3, r3, #1
 668 03a4 87F85130 		strb	r3, [r7, #81]
 669              	.L48:
 242:main.c        ****         		for(uint8 LCDRx = 0; LCDRx < 20; LCDRx++){
 670              		.loc 1 242 0 is_stmt 0 discriminator 1
 671 03a8 97F85130 		ldrb	r3, [r7, #81]	@ zero_extendqisi2
 672 03ac 132B     		cmp	r3, #19
 673 03ae F1D9     		bls	.L49
 674              	.LBE4:
 244:main.c        ****         		}
 245:main.c        ****         	break;
 675              		.loc 1 245 0 is_stmt 1
 676 03b0 01F073B8 		b	.L47
 677              	.L31:
 246:main.c        ****         	case 0x1C:
 247:main.c        ****         		W_autorize = 'k';
 678              		.loc 1 247 0
 679 03b4 6B23     		movs	r3, #107
 680 03b6 87F85630 		strb	r3, [r7, #86]
 681              	.LBB5:
 248:main.c        ****         		for(uint8 LCDRx = 0; LCDRx < 20; LCDRx++){
 682              		.loc 1 248 0
 683 03ba 0023     		movs	r3, #0
 684 03bc 87F85030 		strb	r3, [r7, #80]
 685 03c0 09E0     		b	.L50
 686              	.L51:
 249:main.c        ****         			touch1[LCDRx] = 0x00;
 687              		.loc 1 249 0 discriminator 3
 688 03c2 97F85030 		ldrb	r3, [r7, #80]	@ zero_extendqisi2
 689 03c6 B44A     		ldr	r2, .L211
 690 03c8 0021     		movs	r1, #0
 691 03ca D154     		strb	r1, [r2, r3]
 248:main.c        ****         		for(uint8 LCDRx = 0; LCDRx < 20; LCDRx++){
 692              		.loc 1 248 0 discriminator 3
 693 03cc 97F85030 		ldrb	r3, [r7, #80]	@ zero_extendqisi2
 694 03d0 0133     		adds	r3, r3, #1
 695 03d2 87F85030 		strb	r3, [r7, #80]
 696              	.L50:
 248:main.c        ****         		for(uint8 LCDRx = 0; LCDRx < 20; LCDRx++){
 697              		.loc 1 248 0 is_stmt 0 discriminator 1
 698 03d6 97F85030 		ldrb	r3, [r7, #80]	@ zero_extendqisi2
 699 03da 132B     		cmp	r3, #19
 700 03dc F1D9     		bls	.L51
 701              	.LBE5:
 250:main.c        ****         		}		
 251:main.c        ****         	break;
ARM GAS  C:\Users\Diego\AppData\Local\Temp\cc2hwaET.s 			page 18


 702              		.loc 1 251 0 is_stmt 1
 703 03de 01F05CB8 		b	.L47
 704              	.L46:
 252:main.c        ****         	case 0xCA:
 253:main.c        ****         		W_autorize = 3;
 705              		.loc 1 253 0
 706 03e2 0323     		movs	r3, #3
 707 03e4 87F85630 		strb	r3, [r7, #86]
 708              	.LBB6:
 254:main.c        ****         		for(uint8 LCDRx = 0; LCDRx < 20; LCDRx++){
 709              		.loc 1 254 0
 710 03e8 0023     		movs	r3, #0
 711 03ea 87F84F30 		strb	r3, [r7, #79]
 712 03ee 09E0     		b	.L52
 713              	.L53:
 255:main.c        ****         			touch1[LCDRx] = 0x00;
 714              		.loc 1 255 0 discriminator 3
 715 03f0 97F84F30 		ldrb	r3, [r7, #79]	@ zero_extendqisi2
 716 03f4 A84A     		ldr	r2, .L211
 717 03f6 0021     		movs	r1, #0
 718 03f8 D154     		strb	r1, [r2, r3]
 254:main.c        ****         		for(uint8 LCDRx = 0; LCDRx < 20; LCDRx++){
 719              		.loc 1 254 0 discriminator 3
 720 03fa 97F84F30 		ldrb	r3, [r7, #79]	@ zero_extendqisi2
 721 03fe 0133     		adds	r3, r3, #1
 722 0400 87F84F30 		strb	r3, [r7, #79]
 723              	.L52:
 254:main.c        ****         		for(uint8 LCDRx = 0; LCDRx < 20; LCDRx++){
 724              		.loc 1 254 0 is_stmt 0 discriminator 1
 725 0404 97F84F30 		ldrb	r3, [r7, #79]	@ zero_extendqisi2
 726 0408 132B     		cmp	r3, #19
 727 040a F1D9     		bls	.L53
 728              	.LBE6:
 256:main.c        ****         		}		
 257:main.c        ****         	break;             
 729              		.loc 1 257 0 is_stmt 1
 730 040c 01F045B8 		b	.L47
 731              	.L33:
 258:main.c        ****         	case 0x0A:
 259:main.c        ****         		if(W_autorize == 1){
 732              		.loc 1 259 0
 733 0410 97F85630 		ldrb	r3, [r7, #86]	@ zero_extendqisi2
 734 0414 012B     		cmp	r3, #1
 735 0416 19D1     		bne	.L54
 260:main.c        ****         			W_autorize = 0;                    
 736              		.loc 1 260 0
 737 0418 0023     		movs	r3, #0
 738 041a 87F85630 		strb	r3, [r7, #86]
 261:main.c        ****                     //PriceUpdate(side.a.dir,side.a.ppuNozzle[0]);
 262:main.c        ****                     Authorize(side.a.dir);
 739              		.loc 1 262 0
 740 041e 9F4B     		ldr	r3, .L211+4
 741 0420 1B78     		ldrb	r3, [r3]	@ zero_extendqisi2
 742 0422 1846     		mov	r0, r3
 743 0424 FFF7FEFF 		bl	Authorize
 744              	.LBB7:
 263:main.c        ****                     for(uint8 LCDRx = 0; LCDRx < 20; LCDRx++){
ARM GAS  C:\Users\Diego\AppData\Local\Temp\cc2hwaET.s 			page 19


 745              		.loc 1 263 0
 746 0428 0023     		movs	r3, #0
 747 042a 87F84E30 		strb	r3, [r7, #78]
 748 042e 09E0     		b	.L55
 749              	.L56:
 264:main.c        ****                         touch1[LCDRx] = 0x00;
 750              		.loc 1 264 0 discriminator 3
 751 0430 97F84E30 		ldrb	r3, [r7, #78]	@ zero_extendqisi2
 752 0434 984A     		ldr	r2, .L211
 753 0436 0021     		movs	r1, #0
 754 0438 D154     		strb	r1, [r2, r3]
 263:main.c        ****                     for(uint8 LCDRx = 0; LCDRx < 20; LCDRx++){
 755              		.loc 1 263 0 discriminator 3
 756 043a 97F84E30 		ldrb	r3, [r7, #78]	@ zero_extendqisi2
 757 043e 0133     		adds	r3, r3, #1
 758 0440 87F84E30 		strb	r3, [r7, #78]
 759              	.L55:
 263:main.c        ****                     for(uint8 LCDRx = 0; LCDRx < 20; LCDRx++){
 760              		.loc 1 263 0 is_stmt 0 discriminator 1
 761 0444 97F84E30 		ldrb	r3, [r7, #78]	@ zero_extendqisi2
 762 0448 132B     		cmp	r3, #19
 763 044a F1D9     		bls	.L56
 764              	.L54:
 765              	.LBE7:
 265:main.c        ****                     }
 266:main.c        ****         		}
 267:main.c        ****         		if(W_autorize == 2){ 
 766              		.loc 1 267 0 is_stmt 1
 767 044c 97F85630 		ldrb	r3, [r7, #86]	@ zero_extendqisi2
 768 0450 022B     		cmp	r3, #2
 769 0452 26D1     		bne	.L57
 268:main.c        ****                     W_autorize = 0x0A;
 770              		.loc 1 268 0
 771 0454 0A23     		movs	r3, #10
 772 0456 87F85630 		strb	r3, [r7, #86]
 269:main.c        ****                     PumpState(side.a.dir);            
 773              		.loc 1 269 0
 774 045a 904B     		ldr	r3, .L211+4
 775 045c 1B78     		ldrb	r3, [r3]	@ zero_extendqisi2
 776 045e 1846     		mov	r0, r3
 777 0460 FFF7FEFF 		bl	PumpState
 270:main.c        ****                     TotalRequest(side.a.dir, TotalRequestType, 1); //dir 0, volume, nozzle 1       
 778              		.loc 1 270 0
 779 0464 8D4B     		ldr	r3, .L211+4
 780 0466 1878     		ldrb	r0, [r3]	@ zero_extendqisi2
 781 0468 8D4B     		ldr	r3, .L211+8
 782 046a 1B78     		ldrb	r3, [r3]	@ zero_extendqisi2
 783 046c 0122     		movs	r2, #1
 784 046e 1946     		mov	r1, r3
 785 0470 FFF7FEFF 		bl	TotalRequest
 271:main.c        ****                     PumpState(side.a.dir);
 786              		.loc 1 271 0
 787 0474 894B     		ldr	r3, .L211+4
 788 0476 1B78     		ldrb	r3, [r3]	@ zero_extendqisi2
 789 0478 1846     		mov	r0, r3
 790 047a FFF7FEFF 		bl	PumpState
 791              	.LBB8:
ARM GAS  C:\Users\Diego\AppData\Local\Temp\cc2hwaET.s 			page 20


 272:main.c        ****                     for(uint8 LCDRx = 0; LCDRx < 20; LCDRx++){
 792              		.loc 1 272 0
 793 047e 0023     		movs	r3, #0
 794 0480 87F84D30 		strb	r3, [r7, #77]
 795 0484 09E0     		b	.L58
 796              	.L59:
 273:main.c        ****                         touch1[LCDRx] = 0x00;
 797              		.loc 1 273 0 discriminator 3
 798 0486 97F84D30 		ldrb	r3, [r7, #77]	@ zero_extendqisi2
 799 048a 834A     		ldr	r2, .L211
 800 048c 0021     		movs	r1, #0
 801 048e D154     		strb	r1, [r2, r3]
 272:main.c        ****                     for(uint8 LCDRx = 0; LCDRx < 20; LCDRx++){
 802              		.loc 1 272 0 discriminator 3
 803 0490 97F84D30 		ldrb	r3, [r7, #77]	@ zero_extendqisi2
 804 0494 0133     		adds	r3, r3, #1
 805 0496 87F84D30 		strb	r3, [r7, #77]
 806              	.L58:
 272:main.c        ****                     for(uint8 LCDRx = 0; LCDRx < 20; LCDRx++){
 807              		.loc 1 272 0 is_stmt 0 discriminator 1
 808 049a 97F84D30 		ldrb	r3, [r7, #77]	@ zero_extendqisi2
 809 049e 132B     		cmp	r3, #19
 810 04a0 F1D9     		bls	.L59
 811              	.L57:
 812              	.LBE8:
 274:main.c        ****                     }                    
 275:main.c        ****         		}
 276:main.c        ****                 if(W_autorize == 'k'){                    
 813              		.loc 1 276 0 is_stmt 1
 814 04a2 97F85630 		ldrb	r3, [r7, #86]	@ zero_extendqisi2
 815 04a6 6B2B     		cmp	r3, #107
 816 04a8 40F0E887 		bne	.L200
 277:main.c        ****                     W_autorize = 0x1A; 
 817              		.loc 1 277 0
 818 04ac 1A23     		movs	r3, #26
 819 04ae 87F85630 		strb	r3, [r7, #86]
 278:main.c        ****                     PumpState(side.a.dir);            
 820              		.loc 1 278 0
 821 04b2 7A4B     		ldr	r3, .L211+4
 822 04b4 1B78     		ldrb	r3, [r3]	@ zero_extendqisi2
 823 04b6 1846     		mov	r0, r3
 824 04b8 FFF7FEFF 		bl	PumpState
 279:main.c        ****                     TotalRequest(side.a.dir, TotalRequestType, 1); //dir 0, volume, nozzle 1       
 825              		.loc 1 279 0
 826 04bc 774B     		ldr	r3, .L211+4
 827 04be 1878     		ldrb	r0, [r3]	@ zero_extendqisi2
 828 04c0 774B     		ldr	r3, .L211+8
 829 04c2 1B78     		ldrb	r3, [r3]	@ zero_extendqisi2
 830 04c4 0122     		movs	r2, #1
 831 04c6 1946     		mov	r1, r3
 832 04c8 FFF7FEFF 		bl	TotalRequest
 280:main.c        ****                     PumpState(side.a.dir);
 833              		.loc 1 280 0
 834 04cc 734B     		ldr	r3, .L211+4
 835 04ce 1B78     		ldrb	r3, [r3]	@ zero_extendqisi2
 836 04d0 1846     		mov	r0, r3
 837 04d2 FFF7FEFF 		bl	PumpState
ARM GAS  C:\Users\Diego\AppData\Local\Temp\cc2hwaET.s 			page 21


 838              	.LBB9:
 281:main.c        ****                     for(uint8 LCDRx = 0; LCDRx < 20; LCDRx++){
 839              		.loc 1 281 0
 840 04d6 0023     		movs	r3, #0
 841 04d8 87F84C30 		strb	r3, [r7, #76]
 842 04dc 09E0     		b	.L61
 843              	.L62:
 282:main.c        ****                         touch1[LCDRx] = 0x00;
 844              		.loc 1 282 0 discriminator 3
 845 04de 97F84C30 		ldrb	r3, [r7, #76]	@ zero_extendqisi2
 846 04e2 6D4A     		ldr	r2, .L211
 847 04e4 0021     		movs	r1, #0
 848 04e6 D154     		strb	r1, [r2, r3]
 281:main.c        ****                     for(uint8 LCDRx = 0; LCDRx < 20; LCDRx++){
 849              		.loc 1 281 0 discriminator 3
 850 04e8 97F84C30 		ldrb	r3, [r7, #76]	@ zero_extendqisi2
 851 04ec 0133     		adds	r3, r3, #1
 852 04ee 87F84C30 		strb	r3, [r7, #76]
 853              	.L61:
 281:main.c        ****                     for(uint8 LCDRx = 0; LCDRx < 20; LCDRx++){
 854              		.loc 1 281 0 is_stmt 0 discriminator 1
 855 04f2 97F84C30 		ldrb	r3, [r7, #76]	@ zero_extendqisi2
 856 04f6 132B     		cmp	r3, #19
 857 04f8 F1D9     		bls	.L62
 858              	.LBE9:
 859              	.LBB10:
 283:main.c        ****                     }
 284:main.c        ****                     for(uint8 LCDRx = 0; LCDRx < 8; LCDRx++){
 860              		.loc 1 284 0 is_stmt 1
 861 04fa 0023     		movs	r3, #0
 862 04fc 87F84B30 		strb	r3, [r7, #75]
 863 0500 0BE0     		b	.L63
 864              	.L64:
 285:main.c        ****                         side.a.msn_plate[LCDRx] = 0x20;
 865              		.loc 1 285 0 discriminator 3
 866 0502 97F84B30 		ldrb	r3, [r7, #75]	@ zero_extendqisi2
 867 0506 654A     		ldr	r2, .L211+4
 868 0508 1344     		add	r3, r3, r2
 869 050a 2022     		movs	r2, #32
 870 050c 83F82321 		strb	r2, [r3, #291]
 284:main.c        ****                         side.a.msn_plate[LCDRx] = 0x20;
 871              		.loc 1 284 0 discriminator 3
 872 0510 97F84B30 		ldrb	r3, [r7, #75]	@ zero_extendqisi2
 873 0514 0133     		adds	r3, r3, #1
 874 0516 87F84B30 		strb	r3, [r7, #75]
 875              	.L63:
 284:main.c        ****                         side.a.msn_plate[LCDRx] = 0x20;
 876              		.loc 1 284 0 is_stmt 0 discriminator 1
 877 051a 97F84B30 		ldrb	r3, [r7, #75]	@ zero_extendqisi2
 878 051e 072B     		cmp	r3, #7
 879 0520 EFD9     		bls	.L64
 880              	.LBE10:
 881              	.LBB11:
 286:main.c        ****                     }
 287:main.c        ****                     for(uint8 LCDRx = 0; LCDRx < 6; LCDRx++){
 882              		.loc 1 287 0 is_stmt 1
 883 0522 0023     		movs	r3, #0
ARM GAS  C:\Users\Diego\AppData\Local\Temp\cc2hwaET.s 			page 22


 884 0524 87F84A30 		strb	r3, [r7, #74]
 885 0528 0BE0     		b	.L65
 886              	.L66:
 288:main.c        ****                         side.a.km[LCDRx] = 0x20;
 887              		.loc 1 288 0 discriminator 3
 888 052a 97F84A30 		ldrb	r3, [r7, #74]	@ zero_extendqisi2
 889 052e 5B4A     		ldr	r2, .L211+4
 890 0530 1344     		add	r3, r3, r2
 891 0532 2022     		movs	r2, #32
 892 0534 83F82D21 		strb	r2, [r3, #301]
 287:main.c        ****                         side.a.km[LCDRx] = 0x20;
 893              		.loc 1 287 0 discriminator 3
 894 0538 97F84A30 		ldrb	r3, [r7, #74]	@ zero_extendqisi2
 895 053c 0133     		adds	r3, r3, #1
 896 053e 87F84A30 		strb	r3, [r7, #74]
 897              	.L65:
 287:main.c        ****                         side.a.km[LCDRx] = 0x20;
 898              		.loc 1 287 0 is_stmt 0 discriminator 1
 899 0542 97F84A30 		ldrb	r3, [r7, #74]	@ zero_extendqisi2
 900 0546 052B     		cmp	r3, #5
 901 0548 EFD9     		bls	.L66
 902              	.LBE11:
 289:main.c        ****                     }                                        
 290:main.c        ****         		}
 291:main.c        ****         	break;            
 903              		.loc 1 291 0 is_stmt 1
 904 054a 00F097BF 		b	.L200
 905              	.L38:
 292:main.c        ****         	case 0x0B:
 293:main.c        ****         		if(W_autorize == 1){
 906              		.loc 1 293 0
 907 054e 97F85630 		ldrb	r3, [r7, #86]	@ zero_extendqisi2
 908 0552 012B     		cmp	r3, #1
 909 0554 1AD1     		bne	.L67
 294:main.c        ****         			W_autorize = 0;
 910              		.loc 1 294 0
 911 0556 0023     		movs	r3, #0
 912 0558 87F85630 		strb	r3, [r7, #86]
 295:main.c        ****                     //PriceUpdate(side.b.dir,side.b.ppuNozzle[0]);
 296:main.c        ****                     Authorize(side.b.dir);
 913              		.loc 1 296 0
 914 055c 4F4B     		ldr	r3, .L211+4
 915 055e 93F83531 		ldrb	r3, [r3, #309]	@ zero_extendqisi2
 916 0562 1846     		mov	r0, r3
 917 0564 FFF7FEFF 		bl	Authorize
 918              	.LBB12:
 297:main.c        ****                     for(uint8 LCDRx = 0; LCDRx < 20; LCDRx++){
 919              		.loc 1 297 0
 920 0568 0023     		movs	r3, #0
 921 056a 87F84930 		strb	r3, [r7, #73]
 922 056e 09E0     		b	.L68
 923              	.L69:
 298:main.c        ****                         touch1[LCDRx] = 0x00;
 924              		.loc 1 298 0 discriminator 3
 925 0570 97F84930 		ldrb	r3, [r7, #73]	@ zero_extendqisi2
 926 0574 484A     		ldr	r2, .L211
 927 0576 0021     		movs	r1, #0
ARM GAS  C:\Users\Diego\AppData\Local\Temp\cc2hwaET.s 			page 23


 928 0578 D154     		strb	r1, [r2, r3]
 297:main.c        ****                     for(uint8 LCDRx = 0; LCDRx < 20; LCDRx++){
 929              		.loc 1 297 0 discriminator 3
 930 057a 97F84930 		ldrb	r3, [r7, #73]	@ zero_extendqisi2
 931 057e 0133     		adds	r3, r3, #1
 932 0580 87F84930 		strb	r3, [r7, #73]
 933              	.L68:
 297:main.c        ****                     for(uint8 LCDRx = 0; LCDRx < 20; LCDRx++){
 934              		.loc 1 297 0 is_stmt 0 discriminator 1
 935 0584 97F84930 		ldrb	r3, [r7, #73]	@ zero_extendqisi2
 936 0588 132B     		cmp	r3, #19
 937 058a F1D9     		bls	.L69
 938              	.L67:
 939              	.LBE12:
 299:main.c        ****                     }
 300:main.c        ****         		}
 301:main.c        ****         		if(W_autorize == 2){
 940              		.loc 1 301 0 is_stmt 1
 941 058c 97F85630 		ldrb	r3, [r7, #86]	@ zero_extendqisi2
 942 0590 022B     		cmp	r3, #2
 943 0592 17D1     		bne	.L70
 302:main.c        ****                     W_autorize = 0x0B;
 944              		.loc 1 302 0
 945 0594 0B23     		movs	r3, #11
 946 0596 87F85630 		strb	r3, [r7, #86]
 303:main.c        ****                     PumpState(side.b.dir);            
 947              		.loc 1 303 0
 948 059a 404B     		ldr	r3, .L211+4
 949 059c 93F83531 		ldrb	r3, [r3, #309]	@ zero_extendqisi2
 950 05a0 1846     		mov	r0, r3
 951 05a2 FFF7FEFF 		bl	PumpState
 304:main.c        ****                     TotalRequest(side.b.dir, TotalRequestType, 1); //dir 0, volume, nozzle 1       
 952              		.loc 1 304 0
 953 05a6 3D4B     		ldr	r3, .L211+4
 954 05a8 93F83501 		ldrb	r0, [r3, #309]	@ zero_extendqisi2
 955 05ac 3C4B     		ldr	r3, .L211+8
 956 05ae 1B78     		ldrb	r3, [r3]	@ zero_extendqisi2
 957 05b0 0122     		movs	r2, #1
 958 05b2 1946     		mov	r1, r3
 959 05b4 FFF7FEFF 		bl	TotalRequest
 305:main.c        ****                     PumpState(side.b.dir);                     
 960              		.loc 1 305 0
 961 05b8 384B     		ldr	r3, .L211+4
 962 05ba 93F83531 		ldrb	r3, [r3, #309]	@ zero_extendqisi2
 963 05be 1846     		mov	r0, r3
 964 05c0 FFF7FEFF 		bl	PumpState
 965              	.L70:
 306:main.c        ****                 }                
 307:main.c        ****                 if(W_autorize == 'k'){                    
 966              		.loc 1 307 0
 967 05c4 97F85630 		ldrb	r3, [r7, #86]	@ zero_extendqisi2
 968 05c8 6B2B     		cmp	r3, #107
 969 05ca 40F05987 		bne	.L201
 308:main.c        ****                     W_autorize = 0x1B; 
 970              		.loc 1 308 0
 971 05ce 1B23     		movs	r3, #27
 972 05d0 87F85630 		strb	r3, [r7, #86]
ARM GAS  C:\Users\Diego\AppData\Local\Temp\cc2hwaET.s 			page 24


 309:main.c        ****                     PumpState(side.b.dir);            
 973              		.loc 1 309 0
 974 05d4 314B     		ldr	r3, .L211+4
 975 05d6 93F83531 		ldrb	r3, [r3, #309]	@ zero_extendqisi2
 976 05da 1846     		mov	r0, r3
 977 05dc FFF7FEFF 		bl	PumpState
 310:main.c        ****                     TotalRequest(side.b.dir, TotalRequestType, 1); //dir 0, volume, nozzle 1       
 978              		.loc 1 310 0
 979 05e0 2E4B     		ldr	r3, .L211+4
 980 05e2 93F83501 		ldrb	r0, [r3, #309]	@ zero_extendqisi2
 981 05e6 2E4B     		ldr	r3, .L211+8
 982 05e8 1B78     		ldrb	r3, [r3]	@ zero_extendqisi2
 983 05ea 0122     		movs	r2, #1
 984 05ec 1946     		mov	r1, r3
 985 05ee FFF7FEFF 		bl	TotalRequest
 311:main.c        ****                     PumpState(side.b.dir);
 986              		.loc 1 311 0
 987 05f2 2A4B     		ldr	r3, .L211+4
 988 05f4 93F83531 		ldrb	r3, [r3, #309]	@ zero_extendqisi2
 989 05f8 1846     		mov	r0, r3
 990 05fa FFF7FEFF 		bl	PumpState
 991              	.LBB13:
 312:main.c        ****                     for(uint8 LCDRx = 0; LCDRx < 20; LCDRx++){
 992              		.loc 1 312 0
 993 05fe 0023     		movs	r3, #0
 994 0600 87F84830 		strb	r3, [r7, #72]
 995 0604 09E0     		b	.L72
 996              	.L73:
 313:main.c        ****                         touch1[LCDRx] = 0x00;
 997              		.loc 1 313 0 discriminator 3
 998 0606 97F84830 		ldrb	r3, [r7, #72]	@ zero_extendqisi2
 999 060a 234A     		ldr	r2, .L211
 1000 060c 0021     		movs	r1, #0
 1001 060e D154     		strb	r1, [r2, r3]
 312:main.c        ****                     for(uint8 LCDRx = 0; LCDRx < 20; LCDRx++){
 1002              		.loc 1 312 0 discriminator 3
 1003 0610 97F84830 		ldrb	r3, [r7, #72]	@ zero_extendqisi2
 1004 0614 0133     		adds	r3, r3, #1
 1005 0616 87F84830 		strb	r3, [r7, #72]
 1006              	.L72:
 312:main.c        ****                     for(uint8 LCDRx = 0; LCDRx < 20; LCDRx++){
 1007              		.loc 1 312 0 is_stmt 0 discriminator 1
 1008 061a 97F84830 		ldrb	r3, [r7, #72]	@ zero_extendqisi2
 1009 061e 132B     		cmp	r3, #19
 1010 0620 F1D9     		bls	.L73
 1011              	.LBE13:
 1012              	.LBB14:
 314:main.c        ****                     }
 315:main.c        ****                     for(uint8 LCDRx = 0; LCDRx < 8; LCDRx++){
 1013              		.loc 1 315 0 is_stmt 1
 1014 0622 0023     		movs	r3, #0
 1015 0624 87F84730 		strb	r3, [r7, #71]
 1016 0628 0BE0     		b	.L74
 1017              	.L75:
 316:main.c        ****                         side.b.msn_plate[LCDRx] = 0x20;
 1018              		.loc 1 316 0 discriminator 3
 1019 062a 97F84730 		ldrb	r3, [r7, #71]	@ zero_extendqisi2
ARM GAS  C:\Users\Diego\AppData\Local\Temp\cc2hwaET.s 			page 25


 1020 062e 1B4A     		ldr	r2, .L211+4
 1021 0630 1344     		add	r3, r3, r2
 1022 0632 2022     		movs	r2, #32
 1023 0634 83F85822 		strb	r2, [r3, #600]
 315:main.c        ****                         side.b.msn_plate[LCDRx] = 0x20;
 1024              		.loc 1 315 0 discriminator 3
 1025 0638 97F84730 		ldrb	r3, [r7, #71]	@ zero_extendqisi2
 1026 063c 0133     		adds	r3, r3, #1
 1027 063e 87F84730 		strb	r3, [r7, #71]
 1028              	.L74:
 315:main.c        ****                         side.b.msn_plate[LCDRx] = 0x20;
 1029              		.loc 1 315 0 is_stmt 0 discriminator 1
 1030 0642 97F84730 		ldrb	r3, [r7, #71]	@ zero_extendqisi2
 1031 0646 072B     		cmp	r3, #7
 1032 0648 EFD9     		bls	.L75
 1033              	.LBE14:
 1034              	.LBB15:
 317:main.c        ****                     }
 318:main.c        ****                     for(uint8 LCDRx = 0; LCDRx < 6; LCDRx++){
 1035              		.loc 1 318 0 is_stmt 1
 1036 064a 0023     		movs	r3, #0
 1037 064c 87F84630 		strb	r3, [r7, #70]
 1038 0650 0BE0     		b	.L76
 1039              	.L77:
 319:main.c        ****                         side.b.km[LCDRx] = 0x20;
 1040              		.loc 1 319 0 discriminator 3
 1041 0652 97F84630 		ldrb	r3, [r7, #70]	@ zero_extendqisi2
 1042 0656 114A     		ldr	r2, .L211+4
 1043 0658 1344     		add	r3, r3, r2
 1044 065a 2022     		movs	r2, #32
 1045 065c 83F86222 		strb	r2, [r3, #610]
 318:main.c        ****                         side.b.km[LCDRx] = 0x20;
 1046              		.loc 1 318 0 discriminator 3
 1047 0660 97F84630 		ldrb	r3, [r7, #70]	@ zero_extendqisi2
 1048 0664 0133     		adds	r3, r3, #1
 1049 0666 87F84630 		strb	r3, [r7, #70]
 1050              	.L76:
 318:main.c        ****                         side.b.km[LCDRx] = 0x20;
 1051              		.loc 1 318 0 is_stmt 0 discriminator 1
 1052 066a 97F84630 		ldrb	r3, [r7, #70]	@ zero_extendqisi2
 1053 066e 052B     		cmp	r3, #5
 1054 0670 EFD9     		bls	.L77
 1055              	.LBE15:
 320:main.c        ****                     }                                        
 321:main.c        ****         		}
 322:main.c        ****         	break;
 1056              		.loc 1 322 0 is_stmt 1
 1057 0672 00F005BF 		b	.L201
 1058              	.L37:
 323:main.c        ****                 
 324:main.c        ****             case 0x0C:
 325:main.c        ****         		if(W_autorize == 1){
 1059              		.loc 1 325 0
 1060 0676 97F85630 		ldrb	r3, [r7, #86]	@ zero_extendqisi2
 1061 067a 012B     		cmp	r3, #1
 1062 067c 20D1     		bne	.L78
 326:main.c        ****         			W_autorize = 0;
ARM GAS  C:\Users\Diego\AppData\Local\Temp\cc2hwaET.s 			page 26


 1063              		.loc 1 326 0
 1064 067e 0023     		movs	r3, #0
 1065 0680 87F85630 		strb	r3, [r7, #86]
 327:main.c        ****                     //PriceUpdate(side.b.dir,side.b.ppuNozzle[0]);
 328:main.c        ****                     Authorize(side.c.dir);
 1066              		.loc 1 328 0
 1067 0684 054B     		ldr	r3, .L211+4
 1068 0686 93F86A32 		ldrb	r3, [r3, #618]	@ zero_extendqisi2
 1069 068a 1846     		mov	r0, r3
 1070 068c FFF7FEFF 		bl	Authorize
 1071              	.LBB16:
 329:main.c        ****                     for(uint8 LCDRx = 0; LCDRx < 20; LCDRx++){
 1072              		.loc 1 329 0
 1073 0690 0023     		movs	r3, #0
 1074 0692 87F84530 		strb	r3, [r7, #69]
 1075 0696 0FE0     		b	.L79
 1076              	.L212:
 1077              		.align	2
 1078              	.L211:
 1079 0698 00000000 		.word	touch1
 1080 069c 00000000 		.word	side
 1081 06a0 00000000 		.word	TotalRequestType
 1082              	.L80:
 330:main.c        ****                         touch1[LCDRx] = 0x00;
 1083              		.loc 1 330 0 discriminator 3
 1084 06a4 97F84530 		ldrb	r3, [r7, #69]	@ zero_extendqisi2
 1085 06a8 D44A     		ldr	r2, .L213
 1086 06aa 0021     		movs	r1, #0
 1087 06ac D154     		strb	r1, [r2, r3]
 329:main.c        ****                     for(uint8 LCDRx = 0; LCDRx < 20; LCDRx++){
 1088              		.loc 1 329 0 discriminator 3
 1089 06ae 97F84530 		ldrb	r3, [r7, #69]	@ zero_extendqisi2
 1090 06b2 0133     		adds	r3, r3, #1
 1091 06b4 87F84530 		strb	r3, [r7, #69]
 1092              	.L79:
 329:main.c        ****                     for(uint8 LCDRx = 0; LCDRx < 20; LCDRx++){
 1093              		.loc 1 329 0 is_stmt 0 discriminator 1
 1094 06b8 97F84530 		ldrb	r3, [r7, #69]	@ zero_extendqisi2
 1095 06bc 132B     		cmp	r3, #19
 1096 06be F1D9     		bls	.L80
 1097              	.L78:
 1098              	.LBE16:
 331:main.c        ****                     }
 332:main.c        ****         		}
 333:main.c        ****         		if(W_autorize == 2){
 1099              		.loc 1 333 0 is_stmt 1
 1100 06c0 97F85630 		ldrb	r3, [r7, #86]	@ zero_extendqisi2
 1101 06c4 022B     		cmp	r3, #2
 1102 06c6 17D1     		bne	.L81
 334:main.c        ****                     W_autorize = 0x0C;
 1103              		.loc 1 334 0
 1104 06c8 0C23     		movs	r3, #12
 1105 06ca 87F85630 		strb	r3, [r7, #86]
 335:main.c        ****                     PumpState(side.c.dir);            
 1106              		.loc 1 335 0
 1107 06ce CC4B     		ldr	r3, .L213+4
 1108 06d0 93F86A32 		ldrb	r3, [r3, #618]	@ zero_extendqisi2
ARM GAS  C:\Users\Diego\AppData\Local\Temp\cc2hwaET.s 			page 27


 1109 06d4 1846     		mov	r0, r3
 1110 06d6 FFF7FEFF 		bl	PumpState
 336:main.c        ****                     TotalRequest(side.c.dir, TotalRequestType, 1); //dir 0, volume, nozzle 1       
 1111              		.loc 1 336 0
 1112 06da C94B     		ldr	r3, .L213+4
 1113 06dc 93F86A02 		ldrb	r0, [r3, #618]	@ zero_extendqisi2
 1114 06e0 C84B     		ldr	r3, .L213+8
 1115 06e2 1B78     		ldrb	r3, [r3]	@ zero_extendqisi2
 1116 06e4 0122     		movs	r2, #1
 1117 06e6 1946     		mov	r1, r3
 1118 06e8 FFF7FEFF 		bl	TotalRequest
 337:main.c        ****                     PumpState(side.c.dir);                     
 1119              		.loc 1 337 0
 1120 06ec C44B     		ldr	r3, .L213+4
 1121 06ee 93F86A32 		ldrb	r3, [r3, #618]	@ zero_extendqisi2
 1122 06f2 1846     		mov	r0, r3
 1123 06f4 FFF7FEFF 		bl	PumpState
 1124              	.L81:
 338:main.c        ****                 }                
 339:main.c        ****                 if(W_autorize == 'k'){                    
 1125              		.loc 1 339 0
 1126 06f8 97F85630 		ldrb	r3, [r7, #86]	@ zero_extendqisi2
 1127 06fc 6B2B     		cmp	r3, #107
 1128 06fe 40F0C186 		bne	.L202
 340:main.c        ****                     W_autorize = 0x1C; 
 1129              		.loc 1 340 0
 1130 0702 1C23     		movs	r3, #28
 1131 0704 87F85630 		strb	r3, [r7, #86]
 341:main.c        ****                     PumpState(side.c.dir);            
 1132              		.loc 1 341 0
 1133 0708 BD4B     		ldr	r3, .L213+4
 1134 070a 93F86A32 		ldrb	r3, [r3, #618]	@ zero_extendqisi2
 1135 070e 1846     		mov	r0, r3
 1136 0710 FFF7FEFF 		bl	PumpState
 342:main.c        ****                     TotalRequest(side.c.dir, TotalRequestType, 1); //dir 0, volume, nozzle 1       
 1137              		.loc 1 342 0
 1138 0714 BA4B     		ldr	r3, .L213+4
 1139 0716 93F86A02 		ldrb	r0, [r3, #618]	@ zero_extendqisi2
 1140 071a BA4B     		ldr	r3, .L213+8
 1141 071c 1B78     		ldrb	r3, [r3]	@ zero_extendqisi2
 1142 071e 0122     		movs	r2, #1
 1143 0720 1946     		mov	r1, r3
 1144 0722 FFF7FEFF 		bl	TotalRequest
 343:main.c        ****                     PumpState(side.c.dir);
 1145              		.loc 1 343 0
 1146 0726 B64B     		ldr	r3, .L213+4
 1147 0728 93F86A32 		ldrb	r3, [r3, #618]	@ zero_extendqisi2
 1148 072c 1846     		mov	r0, r3
 1149 072e FFF7FEFF 		bl	PumpState
 1150              	.LBB17:
 344:main.c        ****                     for(uint8 LCDRx = 0; LCDRx < 20; LCDRx++){
 1151              		.loc 1 344 0
 1152 0732 0023     		movs	r3, #0
 1153 0734 87F84430 		strb	r3, [r7, #68]
 1154 0738 09E0     		b	.L83
 1155              	.L84:
 345:main.c        ****                         touch1[LCDRx] = 0x00;
ARM GAS  C:\Users\Diego\AppData\Local\Temp\cc2hwaET.s 			page 28


 1156              		.loc 1 345 0 discriminator 3
 1157 073a 97F84430 		ldrb	r3, [r7, #68]	@ zero_extendqisi2
 1158 073e AF4A     		ldr	r2, .L213
 1159 0740 0021     		movs	r1, #0
 1160 0742 D154     		strb	r1, [r2, r3]
 344:main.c        ****                     for(uint8 LCDRx = 0; LCDRx < 20; LCDRx++){
 1161              		.loc 1 344 0 discriminator 3
 1162 0744 97F84430 		ldrb	r3, [r7, #68]	@ zero_extendqisi2
 1163 0748 0133     		adds	r3, r3, #1
 1164 074a 87F84430 		strb	r3, [r7, #68]
 1165              	.L83:
 344:main.c        ****                     for(uint8 LCDRx = 0; LCDRx < 20; LCDRx++){
 1166              		.loc 1 344 0 is_stmt 0 discriminator 1
 1167 074e 97F84430 		ldrb	r3, [r7, #68]	@ zero_extendqisi2
 1168 0752 132B     		cmp	r3, #19
 1169 0754 F1D9     		bls	.L84
 1170              	.LBE17:
 1171              	.LBB18:
 346:main.c        ****                     }
 347:main.c        ****                     for(uint8 LCDRx = 0; LCDRx < 8; LCDRx++){
 1172              		.loc 1 347 0 is_stmt 1
 1173 0756 0023     		movs	r3, #0
 1174 0758 87F84330 		strb	r3, [r7, #67]
 1175 075c 0BE0     		b	.L85
 1176              	.L86:
 348:main.c        ****                         side.c.msn_plate[LCDRx] = 0x20;
 1177              		.loc 1 348 0 discriminator 3
 1178 075e 97F84330 		ldrb	r3, [r7, #67]	@ zero_extendqisi2
 1179 0762 A74A     		ldr	r2, .L213+4
 1180 0764 1344     		add	r3, r3, r2
 1181 0766 2022     		movs	r2, #32
 1182 0768 83F88D23 		strb	r2, [r3, #909]
 347:main.c        ****                         side.c.msn_plate[LCDRx] = 0x20;
 1183              		.loc 1 347 0 discriminator 3
 1184 076c 97F84330 		ldrb	r3, [r7, #67]	@ zero_extendqisi2
 1185 0770 0133     		adds	r3, r3, #1
 1186 0772 87F84330 		strb	r3, [r7, #67]
 1187              	.L85:
 347:main.c        ****                         side.c.msn_plate[LCDRx] = 0x20;
 1188              		.loc 1 347 0 is_stmt 0 discriminator 1
 1189 0776 97F84330 		ldrb	r3, [r7, #67]	@ zero_extendqisi2
 1190 077a 072B     		cmp	r3, #7
 1191 077c EFD9     		bls	.L86
 1192              	.LBE18:
 1193              	.LBB19:
 349:main.c        ****                     }
 350:main.c        ****                     for(uint8 LCDRx = 0; LCDRx < 6; LCDRx++){
 1194              		.loc 1 350 0 is_stmt 1
 1195 077e 0023     		movs	r3, #0
 1196 0780 87F84230 		strb	r3, [r7, #66]
 1197 0784 0BE0     		b	.L87
 1198              	.L88:
 351:main.c        ****                         side.c.km[LCDRx] = 0x20;
 1199              		.loc 1 351 0 discriminator 3
 1200 0786 97F84230 		ldrb	r3, [r7, #66]	@ zero_extendqisi2
 1201 078a 9D4A     		ldr	r2, .L213+4
 1202 078c 1344     		add	r3, r3, r2
ARM GAS  C:\Users\Diego\AppData\Local\Temp\cc2hwaET.s 			page 29


 1203 078e 2022     		movs	r2, #32
 1204 0790 83F89723 		strb	r2, [r3, #919]
 350:main.c        ****                         side.c.km[LCDRx] = 0x20;
 1205              		.loc 1 350 0 discriminator 3
 1206 0794 97F84230 		ldrb	r3, [r7, #66]	@ zero_extendqisi2
 1207 0798 0133     		adds	r3, r3, #1
 1208 079a 87F84230 		strb	r3, [r7, #66]
 1209              	.L87:
 350:main.c        ****                         side.c.km[LCDRx] = 0x20;
 1210              		.loc 1 350 0 is_stmt 0 discriminator 1
 1211 079e 97F84230 		ldrb	r3, [r7, #66]	@ zero_extendqisi2
 1212 07a2 052B     		cmp	r3, #5
 1213 07a4 EFD9     		bls	.L88
 1214              	.LBE19:
 352:main.c        ****                     }                                        
 353:main.c        ****         		}
 354:main.c        ****         	break;
 1215              		.loc 1 354 0 is_stmt 1
 1216 07a6 00F06DBE 		b	.L202
 1217              	.L39:
 355:main.c        ****                 
 356:main.c        ****             case 0x0D:
 357:main.c        ****         		if(W_autorize == 1){
 1218              		.loc 1 357 0
 1219 07aa 97F85630 		ldrb	r3, [r7, #86]	@ zero_extendqisi2
 1220 07ae 012B     		cmp	r3, #1
 1221 07b0 1AD1     		bne	.L89
 358:main.c        ****         			W_autorize = 0;
 1222              		.loc 1 358 0
 1223 07b2 0023     		movs	r3, #0
 1224 07b4 87F85630 		strb	r3, [r7, #86]
 359:main.c        ****                     //PriceUpdate(side.b.dir,side.b.ppuNozzle[0]);
 360:main.c        ****                     Authorize(side.d.dir);
 1225              		.loc 1 360 0
 1226 07b8 914B     		ldr	r3, .L213+4
 1227 07ba 93F89F33 		ldrb	r3, [r3, #927]	@ zero_extendqisi2
 1228 07be 1846     		mov	r0, r3
 1229 07c0 FFF7FEFF 		bl	Authorize
 1230              	.LBB20:
 361:main.c        ****                     for(uint8 LCDRx = 0; LCDRx < 20; LCDRx++){
 1231              		.loc 1 361 0
 1232 07c4 0023     		movs	r3, #0
 1233 07c6 87F84130 		strb	r3, [r7, #65]
 1234 07ca 09E0     		b	.L90
 1235              	.L91:
 362:main.c        ****                         touch1[LCDRx] = 0x00;
 1236              		.loc 1 362 0 discriminator 3
 1237 07cc 97F84130 		ldrb	r3, [r7, #65]	@ zero_extendqisi2
 1238 07d0 8A4A     		ldr	r2, .L213
 1239 07d2 0021     		movs	r1, #0
 1240 07d4 D154     		strb	r1, [r2, r3]
 361:main.c        ****                     for(uint8 LCDRx = 0; LCDRx < 20; LCDRx++){
 1241              		.loc 1 361 0 discriminator 3
 1242 07d6 97F84130 		ldrb	r3, [r7, #65]	@ zero_extendqisi2
 1243 07da 0133     		adds	r3, r3, #1
 1244 07dc 87F84130 		strb	r3, [r7, #65]
 1245              	.L90:
ARM GAS  C:\Users\Diego\AppData\Local\Temp\cc2hwaET.s 			page 30


 361:main.c        ****                     for(uint8 LCDRx = 0; LCDRx < 20; LCDRx++){
 1246              		.loc 1 361 0 is_stmt 0 discriminator 1
 1247 07e0 97F84130 		ldrb	r3, [r7, #65]	@ zero_extendqisi2
 1248 07e4 132B     		cmp	r3, #19
 1249 07e6 F1D9     		bls	.L91
 1250              	.L89:
 1251              	.LBE20:
 363:main.c        ****                     }
 364:main.c        ****         		}
 365:main.c        ****         		if(W_autorize == 2){
 1252              		.loc 1 365 0 is_stmt 1
 1253 07e8 97F85630 		ldrb	r3, [r7, #86]	@ zero_extendqisi2
 1254 07ec 022B     		cmp	r3, #2
 1255 07ee 17D1     		bne	.L92
 366:main.c        ****                     W_autorize = 0x0C;
 1256              		.loc 1 366 0
 1257 07f0 0C23     		movs	r3, #12
 1258 07f2 87F85630 		strb	r3, [r7, #86]
 367:main.c        ****                     PumpState(side.d.dir);            
 1259              		.loc 1 367 0
 1260 07f6 824B     		ldr	r3, .L213+4
 1261 07f8 93F89F33 		ldrb	r3, [r3, #927]	@ zero_extendqisi2
 1262 07fc 1846     		mov	r0, r3
 1263 07fe FFF7FEFF 		bl	PumpState
 368:main.c        ****                     TotalRequest(side.d.dir, TotalRequestType, 1); //dir 0, volume, nozzle 1       
 1264              		.loc 1 368 0
 1265 0802 7F4B     		ldr	r3, .L213+4
 1266 0804 93F89F03 		ldrb	r0, [r3, #927]	@ zero_extendqisi2
 1267 0808 7E4B     		ldr	r3, .L213+8
 1268 080a 1B78     		ldrb	r3, [r3]	@ zero_extendqisi2
 1269 080c 0122     		movs	r2, #1
 1270 080e 1946     		mov	r1, r3
 1271 0810 FFF7FEFF 		bl	TotalRequest
 369:main.c        ****                     PumpState(side.d.dir);                     
 1272              		.loc 1 369 0
 1273 0814 7A4B     		ldr	r3, .L213+4
 1274 0816 93F89F33 		ldrb	r3, [r3, #927]	@ zero_extendqisi2
 1275 081a 1846     		mov	r0, r3
 1276 081c FFF7FEFF 		bl	PumpState
 1277              	.L92:
 370:main.c        ****                 }                
 371:main.c        ****                 if(W_autorize == 'k'){                    
 1278              		.loc 1 371 0
 1279 0820 97F85630 		ldrb	r3, [r7, #86]	@ zero_extendqisi2
 1280 0824 6B2B     		cmp	r3, #107
 1281 0826 40F02F86 		bne	.L203
 372:main.c        ****                     W_autorize = 0x1D; 
 1282              		.loc 1 372 0
 1283 082a 1D23     		movs	r3, #29
 1284 082c 87F85630 		strb	r3, [r7, #86]
 373:main.c        ****                     PumpState(side.d.dir);            
 1285              		.loc 1 373 0
 1286 0830 734B     		ldr	r3, .L213+4
 1287 0832 93F89F33 		ldrb	r3, [r3, #927]	@ zero_extendqisi2
 1288 0836 1846     		mov	r0, r3
 1289 0838 FFF7FEFF 		bl	PumpState
 374:main.c        ****                     TotalRequest(side.d.dir, TotalRequestType, 1); //dir 0, volume, nozzle 1       
ARM GAS  C:\Users\Diego\AppData\Local\Temp\cc2hwaET.s 			page 31


 1290              		.loc 1 374 0
 1291 083c 704B     		ldr	r3, .L213+4
 1292 083e 93F89F03 		ldrb	r0, [r3, #927]	@ zero_extendqisi2
 1293 0842 704B     		ldr	r3, .L213+8
 1294 0844 1B78     		ldrb	r3, [r3]	@ zero_extendqisi2
 1295 0846 0122     		movs	r2, #1
 1296 0848 1946     		mov	r1, r3
 1297 084a FFF7FEFF 		bl	TotalRequest
 375:main.c        ****                     PumpState(side.d.dir);
 1298              		.loc 1 375 0
 1299 084e 6C4B     		ldr	r3, .L213+4
 1300 0850 93F89F33 		ldrb	r3, [r3, #927]	@ zero_extendqisi2
 1301 0854 1846     		mov	r0, r3
 1302 0856 FFF7FEFF 		bl	PumpState
 1303              	.LBB21:
 376:main.c        ****                     for(uint8 LCDRx = 0; LCDRx < 20; LCDRx++){
 1304              		.loc 1 376 0
 1305 085a 0023     		movs	r3, #0
 1306 085c 87F84030 		strb	r3, [r7, #64]
 1307 0860 09E0     		b	.L94
 1308              	.L95:
 377:main.c        ****                         touch1[LCDRx] = 0x00;
 1309              		.loc 1 377 0 discriminator 3
 1310 0862 97F84030 		ldrb	r3, [r7, #64]	@ zero_extendqisi2
 1311 0866 654A     		ldr	r2, .L213
 1312 0868 0021     		movs	r1, #0
 1313 086a D154     		strb	r1, [r2, r3]
 376:main.c        ****                     for(uint8 LCDRx = 0; LCDRx < 20; LCDRx++){
 1314              		.loc 1 376 0 discriminator 3
 1315 086c 97F84030 		ldrb	r3, [r7, #64]	@ zero_extendqisi2
 1316 0870 0133     		adds	r3, r3, #1
 1317 0872 87F84030 		strb	r3, [r7, #64]
 1318              	.L94:
 376:main.c        ****                     for(uint8 LCDRx = 0; LCDRx < 20; LCDRx++){
 1319              		.loc 1 376 0 is_stmt 0 discriminator 1
 1320 0876 97F84030 		ldrb	r3, [r7, #64]	@ zero_extendqisi2
 1321 087a 132B     		cmp	r3, #19
 1322 087c F1D9     		bls	.L95
 1323              	.LBE21:
 1324              	.LBB22:
 378:main.c        ****                     }
 379:main.c        ****                     for(uint8 LCDRx = 0; LCDRx < 8; LCDRx++){
 1325              		.loc 1 379 0 is_stmt 1
 1326 087e 0023     		movs	r3, #0
 1327 0880 87F83F30 		strb	r3, [r7, #63]
 1328 0884 0BE0     		b	.L96
 1329              	.L97:
 380:main.c        ****                         side.d.msn_plate[LCDRx] = 0x20;
 1330              		.loc 1 380 0 discriminator 3
 1331 0886 97F83F30 		ldrb	r3, [r7, #63]	@ zero_extendqisi2
 1332 088a 5D4A     		ldr	r2, .L213+4
 1333 088c 1344     		add	r3, r3, r2
 1334 088e 2022     		movs	r2, #32
 1335 0890 83F8C224 		strb	r2, [r3, #1218]
 379:main.c        ****                         side.d.msn_plate[LCDRx] = 0x20;
 1336              		.loc 1 379 0 discriminator 3
 1337 0894 97F83F30 		ldrb	r3, [r7, #63]	@ zero_extendqisi2
ARM GAS  C:\Users\Diego\AppData\Local\Temp\cc2hwaET.s 			page 32


 1338 0898 0133     		adds	r3, r3, #1
 1339 089a 87F83F30 		strb	r3, [r7, #63]
 1340              	.L96:
 379:main.c        ****                         side.d.msn_plate[LCDRx] = 0x20;
 1341              		.loc 1 379 0 is_stmt 0 discriminator 1
 1342 089e 97F83F30 		ldrb	r3, [r7, #63]	@ zero_extendqisi2
 1343 08a2 072B     		cmp	r3, #7
 1344 08a4 EFD9     		bls	.L97
 1345              	.LBE22:
 1346              	.LBB23:
 381:main.c        ****                     }
 382:main.c        ****                     for(uint8 LCDRx = 0; LCDRx < 6; LCDRx++){
 1347              		.loc 1 382 0 is_stmt 1
 1348 08a6 0023     		movs	r3, #0
 1349 08a8 87F83E30 		strb	r3, [r7, #62]
 1350 08ac 0BE0     		b	.L98
 1351              	.L99:
 383:main.c        ****                         side.d.km[LCDRx] = 0x20;
 1352              		.loc 1 383 0 discriminator 3
 1353 08ae 97F83E30 		ldrb	r3, [r7, #62]	@ zero_extendqisi2
 1354 08b2 534A     		ldr	r2, .L213+4
 1355 08b4 1344     		add	r3, r3, r2
 1356 08b6 2022     		movs	r2, #32
 1357 08b8 83F8CC24 		strb	r2, [r3, #1228]
 382:main.c        ****                         side.d.km[LCDRx] = 0x20;
 1358              		.loc 1 382 0 discriminator 3
 1359 08bc 97F83E30 		ldrb	r3, [r7, #62]	@ zero_extendqisi2
 1360 08c0 0133     		adds	r3, r3, #1
 1361 08c2 87F83E30 		strb	r3, [r7, #62]
 1362              	.L98:
 382:main.c        ****                         side.d.km[LCDRx] = 0x20;
 1363              		.loc 1 382 0 is_stmt 0 discriminator 1
 1364 08c6 97F83E30 		ldrb	r3, [r7, #62]	@ zero_extendqisi2
 1365 08ca 052B     		cmp	r3, #5
 1366 08cc EFD9     		bls	.L99
 1367              	.LBE23:
 384:main.c        ****                     }                                        
 385:main.c        ****         		}
 386:main.c        ****         	break;
 1368              		.loc 1 386 0 is_stmt 1
 1369 08ce 00F0DBBD 		b	.L203
 1370              	.L44:
 387:main.c        ****                 
 388:main.c        ****         	case 0xCC:
 389:main.c        ****         		PumpState(side.b.dir);            
 1371              		.loc 1 389 0
 1372 08d2 4B4B     		ldr	r3, .L213+4
 1373 08d4 93F83531 		ldrb	r3, [r3, #309]	@ zero_extendqisi2
 1374 08d8 1846     		mov	r0, r3
 1375 08da FFF7FEFF 		bl	PumpState
 390:main.c        ****         		TotalRequest(side.b.dir, TotalRequestType, 1); //dir 0, volume, nozzle 1      
 1376              		.loc 1 390 0
 1377 08de 484B     		ldr	r3, .L213+4
 1378 08e0 93F83501 		ldrb	r0, [r3, #309]	@ zero_extendqisi2
 1379 08e4 474B     		ldr	r3, .L213+8
 1380 08e6 1B78     		ldrb	r3, [r3]	@ zero_extendqisi2
 1381 08e8 0122     		movs	r2, #1
ARM GAS  C:\Users\Diego\AppData\Local\Temp\cc2hwaET.s 			page 33


 1382 08ea 1946     		mov	r1, r3
 1383 08ec FFF7FEFF 		bl	TotalRequest
 391:main.c        ****                 CyDelay(10);
 1384              		.loc 1 391 0
 1385 08f0 0A20     		movs	r0, #10
 1386 08f2 FFF7FEFF 		bl	CyDelay
 392:main.c        ****         		PumpState(side.b.dir); 
 1387              		.loc 1 392 0
 1388 08f6 424B     		ldr	r3, .L213+4
 1389 08f8 93F83531 		ldrb	r3, [r3, #309]	@ zero_extendqisi2
 1390 08fc 1846     		mov	r0, r3
 1391 08fe FFF7FEFF 		bl	PumpState
 393:main.c        ****         		PumpState(side.a.dir);            
 1392              		.loc 1 393 0
 1393 0902 3F4B     		ldr	r3, .L213+4
 1394 0904 1B78     		ldrb	r3, [r3]	@ zero_extendqisi2
 1395 0906 1846     		mov	r0, r3
 1396 0908 FFF7FEFF 		bl	PumpState
 394:main.c        ****         		TotalRequest(side.a.dir, TotalRequestType, 1); //dir 0, volume, nozzle 1   
 1397              		.loc 1 394 0
 1398 090c 3C4B     		ldr	r3, .L213+4
 1399 090e 1878     		ldrb	r0, [r3]	@ zero_extendqisi2
 1400 0910 3C4B     		ldr	r3, .L213+8
 1401 0912 1B78     		ldrb	r3, [r3]	@ zero_extendqisi2
 1402 0914 0122     		movs	r2, #1
 1403 0916 1946     		mov	r1, r3
 1404 0918 FFF7FEFF 		bl	TotalRequest
 395:main.c        ****                 CyDelay(10);
 1405              		.loc 1 395 0
 1406 091c 0A20     		movs	r0, #10
 1407 091e FFF7FEFF 		bl	CyDelay
 396:main.c        ****         		PumpState(side.a.dir);
 1408              		.loc 1 396 0
 1409 0922 374B     		ldr	r3, .L213+4
 1410 0924 1B78     		ldrb	r3, [r3]	@ zero_extendqisi2
 1411 0926 1846     		mov	r0, r3
 1412 0928 FFF7FEFF 		bl	PumpState
 397:main.c        ****                 PumpState(side.b.dir);
 1413              		.loc 1 397 0
 1414 092c 344B     		ldr	r3, .L213+4
 1415 092e 93F83531 		ldrb	r3, [r3, #309]	@ zero_extendqisi2
 1416 0932 1846     		mov	r0, r3
 1417 0934 FFF7FEFF 		bl	PumpState
 398:main.c        ****                 TotalRequest(side.b.dir, TotalRequestType, 2); //dir 0, volume, nozzle 1  
 1418              		.loc 1 398 0
 1419 0938 314B     		ldr	r3, .L213+4
 1420 093a 93F83501 		ldrb	r0, [r3, #309]	@ zero_extendqisi2
 1421 093e 314B     		ldr	r3, .L213+8
 1422 0940 1B78     		ldrb	r3, [r3]	@ zero_extendqisi2
 1423 0942 0222     		movs	r2, #2
 1424 0944 1946     		mov	r1, r3
 1425 0946 FFF7FEFF 		bl	TotalRequest
 399:main.c        ****                 CyDelay(10);
 1426              		.loc 1 399 0
 1427 094a 0A20     		movs	r0, #10
 1428 094c FFF7FEFF 		bl	CyDelay
 400:main.c        ****         		PumpState(side.b.dir); 
ARM GAS  C:\Users\Diego\AppData\Local\Temp\cc2hwaET.s 			page 34


 1429              		.loc 1 400 0
 1430 0950 2B4B     		ldr	r3, .L213+4
 1431 0952 93F83531 		ldrb	r3, [r3, #309]	@ zero_extendqisi2
 1432 0956 1846     		mov	r0, r3
 1433 0958 FFF7FEFF 		bl	PumpState
 401:main.c        ****         		PumpState(side.a.dir);            
 1434              		.loc 1 401 0
 1435 095c 284B     		ldr	r3, .L213+4
 1436 095e 1B78     		ldrb	r3, [r3]	@ zero_extendqisi2
 1437 0960 1846     		mov	r0, r3
 1438 0962 FFF7FEFF 		bl	PumpState
 402:main.c        ****         		TotalRequest(side.a.dir, TotalRequestType, 2); //dir 0, volume, nozzle 1 
 1439              		.loc 1 402 0
 1440 0966 264B     		ldr	r3, .L213+4
 1441 0968 1878     		ldrb	r0, [r3]	@ zero_extendqisi2
 1442 096a 264B     		ldr	r3, .L213+8
 1443 096c 1B78     		ldrb	r3, [r3]	@ zero_extendqisi2
 1444 096e 0222     		movs	r2, #2
 1445 0970 1946     		mov	r1, r3
 1446 0972 FFF7FEFF 		bl	TotalRequest
 403:main.c        ****                 CyDelay(10);
 1447              		.loc 1 403 0
 1448 0976 0A20     		movs	r0, #10
 1449 0978 FFF7FEFF 		bl	CyDelay
 404:main.c        ****         		PumpState(side.a.dir);
 1450              		.loc 1 404 0
 1451 097c 204B     		ldr	r3, .L213+4
 1452 097e 1B78     		ldrb	r3, [r3]	@ zero_extendqisi2
 1453 0980 1846     		mov	r0, r3
 1454 0982 FFF7FEFF 		bl	PumpState
 405:main.c        ****                 PumpState(side.b.dir);
 1455              		.loc 1 405 0
 1456 0986 1E4B     		ldr	r3, .L213+4
 1457 0988 93F83531 		ldrb	r3, [r3, #309]	@ zero_extendqisi2
 1458 098c 1846     		mov	r0, r3
 1459 098e FFF7FEFF 		bl	PumpState
 1460              	.LBB24:
 406:main.c        ****         		for(uint8 LCDRx = 0; LCDRx < 20; LCDRx++){
 1461              		.loc 1 406 0
 1462 0992 0023     		movs	r3, #0
 1463 0994 87F83D30 		strb	r3, [r7, #61]
 1464 0998 09E0     		b	.L100
 1465              	.L101:
 407:main.c        ****         			touch1[LCDRx] = 0x00;
 1466              		.loc 1 407 0 discriminator 3
 1467 099a 97F83D30 		ldrb	r3, [r7, #61]	@ zero_extendqisi2
 1468 099e 174A     		ldr	r2, .L213
 1469 09a0 0021     		movs	r1, #0
 1470 09a2 D154     		strb	r1, [r2, r3]
 406:main.c        ****         		for(uint8 LCDRx = 0; LCDRx < 20; LCDRx++){
 1471              		.loc 1 406 0 discriminator 3
 1472 09a4 97F83D30 		ldrb	r3, [r7, #61]	@ zero_extendqisi2
 1473 09a8 0133     		adds	r3, r3, #1
 1474 09aa 87F83D30 		strb	r3, [r7, #61]
 1475              	.L100:
 406:main.c        ****         		for(uint8 LCDRx = 0; LCDRx < 20; LCDRx++){
 1476              		.loc 1 406 0 is_stmt 0 discriminator 1
ARM GAS  C:\Users\Diego\AppData\Local\Temp\cc2hwaET.s 			page 35


 1477 09ae 97F83D30 		ldrb	r3, [r7, #61]	@ zero_extendqisi2
 1478 09b2 132B     		cmp	r3, #19
 1479 09b4 F1D9     		bls	.L101
 1480              	.LBE24:
 408:main.c        ****         		}                        
 409:main.c        ****         		PrintShift(); 
 1481              		.loc 1 409 0 is_stmt 1
 1482 09b6 FFF7FEFF 		bl	PrintShift
 410:main.c        ****         	break;
 1483              		.loc 1 410 0
 1484 09ba 00F06EBD 		b	.L47
 1485              	.L43:
 411:main.c        ****             case 0x53:
 412:main.c        ****                 if(W_autorize == 0xAC){
 1486              		.loc 1 412 0
 1487 09be 97F85630 		ldrb	r3, [r7, #86]	@ zero_extendqisi2
 1488 09c2 AC2B     		cmp	r3, #172
 1489 09c4 08D1     		bne	.L102
 413:main.c        ****                     side.a.Copy = 1;
 1490              		.loc 1 413 0
 1491 09c6 0E4B     		ldr	r3, .L213+4
 1492 09c8 0122     		movs	r2, #1
 1493 09ca 83F83421 		strb	r2, [r3, #308]
 414:main.c        ****                     PrintReceipt(side.a.dir);
 1494              		.loc 1 414 0
 1495 09ce 0C4B     		ldr	r3, .L213+4
 1496 09d0 1B78     		ldrb	r3, [r3]	@ zero_extendqisi2
 1497 09d2 1846     		mov	r0, r3
 1498 09d4 FFF7FEFF 		bl	PrintReceipt
 1499              	.L102:
 415:main.c        ****                 }
 416:main.c        ****                 if(W_autorize == 0xBC){
 1500              		.loc 1 416 0
 1501 09d8 97F85630 		ldrb	r3, [r7, #86]	@ zero_extendqisi2
 1502 09dc BC2B     		cmp	r3, #188
 1503 09de 40F05585 		bne	.L204
 417:main.c        ****                     side.b.Copy = 1;
 1504              		.loc 1 417 0
 1505 09e2 074B     		ldr	r3, .L213+4
 1506 09e4 0122     		movs	r2, #1
 1507 09e6 83F86922 		strb	r2, [r3, #617]
 418:main.c        ****                     PrintReceipt(side.b.dir);
 1508              		.loc 1 418 0
 1509 09ea 054B     		ldr	r3, .L213+4
 1510 09ec 93F83531 		ldrb	r3, [r3, #309]	@ zero_extendqisi2
 1511 09f0 1846     		mov	r0, r3
 1512 09f2 FFF7FEFF 		bl	PrintReceipt
 419:main.c        ****                 } 
 420:main.c        **** //                if(W_autorize == 0xCC){
 421:main.c        **** //                    side.c.Copy = 1;
 422:main.c        **** //                    PrintReceipt(side.c.dir);
 423:main.c        **** //                }
 424:main.c        **** //                if(W_autorize == 0xDC){
 425:main.c        **** //                    side.d.Copy = 1;
 426:main.c        **** //                    PrintReceipt(side.d.dir);
 427:main.c        **** //                }
 428:main.c        ****             break;
ARM GAS  C:\Users\Diego\AppData\Local\Temp\cc2hwaET.s 			page 36


 1513              		.loc 1 428 0
 1514 09f6 00F049BD 		b	.L204
 1515              	.L214:
 1516 09fa 00BF     		.align	2
 1517              	.L213:
 1518 09fc 00000000 		.word	touch1
 1519 0a00 00000000 		.word	side
 1520 0a04 00000000 		.word	TotalRequestType
 1521              	.L42:
 429:main.c        ****             case 0x4E:
 430:main.c        ****                 if(W_autorize == 0xAC){
 1522              		.loc 1 430 0
 1523 0a08 97F85630 		ldrb	r3, [r7, #86]	@ zero_extendqisi2
 1524 0a0c AC2B     		cmp	r3, #172
 1525 0a0e 06D1     		bne	.L104
 431:main.c        ****                     W_autorize = 0;
 1526              		.loc 1 431 0
 1527 0a10 0023     		movs	r3, #0
 1528 0a12 87F85630 		strb	r3, [r7, #86]
 432:main.c        ****                     side.a.Copy = 0;                    
 1529              		.loc 1 432 0
 1530 0a16 BD4B     		ldr	r3, .L215
 1531 0a18 0022     		movs	r2, #0
 1532 0a1a 83F83421 		strb	r2, [r3, #308]
 1533              	.L104:
 433:main.c        ****                 }
 434:main.c        ****                 if(W_autorize == 0xBC){
 1534              		.loc 1 434 0
 1535 0a1e 97F85630 		ldrb	r3, [r7, #86]	@ zero_extendqisi2
 1536 0a22 BC2B     		cmp	r3, #188
 1537 0a24 40F03485 		bne	.L205
 435:main.c        ****                     W_autorize = 0;
 1538              		.loc 1 435 0
 1539 0a28 0023     		movs	r3, #0
 1540 0a2a 87F85630 		strb	r3, [r7, #86]
 436:main.c        ****                     side.b.Copy = 0;                                        
 1541              		.loc 1 436 0
 1542 0a2e B74B     		ldr	r3, .L215
 1543 0a30 0022     		movs	r2, #0
 1544 0a32 83F86922 		strb	r2, [r3, #617]
 437:main.c        ****                 } 
 438:main.c        **** //                if(W_autorize == 0xCC){
 439:main.c        **** //                    W_autorize = 0;
 440:main.c        **** //                    side.c.Copy = 0;                    
 441:main.c        **** //                }
 442:main.c        **** //                if(W_autorize == 0xDC){
 443:main.c        **** //                    W_autorize = 0;
 444:main.c        **** //                    side.d.Copy = 0;                                        
 445:main.c        **** //                }
 446:main.c        ****             break;
 1545              		.loc 1 446 0
 1546 0a36 00F02BBD 		b	.L205
 1547              	.L45:
 447:main.c        ****             case 0xE1:
 448:main.c        ****                 if(W_autorize == 0xE1){
 1548              		.loc 1 448 0
 1549 0a3a 97F85630 		ldrb	r3, [r7, #86]	@ zero_extendqisi2
ARM GAS  C:\Users\Diego\AppData\Local\Temp\cc2hwaET.s 			page 37


 1550 0a3e E12B     		cmp	r3, #225
 1551 0a40 02D1     		bne	.L106
 449:main.c        ****                     W_autorize = 0xC1;
 1552              		.loc 1 449 0
 1553 0a42 C123     		movs	r3, #193
 1554 0a44 87F85630 		strb	r3, [r7, #86]
 1555              	.L106:
 450:main.c        ****                 }
 451:main.c        ****                 if(W_autorize == 0xE2){
 1556              		.loc 1 451 0
 1557 0a48 97F85630 		ldrb	r3, [r7, #86]	@ zero_extendqisi2
 1558 0a4c E22B     		cmp	r3, #226
 1559 0a4e 40F02185 		bne	.L206
 452:main.c        ****                     W_autorize = 0xC2;
 1560              		.loc 1 452 0
 1561 0a52 C223     		movs	r3, #194
 1562 0a54 87F85630 		strb	r3, [r7, #86]
 453:main.c        ****                 }
 454:main.c        ****             break;
 1563              		.loc 1 454 0
 1564 0a58 00F01CBD 		b	.L206
 1565              	.L30:
 455:main.c        ****         	default:
 456:main.c        ****                 if(touch1[3] == 0x83 && price_change == 0x0A && touch1[8] != 0xE1){
 1566              		.loc 1 456 0
 1567 0a5c AC4B     		ldr	r3, .L215+4
 1568 0a5e DB78     		ldrb	r3, [r3, #3]	@ zero_extendqisi2
 1569 0a60 832B     		cmp	r3, #131
 1570 0a62 40F0DB80 		bne	.L108
 1571              		.loc 1 456 0 is_stmt 0 discriminator 1
 1572 0a66 97F85430 		ldrb	r3, [r7, #84]	@ zero_extendqisi2
 1573 0a6a 0A2B     		cmp	r3, #10
 1574 0a6c 40F0D680 		bne	.L108
 1575              		.loc 1 456 0 discriminator 2
 1576 0a70 A74B     		ldr	r3, .L215+4
 1577 0a72 1B7A     		ldrb	r3, [r3, #8]	@ zero_extendqisi2
 1578 0a74 E12B     		cmp	r3, #225
 1579 0a76 00F0D180 		beq	.L108
 1580              	.LBB25:
 457:main.c        ****                     for(uint8 LCDRx = 0; LCDRx < 6; LCDRx++){                        
 1581              		.loc 1 457 0 is_stmt 1
 1582 0a7a 0023     		movs	r3, #0
 1583 0a7c 87F83C30 		strb	r3, [r7, #60]
 1584 0a80 0BE0     		b	.L109
 1585              	.L110:
 458:main.c        ****                         side.a.ProcessedPPU[0][LCDRx] = 0x30;
 1586              		.loc 1 458 0 discriminator 3
 1587 0a82 97F83C30 		ldrb	r3, [r7, #60]	@ zero_extendqisi2
 1588 0a86 A14A     		ldr	r2, .L215
 1589 0a88 1344     		add	r3, r3, r2
 1590 0a8a 3022     		movs	r2, #48
 1591 0a8c 83F80B21 		strb	r2, [r3, #267]
 457:main.c        ****                     for(uint8 LCDRx = 0; LCDRx < 6; LCDRx++){                        
 1592              		.loc 1 457 0 discriminator 3
 1593 0a90 97F83C30 		ldrb	r3, [r7, #60]	@ zero_extendqisi2
 1594 0a94 0133     		adds	r3, r3, #1
 1595 0a96 87F83C30 		strb	r3, [r7, #60]
ARM GAS  C:\Users\Diego\AppData\Local\Temp\cc2hwaET.s 			page 38


 1596              	.L109:
 457:main.c        ****                     for(uint8 LCDRx = 0; LCDRx < 6; LCDRx++){                        
 1597              		.loc 1 457 0 is_stmt 0 discriminator 1
 1598 0a9a 97F83C30 		ldrb	r3, [r7, #60]	@ zero_extendqisi2
 1599 0a9e 052B     		cmp	r3, #5
 1600 0aa0 EFD9     		bls	.L110
 1601              	.LBE25:
 459:main.c        ****             		}
 460:main.c        ****                     y = 0;
 1602              		.loc 1 460 0 is_stmt 1
 1603 0aa2 0023     		movs	r3, #0
 1604 0aa4 87F85530 		strb	r3, [r7, #85]
 461:main.c        ****                     LCDhose = 0;
 1605              		.loc 1 461 0
 1606 0aa8 9A4B     		ldr	r3, .L215+8
 1607 0aaa 0022     		movs	r2, #0
 1608 0aac 1A70     		strb	r2, [r3]
 462:main.c        ****                     price_change = 0;
 1609              		.loc 1 462 0
 1610 0aae 0023     		movs	r3, #0
 1611 0ab0 87F85430 		strb	r3, [r7, #84]
 1612              	.LBB26:
 463:main.c        ****                     for(uint8 LCDRx = 7; LCDRx < 12; LCDRx++){
 1613              		.loc 1 463 0
 1614 0ab4 0723     		movs	r3, #7
 1615 0ab6 87F83B30 		strb	r3, [r7, #59]
 1616 0aba 21E0     		b	.L111
 1617              	.L113:
 464:main.c        ****                         if((touch1[LCDRx] == 0x00) ||(touch1[LCDRx] == 0xFF))
 1618              		.loc 1 464 0
 1619 0abc 97F83B30 		ldrb	r3, [r7, #59]	@ zero_extendqisi2
 1620 0ac0 934A     		ldr	r2, .L215+4
 1621 0ac2 D35C     		ldrb	r3, [r2, r3]	@ zero_extendqisi2
 1622 0ac4 002B     		cmp	r3, #0
 1623 0ac6 1FD0     		beq	.L112
 1624              		.loc 1 464 0 is_stmt 0 discriminator 1
 1625 0ac8 97F83B30 		ldrb	r3, [r7, #59]	@ zero_extendqisi2
 1626 0acc 904A     		ldr	r2, .L215+4
 1627 0ace D35C     		ldrb	r3, [r2, r3]	@ zero_extendqisi2
 1628 0ad0 FF2B     		cmp	r3, #255
 1629 0ad2 19D0     		beq	.L112
 465:main.c        ****                             break;
 466:main.c        ****                         auxPrice[LCDRx-7] = touch1[LCDRx];
 1630              		.loc 1 466 0 is_stmt 1 discriminator 2
 1631 0ad4 97F83B30 		ldrb	r3, [r7, #59]	@ zero_extendqisi2
 1632 0ad8 073B     		subs	r3, r3, #7
 1633 0ada 97F83B20 		ldrb	r2, [r7, #59]	@ zero_extendqisi2
 1634 0ade 8C49     		ldr	r1, .L215+4
 1635 0ae0 8A5C     		ldrb	r2, [r1, r2]	@ zero_extendqisi2
 1636 0ae2 07F15801 		add	r1, r7, #88
 1637 0ae6 0B44     		add	r3, r3, r1
 1638 0ae8 03F8542C 		strb	r2, [r3, #-84]
 467:main.c        ****                         y++;
 1639              		.loc 1 467 0 discriminator 2
 1640 0aec 97F85530 		ldrb	r3, [r7, #85]	@ zero_extendqisi2
 1641 0af0 0133     		adds	r3, r3, #1
 1642 0af2 87F85530 		strb	r3, [r7, #85]
ARM GAS  C:\Users\Diego\AppData\Local\Temp\cc2hwaET.s 			page 39


 463:main.c        ****                         if((touch1[LCDRx] == 0x00) ||(touch1[LCDRx] == 0xFF))
 1643              		.loc 1 463 0 discriminator 2
 1644 0af6 97F83B30 		ldrb	r3, [r7, #59]	@ zero_extendqisi2
 1645 0afa 0133     		adds	r3, r3, #1
 1646 0afc 87F83B30 		strb	r3, [r7, #59]
 1647              	.L111:
 463:main.c        ****                         if((touch1[LCDRx] == 0x00) ||(touch1[LCDRx] == 0xFF))
 1648              		.loc 1 463 0 is_stmt 0 discriminator 1
 1649 0b00 97F83B30 		ldrb	r3, [r7, #59]	@ zero_extendqisi2
 1650 0b04 0B2B     		cmp	r3, #11
 1651 0b06 D9D9     		bls	.L113
 1652              	.L112:
 1653              	.LBE26:
 468:main.c        ****             		}
 469:main.c        ****                     for (x = 6; x >0; x--){
 1654              		.loc 1 469 0 is_stmt 1
 1655 0b08 0623     		movs	r3, #6
 1656 0b0a 87F85730 		strb	r3, [r7, #87]
 1657 0b0e 1BE0     		b	.L114
 1658              	.L117:
 470:main.c        ****                         side.a.ProcessedPPU[0][x] = auxPrice[y];                        
 1659              		.loc 1 470 0
 1660 0b10 97F85730 		ldrb	r3, [r7, #87]	@ zero_extendqisi2
 1661 0b14 97F85520 		ldrb	r2, [r7, #85]	@ zero_extendqisi2
 1662 0b18 07F15801 		add	r1, r7, #88
 1663 0b1c 0A44     		add	r2, r2, r1
 1664 0b1e 12F8541C 		ldrb	r1, [r2, #-84]	@ zero_extendqisi2
 1665 0b22 7A4A     		ldr	r2, .L215
 1666 0b24 1344     		add	r3, r3, r2
 1667 0b26 0A46     		mov	r2, r1
 1668 0b28 83F80B21 		strb	r2, [r3, #267]
 471:main.c        ****                         if(y == 0 )
 1669              		.loc 1 471 0
 1670 0b2c 97F85530 		ldrb	r3, [r7, #85]	@ zero_extendqisi2
 1671 0b30 002B     		cmp	r3, #0
 1672 0b32 0ED0     		beq	.L207
 472:main.c        ****                             break;
 473:main.c        ****                         y--;
 1673              		.loc 1 473 0 discriminator 2
 1674 0b34 97F85530 		ldrb	r3, [r7, #85]	@ zero_extendqisi2
 1675 0b38 013B     		subs	r3, r3, #1
 1676 0b3a 87F85530 		strb	r3, [r7, #85]
 469:main.c        ****                         side.a.ProcessedPPU[0][x] = auxPrice[y];                        
 1677              		.loc 1 469 0 discriminator 2
 1678 0b3e 97F85730 		ldrb	r3, [r7, #87]	@ zero_extendqisi2
 1679 0b42 013B     		subs	r3, r3, #1
 1680 0b44 87F85730 		strb	r3, [r7, #87]
 1681              	.L114:
 469:main.c        ****                         side.a.ProcessedPPU[0][x] = auxPrice[y];                        
 1682              		.loc 1 469 0 is_stmt 0 discriminator 1
 1683 0b48 97F85730 		ldrb	r3, [r7, #87]	@ zero_extendqisi2
 1684 0b4c 002B     		cmp	r3, #0
 1685 0b4e DFD1     		bne	.L117
 1686 0b50 00E0     		b	.L116
 1687              	.L207:
 472:main.c        ****                             break;
 1688              		.loc 1 472 0 is_stmt 1
ARM GAS  C:\Users\Diego\AppData\Local\Temp\cc2hwaET.s 			page 40


 1689 0b52 00BF     		nop
 1690              	.L116:
 474:main.c        ****                     }
 475:main.c        ****                     
 476:main.c        ****                     side.a.ppuNozzle[0][0] = ((side.a.ProcessedPPU[0][0] - 0x30)<<4) |((side.a.Proc
 1691              		.loc 1 476 0
 1692 0b54 6D4B     		ldr	r3, .L215
 1693 0b56 93F80B31 		ldrb	r3, [r3, #267]	@ zero_extendqisi2
 1694 0b5a 303B     		subs	r3, r3, #48
 1695 0b5c 1B01     		lsls	r3, r3, #4
 1696 0b5e 5AB2     		sxtb	r2, r3
 1697 0b60 6A4B     		ldr	r3, .L215
 1698 0b62 93F80C31 		ldrb	r3, [r3, #268]	@ zero_extendqisi2
 1699 0b66 303B     		subs	r3, r3, #48
 1700 0b68 DBB2     		uxtb	r3, r3
 1701 0b6a 5BB2     		sxtb	r3, r3
 1702 0b6c 1343     		orrs	r3, r3, r2
 1703 0b6e 5BB2     		sxtb	r3, r3
 1704 0b70 DAB2     		uxtb	r2, r3
 1705 0b72 664B     		ldr	r3, .L215
 1706 0b74 83F82920 		strb	r2, [r3, #41]
 477:main.c        ****                     side.a.ppuNozzle[0][1] = ((side.a.ProcessedPPU[0][2] - 0x30)<<4) |((side.a.Proc
 1707              		.loc 1 477 0
 1708 0b78 644B     		ldr	r3, .L215
 1709 0b7a 93F80D31 		ldrb	r3, [r3, #269]	@ zero_extendqisi2
 1710 0b7e 303B     		subs	r3, r3, #48
 1711 0b80 1B01     		lsls	r3, r3, #4
 1712 0b82 5AB2     		sxtb	r2, r3
 1713 0b84 614B     		ldr	r3, .L215
 1714 0b86 93F80E31 		ldrb	r3, [r3, #270]	@ zero_extendqisi2
 1715 0b8a 303B     		subs	r3, r3, #48
 1716 0b8c DBB2     		uxtb	r3, r3
 1717 0b8e 5BB2     		sxtb	r3, r3
 1718 0b90 1343     		orrs	r3, r3, r2
 1719 0b92 5BB2     		sxtb	r3, r3
 1720 0b94 DAB2     		uxtb	r2, r3
 1721 0b96 5D4B     		ldr	r3, .L215
 1722 0b98 83F82A20 		strb	r2, [r3, #42]
 478:main.c        ****                     side.a.ppuNozzle[0][2] = ((side.a.ProcessedPPU[0][4] - 0x30)<<4) |((side.a.Proc
 1723              		.loc 1 478 0
 1724 0b9c 5B4B     		ldr	r3, .L215
 1725 0b9e 93F80F31 		ldrb	r3, [r3, #271]	@ zero_extendqisi2
 1726 0ba2 303B     		subs	r3, r3, #48
 1727 0ba4 1B01     		lsls	r3, r3, #4
 1728 0ba6 5AB2     		sxtb	r2, r3
 1729 0ba8 584B     		ldr	r3, .L215
 1730 0baa 93F81031 		ldrb	r3, [r3, #272]	@ zero_extendqisi2
 1731 0bae 303B     		subs	r3, r3, #48
 1732 0bb0 DBB2     		uxtb	r3, r3
 1733 0bb2 5BB2     		sxtb	r3, r3
 1734 0bb4 1343     		orrs	r3, r3, r2
 1735 0bb6 5BB2     		sxtb	r3, r3
 1736 0bb8 DAB2     		uxtb	r2, r3
 1737 0bba 544B     		ldr	r3, .L215
 1738 0bbc 83F82B20 		strb	r2, [r3, #43]
 479:main.c        ****                     for(x = 0; x < 3; x++){
 1739              		.loc 1 479 0
ARM GAS  C:\Users\Diego\AppData\Local\Temp\cc2hwaET.s 			page 41


 1740 0bc0 0023     		movs	r3, #0
 1741 0bc2 87F85730 		strb	r3, [r7, #87]
 1742 0bc6 13E0     		b	.L118
 1743              	.L119:
 480:main.c        ****                         EEPROM_1_WriteByte(side.a.ppuNozzle[0][x],12+x);
 1744              		.loc 1 480 0 discriminator 3
 1745 0bc8 97F85730 		ldrb	r3, [r7, #87]	@ zero_extendqisi2
 1746 0bcc 4F4A     		ldr	r2, .L215
 1747 0bce 1344     		add	r3, r3, r2
 1748 0bd0 93F82920 		ldrb	r2, [r3, #41]	@ zero_extendqisi2
 1749 0bd4 97F85730 		ldrb	r3, [r7, #87]	@ zero_extendqisi2
 1750 0bd8 9BB2     		uxth	r3, r3
 1751 0bda 0C33     		adds	r3, r3, #12
 1752 0bdc 9BB2     		uxth	r3, r3
 1753 0bde 1946     		mov	r1, r3
 1754 0be0 1046     		mov	r0, r2
 1755 0be2 FFF7FEFF 		bl	EEPROM_1_WriteByte
 479:main.c        ****                     for(x = 0; x < 3; x++){
 1756              		.loc 1 479 0 discriminator 3
 1757 0be6 97F85730 		ldrb	r3, [r7, #87]	@ zero_extendqisi2
 1758 0bea 0133     		adds	r3, r3, #1
 1759 0bec 87F85730 		strb	r3, [r7, #87]
 1760              	.L118:
 479:main.c        ****                     for(x = 0; x < 3; x++){
 1761              		.loc 1 479 0 is_stmt 0 discriminator 1
 1762 0bf0 97F85730 		ldrb	r3, [r7, #87]	@ zero_extendqisi2
 1763 0bf4 022B     		cmp	r3, #2
 1764 0bf6 E7D9     		bls	.L119
 1765              	.LBB27:
 481:main.c        ****                     }                                                            
 482:main.c        ****                     for(uint8 LCDRx = 0; LCDRx < 20; LCDRx++){
 1766              		.loc 1 482 0 is_stmt 1
 1767 0bf8 0023     		movs	r3, #0
 1768 0bfa 87F83A30 		strb	r3, [r7, #58]
 1769 0bfe 09E0     		b	.L120
 1770              	.L121:
 483:main.c        ****             			touch1[LCDRx] = 0x00;
 1771              		.loc 1 483 0 discriminator 3
 1772 0c00 97F83A30 		ldrb	r3, [r7, #58]	@ zero_extendqisi2
 1773 0c04 424A     		ldr	r2, .L215+4
 1774 0c06 0021     		movs	r1, #0
 1775 0c08 D154     		strb	r1, [r2, r3]
 482:main.c        ****             			touch1[LCDRx] = 0x00;
 1776              		.loc 1 482 0 discriminator 3
 1777 0c0a 97F83A30 		ldrb	r3, [r7, #58]	@ zero_extendqisi2
 1778 0c0e 0133     		adds	r3, r3, #1
 1779 0c10 87F83A30 		strb	r3, [r7, #58]
 1780              	.L120:
 482:main.c        ****             			touch1[LCDRx] = 0x00;
 1781              		.loc 1 482 0 is_stmt 0 discriminator 1
 1782 0c14 97F83A30 		ldrb	r3, [r7, #58]	@ zero_extendqisi2
 1783 0c18 132B     		cmp	r3, #19
 1784 0c1a F1D9     		bls	.L121
 1785              	.L108:
 1786              	.LBE27:
 484:main.c        ****             		}
 485:main.c        ****                 }
ARM GAS  C:\Users\Diego\AppData\Local\Temp\cc2hwaET.s 			page 42


 486:main.c        ****                 if(touch1[3] == 0x83 && price_change == 1 ){
 1787              		.loc 1 486 0 is_stmt 1
 1788 0c1c 3C4B     		ldr	r3, .L215+4
 1789 0c1e DB78     		ldrb	r3, [r3, #3]	@ zero_extendqisi2
 1790 0c20 832B     		cmp	r3, #131
 1791 0c22 0AD1     		bne	.L122
 1792              		.loc 1 486 0 is_stmt 0 discriminator 1
 1793 0c24 97F85430 		ldrb	r3, [r7, #84]	@ zero_extendqisi2
 1794 0c28 012B     		cmp	r3, #1
 1795 0c2a 06D1     		bne	.L122
 487:main.c        ****                     LCDhose = touch1[8];
 1796              		.loc 1 487 0 is_stmt 1
 1797 0c2c 384B     		ldr	r3, .L215+4
 1798 0c2e 1A7A     		ldrb	r2, [r3, #8]	@ zero_extendqisi2
 1799 0c30 384B     		ldr	r3, .L215+8
 1800 0c32 1A70     		strb	r2, [r3]
 488:main.c        ****                     price_change = 0x0A;
 1801              		.loc 1 488 0
 1802 0c34 0A23     		movs	r3, #10
 1803 0c36 87F85430 		strb	r3, [r7, #84]
 1804              	.L122:
 489:main.c        ****                 }
 490:main.c        ****         		if(touch1[3] == 0x83 && W_autorize == 3){             
 1805              		.loc 1 490 0
 1806 0c3a 354B     		ldr	r3, .L215+4
 1807 0c3c DB78     		ldrb	r3, [r3, #3]	@ zero_extendqisi2
 1808 0c3e 832B     		cmp	r3, #131
 1809 0c40 58D1     		bne	.L123
 1810              		.loc 1 490 0 is_stmt 0 discriminator 1
 1811 0c42 97F85630 		ldrb	r3, [r7, #86]	@ zero_extendqisi2
 1812 0c46 032B     		cmp	r3, #3
 1813 0c48 54D1     		bne	.L123
 491:main.c        ****                     W_autorize = 0;
 1814              		.loc 1 491 0 is_stmt 1
 1815 0c4a 0023     		movs	r3, #0
 1816 0c4c 87F85630 		strb	r3, [r7, #86]
 492:main.c        ****                     if((touch1[7] == passw[0])&&(touch1[8] == passw[1])&&(touch1[9] == passw[2]) &&
 1817              		.loc 1 492 0
 1818 0c50 2F4B     		ldr	r3, .L215+4
 1819 0c52 DA79     		ldrb	r2, [r3, #7]	@ zero_extendqisi2
 1820 0c54 3B7F     		ldrb	r3, [r7, #28]	@ zero_extendqisi2
 1821 0c56 9A42     		cmp	r2, r3
 1822 0c58 2CD1     		bne	.L124
 1823              		.loc 1 492 0 is_stmt 0 discriminator 1
 1824 0c5a 2D4B     		ldr	r3, .L215+4
 1825 0c5c 1A7A     		ldrb	r2, [r3, #8]	@ zero_extendqisi2
 1826 0c5e 7B7F     		ldrb	r3, [r7, #29]	@ zero_extendqisi2
 1827 0c60 9A42     		cmp	r2, r3
 1828 0c62 27D1     		bne	.L124
 1829              		.loc 1 492 0 discriminator 2
 1830 0c64 2A4B     		ldr	r3, .L215+4
 1831 0c66 5A7A     		ldrb	r2, [r3, #9]	@ zero_extendqisi2
 1832 0c68 BB7F     		ldrb	r3, [r7, #30]	@ zero_extendqisi2
 1833 0c6a 9A42     		cmp	r2, r3
 1834 0c6c 22D1     		bne	.L124
 1835              		.loc 1 492 0 discriminator 3
 1836 0c6e 284B     		ldr	r3, .L215+4
ARM GAS  C:\Users\Diego\AppData\Local\Temp\cc2hwaET.s 			page 43


 1837 0c70 9A7A     		ldrb	r2, [r3, #10]	@ zero_extendqisi2
 1838 0c72 FB7F     		ldrb	r3, [r7, #31]	@ zero_extendqisi2
 1839 0c74 9A42     		cmp	r2, r3
 1840 0c76 1DD1     		bne	.L124
 1841              		.loc 1 492 0 discriminator 4
 1842 0c78 254B     		ldr	r3, .L215+4
 1843 0c7a DB7A     		ldrb	r3, [r3, #11]	@ zero_extendqisi2
 1844 0c7c FF2B     		cmp	r3, #255
 1845 0c7e 19D1     		bne	.L124
 1846              	.LBB28:
 493:main.c        ****                         for(uint8 LCDRx = 0; LCDRx < 6; LCDRx++){
 1847              		.loc 1 493 0 is_stmt 1
 1848 0c80 0023     		movs	r3, #0
 1849 0c82 87F83930 		strb	r3, [r7, #57]
 1850 0c86 0EE0     		b	.L125
 1851              	.L126:
 494:main.c        ****                             screen_PutChar(change_pic[LCDRx]);
 1852              		.loc 1 494 0 discriminator 3
 1853 0c88 97F83930 		ldrb	r3, [r7, #57]	@ zero_extendqisi2
 1854 0c8c 07F15802 		add	r2, r7, #88
 1855 0c90 1344     		add	r3, r3, r2
 1856 0c92 13F8443C 		ldrb	r3, [r3, #-68]	@ zero_extendqisi2
 1857 0c96 1846     		mov	r0, r3
 1858 0c98 FFF7FEFF 		bl	screen_PutChar
 493:main.c        ****                         for(uint8 LCDRx = 0; LCDRx < 6; LCDRx++){
 1859              		.loc 1 493 0 discriminator 3
 1860 0c9c 97F83930 		ldrb	r3, [r7, #57]	@ zero_extendqisi2
 1861 0ca0 0133     		adds	r3, r3, #1
 1862 0ca2 87F83930 		strb	r3, [r7, #57]
 1863              	.L125:
 493:main.c        ****                         for(uint8 LCDRx = 0; LCDRx < 6; LCDRx++){
 1864              		.loc 1 493 0 is_stmt 0 discriminator 1
 1865 0ca6 97F83930 		ldrb	r3, [r7, #57]	@ zero_extendqisi2
 1866 0caa 052B     		cmp	r3, #5
 1867 0cac ECD9     		bls	.L126
 1868              	.LBE28:
 495:main.c        ****                         }
 496:main.c        ****                         CyDelay(4);
 1869              		.loc 1 496 0 is_stmt 1
 1870 0cae 0420     		movs	r0, #4
 1871 0cb0 FFF7FEFF 		bl	CyDelay
 1872              	.L124:
 497:main.c        ****                     }
 498:main.c        ****                     if(touch1[8] == 0x01)
 1873              		.loc 1 498 0
 1874 0cb4 164B     		ldr	r3, .L215+4
 1875 0cb6 1B7A     		ldrb	r3, [r3, #8]	@ zero_extendqisi2
 1876 0cb8 012B     		cmp	r3, #1
 1877 0cba 02D1     		bne	.L127
 499:main.c        ****                         price_change = 1;
 1878              		.loc 1 499 0
 1879 0cbc 0123     		movs	r3, #1
 1880 0cbe 87F85430 		strb	r3, [r7, #84]
 1881              	.L127:
 500:main.c        ****                     if(touch1[8] == 0x02)
 1882              		.loc 1 500 0
 1883 0cc2 134B     		ldr	r3, .L215+4
ARM GAS  C:\Users\Diego\AppData\Local\Temp\cc2hwaET.s 			page 44


 1884 0cc4 1B7A     		ldrb	r3, [r3, #8]	@ zero_extendqisi2
 1885 0cc6 022B     		cmp	r3, #2
 1886 0cc8 02D1     		bne	.L128
 501:main.c        ****                         price_change = 2;
 1887              		.loc 1 501 0
 1888 0cca 0223     		movs	r3, #2
 1889 0ccc 87F85430 		strb	r3, [r7, #84]
 1890              	.L128:
 1891              	.LBB29:
 502:main.c        ****                     for(uint8 LCDRx = 0; LCDRx < 20; LCDRx++){
 1892              		.loc 1 502 0
 1893 0cd0 0023     		movs	r3, #0
 1894 0cd2 87F83830 		strb	r3, [r7, #56]
 1895 0cd6 09E0     		b	.L129
 1896              	.L130:
 503:main.c        ****             			touch1[LCDRx] = 0x00;
 1897              		.loc 1 503 0 discriminator 3
 1898 0cd8 97F83830 		ldrb	r3, [r7, #56]	@ zero_extendqisi2
 1899 0cdc 0C4A     		ldr	r2, .L215+4
 1900 0cde 0021     		movs	r1, #0
 1901 0ce0 D154     		strb	r1, [r2, r3]
 502:main.c        ****                     for(uint8 LCDRx = 0; LCDRx < 20; LCDRx++){
 1902              		.loc 1 502 0 discriminator 3
 1903 0ce2 97F83830 		ldrb	r3, [r7, #56]	@ zero_extendqisi2
 1904 0ce6 0133     		adds	r3, r3, #1
 1905 0ce8 87F83830 		strb	r3, [r7, #56]
 1906              	.L129:
 502:main.c        ****                     for(uint8 LCDRx = 0; LCDRx < 20; LCDRx++){
 1907              		.loc 1 502 0 is_stmt 0 discriminator 1
 1908 0cec 97F83830 		ldrb	r3, [r7, #56]	@ zero_extendqisi2
 1909 0cf0 132B     		cmp	r3, #19
 1910 0cf2 F1D9     		bls	.L130
 1911              	.L123:
 1912              	.LBE29:
 504:main.c        ****             		}
 505:main.c        ****                 } 
 506:main.c        ****                 if(touch1[3] == 0x83 && W_autorize == 0x1A){                                 
 1913              		.loc 1 506 0 is_stmt 1
 1914 0cf4 064B     		ldr	r3, .L215+4
 1915 0cf6 DB78     		ldrb	r3, [r3, #3]	@ zero_extendqisi2
 1916 0cf8 832B     		cmp	r3, #131
 1917 0cfa 43D1     		bne	.L131
 1918              		.loc 1 506 0 is_stmt 0 discriminator 1
 1919 0cfc 97F85630 		ldrb	r3, [r7, #86]	@ zero_extendqisi2
 1920 0d00 1A2B     		cmp	r3, #26
 1921 0d02 3FD1     		bne	.L131
 1922              	.LBB30:
 507:main.c        ****                     for(uint8 LCDRx = 7; LCDRx < 15; LCDRx++){
 1923              		.loc 1 507 0 is_stmt 1
 1924 0d04 0723     		movs	r3, #7
 1925 0d06 87F83730 		strb	r3, [r7, #55]
 1926 0d0a 22E0     		b	.L132
 1927              	.L216:
 1928              		.align	2
 1929              	.L215:
 1930 0d0c 00000000 		.word	side
 1931 0d10 00000000 		.word	touch1
ARM GAS  C:\Users\Diego\AppData\Local\Temp\cc2hwaET.s 			page 45


 1932 0d14 00000000 		.word	LCDhose
 1933              	.L134:
 508:main.c        ****                         if((touch1[LCDRx] == 0x00) ||(touch1[LCDRx] == 0xFF))
 1934              		.loc 1 508 0
 1935 0d18 97F83730 		ldrb	r3, [r7, #55]	@ zero_extendqisi2
 1936 0d1c B54A     		ldr	r2, .L217
 1937 0d1e D35C     		ldrb	r3, [r2, r3]	@ zero_extendqisi2
 1938 0d20 002B     		cmp	r3, #0
 1939 0d22 1AD0     		beq	.L133
 1940              		.loc 1 508 0 is_stmt 0 discriminator 1
 1941 0d24 97F83730 		ldrb	r3, [r7, #55]	@ zero_extendqisi2
 1942 0d28 B24A     		ldr	r2, .L217
 1943 0d2a D35C     		ldrb	r3, [r2, r3]	@ zero_extendqisi2
 1944 0d2c FF2B     		cmp	r3, #255
 1945 0d2e 14D0     		beq	.L133
 509:main.c        ****                             break;
 510:main.c        ****                         side.a.km[LCDRx-7] = touch1[LCDRx];
 1946              		.loc 1 510 0 is_stmt 1 discriminator 2
 1947 0d30 97F83730 		ldrb	r3, [r7, #55]	@ zero_extendqisi2
 1948 0d34 073B     		subs	r3, r3, #7
 1949 0d36 97F83720 		ldrb	r2, [r7, #55]	@ zero_extendqisi2
 1950 0d3a AE49     		ldr	r1, .L217
 1951 0d3c 895C     		ldrb	r1, [r1, r2]	@ zero_extendqisi2
 1952 0d3e AE4A     		ldr	r2, .L217+4
 1953 0d40 1344     		add	r3, r3, r2
 1954 0d42 0A46     		mov	r2, r1
 1955 0d44 83F82D21 		strb	r2, [r3, #301]
 507:main.c        ****                         if((touch1[LCDRx] == 0x00) ||(touch1[LCDRx] == 0xFF))
 1956              		.loc 1 507 0 discriminator 2
 1957 0d48 97F83730 		ldrb	r3, [r7, #55]	@ zero_extendqisi2
 1958 0d4c 0133     		adds	r3, r3, #1
 1959 0d4e 87F83730 		strb	r3, [r7, #55]
 1960              	.L132:
 507:main.c        ****                         if((touch1[LCDRx] == 0x00) ||(touch1[LCDRx] == 0xFF))
 1961              		.loc 1 507 0 is_stmt 0 discriminator 1
 1962 0d52 97F83730 		ldrb	r3, [r7, #55]	@ zero_extendqisi2
 1963 0d56 0E2B     		cmp	r3, #14
 1964 0d58 DED9     		bls	.L134
 1965              	.L133:
 1966              	.LBE30:
 1967              	.LBB31:
 511:main.c        ****             		}
 512:main.c        ****                     for(uint8 LCDRx = 0; LCDRx < 20; LCDRx++){
 1968              		.loc 1 512 0 is_stmt 1
 1969 0d5a 0023     		movs	r3, #0
 1970 0d5c 87F83630 		strb	r3, [r7, #54]
 1971 0d60 09E0     		b	.L135
 1972              	.L136:
 513:main.c        ****             			touch1[LCDRx] = 0x00;
 1973              		.loc 1 513 0 discriminator 3
 1974 0d62 97F83630 		ldrb	r3, [r7, #54]	@ zero_extendqisi2
 1975 0d66 A34A     		ldr	r2, .L217
 1976 0d68 0021     		movs	r1, #0
 1977 0d6a D154     		strb	r1, [r2, r3]
 512:main.c        ****             			touch1[LCDRx] = 0x00;
 1978              		.loc 1 512 0 discriminator 3
 1979 0d6c 97F83630 		ldrb	r3, [r7, #54]	@ zero_extendqisi2
ARM GAS  C:\Users\Diego\AppData\Local\Temp\cc2hwaET.s 			page 46


 1980 0d70 0133     		adds	r3, r3, #1
 1981 0d72 87F83630 		strb	r3, [r7, #54]
 1982              	.L135:
 512:main.c        ****             			touch1[LCDRx] = 0x00;
 1983              		.loc 1 512 0 is_stmt 0 discriminator 1
 1984 0d76 97F83630 		ldrb	r3, [r7, #54]	@ zero_extendqisi2
 1985 0d7a 132B     		cmp	r3, #19
 1986 0d7c F1D9     		bls	.L136
 1987              	.LBE31:
 514:main.c        ****             		}                    
 515:main.c        ****                     W_autorize = 0x0A;
 1988              		.loc 1 515 0 is_stmt 1
 1989 0d7e 0A23     		movs	r3, #10
 1990 0d80 87F85630 		strb	r3, [r7, #86]
 1991              	.L131:
 516:main.c        ****                 }
 517:main.c        ****                 if(touch1[3] == 0x83 && W_autorize == 0xC1){                                 
 1992              		.loc 1 517 0
 1993 0d84 9B4B     		ldr	r3, .L217
 1994 0d86 DB78     		ldrb	r3, [r3, #3]	@ zero_extendqisi2
 1995 0d88 832B     		cmp	r3, #131
 1996 0d8a 7BD1     		bne	.L137
 1997              		.loc 1 517 0 is_stmt 0 discriminator 1
 1998 0d8c 97F85630 		ldrb	r3, [r7, #86]	@ zero_extendqisi2
 1999 0d90 C12B     		cmp	r3, #193
 2000 0d92 77D1     		bne	.L137
 2001              	.LBB32:
 518:main.c        ****                     for(uint8 LCDRx = 7; LCDRx < 11; LCDRx++){
 2002              		.loc 1 518 0 is_stmt 1
 2003 0d94 0723     		movs	r3, #7
 2004 0d96 87F83530 		strb	r3, [r7, #53]
 2005 0d9a 1EE0     		b	.L138
 2006              	.L140:
 519:main.c        ****                         if((touch1[LCDRx] == 0x00) ||(touch1[LCDRx] == 0xFF))
 2007              		.loc 1 519 0
 2008 0d9c 97F83530 		ldrb	r3, [r7, #53]	@ zero_extendqisi2
 2009 0da0 944A     		ldr	r2, .L217
 2010 0da2 D35C     		ldrb	r3, [r2, r3]	@ zero_extendqisi2
 2011 0da4 002B     		cmp	r3, #0
 2012 0da6 1CD0     		beq	.L139
 2013              		.loc 1 519 0 is_stmt 0 discriminator 1
 2014 0da8 97F83530 		ldrb	r3, [r7, #53]	@ zero_extendqisi2
 2015 0dac 914A     		ldr	r2, .L217
 2016 0dae D35C     		ldrb	r3, [r2, r3]	@ zero_extendqisi2
 2017 0db0 FF2B     		cmp	r3, #255
 2018 0db2 16D0     		beq	.L139
 520:main.c        ****                             break;                        
 521:main.c        ****                             side.a.ProcessedPPU[0][LCDRx-7] = touch1[LCDRx]- 0x30;
 2019              		.loc 1 521 0 is_stmt 1 discriminator 2
 2020 0db4 97F83530 		ldrb	r3, [r7, #53]	@ zero_extendqisi2
 2021 0db8 073B     		subs	r3, r3, #7
 2022 0dba 97F83520 		ldrb	r2, [r7, #53]	@ zero_extendqisi2
 2023 0dbe 8D49     		ldr	r1, .L217
 2024 0dc0 8A5C     		ldrb	r2, [r1, r2]	@ zero_extendqisi2
 2025 0dc2 303A     		subs	r2, r2, #48
 2026 0dc4 D1B2     		uxtb	r1, r2
 2027 0dc6 8C4A     		ldr	r2, .L217+4
ARM GAS  C:\Users\Diego\AppData\Local\Temp\cc2hwaET.s 			page 47


 2028 0dc8 1344     		add	r3, r3, r2
 2029 0dca 0A46     		mov	r2, r1
 2030 0dcc 83F80B21 		strb	r2, [r3, #267]
 518:main.c        ****                         if((touch1[LCDRx] == 0x00) ||(touch1[LCDRx] == 0xFF))
 2031              		.loc 1 518 0 discriminator 2
 2032 0dd0 97F83530 		ldrb	r3, [r7, #53]	@ zero_extendqisi2
 2033 0dd4 0133     		adds	r3, r3, #1
 2034 0dd6 87F83530 		strb	r3, [r7, #53]
 2035              	.L138:
 518:main.c        ****                         if((touch1[LCDRx] == 0x00) ||(touch1[LCDRx] == 0xFF))
 2036              		.loc 1 518 0 is_stmt 0 discriminator 1
 2037 0dda 97F83530 		ldrb	r3, [r7, #53]	@ zero_extendqisi2
 2038 0dde 0A2B     		cmp	r3, #10
 2039 0de0 DCD9     		bls	.L140
 2040              	.L139:
 2041              	.LBE32:
 2042              	.LBB33:
 522:main.c        ****                         
 523:main.c        ****             		}
 524:main.c        ****                     for(uint8 LCDRx = 0; LCDRx < 20; LCDRx++){
 2043              		.loc 1 524 0 is_stmt 1
 2044 0de2 0023     		movs	r3, #0
 2045 0de4 87F83430 		strb	r3, [r7, #52]
 2046 0de8 09E0     		b	.L141
 2047              	.L142:
 525:main.c        ****             			touch1[LCDRx] = 0x00;
 2048              		.loc 1 525 0 discriminator 3
 2049 0dea 97F83430 		ldrb	r3, [r7, #52]	@ zero_extendqisi2
 2050 0dee 814A     		ldr	r2, .L217
 2051 0df0 0021     		movs	r1, #0
 2052 0df2 D154     		strb	r1, [r2, r3]
 524:main.c        ****             			touch1[LCDRx] = 0x00;
 2053              		.loc 1 524 0 discriminator 3
 2054 0df4 97F83430 		ldrb	r3, [r7, #52]	@ zero_extendqisi2
 2055 0df8 0133     		adds	r3, r3, #1
 2056 0dfa 87F83430 		strb	r3, [r7, #52]
 2057              	.L141:
 524:main.c        ****             			touch1[LCDRx] = 0x00;
 2058              		.loc 1 524 0 is_stmt 0 discriminator 1
 2059 0dfe 97F83430 		ldrb	r3, [r7, #52]	@ zero_extendqisi2
 2060 0e02 132B     		cmp	r3, #19
 2061 0e04 F1D9     		bls	.L142
 2062              	.LBE33:
 526:main.c        ****             		}
 527:main.c        ****                     side.a.ppuNozzle[0][0] = ((side.a.ProcessedPPU[0][0] - 0x30)<<4) |((side.a.Proc
 2063              		.loc 1 527 0 is_stmt 1
 2064 0e06 7C4B     		ldr	r3, .L217+4
 2065 0e08 93F80B31 		ldrb	r3, [r3, #267]	@ zero_extendqisi2
 2066 0e0c 303B     		subs	r3, r3, #48
 2067 0e0e 1B01     		lsls	r3, r3, #4
 2068 0e10 5AB2     		sxtb	r2, r3
 2069 0e12 794B     		ldr	r3, .L217+4
 2070 0e14 93F80C31 		ldrb	r3, [r3, #268]	@ zero_extendqisi2
 2071 0e18 303B     		subs	r3, r3, #48
 2072 0e1a DBB2     		uxtb	r3, r3
 2073 0e1c 5BB2     		sxtb	r3, r3
 2074 0e1e 1343     		orrs	r3, r3, r2
ARM GAS  C:\Users\Diego\AppData\Local\Temp\cc2hwaET.s 			page 48


 2075 0e20 5BB2     		sxtb	r3, r3
 2076 0e22 DAB2     		uxtb	r2, r3
 2077 0e24 744B     		ldr	r3, .L217+4
 2078 0e26 83F82920 		strb	r2, [r3, #41]
 528:main.c        ****                     side.a.ppuNozzle[0][1] = ((side.a.ProcessedPPU[0][2] - 0x30)<<4) |((side.a.Proc
 2079              		.loc 1 528 0
 2080 0e2a 734B     		ldr	r3, .L217+4
 2081 0e2c 93F80D31 		ldrb	r3, [r3, #269]	@ zero_extendqisi2
 2082 0e30 303B     		subs	r3, r3, #48
 2083 0e32 1B01     		lsls	r3, r3, #4
 2084 0e34 5AB2     		sxtb	r2, r3
 2085 0e36 704B     		ldr	r3, .L217+4
 2086 0e38 93F80E31 		ldrb	r3, [r3, #270]	@ zero_extendqisi2
 2087 0e3c 303B     		subs	r3, r3, #48
 2088 0e3e DBB2     		uxtb	r3, r3
 2089 0e40 5BB2     		sxtb	r3, r3
 2090 0e42 1343     		orrs	r3, r3, r2
 2091 0e44 5BB2     		sxtb	r3, r3
 2092 0e46 DAB2     		uxtb	r2, r3
 2093 0e48 6B4B     		ldr	r3, .L217+4
 2094 0e4a 83F82A20 		strb	r2, [r3, #42]
 529:main.c        ****                     side.a.ppuNozzle[0][2] = ((side.a.ProcessedPPU[0][4] - 0x30)<<4) |((side.a.Proc
 2095              		.loc 1 529 0
 2096 0e4e 6A4B     		ldr	r3, .L217+4
 2097 0e50 93F80F31 		ldrb	r3, [r3, #271]	@ zero_extendqisi2
 2098 0e54 303B     		subs	r3, r3, #48
 2099 0e56 1B01     		lsls	r3, r3, #4
 2100 0e58 5AB2     		sxtb	r2, r3
 2101 0e5a 674B     		ldr	r3, .L217+4
 2102 0e5c 93F81031 		ldrb	r3, [r3, #272]	@ zero_extendqisi2
 2103 0e60 303B     		subs	r3, r3, #48
 2104 0e62 DBB2     		uxtb	r3, r3
 2105 0e64 5BB2     		sxtb	r3, r3
 2106 0e66 1343     		orrs	r3, r3, r2
 2107 0e68 5BB2     		sxtb	r3, r3
 2108 0e6a DAB2     		uxtb	r2, r3
 2109 0e6c 624B     		ldr	r3, .L217+4
 2110 0e6e 83F82B20 		strb	r2, [r3, #43]
 530:main.c        ****                     PriceUpdate(side.a.dir,side.a.ppuNozzle[0]);
 2111              		.loc 1 530 0
 2112 0e72 614B     		ldr	r3, .L217+4
 2113 0e74 1B78     		ldrb	r3, [r3]	@ zero_extendqisi2
 2114 0e76 6149     		ldr	r1, .L217+8
 2115 0e78 1846     		mov	r0, r3
 2116 0e7a FFF7FEFF 		bl	PriceUpdate
 531:main.c        ****                     W_autorize = 0;
 2117              		.loc 1 531 0
 2118 0e7e 0023     		movs	r3, #0
 2119 0e80 87F85630 		strb	r3, [r7, #86]
 2120              	.L137:
 532:main.c        ****                 }
 533:main.c        ****                 if(touch1[3] == 0x83 && W_autorize == 0xC2){                                 
 2121              		.loc 1 533 0
 2122 0e84 5B4B     		ldr	r3, .L217
 2123 0e86 DB78     		ldrb	r3, [r3, #3]	@ zero_extendqisi2
 2124 0e88 832B     		cmp	r3, #131
 2125 0e8a 7CD1     		bne	.L143
ARM GAS  C:\Users\Diego\AppData\Local\Temp\cc2hwaET.s 			page 49


 2126              		.loc 1 533 0 is_stmt 0 discriminator 1
 2127 0e8c 97F85630 		ldrb	r3, [r7, #86]	@ zero_extendqisi2
 2128 0e90 C22B     		cmp	r3, #194
 2129 0e92 78D1     		bne	.L143
 2130              	.LBB34:
 534:main.c        ****                     for(uint8 LCDRx = 7; LCDRx < 11; LCDRx++){
 2131              		.loc 1 534 0 is_stmt 1
 2132 0e94 0723     		movs	r3, #7
 2133 0e96 87F83330 		strb	r3, [r7, #51]
 2134 0e9a 1EE0     		b	.L144
 2135              	.L146:
 535:main.c        ****                         if((touch1[LCDRx] == 0x00) ||(touch1[LCDRx] == 0xFF))
 2136              		.loc 1 535 0
 2137 0e9c 97F83330 		ldrb	r3, [r7, #51]	@ zero_extendqisi2
 2138 0ea0 544A     		ldr	r2, .L217
 2139 0ea2 D35C     		ldrb	r3, [r2, r3]	@ zero_extendqisi2
 2140 0ea4 002B     		cmp	r3, #0
 2141 0ea6 1CD0     		beq	.L145
 2142              		.loc 1 535 0 is_stmt 0 discriminator 1
 2143 0ea8 97F83330 		ldrb	r3, [r7, #51]	@ zero_extendqisi2
 2144 0eac 514A     		ldr	r2, .L217
 2145 0eae D35C     		ldrb	r3, [r2, r3]	@ zero_extendqisi2
 2146 0eb0 FF2B     		cmp	r3, #255
 2147 0eb2 16D0     		beq	.L145
 536:main.c        ****                             break;                        
 537:main.c        ****                             side.b.ProcessedPPU[0][LCDRx-7] = touch1[LCDRx]- 0x30;
 2148              		.loc 1 537 0 is_stmt 1 discriminator 2
 2149 0eb4 97F83330 		ldrb	r3, [r7, #51]	@ zero_extendqisi2
 2150 0eb8 073B     		subs	r3, r3, #7
 2151 0eba 97F83320 		ldrb	r2, [r7, #51]	@ zero_extendqisi2
 2152 0ebe 4D49     		ldr	r1, .L217
 2153 0ec0 8A5C     		ldrb	r2, [r1, r2]	@ zero_extendqisi2
 2154 0ec2 303A     		subs	r2, r2, #48
 2155 0ec4 D1B2     		uxtb	r1, r2
 2156 0ec6 4C4A     		ldr	r2, .L217+4
 2157 0ec8 1344     		add	r3, r3, r2
 2158 0eca 0A46     		mov	r2, r1
 2159 0ecc 83F84022 		strb	r2, [r3, #576]
 534:main.c        ****                         if((touch1[LCDRx] == 0x00) ||(touch1[LCDRx] == 0xFF))
 2160              		.loc 1 534 0 discriminator 2
 2161 0ed0 97F83330 		ldrb	r3, [r7, #51]	@ zero_extendqisi2
 2162 0ed4 0133     		adds	r3, r3, #1
 2163 0ed6 87F83330 		strb	r3, [r7, #51]
 2164              	.L144:
 534:main.c        ****                         if((touch1[LCDRx] == 0x00) ||(touch1[LCDRx] == 0xFF))
 2165              		.loc 1 534 0 is_stmt 0 discriminator 1
 2166 0eda 97F83330 		ldrb	r3, [r7, #51]	@ zero_extendqisi2
 2167 0ede 0A2B     		cmp	r3, #10
 2168 0ee0 DCD9     		bls	.L146
 2169              	.L145:
 2170              	.LBE34:
 2171              	.LBB35:
 538:main.c        ****                         
 539:main.c        ****             		}
 540:main.c        ****                     for(uint8 LCDRx = 0; LCDRx < 20; LCDRx++){
 2172              		.loc 1 540 0 is_stmt 1
 2173 0ee2 0023     		movs	r3, #0
ARM GAS  C:\Users\Diego\AppData\Local\Temp\cc2hwaET.s 			page 50


 2174 0ee4 87F83230 		strb	r3, [r7, #50]
 2175 0ee8 09E0     		b	.L147
 2176              	.L148:
 541:main.c        ****             			touch1[LCDRx] = 0x00;
 2177              		.loc 1 541 0 discriminator 3
 2178 0eea 97F83230 		ldrb	r3, [r7, #50]	@ zero_extendqisi2
 2179 0eee 414A     		ldr	r2, .L217
 2180 0ef0 0021     		movs	r1, #0
 2181 0ef2 D154     		strb	r1, [r2, r3]
 540:main.c        ****             			touch1[LCDRx] = 0x00;
 2182              		.loc 1 540 0 discriminator 3
 2183 0ef4 97F83230 		ldrb	r3, [r7, #50]	@ zero_extendqisi2
 2184 0ef8 0133     		adds	r3, r3, #1
 2185 0efa 87F83230 		strb	r3, [r7, #50]
 2186              	.L147:
 540:main.c        ****             			touch1[LCDRx] = 0x00;
 2187              		.loc 1 540 0 is_stmt 0 discriminator 1
 2188 0efe 97F83230 		ldrb	r3, [r7, #50]	@ zero_extendqisi2
 2189 0f02 132B     		cmp	r3, #19
 2190 0f04 F1D9     		bls	.L148
 2191              	.LBE35:
 542:main.c        ****             		}
 543:main.c        ****                     side.b.ppuNozzle[0][0] = ((side.b.ProcessedPPU[0][0] - 0x30)<<4) |((side.b.Proc
 2192              		.loc 1 543 0 is_stmt 1
 2193 0f06 3C4B     		ldr	r3, .L217+4
 2194 0f08 93F84032 		ldrb	r3, [r3, #576]	@ zero_extendqisi2
 2195 0f0c 303B     		subs	r3, r3, #48
 2196 0f0e 1B01     		lsls	r3, r3, #4
 2197 0f10 5AB2     		sxtb	r2, r3
 2198 0f12 394B     		ldr	r3, .L217+4
 2199 0f14 93F84132 		ldrb	r3, [r3, #577]	@ zero_extendqisi2
 2200 0f18 303B     		subs	r3, r3, #48
 2201 0f1a DBB2     		uxtb	r3, r3
 2202 0f1c 5BB2     		sxtb	r3, r3
 2203 0f1e 1343     		orrs	r3, r3, r2
 2204 0f20 5BB2     		sxtb	r3, r3
 2205 0f22 DAB2     		uxtb	r2, r3
 2206 0f24 344B     		ldr	r3, .L217+4
 2207 0f26 83F85E21 		strb	r2, [r3, #350]
 544:main.c        ****                     side.b.ppuNozzle[0][1] = ((side.b.ProcessedPPU[0][2] - 0x30)<<4) |((side.b.Proc
 2208              		.loc 1 544 0
 2209 0f2a 334B     		ldr	r3, .L217+4
 2210 0f2c 93F84232 		ldrb	r3, [r3, #578]	@ zero_extendqisi2
 2211 0f30 303B     		subs	r3, r3, #48
 2212 0f32 1B01     		lsls	r3, r3, #4
 2213 0f34 5AB2     		sxtb	r2, r3
 2214 0f36 304B     		ldr	r3, .L217+4
 2215 0f38 93F84332 		ldrb	r3, [r3, #579]	@ zero_extendqisi2
 2216 0f3c 303B     		subs	r3, r3, #48
 2217 0f3e DBB2     		uxtb	r3, r3
 2218 0f40 5BB2     		sxtb	r3, r3
 2219 0f42 1343     		orrs	r3, r3, r2
 2220 0f44 5BB2     		sxtb	r3, r3
 2221 0f46 DAB2     		uxtb	r2, r3
 2222 0f48 2B4B     		ldr	r3, .L217+4
 2223 0f4a 83F85F21 		strb	r2, [r3, #351]
 545:main.c        ****                     side.b.ppuNozzle[0][2] = ((side.b.ProcessedPPU[0][4] - 0x30)<<4) |((side.b.Proc
ARM GAS  C:\Users\Diego\AppData\Local\Temp\cc2hwaET.s 			page 51


 2224              		.loc 1 545 0
 2225 0f4e 2A4B     		ldr	r3, .L217+4
 2226 0f50 93F84432 		ldrb	r3, [r3, #580]	@ zero_extendqisi2
 2227 0f54 303B     		subs	r3, r3, #48
 2228 0f56 1B01     		lsls	r3, r3, #4
 2229 0f58 5AB2     		sxtb	r2, r3
 2230 0f5a 274B     		ldr	r3, .L217+4
 2231 0f5c 93F84532 		ldrb	r3, [r3, #581]	@ zero_extendqisi2
 2232 0f60 303B     		subs	r3, r3, #48
 2233 0f62 DBB2     		uxtb	r3, r3
 2234 0f64 5BB2     		sxtb	r3, r3
 2235 0f66 1343     		orrs	r3, r3, r2
 2236 0f68 5BB2     		sxtb	r3, r3
 2237 0f6a DAB2     		uxtb	r2, r3
 2238 0f6c 224B     		ldr	r3, .L217+4
 2239 0f6e 83F86021 		strb	r2, [r3, #352]
 546:main.c        ****                     PriceUpdate(side.b.dir,side.b.ppuNozzle[0]);
 2240              		.loc 1 546 0
 2241 0f72 214B     		ldr	r3, .L217+4
 2242 0f74 93F83531 		ldrb	r3, [r3, #309]	@ zero_extendqisi2
 2243 0f78 2149     		ldr	r1, .L217+12
 2244 0f7a 1846     		mov	r0, r3
 2245 0f7c FFF7FEFF 		bl	PriceUpdate
 547:main.c        ****                     W_autorize = 0;
 2246              		.loc 1 547 0
 2247 0f80 0023     		movs	r3, #0
 2248 0f82 87F85630 		strb	r3, [r7, #86]
 2249              	.L143:
 548:main.c        ****                 }
 549:main.c        ****                 if(touch1[3] == 0x83 && W_autorize == 0x0A){             
 2250              		.loc 1 549 0
 2251 0f86 1B4B     		ldr	r3, .L217
 2252 0f88 DB78     		ldrb	r3, [r3, #3]	@ zero_extendqisi2
 2253 0f8a 832B     		cmp	r3, #131
 2254 0f8c 6DD1     		bne	.L149
 2255              		.loc 1 549 0 is_stmt 0 discriminator 1
 2256 0f8e 97F85630 		ldrb	r3, [r7, #86]	@ zero_extendqisi2
 2257 0f92 0A2B     		cmp	r3, #10
 2258 0f94 69D1     		bne	.L149
 550:main.c        ****                     W_autorize = 0;
 2259              		.loc 1 550 0 is_stmt 1
 2260 0f96 0023     		movs	r3, #0
 2261 0f98 87F85630 		strb	r3, [r7, #86]
 2262              	.LBB36:
 551:main.c        ****                     for(uint8 LCDRx = 7; LCDRx < 15; LCDRx++){
 2263              		.loc 1 551 0
 2264 0f9c 0723     		movs	r3, #7
 2265 0f9e 87F83130 		strb	r3, [r7, #49]
 2266 0fa2 40E0     		b	.L150
 2267              	.L154:
 552:main.c        ****                         if((touch1[LCDRx] == 0x00) ||(touch1[LCDRx] == 0xFF))
 2268              		.loc 1 552 0
 2269 0fa4 97F83130 		ldrb	r3, [r7, #49]	@ zero_extendqisi2
 2270 0fa8 124A     		ldr	r2, .L217
 2271 0faa D35C     		ldrb	r3, [r2, r3]	@ zero_extendqisi2
 2272 0fac 002B     		cmp	r3, #0
 2273 0fae 3ED0     		beq	.L151
ARM GAS  C:\Users\Diego\AppData\Local\Temp\cc2hwaET.s 			page 52


 2274              		.loc 1 552 0 is_stmt 0 discriminator 1
 2275 0fb0 97F83130 		ldrb	r3, [r7, #49]	@ zero_extendqisi2
 2276 0fb4 0F4A     		ldr	r2, .L217
 2277 0fb6 D35C     		ldrb	r3, [r2, r3]	@ zero_extendqisi2
 2278 0fb8 FF2B     		cmp	r3, #255
 2279 0fba 38D0     		beq	.L151
 553:main.c        ****                             break;
 554:main.c        ****                         if(touch1[LCDRx] > 96 && touch1[LCDRx] < 123){
 2280              		.loc 1 554 0 is_stmt 1
 2281 0fbc 97F83130 		ldrb	r3, [r7, #49]	@ zero_extendqisi2
 2282 0fc0 0C4A     		ldr	r2, .L217
 2283 0fc2 D35C     		ldrb	r3, [r2, r3]	@ zero_extendqisi2
 2284 0fc4 602B     		cmp	r3, #96
 2285 0fc6 1DD9     		bls	.L152
 2286              		.loc 1 554 0 is_stmt 0 discriminator 1
 2287 0fc8 97F83130 		ldrb	r3, [r7, #49]	@ zero_extendqisi2
 2288 0fcc 094A     		ldr	r2, .L217
 2289 0fce D35C     		ldrb	r3, [r2, r3]	@ zero_extendqisi2
 2290 0fd0 7A2B     		cmp	r3, #122
 2291 0fd2 17D8     		bhi	.L152
 555:main.c        ****                             side.a.msn_plate[LCDRx-7] = touch1[LCDRx]-0x20;                        
 2292              		.loc 1 555 0 is_stmt 1
 2293 0fd4 97F83130 		ldrb	r3, [r7, #49]	@ zero_extendqisi2
 2294 0fd8 073B     		subs	r3, r3, #7
 2295 0fda 97F83120 		ldrb	r2, [r7, #49]	@ zero_extendqisi2
 2296 0fde 0549     		ldr	r1, .L217
 2297 0fe0 8A5C     		ldrb	r2, [r1, r2]	@ zero_extendqisi2
 2298 0fe2 203A     		subs	r2, r2, #32
 2299 0fe4 D1B2     		uxtb	r1, r2
 2300 0fe6 044A     		ldr	r2, .L217+4
 2301 0fe8 1344     		add	r3, r3, r2
 2302 0fea 0A46     		mov	r2, r1
 2303 0fec 83F82321 		strb	r2, [r3, #291]
 2304 0ff0 14E0     		b	.L153
 2305              	.L218:
 2306 0ff2 00BF     		.align	2
 2307              	.L217:
 2308 0ff4 00000000 		.word	touch1
 2309 0ff8 00000000 		.word	side
 2310 0ffc 29000000 		.word	side+41
 2311 1000 5E010000 		.word	side+350
 2312              	.L152:
 556:main.c        ****                         }else{
 557:main.c        ****                             side.a.msn_plate[LCDRx-7] = touch1[LCDRx];
 2313              		.loc 1 557 0
 2314 1004 97F83130 		ldrb	r3, [r7, #49]	@ zero_extendqisi2
 2315 1008 073B     		subs	r3, r3, #7
 2316 100a 97F83120 		ldrb	r2, [r7, #49]	@ zero_extendqisi2
 2317 100e B549     		ldr	r1, .L219
 2318 1010 895C     		ldrb	r1, [r1, r2]	@ zero_extendqisi2
 2319 1012 B54A     		ldr	r2, .L219+4
 2320 1014 1344     		add	r3, r3, r2
 2321 1016 0A46     		mov	r2, r1
 2322 1018 83F82321 		strb	r2, [r3, #291]
 2323              	.L153:
 551:main.c        ****                         if((touch1[LCDRx] == 0x00) ||(touch1[LCDRx] == 0xFF))
 2324              		.loc 1 551 0 discriminator 2
ARM GAS  C:\Users\Diego\AppData\Local\Temp\cc2hwaET.s 			page 53


 2325 101c 97F83130 		ldrb	r3, [r7, #49]	@ zero_extendqisi2
 2326 1020 0133     		adds	r3, r3, #1
 2327 1022 87F83130 		strb	r3, [r7, #49]
 2328              	.L150:
 551:main.c        ****                         if((touch1[LCDRx] == 0x00) ||(touch1[LCDRx] == 0xFF))
 2329              		.loc 1 551 0 is_stmt 0 discriminator 1
 2330 1026 97F83130 		ldrb	r3, [r7, #49]	@ zero_extendqisi2
 2331 102a 0E2B     		cmp	r3, #14
 2332 102c BAD9     		bls	.L154
 2333              	.L151:
 2334              	.LBE36:
 2335              	.LBB37:
 558:main.c        ****                         }
 559:main.c        ****             		}
 560:main.c        ****                     for(uint8 LCDRx = 0; LCDRx < 20; LCDRx++){
 2336              		.loc 1 560 0 is_stmt 1
 2337 102e 0023     		movs	r3, #0
 2338 1030 87F83030 		strb	r3, [r7, #48]
 2339 1034 09E0     		b	.L155
 2340              	.L156:
 561:main.c        ****             			touch1[LCDRx] = 0x00;
 2341              		.loc 1 561 0 discriminator 3
 2342 1036 97F83030 		ldrb	r3, [r7, #48]	@ zero_extendqisi2
 2343 103a AA4A     		ldr	r2, .L219
 2344 103c 0021     		movs	r1, #0
 2345 103e D154     		strb	r1, [r2, r3]
 560:main.c        ****             			touch1[LCDRx] = 0x00;
 2346              		.loc 1 560 0 discriminator 3
 2347 1040 97F83030 		ldrb	r3, [r7, #48]	@ zero_extendqisi2
 2348 1044 0133     		adds	r3, r3, #1
 2349 1046 87F83030 		strb	r3, [r7, #48]
 2350              	.L155:
 560:main.c        ****             			touch1[LCDRx] = 0x00;
 2351              		.loc 1 560 0 is_stmt 0 discriminator 1
 2352 104a 97F83030 		ldrb	r3, [r7, #48]	@ zero_extendqisi2
 2353 104e 132B     		cmp	r3, #19
 2354 1050 F1D9     		bls	.L156
 2355              	.LBE37:
 562:main.c        ****             		}
 563:main.c        ****                     PrintReceipt(side.a.dir);
 2356              		.loc 1 563 0 is_stmt 1
 2357 1052 A54B     		ldr	r3, .L219+4
 2358 1054 1B78     		ldrb	r3, [r3]	@ zero_extendqisi2
 2359 1056 1846     		mov	r0, r3
 2360 1058 FFF7FEFF 		bl	PrintReceipt
 564:main.c        ****                     side.a.Copy = 1;
 2361              		.loc 1 564 0
 2362 105c A24B     		ldr	r3, .L219+4
 2363 105e 0122     		movs	r2, #1
 2364 1060 83F83421 		strb	r2, [r3, #308]
 565:main.c        ****                     W_autorize =0xAC;
 2365              		.loc 1 565 0
 2366 1064 AC23     		movs	r3, #172
 2367 1066 87F85630 		strb	r3, [r7, #86]
 2368              	.L149:
 566:main.c        ****                 } 
 567:main.c        ****                 if(touch1[3] == 0x83 && W_autorize == 0x1B){                                 
ARM GAS  C:\Users\Diego\AppData\Local\Temp\cc2hwaET.s 			page 54


 2369              		.loc 1 567 0
 2370 106a 9E4B     		ldr	r3, .L219
 2371 106c DB78     		ldrb	r3, [r3, #3]	@ zero_extendqisi2
 2372 106e 832B     		cmp	r3, #131
 2373 1070 3DD1     		bne	.L157
 2374              		.loc 1 567 0 is_stmt 0 discriminator 1
 2375 1072 97F85630 		ldrb	r3, [r7, #86]	@ zero_extendqisi2
 2376 1076 1B2B     		cmp	r3, #27
 2377 1078 39D1     		bne	.L157
 2378              	.LBB38:
 568:main.c        ****                     for(uint8 LCDRx = 7; LCDRx < 15; LCDRx++){
 2379              		.loc 1 568 0 is_stmt 1
 2380 107a 0723     		movs	r3, #7
 2381 107c 87F82F30 		strb	r3, [r7, #47]
 2382 1080 1CE0     		b	.L158
 2383              	.L160:
 569:main.c        ****                         if((touch1[LCDRx] == 0x00) ||(touch1[LCDRx] == 0xFF))
 2384              		.loc 1 569 0
 2385 1082 97F82F30 		ldrb	r3, [r7, #47]	@ zero_extendqisi2
 2386 1086 974A     		ldr	r2, .L219
 2387 1088 D35C     		ldrb	r3, [r2, r3]	@ zero_extendqisi2
 2388 108a 002B     		cmp	r3, #0
 2389 108c 1AD0     		beq	.L159
 2390              		.loc 1 569 0 is_stmt 0 discriminator 1
 2391 108e 97F82F30 		ldrb	r3, [r7, #47]	@ zero_extendqisi2
 2392 1092 944A     		ldr	r2, .L219
 2393 1094 D35C     		ldrb	r3, [r2, r3]	@ zero_extendqisi2
 2394 1096 FF2B     		cmp	r3, #255
 2395 1098 14D0     		beq	.L159
 570:main.c        ****                             break;
 571:main.c        ****                         side.b.km[LCDRx-7] = touch1[LCDRx];
 2396              		.loc 1 571 0 is_stmt 1 discriminator 2
 2397 109a 97F82F30 		ldrb	r3, [r7, #47]	@ zero_extendqisi2
 2398 109e 073B     		subs	r3, r3, #7
 2399 10a0 97F82F20 		ldrb	r2, [r7, #47]	@ zero_extendqisi2
 2400 10a4 8F49     		ldr	r1, .L219
 2401 10a6 895C     		ldrb	r1, [r1, r2]	@ zero_extendqisi2
 2402 10a8 8F4A     		ldr	r2, .L219+4
 2403 10aa 1344     		add	r3, r3, r2
 2404 10ac 0A46     		mov	r2, r1
 2405 10ae 83F86222 		strb	r2, [r3, #610]
 568:main.c        ****                         if((touch1[LCDRx] == 0x00) ||(touch1[LCDRx] == 0xFF))
 2406              		.loc 1 568 0 discriminator 2
 2407 10b2 97F82F30 		ldrb	r3, [r7, #47]	@ zero_extendqisi2
 2408 10b6 0133     		adds	r3, r3, #1
 2409 10b8 87F82F30 		strb	r3, [r7, #47]
 2410              	.L158:
 568:main.c        ****                         if((touch1[LCDRx] == 0x00) ||(touch1[LCDRx] == 0xFF))
 2411              		.loc 1 568 0 is_stmt 0 discriminator 1
 2412 10bc 97F82F30 		ldrb	r3, [r7, #47]	@ zero_extendqisi2
 2413 10c0 0E2B     		cmp	r3, #14
 2414 10c2 DED9     		bls	.L160
 2415              	.L159:
 2416              	.LBE38:
 2417              	.LBB39:
 572:main.c        ****             		}
 573:main.c        ****                     for(uint8 LCDRx = 0; LCDRx < 20; LCDRx++){
ARM GAS  C:\Users\Diego\AppData\Local\Temp\cc2hwaET.s 			page 55


 2418              		.loc 1 573 0 is_stmt 1
 2419 10c4 0023     		movs	r3, #0
 2420 10c6 87F82E30 		strb	r3, [r7, #46]
 2421 10ca 09E0     		b	.L161
 2422              	.L162:
 574:main.c        ****             			touch1[LCDRx] = 0x00;
 2423              		.loc 1 574 0 discriminator 3
 2424 10cc 97F82E30 		ldrb	r3, [r7, #46]	@ zero_extendqisi2
 2425 10d0 844A     		ldr	r2, .L219
 2426 10d2 0021     		movs	r1, #0
 2427 10d4 D154     		strb	r1, [r2, r3]
 573:main.c        ****             			touch1[LCDRx] = 0x00;
 2428              		.loc 1 573 0 discriminator 3
 2429 10d6 97F82E30 		ldrb	r3, [r7, #46]	@ zero_extendqisi2
 2430 10da 0133     		adds	r3, r3, #1
 2431 10dc 87F82E30 		strb	r3, [r7, #46]
 2432              	.L161:
 573:main.c        ****             			touch1[LCDRx] = 0x00;
 2433              		.loc 1 573 0 is_stmt 0 discriminator 1
 2434 10e0 97F82E30 		ldrb	r3, [r7, #46]	@ zero_extendqisi2
 2435 10e4 132B     		cmp	r3, #19
 2436 10e6 F1D9     		bls	.L162
 2437              	.LBE39:
 575:main.c        ****             		}                    
 576:main.c        ****                     W_autorize = 0x0B;
 2438              		.loc 1 576 0 is_stmt 1
 2439 10e8 0B23     		movs	r3, #11
 2440 10ea 87F85630 		strb	r3, [r7, #86]
 2441              	.L157:
 577:main.c        ****                 }
 578:main.c        ****                 if(touch1[3] == 0x83 && W_autorize == 0x0B){             
 2442              		.loc 1 578 0
 2443 10ee 7D4B     		ldr	r3, .L219
 2444 10f0 DB78     		ldrb	r3, [r3, #3]	@ zero_extendqisi2
 2445 10f2 832B     		cmp	r3, #131
 2446 10f4 65D1     		bne	.L163
 2447              		.loc 1 578 0 is_stmt 0 discriminator 1
 2448 10f6 97F85630 		ldrb	r3, [r7, #86]	@ zero_extendqisi2
 2449 10fa 0B2B     		cmp	r3, #11
 2450 10fc 61D1     		bne	.L163
 579:main.c        ****                     W_autorize = 0;
 2451              		.loc 1 579 0 is_stmt 1
 2452 10fe 0023     		movs	r3, #0
 2453 1100 87F85630 		strb	r3, [r7, #86]
 2454              	.LBB40:
 580:main.c        ****                     for(uint8 LCDRx = 7; LCDRx < 15; LCDRx++){
 2455              		.loc 1 580 0
 2456 1104 0723     		movs	r3, #7
 2457 1106 87F82D30 		strb	r3, [r7, #45]
 2458 110a 37E0     		b	.L164
 2459              	.L168:
 581:main.c        ****                         if((touch1[LCDRx] == 0x00) ||(touch1[LCDRx] == 0xFF))
 2460              		.loc 1 581 0
 2461 110c 97F82D30 		ldrb	r3, [r7, #45]	@ zero_extendqisi2
 2462 1110 744A     		ldr	r2, .L219
 2463 1112 D35C     		ldrb	r3, [r2, r3]	@ zero_extendqisi2
 2464 1114 002B     		cmp	r3, #0
ARM GAS  C:\Users\Diego\AppData\Local\Temp\cc2hwaET.s 			page 56


 2465 1116 35D0     		beq	.L165
 2466              		.loc 1 581 0 is_stmt 0 discriminator 1
 2467 1118 97F82D30 		ldrb	r3, [r7, #45]	@ zero_extendqisi2
 2468 111c 714A     		ldr	r2, .L219
 2469 111e D35C     		ldrb	r3, [r2, r3]	@ zero_extendqisi2
 2470 1120 FF2B     		cmp	r3, #255
 2471 1122 2FD0     		beq	.L165
 582:main.c        ****                             break;
 583:main.c        ****                         if(touch1[LCDRx] > 96 && touch1[LCDRx] < 123){
 2472              		.loc 1 583 0 is_stmt 1
 2473 1124 97F82D30 		ldrb	r3, [r7, #45]	@ zero_extendqisi2
 2474 1128 6E4A     		ldr	r2, .L219
 2475 112a D35C     		ldrb	r3, [r2, r3]	@ zero_extendqisi2
 2476 112c 602B     		cmp	r3, #96
 2477 112e 14D9     		bls	.L166
 2478              		.loc 1 583 0 is_stmt 0 discriminator 1
 2479 1130 97F82D30 		ldrb	r3, [r7, #45]	@ zero_extendqisi2
 2480 1134 6B4A     		ldr	r2, .L219
 2481 1136 D35C     		ldrb	r3, [r2, r3]	@ zero_extendqisi2
 2482 1138 7A2B     		cmp	r3, #122
 2483 113a 0ED8     		bhi	.L166
 584:main.c        ****                             side.b.msn_plate[LCDRx-7] = touch1[LCDRx]-0x20;                        
 2484              		.loc 1 584 0 is_stmt 1
 2485 113c 97F82D30 		ldrb	r3, [r7, #45]	@ zero_extendqisi2
 2486 1140 073B     		subs	r3, r3, #7
 2487 1142 97F82D20 		ldrb	r2, [r7, #45]	@ zero_extendqisi2
 2488 1146 6749     		ldr	r1, .L219
 2489 1148 8A5C     		ldrb	r2, [r1, r2]	@ zero_extendqisi2
 2490 114a 203A     		subs	r2, r2, #32
 2491 114c D1B2     		uxtb	r1, r2
 2492 114e 664A     		ldr	r2, .L219+4
 2493 1150 1344     		add	r3, r3, r2
 2494 1152 0A46     		mov	r2, r1
 2495 1154 83F85822 		strb	r2, [r3, #600]
 2496 1158 0BE0     		b	.L167
 2497              	.L166:
 585:main.c        ****                         }else{
 586:main.c        ****                             side.b.msn_plate[LCDRx-7] = touch1[LCDRx];
 2498              		.loc 1 586 0
 2499 115a 97F82D30 		ldrb	r3, [r7, #45]	@ zero_extendqisi2
 2500 115e 073B     		subs	r3, r3, #7
 2501 1160 97F82D20 		ldrb	r2, [r7, #45]	@ zero_extendqisi2
 2502 1164 5F49     		ldr	r1, .L219
 2503 1166 895C     		ldrb	r1, [r1, r2]	@ zero_extendqisi2
 2504 1168 5F4A     		ldr	r2, .L219+4
 2505 116a 1344     		add	r3, r3, r2
 2506 116c 0A46     		mov	r2, r1
 2507 116e 83F85822 		strb	r2, [r3, #600]
 2508              	.L167:
 580:main.c        ****                         if((touch1[LCDRx] == 0x00) ||(touch1[LCDRx] == 0xFF))
 2509              		.loc 1 580 0 discriminator 2
 2510 1172 97F82D30 		ldrb	r3, [r7, #45]	@ zero_extendqisi2
 2511 1176 0133     		adds	r3, r3, #1
 2512 1178 87F82D30 		strb	r3, [r7, #45]
 2513              	.L164:
 580:main.c        ****                         if((touch1[LCDRx] == 0x00) ||(touch1[LCDRx] == 0xFF))
 2514              		.loc 1 580 0 is_stmt 0 discriminator 1
ARM GAS  C:\Users\Diego\AppData\Local\Temp\cc2hwaET.s 			page 57


 2515 117c 97F82D30 		ldrb	r3, [r7, #45]	@ zero_extendqisi2
 2516 1180 0E2B     		cmp	r3, #14
 2517 1182 C3D9     		bls	.L168
 2518              	.L165:
 2519              	.LBE40:
 2520              	.LBB41:
 587:main.c        ****                         }
 588:main.c        ****             		}
 589:main.c        ****                     for(uint8 LCDRx = 0; LCDRx < 20; LCDRx++){
 2521              		.loc 1 589 0 is_stmt 1
 2522 1184 0023     		movs	r3, #0
 2523 1186 87F82C30 		strb	r3, [r7, #44]
 2524 118a 09E0     		b	.L169
 2525              	.L170:
 590:main.c        ****             			touch1[LCDRx] = 0x00;
 2526              		.loc 1 590 0 discriminator 3
 2527 118c 97F82C30 		ldrb	r3, [r7, #44]	@ zero_extendqisi2
 2528 1190 544A     		ldr	r2, .L219
 2529 1192 0021     		movs	r1, #0
 2530 1194 D154     		strb	r1, [r2, r3]
 589:main.c        ****             			touch1[LCDRx] = 0x00;
 2531              		.loc 1 589 0 discriminator 3
 2532 1196 97F82C30 		ldrb	r3, [r7, #44]	@ zero_extendqisi2
 2533 119a 0133     		adds	r3, r3, #1
 2534 119c 87F82C30 		strb	r3, [r7, #44]
 2535              	.L169:
 589:main.c        ****             			touch1[LCDRx] = 0x00;
 2536              		.loc 1 589 0 is_stmt 0 discriminator 1
 2537 11a0 97F82C30 		ldrb	r3, [r7, #44]	@ zero_extendqisi2
 2538 11a4 132B     		cmp	r3, #19
 2539 11a6 F1D9     		bls	.L170
 2540              	.LBE41:
 591:main.c        ****             		}
 592:main.c        ****                     PrintReceipt(side.b.dir);
 2541              		.loc 1 592 0 is_stmt 1
 2542 11a8 4F4B     		ldr	r3, .L219+4
 2543 11aa 93F83531 		ldrb	r3, [r3, #309]	@ zero_extendqisi2
 2544 11ae 1846     		mov	r0, r3
 2545 11b0 FFF7FEFF 		bl	PrintReceipt
 593:main.c        ****                     side.b.Copy = 1;
 2546              		.loc 1 593 0
 2547 11b4 4C4B     		ldr	r3, .L219+4
 2548 11b6 0122     		movs	r2, #1
 2549 11b8 83F86922 		strb	r2, [r3, #617]
 594:main.c        ****                     W_autorize  = 0xBC;
 2550              		.loc 1 594 0
 2551 11bc BC23     		movs	r3, #188
 2552 11be 87F85630 		strb	r3, [r7, #86]
 2553              	.L163:
 595:main.c        ****                 }
 596:main.c        ****                 if(touch1[3] == 0x83 && W_autorize == 0x1C){                                 
 2554              		.loc 1 596 0
 2555 11c2 484B     		ldr	r3, .L219
 2556 11c4 DB78     		ldrb	r3, [r3, #3]	@ zero_extendqisi2
 2557 11c6 832B     		cmp	r3, #131
 2558 11c8 3DD1     		bne	.L171
 2559              		.loc 1 596 0 is_stmt 0 discriminator 1
ARM GAS  C:\Users\Diego\AppData\Local\Temp\cc2hwaET.s 			page 58


 2560 11ca 97F85630 		ldrb	r3, [r7, #86]	@ zero_extendqisi2
 2561 11ce 1C2B     		cmp	r3, #28
 2562 11d0 39D1     		bne	.L171
 2563              	.LBB42:
 597:main.c        ****                     for(uint8 LCDRx = 7; LCDRx < 15; LCDRx++){
 2564              		.loc 1 597 0 is_stmt 1
 2565 11d2 0723     		movs	r3, #7
 2566 11d4 87F82B30 		strb	r3, [r7, #43]
 2567 11d8 1CE0     		b	.L172
 2568              	.L174:
 598:main.c        ****                         if((touch1[LCDRx] == 0x00) ||(touch1[LCDRx] == 0xFF))
 2569              		.loc 1 598 0
 2570 11da 97F82B30 		ldrb	r3, [r7, #43]	@ zero_extendqisi2
 2571 11de 414A     		ldr	r2, .L219
 2572 11e0 D35C     		ldrb	r3, [r2, r3]	@ zero_extendqisi2
 2573 11e2 002B     		cmp	r3, #0
 2574 11e4 1AD0     		beq	.L173
 2575              		.loc 1 598 0 is_stmt 0 discriminator 1
 2576 11e6 97F82B30 		ldrb	r3, [r7, #43]	@ zero_extendqisi2
 2577 11ea 3E4A     		ldr	r2, .L219
 2578 11ec D35C     		ldrb	r3, [r2, r3]	@ zero_extendqisi2
 2579 11ee FF2B     		cmp	r3, #255
 2580 11f0 14D0     		beq	.L173
 599:main.c        ****                             break;
 600:main.c        ****                         side.c.km[LCDRx-7] = touch1[LCDRx];
 2581              		.loc 1 600 0 is_stmt 1 discriminator 2
 2582 11f2 97F82B30 		ldrb	r3, [r7, #43]	@ zero_extendqisi2
 2583 11f6 073B     		subs	r3, r3, #7
 2584 11f8 97F82B20 		ldrb	r2, [r7, #43]	@ zero_extendqisi2
 2585 11fc 3949     		ldr	r1, .L219
 2586 11fe 895C     		ldrb	r1, [r1, r2]	@ zero_extendqisi2
 2587 1200 394A     		ldr	r2, .L219+4
 2588 1202 1344     		add	r3, r3, r2
 2589 1204 0A46     		mov	r2, r1
 2590 1206 83F89723 		strb	r2, [r3, #919]
 597:main.c        ****                         if((touch1[LCDRx] == 0x00) ||(touch1[LCDRx] == 0xFF))
 2591              		.loc 1 597 0 discriminator 2
 2592 120a 97F82B30 		ldrb	r3, [r7, #43]	@ zero_extendqisi2
 2593 120e 0133     		adds	r3, r3, #1
 2594 1210 87F82B30 		strb	r3, [r7, #43]
 2595              	.L172:
 597:main.c        ****                         if((touch1[LCDRx] == 0x00) ||(touch1[LCDRx] == 0xFF))
 2596              		.loc 1 597 0 is_stmt 0 discriminator 1
 2597 1214 97F82B30 		ldrb	r3, [r7, #43]	@ zero_extendqisi2
 2598 1218 0E2B     		cmp	r3, #14
 2599 121a DED9     		bls	.L174
 2600              	.L173:
 2601              	.LBE42:
 2602              	.LBB43:
 601:main.c        ****             		}
 602:main.c        ****                     for(uint8 LCDRx = 0; LCDRx < 20; LCDRx++){
 2603              		.loc 1 602 0 is_stmt 1
 2604 121c 0023     		movs	r3, #0
 2605 121e 87F82A30 		strb	r3, [r7, #42]
 2606 1222 09E0     		b	.L175
 2607              	.L176:
 603:main.c        ****             			touch1[LCDRx] = 0x00;
ARM GAS  C:\Users\Diego\AppData\Local\Temp\cc2hwaET.s 			page 59


 2608              		.loc 1 603 0 discriminator 3
 2609 1224 97F82A30 		ldrb	r3, [r7, #42]	@ zero_extendqisi2
 2610 1228 2E4A     		ldr	r2, .L219
 2611 122a 0021     		movs	r1, #0
 2612 122c D154     		strb	r1, [r2, r3]
 602:main.c        ****             			touch1[LCDRx] = 0x00;
 2613              		.loc 1 602 0 discriminator 3
 2614 122e 97F82A30 		ldrb	r3, [r7, #42]	@ zero_extendqisi2
 2615 1232 0133     		adds	r3, r3, #1
 2616 1234 87F82A30 		strb	r3, [r7, #42]
 2617              	.L175:
 602:main.c        ****             			touch1[LCDRx] = 0x00;
 2618              		.loc 1 602 0 is_stmt 0 discriminator 1
 2619 1238 97F82A30 		ldrb	r3, [r7, #42]	@ zero_extendqisi2
 2620 123c 132B     		cmp	r3, #19
 2621 123e F1D9     		bls	.L176
 2622              	.LBE43:
 604:main.c        ****             		}                    
 605:main.c        ****                     W_autorize = 0x0C;
 2623              		.loc 1 605 0 is_stmt 1
 2624 1240 0C23     		movs	r3, #12
 2625 1242 87F85630 		strb	r3, [r7, #86]
 2626              	.L171:
 606:main.c        ****                 }
 607:main.c        ****                 if(touch1[3] == 0x83 && W_autorize == 0x0C){             
 2627              		.loc 1 607 0
 2628 1246 274B     		ldr	r3, .L219
 2629 1248 DB78     		ldrb	r3, [r3, #3]	@ zero_extendqisi2
 2630 124a 832B     		cmp	r3, #131
 2631 124c 69D1     		bne	.L177
 2632              		.loc 1 607 0 is_stmt 0 discriminator 1
 2633 124e 97F85630 		ldrb	r3, [r7, #86]	@ zero_extendqisi2
 2634 1252 0C2B     		cmp	r3, #12
 2635 1254 65D1     		bne	.L177
 608:main.c        ****                     W_autorize = 0;
 2636              		.loc 1 608 0 is_stmt 1
 2637 1256 0023     		movs	r3, #0
 2638 1258 87F85630 		strb	r3, [r7, #86]
 2639              	.LBB44:
 609:main.c        ****                     for(uint8 LCDRx = 7; LCDRx < 15; LCDRx++){
 2640              		.loc 1 609 0
 2641 125c 0723     		movs	r3, #7
 2642 125e 87F82930 		strb	r3, [r7, #41]
 2643 1262 37E0     		b	.L178
 2644              	.L182:
 610:main.c        ****                         if((touch1[LCDRx] == 0x00) ||(touch1[LCDRx] == 0xFF))
 2645              		.loc 1 610 0
 2646 1264 97F82930 		ldrb	r3, [r7, #41]	@ zero_extendqisi2
 2647 1268 1E4A     		ldr	r2, .L219
 2648 126a D35C     		ldrb	r3, [r2, r3]	@ zero_extendqisi2
 2649 126c 002B     		cmp	r3, #0
 2650 126e 35D0     		beq	.L179
 2651              		.loc 1 610 0 is_stmt 0 discriminator 1
 2652 1270 97F82930 		ldrb	r3, [r7, #41]	@ zero_extendqisi2
 2653 1274 1B4A     		ldr	r2, .L219
 2654 1276 D35C     		ldrb	r3, [r2, r3]	@ zero_extendqisi2
 2655 1278 FF2B     		cmp	r3, #255
ARM GAS  C:\Users\Diego\AppData\Local\Temp\cc2hwaET.s 			page 60


 2656 127a 2FD0     		beq	.L179
 611:main.c        ****                             break;
 612:main.c        ****                         if(touch1[LCDRx] > 96 && touch1[LCDRx] < 123){
 2657              		.loc 1 612 0 is_stmt 1
 2658 127c 97F82930 		ldrb	r3, [r7, #41]	@ zero_extendqisi2
 2659 1280 184A     		ldr	r2, .L219
 2660 1282 D35C     		ldrb	r3, [r2, r3]	@ zero_extendqisi2
 2661 1284 602B     		cmp	r3, #96
 2662 1286 14D9     		bls	.L180
 2663              		.loc 1 612 0 is_stmt 0 discriminator 1
 2664 1288 97F82930 		ldrb	r3, [r7, #41]	@ zero_extendqisi2
 2665 128c 154A     		ldr	r2, .L219
 2666 128e D35C     		ldrb	r3, [r2, r3]	@ zero_extendqisi2
 2667 1290 7A2B     		cmp	r3, #122
 2668 1292 0ED8     		bhi	.L180
 613:main.c        ****                             side.c.msn_plate[LCDRx-7] = touch1[LCDRx]-0x20;                        
 2669              		.loc 1 613 0 is_stmt 1
 2670 1294 97F82930 		ldrb	r3, [r7, #41]	@ zero_extendqisi2
 2671 1298 073B     		subs	r3, r3, #7
 2672 129a 97F82920 		ldrb	r2, [r7, #41]	@ zero_extendqisi2
 2673 129e 1149     		ldr	r1, .L219
 2674 12a0 8A5C     		ldrb	r2, [r1, r2]	@ zero_extendqisi2
 2675 12a2 203A     		subs	r2, r2, #32
 2676 12a4 D1B2     		uxtb	r1, r2
 2677 12a6 104A     		ldr	r2, .L219+4
 2678 12a8 1344     		add	r3, r3, r2
 2679 12aa 0A46     		mov	r2, r1
 2680 12ac 83F88D23 		strb	r2, [r3, #909]
 2681 12b0 0BE0     		b	.L181
 2682              	.L180:
 614:main.c        ****                         }else{
 615:main.c        ****                             side.c.msn_plate[LCDRx-7] = touch1[LCDRx];
 2683              		.loc 1 615 0
 2684 12b2 97F82930 		ldrb	r3, [r7, #41]	@ zero_extendqisi2
 2685 12b6 073B     		subs	r3, r3, #7
 2686 12b8 97F82920 		ldrb	r2, [r7, #41]	@ zero_extendqisi2
 2687 12bc 0949     		ldr	r1, .L219
 2688 12be 895C     		ldrb	r1, [r1, r2]	@ zero_extendqisi2
 2689 12c0 094A     		ldr	r2, .L219+4
 2690 12c2 1344     		add	r3, r3, r2
 2691 12c4 0A46     		mov	r2, r1
 2692 12c6 83F88D23 		strb	r2, [r3, #909]
 2693              	.L181:
 609:main.c        ****                         if((touch1[LCDRx] == 0x00) ||(touch1[LCDRx] == 0xFF))
 2694              		.loc 1 609 0 discriminator 2
 2695 12ca 97F82930 		ldrb	r3, [r7, #41]	@ zero_extendqisi2
 2696 12ce 0133     		adds	r3, r3, #1
 2697 12d0 87F82930 		strb	r3, [r7, #41]
 2698              	.L178:
 609:main.c        ****                         if((touch1[LCDRx] == 0x00) ||(touch1[LCDRx] == 0xFF))
 2699              		.loc 1 609 0 is_stmt 0 discriminator 1
 2700 12d4 97F82930 		ldrb	r3, [r7, #41]	@ zero_extendqisi2
 2701 12d8 0E2B     		cmp	r3, #14
 2702 12da C3D9     		bls	.L182
 2703              	.L179:
 2704              	.LBE44:
 2705              	.LBB45:
ARM GAS  C:\Users\Diego\AppData\Local\Temp\cc2hwaET.s 			page 61


 616:main.c        ****                         }
 617:main.c        ****             		}
 618:main.c        ****                     for(uint8 LCDRx = 0; LCDRx < 20; LCDRx++){
 2706              		.loc 1 618 0 is_stmt 1
 2707 12dc 0023     		movs	r3, #0
 2708 12de 87F82830 		strb	r3, [r7, #40]
 2709 12e2 0DE0     		b	.L183
 2710              	.L220:
 2711              		.align	2
 2712              	.L219:
 2713 12e4 00000000 		.word	touch1
 2714 12e8 00000000 		.word	side
 2715              	.L184:
 619:main.c        ****             			touch1[LCDRx] = 0x00;
 2716              		.loc 1 619 0 discriminator 3
 2717 12ec 97F82830 		ldrb	r3, [r7, #40]	@ zero_extendqisi2
 2718 12f0 6C4A     		ldr	r2, .L221
 2719 12f2 0021     		movs	r1, #0
 2720 12f4 D154     		strb	r1, [r2, r3]
 618:main.c        ****             			touch1[LCDRx] = 0x00;
 2721              		.loc 1 618 0 discriminator 3
 2722 12f6 97F82830 		ldrb	r3, [r7, #40]	@ zero_extendqisi2
 2723 12fa 0133     		adds	r3, r3, #1
 2724 12fc 87F82830 		strb	r3, [r7, #40]
 2725              	.L183:
 618:main.c        ****             			touch1[LCDRx] = 0x00;
 2726              		.loc 1 618 0 is_stmt 0 discriminator 1
 2727 1300 97F82830 		ldrb	r3, [r7, #40]	@ zero_extendqisi2
 2728 1304 132B     		cmp	r3, #19
 2729 1306 F1D9     		bls	.L184
 2730              	.LBE45:
 620:main.c        ****             		}
 621:main.c        ****                     PrintReceipt(side.c.dir);
 2731              		.loc 1 621 0 is_stmt 1
 2732 1308 674B     		ldr	r3, .L221+4
 2733 130a 93F86A32 		ldrb	r3, [r3, #618]	@ zero_extendqisi2
 2734 130e 1846     		mov	r0, r3
 2735 1310 FFF7FEFF 		bl	PrintReceipt
 622:main.c        ****                     side.c.Copy = 1;
 2736              		.loc 1 622 0
 2737 1314 644B     		ldr	r3, .L221+4
 2738 1316 0122     		movs	r2, #1
 2739 1318 83F89E23 		strb	r2, [r3, #926]
 623:main.c        ****                     W_autorize =0xCC;
 2740              		.loc 1 623 0
 2741 131c CC23     		movs	r3, #204
 2742 131e 87F85630 		strb	r3, [r7, #86]
 2743              	.L177:
 624:main.c        ****                 }
 625:main.c        ****                 if(touch1[3] == 0x83 && W_autorize == 0x1D){                                 
 2744              		.loc 1 625 0
 2745 1322 604B     		ldr	r3, .L221
 2746 1324 DB78     		ldrb	r3, [r3, #3]	@ zero_extendqisi2
 2747 1326 832B     		cmp	r3, #131
 2748 1328 3DD1     		bne	.L185
 2749              		.loc 1 625 0 is_stmt 0 discriminator 1
 2750 132a 97F85630 		ldrb	r3, [r7, #86]	@ zero_extendqisi2
ARM GAS  C:\Users\Diego\AppData\Local\Temp\cc2hwaET.s 			page 62


 2751 132e 1D2B     		cmp	r3, #29
 2752 1330 39D1     		bne	.L185
 2753              	.LBB46:
 626:main.c        ****                     for(uint8 LCDRx = 7; LCDRx < 15; LCDRx++){
 2754              		.loc 1 626 0 is_stmt 1
 2755 1332 0723     		movs	r3, #7
 2756 1334 87F82730 		strb	r3, [r7, #39]
 2757 1338 1CE0     		b	.L186
 2758              	.L188:
 627:main.c        ****                         if((touch1[LCDRx] == 0x00) ||(touch1[LCDRx] == 0xFF))
 2759              		.loc 1 627 0
 2760 133a 97F82730 		ldrb	r3, [r7, #39]	@ zero_extendqisi2
 2761 133e 594A     		ldr	r2, .L221
 2762 1340 D35C     		ldrb	r3, [r2, r3]	@ zero_extendqisi2
 2763 1342 002B     		cmp	r3, #0
 2764 1344 1AD0     		beq	.L187
 2765              		.loc 1 627 0 is_stmt 0 discriminator 1
 2766 1346 97F82730 		ldrb	r3, [r7, #39]	@ zero_extendqisi2
 2767 134a 564A     		ldr	r2, .L221
 2768 134c D35C     		ldrb	r3, [r2, r3]	@ zero_extendqisi2
 2769 134e FF2B     		cmp	r3, #255
 2770 1350 14D0     		beq	.L187
 628:main.c        ****                             break;
 629:main.c        ****                         side.d.km[LCDRx-7] = touch1[LCDRx];
 2771              		.loc 1 629 0 is_stmt 1 discriminator 2
 2772 1352 97F82730 		ldrb	r3, [r7, #39]	@ zero_extendqisi2
 2773 1356 073B     		subs	r3, r3, #7
 2774 1358 97F82720 		ldrb	r2, [r7, #39]	@ zero_extendqisi2
 2775 135c 5149     		ldr	r1, .L221
 2776 135e 895C     		ldrb	r1, [r1, r2]	@ zero_extendqisi2
 2777 1360 514A     		ldr	r2, .L221+4
 2778 1362 1344     		add	r3, r3, r2
 2779 1364 0A46     		mov	r2, r1
 2780 1366 83F8CC24 		strb	r2, [r3, #1228]
 626:main.c        ****                         if((touch1[LCDRx] == 0x00) ||(touch1[LCDRx] == 0xFF))
 2781              		.loc 1 626 0 discriminator 2
 2782 136a 97F82730 		ldrb	r3, [r7, #39]	@ zero_extendqisi2
 2783 136e 0133     		adds	r3, r3, #1
 2784 1370 87F82730 		strb	r3, [r7, #39]
 2785              	.L186:
 626:main.c        ****                         if((touch1[LCDRx] == 0x00) ||(touch1[LCDRx] == 0xFF))
 2786              		.loc 1 626 0 is_stmt 0 discriminator 1
 2787 1374 97F82730 		ldrb	r3, [r7, #39]	@ zero_extendqisi2
 2788 1378 0E2B     		cmp	r3, #14
 2789 137a DED9     		bls	.L188
 2790              	.L187:
 2791              	.LBE46:
 2792              	.LBB47:
 630:main.c        ****             		}
 631:main.c        ****                     for(uint8 LCDRx = 0; LCDRx < 20; LCDRx++){
 2793              		.loc 1 631 0 is_stmt 1
 2794 137c 0023     		movs	r3, #0
 2795 137e 87F82630 		strb	r3, [r7, #38]
 2796 1382 09E0     		b	.L189
 2797              	.L190:
 632:main.c        ****             			touch1[LCDRx] = 0x00;
 2798              		.loc 1 632 0 discriminator 3
ARM GAS  C:\Users\Diego\AppData\Local\Temp\cc2hwaET.s 			page 63


 2799 1384 97F82630 		ldrb	r3, [r7, #38]	@ zero_extendqisi2
 2800 1388 464A     		ldr	r2, .L221
 2801 138a 0021     		movs	r1, #0
 2802 138c D154     		strb	r1, [r2, r3]
 631:main.c        ****             			touch1[LCDRx] = 0x00;
 2803              		.loc 1 631 0 discriminator 3
 2804 138e 97F82630 		ldrb	r3, [r7, #38]	@ zero_extendqisi2
 2805 1392 0133     		adds	r3, r3, #1
 2806 1394 87F82630 		strb	r3, [r7, #38]
 2807              	.L189:
 631:main.c        ****             			touch1[LCDRx] = 0x00;
 2808              		.loc 1 631 0 is_stmt 0 discriminator 1
 2809 1398 97F82630 		ldrb	r3, [r7, #38]	@ zero_extendqisi2
 2810 139c 132B     		cmp	r3, #19
 2811 139e F1D9     		bls	.L190
 2812              	.LBE47:
 633:main.c        ****             		}                    
 634:main.c        ****                     W_autorize = 0x0D;
 2813              		.loc 1 634 0 is_stmt 1
 2814 13a0 0D23     		movs	r3, #13
 2815 13a2 87F85630 		strb	r3, [r7, #86]
 2816              	.L185:
 635:main.c        ****                 }
 636:main.c        ****                 if(touch1[3] == 0x83 && W_autorize == 0x0D){             
 2817              		.loc 1 636 0
 2818 13a6 3F4B     		ldr	r3, .L221
 2819 13a8 DB78     		ldrb	r3, [r3, #3]	@ zero_extendqisi2
 2820 13aa 832B     		cmp	r3, #131
 2821 13ac 74D1     		bne	.L208
 2822              		.loc 1 636 0 is_stmt 0 discriminator 1
 2823 13ae 97F85630 		ldrb	r3, [r7, #86]	@ zero_extendqisi2
 2824 13b2 0D2B     		cmp	r3, #13
 2825 13b4 70D1     		bne	.L208
 637:main.c        ****                     W_autorize = 0;
 2826              		.loc 1 637 0 is_stmt 1
 2827 13b6 0023     		movs	r3, #0
 2828 13b8 87F85630 		strb	r3, [r7, #86]
 2829              	.LBB48:
 638:main.c        ****                     for(uint8 LCDRx = 7; LCDRx < 15; LCDRx++){
 2830              		.loc 1 638 0
 2831 13bc 0723     		movs	r3, #7
 2832 13be 87F82530 		strb	r3, [r7, #37]
 2833 13c2 37E0     		b	.L192
 2834              	.L196:
 639:main.c        ****                         if((touch1[LCDRx] == 0x00) ||(touch1[LCDRx] == 0xFF))
 2835              		.loc 1 639 0
 2836 13c4 97F82530 		ldrb	r3, [r7, #37]	@ zero_extendqisi2
 2837 13c8 364A     		ldr	r2, .L221
 2838 13ca D35C     		ldrb	r3, [r2, r3]	@ zero_extendqisi2
 2839 13cc 002B     		cmp	r3, #0
 2840 13ce 35D0     		beq	.L193
 2841              		.loc 1 639 0 is_stmt 0 discriminator 1
 2842 13d0 97F82530 		ldrb	r3, [r7, #37]	@ zero_extendqisi2
 2843 13d4 334A     		ldr	r2, .L221
 2844 13d6 D35C     		ldrb	r3, [r2, r3]	@ zero_extendqisi2
 2845 13d8 FF2B     		cmp	r3, #255
 2846 13da 2FD0     		beq	.L193
ARM GAS  C:\Users\Diego\AppData\Local\Temp\cc2hwaET.s 			page 64


 640:main.c        ****                             break;
 641:main.c        ****                         if(touch1[LCDRx] > 96 && touch1[LCDRx] < 123){
 2847              		.loc 1 641 0 is_stmt 1
 2848 13dc 97F82530 		ldrb	r3, [r7, #37]	@ zero_extendqisi2
 2849 13e0 304A     		ldr	r2, .L221
 2850 13e2 D35C     		ldrb	r3, [r2, r3]	@ zero_extendqisi2
 2851 13e4 602B     		cmp	r3, #96
 2852 13e6 14D9     		bls	.L194
 2853              		.loc 1 641 0 is_stmt 0 discriminator 1
 2854 13e8 97F82530 		ldrb	r3, [r7, #37]	@ zero_extendqisi2
 2855 13ec 2D4A     		ldr	r2, .L221
 2856 13ee D35C     		ldrb	r3, [r2, r3]	@ zero_extendqisi2
 2857 13f0 7A2B     		cmp	r3, #122
 2858 13f2 0ED8     		bhi	.L194
 642:main.c        ****                             side.d.msn_plate[LCDRx-7] = touch1[LCDRx]-0x20;                        
 2859              		.loc 1 642 0 is_stmt 1
 2860 13f4 97F82530 		ldrb	r3, [r7, #37]	@ zero_extendqisi2
 2861 13f8 073B     		subs	r3, r3, #7
 2862 13fa 97F82520 		ldrb	r2, [r7, #37]	@ zero_extendqisi2
 2863 13fe 2949     		ldr	r1, .L221
 2864 1400 8A5C     		ldrb	r2, [r1, r2]	@ zero_extendqisi2
 2865 1402 203A     		subs	r2, r2, #32
 2866 1404 D1B2     		uxtb	r1, r2
 2867 1406 284A     		ldr	r2, .L221+4
 2868 1408 1344     		add	r3, r3, r2
 2869 140a 0A46     		mov	r2, r1
 2870 140c 83F8C224 		strb	r2, [r3, #1218]
 2871 1410 0BE0     		b	.L195
 2872              	.L194:
 643:main.c        ****                         }else{
 644:main.c        ****                             side.d.msn_plate[LCDRx-7] = touch1[LCDRx];
 2873              		.loc 1 644 0
 2874 1412 97F82530 		ldrb	r3, [r7, #37]	@ zero_extendqisi2
 2875 1416 073B     		subs	r3, r3, #7
 2876 1418 97F82520 		ldrb	r2, [r7, #37]	@ zero_extendqisi2
 2877 141c 2149     		ldr	r1, .L221
 2878 141e 895C     		ldrb	r1, [r1, r2]	@ zero_extendqisi2
 2879 1420 214A     		ldr	r2, .L221+4
 2880 1422 1344     		add	r3, r3, r2
 2881 1424 0A46     		mov	r2, r1
 2882 1426 83F8C224 		strb	r2, [r3, #1218]
 2883              	.L195:
 638:main.c        ****                         if((touch1[LCDRx] == 0x00) ||(touch1[LCDRx] == 0xFF))
 2884              		.loc 1 638 0 discriminator 2
 2885 142a 97F82530 		ldrb	r3, [r7, #37]	@ zero_extendqisi2
 2886 142e 0133     		adds	r3, r3, #1
 2887 1430 87F82530 		strb	r3, [r7, #37]
 2888              	.L192:
 638:main.c        ****                         if((touch1[LCDRx] == 0x00) ||(touch1[LCDRx] == 0xFF))
 2889              		.loc 1 638 0 is_stmt 0 discriminator 1
 2890 1434 97F82530 		ldrb	r3, [r7, #37]	@ zero_extendqisi2
 2891 1438 0E2B     		cmp	r3, #14
 2892 143a C3D9     		bls	.L196
 2893              	.L193:
 2894              	.LBE48:
 2895              	.LBB49:
 645:main.c        ****                         }
ARM GAS  C:\Users\Diego\AppData\Local\Temp\cc2hwaET.s 			page 65


 646:main.c        ****             		}
 647:main.c        ****                     for(uint8 LCDRx = 0; LCDRx < 20; LCDRx++){
 2896              		.loc 1 647 0 is_stmt 1
 2897 143c 0023     		movs	r3, #0
 2898 143e 87F82430 		strb	r3, [r7, #36]
 2899 1442 09E0     		b	.L197
 2900              	.L198:
 648:main.c        ****             			touch1[LCDRx] = 0x00;
 2901              		.loc 1 648 0 discriminator 3
 2902 1444 97F82430 		ldrb	r3, [r7, #36]	@ zero_extendqisi2
 2903 1448 164A     		ldr	r2, .L221
 2904 144a 0021     		movs	r1, #0
 2905 144c D154     		strb	r1, [r2, r3]
 647:main.c        ****             			touch1[LCDRx] = 0x00;
 2906              		.loc 1 647 0 discriminator 3
 2907 144e 97F82430 		ldrb	r3, [r7, #36]	@ zero_extendqisi2
 2908 1452 0133     		adds	r3, r3, #1
 2909 1454 87F82430 		strb	r3, [r7, #36]
 2910              	.L197:
 647:main.c        ****             			touch1[LCDRx] = 0x00;
 2911              		.loc 1 647 0 is_stmt 0 discriminator 1
 2912 1458 97F82430 		ldrb	r3, [r7, #36]	@ zero_extendqisi2
 2913 145c 132B     		cmp	r3, #19
 2914 145e F1D9     		bls	.L198
 2915              	.LBE49:
 649:main.c        ****             		}
 650:main.c        ****                     PrintReceipt(side.d.dir);
 2916              		.loc 1 650 0 is_stmt 1
 2917 1460 114B     		ldr	r3, .L221+4
 2918 1462 93F89F33 		ldrb	r3, [r3, #927]	@ zero_extendqisi2
 2919 1466 1846     		mov	r0, r3
 2920 1468 FFF7FEFF 		bl	PrintReceipt
 651:main.c        ****                     side.d.Copy = 1;
 2921              		.loc 1 651 0
 2922 146c 0E4B     		ldr	r3, .L221+4
 2923 146e 0122     		movs	r2, #1
 2924 1470 83F8D324 		strb	r2, [r3, #1235]
 652:main.c        ****                     W_autorize =0xDC;
 2925              		.loc 1 652 0
 2926 1474 DC23     		movs	r3, #220
 2927 1476 87F85630 		strb	r3, [r7, #86]
 653:main.c        ****                 }
 654:main.c        ****         	break;
 2928              		.loc 1 654 0
 2929 147a 0DE0     		b	.L208
 2930              	.L200:
 291:main.c        ****         	case 0x0B:
 2931              		.loc 1 291 0
 2932 147c 00BF     		nop
 2933 147e 0CE0     		b	.L47
 2934              	.L201:
 322:main.c        ****                 
 2935              		.loc 1 322 0
 2936 1480 00BF     		nop
 2937 1482 0AE0     		b	.L47
 2938              	.L202:
 354:main.c        ****                 
ARM GAS  C:\Users\Diego\AppData\Local\Temp\cc2hwaET.s 			page 66


 2939              		.loc 1 354 0
 2940 1484 00BF     		nop
 2941 1486 08E0     		b	.L47
 2942              	.L203:
 386:main.c        ****                 
 2943              		.loc 1 386 0
 2944 1488 00BF     		nop
 2945 148a 06E0     		b	.L47
 2946              	.L204:
 428:main.c        ****             case 0x4E:
 2947              		.loc 1 428 0
 2948 148c 00BF     		nop
 2949 148e 04E0     		b	.L47
 2950              	.L205:
 446:main.c        ****             case 0xE1:
 2951              		.loc 1 446 0
 2952 1490 00BF     		nop
 2953 1492 02E0     		b	.L47
 2954              	.L206:
 454:main.c        ****         	default:
 2955              		.loc 1 454 0
 2956 1494 00BF     		nop
 2957 1496 00E0     		b	.L47
 2958              	.L208:
 2959              		.loc 1 654 0
 2960 1498 00BF     		nop
 2961              	.L47:
 655:main.c        ****         }
 656:main.c        ****         screen_size = 0;
 2962              		.loc 1 656 0
 2963 149a 0023     		movs	r3, #0
 2964 149c 87F82330 		strb	r3, [r7, #35]
 657:main.c        ****     }
 2965              		.loc 1 657 0
 2966 14a0 FEF7F8BE 		b	.L199
 2967              	.L222:
 2968              		.align	2
 2969              	.L221:
 2970 14a4 00000000 		.word	touch1
 2971 14a8 00000000 		.word	side
 2972              		.cfi_endproc
 2973              	.LFE64:
 2974              		.size	main, .-main
 2975              		.text
 2976              	.Letext0:
 2977              		.file 2 "c:\\program files (x86)\\cypress\\psoc creator\\4.2\\psoc creator\\import\\gnu\\arm\\5.4.
 2978              		.file 3 "c:\\program files (x86)\\cypress\\psoc creator\\4.2\\psoc creator\\import\\gnu\\arm\\5.4.
 2979              		.file 4 "Generated_Source\\PSoC5/cytypes.h"
 2980              		.file 5 "./GVar.h"
 2981              		.file 6 "Generated_Source\\PSoC5/core_cm3.h"
 2982              		.section	.debug_info,"",%progbits
 2983              	.Ldebug_info0:
 2984 0000 C50A0000 		.4byte	0xac5
 2985 0004 0400     		.2byte	0x4
 2986 0006 00000000 		.4byte	.Ldebug_abbrev0
 2987 000a 04       		.byte	0x4
 2988 000b 01       		.uleb128 0x1
ARM GAS  C:\Users\Diego\AppData\Local\Temp\cc2hwaET.s 			page 67


 2989 000c 7A000000 		.4byte	.LASF74
 2990 0010 0C       		.byte	0xc
 2991 0011 3E030000 		.4byte	.LASF75
 2992 0015 60020000 		.4byte	.LASF76
 2993 0019 00000000 		.4byte	.Ldebug_ranges0+0
 2994 001d 00000000 		.4byte	0
 2995 0021 00000000 		.4byte	.Ldebug_line0
 2996 0025 02       		.uleb128 0x2
 2997 0026 01       		.byte	0x1
 2998 0027 06       		.byte	0x6
 2999 0028 3D020000 		.4byte	.LASF0
 3000 002c 02       		.uleb128 0x2
 3001 002d 01       		.byte	0x1
 3002 002e 08       		.byte	0x8
 3003 002f 15020000 		.4byte	.LASF1
 3004 0033 02       		.uleb128 0x2
 3005 0034 02       		.byte	0x2
 3006 0035 05       		.byte	0x5
 3007 0036 4D000000 		.4byte	.LASF2
 3008 003a 02       		.uleb128 0x2
 3009 003b 02       		.byte	0x2
 3010 003c 07       		.byte	0x7
 3011 003d BB020000 		.4byte	.LASF3
 3012 0041 03       		.uleb128 0x3
 3013 0042 84030000 		.4byte	.LASF9
 3014 0046 02       		.byte	0x2
 3015 0047 3F       		.byte	0x3f
 3016 0048 4C000000 		.4byte	0x4c
 3017 004c 02       		.uleb128 0x2
 3018 004d 04       		.byte	0x4
 3019 004e 05       		.byte	0x5
 3020 004f 8E010000 		.4byte	.LASF4
 3021 0053 02       		.uleb128 0x2
 3022 0054 04       		.byte	0x4
 3023 0055 07       		.byte	0x7
 3024 0056 45030000 		.4byte	.LASF5
 3025 005a 02       		.uleb128 0x2
 3026 005b 08       		.byte	0x8
 3027 005c 05       		.byte	0x5
 3028 005d 71010000 		.4byte	.LASF6
 3029 0061 02       		.uleb128 0x2
 3030 0062 08       		.byte	0x8
 3031 0063 07       		.byte	0x7
 3032 0064 49020000 		.4byte	.LASF7
 3033 0068 04       		.uleb128 0x4
 3034 0069 04       		.byte	0x4
 3035 006a 05       		.byte	0x5
 3036 006b 696E7400 		.ascii	"int\000"
 3037 006f 02       		.uleb128 0x2
 3038 0070 04       		.byte	0x4
 3039 0071 07       		.byte	0x7
 3040 0072 94020000 		.4byte	.LASF8
 3041 0076 03       		.uleb128 0x3
 3042 0077 E9020000 		.4byte	.LASF10
 3043 007b 03       		.byte	0x3
 3044 007c 2C       		.byte	0x2c
 3045 007d 41000000 		.4byte	0x41
ARM GAS  C:\Users\Diego\AppData\Local\Temp\cc2hwaET.s 			page 68


 3046 0081 05       		.uleb128 0x5
 3047 0082 34010000 		.4byte	.LASF11
 3048 0086 04       		.byte	0x4
 3049 0087 E401     		.2byte	0x1e4
 3050 0089 2C000000 		.4byte	0x2c
 3051 008d 05       		.uleb128 0x5
 3052 008e 23010000 		.4byte	.LASF12
 3053 0092 04       		.byte	0x4
 3054 0093 E501     		.2byte	0x1e5
 3055 0095 3A000000 		.4byte	0x3a
 3056 0099 02       		.uleb128 0x2
 3057 009a 04       		.byte	0x4
 3058 009b 04       		.byte	0x4
 3059 009c 00000000 		.4byte	.LASF13
 3060 00a0 02       		.uleb128 0x2
 3061 00a1 08       		.byte	0x8
 3062 00a2 04       		.byte	0x4
 3063 00a3 BE030000 		.4byte	.LASF14
 3064 00a7 05       		.uleb128 0x5
 3065 00a8 74000000 		.4byte	.LASF15
 3066 00ac 04       		.byte	0x4
 3067 00ad F501     		.2byte	0x1f5
 3068 00af B3000000 		.4byte	0xb3
 3069 00b3 02       		.uleb128 0x2
 3070 00b4 01       		.byte	0x1
 3071 00b5 08       		.byte	0x8
 3072 00b6 D8020000 		.4byte	.LASF16
 3073 00ba 02       		.uleb128 0x2
 3074 00bb 08       		.byte	0x8
 3075 00bc 04       		.byte	0x4
 3076 00bd FD010000 		.4byte	.LASF17
 3077 00c1 02       		.uleb128 0x2
 3078 00c2 04       		.byte	0x4
 3079 00c3 07       		.byte	0x7
 3080 00c4 57000000 		.4byte	.LASF18
 3081 00c8 06       		.uleb128 0x6
 3082 00c9 4F010000 		.4byte	.LASF35
 3083 00cd 3501     		.2byte	0x135
 3084 00cf 05       		.byte	0x5
 3085 00d0 25       		.byte	0x25
 3086 00d1 B4010000 		.4byte	0x1b4
 3087 00d5 07       		.uleb128 0x7
 3088 00d6 64697200 		.ascii	"dir\000"
 3089 00da 05       		.byte	0x5
 3090 00db 26       		.byte	0x26
 3091 00dc 81000000 		.4byte	0x81
 3092 00e0 00       		.byte	0
 3093 00e1 08       		.uleb128 0x8
 3094 00e2 24030000 		.4byte	.LASF19
 3095 00e6 05       		.byte	0x5
 3096 00e7 27       		.byte	0x27
 3097 00e8 B4010000 		.4byte	0x1b4
 3098 00ec 01       		.byte	0x1
 3099 00ed 08       		.uleb128 0x8
 3100 00ee 2A010000 		.4byte	.LASF20
 3101 00f2 05       		.byte	0x5
 3102 00f3 28       		.byte	0x28
ARM GAS  C:\Users\Diego\AppData\Local\Temp\cc2hwaET.s 			page 69


 3103 00f4 D0010000 		.4byte	0x1d0
 3104 00f8 29       		.byte	0x29
 3105 00f9 08       		.uleb128 0x8
 3106 00fa CE020000 		.4byte	.LASF21
 3107 00fe 05       		.byte	0x5
 3108 00ff 29       		.byte	0x29
 3109 0100 E6010000 		.4byte	0x1e6
 3110 0104 35       		.byte	0x35
 3111 0105 08       		.uleb128 0x8
 3112 0106 D9010000 		.4byte	.LASF22
 3113 010a 05       		.byte	0x5
 3114 010b 2A       		.byte	0x2a
 3115 010c E6010000 		.4byte	0x1e6
 3116 0110 39       		.byte	0x39
 3117 0111 08       		.uleb128 0x8
 3118 0112 A7020000 		.4byte	.LASF23
 3119 0116 05       		.byte	0x5
 3120 0117 2B       		.byte	0x2b
 3121 0118 F6010000 		.4byte	0x1f6
 3122 011c 3D       		.byte	0x3d
 3123 011d 08       		.uleb128 0x8
 3124 011e F1010000 		.4byte	.LASF24
 3125 0122 05       		.byte	0x5
 3126 0123 2C       		.byte	0x2c
 3127 0124 81000000 		.4byte	0x81
 3128 0128 4B       		.byte	0x4b
 3129 0129 08       		.uleb128 0x8
 3130 012a 7F010000 		.4byte	.LASF25
 3131 012e 05       		.byte	0x5
 3132 012f 2D       		.byte	0x2d
 3133 0130 06020000 		.4byte	0x206
 3134 0134 4C       		.byte	0x4c
 3135 0135 08       		.uleb128 0x8
 3136 0136 9F030000 		.4byte	.LASF26
 3137 013a 05       		.byte	0x5
 3138 013b 2E       		.byte	0x2e
 3139 013c 16020000 		.4byte	0x216
 3140 0140 51       		.byte	0x51
 3141 0141 08       		.uleb128 0x8
 3142 0142 38000000 		.4byte	.LASF27
 3143 0146 05       		.byte	0x5
 3144 0147 2F       		.byte	0x2f
 3145 0148 26020000 		.4byte	0x226
 3146 014c 83       		.byte	0x83
 3147 014d 08       		.uleb128 0x8
 3148 014e AB030000 		.4byte	.LASF28
 3149 0152 05       		.byte	0x5
 3150 0153 30       		.byte	0x30
 3151 0154 42020000 		.4byte	0x242
 3152 0158 FB       		.byte	0xfb
 3153 0159 09       		.uleb128 0x9
 3154 015a 97010000 		.4byte	.LASF29
 3155 015e 05       		.byte	0x5
 3156 015f 31       		.byte	0x31
 3157 0160 42020000 		.4byte	0x242
 3158 0164 0301     		.2byte	0x103
 3159 0166 09       		.uleb128 0x9
ARM GAS  C:\Users\Diego\AppData\Local\Temp\cc2hwaET.s 			page 70


 3160 0167 31030000 		.4byte	.LASF30
 3161 016b 05       		.byte	0x5
 3162 016c 32       		.byte	0x32
 3163 016d 52020000 		.4byte	0x252
 3164 0171 0B01     		.2byte	0x10b
 3165 0173 09       		.uleb128 0x9
 3166 0174 F6030000 		.4byte	.LASF31
 3167 0178 05       		.byte	0x5
 3168 0179 33       		.byte	0x33
 3169 017a 42020000 		.4byte	0x242
 3170 017e 2301     		.2byte	0x123
 3171 0180 09       		.uleb128 0x9
 3172 0181 2D000000 		.4byte	.LASF32
 3173 0185 05       		.byte	0x5
 3174 0186 34       		.byte	0x34
 3175 0187 81000000 		.4byte	0x81
 3176 018b 2B01     		.2byte	0x12b
 3177 018d 09       		.uleb128 0x9
 3178 018e DF030000 		.4byte	.LASF33
 3179 0192 05       		.byte	0x5
 3180 0193 35       		.byte	0x35
 3181 0194 81000000 		.4byte	0x81
 3182 0198 2C01     		.2byte	0x12c
 3183 019a 0A       		.uleb128 0xa
 3184 019b 6B6D00   		.ascii	"km\000"
 3185 019e 05       		.byte	0x5
 3186 019f 36       		.byte	0x36
 3187 01a0 68020000 		.4byte	0x268
 3188 01a4 2D01     		.2byte	0x12d
 3189 01a6 09       		.uleb128 0x9
 3190 01a7 4A010000 		.4byte	.LASF34
 3191 01ab 05       		.byte	0x5
 3192 01ac 37       		.byte	0x37
 3193 01ad 81000000 		.4byte	0x81
 3194 01b1 3401     		.2byte	0x134
 3195 01b3 00       		.byte	0
 3196 01b4 0B       		.uleb128 0xb
 3197 01b5 81000000 		.4byte	0x81
 3198 01b9 D0010000 		.4byte	0x1d0
 3199 01bd 0C       		.uleb128 0xc
 3200 01be C1000000 		.4byte	0xc1
 3201 01c2 03       		.byte	0x3
 3202 01c3 0C       		.uleb128 0xc
 3203 01c4 C1000000 		.4byte	0xc1
 3204 01c8 01       		.byte	0x1
 3205 01c9 0C       		.uleb128 0xc
 3206 01ca C1000000 		.4byte	0xc1
 3207 01ce 04       		.byte	0x4
 3208 01cf 00       		.byte	0
 3209 01d0 0B       		.uleb128 0xb
 3210 01d1 81000000 		.4byte	0x81
 3211 01d5 E6010000 		.4byte	0x1e6
 3212 01d9 0C       		.uleb128 0xc
 3213 01da C1000000 		.4byte	0xc1
 3214 01de 03       		.byte	0x3
 3215 01df 0C       		.uleb128 0xc
 3216 01e0 C1000000 		.4byte	0xc1
ARM GAS  C:\Users\Diego\AppData\Local\Temp\cc2hwaET.s 			page 71


 3217 01e4 02       		.byte	0x2
 3218 01e5 00       		.byte	0
 3219 01e6 0B       		.uleb128 0xb
 3220 01e7 81000000 		.4byte	0x81
 3221 01eb F6010000 		.4byte	0x1f6
 3222 01ef 0C       		.uleb128 0xc
 3223 01f0 C1000000 		.4byte	0xc1
 3224 01f4 03       		.byte	0x3
 3225 01f5 00       		.byte	0
 3226 01f6 0B       		.uleb128 0xb
 3227 01f7 81000000 		.4byte	0x81
 3228 01fb 06020000 		.4byte	0x206
 3229 01ff 0C       		.uleb128 0xc
 3230 0200 C1000000 		.4byte	0xc1
 3231 0204 0D       		.byte	0xd
 3232 0205 00       		.byte	0
 3233 0206 0B       		.uleb128 0xb
 3234 0207 81000000 		.4byte	0x81
 3235 020b 16020000 		.4byte	0x216
 3236 020f 0C       		.uleb128 0xc
 3237 0210 C1000000 		.4byte	0xc1
 3238 0214 04       		.byte	0x4
 3239 0215 00       		.byte	0
 3240 0216 0B       		.uleb128 0xb
 3241 0217 81000000 		.4byte	0x81
 3242 021b 26020000 		.4byte	0x226
 3243 021f 0C       		.uleb128 0xc
 3244 0220 C1000000 		.4byte	0xc1
 3245 0224 31       		.byte	0x31
 3246 0225 00       		.byte	0
 3247 0226 0B       		.uleb128 0xb
 3248 0227 A7000000 		.4byte	0xa7
 3249 022b 42020000 		.4byte	0x242
 3250 022f 0C       		.uleb128 0xc
 3251 0230 C1000000 		.4byte	0xc1
 3252 0234 03       		.byte	0x3
 3253 0235 0C       		.uleb128 0xc
 3254 0236 C1000000 		.4byte	0xc1
 3255 023a 02       		.byte	0x2
 3256 023b 0C       		.uleb128 0xc
 3257 023c C1000000 		.4byte	0xc1
 3258 0240 09       		.byte	0x9
 3259 0241 00       		.byte	0
 3260 0242 0B       		.uleb128 0xb
 3261 0243 81000000 		.4byte	0x81
 3262 0247 52020000 		.4byte	0x252
 3263 024b 0C       		.uleb128 0xc
 3264 024c C1000000 		.4byte	0xc1
 3265 0250 07       		.byte	0x7
 3266 0251 00       		.byte	0
 3267 0252 0B       		.uleb128 0xb
 3268 0253 81000000 		.4byte	0x81
 3269 0257 68020000 		.4byte	0x268
 3270 025b 0C       		.uleb128 0xc
 3271 025c C1000000 		.4byte	0xc1
 3272 0260 03       		.byte	0x3
 3273 0261 0C       		.uleb128 0xc
ARM GAS  C:\Users\Diego\AppData\Local\Temp\cc2hwaET.s 			page 72


 3274 0262 C1000000 		.4byte	0xc1
 3275 0266 05       		.byte	0x5
 3276 0267 00       		.byte	0
 3277 0268 0B       		.uleb128 0xb
 3278 0269 81000000 		.4byte	0x81
 3279 026d 78020000 		.4byte	0x278
 3280 0271 0C       		.uleb128 0xc
 3281 0272 C1000000 		.4byte	0xc1
 3282 0276 06       		.byte	0x6
 3283 0277 00       		.byte	0
 3284 0278 06       		.uleb128 0x6
 3285 0279 09030000 		.4byte	.LASF36
 3286 027d D404     		.2byte	0x4d4
 3287 027f 05       		.byte	0x5
 3288 0280 3A       		.byte	0x3a
 3289 0281 B1020000 		.4byte	0x2b1
 3290 0285 07       		.uleb128 0x7
 3291 0286 6100     		.ascii	"a\000"
 3292 0288 05       		.byte	0x5
 3293 0289 3B       		.byte	0x3b
 3294 028a C8000000 		.4byte	0xc8
 3295 028e 00       		.byte	0
 3296 028f 0A       		.uleb128 0xa
 3297 0290 6200     		.ascii	"b\000"
 3298 0292 05       		.byte	0x5
 3299 0293 3C       		.byte	0x3c
 3300 0294 C8000000 		.4byte	0xc8
 3301 0298 3501     		.2byte	0x135
 3302 029a 0A       		.uleb128 0xa
 3303 029b 6300     		.ascii	"c\000"
 3304 029d 05       		.byte	0x5
 3305 029e 3D       		.byte	0x3d
 3306 029f C8000000 		.4byte	0xc8
 3307 02a3 6A02     		.2byte	0x26a
 3308 02a5 0A       		.uleb128 0xa
 3309 02a6 6400     		.ascii	"d\000"
 3310 02a8 05       		.byte	0x5
 3311 02a9 3E       		.byte	0x3e
 3312 02aa C8000000 		.4byte	0xc8
 3313 02ae 9F03     		.2byte	0x39f
 3314 02b0 00       		.byte	0
 3315 02b1 0D       		.uleb128 0xd
 3316 02b2 06000000 		.4byte	.LASF77
 3317 02b6 01       		.byte	0x1
 3318 02b7 2C000000 		.4byte	0x2c
 3319 02bb 05       		.byte	0x5
 3320 02bc 43       		.byte	0x43
 3321 02bd D4020000 		.4byte	0x2d4
 3322 02c1 0E       		.uleb128 0xe
 3323 02c2 D2030000 		.4byte	.LASF37
 3324 02c6 00       		.byte	0
 3325 02c7 0E       		.uleb128 0xe
 3326 02c8 BD010000 		.4byte	.LASF38
 3327 02cc 06       		.byte	0x6
 3328 02cd 0E       		.uleb128 0xe
 3329 02ce 1C000000 		.4byte	.LASF39
 3330 02d2 04       		.byte	0x4
ARM GAS  C:\Users\Diego\AppData\Local\Temp\cc2hwaET.s 			page 73


 3331 02d3 00       		.byte	0
 3332 02d4 0F       		.uleb128 0xf
 3333 02d5 CE010000 		.4byte	.LASF40
 3334 02d9 01       		.byte	0x1
 3335 02da 35       		.byte	0x35
 3336 02db 00000000 		.4byte	.LFB63
 3337 02df AC000000 		.4byte	.LFE63-.LFB63
 3338 02e3 01       		.uleb128 0x1
 3339 02e4 9C       		.byte	0x9c
 3340 02e5 F3020000 		.4byte	0x2f3
 3341 02e9 10       		.uleb128 0x10
 3342 02ea 7800     		.ascii	"x\000"
 3343 02ec 01       		.byte	0x1
 3344 02ed 36       		.byte	0x36
 3345 02ee 81000000 		.4byte	0x81
 3346 02f2 00       		.byte	0
 3347 02f3 11       		.uleb128 0x11
 3348 02f4 6F000000 		.4byte	.LASF41
 3349 02f8 01       		.byte	0x1
 3350 02f9 87       		.byte	0x87
 3351 02fa 68000000 		.4byte	0x68
 3352 02fe 00000000 		.4byte	.LFB64
 3353 0302 AC140000 		.4byte	.LFE64-.LFB64
 3354 0306 01       		.uleb128 0x1
 3355 0307 9C       		.byte	0x9c
 3356 0308 00090000 		.4byte	0x900
 3357 030c 12       		.uleb128 0x12
 3358 030d 7800     		.ascii	"x\000"
 3359 030f 01       		.byte	0x1
 3360 0310 8A       		.byte	0x8a
 3361 0311 81000000 		.4byte	0x81
 3362 0315 02       		.uleb128 0x2
 3363 0316 91       		.byte	0x91
 3364 0317 6F       		.sleb128 -17
 3365 0318 13       		.uleb128 0x13
 3366 0319 AF020000 		.4byte	.LASF42
 3367 031d 01       		.byte	0x1
 3368 031e 8A       		.byte	0x8a
 3369 031f 81000000 		.4byte	0x81
 3370 0323 03       		.uleb128 0x3
 3371 0324 91       		.byte	0x91
 3372 0325 BB7F     		.sleb128 -69
 3373 0327 13       		.uleb128 0x13
 3374 0328 B2010000 		.4byte	.LASF43
 3375 032c 01       		.byte	0x1
 3376 032d 8A       		.byte	0x8a
 3377 032e 81000000 		.4byte	0x81
 3378 0332 02       		.uleb128 0x2
 3379 0333 91       		.byte	0x91
 3380 0334 6E       		.sleb128 -18
 3381 0335 12       		.uleb128 0x12
 3382 0336 7900     		.ascii	"y\000"
 3383 0338 01       		.byte	0x1
 3384 0339 8A       		.byte	0x8a
 3385 033a 81000000 		.4byte	0x81
 3386 033e 02       		.uleb128 0x2
 3387 033f 91       		.byte	0x91
ARM GAS  C:\Users\Diego\AppData\Local\Temp\cc2hwaET.s 			page 74


 3388 0340 6D       		.sleb128 -19
 3389 0341 14       		.uleb128 0x14
 3390 0342 48000000 		.4byte	.LASF44
 3391 0346 01       		.byte	0x1
 3392 0347 8A       		.byte	0x8a
 3393 0348 81000000 		.4byte	0x81
 3394 034c 13       		.uleb128 0x13
 3395 034d 6B010000 		.4byte	.LASF45
 3396 0351 01       		.byte	0x1
 3397 0352 8B       		.byte	0x8b
 3398 0353 E6010000 		.4byte	0x1e6
 3399 0357 03       		.uleb128 0x3
 3400 0358 91       		.byte	0x91
 3401 0359 B47F     		.sleb128 -76
 3402 035b 13       		.uleb128 0x13
 3403 035c F1020000 		.4byte	.LASF46
 3404 0360 01       		.byte	0x1
 3405 0361 8C       		.byte	0x8c
 3406 0362 68020000 		.4byte	0x268
 3407 0366 03       		.uleb128 0x3
 3408 0367 91       		.byte	0x91
 3409 0368 AC7F     		.sleb128 -84
 3410 036a 13       		.uleb128 0x13
 3411 036b DD020000 		.4byte	.LASF47
 3412 036f 01       		.byte	0x1
 3413 0370 8D       		.byte	0x8d
 3414 0371 68020000 		.4byte	0x268
 3415 0375 03       		.uleb128 0x3
 3416 0376 91       		.byte	0x91
 3417 0377 A47F     		.sleb128 -92
 3418 0379 13       		.uleb128 0x13
 3419 037a FC020000 		.4byte	.LASF48
 3420 037e 01       		.byte	0x1
 3421 037f 8E       		.byte	0x8e
 3422 0380 81000000 		.4byte	0x81
 3423 0384 02       		.uleb128 0x2
 3424 0385 91       		.byte	0x91
 3425 0386 6C       		.sleb128 -20
 3426 0387 13       		.uleb128 0x13
 3427 0388 E6030000 		.4byte	.LASF49
 3428 038c 01       		.byte	0x1
 3429 038d 8F       		.byte	0x8f
 3430 038e 06020000 		.4byte	0x206
 3431 0392 03       		.uleb128 0x3
 3432 0393 91       		.byte	0x91
 3433 0394 9C7F     		.sleb128 -100
 3434 0396 15       		.uleb128 0x15
 3435 0397 32020000 		.4byte	.LBB2
 3436 039b 30000000 		.4byte	.LBE2-.LBB2
 3437 039f B0030000 		.4byte	0x3b0
 3438 03a3 12       		.uleb128 0x12
 3439 03a4 7900     		.ascii	"y\000"
 3440 03a6 01       		.byte	0x1
 3441 03a7 D0       		.byte	0xd0
 3442 03a8 81000000 		.4byte	0x81
 3443 03ac 02       		.uleb128 0x2
 3444 03ad 91       		.byte	0x91
ARM GAS  C:\Users\Diego\AppData\Local\Temp\cc2hwaET.s 			page 75


 3445 03ae 6B       		.sleb128 -21
 3446 03af 00       		.byte	0
 3447 03b0 15       		.uleb128 0x15
 3448 03b1 AA020000 		.4byte	.LBB3
 3449 03b5 2E000000 		.4byte	.LBE3-.LBB3
 3450 03b9 CC030000 		.4byte	0x3cc
 3451 03bd 13       		.uleb128 0x13
 3452 03be A1020000 		.4byte	.LASF50
 3453 03c2 01       		.byte	0x1
 3454 03c3 E4       		.byte	0xe4
 3455 03c4 81000000 		.4byte	0x81
 3456 03c8 02       		.uleb128 0x2
 3457 03c9 91       		.byte	0x91
 3458 03ca 6A       		.sleb128 -22
 3459 03cb 00       		.byte	0
 3460 03cc 15       		.uleb128 0x15
 3461 03cd 8C030000 		.4byte	.LBB4
 3462 03d1 24000000 		.4byte	.LBE4-.LBB4
 3463 03d5 E8030000 		.4byte	0x3e8
 3464 03d9 13       		.uleb128 0x13
 3465 03da A1020000 		.4byte	.LASF50
 3466 03de 01       		.byte	0x1
 3467 03df F2       		.byte	0xf2
 3468 03e0 81000000 		.4byte	0x81
 3469 03e4 02       		.uleb128 0x2
 3470 03e5 91       		.byte	0x91
 3471 03e6 69       		.sleb128 -23
 3472 03e7 00       		.byte	0
 3473 03e8 15       		.uleb128 0x15
 3474 03e9 BA030000 		.4byte	.LBB5
 3475 03ed 24000000 		.4byte	.LBE5-.LBB5
 3476 03f1 04040000 		.4byte	0x404
 3477 03f5 13       		.uleb128 0x13
 3478 03f6 A1020000 		.4byte	.LASF50
 3479 03fa 01       		.byte	0x1
 3480 03fb F8       		.byte	0xf8
 3481 03fc 81000000 		.4byte	0x81
 3482 0400 02       		.uleb128 0x2
 3483 0401 91       		.byte	0x91
 3484 0402 68       		.sleb128 -24
 3485 0403 00       		.byte	0
 3486 0404 15       		.uleb128 0x15
 3487 0405 E8030000 		.4byte	.LBB6
 3488 0409 24000000 		.4byte	.LBE6-.LBB6
 3489 040d 20040000 		.4byte	0x420
 3490 0411 13       		.uleb128 0x13
 3491 0412 A1020000 		.4byte	.LASF50
 3492 0416 01       		.byte	0x1
 3493 0417 FE       		.byte	0xfe
 3494 0418 81000000 		.4byte	0x81
 3495 041c 02       		.uleb128 0x2
 3496 041d 91       		.byte	0x91
 3497 041e 67       		.sleb128 -25
 3498 041f 00       		.byte	0
 3499 0420 15       		.uleb128 0x15
 3500 0421 28040000 		.4byte	.LBB7
 3501 0425 24000000 		.4byte	.LBE7-.LBB7
ARM GAS  C:\Users\Diego\AppData\Local\Temp\cc2hwaET.s 			page 76


 3502 0429 3D040000 		.4byte	0x43d
 3503 042d 16       		.uleb128 0x16
 3504 042e A1020000 		.4byte	.LASF50
 3505 0432 01       		.byte	0x1
 3506 0433 0701     		.2byte	0x107
 3507 0435 81000000 		.4byte	0x81
 3508 0439 02       		.uleb128 0x2
 3509 043a 91       		.byte	0x91
 3510 043b 66       		.sleb128 -26
 3511 043c 00       		.byte	0
 3512 043d 15       		.uleb128 0x15
 3513 043e 7E040000 		.4byte	.LBB8
 3514 0442 24000000 		.4byte	.LBE8-.LBB8
 3515 0446 5A040000 		.4byte	0x45a
 3516 044a 16       		.uleb128 0x16
 3517 044b A1020000 		.4byte	.LASF50
 3518 044f 01       		.byte	0x1
 3519 0450 1001     		.2byte	0x110
 3520 0452 81000000 		.4byte	0x81
 3521 0456 02       		.uleb128 0x2
 3522 0457 91       		.byte	0x91
 3523 0458 65       		.sleb128 -27
 3524 0459 00       		.byte	0
 3525 045a 15       		.uleb128 0x15
 3526 045b D6040000 		.4byte	.LBB9
 3527 045f 24000000 		.4byte	.LBE9-.LBB9
 3528 0463 77040000 		.4byte	0x477
 3529 0467 16       		.uleb128 0x16
 3530 0468 A1020000 		.4byte	.LASF50
 3531 046c 01       		.byte	0x1
 3532 046d 1901     		.2byte	0x119
 3533 046f 81000000 		.4byte	0x81
 3534 0473 02       		.uleb128 0x2
 3535 0474 91       		.byte	0x91
 3536 0475 64       		.sleb128 -28
 3537 0476 00       		.byte	0
 3538 0477 15       		.uleb128 0x15
 3539 0478 FA040000 		.4byte	.LBB10
 3540 047c 28000000 		.4byte	.LBE10-.LBB10
 3541 0480 94040000 		.4byte	0x494
 3542 0484 16       		.uleb128 0x16
 3543 0485 A1020000 		.4byte	.LASF50
 3544 0489 01       		.byte	0x1
 3545 048a 1C01     		.2byte	0x11c
 3546 048c 81000000 		.4byte	0x81
 3547 0490 02       		.uleb128 0x2
 3548 0491 91       		.byte	0x91
 3549 0492 63       		.sleb128 -29
 3550 0493 00       		.byte	0
 3551 0494 15       		.uleb128 0x15
 3552 0495 22050000 		.4byte	.LBB11
 3553 0499 28000000 		.4byte	.LBE11-.LBB11
 3554 049d B1040000 		.4byte	0x4b1
 3555 04a1 16       		.uleb128 0x16
 3556 04a2 A1020000 		.4byte	.LASF50
 3557 04a6 01       		.byte	0x1
 3558 04a7 1F01     		.2byte	0x11f
ARM GAS  C:\Users\Diego\AppData\Local\Temp\cc2hwaET.s 			page 77


 3559 04a9 81000000 		.4byte	0x81
 3560 04ad 02       		.uleb128 0x2
 3561 04ae 91       		.byte	0x91
 3562 04af 62       		.sleb128 -30
 3563 04b0 00       		.byte	0
 3564 04b1 15       		.uleb128 0x15
 3565 04b2 68050000 		.4byte	.LBB12
 3566 04b6 24000000 		.4byte	.LBE12-.LBB12
 3567 04ba CE040000 		.4byte	0x4ce
 3568 04be 16       		.uleb128 0x16
 3569 04bf A1020000 		.4byte	.LASF50
 3570 04c3 01       		.byte	0x1
 3571 04c4 2901     		.2byte	0x129
 3572 04c6 81000000 		.4byte	0x81
 3573 04ca 02       		.uleb128 0x2
 3574 04cb 91       		.byte	0x91
 3575 04cc 61       		.sleb128 -31
 3576 04cd 00       		.byte	0
 3577 04ce 15       		.uleb128 0x15
 3578 04cf FE050000 		.4byte	.LBB13
 3579 04d3 24000000 		.4byte	.LBE13-.LBB13
 3580 04d7 EB040000 		.4byte	0x4eb
 3581 04db 16       		.uleb128 0x16
 3582 04dc A1020000 		.4byte	.LASF50
 3583 04e0 01       		.byte	0x1
 3584 04e1 3801     		.2byte	0x138
 3585 04e3 81000000 		.4byte	0x81
 3586 04e7 02       		.uleb128 0x2
 3587 04e8 91       		.byte	0x91
 3588 04e9 60       		.sleb128 -32
 3589 04ea 00       		.byte	0
 3590 04eb 15       		.uleb128 0x15
 3591 04ec 22060000 		.4byte	.LBB14
 3592 04f0 28000000 		.4byte	.LBE14-.LBB14
 3593 04f4 08050000 		.4byte	0x508
 3594 04f8 16       		.uleb128 0x16
 3595 04f9 A1020000 		.4byte	.LASF50
 3596 04fd 01       		.byte	0x1
 3597 04fe 3B01     		.2byte	0x13b
 3598 0500 81000000 		.4byte	0x81
 3599 0504 02       		.uleb128 0x2
 3600 0505 91       		.byte	0x91
 3601 0506 5F       		.sleb128 -33
 3602 0507 00       		.byte	0
 3603 0508 15       		.uleb128 0x15
 3604 0509 4A060000 		.4byte	.LBB15
 3605 050d 28000000 		.4byte	.LBE15-.LBB15
 3606 0511 25050000 		.4byte	0x525
 3607 0515 16       		.uleb128 0x16
 3608 0516 A1020000 		.4byte	.LASF50
 3609 051a 01       		.byte	0x1
 3610 051b 3E01     		.2byte	0x13e
 3611 051d 81000000 		.4byte	0x81
 3612 0521 02       		.uleb128 0x2
 3613 0522 91       		.byte	0x91
 3614 0523 5E       		.sleb128 -34
 3615 0524 00       		.byte	0
ARM GAS  C:\Users\Diego\AppData\Local\Temp\cc2hwaET.s 			page 78


 3616 0525 15       		.uleb128 0x15
 3617 0526 90060000 		.4byte	.LBB16
 3618 052a 30000000 		.4byte	.LBE16-.LBB16
 3619 052e 42050000 		.4byte	0x542
 3620 0532 16       		.uleb128 0x16
 3621 0533 A1020000 		.4byte	.LASF50
 3622 0537 01       		.byte	0x1
 3623 0538 4901     		.2byte	0x149
 3624 053a 81000000 		.4byte	0x81
 3625 053e 02       		.uleb128 0x2
 3626 053f 91       		.byte	0x91
 3627 0540 5D       		.sleb128 -35
 3628 0541 00       		.byte	0
 3629 0542 15       		.uleb128 0x15
 3630 0543 32070000 		.4byte	.LBB17
 3631 0547 24000000 		.4byte	.LBE17-.LBB17
 3632 054b 5F050000 		.4byte	0x55f
 3633 054f 16       		.uleb128 0x16
 3634 0550 A1020000 		.4byte	.LASF50
 3635 0554 01       		.byte	0x1
 3636 0555 5801     		.2byte	0x158
 3637 0557 81000000 		.4byte	0x81
 3638 055b 02       		.uleb128 0x2
 3639 055c 91       		.byte	0x91
 3640 055d 5C       		.sleb128 -36
 3641 055e 00       		.byte	0
 3642 055f 15       		.uleb128 0x15
 3643 0560 56070000 		.4byte	.LBB18
 3644 0564 28000000 		.4byte	.LBE18-.LBB18
 3645 0568 7C050000 		.4byte	0x57c
 3646 056c 16       		.uleb128 0x16
 3647 056d A1020000 		.4byte	.LASF50
 3648 0571 01       		.byte	0x1
 3649 0572 5B01     		.2byte	0x15b
 3650 0574 81000000 		.4byte	0x81
 3651 0578 02       		.uleb128 0x2
 3652 0579 91       		.byte	0x91
 3653 057a 5B       		.sleb128 -37
 3654 057b 00       		.byte	0
 3655 057c 15       		.uleb128 0x15
 3656 057d 7E070000 		.4byte	.LBB19
 3657 0581 28000000 		.4byte	.LBE19-.LBB19
 3658 0585 99050000 		.4byte	0x599
 3659 0589 16       		.uleb128 0x16
 3660 058a A1020000 		.4byte	.LASF50
 3661 058e 01       		.byte	0x1
 3662 058f 5E01     		.2byte	0x15e
 3663 0591 81000000 		.4byte	0x81
 3664 0595 02       		.uleb128 0x2
 3665 0596 91       		.byte	0x91
 3666 0597 5A       		.sleb128 -38
 3667 0598 00       		.byte	0
 3668 0599 15       		.uleb128 0x15
 3669 059a C4070000 		.4byte	.LBB20
 3670 059e 24000000 		.4byte	.LBE20-.LBB20
 3671 05a2 B6050000 		.4byte	0x5b6
 3672 05a6 16       		.uleb128 0x16
ARM GAS  C:\Users\Diego\AppData\Local\Temp\cc2hwaET.s 			page 79


 3673 05a7 A1020000 		.4byte	.LASF50
 3674 05ab 01       		.byte	0x1
 3675 05ac 6901     		.2byte	0x169
 3676 05ae 81000000 		.4byte	0x81
 3677 05b2 02       		.uleb128 0x2
 3678 05b3 91       		.byte	0x91
 3679 05b4 59       		.sleb128 -39
 3680 05b5 00       		.byte	0
 3681 05b6 15       		.uleb128 0x15
 3682 05b7 5A080000 		.4byte	.LBB21
 3683 05bb 24000000 		.4byte	.LBE21-.LBB21
 3684 05bf D3050000 		.4byte	0x5d3
 3685 05c3 16       		.uleb128 0x16
 3686 05c4 A1020000 		.4byte	.LASF50
 3687 05c8 01       		.byte	0x1
 3688 05c9 7801     		.2byte	0x178
 3689 05cb 81000000 		.4byte	0x81
 3690 05cf 02       		.uleb128 0x2
 3691 05d0 91       		.byte	0x91
 3692 05d1 58       		.sleb128 -40
 3693 05d2 00       		.byte	0
 3694 05d3 15       		.uleb128 0x15
 3695 05d4 7E080000 		.4byte	.LBB22
 3696 05d8 28000000 		.4byte	.LBE22-.LBB22
 3697 05dc F0050000 		.4byte	0x5f0
 3698 05e0 16       		.uleb128 0x16
 3699 05e1 A1020000 		.4byte	.LASF50
 3700 05e5 01       		.byte	0x1
 3701 05e6 7B01     		.2byte	0x17b
 3702 05e8 81000000 		.4byte	0x81
 3703 05ec 02       		.uleb128 0x2
 3704 05ed 91       		.byte	0x91
 3705 05ee 57       		.sleb128 -41
 3706 05ef 00       		.byte	0
 3707 05f0 15       		.uleb128 0x15
 3708 05f1 A6080000 		.4byte	.LBB23
 3709 05f5 28000000 		.4byte	.LBE23-.LBB23
 3710 05f9 0D060000 		.4byte	0x60d
 3711 05fd 16       		.uleb128 0x16
 3712 05fe A1020000 		.4byte	.LASF50
 3713 0602 01       		.byte	0x1
 3714 0603 7E01     		.2byte	0x17e
 3715 0605 81000000 		.4byte	0x81
 3716 0609 02       		.uleb128 0x2
 3717 060a 91       		.byte	0x91
 3718 060b 56       		.sleb128 -42
 3719 060c 00       		.byte	0
 3720 060d 15       		.uleb128 0x15
 3721 060e 92090000 		.4byte	.LBB24
 3722 0612 24000000 		.4byte	.LBE24-.LBB24
 3723 0616 2A060000 		.4byte	0x62a
 3724 061a 16       		.uleb128 0x16
 3725 061b A1020000 		.4byte	.LASF50
 3726 061f 01       		.byte	0x1
 3727 0620 9601     		.2byte	0x196
 3728 0622 81000000 		.4byte	0x81
 3729 0626 02       		.uleb128 0x2
ARM GAS  C:\Users\Diego\AppData\Local\Temp\cc2hwaET.s 			page 80


 3730 0627 91       		.byte	0x91
 3731 0628 55       		.sleb128 -43
 3732 0629 00       		.byte	0
 3733 062a 15       		.uleb128 0x15
 3734 062b 7A0A0000 		.4byte	.LBB25
 3735 062f 28000000 		.4byte	.LBE25-.LBB25
 3736 0633 47060000 		.4byte	0x647
 3737 0637 16       		.uleb128 0x16
 3738 0638 A1020000 		.4byte	.LASF50
 3739 063c 01       		.byte	0x1
 3740 063d C901     		.2byte	0x1c9
 3741 063f 81000000 		.4byte	0x81
 3742 0643 02       		.uleb128 0x2
 3743 0644 91       		.byte	0x91
 3744 0645 54       		.sleb128 -44
 3745 0646 00       		.byte	0
 3746 0647 15       		.uleb128 0x15
 3747 0648 B40A0000 		.4byte	.LBB26
 3748 064c 54000000 		.4byte	.LBE26-.LBB26
 3749 0650 64060000 		.4byte	0x664
 3750 0654 16       		.uleb128 0x16
 3751 0655 A1020000 		.4byte	.LASF50
 3752 0659 01       		.byte	0x1
 3753 065a CF01     		.2byte	0x1cf
 3754 065c 81000000 		.4byte	0x81
 3755 0660 02       		.uleb128 0x2
 3756 0661 91       		.byte	0x91
 3757 0662 53       		.sleb128 -45
 3758 0663 00       		.byte	0
 3759 0664 15       		.uleb128 0x15
 3760 0665 F80B0000 		.4byte	.LBB27
 3761 0669 24000000 		.4byte	.LBE27-.LBB27
 3762 066d 81060000 		.4byte	0x681
 3763 0671 16       		.uleb128 0x16
 3764 0672 A1020000 		.4byte	.LASF50
 3765 0676 01       		.byte	0x1
 3766 0677 E201     		.2byte	0x1e2
 3767 0679 81000000 		.4byte	0x81
 3768 067d 02       		.uleb128 0x2
 3769 067e 91       		.byte	0x91
 3770 067f 52       		.sleb128 -46
 3771 0680 00       		.byte	0
 3772 0681 15       		.uleb128 0x15
 3773 0682 800C0000 		.4byte	.LBB28
 3774 0686 2E000000 		.4byte	.LBE28-.LBB28
 3775 068a 9E060000 		.4byte	0x69e
 3776 068e 16       		.uleb128 0x16
 3777 068f A1020000 		.4byte	.LASF50
 3778 0693 01       		.byte	0x1
 3779 0694 ED01     		.2byte	0x1ed
 3780 0696 81000000 		.4byte	0x81
 3781 069a 02       		.uleb128 0x2
 3782 069b 91       		.byte	0x91
 3783 069c 51       		.sleb128 -47
 3784 069d 00       		.byte	0
 3785 069e 15       		.uleb128 0x15
 3786 069f D00C0000 		.4byte	.LBB29
ARM GAS  C:\Users\Diego\AppData\Local\Temp\cc2hwaET.s 			page 81


 3787 06a3 24000000 		.4byte	.LBE29-.LBB29
 3788 06a7 BB060000 		.4byte	0x6bb
 3789 06ab 16       		.uleb128 0x16
 3790 06ac A1020000 		.4byte	.LASF50
 3791 06b0 01       		.byte	0x1
 3792 06b1 F601     		.2byte	0x1f6
 3793 06b3 81000000 		.4byte	0x81
 3794 06b7 02       		.uleb128 0x2
 3795 06b8 91       		.byte	0x91
 3796 06b9 50       		.sleb128 -48
 3797 06ba 00       		.byte	0
 3798 06bb 15       		.uleb128 0x15
 3799 06bc 040D0000 		.4byte	.LBB30
 3800 06c0 56000000 		.4byte	.LBE30-.LBB30
 3801 06c4 D8060000 		.4byte	0x6d8
 3802 06c8 16       		.uleb128 0x16
 3803 06c9 A1020000 		.4byte	.LASF50
 3804 06cd 01       		.byte	0x1
 3805 06ce FB01     		.2byte	0x1fb
 3806 06d0 81000000 		.4byte	0x81
 3807 06d4 02       		.uleb128 0x2
 3808 06d5 91       		.byte	0x91
 3809 06d6 4F       		.sleb128 -49
 3810 06d7 00       		.byte	0
 3811 06d8 15       		.uleb128 0x15
 3812 06d9 5A0D0000 		.4byte	.LBB31
 3813 06dd 24000000 		.4byte	.LBE31-.LBB31
 3814 06e1 F5060000 		.4byte	0x6f5
 3815 06e5 16       		.uleb128 0x16
 3816 06e6 A1020000 		.4byte	.LASF50
 3817 06ea 01       		.byte	0x1
 3818 06eb 0002     		.2byte	0x200
 3819 06ed 81000000 		.4byte	0x81
 3820 06f1 02       		.uleb128 0x2
 3821 06f2 91       		.byte	0x91
 3822 06f3 4E       		.sleb128 -50
 3823 06f4 00       		.byte	0
 3824 06f5 15       		.uleb128 0x15
 3825 06f6 940D0000 		.4byte	.LBB32
 3826 06fa 4E000000 		.4byte	.LBE32-.LBB32
 3827 06fe 12070000 		.4byte	0x712
 3828 0702 16       		.uleb128 0x16
 3829 0703 A1020000 		.4byte	.LASF50
 3830 0707 01       		.byte	0x1
 3831 0708 0602     		.2byte	0x206
 3832 070a 81000000 		.4byte	0x81
 3833 070e 02       		.uleb128 0x2
 3834 070f 91       		.byte	0x91
 3835 0710 4D       		.sleb128 -51
 3836 0711 00       		.byte	0
 3837 0712 15       		.uleb128 0x15
 3838 0713 E20D0000 		.4byte	.LBB33
 3839 0717 24000000 		.4byte	.LBE33-.LBB33
 3840 071b 2F070000 		.4byte	0x72f
 3841 071f 16       		.uleb128 0x16
 3842 0720 A1020000 		.4byte	.LASF50
 3843 0724 01       		.byte	0x1
ARM GAS  C:\Users\Diego\AppData\Local\Temp\cc2hwaET.s 			page 82


 3844 0725 0C02     		.2byte	0x20c
 3845 0727 81000000 		.4byte	0x81
 3846 072b 02       		.uleb128 0x2
 3847 072c 91       		.byte	0x91
 3848 072d 4C       		.sleb128 -52
 3849 072e 00       		.byte	0
 3850 072f 15       		.uleb128 0x15
 3851 0730 940E0000 		.4byte	.LBB34
 3852 0734 4E000000 		.4byte	.LBE34-.LBB34
 3853 0738 4C070000 		.4byte	0x74c
 3854 073c 16       		.uleb128 0x16
 3855 073d A1020000 		.4byte	.LASF50
 3856 0741 01       		.byte	0x1
 3857 0742 1602     		.2byte	0x216
 3858 0744 81000000 		.4byte	0x81
 3859 0748 02       		.uleb128 0x2
 3860 0749 91       		.byte	0x91
 3861 074a 4B       		.sleb128 -53
 3862 074b 00       		.byte	0
 3863 074c 15       		.uleb128 0x15
 3864 074d E20E0000 		.4byte	.LBB35
 3865 0751 24000000 		.4byte	.LBE35-.LBB35
 3866 0755 69070000 		.4byte	0x769
 3867 0759 16       		.uleb128 0x16
 3868 075a A1020000 		.4byte	.LASF50
 3869 075e 01       		.byte	0x1
 3870 075f 1C02     		.2byte	0x21c
 3871 0761 81000000 		.4byte	0x81
 3872 0765 02       		.uleb128 0x2
 3873 0766 91       		.byte	0x91
 3874 0767 4A       		.sleb128 -54
 3875 0768 00       		.byte	0
 3876 0769 15       		.uleb128 0x15
 3877 076a 9C0F0000 		.4byte	.LBB36
 3878 076e 92000000 		.4byte	.LBE36-.LBB36
 3879 0772 86070000 		.4byte	0x786
 3880 0776 16       		.uleb128 0x16
 3881 0777 A1020000 		.4byte	.LASF50
 3882 077b 01       		.byte	0x1
 3883 077c 2702     		.2byte	0x227
 3884 077e 81000000 		.4byte	0x81
 3885 0782 02       		.uleb128 0x2
 3886 0783 91       		.byte	0x91
 3887 0784 49       		.sleb128 -55
 3888 0785 00       		.byte	0
 3889 0786 15       		.uleb128 0x15
 3890 0787 2E100000 		.4byte	.LBB37
 3891 078b 24000000 		.4byte	.LBE37-.LBB37
 3892 078f A3070000 		.4byte	0x7a3
 3893 0793 16       		.uleb128 0x16
 3894 0794 A1020000 		.4byte	.LASF50
 3895 0798 01       		.byte	0x1
 3896 0799 3002     		.2byte	0x230
 3897 079b 81000000 		.4byte	0x81
 3898 079f 02       		.uleb128 0x2
 3899 07a0 91       		.byte	0x91
 3900 07a1 48       		.sleb128 -56
ARM GAS  C:\Users\Diego\AppData\Local\Temp\cc2hwaET.s 			page 83


 3901 07a2 00       		.byte	0
 3902 07a3 15       		.uleb128 0x15
 3903 07a4 7A100000 		.4byte	.LBB38
 3904 07a8 4A000000 		.4byte	.LBE38-.LBB38
 3905 07ac C0070000 		.4byte	0x7c0
 3906 07b0 16       		.uleb128 0x16
 3907 07b1 A1020000 		.4byte	.LASF50
 3908 07b5 01       		.byte	0x1
 3909 07b6 3802     		.2byte	0x238
 3910 07b8 81000000 		.4byte	0x81
 3911 07bc 02       		.uleb128 0x2
 3912 07bd 91       		.byte	0x91
 3913 07be 47       		.sleb128 -57
 3914 07bf 00       		.byte	0
 3915 07c0 15       		.uleb128 0x15
 3916 07c1 C4100000 		.4byte	.LBB39
 3917 07c5 24000000 		.4byte	.LBE39-.LBB39
 3918 07c9 DD070000 		.4byte	0x7dd
 3919 07cd 16       		.uleb128 0x16
 3920 07ce A1020000 		.4byte	.LASF50
 3921 07d2 01       		.byte	0x1
 3922 07d3 3D02     		.2byte	0x23d
 3923 07d5 81000000 		.4byte	0x81
 3924 07d9 02       		.uleb128 0x2
 3925 07da 91       		.byte	0x91
 3926 07db 46       		.sleb128 -58
 3927 07dc 00       		.byte	0
 3928 07dd 15       		.uleb128 0x15
 3929 07de 04110000 		.4byte	.LBB40
 3930 07e2 80000000 		.4byte	.LBE40-.LBB40
 3931 07e6 FA070000 		.4byte	0x7fa
 3932 07ea 16       		.uleb128 0x16
 3933 07eb A1020000 		.4byte	.LASF50
 3934 07ef 01       		.byte	0x1
 3935 07f0 4402     		.2byte	0x244
 3936 07f2 81000000 		.4byte	0x81
 3937 07f6 02       		.uleb128 0x2
 3938 07f7 91       		.byte	0x91
 3939 07f8 45       		.sleb128 -59
 3940 07f9 00       		.byte	0
 3941 07fa 15       		.uleb128 0x15
 3942 07fb 84110000 		.4byte	.LBB41
 3943 07ff 24000000 		.4byte	.LBE41-.LBB41
 3944 0803 17080000 		.4byte	0x817
 3945 0807 16       		.uleb128 0x16
 3946 0808 A1020000 		.4byte	.LASF50
 3947 080c 01       		.byte	0x1
 3948 080d 4D02     		.2byte	0x24d
 3949 080f 81000000 		.4byte	0x81
 3950 0813 02       		.uleb128 0x2
 3951 0814 91       		.byte	0x91
 3952 0815 44       		.sleb128 -60
 3953 0816 00       		.byte	0
 3954 0817 15       		.uleb128 0x15
 3955 0818 D2110000 		.4byte	.LBB42
 3956 081c 4A000000 		.4byte	.LBE42-.LBB42
 3957 0820 34080000 		.4byte	0x834
ARM GAS  C:\Users\Diego\AppData\Local\Temp\cc2hwaET.s 			page 84


 3958 0824 16       		.uleb128 0x16
 3959 0825 A1020000 		.4byte	.LASF50
 3960 0829 01       		.byte	0x1
 3961 082a 5502     		.2byte	0x255
 3962 082c 81000000 		.4byte	0x81
 3963 0830 02       		.uleb128 0x2
 3964 0831 91       		.byte	0x91
 3965 0832 43       		.sleb128 -61
 3966 0833 00       		.byte	0
 3967 0834 15       		.uleb128 0x15
 3968 0835 1C120000 		.4byte	.LBB43
 3969 0839 24000000 		.4byte	.LBE43-.LBB43
 3970 083d 51080000 		.4byte	0x851
 3971 0841 16       		.uleb128 0x16
 3972 0842 A1020000 		.4byte	.LASF50
 3973 0846 01       		.byte	0x1
 3974 0847 5A02     		.2byte	0x25a
 3975 0849 81000000 		.4byte	0x81
 3976 084d 02       		.uleb128 0x2
 3977 084e 91       		.byte	0x91
 3978 084f 42       		.sleb128 -62
 3979 0850 00       		.byte	0
 3980 0851 15       		.uleb128 0x15
 3981 0852 5C120000 		.4byte	.LBB44
 3982 0856 80000000 		.4byte	.LBE44-.LBB44
 3983 085a 6E080000 		.4byte	0x86e
 3984 085e 16       		.uleb128 0x16
 3985 085f A1020000 		.4byte	.LASF50
 3986 0863 01       		.byte	0x1
 3987 0864 6102     		.2byte	0x261
 3988 0866 81000000 		.4byte	0x81
 3989 086a 02       		.uleb128 0x2
 3990 086b 91       		.byte	0x91
 3991 086c 41       		.sleb128 -63
 3992 086d 00       		.byte	0
 3993 086e 15       		.uleb128 0x15
 3994 086f DC120000 		.4byte	.LBB45
 3995 0873 2C000000 		.4byte	.LBE45-.LBB45
 3996 0877 8B080000 		.4byte	0x88b
 3997 087b 16       		.uleb128 0x16
 3998 087c A1020000 		.4byte	.LASF50
 3999 0880 01       		.byte	0x1
 4000 0881 6A02     		.2byte	0x26a
 4001 0883 81000000 		.4byte	0x81
 4002 0887 02       		.uleb128 0x2
 4003 0888 91       		.byte	0x91
 4004 0889 40       		.sleb128 -64
 4005 088a 00       		.byte	0
 4006 088b 15       		.uleb128 0x15
 4007 088c 32130000 		.4byte	.LBB46
 4008 0890 4A000000 		.4byte	.LBE46-.LBB46
 4009 0894 A9080000 		.4byte	0x8a9
 4010 0898 16       		.uleb128 0x16
 4011 0899 A1020000 		.4byte	.LASF50
 4012 089d 01       		.byte	0x1
 4013 089e 7202     		.2byte	0x272
 4014 08a0 81000000 		.4byte	0x81
ARM GAS  C:\Users\Diego\AppData\Local\Temp\cc2hwaET.s 			page 85


 4015 08a4 03       		.uleb128 0x3
 4016 08a5 91       		.byte	0x91
 4017 08a6 BF7F     		.sleb128 -65
 4018 08a8 00       		.byte	0
 4019 08a9 15       		.uleb128 0x15
 4020 08aa 7C130000 		.4byte	.LBB47
 4021 08ae 24000000 		.4byte	.LBE47-.LBB47
 4022 08b2 C7080000 		.4byte	0x8c7
 4023 08b6 16       		.uleb128 0x16
 4024 08b7 A1020000 		.4byte	.LASF50
 4025 08bb 01       		.byte	0x1
 4026 08bc 7702     		.2byte	0x277
 4027 08be 81000000 		.4byte	0x81
 4028 08c2 03       		.uleb128 0x3
 4029 08c3 91       		.byte	0x91
 4030 08c4 BE7F     		.sleb128 -66
 4031 08c6 00       		.byte	0
 4032 08c7 15       		.uleb128 0x15
 4033 08c8 BC130000 		.4byte	.LBB48
 4034 08cc 80000000 		.4byte	.LBE48-.LBB48
 4035 08d0 E5080000 		.4byte	0x8e5
 4036 08d4 16       		.uleb128 0x16
 4037 08d5 A1020000 		.4byte	.LASF50
 4038 08d9 01       		.byte	0x1
 4039 08da 7E02     		.2byte	0x27e
 4040 08dc 81000000 		.4byte	0x81
 4041 08e0 03       		.uleb128 0x3
 4042 08e1 91       		.byte	0x91
 4043 08e2 BD7F     		.sleb128 -67
 4044 08e4 00       		.byte	0
 4045 08e5 17       		.uleb128 0x17
 4046 08e6 3C140000 		.4byte	.LBB49
 4047 08ea 24000000 		.4byte	.LBE49-.LBB49
 4048 08ee 16       		.uleb128 0x16
 4049 08ef A1020000 		.4byte	.LASF50
 4050 08f3 01       		.byte	0x1
 4051 08f4 8702     		.2byte	0x287
 4052 08f6 81000000 		.4byte	0x81
 4053 08fa 03       		.uleb128 0x3
 4054 08fb 91       		.byte	0x91
 4055 08fc BC7F     		.sleb128 -68
 4056 08fe 00       		.byte	0
 4057 08ff 00       		.byte	0
 4058 0900 18       		.uleb128 0x18
 4059 0901 6D030000 		.4byte	.LASF51
 4060 0905 06       		.byte	0x6
 4061 0906 1207     		.2byte	0x712
 4062 0908 0C090000 		.4byte	0x90c
 4063 090c 19       		.uleb128 0x19
 4064 090d 76000000 		.4byte	0x76
 4065 0911 1A       		.uleb128 0x1a
 4066 0912 58010000 		.4byte	.LASF52
 4067 0916 05       		.byte	0x5
 4068 0917 10       		.byte	0x10
 4069 0918 8D000000 		.4byte	0x8d
 4070 091c 05       		.uleb128 0x5
 4071 091d 03       		.byte	0x3
ARM GAS  C:\Users\Diego\AppData\Local\Temp\cc2hwaET.s 			page 86


 4072 091e 00000000 		.4byte	PollCounter
 4073 0922 1A       		.uleb128 0x1a
 4074 0923 23020000 		.4byte	.LASF53
 4075 0927 05       		.byte	0x5
 4076 0928 11       		.byte	0x11
 4077 0929 81000000 		.4byte	0x81
 4078 092d 05       		.uleb128 0x5
 4079 092e 03       		.byte	0x3
 4080 092f 00000000 		.4byte	CurrentState
 4081 0933 1A       		.uleb128 0x1a
 4082 0934 C5030000 		.4byte	.LASF54
 4083 0938 05       		.byte	0x5
 4084 0939 12       		.byte	0x12
 4085 093a 81000000 		.4byte	0x81
 4086 093e 05       		.uleb128 0x5
 4087 093f 03       		.byte	0x3
 4088 0940 00000000 		.4byte	Receipt
 4089 0944 0B       		.uleb128 0xb
 4090 0945 81000000 		.4byte	0x81
 4091 0949 54090000 		.4byte	0x954
 4092 094d 0C       		.uleb128 0xc
 4093 094e C1000000 		.4byte	0xc1
 4094 0952 05       		.byte	0x5
 4095 0953 00       		.byte	0
 4096 0954 1A       		.uleb128 0x1a
 4097 0955 18030000 		.4byte	.LASF55
 4098 0959 05       		.byte	0x5
 4099 095a 13       		.byte	0x13
 4100 095b 44090000 		.4byte	0x944
 4101 095f 05       		.uleb128 0x5
 4102 0960 03       		.byte	0x3
 4103 0961 00000000 		.4byte	sale_number
 4104 0965 1A       		.uleb128 0x1a
 4105 0966 08010000 		.4byte	.LASF56
 4106 096a 05       		.byte	0x5
 4107 096b 14       		.byte	0x14
 4108 096c 44090000 		.4byte	0x944
 4109 0970 05       		.uleb128 0x5
 4110 0971 03       		.byte	0x3
 4111 0972 00000000 		.4byte	sale_number_copy
 4112 0976 1A       		.uleb128 0x1a
 4113 0977 0E030000 		.4byte	.LASF57
 4114 097b 05       		.byte	0x5
 4115 097c 15       		.byte	0x15
 4116 097d 44090000 		.4byte	0x944
 4117 0981 05       		.uleb128 0x5
 4118 0982 03       		.byte	0x3
 4119 0983 00000000 		.4byte	hour_copy
 4120 0987 1A       		.uleb128 0x1a
 4121 0988 7A030000 		.4byte	.LASF58
 4122 098c 05       		.byte	0x5
 4123 098d 16       		.byte	0x16
 4124 098e 44090000 		.4byte	0x944
 4125 0992 05       		.uleb128 0x5
 4126 0993 03       		.byte	0x3
 4127 0994 00000000 		.4byte	date_copy
 4128 0998 1A       		.uleb128 0x1a
ARM GAS  C:\Users\Diego\AppData\Local\Temp\cc2hwaET.s 			page 87


 4129 0999 60000000 		.4byte	.LASF59
 4130 099d 05       		.byte	0x5
 4131 099e 17       		.byte	0x17
 4132 099f 81000000 		.4byte	0x81
 4133 09a3 05       		.uleb128 0x5
 4134 09a4 03       		.byte	0x3
 4135 09a5 00000000 		.4byte	int_salenumber
 4136 09a9 1A       		.uleb128 0x1a
 4137 09aa 30020000 		.4byte	.LASF60
 4138 09ae 05       		.byte	0x5
 4139 09af 18       		.byte	0x18
 4140 09b0 44090000 		.4byte	0x944
 4141 09b4 05       		.uleb128 0x5
 4142 09b5 03       		.byte	0x3
 4143 09b6 00000000 		.4byte	shift_number
 4144 09ba 1A       		.uleb128 0x1a
 4145 09bb 3A010000 		.4byte	.LASF61
 4146 09bf 05       		.byte	0x5
 4147 09c0 19       		.byte	0x19
 4148 09c1 81000000 		.4byte	0x81
 4149 09c5 05       		.uleb128 0x5
 4150 09c6 03       		.byte	0x3
 4151 09c7 00000000 		.4byte	int_shiftnumber
 4152 09cb 1A       		.uleb128 0x1a
 4153 09cc 86010000 		.4byte	.LASF62
 4154 09d0 05       		.byte	0x5
 4155 09d1 1A       		.byte	0x1a
 4156 09d2 81000000 		.4byte	0x81
 4157 09d6 05       		.uleb128 0x5
 4158 09d7 03       		.byte	0x3
 4159 09d8 00000000 		.4byte	LCDhose
 4160 09dc 1A       		.uleb128 0x1a
 4161 09dd CD030000 		.4byte	.LASF63
 4162 09e1 05       		.byte	0x5
 4163 09e2 41       		.byte	0x41
 4164 09e3 78020000 		.4byte	0x278
 4165 09e7 05       		.uleb128 0x5
 4166 09e8 03       		.byte	0x3
 4167 09e9 00000000 		.4byte	side
 4168 09ed 1A       		.uleb128 0x1a
 4169 09ee 5E030000 		.4byte	.LASF64
 4170 09f2 05       		.byte	0x5
 4171 09f3 4A       		.byte	0x4a
 4172 09f4 16020000 		.4byte	0x216
 4173 09f8 05       		.uleb128 0x5
 4174 09f9 03       		.byte	0x3
 4175 09fa 00000000 		.4byte	MepsanResponse
 4176 09fe 1A       		.uleb128 0x1a
 4177 09ff E4010000 		.4byte	.LASF65
 4178 0a03 05       		.byte	0x5
 4179 0a04 4B       		.byte	0x4b
 4180 0a05 16020000 		.4byte	0x216
 4181 0a09 05       		.uleb128 0x5
 4182 0a0a 03       		.byte	0x3
 4183 0a0b 00000000 		.4byte	MepsanSendTo
 4184 0a0f 0B       		.uleb128 0xb
 4185 0a10 81000000 		.4byte	0x81
ARM GAS  C:\Users\Diego\AppData\Local\Temp\cc2hwaET.s 			page 88


 4186 0a14 1F0A0000 		.4byte	0xa1f
 4187 0a18 0C       		.uleb128 0xc
 4188 0a19 C1000000 		.4byte	0xc1
 4189 0a1d 0E       		.byte	0xe
 4190 0a1e 00       		.byte	0
 4191 0a1f 1A       		.uleb128 0x1a
 4192 0a20 09020000 		.4byte	.LASF66
 4193 0a24 05       		.byte	0x5
 4194 0a25 4C       		.byte	0x4c
 4195 0a26 0F0A0000 		.4byte	0xa0f
 4196 0a2a 05       		.uleb128 0x5
 4197 0a2b 03       		.byte	0x3
 4198 0a2c 00000000 		.4byte	PumpAddress
 4199 0a30 1B       		.uleb128 0x1b
 4200 0a31 43524300 		.ascii	"CRC\000"
 4201 0a35 05       		.byte	0x5
 4202 0a36 4D       		.byte	0x4d
 4203 0a37 8D000000 		.4byte	0x8d
 4204 0a3b 05       		.uleb128 0x5
 4205 0a3c 03       		.byte	0x3
 4206 0a3d 00000000 		.4byte	CRC
 4207 0a41 1A       		.uleb128 0x1a
 4208 0a42 15000000 		.4byte	.LASF67
 4209 0a46 05       		.byte	0x5
 4210 0a47 4E       		.byte	0x4e
 4211 0a48 81000000 		.4byte	0x81
 4212 0a4c 05       		.uleb128 0x5
 4213 0a4d 03       		.byte	0x3
 4214 0a4e 00000000 		.4byte	crc_lo
 4215 0a52 1A       		.uleb128 0x1a
 4216 0a53 EF030000 		.4byte	.LASF68
 4217 0a57 05       		.byte	0x5
 4218 0a58 4E       		.byte	0x4e
 4219 0a59 81000000 		.4byte	0x81
 4220 0a5d 05       		.uleb128 0x5
 4221 0a5e 03       		.byte	0x3
 4222 0a5f 00000000 		.4byte	crc_hi
 4223 0a63 1A       		.uleb128 0x1a
 4224 0a64 19010000 		.4byte	.LASF69
 4225 0a68 05       		.byte	0x5
 4226 0a69 4F       		.byte	0x4f
 4227 0a6a 81000000 		.4byte	0x81
 4228 0a6e 05       		.uleb128 0x5
 4229 0a6f 03       		.byte	0x3
 4230 0a70 00000000 		.4byte	Positions
 4231 0a74 1A       		.uleb128 0x1a
 4232 0a75 8E030000 		.4byte	.LASF70
 4233 0a79 05       		.byte	0x5
 4234 0a7a 50       		.byte	0x50
 4235 0a7b 81000000 		.4byte	0x81
 4236 0a7f 05       		.uleb128 0x5
 4237 0a80 03       		.byte	0x3
 4238 0a81 00000000 		.4byte	TotalRequestType
 4239 0a85 1A       		.uleb128 0x1a
 4240 0a86 64010000 		.4byte	.LASF71
 4241 0a8a 05       		.byte	0x5
 4242 0a8b 51       		.byte	0x51
ARM GAS  C:\Users\Diego\AppData\Local\Temp\cc2hwaET.s 			page 89


 4243 0a8c 81000000 		.4byte	0x81
 4244 0a90 05       		.uleb128 0x5
 4245 0a91 03       		.byte	0x3
 4246 0a92 00000000 		.4byte	DecVol
 4247 0a96 0B       		.uleb128 0xb
 4248 0a97 81000000 		.4byte	0x81
 4249 0a9b A60A0000 		.4byte	0xaa6
 4250 0a9f 0C       		.uleb128 0xc
 4251 0aa0 C1000000 		.4byte	0xc1
 4252 0aa4 13       		.byte	0x13
 4253 0aa5 00       		.byte	0
 4254 0aa6 1A       		.uleb128 0x1a
 4255 0aa7 57030000 		.4byte	.LASF72
 4256 0aab 05       		.byte	0x5
 4257 0aac 5A       		.byte	0x5a
 4258 0aad 960A0000 		.4byte	0xa96
 4259 0ab1 05       		.uleb128 0x5
 4260 0ab2 03       		.byte	0x3
 4261 0ab3 00000000 		.4byte	touch1
 4262 0ab7 1A       		.uleb128 0x1a
 4263 0ab8 AB010000 		.4byte	.LASF73
 4264 0abc 05       		.byte	0x5
 4265 0abd 63       		.byte	0x63
 4266 0abe 81000000 		.4byte	0x81
 4267 0ac2 05       		.uleb128 0x5
 4268 0ac3 03       		.byte	0x3
 4269 0ac4 00000000 		.4byte	dirGbr
 4270 0ac8 00       		.byte	0
 4271              		.section	.debug_abbrev,"",%progbits
 4272              	.Ldebug_abbrev0:
 4273 0000 01       		.uleb128 0x1
 4274 0001 11       		.uleb128 0x11
 4275 0002 01       		.byte	0x1
 4276 0003 25       		.uleb128 0x25
 4277 0004 0E       		.uleb128 0xe
 4278 0005 13       		.uleb128 0x13
 4279 0006 0B       		.uleb128 0xb
 4280 0007 03       		.uleb128 0x3
 4281 0008 0E       		.uleb128 0xe
 4282 0009 1B       		.uleb128 0x1b
 4283 000a 0E       		.uleb128 0xe
 4284 000b 55       		.uleb128 0x55
 4285 000c 17       		.uleb128 0x17
 4286 000d 11       		.uleb128 0x11
 4287 000e 01       		.uleb128 0x1
 4288 000f 10       		.uleb128 0x10
 4289 0010 17       		.uleb128 0x17
 4290 0011 00       		.byte	0
 4291 0012 00       		.byte	0
 4292 0013 02       		.uleb128 0x2
 4293 0014 24       		.uleb128 0x24
 4294 0015 00       		.byte	0
 4295 0016 0B       		.uleb128 0xb
 4296 0017 0B       		.uleb128 0xb
 4297 0018 3E       		.uleb128 0x3e
 4298 0019 0B       		.uleb128 0xb
 4299 001a 03       		.uleb128 0x3
ARM GAS  C:\Users\Diego\AppData\Local\Temp\cc2hwaET.s 			page 90


 4300 001b 0E       		.uleb128 0xe
 4301 001c 00       		.byte	0
 4302 001d 00       		.byte	0
 4303 001e 03       		.uleb128 0x3
 4304 001f 16       		.uleb128 0x16
 4305 0020 00       		.byte	0
 4306 0021 03       		.uleb128 0x3
 4307 0022 0E       		.uleb128 0xe
 4308 0023 3A       		.uleb128 0x3a
 4309 0024 0B       		.uleb128 0xb
 4310 0025 3B       		.uleb128 0x3b
 4311 0026 0B       		.uleb128 0xb
 4312 0027 49       		.uleb128 0x49
 4313 0028 13       		.uleb128 0x13
 4314 0029 00       		.byte	0
 4315 002a 00       		.byte	0
 4316 002b 04       		.uleb128 0x4
 4317 002c 24       		.uleb128 0x24
 4318 002d 00       		.byte	0
 4319 002e 0B       		.uleb128 0xb
 4320 002f 0B       		.uleb128 0xb
 4321 0030 3E       		.uleb128 0x3e
 4322 0031 0B       		.uleb128 0xb
 4323 0032 03       		.uleb128 0x3
 4324 0033 08       		.uleb128 0x8
 4325 0034 00       		.byte	0
 4326 0035 00       		.byte	0
 4327 0036 05       		.uleb128 0x5
 4328 0037 16       		.uleb128 0x16
 4329 0038 00       		.byte	0
 4330 0039 03       		.uleb128 0x3
 4331 003a 0E       		.uleb128 0xe
 4332 003b 3A       		.uleb128 0x3a
 4333 003c 0B       		.uleb128 0xb
 4334 003d 3B       		.uleb128 0x3b
 4335 003e 05       		.uleb128 0x5
 4336 003f 49       		.uleb128 0x49
 4337 0040 13       		.uleb128 0x13
 4338 0041 00       		.byte	0
 4339 0042 00       		.byte	0
 4340 0043 06       		.uleb128 0x6
 4341 0044 13       		.uleb128 0x13
 4342 0045 01       		.byte	0x1
 4343 0046 03       		.uleb128 0x3
 4344 0047 0E       		.uleb128 0xe
 4345 0048 0B       		.uleb128 0xb
 4346 0049 05       		.uleb128 0x5
 4347 004a 3A       		.uleb128 0x3a
 4348 004b 0B       		.uleb128 0xb
 4349 004c 3B       		.uleb128 0x3b
 4350 004d 0B       		.uleb128 0xb
 4351 004e 01       		.uleb128 0x1
 4352 004f 13       		.uleb128 0x13
 4353 0050 00       		.byte	0
 4354 0051 00       		.byte	0
 4355 0052 07       		.uleb128 0x7
 4356 0053 0D       		.uleb128 0xd
ARM GAS  C:\Users\Diego\AppData\Local\Temp\cc2hwaET.s 			page 91


 4357 0054 00       		.byte	0
 4358 0055 03       		.uleb128 0x3
 4359 0056 08       		.uleb128 0x8
 4360 0057 3A       		.uleb128 0x3a
 4361 0058 0B       		.uleb128 0xb
 4362 0059 3B       		.uleb128 0x3b
 4363 005a 0B       		.uleb128 0xb
 4364 005b 49       		.uleb128 0x49
 4365 005c 13       		.uleb128 0x13
 4366 005d 38       		.uleb128 0x38
 4367 005e 0B       		.uleb128 0xb
 4368 005f 00       		.byte	0
 4369 0060 00       		.byte	0
 4370 0061 08       		.uleb128 0x8
 4371 0062 0D       		.uleb128 0xd
 4372 0063 00       		.byte	0
 4373 0064 03       		.uleb128 0x3
 4374 0065 0E       		.uleb128 0xe
 4375 0066 3A       		.uleb128 0x3a
 4376 0067 0B       		.uleb128 0xb
 4377 0068 3B       		.uleb128 0x3b
 4378 0069 0B       		.uleb128 0xb
 4379 006a 49       		.uleb128 0x49
 4380 006b 13       		.uleb128 0x13
 4381 006c 38       		.uleb128 0x38
 4382 006d 0B       		.uleb128 0xb
 4383 006e 00       		.byte	0
 4384 006f 00       		.byte	0
 4385 0070 09       		.uleb128 0x9
 4386 0071 0D       		.uleb128 0xd
 4387 0072 00       		.byte	0
 4388 0073 03       		.uleb128 0x3
 4389 0074 0E       		.uleb128 0xe
 4390 0075 3A       		.uleb128 0x3a
 4391 0076 0B       		.uleb128 0xb
 4392 0077 3B       		.uleb128 0x3b
 4393 0078 0B       		.uleb128 0xb
 4394 0079 49       		.uleb128 0x49
 4395 007a 13       		.uleb128 0x13
 4396 007b 38       		.uleb128 0x38
 4397 007c 05       		.uleb128 0x5
 4398 007d 00       		.byte	0
 4399 007e 00       		.byte	0
 4400 007f 0A       		.uleb128 0xa
 4401 0080 0D       		.uleb128 0xd
 4402 0081 00       		.byte	0
 4403 0082 03       		.uleb128 0x3
 4404 0083 08       		.uleb128 0x8
 4405 0084 3A       		.uleb128 0x3a
 4406 0085 0B       		.uleb128 0xb
 4407 0086 3B       		.uleb128 0x3b
 4408 0087 0B       		.uleb128 0xb
 4409 0088 49       		.uleb128 0x49
 4410 0089 13       		.uleb128 0x13
 4411 008a 38       		.uleb128 0x38
 4412 008b 05       		.uleb128 0x5
 4413 008c 00       		.byte	0
ARM GAS  C:\Users\Diego\AppData\Local\Temp\cc2hwaET.s 			page 92


 4414 008d 00       		.byte	0
 4415 008e 0B       		.uleb128 0xb
 4416 008f 01       		.uleb128 0x1
 4417 0090 01       		.byte	0x1
 4418 0091 49       		.uleb128 0x49
 4419 0092 13       		.uleb128 0x13
 4420 0093 01       		.uleb128 0x1
 4421 0094 13       		.uleb128 0x13
 4422 0095 00       		.byte	0
 4423 0096 00       		.byte	0
 4424 0097 0C       		.uleb128 0xc
 4425 0098 21       		.uleb128 0x21
 4426 0099 00       		.byte	0
 4427 009a 49       		.uleb128 0x49
 4428 009b 13       		.uleb128 0x13
 4429 009c 2F       		.uleb128 0x2f
 4430 009d 0B       		.uleb128 0xb
 4431 009e 00       		.byte	0
 4432 009f 00       		.byte	0
 4433 00a0 0D       		.uleb128 0xd
 4434 00a1 04       		.uleb128 0x4
 4435 00a2 01       		.byte	0x1
 4436 00a3 03       		.uleb128 0x3
 4437 00a4 0E       		.uleb128 0xe
 4438 00a5 0B       		.uleb128 0xb
 4439 00a6 0B       		.uleb128 0xb
 4440 00a7 49       		.uleb128 0x49
 4441 00a8 13       		.uleb128 0x13
 4442 00a9 3A       		.uleb128 0x3a
 4443 00aa 0B       		.uleb128 0xb
 4444 00ab 3B       		.uleb128 0x3b
 4445 00ac 0B       		.uleb128 0xb
 4446 00ad 01       		.uleb128 0x1
 4447 00ae 13       		.uleb128 0x13
 4448 00af 00       		.byte	0
 4449 00b0 00       		.byte	0
 4450 00b1 0E       		.uleb128 0xe
 4451 00b2 28       		.uleb128 0x28
 4452 00b3 00       		.byte	0
 4453 00b4 03       		.uleb128 0x3
 4454 00b5 0E       		.uleb128 0xe
 4455 00b6 1C       		.uleb128 0x1c
 4456 00b7 0B       		.uleb128 0xb
 4457 00b8 00       		.byte	0
 4458 00b9 00       		.byte	0
 4459 00ba 0F       		.uleb128 0xf
 4460 00bb 2E       		.uleb128 0x2e
 4461 00bc 01       		.byte	0x1
 4462 00bd 3F       		.uleb128 0x3f
 4463 00be 19       		.uleb128 0x19
 4464 00bf 03       		.uleb128 0x3
 4465 00c0 0E       		.uleb128 0xe
 4466 00c1 3A       		.uleb128 0x3a
 4467 00c2 0B       		.uleb128 0xb
 4468 00c3 3B       		.uleb128 0x3b
 4469 00c4 0B       		.uleb128 0xb
 4470 00c5 27       		.uleb128 0x27
ARM GAS  C:\Users\Diego\AppData\Local\Temp\cc2hwaET.s 			page 93


 4471 00c6 19       		.uleb128 0x19
 4472 00c7 11       		.uleb128 0x11
 4473 00c8 01       		.uleb128 0x1
 4474 00c9 12       		.uleb128 0x12
 4475 00ca 06       		.uleb128 0x6
 4476 00cb 40       		.uleb128 0x40
 4477 00cc 18       		.uleb128 0x18
 4478 00cd 9642     		.uleb128 0x2116
 4479 00cf 19       		.uleb128 0x19
 4480 00d0 01       		.uleb128 0x1
 4481 00d1 13       		.uleb128 0x13
 4482 00d2 00       		.byte	0
 4483 00d3 00       		.byte	0
 4484 00d4 10       		.uleb128 0x10
 4485 00d5 34       		.uleb128 0x34
 4486 00d6 00       		.byte	0
 4487 00d7 03       		.uleb128 0x3
 4488 00d8 08       		.uleb128 0x8
 4489 00d9 3A       		.uleb128 0x3a
 4490 00da 0B       		.uleb128 0xb
 4491 00db 3B       		.uleb128 0x3b
 4492 00dc 0B       		.uleb128 0xb
 4493 00dd 49       		.uleb128 0x49
 4494 00de 13       		.uleb128 0x13
 4495 00df 00       		.byte	0
 4496 00e0 00       		.byte	0
 4497 00e1 11       		.uleb128 0x11
 4498 00e2 2E       		.uleb128 0x2e
 4499 00e3 01       		.byte	0x1
 4500 00e4 3F       		.uleb128 0x3f
 4501 00e5 19       		.uleb128 0x19
 4502 00e6 03       		.uleb128 0x3
 4503 00e7 0E       		.uleb128 0xe
 4504 00e8 3A       		.uleb128 0x3a
 4505 00e9 0B       		.uleb128 0xb
 4506 00ea 3B       		.uleb128 0x3b
 4507 00eb 0B       		.uleb128 0xb
 4508 00ec 49       		.uleb128 0x49
 4509 00ed 13       		.uleb128 0x13
 4510 00ee 11       		.uleb128 0x11
 4511 00ef 01       		.uleb128 0x1
 4512 00f0 12       		.uleb128 0x12
 4513 00f1 06       		.uleb128 0x6
 4514 00f2 40       		.uleb128 0x40
 4515 00f3 18       		.uleb128 0x18
 4516 00f4 9642     		.uleb128 0x2116
 4517 00f6 19       		.uleb128 0x19
 4518 00f7 01       		.uleb128 0x1
 4519 00f8 13       		.uleb128 0x13
 4520 00f9 00       		.byte	0
 4521 00fa 00       		.byte	0
 4522 00fb 12       		.uleb128 0x12
 4523 00fc 34       		.uleb128 0x34
 4524 00fd 00       		.byte	0
 4525 00fe 03       		.uleb128 0x3
 4526 00ff 08       		.uleb128 0x8
 4527 0100 3A       		.uleb128 0x3a
ARM GAS  C:\Users\Diego\AppData\Local\Temp\cc2hwaET.s 			page 94


 4528 0101 0B       		.uleb128 0xb
 4529 0102 3B       		.uleb128 0x3b
 4530 0103 0B       		.uleb128 0xb
 4531 0104 49       		.uleb128 0x49
 4532 0105 13       		.uleb128 0x13
 4533 0106 02       		.uleb128 0x2
 4534 0107 18       		.uleb128 0x18
 4535 0108 00       		.byte	0
 4536 0109 00       		.byte	0
 4537 010a 13       		.uleb128 0x13
 4538 010b 34       		.uleb128 0x34
 4539 010c 00       		.byte	0
 4540 010d 03       		.uleb128 0x3
 4541 010e 0E       		.uleb128 0xe
 4542 010f 3A       		.uleb128 0x3a
 4543 0110 0B       		.uleb128 0xb
 4544 0111 3B       		.uleb128 0x3b
 4545 0112 0B       		.uleb128 0xb
 4546 0113 49       		.uleb128 0x49
 4547 0114 13       		.uleb128 0x13
 4548 0115 02       		.uleb128 0x2
 4549 0116 18       		.uleb128 0x18
 4550 0117 00       		.byte	0
 4551 0118 00       		.byte	0
 4552 0119 14       		.uleb128 0x14
 4553 011a 34       		.uleb128 0x34
 4554 011b 00       		.byte	0
 4555 011c 03       		.uleb128 0x3
 4556 011d 0E       		.uleb128 0xe
 4557 011e 3A       		.uleb128 0x3a
 4558 011f 0B       		.uleb128 0xb
 4559 0120 3B       		.uleb128 0x3b
 4560 0121 0B       		.uleb128 0xb
 4561 0122 49       		.uleb128 0x49
 4562 0123 13       		.uleb128 0x13
 4563 0124 00       		.byte	0
 4564 0125 00       		.byte	0
 4565 0126 15       		.uleb128 0x15
 4566 0127 0B       		.uleb128 0xb
 4567 0128 01       		.byte	0x1
 4568 0129 11       		.uleb128 0x11
 4569 012a 01       		.uleb128 0x1
 4570 012b 12       		.uleb128 0x12
 4571 012c 06       		.uleb128 0x6
 4572 012d 01       		.uleb128 0x1
 4573 012e 13       		.uleb128 0x13
 4574 012f 00       		.byte	0
 4575 0130 00       		.byte	0
 4576 0131 16       		.uleb128 0x16
 4577 0132 34       		.uleb128 0x34
 4578 0133 00       		.byte	0
 4579 0134 03       		.uleb128 0x3
 4580 0135 0E       		.uleb128 0xe
 4581 0136 3A       		.uleb128 0x3a
 4582 0137 0B       		.uleb128 0xb
 4583 0138 3B       		.uleb128 0x3b
 4584 0139 05       		.uleb128 0x5
ARM GAS  C:\Users\Diego\AppData\Local\Temp\cc2hwaET.s 			page 95


 4585 013a 49       		.uleb128 0x49
 4586 013b 13       		.uleb128 0x13
 4587 013c 02       		.uleb128 0x2
 4588 013d 18       		.uleb128 0x18
 4589 013e 00       		.byte	0
 4590 013f 00       		.byte	0
 4591 0140 17       		.uleb128 0x17
 4592 0141 0B       		.uleb128 0xb
 4593 0142 01       		.byte	0x1
 4594 0143 11       		.uleb128 0x11
 4595 0144 01       		.uleb128 0x1
 4596 0145 12       		.uleb128 0x12
 4597 0146 06       		.uleb128 0x6
 4598 0147 00       		.byte	0
 4599 0148 00       		.byte	0
 4600 0149 18       		.uleb128 0x18
 4601 014a 34       		.uleb128 0x34
 4602 014b 00       		.byte	0
 4603 014c 03       		.uleb128 0x3
 4604 014d 0E       		.uleb128 0xe
 4605 014e 3A       		.uleb128 0x3a
 4606 014f 0B       		.uleb128 0xb
 4607 0150 3B       		.uleb128 0x3b
 4608 0151 05       		.uleb128 0x5
 4609 0152 49       		.uleb128 0x49
 4610 0153 13       		.uleb128 0x13
 4611 0154 3F       		.uleb128 0x3f
 4612 0155 19       		.uleb128 0x19
 4613 0156 3C       		.uleb128 0x3c
 4614 0157 19       		.uleb128 0x19
 4615 0158 00       		.byte	0
 4616 0159 00       		.byte	0
 4617 015a 19       		.uleb128 0x19
 4618 015b 35       		.uleb128 0x35
 4619 015c 00       		.byte	0
 4620 015d 49       		.uleb128 0x49
 4621 015e 13       		.uleb128 0x13
 4622 015f 00       		.byte	0
 4623 0160 00       		.byte	0
 4624 0161 1A       		.uleb128 0x1a
 4625 0162 34       		.uleb128 0x34
 4626 0163 00       		.byte	0
 4627 0164 03       		.uleb128 0x3
 4628 0165 0E       		.uleb128 0xe
 4629 0166 3A       		.uleb128 0x3a
 4630 0167 0B       		.uleb128 0xb
 4631 0168 3B       		.uleb128 0x3b
 4632 0169 0B       		.uleb128 0xb
 4633 016a 49       		.uleb128 0x49
 4634 016b 13       		.uleb128 0x13
 4635 016c 3F       		.uleb128 0x3f
 4636 016d 19       		.uleb128 0x19
 4637 016e 02       		.uleb128 0x2
 4638 016f 18       		.uleb128 0x18
 4639 0170 00       		.byte	0
 4640 0171 00       		.byte	0
 4641 0172 1B       		.uleb128 0x1b
ARM GAS  C:\Users\Diego\AppData\Local\Temp\cc2hwaET.s 			page 96


 4642 0173 34       		.uleb128 0x34
 4643 0174 00       		.byte	0
 4644 0175 03       		.uleb128 0x3
 4645 0176 08       		.uleb128 0x8
 4646 0177 3A       		.uleb128 0x3a
 4647 0178 0B       		.uleb128 0xb
 4648 0179 3B       		.uleb128 0x3b
 4649 017a 0B       		.uleb128 0xb
 4650 017b 49       		.uleb128 0x49
 4651 017c 13       		.uleb128 0x13
 4652 017d 3F       		.uleb128 0x3f
 4653 017e 19       		.uleb128 0x19
 4654 017f 02       		.uleb128 0x2
 4655 0180 18       		.uleb128 0x18
 4656 0181 00       		.byte	0
 4657 0182 00       		.byte	0
 4658 0183 00       		.byte	0
 4659              		.section	.debug_aranges,"",%progbits
 4660 0000 24000000 		.4byte	0x24
 4661 0004 0200     		.2byte	0x2
 4662 0006 00000000 		.4byte	.Ldebug_info0
 4663 000a 04       		.byte	0x4
 4664 000b 00       		.byte	0
 4665 000c 0000     		.2byte	0
 4666 000e 0000     		.2byte	0
 4667 0010 00000000 		.4byte	.LFB63
 4668 0014 AC000000 		.4byte	.LFE63-.LFB63
 4669 0018 00000000 		.4byte	.LFB64
 4670 001c AC140000 		.4byte	.LFE64-.LFB64
 4671 0020 00000000 		.4byte	0
 4672 0024 00000000 		.4byte	0
 4673              		.section	.debug_ranges,"",%progbits
 4674              	.Ldebug_ranges0:
 4675 0000 00000000 		.4byte	.LFB63
 4676 0004 AC000000 		.4byte	.LFE63
 4677 0008 00000000 		.4byte	.LFB64
 4678 000c AC140000 		.4byte	.LFE64
 4679 0010 00000000 		.4byte	0
 4680 0014 00000000 		.4byte	0
 4681              		.section	.debug_line,"",%progbits
 4682              	.Ldebug_line0:
 4683 0000 57070000 		.section	.debug_str,"MS",%progbits,1
 4683      02005801 
 4683      00000201 
 4683      FB0E0D00 
 4683      01010101 
 4684              	.LASF13:
 4685 0000 666C6F61 		.ascii	"float\000"
 4685      7400
 4686              	.LASF77:
 4687 0006 4D455053 		.ascii	"MEPSAN_REQUEST\000"
 4687      414E5F52 
 4687      45515545 
 4687      535400
 4688              	.LASF67:
 4689 0015 6372635F 		.ascii	"crc_lo\000"
 4689      6C6F00
ARM GAS  C:\Users\Diego\AppData\Local\Temp\cc2hwaET.s 			page 97


 4690              	.LASF39:
 4691 001c 4D455053 		.ascii	"MEPSAN_R_FILLING\000"
 4691      414E5F52 
 4691      5F46494C 
 4691      4C494E47 
 4691      00
 4692              	.LASF32:
 4693 002d 4D657052 		.ascii	"MepRequest\000"
 4693      65717565 
 4693      737400
 4694              	.LASF27:
 4695 0038 50726F63 		.ascii	"ProcessedTotals\000"
 4695      65737365 
 4695      64546F74 
 4695      616C7300 
 4696              	.LASF44:
 4697 0048 74656D70 		.ascii	"temp\000"
 4697      00
 4698              	.LASF2:
 4699 004d 73686F72 		.ascii	"short int\000"
 4699      7420696E 
 4699      7400
 4700              	.LASF18:
 4701 0057 73697A65 		.ascii	"sizetype\000"
 4701      74797065 
 4701      00
 4702              	.LASF59:
 4703 0060 696E745F 		.ascii	"int_salenumber\000"
 4703      73616C65 
 4703      6E756D62 
 4703      657200
 4704              	.LASF41:
 4705 006f 6D61696E 		.ascii	"main\000"
 4705      00
 4706              	.LASF15:
 4707 0074 63686172 		.ascii	"char8\000"
 4707      3800
 4708              	.LASF74:
 4709 007a 474E5520 		.ascii	"GNU C11 5.4.1 20160609 (release) [ARM/embedded-5-br"
 4709      43313120 
 4709      352E342E 
 4709      31203230 
 4709      31363036 
 4710 00ad 616E6368 		.ascii	"anch revision 237715] -mcpu=cortex-m3 -mthumb -g -O"
 4710      20726576 
 4710      6973696F 
 4710      6E203233 
 4710      37373135 
 4711 00e0 30202D66 		.ascii	"0 -ffunction-sections -ffat-lto-objects\000"
 4711      66756E63 
 4711      74696F6E 
 4711      2D736563 
 4711      74696F6E 
 4712              	.LASF56:
 4713 0108 73616C65 		.ascii	"sale_number_copy\000"
 4713      5F6E756D 
 4713      6265725F 
ARM GAS  C:\Users\Diego\AppData\Local\Temp\cc2hwaET.s 			page 98


 4713      636F7079 
 4713      00
 4714              	.LASF69:
 4715 0119 506F7369 		.ascii	"Positions\000"
 4715      74696F6E 
 4715      7300
 4716              	.LASF12:
 4717 0123 75696E74 		.ascii	"uint16\000"
 4717      313600
 4718              	.LASF20:
 4719 012a 7070754E 		.ascii	"ppuNozzle\000"
 4719      6F7A7A6C 
 4719      6500
 4720              	.LASF11:
 4721 0134 75696E74 		.ascii	"uint8\000"
 4721      3800
 4722              	.LASF61:
 4723 013a 696E745F 		.ascii	"int_shiftnumber\000"
 4723      73686966 
 4723      746E756D 
 4723      62657200 
 4724              	.LASF34:
 4725 014a 436F7079 		.ascii	"Copy\000"
 4725      00
 4726              	.LASF35:
 4727 014f 706F7369 		.ascii	"position\000"
 4727      74696F6E 
 4727      00
 4728              	.LASF52:
 4729 0158 506F6C6C 		.ascii	"PollCounter\000"
 4729      436F756E 
 4729      74657200 
 4730              	.LASF71:
 4731 0164 44656356 		.ascii	"DecVol\000"
 4731      6F6C00
 4732              	.LASF45:
 4733 016b 70617373 		.ascii	"passw\000"
 4733      7700
 4734              	.LASF6:
 4735 0171 6C6F6E67 		.ascii	"long long int\000"
 4735      206C6F6E 
 4735      6720696E 
 4735      7400
 4736              	.LASF25:
 4737 017f 73746174 		.ascii	"states\000"
 4737      657300
 4738              	.LASF62:
 4739 0186 4C434468 		.ascii	"LCDhose\000"
 4739      6F736500 
 4740              	.LASF4:
 4741 018e 6C6F6E67 		.ascii	"long int\000"
 4741      20696E74 
 4741      00
 4742              	.LASF29:
 4743 0197 50726F63 		.ascii	"ProcessedvolumeSale\000"
 4743      65737365 
 4743      64766F6C 
ARM GAS  C:\Users\Diego\AppData\Local\Temp\cc2hwaET.s 			page 99


 4743      756D6553 
 4743      616C6500 
 4744              	.LASF73:
 4745 01ab 64697247 		.ascii	"dirGbr\000"
 4745      627200
 4746              	.LASF43:
 4747 01b2 575F6175 		.ascii	"W_autorize\000"
 4747      746F7269 
 4747      7A6500
 4748              	.LASF38:
 4749 01bd 4D455053 		.ascii	"MEPSAN_AUTHORIZE\000"
 4749      414E5F41 
 4749      5554484F 
 4749      52495A45 
 4749      00
 4750              	.LASF40:
 4751 01ce 506F6C6C 		.ascii	"PollingPos\000"
 4751      696E6750 
 4751      6F7300
 4752              	.LASF22:
 4753 01d9 766F6C75 		.ascii	"volumeSale\000"
 4753      6D655361 
 4753      6C6500
 4754              	.LASF65:
 4755 01e4 4D657073 		.ascii	"MepsanSendTo\000"
 4755      616E5365 
 4755      6E64546F 
 4755      00
 4756              	.LASF24:
 4757 01f1 70726F64 		.ascii	"productSale\000"
 4757      75637453 
 4757      616C6500 
 4758              	.LASF17:
 4759 01fd 6C6F6E67 		.ascii	"long double\000"
 4759      20646F75 
 4759      626C6500 
 4760              	.LASF66:
 4761 0209 50756D70 		.ascii	"PumpAddress\000"
 4761      41646472 
 4761      65737300 
 4762              	.LASF1:
 4763 0215 756E7369 		.ascii	"unsigned char\000"
 4763      676E6564 
 4763      20636861 
 4763      7200
 4764              	.LASF53:
 4765 0223 43757272 		.ascii	"CurrentState\000"
 4765      656E7453 
 4765      74617465 
 4765      00
 4766              	.LASF60:
 4767 0230 73686966 		.ascii	"shift_number\000"
 4767      745F6E75 
 4767      6D626572 
 4767      00
 4768              	.LASF0:
 4769 023d 7369676E 		.ascii	"signed char\000"
ARM GAS  C:\Users\Diego\AppData\Local\Temp\cc2hwaET.s 			page 100


 4769      65642063 
 4769      68617200 
 4770              	.LASF7:
 4771 0249 6C6F6E67 		.ascii	"long long unsigned int\000"
 4771      206C6F6E 
 4771      6720756E 
 4771      7369676E 
 4771      65642069 
 4772              	.LASF76:
 4773 0260 433A5C55 		.ascii	"C:\\Users\\Diego\\Documents\\GitHub\\Mepsan\\Mepsan"
 4773      73657273 
 4773      5C446965 
 4773      676F5C44 
 4773      6F63756D 
 4774 028d 2E637964 		.ascii	".cydsn\000"
 4774      736E00
 4775              	.LASF8:
 4776 0294 756E7369 		.ascii	"unsigned int\000"
 4776      676E6564 
 4776      20696E74 
 4776      00
 4777              	.LASF50:
 4778 02a1 4C434452 		.ascii	"LCDRx\000"
 4778      7800
 4779              	.LASF23:
 4780 02a7 70707553 		.ascii	"ppuSale\000"
 4780      616C6500 
 4781              	.LASF42:
 4782 02af 73637265 		.ascii	"screen_size\000"
 4782      656E5F73 
 4782      697A6500 
 4783              	.LASF3:
 4784 02bb 73686F72 		.ascii	"short unsigned int\000"
 4784      7420756E 
 4784      7369676E 
 4784      65642069 
 4784      6E7400
 4785              	.LASF21:
 4786 02ce 6D6F6E65 		.ascii	"moneySale\000"
 4786      7953616C 
 4786      6500
 4787              	.LASF16:
 4788 02d8 63686172 		.ascii	"char\000"
 4788      00
 4789              	.LASF47:
 4790 02dd 6368616E 		.ascii	"change_pic2\000"
 4790      67655F70 
 4790      69633200 
 4791              	.LASF10:
 4792 02e9 696E7433 		.ascii	"int32_t\000"
 4792      325F7400 
 4793              	.LASF46:
 4794 02f1 6368616E 		.ascii	"change_pic\000"
 4794      67655F70 
 4794      696300
 4795              	.LASF48:
 4796 02fc 70726963 		.ascii	"price_change\000"
ARM GAS  C:\Users\Diego\AppData\Local\Temp\cc2hwaET.s 			page 101


 4796      655F6368 
 4796      616E6765 
 4796      00
 4797              	.LASF36:
 4798 0309 70756D70 		.ascii	"pump\000"
 4798      00
 4799              	.LASF57:
 4800 030e 686F7572 		.ascii	"hour_copy\000"
 4800      5F636F70 
 4800      7900
 4801              	.LASF55:
 4802 0318 73616C65 		.ascii	"sale_number\000"
 4802      5F6E756D 
 4802      62657200 
 4803              	.LASF19:
 4804 0324 746F7461 		.ascii	"totalsNozzle\000"
 4804      6C734E6F 
 4804      7A7A6C65 
 4804      00
 4805              	.LASF30:
 4806 0331 50726F63 		.ascii	"ProcessedPPU\000"
 4806      65737365 
 4806      64505055 
 4806      00
 4807              	.LASF75:
 4808 033e 6D61696E 		.ascii	"main.c\000"
 4808      2E6300
 4809              	.LASF5:
 4810 0345 6C6F6E67 		.ascii	"long unsigned int\000"
 4810      20756E73 
 4810      69676E65 
 4810      6420696E 
 4810      7400
 4811              	.LASF72:
 4812 0357 746F7563 		.ascii	"touch1\000"
 4812      683100
 4813              	.LASF64:
 4814 035e 4D657073 		.ascii	"MepsanResponse\000"
 4814      616E5265 
 4814      73706F6E 
 4814      736500
 4815              	.LASF51:
 4816 036d 49544D5F 		.ascii	"ITM_RxBuffer\000"
 4816      52784275 
 4816      66666572 
 4816      00
 4817              	.LASF58:
 4818 037a 64617465 		.ascii	"date_copy\000"
 4818      5F636F70 
 4818      7900
 4819              	.LASF9:
 4820 0384 5F5F696E 		.ascii	"__int32_t\000"
 4820      7433325F 
 4820      7400
 4821              	.LASF70:
 4822 038e 546F7461 		.ascii	"TotalRequestType\000"
 4822      6C526571 
ARM GAS  C:\Users\Diego\AppData\Local\Temp\cc2hwaET.s 			page 102


 4822      75657374 
 4822      54797065 
 4822      00
 4823              	.LASF26:
 4824 039f 4D657073 		.ascii	"MepsanStore\000"
 4824      616E5374 
 4824      6F726500 
 4825              	.LASF28:
 4826 03ab 50726F63 		.ascii	"ProcessedmoneySale\000"
 4826      65737365 
 4826      646D6F6E 
 4826      65795361 
 4826      6C6500
 4827              	.LASF14:
 4828 03be 646F7562 		.ascii	"double\000"
 4828      6C6500
 4829              	.LASF54:
 4830 03c5 52656365 		.ascii	"Receipt\000"
 4830      69707400 
 4831              	.LASF63:
 4832 03cd 73696465 		.ascii	"side\000"
 4832      00
 4833              	.LASF37:
 4834 03d2 4D455053 		.ascii	"MEPSAN_STATE\000"
 4834      414E5F53 
 4834      54415445 
 4834      00
 4835              	.LASF33:
 4836 03df 4E6F7A7A 		.ascii	"Nozzle\000"
 4836      6C6500
 4837              	.LASF49:
 4838 03e6 61757850 		.ascii	"auxPrice\000"
 4838      72696365 
 4838      00
 4839              	.LASF68:
 4840 03ef 6372635F 		.ascii	"crc_hi\000"
 4840      686900
 4841              	.LASF31:
 4842 03f6 6D736E5F 		.ascii	"msn_plate\000"
 4842      706C6174 
 4842      6500
 4843              		.ident	"GCC: (GNU Tools for ARM Embedded Processors) 5.4.1 20160609 (release) [ARM/embedded-5-bran
