ARM GAS  C:\Users\THERMA~1\AppData\Local\Temp\cc1whVDs.s 			page 1


   1              		.syntax unified
   2              		.cpu cortex-m3
   3              		.fpu softvfp
   4              		.eabi_attribute 20, 1
   5              		.eabi_attribute 21, 1
   6              		.eabi_attribute 23, 3
   7              		.eabi_attribute 24, 1
   8              		.eabi_attribute 25, 1
   9              		.eabi_attribute 26, 1
  10              		.eabi_attribute 30, 6
  11              		.eabi_attribute 34, 1
  12              		.eabi_attribute 18, 4
  13              		.thumb
  14              		.syntax unified
  15              		.file	"main.c"
  16              		.text
  17              	.Ltext0:
  18              		.cfi_sections	.debug_frame
  19              		.comm	PollCounter,2,2
  20              		.comm	CurrentState,1,1
  21              		.comm	Receipt,1,1
  22              		.comm	sale_number,6,4
  23              		.comm	int_salenumber,1,1
  24              		.comm	shift_number,6,4
  25              		.comm	int_shiftnumber,1,1
  26              		.comm	LCDhose,1,1
  27              		.comm	side,1204,4
  28              		.comm	MepsanResponse,50,4
  29              		.comm	MepsanSendTo,50,4
  30              		.comm	PumpAddress,15,4
  31              		.comm	CRC,2,2
  32              		.comm	crc_lo,1,1
  33              		.comm	crc_hi,1,1
  34              		.comm	Positions,1,1
  35              		.comm	TotalRequestType,1,1
  36              		.comm	DecVol,1,1
  37              		.comm	touch1,20,4
  38              		.comm	dirGbr,1,1
  39              		.section	.text.PollingPos,"ax",%progbits
  40              		.align	2
  41              		.global	PollingPos
  42              		.thumb
  43              		.thumb_func
  44              		.type	PollingPos, %function
  45              	PollingPos:
  46              	.LFB63:
  47              		.file 1 "main.c"
   1:main.c        **** /******************************************************************************
   2:main.c        **** * File Name: main.c
   3:main.c        **** *
   4:main.c        **** * Version: 1.10
   5:main.c        **** *
   6:main.c        **** * Description: This is the source code for the Blinking LED code example.
   7:main.c        **** *
   8:main.c        **** * Related Document: CE195352_PSoC_5LP_Blinking_LED.pdf
   9:main.c        **** *
  10:main.c        **** * Hardware Dependency: See CE195352_PSoC_5LP_Blinking_LED.pdf
ARM GAS  C:\Users\THERMA~1\AppData\Local\Temp\cc1whVDs.s 			page 2


  11:main.c        **** *
  12:main.c        **** *******************************************************************************
  13:main.c        **** * Copyright (2018), Cypress Semiconductor Corporation. All rights reserved.
  14:main.c        **** *******************************************************************************
  15:main.c        **** * This software, including source code, documentation and related materials
  16:main.c        **** * (“Software”), is owned by Cypress Semiconductor Corporation or one of its
  17:main.c        **** * subsidiaries (“Cypress”) and is protected by and subject to worldwide patent
  18:main.c        **** * protection (United States and foreign), United States copyright laws and
  19:main.c        **** * international treaty provisions. Therefore, you may use this Software only
  20:main.c        **** * as provided in the license agreement accompanying the software package from
  21:main.c        **** * which you obtained this Software (“EULA”).
  22:main.c        **** *
  23:main.c        **** * If no EULA applies, Cypress hereby grants you a personal, nonexclusive,
  24:main.c        **** * non-transferable license to copy, modify, and compile the Software source
  25:main.c        **** * code solely for use in connection with Cypress’s integrated circuit products.
  26:main.c        **** * Any reproduction, modification, translation, compilation, or representation
  27:main.c        **** * of this Software except as specified above is prohibited without the express
  28:main.c        **** * written permission of Cypress.
  29:main.c        **** *
  30:main.c        **** * Disclaimer: THIS SOFTWARE IS PROVIDED AS-IS, WITH NO WARRANTY OF ANY KIND, 
  31:main.c        **** * EXPRESS OR IMPLIED, INCLUDING, BUT NOT LIMITED TO, NONINFRINGEMENT, IMPLIED 
  32:main.c        **** * WARRANTIES OF MERCHANTABILITY AND FITNESS FOR A PARTICULAR PURPOSE. Cypress 
  33:main.c        **** * reserves the right to make changes to the Software without notice. Cypress 
  34:main.c        **** * does not assume any liability arising out of the application or use of the 
  35:main.c        **** * Software or any product or circuit described in the Software. Cypress does 
  36:main.c        **** * not authorize its products for use in any products where a malfunction or 
  37:main.c        **** * failure of the Cypress product may reasonably be expected to result in 
  38:main.c        **** * significant property damage, injury or death (“High Risk Product”). By 
  39:main.c        **** * including Cypress’s product in a High Risk Product, the manufacturer of such 
  40:main.c        **** * system or application assumes all risk of such use and in doing so agrees to 
  41:main.c        **** * indemnify Cypress against all liability.
  42:main.c        **** *******************************************************************************/
  43:main.c        **** 
  44:main.c        **** #include <project.h>
  45:main.c        **** #include <GVar.h>
  46:main.c        **** #include <PumpCom.h>
  47:main.c        **** #include <Gbr.h>
  48:main.c        **** #include <printer.h>
  49:main.c        **** 
  50:main.c        **** 
  51:main.c        **** 
  52:main.c        **** void PollingPos(void){
  48              		.loc 1 52 0
  49              		.cfi_startproc
  50              		@ args = 0, pretend = 0, frame = 8
  51              		@ frame_needed = 1, uses_anonymous_args = 0
  52 0000 90B5     		push	{r4, r7, lr}
  53              		.cfi_def_cfa_offset 12
  54              		.cfi_offset 4, -12
  55              		.cfi_offset 7, -8
  56              		.cfi_offset 14, -4
  57 0002 83B0     		sub	sp, sp, #12
  58              		.cfi_def_cfa_offset 24
  59 0004 00AF     		add	r7, sp, #0
  60              		.cfi_def_cfa_register 7
  53:main.c        ****     uint8 x;
  54:main.c        ****     if(side.a.dir != 0xFF && side.b.dir == 0xFF){
ARM GAS  C:\Users\THERMA~1\AppData\Local\Temp\cc1whVDs.s 			page 3


  61              		.loc 1 54 0
  62 0006 724B     		ldr	r3, .L17
  63 0008 1B78     		ldrb	r3, [r3]	@ zero_extendqisi2
  64 000a FF2B     		cmp	r3, #255
  65 000c 07D0     		beq	.L2
  66              		.loc 1 54 0 is_stmt 0 discriminator 1
  67 000e 704B     		ldr	r3, .L17
  68 0010 93F82D31 		ldrb	r3, [r3, #301]	@ zero_extendqisi2
  69 0014 FF2B     		cmp	r3, #255
  70 0016 02D1     		bne	.L2
  55:main.c        ****         Positions = 1;
  71              		.loc 1 55 0 is_stmt 1
  72 0018 6E4B     		ldr	r3, .L17+4
  73 001a 0122     		movs	r2, #1
  74 001c 1A70     		strb	r2, [r3]
  75              	.L2:
  56:main.c        ****     }
  57:main.c        ****     if(side.a.dir != 0xFF && side.b.dir != 0xFF){
  76              		.loc 1 57 0
  77 001e 6C4B     		ldr	r3, .L17
  78 0020 1B78     		ldrb	r3, [r3]	@ zero_extendqisi2
  79 0022 FF2B     		cmp	r3, #255
  80 0024 07D0     		beq	.L3
  81              		.loc 1 57 0 is_stmt 0 discriminator 1
  82 0026 6A4B     		ldr	r3, .L17
  83 0028 93F82D31 		ldrb	r3, [r3, #301]	@ zero_extendqisi2
  84 002c FF2B     		cmp	r3, #255
  85 002e 02D0     		beq	.L3
  58:main.c        ****         Positions = 2;
  86              		.loc 1 58 0 is_stmt 1
  87 0030 684B     		ldr	r3, .L17+4
  88 0032 0222     		movs	r2, #2
  89 0034 1A70     		strb	r2, [r3]
  90              	.L3:
  59:main.c        ****     }
  60:main.c        ****     if(side.c.dir != 0xFF && side.d.dir == 0xFF){
  91              		.loc 1 60 0
  92 0036 664B     		ldr	r3, .L17
  93 0038 93F85A32 		ldrb	r3, [r3, #602]	@ zero_extendqisi2
  94 003c FF2B     		cmp	r3, #255
  95 003e 07D0     		beq	.L4
  96              		.loc 1 60 0 is_stmt 0 discriminator 1
  97 0040 634B     		ldr	r3, .L17
  98 0042 93F88733 		ldrb	r3, [r3, #903]	@ zero_extendqisi2
  99 0046 FF2B     		cmp	r3, #255
 100 0048 02D1     		bne	.L4
  61:main.c        ****         Positions = 3;
 101              		.loc 1 61 0 is_stmt 1
 102 004a 624B     		ldr	r3, .L17+4
 103 004c 0322     		movs	r2, #3
 104 004e 1A70     		strb	r2, [r3]
 105              	.L4:
  62:main.c        ****     }
  63:main.c        ****     if(side.c.dir != 0xFF && side.d.dir != 0xFF){
 106              		.loc 1 63 0
 107 0050 5F4B     		ldr	r3, .L17
 108 0052 93F85A32 		ldrb	r3, [r3, #602]	@ zero_extendqisi2
ARM GAS  C:\Users\THERMA~1\AppData\Local\Temp\cc1whVDs.s 			page 4


 109 0056 FF2B     		cmp	r3, #255
 110 0058 07D0     		beq	.L5
 111              		.loc 1 63 0 is_stmt 0 discriminator 1
 112 005a 5D4B     		ldr	r3, .L17
 113 005c 93F88733 		ldrb	r3, [r3, #903]	@ zero_extendqisi2
 114 0060 FF2B     		cmp	r3, #255
 115 0062 02D0     		beq	.L5
  64:main.c        ****         Positions = 4;
 116              		.loc 1 64 0 is_stmt 1
 117 0064 5B4B     		ldr	r3, .L17+4
 118 0066 0422     		movs	r2, #4
 119 0068 1A70     		strb	r2, [r3]
 120              	.L5:
  65:main.c        ****     }
  66:main.c        ****     if(Positions == 1){       
 121              		.loc 1 66 0
 122 006a 5A4B     		ldr	r3, .L17+4
 123 006c 1B78     		ldrb	r3, [r3]	@ zero_extendqisi2
 124 006e 012B     		cmp	r3, #1
 125 0070 09D1     		bne	.L6
  67:main.c        ****         side.a.states[0] = PumpState(side.a.dir);                                    
 126              		.loc 1 67 0
 127 0072 574B     		ldr	r3, .L17
 128 0074 1B78     		ldrb	r3, [r3]	@ zero_extendqisi2
 129 0076 1846     		mov	r0, r3
 130 0078 FFF7FEFF 		bl	PumpState
 131 007c 0346     		mov	r3, r0
 132 007e 1A46     		mov	r2, r3
 133 0080 534B     		ldr	r3, .L17
 134 0082 83F84C20 		strb	r2, [r3, #76]
 135              	.L6:
  68:main.c        ****         //ReturnStatus(side.a.dir);        
  69:main.c        ****     }
  70:main.c        ****     if(Positions == 2){
 136              		.loc 1 70 0
 137 0086 534B     		ldr	r3, .L17+4
 138 0088 1B78     		ldrb	r3, [r3]	@ zero_extendqisi2
 139 008a 022B     		cmp	r3, #2
 140 008c 29D1     		bne	.L7
  71:main.c        ****         if(side.a.MepRequest == MEPSAN_AUTHORIZE)
 141              		.loc 1 71 0
 142 008e 504B     		ldr	r3, .L17
 143 0090 93F82B31 		ldrb	r3, [r3, #299]	@ zero_extendqisi2
 144 0094 062B     		cmp	r3, #6
 145 0096 04D1     		bne	.L8
  72:main.c        ****             Authorize(side.a.dir);
 146              		.loc 1 72 0
 147 0098 4D4B     		ldr	r3, .L17
 148 009a 1B78     		ldrb	r3, [r3]	@ zero_extendqisi2
 149 009c 1846     		mov	r0, r3
 150 009e FFF7FEFF 		bl	Authorize
 151              	.L8:
  73:main.c        ****         if(side.b.MepRequest == MEPSAN_AUTHORIZE)
 152              		.loc 1 73 0
 153 00a2 4B4B     		ldr	r3, .L17
 154 00a4 93F85832 		ldrb	r3, [r3, #600]	@ zero_extendqisi2
 155 00a8 062B     		cmp	r3, #6
ARM GAS  C:\Users\THERMA~1\AppData\Local\Temp\cc1whVDs.s 			page 5


 156 00aa 05D1     		bne	.L9
  74:main.c        ****             Authorize(side.b.dir);
 157              		.loc 1 74 0
 158 00ac 484B     		ldr	r3, .L17
 159 00ae 93F82D31 		ldrb	r3, [r3, #301]	@ zero_extendqisi2
 160 00b2 1846     		mov	r0, r3
 161 00b4 FFF7FEFF 		bl	Authorize
 162              	.L9:
  75:main.c        ****         side.a.states[0] = PumpState(side.a.dir);
 163              		.loc 1 75 0
 164 00b8 454B     		ldr	r3, .L17
 165 00ba 1B78     		ldrb	r3, [r3]	@ zero_extendqisi2
 166 00bc 1846     		mov	r0, r3
 167 00be FFF7FEFF 		bl	PumpState
 168 00c2 0346     		mov	r3, r0
 169 00c4 1A46     		mov	r2, r3
 170 00c6 424B     		ldr	r3, .L17
 171 00c8 83F84C20 		strb	r2, [r3, #76]
  76:main.c        ****         side.b.states[0] = PumpState(side.b.dir);        
 172              		.loc 1 76 0
 173 00cc 404B     		ldr	r3, .L17
 174 00ce 93F82D31 		ldrb	r3, [r3, #301]	@ zero_extendqisi2
 175 00d2 1846     		mov	r0, r3
 176 00d4 FFF7FEFF 		bl	PumpState
 177 00d8 0346     		mov	r3, r0
 178 00da 1A46     		mov	r2, r3
 179 00dc 3C4B     		ldr	r3, .L17
 180 00de 83F87921 		strb	r2, [r3, #377]
 181              	.L7:
  77:main.c        ****                     
  78:main.c        ****     }
  79:main.c        ****     if(Positions == 3){
 182              		.loc 1 79 0
 183 00e2 3C4B     		ldr	r3, .L17+4
 184 00e4 1B78     		ldrb	r3, [r3]	@ zero_extendqisi2
 185 00e6 032B     		cmp	r3, #3
 186 00e8 2ED1     		bne	.L10
  80:main.c        ****         for(x = 0; x < 5; x++){
 187              		.loc 1 80 0
 188 00ea 0023     		movs	r3, #0
 189 00ec FB71     		strb	r3, [r7, #7]
 190 00ee 28E0     		b	.L11
 191              	.L12:
  81:main.c        ****             side.a.states[x] = PumpState(side.a.dir);
 192              		.loc 1 81 0 discriminator 3
 193 00f0 FC79     		ldrb	r4, [r7, #7]	@ zero_extendqisi2
 194 00f2 374B     		ldr	r3, .L17
 195 00f4 1B78     		ldrb	r3, [r3]	@ zero_extendqisi2
 196 00f6 1846     		mov	r0, r3
 197 00f8 FFF7FEFF 		bl	PumpState
 198 00fc 0346     		mov	r3, r0
 199 00fe 1A46     		mov	r2, r3
 200 0100 334B     		ldr	r3, .L17
 201 0102 2344     		add	r3, r3, r4
 202 0104 83F84C20 		strb	r2, [r3, #76]
  82:main.c        ****             side.b.states[x] = PumpState(side.b.dir);
 203              		.loc 1 82 0 discriminator 3
ARM GAS  C:\Users\THERMA~1\AppData\Local\Temp\cc1whVDs.s 			page 6


 204 0108 FC79     		ldrb	r4, [r7, #7]	@ zero_extendqisi2
 205 010a 314B     		ldr	r3, .L17
 206 010c 93F82D31 		ldrb	r3, [r3, #301]	@ zero_extendqisi2
 207 0110 1846     		mov	r0, r3
 208 0112 FFF7FEFF 		bl	PumpState
 209 0116 0346     		mov	r3, r0
 210 0118 1A46     		mov	r2, r3
 211 011a 2D4B     		ldr	r3, .L17
 212 011c 2344     		add	r3, r3, r4
 213 011e 83F87921 		strb	r2, [r3, #377]
  83:main.c        ****             side.c.states[x] = PumpState(side.c.dir);
 214              		.loc 1 83 0 discriminator 3
 215 0122 FC79     		ldrb	r4, [r7, #7]	@ zero_extendqisi2
 216 0124 2A4B     		ldr	r3, .L17
 217 0126 93F85A32 		ldrb	r3, [r3, #602]	@ zero_extendqisi2
 218 012a 1846     		mov	r0, r3
 219 012c FFF7FEFF 		bl	PumpState
 220 0130 0346     		mov	r3, r0
 221 0132 1A46     		mov	r2, r3
 222 0134 264B     		ldr	r3, .L17
 223 0136 2344     		add	r3, r3, r4
 224 0138 83F8A622 		strb	r2, [r3, #678]
  80:main.c        ****             side.a.states[x] = PumpState(side.a.dir);
 225              		.loc 1 80 0 discriminator 3
 226 013c FB79     		ldrb	r3, [r7, #7]	@ zero_extendqisi2
 227 013e 0133     		adds	r3, r3, #1
 228 0140 FB71     		strb	r3, [r7, #7]
 229              	.L11:
  80:main.c        ****             side.a.states[x] = PumpState(side.a.dir);
 230              		.loc 1 80 0 is_stmt 0 discriminator 1
 231 0142 FB79     		ldrb	r3, [r7, #7]	@ zero_extendqisi2
 232 0144 042B     		cmp	r3, #4
 233 0146 D3D9     		bls	.L12
 234              	.L10:
  84:main.c        ****         }
  85:main.c        ****         
  86:main.c        ****     }
  87:main.c        ****     if(Positions == 4){
 235              		.loc 1 87 0 is_stmt 1
 236 0148 224B     		ldr	r3, .L17+4
 237 014a 1B78     		ldrb	r3, [r3]	@ zero_extendqisi2
 238 014c 042B     		cmp	r3, #4
 239 014e 3BD1     		bne	.L16
  88:main.c        ****         for(x = 0; x < 5; x++){
 240              		.loc 1 88 0
 241 0150 0023     		movs	r3, #0
 242 0152 FB71     		strb	r3, [r7, #7]
 243 0154 35E0     		b	.L14
 244              	.L15:
  89:main.c        ****             side.a.states[x] = PumpState(side.a.dir);
 245              		.loc 1 89 0 discriminator 3
 246 0156 FC79     		ldrb	r4, [r7, #7]	@ zero_extendqisi2
 247 0158 1D4B     		ldr	r3, .L17
 248 015a 1B78     		ldrb	r3, [r3]	@ zero_extendqisi2
 249 015c 1846     		mov	r0, r3
 250 015e FFF7FEFF 		bl	PumpState
 251 0162 0346     		mov	r3, r0
ARM GAS  C:\Users\THERMA~1\AppData\Local\Temp\cc1whVDs.s 			page 7


 252 0164 1A46     		mov	r2, r3
 253 0166 1A4B     		ldr	r3, .L17
 254 0168 2344     		add	r3, r3, r4
 255 016a 83F84C20 		strb	r2, [r3, #76]
  90:main.c        ****             side.b.states[x] = PumpState(side.b.dir);
 256              		.loc 1 90 0 discriminator 3
 257 016e FC79     		ldrb	r4, [r7, #7]	@ zero_extendqisi2
 258 0170 174B     		ldr	r3, .L17
 259 0172 93F82D31 		ldrb	r3, [r3, #301]	@ zero_extendqisi2
 260 0176 1846     		mov	r0, r3
 261 0178 FFF7FEFF 		bl	PumpState
 262 017c 0346     		mov	r3, r0
 263 017e 1A46     		mov	r2, r3
 264 0180 134B     		ldr	r3, .L17
 265 0182 2344     		add	r3, r3, r4
 266 0184 83F87921 		strb	r2, [r3, #377]
  91:main.c        ****             side.c.states[x] = PumpState(side.c.dir);
 267              		.loc 1 91 0 discriminator 3
 268 0188 FC79     		ldrb	r4, [r7, #7]	@ zero_extendqisi2
 269 018a 114B     		ldr	r3, .L17
 270 018c 93F85A32 		ldrb	r3, [r3, #602]	@ zero_extendqisi2
 271 0190 1846     		mov	r0, r3
 272 0192 FFF7FEFF 		bl	PumpState
 273 0196 0346     		mov	r3, r0
 274 0198 1A46     		mov	r2, r3
 275 019a 0D4B     		ldr	r3, .L17
 276 019c 2344     		add	r3, r3, r4
 277 019e 83F8A622 		strb	r2, [r3, #678]
  92:main.c        ****             side.d.states[x] = PumpState(side.d.dir);
 278              		.loc 1 92 0 discriminator 3
 279 01a2 FC79     		ldrb	r4, [r7, #7]	@ zero_extendqisi2
 280 01a4 0A4B     		ldr	r3, .L17
 281 01a6 93F88733 		ldrb	r3, [r3, #903]	@ zero_extendqisi2
 282 01aa 1846     		mov	r0, r3
 283 01ac FFF7FEFF 		bl	PumpState
 284 01b0 0346     		mov	r3, r0
 285 01b2 1A46     		mov	r2, r3
 286 01b4 064B     		ldr	r3, .L17
 287 01b6 2344     		add	r3, r3, r4
 288 01b8 83F8D323 		strb	r2, [r3, #979]
  88:main.c        ****             side.a.states[x] = PumpState(side.a.dir);
 289              		.loc 1 88 0 discriminator 3
 290 01bc FB79     		ldrb	r3, [r7, #7]	@ zero_extendqisi2
 291 01be 0133     		adds	r3, r3, #1
 292 01c0 FB71     		strb	r3, [r7, #7]
 293              	.L14:
  88:main.c        ****             side.a.states[x] = PumpState(side.a.dir);
 294              		.loc 1 88 0 is_stmt 0 discriminator 1
 295 01c2 FB79     		ldrb	r3, [r7, #7]	@ zero_extendqisi2
 296 01c4 042B     		cmp	r3, #4
 297 01c6 C6D9     		bls	.L15
 298              	.L16:
  93:main.c        ****         }            
  94:main.c        ****     } 
  95:main.c        **** 
  96:main.c        **** }
 299              		.loc 1 96 0 is_stmt 1
ARM GAS  C:\Users\THERMA~1\AppData\Local\Temp\cc1whVDs.s 			page 8


 300 01c8 00BF     		nop
 301 01ca 0C37     		adds	r7, r7, #12
 302              		.cfi_def_cfa_offset 12
 303 01cc BD46     		mov	sp, r7
 304              		.cfi_def_cfa_register 13
 305              		@ sp needed
 306 01ce 90BD     		pop	{r4, r7, pc}
 307              	.L18:
 308              		.align	2
 309              	.L17:
 310 01d0 00000000 		.word	side
 311 01d4 00000000 		.word	Positions
 312              		.cfi_endproc
 313              	.LFE63:
 314              		.size	PollingPos, .-PollingPos
 315              		.section	.rodata
 316              		.align	2
 317              	.LC0:
 318 0000 31       		.byte	49
 319 0001 32       		.byte	50
 320 0002 33       		.byte	51
 321 0003 34       		.byte	52
 322              		.align	2
 323              	.LC1:
 324 0004 5A       		.byte	90
 325 0005 A5       		.byte	-91
 326 0006 04       		.byte	4
 327 0007 80       		.byte	-128
 328 0008 03       		.byte	3
 329 0009 00       		.byte	0
 330 000a 06       		.byte	6
 331 000b 00       		.align	2
 332              	.LC2:
 333 000c 5A       		.byte	90
 334 000d A5       		.byte	-91
 335 000e 04       		.byte	4
 336 000f 80       		.byte	-128
 337 0010 03       		.byte	3
 338 0011 00       		.byte	0
 339 0012 09       		.byte	9
 340              		.section	.text.main,"ax",%progbits
 341              		.align	2
 342              		.global	main
 343              		.thumb
 344              		.thumb_func
 345              		.type	main, %function
 346              	main:
 347              	.LFB64:
  97:main.c        **** 
  98:main.c        **** /*******************************************************************************
  99:main.c        **** * Function Name: main
 100:main.c        **** ********************************************************************************
 101:main.c        **** *
 102:main.c        **** *
 103:main.c        **** *******************************************************************************/
 104:main.c        **** 
 105:main.c        **** int main()
ARM GAS  C:\Users\THERMA~1\AppData\Local\Temp\cc1whVDs.s 			page 9


 106:main.c        **** {
 348              		.loc 1 106 0
 349              		.cfi_startproc
 350              		@ args = 0, pretend = 0, frame = 56
 351              		@ frame_needed = 1, uses_anonymous_args = 0
 352 0000 90B5     		push	{r4, r7, lr}
 353              		.cfi_def_cfa_offset 12
 354              		.cfi_offset 4, -12
 355              		.cfi_offset 7, -8
 356              		.cfi_offset 14, -4
 357 0002 8FB0     		sub	sp, sp, #60
 358              		.cfi_def_cfa_offset 72
 359 0004 00AF     		add	r7, sp, #0
 360              		.cfi_def_cfa_register 7
 107:main.c        ****     /* Prepare components */
 108:main.c        ****     uint8 x,screen_size,W_autorize,y,temp;
 109:main.c        ****     uint8 passw[4]={'1','2','3','4'};
 361              		.loc 1 109 0
 362 0006 864A     		ldr	r2, .L112
 363 0008 07F11C03 		add	r3, r7, #28
 364 000c 1068     		ldr	r0, [r2]	@ unaligned
 365 000e 1860     		str	r0, [r3]	@ unaligned
 110:main.c        ****     uint8 change_pic[]={0x5A,0xA5,0x04,0x80,0x03,0x00,0x06};
 366              		.loc 1 110 0
 367 0010 844A     		ldr	r2, .L112+4
 368 0012 07F11403 		add	r3, r7, #20
 369 0016 1068     		ldr	r0, [r2]	@ unaligned
 370 0018 1860     		str	r0, [r3]	@ unaligned
 371 001a 9188     		ldrh	r1, [r2, #4]	@ unaligned
 372 001c 9279     		ldrb	r2, [r2, #6]
 373 001e 9980     		strh	r1, [r3, #4]	@ unaligned
 374 0020 9A71     		strb	r2, [r3, #6]
 111:main.c        ****     uint8 change_pic2[]={0x5A,0xA5,0x04,0x80,0x03,0x00,0x09};
 375              		.loc 1 111 0
 376 0022 814A     		ldr	r2, .L112+8
 377 0024 07F10C03 		add	r3, r7, #12
 378 0028 1068     		ldr	r0, [r2]	@ unaligned
 379 002a 1860     		str	r0, [r3]	@ unaligned
 380 002c 9188     		ldrh	r1, [r2, #4]	@ unaligned
 381 002e 9279     		ldrb	r2, [r2, #6]
 382 0030 9980     		strh	r1, [r3, #4]	@ unaligned
 383 0032 9A71     		strb	r2, [r3, #6]
 112:main.c        ****     uint8 price_change;
 113:main.c        ****     uint8 auxPrice[5];
 114:main.c        ****     DecVol = 3;
 384              		.loc 1 114 0
 385 0034 7D4B     		ldr	r3, .L112+12
 386 0036 0322     		movs	r2, #3
 387 0038 1A70     		strb	r2, [r3]
 115:main.c        ****     PWM_1_Start(); 
 388              		.loc 1 115 0
 389 003a FFF7FEFF 		bl	PWM_1_Start
 116:main.c        ****     CyGlobalIntEnable;
 390              		.loc 1 116 0
 391              		.syntax unified
 392              	@ 116 "main.c" 1
 393 003e 62B6     		CPSIE   i
ARM GAS  C:\Users\THERMA~1\AppData\Local\Temp\cc1whVDs.s 			page 10


 394              	@ 0 "" 2
 117:main.c        ****     MEPSAN_Start();
 395              		.loc 1 117 0
 396              		.thumb
 397              		.syntax unified
 398 0040 FFF7FEFF 		bl	MEPSAN_Start
 118:main.c        ****     GBCL_Start();
 399              		.loc 1 118 0
 400 0044 FFF7FEFF 		bl	GBCL_Start
 119:main.c        ****     PRINTER_A_Start();
 401              		.loc 1 119 0
 402 0048 FFF7FEFF 		bl	PRINTER_A_Start
 120:main.c        ****     screen_Start();
 403              		.loc 1 120 0
 404 004c FFF7FEFF 		bl	screen_Start
 121:main.c        ****     EEPROM_1_Start();
 405              		.loc 1 121 0
 406 0050 FFF7FEFF 		bl	EEPROM_1_Start
 122:main.c        ****     if(EEPROM_1_ReadByte(0) == 0x5A){
 407              		.loc 1 122 0
 408 0054 0020     		movs	r0, #0
 409 0056 FFF7FEFF 		bl	EEPROM_1_ReadByte
 410 005a 0346     		mov	r3, r0
 411 005c 5A2B     		cmp	r3, #90
 412 005e 19D1     		bne	.L20
 123:main.c        ****         for(x=0;x<6;x++){
 413              		.loc 1 123 0
 414 0060 0023     		movs	r3, #0
 415 0062 87F83730 		strb	r3, [r7, #55]
 416 0066 10E0     		b	.L21
 417              	.L22:
 124:main.c        ****     		sale_number[x]=EEPROM_1_ReadByte(x);
 418              		.loc 1 124 0 discriminator 3
 419 0068 97F83740 		ldrb	r4, [r7, #55]	@ zero_extendqisi2
 420 006c 97F83730 		ldrb	r3, [r7, #55]	@ zero_extendqisi2
 421 0070 9BB2     		uxth	r3, r3
 422 0072 1846     		mov	r0, r3
 423 0074 FFF7FEFF 		bl	EEPROM_1_ReadByte
 424 0078 0346     		mov	r3, r0
 425 007a 1A46     		mov	r2, r3
 426 007c 6C4B     		ldr	r3, .L112+16
 427 007e 1A55     		strb	r2, [r3, r4]
 123:main.c        ****         for(x=0;x<6;x++){
 428              		.loc 1 123 0 discriminator 3
 429 0080 97F83730 		ldrb	r3, [r7, #55]	@ zero_extendqisi2
 430 0084 0133     		adds	r3, r3, #1
 431 0086 87F83730 		strb	r3, [r7, #55]
 432              	.L21:
 123:main.c        ****         for(x=0;x<6;x++){
 433              		.loc 1 123 0 is_stmt 0 discriminator 1
 434 008a 97F83730 		ldrb	r3, [r7, #55]	@ zero_extendqisi2
 435 008e 052B     		cmp	r3, #5
 436 0090 EAD9     		bls	.L22
 437 0092 15E0     		b	.L23
 438              	.L20:
 125:main.c        ****     	}
 126:main.c        ****     }else{
ARM GAS  C:\Users\THERMA~1\AppData\Local\Temp\cc1whVDs.s 			page 11


 127:main.c        ****         EEPROM_1_WriteByte(0x5A,0);
 439              		.loc 1 127 0 is_stmt 1
 440 0094 0021     		movs	r1, #0
 441 0096 5A20     		movs	r0, #90
 442 0098 FFF7FEFF 		bl	EEPROM_1_WriteByte
 128:main.c        ****         for(x=1;x<6;x++){
 443              		.loc 1 128 0
 444 009c 0123     		movs	r3, #1
 445 009e 87F83730 		strb	r3, [r7, #55]
 446 00a2 09E0     		b	.L24
 447              	.L25:
 129:main.c        ****     		sale_number[x]='0';
 448              		.loc 1 129 0 discriminator 3
 449 00a4 97F83730 		ldrb	r3, [r7, #55]	@ zero_extendqisi2
 450 00a8 614A     		ldr	r2, .L112+16
 451 00aa 3021     		movs	r1, #48
 452 00ac D154     		strb	r1, [r2, r3]
 128:main.c        ****         for(x=1;x<6;x++){
 453              		.loc 1 128 0 discriminator 3
 454 00ae 97F83730 		ldrb	r3, [r7, #55]	@ zero_extendqisi2
 455 00b2 0133     		adds	r3, r3, #1
 456 00b4 87F83730 		strb	r3, [r7, #55]
 457              	.L24:
 128:main.c        ****         for(x=1;x<6;x++){
 458              		.loc 1 128 0 is_stmt 0 discriminator 1
 459 00b8 97F83730 		ldrb	r3, [r7, #55]	@ zero_extendqisi2
 460 00bc 052B     		cmp	r3, #5
 461 00be F1D9     		bls	.L25
 462              	.L23:
 130:main.c        ****     	}
 131:main.c        ****     }
 132:main.c        ****     int_salenumber=((sale_number[5]&0x0F)*10000)+((sale_number[4]&0x0F)*1000)+((sale_number[3]&0x0F
 463              		.loc 1 132 0 is_stmt 1
 464 00c0 5B4B     		ldr	r3, .L112+16
 465 00c2 5B79     		ldrb	r3, [r3, #5]	@ zero_extendqisi2
 466 00c4 03F00F03 		and	r3, r3, #15
 467 00c8 DBB2     		uxtb	r3, r3
 468 00ca 1B01     		lsls	r3, r3, #4
 469 00cc DAB2     		uxtb	r2, r3
 470 00ce 584B     		ldr	r3, .L112+16
 471 00d0 1B79     		ldrb	r3, [r3, #4]	@ zero_extendqisi2
 472 00d2 03F00F03 		and	r3, r3, #15
 473 00d6 DBB2     		uxtb	r3, r3
 474 00d8 1946     		mov	r1, r3
 475 00da 9B00     		lsls	r3, r3, #2
 476 00dc CB1A     		subs	r3, r1, r3
 477 00de DB00     		lsls	r3, r3, #3
 478 00e0 DBB2     		uxtb	r3, r3
 479 00e2 1344     		add	r3, r3, r2
 480 00e4 DAB2     		uxtb	r2, r3
 481 00e6 524B     		ldr	r3, .L112+16
 482 00e8 9B78     		ldrb	r3, [r3, #2]	@ zero_extendqisi2
 483 00ea 03F00F03 		and	r3, r3, #15
 484 00ee DBB2     		uxtb	r3, r3
 485 00f0 1946     		mov	r1, r3
 486 00f2 8900     		lsls	r1, r1, #2
 487 00f4 0B44     		add	r3, r3, r1
ARM GAS  C:\Users\THERMA~1\AppData\Local\Temp\cc1whVDs.s 			page 12


 488 00f6 5B00     		lsls	r3, r3, #1
 489 00f8 D9B2     		uxtb	r1, r3
 490 00fa 4D4B     		ldr	r3, .L112+16
 491 00fc DB78     		ldrb	r3, [r3, #3]	@ zero_extendqisi2
 492 00fe 03F00F03 		and	r3, r3, #15
 493 0102 DBB2     		uxtb	r3, r3
 494 0104 1846     		mov	r0, r3
 495 0106 8000     		lsls	r0, r0, #2
 496 0108 0344     		add	r3, r3, r0
 497 010a 1846     		mov	r0, r3
 498 010c 8400     		lsls	r4, r0, #2
 499 010e 1846     		mov	r0, r3
 500 0110 2346     		mov	r3, r4
 501 0112 0344     		add	r3, r3, r0
 502 0114 9B00     		lsls	r3, r3, #2
 503 0116 DBB2     		uxtb	r3, r3
 504 0118 0B44     		add	r3, r3, r1
 505 011a DBB2     		uxtb	r3, r3
 506 011c 1344     		add	r3, r3, r2
 507 011e DAB2     		uxtb	r2, r3
 508 0120 434B     		ldr	r3, .L112+16
 509 0122 5B78     		ldrb	r3, [r3, #1]	@ zero_extendqisi2
 510 0124 03F00F03 		and	r3, r3, #15
 511 0128 DBB2     		uxtb	r3, r3
 512 012a 1344     		add	r3, r3, r2
 513 012c DAB2     		uxtb	r2, r3
 514 012e 414B     		ldr	r3, .L112+20
 515 0130 1A70     		strb	r2, [r3]
 133:main.c        ****     if(EEPROM_1_ReadByte(6) == 0x5A){
 516              		.loc 1 133 0
 517 0132 0620     		movs	r0, #6
 518 0134 FFF7FEFF 		bl	EEPROM_1_ReadByte
 519 0138 0346     		mov	r3, r0
 520 013a 5A2B     		cmp	r3, #90
 521 013c 1CD1     		bne	.L26
 134:main.c        ****         for(x=0;x<6;x++){
 522              		.loc 1 134 0
 523 013e 0023     		movs	r3, #0
 524 0140 87F83730 		strb	r3, [r7, #55]
 525 0144 13E0     		b	.L27
 526              	.L28:
 135:main.c        ****     		shift_number[x+6]=EEPROM_1_ReadByte(x+6);
 527              		.loc 1 135 0 discriminator 3
 528 0146 97F83730 		ldrb	r3, [r7, #55]	@ zero_extendqisi2
 529 014a 9C1D     		adds	r4, r3, #6
 530 014c 97F83730 		ldrb	r3, [r7, #55]	@ zero_extendqisi2
 531 0150 9BB2     		uxth	r3, r3
 532 0152 0633     		adds	r3, r3, #6
 533 0154 9BB2     		uxth	r3, r3
 534 0156 1846     		mov	r0, r3
 535 0158 FFF7FEFF 		bl	EEPROM_1_ReadByte
 536 015c 0346     		mov	r3, r0
 537 015e 1A46     		mov	r2, r3
 538 0160 354B     		ldr	r3, .L112+24
 539 0162 1A55     		strb	r2, [r3, r4]
 134:main.c        ****         for(x=0;x<6;x++){
 540              		.loc 1 134 0 discriminator 3
ARM GAS  C:\Users\THERMA~1\AppData\Local\Temp\cc1whVDs.s 			page 13


 541 0164 97F83730 		ldrb	r3, [r7, #55]	@ zero_extendqisi2
 542 0168 0133     		adds	r3, r3, #1
 543 016a 87F83730 		strb	r3, [r7, #55]
 544              	.L27:
 134:main.c        ****         for(x=0;x<6;x++){
 545              		.loc 1 134 0 is_stmt 0 discriminator 1
 546 016e 97F83730 		ldrb	r3, [r7, #55]	@ zero_extendqisi2
 547 0172 052B     		cmp	r3, #5
 548 0174 E7D9     		bls	.L28
 549 0176 16E0     		b	.L29
 550              	.L26:
 136:main.c        ****     	}
 137:main.c        ****     }else{
 138:main.c        ****         EEPROM_1_WriteByte(0x5A,6);
 551              		.loc 1 138 0 is_stmt 1
 552 0178 0621     		movs	r1, #6
 553 017a 5A20     		movs	r0, #90
 554 017c FFF7FEFF 		bl	EEPROM_1_WriteByte
 139:main.c        ****         for(x=1;x<6;x++){
 555              		.loc 1 139 0
 556 0180 0123     		movs	r3, #1
 557 0182 87F83730 		strb	r3, [r7, #55]
 558 0186 0AE0     		b	.L30
 559              	.L31:
 140:main.c        ****     		shift_number[x+6]='0';
 560              		.loc 1 140 0 discriminator 3
 561 0188 97F83730 		ldrb	r3, [r7, #55]	@ zero_extendqisi2
 562 018c 0633     		adds	r3, r3, #6
 563 018e 2A4A     		ldr	r2, .L112+24
 564 0190 3021     		movs	r1, #48
 565 0192 D154     		strb	r1, [r2, r3]
 139:main.c        ****         for(x=1;x<6;x++){
 566              		.loc 1 139 0 discriminator 3
 567 0194 97F83730 		ldrb	r3, [r7, #55]	@ zero_extendqisi2
 568 0198 0133     		adds	r3, r3, #1
 569 019a 87F83730 		strb	r3, [r7, #55]
 570              	.L30:
 139:main.c        ****         for(x=1;x<6;x++){
 571              		.loc 1 139 0 is_stmt 0 discriminator 1
 572 019e 97F83730 		ldrb	r3, [r7, #55]	@ zero_extendqisi2
 573 01a2 052B     		cmp	r3, #5
 574 01a4 F0D9     		bls	.L31
 575              	.L29:
 141:main.c        ****     	}
 142:main.c        ****     }
 143:main.c        ****     int_shiftnumber=((shift_number[5]&0x0F)*10000)+((shift_number[4]&0x0F)*1000)+((shift_number[3]&
 576              		.loc 1 143 0 is_stmt 1
 577 01a6 244B     		ldr	r3, .L112+24
 578 01a8 5B79     		ldrb	r3, [r3, #5]	@ zero_extendqisi2
 579 01aa 03F00F03 		and	r3, r3, #15
 580 01ae DBB2     		uxtb	r3, r3
 581 01b0 1B01     		lsls	r3, r3, #4
 582 01b2 DAB2     		uxtb	r2, r3
 583 01b4 204B     		ldr	r3, .L112+24
 584 01b6 1B79     		ldrb	r3, [r3, #4]	@ zero_extendqisi2
 585 01b8 03F00F03 		and	r3, r3, #15
 586 01bc DBB2     		uxtb	r3, r3
ARM GAS  C:\Users\THERMA~1\AppData\Local\Temp\cc1whVDs.s 			page 14


 587 01be 1946     		mov	r1, r3
 588 01c0 9B00     		lsls	r3, r3, #2
 589 01c2 CB1A     		subs	r3, r1, r3
 590 01c4 DB00     		lsls	r3, r3, #3
 591 01c6 DBB2     		uxtb	r3, r3
 592 01c8 1344     		add	r3, r3, r2
 593 01ca DAB2     		uxtb	r2, r3
 594 01cc 1A4B     		ldr	r3, .L112+24
 595 01ce 9B78     		ldrb	r3, [r3, #2]	@ zero_extendqisi2
 596 01d0 03F00F03 		and	r3, r3, #15
 597 01d4 DBB2     		uxtb	r3, r3
 598 01d6 1946     		mov	r1, r3
 599 01d8 8900     		lsls	r1, r1, #2
 600 01da 0B44     		add	r3, r3, r1
 601 01dc 5B00     		lsls	r3, r3, #1
 602 01de D9B2     		uxtb	r1, r3
 603 01e0 154B     		ldr	r3, .L112+24
 604 01e2 DB78     		ldrb	r3, [r3, #3]	@ zero_extendqisi2
 605 01e4 03F00F03 		and	r3, r3, #15
 606 01e8 DBB2     		uxtb	r3, r3
 607 01ea 1846     		mov	r0, r3
 608 01ec 8000     		lsls	r0, r0, #2
 609 01ee 0344     		add	r3, r3, r0
 610 01f0 1846     		mov	r0, r3
 611 01f2 8400     		lsls	r4, r0, #2
 612 01f4 1846     		mov	r0, r3
 613 01f6 2346     		mov	r3, r4
 614 01f8 0344     		add	r3, r3, r0
 615 01fa 9B00     		lsls	r3, r3, #2
 616 01fc DBB2     		uxtb	r3, r3
 617 01fe 0B44     		add	r3, r3, r1
 618 0200 DBB2     		uxtb	r3, r3
 619 0202 1344     		add	r3, r3, r2
 620 0204 DAB2     		uxtb	r2, r3
 621 0206 0C4B     		ldr	r3, .L112+24
 622 0208 5B78     		ldrb	r3, [r3, #1]	@ zero_extendqisi2
 623 020a 03F00F03 		and	r3, r3, #15
 624 020e DBB2     		uxtb	r3, r3
 625 0210 1344     		add	r3, r3, r2
 626 0212 DAB2     		uxtb	r2, r3
 627 0214 094B     		ldr	r3, .L112+28
 628 0216 1A70     		strb	r2, [r3]
 144:main.c        ****     
 145:main.c        ****         
 146:main.c        ****     for(x = 0; x < 3; x ++){
 629              		.loc 1 146 0
 630 0218 0023     		movs	r3, #0
 631 021a 87F83730 		strb	r3, [r7, #55]
 632 021e 94E0     		b	.L32
 633              	.L113:
 634              		.align	2
 635              	.L112:
 636 0220 00000000 		.word	.LC0
 637 0224 04000000 		.word	.LC1
 638 0228 0C000000 		.word	.LC2
 639 022c 00000000 		.word	DecVol
 640 0230 00000000 		.word	sale_number
ARM GAS  C:\Users\THERMA~1\AppData\Local\Temp\cc1whVDs.s 			page 15


 641 0234 00000000 		.word	int_salenumber
 642 0238 00000000 		.word	shift_number
 643 023c 00000000 		.word	int_shiftnumber
 644              	.L33:
 147:main.c        ****         side.a.ppuNozzle[0][x] = EEPROM_1_ReadByte(12 + x);
 645              		.loc 1 147 0 discriminator 3
 646 0240 97F83740 		ldrb	r4, [r7, #55]	@ zero_extendqisi2
 647 0244 97F83730 		ldrb	r3, [r7, #55]	@ zero_extendqisi2
 648 0248 9BB2     		uxth	r3, r3
 649 024a 0C33     		adds	r3, r3, #12
 650 024c 9BB2     		uxth	r3, r3
 651 024e 1846     		mov	r0, r3
 652 0250 FFF7FEFF 		bl	EEPROM_1_ReadByte
 653 0254 0346     		mov	r3, r0
 654 0256 1A46     		mov	r2, r3
 655 0258 C64B     		ldr	r3, .L114
 656 025a 2344     		add	r3, r3, r4
 657 025c 83F82920 		strb	r2, [r3, #41]
 148:main.c        ****         side.a.ppuNozzle[1][x] = EEPROM_1_ReadByte(15 + x);
 658              		.loc 1 148 0 discriminator 3
 659 0260 97F83740 		ldrb	r4, [r7, #55]	@ zero_extendqisi2
 660 0264 97F83730 		ldrb	r3, [r7, #55]	@ zero_extendqisi2
 661 0268 9BB2     		uxth	r3, r3
 662 026a 0F33     		adds	r3, r3, #15
 663 026c 9BB2     		uxth	r3, r3
 664 026e 1846     		mov	r0, r3
 665 0270 FFF7FEFF 		bl	EEPROM_1_ReadByte
 666 0274 0346     		mov	r3, r0
 667 0276 1A46     		mov	r2, r3
 668 0278 BE4B     		ldr	r3, .L114
 669 027a 2344     		add	r3, r3, r4
 670 027c 83F82C20 		strb	r2, [r3, #44]
 149:main.c        ****         side.a.ppuNozzle[2][x] = EEPROM_1_ReadByte(18 + x);
 671              		.loc 1 149 0 discriminator 3
 672 0280 97F83740 		ldrb	r4, [r7, #55]	@ zero_extendqisi2
 673 0284 97F83730 		ldrb	r3, [r7, #55]	@ zero_extendqisi2
 674 0288 9BB2     		uxth	r3, r3
 675 028a 1233     		adds	r3, r3, #18
 676 028c 9BB2     		uxth	r3, r3
 677 028e 1846     		mov	r0, r3
 678 0290 FFF7FEFF 		bl	EEPROM_1_ReadByte
 679 0294 0346     		mov	r3, r0
 680 0296 1A46     		mov	r2, r3
 681 0298 B64B     		ldr	r3, .L114
 682 029a 2344     		add	r3, r3, r4
 683 029c 83F82F20 		strb	r2, [r3, #47]
 150:main.c        ****         side.a.ppuNozzle[3][x] = EEPROM_1_ReadByte(21 + x);
 684              		.loc 1 150 0 discriminator 3
 685 02a0 97F83740 		ldrb	r4, [r7, #55]	@ zero_extendqisi2
 686 02a4 97F83730 		ldrb	r3, [r7, #55]	@ zero_extendqisi2
 687 02a8 9BB2     		uxth	r3, r3
 688 02aa 1533     		adds	r3, r3, #21
 689 02ac 9BB2     		uxth	r3, r3
 690 02ae 1846     		mov	r0, r3
 691 02b0 FFF7FEFF 		bl	EEPROM_1_ReadByte
 692 02b4 0346     		mov	r3, r0
 693 02b6 1A46     		mov	r2, r3
ARM GAS  C:\Users\THERMA~1\AppData\Local\Temp\cc1whVDs.s 			page 16


 694 02b8 AE4B     		ldr	r3, .L114
 695 02ba 2344     		add	r3, r3, r4
 696 02bc 83F83220 		strb	r2, [r3, #50]
 151:main.c        ****         side.b.ppuNozzle[0][x] = EEPROM_1_ReadByte(24 + x);
 697              		.loc 1 151 0 discriminator 3
 698 02c0 97F83740 		ldrb	r4, [r7, #55]	@ zero_extendqisi2
 699 02c4 97F83730 		ldrb	r3, [r7, #55]	@ zero_extendqisi2
 700 02c8 9BB2     		uxth	r3, r3
 701 02ca 1833     		adds	r3, r3, #24
 702 02cc 9BB2     		uxth	r3, r3
 703 02ce 1846     		mov	r0, r3
 704 02d0 FFF7FEFF 		bl	EEPROM_1_ReadByte
 705 02d4 0346     		mov	r3, r0
 706 02d6 1A46     		mov	r2, r3
 707 02d8 A64B     		ldr	r3, .L114
 708 02da 2344     		add	r3, r3, r4
 709 02dc 83F85621 		strb	r2, [r3, #342]
 152:main.c        ****         side.b.ppuNozzle[1][x] = EEPROM_1_ReadByte(27 + x);
 710              		.loc 1 152 0 discriminator 3
 711 02e0 97F83740 		ldrb	r4, [r7, #55]	@ zero_extendqisi2
 712 02e4 97F83730 		ldrb	r3, [r7, #55]	@ zero_extendqisi2
 713 02e8 9BB2     		uxth	r3, r3
 714 02ea 1B33     		adds	r3, r3, #27
 715 02ec 9BB2     		uxth	r3, r3
 716 02ee 1846     		mov	r0, r3
 717 02f0 FFF7FEFF 		bl	EEPROM_1_ReadByte
 718 02f4 0346     		mov	r3, r0
 719 02f6 1A46     		mov	r2, r3
 720 02f8 9E4B     		ldr	r3, .L114
 721 02fa 2344     		add	r3, r3, r4
 722 02fc 83F85921 		strb	r2, [r3, #345]
 153:main.c        ****         side.b.ppuNozzle[2][x] = EEPROM_1_ReadByte(30 + x);
 723              		.loc 1 153 0 discriminator 3
 724 0300 97F83740 		ldrb	r4, [r7, #55]	@ zero_extendqisi2
 725 0304 97F83730 		ldrb	r3, [r7, #55]	@ zero_extendqisi2
 726 0308 9BB2     		uxth	r3, r3
 727 030a 1E33     		adds	r3, r3, #30
 728 030c 9BB2     		uxth	r3, r3
 729 030e 1846     		mov	r0, r3
 730 0310 FFF7FEFF 		bl	EEPROM_1_ReadByte
 731 0314 0346     		mov	r3, r0
 732 0316 1A46     		mov	r2, r3
 733 0318 964B     		ldr	r3, .L114
 734 031a 2344     		add	r3, r3, r4
 735 031c 83F85C21 		strb	r2, [r3, #348]
 154:main.c        ****         side.b.ppuNozzle[3][x] = EEPROM_1_ReadByte(33 + x);
 736              		.loc 1 154 0 discriminator 3
 737 0320 97F83740 		ldrb	r4, [r7, #55]	@ zero_extendqisi2
 738 0324 97F83730 		ldrb	r3, [r7, #55]	@ zero_extendqisi2
 739 0328 9BB2     		uxth	r3, r3
 740 032a 2133     		adds	r3, r3, #33
 741 032c 9BB2     		uxth	r3, r3
 742 032e 1846     		mov	r0, r3
 743 0330 FFF7FEFF 		bl	EEPROM_1_ReadByte
 744 0334 0346     		mov	r3, r0
 745 0336 1A46     		mov	r2, r3
 746 0338 8E4B     		ldr	r3, .L114
ARM GAS  C:\Users\THERMA~1\AppData\Local\Temp\cc1whVDs.s 			page 17


 747 033a 2344     		add	r3, r3, r4
 748 033c 83F85F21 		strb	r2, [r3, #351]
 146:main.c        ****         side.a.ppuNozzle[0][x] = EEPROM_1_ReadByte(12 + x);
 749              		.loc 1 146 0 discriminator 3
 750 0340 97F83730 		ldrb	r3, [r7, #55]	@ zero_extendqisi2
 751 0344 0133     		adds	r3, r3, #1
 752 0346 87F83730 		strb	r3, [r7, #55]
 753              	.L32:
 146:main.c        ****         side.a.ppuNozzle[0][x] = EEPROM_1_ReadByte(12 + x);
 754              		.loc 1 146 0 is_stmt 0 discriminator 1
 755 034a 97F83730 		ldrb	r3, [r7, #55]	@ zero_extendqisi2
 756 034e 022B     		cmp	r3, #2
 757 0350 7FF676AF 		bls	.L33
 155:main.c        ****     }
 156:main.c        ****     
 157:main.c        ****     side.a.ProcessedPPU[0][0] = (side.a.ppuNozzle[0][0] >> 4) + 0x30;
 758              		.loc 1 157 0 is_stmt 1
 759 0354 874B     		ldr	r3, .L114
 760 0356 93F82930 		ldrb	r3, [r3, #41]	@ zero_extendqisi2
 761 035a 1B09     		lsrs	r3, r3, #4
 762 035c DBB2     		uxtb	r3, r3
 763 035e 3033     		adds	r3, r3, #48
 764 0360 DAB2     		uxtb	r2, r3
 765 0362 844B     		ldr	r3, .L114
 766 0364 83F80B21 		strb	r2, [r3, #267]
 158:main.c        ****     side.a.ProcessedPPU[0][1] = (side.a.ppuNozzle[0][0] & 0x0F) + 0x30;
 767              		.loc 1 158 0
 768 0368 824B     		ldr	r3, .L114
 769 036a 93F82930 		ldrb	r3, [r3, #41]	@ zero_extendqisi2
 770 036e 03F00F03 		and	r3, r3, #15
 771 0372 DBB2     		uxtb	r3, r3
 772 0374 3033     		adds	r3, r3, #48
 773 0376 DAB2     		uxtb	r2, r3
 774 0378 7E4B     		ldr	r3, .L114
 775 037a 83F80C21 		strb	r2, [r3, #268]
 159:main.c        ****     side.a.ProcessedPPU[0][2] = (side.a.ppuNozzle[0][1] >> 4) + 0x30;
 776              		.loc 1 159 0
 777 037e 7D4B     		ldr	r3, .L114
 778 0380 93F82A30 		ldrb	r3, [r3, #42]	@ zero_extendqisi2
 779 0384 1B09     		lsrs	r3, r3, #4
 780 0386 DBB2     		uxtb	r3, r3
 781 0388 3033     		adds	r3, r3, #48
 782 038a DAB2     		uxtb	r2, r3
 783 038c 794B     		ldr	r3, .L114
 784 038e 83F80D21 		strb	r2, [r3, #269]
 160:main.c        ****     side.a.ProcessedPPU[0][3] = (side.a.ppuNozzle[0][1] & 0x0F) + 0x30;
 785              		.loc 1 160 0
 786 0392 784B     		ldr	r3, .L114
 787 0394 93F82A30 		ldrb	r3, [r3, #42]	@ zero_extendqisi2
 788 0398 03F00F03 		and	r3, r3, #15
 789 039c DBB2     		uxtb	r3, r3
 790 039e 3033     		adds	r3, r3, #48
 791 03a0 DAB2     		uxtb	r2, r3
 792 03a2 744B     		ldr	r3, .L114
 793 03a4 83F80E21 		strb	r2, [r3, #270]
 161:main.c        ****     side.a.ProcessedPPU[0][4] = (side.a.ppuNozzle[0][2] >> 4) + 0x30;
 794              		.loc 1 161 0
ARM GAS  C:\Users\THERMA~1\AppData\Local\Temp\cc1whVDs.s 			page 18


 795 03a8 724B     		ldr	r3, .L114
 796 03aa 93F82B30 		ldrb	r3, [r3, #43]	@ zero_extendqisi2
 797 03ae 1B09     		lsrs	r3, r3, #4
 798 03b0 DBB2     		uxtb	r3, r3
 799 03b2 3033     		adds	r3, r3, #48
 800 03b4 DAB2     		uxtb	r2, r3
 801 03b6 6F4B     		ldr	r3, .L114
 802 03b8 83F80F21 		strb	r2, [r3, #271]
 162:main.c        ****     side.a.ProcessedPPU[0][5] = (side.a.ppuNozzle[0][2] & 0x0F) + 0x30;
 803              		.loc 1 162 0
 804 03bc 6D4B     		ldr	r3, .L114
 805 03be 93F82B30 		ldrb	r3, [r3, #43]	@ zero_extendqisi2
 806 03c2 03F00F03 		and	r3, r3, #15
 807 03c6 DBB2     		uxtb	r3, r3
 808 03c8 3033     		adds	r3, r3, #48
 809 03ca DAB2     		uxtb	r2, r3
 810 03cc 694B     		ldr	r3, .L114
 811 03ce 83F81021 		strb	r2, [r3, #272]
 163:main.c        ****     
 164:main.c        ****     side.b.ProcessedPPU[0][0] = (side.b.ppuNozzle[0][0] >> 4) + 0x30;
 812              		.loc 1 164 0
 813 03d2 684B     		ldr	r3, .L114
 814 03d4 93F85631 		ldrb	r3, [r3, #342]	@ zero_extendqisi2
 815 03d8 1B09     		lsrs	r3, r3, #4
 816 03da DBB2     		uxtb	r3, r3
 817 03dc 3033     		adds	r3, r3, #48
 818 03de DAB2     		uxtb	r2, r3
 819 03e0 644B     		ldr	r3, .L114
 820 03e2 83F83822 		strb	r2, [r3, #568]
 165:main.c        ****     side.b.ProcessedPPU[0][1] = (side.b.ppuNozzle[0][0] & 0x0F) + 0x30;
 821              		.loc 1 165 0
 822 03e6 634B     		ldr	r3, .L114
 823 03e8 93F85631 		ldrb	r3, [r3, #342]	@ zero_extendqisi2
 824 03ec 03F00F03 		and	r3, r3, #15
 825 03f0 DBB2     		uxtb	r3, r3
 826 03f2 3033     		adds	r3, r3, #48
 827 03f4 DAB2     		uxtb	r2, r3
 828 03f6 5F4B     		ldr	r3, .L114
 829 03f8 83F83922 		strb	r2, [r3, #569]
 166:main.c        ****     side.b.ProcessedPPU[0][2] = (side.b.ppuNozzle[0][1] >> 4) + 0x30;
 830              		.loc 1 166 0
 831 03fc 5D4B     		ldr	r3, .L114
 832 03fe 93F85731 		ldrb	r3, [r3, #343]	@ zero_extendqisi2
 833 0402 1B09     		lsrs	r3, r3, #4
 834 0404 DBB2     		uxtb	r3, r3
 835 0406 3033     		adds	r3, r3, #48
 836 0408 DAB2     		uxtb	r2, r3
 837 040a 5A4B     		ldr	r3, .L114
 838 040c 83F83A22 		strb	r2, [r3, #570]
 167:main.c        ****     side.b.ProcessedPPU[0][3] = (side.b.ppuNozzle[0][1] & 0x0F) + 0x30;
 839              		.loc 1 167 0
 840 0410 584B     		ldr	r3, .L114
 841 0412 93F85731 		ldrb	r3, [r3, #343]	@ zero_extendqisi2
 842 0416 03F00F03 		and	r3, r3, #15
 843 041a DBB2     		uxtb	r3, r3
 844 041c 3033     		adds	r3, r3, #48
 845 041e DAB2     		uxtb	r2, r3
ARM GAS  C:\Users\THERMA~1\AppData\Local\Temp\cc1whVDs.s 			page 19


 846 0420 544B     		ldr	r3, .L114
 847 0422 83F83B22 		strb	r2, [r3, #571]
 168:main.c        ****     side.b.ProcessedPPU[0][4] = (side.b.ppuNozzle[0][2] >> 4) + 0x30;
 848              		.loc 1 168 0
 849 0426 534B     		ldr	r3, .L114
 850 0428 93F85831 		ldrb	r3, [r3, #344]	@ zero_extendqisi2
 851 042c 1B09     		lsrs	r3, r3, #4
 852 042e DBB2     		uxtb	r3, r3
 853 0430 3033     		adds	r3, r3, #48
 854 0432 DAB2     		uxtb	r2, r3
 855 0434 4F4B     		ldr	r3, .L114
 856 0436 83F83C22 		strb	r2, [r3, #572]
 169:main.c        ****     side.b.ProcessedPPU[0][5] = (side.b.ppuNozzle[0][2] & 0x0F) + 0x30;
 857              		.loc 1 169 0
 858 043a 4E4B     		ldr	r3, .L114
 859 043c 93F85831 		ldrb	r3, [r3, #344]	@ zero_extendqisi2
 860 0440 03F00F03 		and	r3, r3, #15
 861 0444 DBB2     		uxtb	r3, r3
 862 0446 3033     		adds	r3, r3, #48
 863 0448 DAB2     		uxtb	r2, r3
 864 044a 4A4B     		ldr	r3, .L114
 865 044c 83F83D22 		strb	r2, [r3, #573]
 866              	.LBB2:
 170:main.c        ****     
 171:main.c        ****     //while(side.a.dir == 0xFF){
 172:main.c        ****         for(uint8 y = 0; y < 16; y ++){
 867              		.loc 1 172 0
 868 0450 0023     		movs	r3, #0
 869 0452 87F83330 		strb	r3, [r7, #51]
 870 0456 0FE0     		b	.L34
 871              	.L35:
 173:main.c        ****             PumpAddress[y] = GetAddress(y); //Posiciones activas      
 872              		.loc 1 173 0 discriminator 3
 873 0458 97F83340 		ldrb	r4, [r7, #51]	@ zero_extendqisi2
 874 045c 97F83330 		ldrb	r3, [r7, #51]	@ zero_extendqisi2
 875 0460 1846     		mov	r0, r3
 876 0462 FFF7FEFF 		bl	GetAddress
 877 0466 0346     		mov	r3, r0
 878 0468 1A46     		mov	r2, r3
 879 046a 434B     		ldr	r3, .L114+4
 880 046c 1A55     		strb	r2, [r3, r4]
 172:main.c        ****             PumpAddress[y] = GetAddress(y); //Posiciones activas      
 881              		.loc 1 172 0 discriminator 3
 882 046e 97F83330 		ldrb	r3, [r7, #51]	@ zero_extendqisi2
 883 0472 0133     		adds	r3, r3, #1
 884 0474 87F83330 		strb	r3, [r7, #51]
 885              	.L34:
 172:main.c        ****             PumpAddress[y] = GetAddress(y); //Posiciones activas      
 886              		.loc 1 172 0 is_stmt 0 discriminator 1
 887 0478 97F83330 		ldrb	r3, [r7, #51]	@ zero_extendqisi2
 888 047c 0F2B     		cmp	r3, #15
 889 047e EBD9     		bls	.L35
 890              	.LBE2:
 174:main.c        ****         } 
 175:main.c        ****     //}
 176:main.c        ****     
 177:main.c        ****     side.a.dir = PumpAddress[1];
ARM GAS  C:\Users\THERMA~1\AppData\Local\Temp\cc1whVDs.s 			page 20


 891              		.loc 1 177 0 is_stmt 1
 892 0480 3D4B     		ldr	r3, .L114+4
 893 0482 5A78     		ldrb	r2, [r3, #1]	@ zero_extendqisi2
 894 0484 3B4B     		ldr	r3, .L114
 895 0486 1A70     		strb	r2, [r3]
 178:main.c        ****     side.b.dir = PumpAddress[2];
 896              		.loc 1 178 0
 897 0488 3B4B     		ldr	r3, .L114+4
 898 048a 9A78     		ldrb	r2, [r3, #2]	@ zero_extendqisi2
 899 048c 394B     		ldr	r3, .L114
 900 048e 83F82D21 		strb	r2, [r3, #301]
 179:main.c        ****     side.c.dir = PumpAddress[3];
 901              		.loc 1 179 0
 902 0492 394B     		ldr	r3, .L114+4
 903 0494 DA78     		ldrb	r2, [r3, #3]	@ zero_extendqisi2
 904 0496 374B     		ldr	r3, .L114
 905 0498 83F85A22 		strb	r2, [r3, #602]
 180:main.c        ****     side.d.dir = PumpAddress[4]; 
 906              		.loc 1 180 0
 907 049c 364B     		ldr	r3, .L114+4
 908 049e 1A79     		ldrb	r2, [r3, #4]	@ zero_extendqisi2
 909 04a0 344B     		ldr	r3, .L114
 910 04a2 83F88723 		strb	r2, [r3, #903]
 181:main.c        ****     side.a.dir = 0x00;
 911              		.loc 1 181 0
 912 04a6 334B     		ldr	r3, .L114
 913 04a8 0022     		movs	r2, #0
 914 04aa 1A70     		strb	r2, [r3]
 182:main.c        ****     side.b.dir = 0x01;
 915              		.loc 1 182 0
 916 04ac 314B     		ldr	r3, .L114
 917 04ae 0122     		movs	r2, #1
 918 04b0 83F82D21 		strb	r2, [r3, #301]
 183:main.c        ****     TotalRequestType = 0; 
 919              		.loc 1 183 0
 920 04b4 314B     		ldr	r3, .L114+8
 921 04b6 0022     		movs	r2, #0
 922 04b8 1A70     		strb	r2, [r3]
 184:main.c        ****     W_autorize = 0;        
 923              		.loc 1 184 0
 924 04ba 0023     		movs	r3, #0
 925 04bc 87F83630 		strb	r3, [r7, #54]
 185:main.c        ****     LCDhose = 0;
 926              		.loc 1 185 0
 927 04c0 2F4B     		ldr	r3, .L114+12
 928 04c2 0022     		movs	r2, #0
 929 04c4 1A70     		strb	r2, [r3]
 930              	.L107:
 186:main.c        ****     for (;;)
 187:main.c        ****     {
 188:main.c        ****         PollingPos(); 
 931              		.loc 1 188 0
 932 04c6 FFF7FEFF 		bl	PollingPos
 189:main.c        ****         //screen_PutChar(0x5A);
 190:main.c        ****         screen_size = screen_GetRxBufferSize();
 933              		.loc 1 190 0
 934 04ca FFF7FEFF 		bl	screen_GetRxBufferSize
ARM GAS  C:\Users\THERMA~1\AppData\Local\Temp\cc1whVDs.s 			page 21


 935 04ce 0346     		mov	r3, r0
 936 04d0 87F82030 		strb	r3, [r7, #32]
 191:main.c        ****         if(screen_size >= 5 ){
 937              		.loc 1 191 0
 938 04d4 97F82030 		ldrb	r3, [r7, #32]	@ zero_extendqisi2
 939 04d8 042B     		cmp	r3, #4
 940 04da 16D9     		bls	.L36
 941              	.LBB3:
 192:main.c        ****             for(uint8 LCDRx = 0; LCDRx < screen_size; LCDRx++){
 942              		.loc 1 192 0
 943 04dc 0023     		movs	r3, #0
 944 04de 87F83230 		strb	r3, [r7, #50]
 945 04e2 0CE0     		b	.L37
 946              	.L38:
 193:main.c        ****                 touch1[LCDRx] = screen_ReadRxData();
 947              		.loc 1 193 0 discriminator 3
 948 04e4 97F83240 		ldrb	r4, [r7, #50]	@ zero_extendqisi2
 949 04e8 FFF7FEFF 		bl	screen_ReadRxData
 950 04ec 0346     		mov	r3, r0
 951 04ee 1A46     		mov	r2, r3
 952 04f0 244B     		ldr	r3, .L114+16
 953 04f2 1A55     		strb	r2, [r3, r4]
 192:main.c        ****             for(uint8 LCDRx = 0; LCDRx < screen_size; LCDRx++){
 954              		.loc 1 192 0 discriminator 3
 955 04f4 97F83230 		ldrb	r3, [r7, #50]	@ zero_extendqisi2
 956 04f8 0133     		adds	r3, r3, #1
 957 04fa 87F83230 		strb	r3, [r7, #50]
 958              	.L37:
 192:main.c        ****             for(uint8 LCDRx = 0; LCDRx < screen_size; LCDRx++){
 959              		.loc 1 192 0 is_stmt 0 discriminator 1
 960 04fe 97F83220 		ldrb	r2, [r7, #50]	@ zero_extendqisi2
 961 0502 97F82030 		ldrb	r3, [r7, #32]	@ zero_extendqisi2
 962 0506 9A42     		cmp	r2, r3
 963 0508 ECD3     		bcc	.L38
 964              	.L36:
 965              	.LBE3:
 194:main.c        ****             }            
 195:main.c        ****         }
 196:main.c        ****         CyDelay(4);
 966              		.loc 1 196 0 is_stmt 1
 967 050a 0420     		movs	r0, #4
 968 050c FFF7FEFF 		bl	CyDelay
 197:main.c        ****         switch(touch1[8]){
 969              		.loc 1 197 0
 970 0510 1C4B     		ldr	r3, .L114+16
 971 0512 1B7A     		ldrb	r3, [r3, #8]	@ zero_extendqisi2
 972 0514 1C2B     		cmp	r3, #28
 973 0516 25D0     		beq	.L40
 974 0518 1C2B     		cmp	r3, #28
 975 051a 05DC     		bgt	.L41
 976 051c 0A2B     		cmp	r3, #10
 977 051e 58D0     		beq	.L42
 978 0520 0B2B     		cmp	r3, #11
 979 0522 00F0A780 		beq	.L43
 980 0526 48E1     		b	.L39
 981              	.L41:
 982 0528 CA2B     		cmp	r3, #202
ARM GAS  C:\Users\THERMA~1\AppData\Local\Temp\cc1whVDs.s 			page 22


 983 052a 3CD0     		beq	.L44
 984 052c CC2B     		cmp	r3, #204
 985 052e 00F0F780 		beq	.L45
 986 0532 AA2B     		cmp	r3, #170
 987 0534 40F04181 		bne	.L39
 198:main.c        ****         	case 0xAA:
 199:main.c        ****         		W_autorize = 1;
 988              		.loc 1 199 0
 989 0538 0123     		movs	r3, #1
 990 053a 87F83630 		strb	r3, [r7, #54]
 991              	.LBB4:
 200:main.c        ****         		for(uint8 LCDRx = 0; LCDRx < 20; LCDRx++){
 992              		.loc 1 200 0
 993 053e 0023     		movs	r3, #0
 994 0540 87F83130 		strb	r3, [r7, #49]
 995 0544 09E0     		b	.L47
 996              	.L48:
 201:main.c        ****         			touch1[LCDRx] = 0x00;
 997              		.loc 1 201 0 discriminator 3
 998 0546 97F83130 		ldrb	r3, [r7, #49]	@ zero_extendqisi2
 999 054a 0E4A     		ldr	r2, .L114+16
 1000 054c 0021     		movs	r1, #0
 1001 054e D154     		strb	r1, [r2, r3]
 200:main.c        ****         		for(uint8 LCDRx = 0; LCDRx < 20; LCDRx++){
 1002              		.loc 1 200 0 discriminator 3
 1003 0550 97F83130 		ldrb	r3, [r7, #49]	@ zero_extendqisi2
 1004 0554 0133     		adds	r3, r3, #1
 1005 0556 87F83130 		strb	r3, [r7, #49]
 1006              	.L47:
 200:main.c        ****         		for(uint8 LCDRx = 0; LCDRx < 20; LCDRx++){
 1007              		.loc 1 200 0 is_stmt 0 discriminator 1
 1008 055a 97F83130 		ldrb	r3, [r7, #49]	@ zero_extendqisi2
 1009 055e 132B     		cmp	r3, #19
 1010 0560 F1D9     		bls	.L48
 1011              	.LBE4:
 202:main.c        ****         		}
 203:main.c        ****         	break;
 1012              		.loc 1 203 0 is_stmt 1
 1013 0562 47E3     		b	.L49
 1014              	.L40:
 204:main.c        ****         	case 0x1C:
 205:main.c        ****         		W_autorize = 2;
 1015              		.loc 1 205 0
 1016 0564 0223     		movs	r3, #2
 1017 0566 87F83630 		strb	r3, [r7, #54]
 1018              	.LBB5:
 206:main.c        ****         		for(uint8 LCDRx = 0; LCDRx < 20; LCDRx++){
 1019              		.loc 1 206 0
 1020 056a 0023     		movs	r3, #0
 1021 056c 87F83030 		strb	r3, [r7, #48]
 1022 0570 14E0     		b	.L50
 1023              	.L115:
 1024 0572 00BF     		.align	2
 1025              	.L114:
 1026 0574 00000000 		.word	side
 1027 0578 00000000 		.word	PumpAddress
 1028 057c 00000000 		.word	TotalRequestType
ARM GAS  C:\Users\THERMA~1\AppData\Local\Temp\cc1whVDs.s 			page 23


 1029 0580 00000000 		.word	LCDhose
 1030 0584 00000000 		.word	touch1
 1031              	.L51:
 207:main.c        ****         			touch1[LCDRx] = 0x00;
 1032              		.loc 1 207 0 discriminator 3
 1033 0588 97F83030 		ldrb	r3, [r7, #48]	@ zero_extendqisi2
 1034 058c C84A     		ldr	r2, .L116
 1035 058e 0021     		movs	r1, #0
 1036 0590 D154     		strb	r1, [r2, r3]
 206:main.c        ****         		for(uint8 LCDRx = 0; LCDRx < 20; LCDRx++){
 1037              		.loc 1 206 0 discriminator 3
 1038 0592 97F83030 		ldrb	r3, [r7, #48]	@ zero_extendqisi2
 1039 0596 0133     		adds	r3, r3, #1
 1040 0598 87F83030 		strb	r3, [r7, #48]
 1041              	.L50:
 206:main.c        ****         		for(uint8 LCDRx = 0; LCDRx < 20; LCDRx++){
 1042              		.loc 1 206 0 is_stmt 0 discriminator 1
 1043 059c 97F83030 		ldrb	r3, [r7, #48]	@ zero_extendqisi2
 1044 05a0 132B     		cmp	r3, #19
 1045 05a2 F1D9     		bls	.L51
 1046              	.LBE5:
 208:main.c        ****         		}		
 209:main.c        ****         	break;
 1047              		.loc 1 209 0 is_stmt 1
 1048 05a4 26E3     		b	.L49
 1049              	.L44:
 210:main.c        ****         	case 0xCA:
 211:main.c        ****         		W_autorize = 3;
 1050              		.loc 1 211 0
 1051 05a6 0323     		movs	r3, #3
 1052 05a8 87F83630 		strb	r3, [r7, #54]
 1053              	.LBB6:
 212:main.c        ****         		for(uint8 LCDRx = 0; LCDRx < 20; LCDRx++){
 1054              		.loc 1 212 0
 1055 05ac 0023     		movs	r3, #0
 1056 05ae 87F82F30 		strb	r3, [r7, #47]
 1057 05b2 09E0     		b	.L52
 1058              	.L53:
 213:main.c        ****         			touch1[LCDRx] = 0x00;
 1059              		.loc 1 213 0 discriminator 3
 1060 05b4 97F82F30 		ldrb	r3, [r7, #47]	@ zero_extendqisi2
 1061 05b8 BD4A     		ldr	r2, .L116
 1062 05ba 0021     		movs	r1, #0
 1063 05bc D154     		strb	r1, [r2, r3]
 212:main.c        ****         		for(uint8 LCDRx = 0; LCDRx < 20; LCDRx++){
 1064              		.loc 1 212 0 discriminator 3
 1065 05be 97F82F30 		ldrb	r3, [r7, #47]	@ zero_extendqisi2
 1066 05c2 0133     		adds	r3, r3, #1
 1067 05c4 87F82F30 		strb	r3, [r7, #47]
 1068              	.L52:
 212:main.c        ****         		for(uint8 LCDRx = 0; LCDRx < 20; LCDRx++){
 1069              		.loc 1 212 0 is_stmt 0 discriminator 1
 1070 05c8 97F82F30 		ldrb	r3, [r7, #47]	@ zero_extendqisi2
 1071 05cc 132B     		cmp	r3, #19
 1072 05ce F1D9     		bls	.L53
 1073              	.LBE6:
 214:main.c        ****         		}		
ARM GAS  C:\Users\THERMA~1\AppData\Local\Temp\cc1whVDs.s 			page 24


 215:main.c        ****         	break;
 1074              		.loc 1 215 0 is_stmt 1
 1075 05d0 10E3     		b	.L49
 1076              	.L42:
 216:main.c        ****         	case 0x0A:
 217:main.c        ****         		if(W_autorize == 1){
 1077              		.loc 1 217 0
 1078 05d2 97F83630 		ldrb	r3, [r7, #54]	@ zero_extendqisi2
 1079 05d6 012B     		cmp	r3, #1
 1080 05d8 1FD1     		bne	.L54
 218:main.c        ****         			W_autorize = 0;                    
 1081              		.loc 1 218 0
 1082 05da 0023     		movs	r3, #0
 1083 05dc 87F83630 		strb	r3, [r7, #54]
 219:main.c        ****                     PriceUpdate(side.a.dir,side.a.ppuNozzle[0]);
 1084              		.loc 1 219 0
 1085 05e0 B44B     		ldr	r3, .L116+4
 1086 05e2 1B78     		ldrb	r3, [r3]	@ zero_extendqisi2
 1087 05e4 B449     		ldr	r1, .L116+8
 1088 05e6 1846     		mov	r0, r3
 1089 05e8 FFF7FEFF 		bl	PriceUpdate
 220:main.c        ****                     Authorize(side.a.dir);
 1090              		.loc 1 220 0
 1091 05ec B14B     		ldr	r3, .L116+4
 1092 05ee 1B78     		ldrb	r3, [r3]	@ zero_extendqisi2
 1093 05f0 1846     		mov	r0, r3
 1094 05f2 FFF7FEFF 		bl	Authorize
 1095              	.LBB7:
 221:main.c        ****                     for(uint8 LCDRx = 0; LCDRx < 20; LCDRx++){
 1096              		.loc 1 221 0
 1097 05f6 0023     		movs	r3, #0
 1098 05f8 87F82E30 		strb	r3, [r7, #46]
 1099 05fc 09E0     		b	.L55
 1100              	.L56:
 222:main.c        ****                         touch1[LCDRx] = 0x00;
 1101              		.loc 1 222 0 discriminator 3
 1102 05fe 97F82E30 		ldrb	r3, [r7, #46]	@ zero_extendqisi2
 1103 0602 AB4A     		ldr	r2, .L116
 1104 0604 0021     		movs	r1, #0
 1105 0606 D154     		strb	r1, [r2, r3]
 221:main.c        ****                     for(uint8 LCDRx = 0; LCDRx < 20; LCDRx++){
 1106              		.loc 1 221 0 discriminator 3
 1107 0608 97F82E30 		ldrb	r3, [r7, #46]	@ zero_extendqisi2
 1108 060c 0133     		adds	r3, r3, #1
 1109 060e 87F82E30 		strb	r3, [r7, #46]
 1110              	.L55:
 221:main.c        ****                     for(uint8 LCDRx = 0; LCDRx < 20; LCDRx++){
 1111              		.loc 1 221 0 is_stmt 0 discriminator 1
 1112 0612 97F82E30 		ldrb	r3, [r7, #46]	@ zero_extendqisi2
 1113 0616 132B     		cmp	r3, #19
 1114 0618 F1D9     		bls	.L56
 1115              	.L54:
 1116              	.LBE7:
 223:main.c        ****                     }
 224:main.c        ****         		}
 225:main.c        ****         		if(W_autorize == 2){ 
 1117              		.loc 1 225 0 is_stmt 1
ARM GAS  C:\Users\THERMA~1\AppData\Local\Temp\cc1whVDs.s 			page 25


 1118 061a 97F83630 		ldrb	r3, [r7, #54]	@ zero_extendqisi2
 1119 061e 022B     		cmp	r3, #2
 1120 0620 40F0E382 		bne	.L108
 226:main.c        ****                     W_autorize = 0x0A;
 1121              		.loc 1 226 0
 1122 0624 0A23     		movs	r3, #10
 1123 0626 87F83630 		strb	r3, [r7, #54]
 227:main.c        ****                     PumpState(side.a.dir);            
 1124              		.loc 1 227 0
 1125 062a A24B     		ldr	r3, .L116+4
 1126 062c 1B78     		ldrb	r3, [r3]	@ zero_extendqisi2
 1127 062e 1846     		mov	r0, r3
 1128 0630 FFF7FEFF 		bl	PumpState
 228:main.c        ****                     TotalRequest(side.a.dir, TotalRequestType, 1); //dir 0, volume, nozzle 1       
 1129              		.loc 1 228 0
 1130 0634 9F4B     		ldr	r3, .L116+4
 1131 0636 1878     		ldrb	r0, [r3]	@ zero_extendqisi2
 1132 0638 A04B     		ldr	r3, .L116+12
 1133 063a 1B78     		ldrb	r3, [r3]	@ zero_extendqisi2
 1134 063c 0122     		movs	r2, #1
 1135 063e 1946     		mov	r1, r3
 1136 0640 FFF7FEFF 		bl	TotalRequest
 229:main.c        ****                     PumpState(side.a.dir);
 1137              		.loc 1 229 0
 1138 0644 9B4B     		ldr	r3, .L116+4
 1139 0646 1B78     		ldrb	r3, [r3]	@ zero_extendqisi2
 1140 0648 1846     		mov	r0, r3
 1141 064a FFF7FEFF 		bl	PumpState
 1142              	.LBB8:
 230:main.c        ****                     for(uint8 LCDRx = 0; LCDRx < 20; LCDRx++){
 1143              		.loc 1 230 0
 1144 064e 0023     		movs	r3, #0
 1145 0650 87F82D30 		strb	r3, [r7, #45]
 1146 0654 09E0     		b	.L58
 1147              	.L59:
 231:main.c        ****                         touch1[LCDRx] = 0x00;
 1148              		.loc 1 231 0 discriminator 3
 1149 0656 97F82D30 		ldrb	r3, [r7, #45]	@ zero_extendqisi2
 1150 065a 954A     		ldr	r2, .L116
 1151 065c 0021     		movs	r1, #0
 1152 065e D154     		strb	r1, [r2, r3]
 230:main.c        ****                     for(uint8 LCDRx = 0; LCDRx < 20; LCDRx++){
 1153              		.loc 1 230 0 discriminator 3
 1154 0660 97F82D30 		ldrb	r3, [r7, #45]	@ zero_extendqisi2
 1155 0664 0133     		adds	r3, r3, #1
 1156 0666 87F82D30 		strb	r3, [r7, #45]
 1157              	.L58:
 230:main.c        ****                     for(uint8 LCDRx = 0; LCDRx < 20; LCDRx++){
 1158              		.loc 1 230 0 is_stmt 0 discriminator 1
 1159 066a 97F82D30 		ldrb	r3, [r7, #45]	@ zero_extendqisi2
 1160 066e 132B     		cmp	r3, #19
 1161 0670 F1D9     		bls	.L59
 1162              	.LBE8:
 232:main.c        ****                     }
 233:main.c        ****         		}
 234:main.c        ****         	break;
 1163              		.loc 1 234 0 is_stmt 1
ARM GAS  C:\Users\THERMA~1\AppData\Local\Temp\cc1whVDs.s 			page 26


 1164 0672 BAE2     		b	.L108
 1165              	.L43:
 235:main.c        ****         	case 0x0B:
 236:main.c        ****         		if(W_autorize == 1){
 1166              		.loc 1 236 0
 1167 0674 97F83630 		ldrb	r3, [r7, #54]	@ zero_extendqisi2
 1168 0678 012B     		cmp	r3, #1
 1169 067a 21D1     		bne	.L60
 237:main.c        ****         			W_autorize = 0;
 1170              		.loc 1 237 0
 1171 067c 0023     		movs	r3, #0
 1172 067e 87F83630 		strb	r3, [r7, #54]
 238:main.c        ****                     PriceUpdate(side.b.dir,side.b.ppuNozzle[0]);
 1173              		.loc 1 238 0
 1174 0682 8C4B     		ldr	r3, .L116+4
 1175 0684 93F82D31 		ldrb	r3, [r3, #301]	@ zero_extendqisi2
 1176 0688 8D49     		ldr	r1, .L116+16
 1177 068a 1846     		mov	r0, r3
 1178 068c FFF7FEFF 		bl	PriceUpdate
 239:main.c        ****                     Authorize(side.b.dir);
 1179              		.loc 1 239 0
 1180 0690 884B     		ldr	r3, .L116+4
 1181 0692 93F82D31 		ldrb	r3, [r3, #301]	@ zero_extendqisi2
 1182 0696 1846     		mov	r0, r3
 1183 0698 FFF7FEFF 		bl	Authorize
 1184              	.LBB9:
 240:main.c        ****                     for(uint8 LCDRx = 0; LCDRx < 20; LCDRx++){
 1185              		.loc 1 240 0
 1186 069c 0023     		movs	r3, #0
 1187 069e 87F82C30 		strb	r3, [r7, #44]
 1188 06a2 09E0     		b	.L61
 1189              	.L62:
 241:main.c        ****                         touch1[LCDRx] = 0x00;
 1190              		.loc 1 241 0 discriminator 3
 1191 06a4 97F82C30 		ldrb	r3, [r7, #44]	@ zero_extendqisi2
 1192 06a8 814A     		ldr	r2, .L116
 1193 06aa 0021     		movs	r1, #0
 1194 06ac D154     		strb	r1, [r2, r3]
 240:main.c        ****                     for(uint8 LCDRx = 0; LCDRx < 20; LCDRx++){
 1195              		.loc 1 240 0 discriminator 3
 1196 06ae 97F82C30 		ldrb	r3, [r7, #44]	@ zero_extendqisi2
 1197 06b2 0133     		adds	r3, r3, #1
 1198 06b4 87F82C30 		strb	r3, [r7, #44]
 1199              	.L61:
 240:main.c        ****                     for(uint8 LCDRx = 0; LCDRx < 20; LCDRx++){
 1200              		.loc 1 240 0 is_stmt 0 discriminator 1
 1201 06b8 97F82C30 		ldrb	r3, [r7, #44]	@ zero_extendqisi2
 1202 06bc 132B     		cmp	r3, #19
 1203 06be F1D9     		bls	.L62
 1204              	.L60:
 1205              	.LBE9:
 242:main.c        ****                     }
 243:main.c        ****         		}
 244:main.c        ****         		if(W_autorize == 2){
 1206              		.loc 1 244 0 is_stmt 1
 1207 06c0 97F83630 		ldrb	r3, [r7, #54]	@ zero_extendqisi2
 1208 06c4 022B     		cmp	r3, #2
ARM GAS  C:\Users\THERMA~1\AppData\Local\Temp\cc1whVDs.s 			page 27


 1209 06c6 40F09282 		bne	.L109
 245:main.c        ****                     W_autorize = 0x0B;
 1210              		.loc 1 245 0
 1211 06ca 0B23     		movs	r3, #11
 1212 06cc 87F83630 		strb	r3, [r7, #54]
 246:main.c        ****                     PumpState(side.b.dir);            
 1213              		.loc 1 246 0
 1214 06d0 784B     		ldr	r3, .L116+4
 1215 06d2 93F82D31 		ldrb	r3, [r3, #301]	@ zero_extendqisi2
 1216 06d6 1846     		mov	r0, r3
 1217 06d8 FFF7FEFF 		bl	PumpState
 247:main.c        ****                     TotalRequest(side.b.dir, TotalRequestType, 1); //dir 0, volume, nozzle 1       
 1218              		.loc 1 247 0
 1219 06dc 754B     		ldr	r3, .L116+4
 1220 06de 93F82D01 		ldrb	r0, [r3, #301]	@ zero_extendqisi2
 1221 06e2 764B     		ldr	r3, .L116+12
 1222 06e4 1B78     		ldrb	r3, [r3]	@ zero_extendqisi2
 1223 06e6 0122     		movs	r2, #1
 1224 06e8 1946     		mov	r1, r3
 1225 06ea FFF7FEFF 		bl	TotalRequest
 248:main.c        ****                     PumpState(side.b.dir); 
 1226              		.loc 1 248 0
 1227 06ee 714B     		ldr	r3, .L116+4
 1228 06f0 93F82D31 		ldrb	r3, [r3, #301]	@ zero_extendqisi2
 1229 06f4 1846     		mov	r0, r3
 1230 06f6 FFF7FEFF 		bl	PumpState
 1231              	.LBB10:
 249:main.c        ****                     for(uint8 LCDRx = 0; LCDRx < 20; LCDRx++){
 1232              		.loc 1 249 0
 1233 06fa 0023     		movs	r3, #0
 1234 06fc 87F82B30 		strb	r3, [r7, #43]
 1235 0700 09E0     		b	.L64
 1236              	.L65:
 250:main.c        ****                         touch1[LCDRx] = 0x00;
 1237              		.loc 1 250 0 discriminator 3
 1238 0702 97F82B30 		ldrb	r3, [r7, #43]	@ zero_extendqisi2
 1239 0706 6A4A     		ldr	r2, .L116
 1240 0708 0021     		movs	r1, #0
 1241 070a D154     		strb	r1, [r2, r3]
 249:main.c        ****                     for(uint8 LCDRx = 0; LCDRx < 20; LCDRx++){
 1242              		.loc 1 249 0 discriminator 3
 1243 070c 97F82B30 		ldrb	r3, [r7, #43]	@ zero_extendqisi2
 1244 0710 0133     		adds	r3, r3, #1
 1245 0712 87F82B30 		strb	r3, [r7, #43]
 1246              	.L64:
 249:main.c        ****                     for(uint8 LCDRx = 0; LCDRx < 20; LCDRx++){
 1247              		.loc 1 249 0 is_stmt 0 discriminator 1
 1248 0716 97F82B30 		ldrb	r3, [r7, #43]	@ zero_extendqisi2
 1249 071a 132B     		cmp	r3, #19
 1250 071c F1D9     		bls	.L65
 1251              	.LBE10:
 251:main.c        ****                     }                                                               
 252:main.c        ****                 } 
 253:main.c        ****         	break;
 1252              		.loc 1 253 0 is_stmt 1
 1253 071e 66E2     		b	.L109
 1254              	.L45:
ARM GAS  C:\Users\THERMA~1\AppData\Local\Temp\cc1whVDs.s 			page 28


 254:main.c        ****         	case 0xCC:
 255:main.c        ****         		PumpState(side.b.dir);            
 1255              		.loc 1 255 0
 1256 0720 644B     		ldr	r3, .L116+4
 1257 0722 93F82D31 		ldrb	r3, [r3, #301]	@ zero_extendqisi2
 1258 0726 1846     		mov	r0, r3
 1259 0728 FFF7FEFF 		bl	PumpState
 256:main.c        ****         		TotalRequest(side.b.dir, TotalRequestType, 1); //dir 0, volume, nozzle 1      
 1260              		.loc 1 256 0
 1261 072c 614B     		ldr	r3, .L116+4
 1262 072e 93F82D01 		ldrb	r0, [r3, #301]	@ zero_extendqisi2
 1263 0732 624B     		ldr	r3, .L116+12
 1264 0734 1B78     		ldrb	r3, [r3]	@ zero_extendqisi2
 1265 0736 0122     		movs	r2, #1
 1266 0738 1946     		mov	r1, r3
 1267 073a FFF7FEFF 		bl	TotalRequest
 257:main.c        ****                 CyDelay(10);
 1268              		.loc 1 257 0
 1269 073e 0A20     		movs	r0, #10
 1270 0740 FFF7FEFF 		bl	CyDelay
 258:main.c        ****         		PumpState(side.b.dir); 
 1271              		.loc 1 258 0
 1272 0744 5B4B     		ldr	r3, .L116+4
 1273 0746 93F82D31 		ldrb	r3, [r3, #301]	@ zero_extendqisi2
 1274 074a 1846     		mov	r0, r3
 1275 074c FFF7FEFF 		bl	PumpState
 259:main.c        ****         		PumpState(side.a.dir);            
 1276              		.loc 1 259 0
 1277 0750 584B     		ldr	r3, .L116+4
 1278 0752 1B78     		ldrb	r3, [r3]	@ zero_extendqisi2
 1279 0754 1846     		mov	r0, r3
 1280 0756 FFF7FEFF 		bl	PumpState
 260:main.c        ****         		TotalRequest(side.a.dir, TotalRequestType, 1); //dir 0, volume, nozzle 1   
 1281              		.loc 1 260 0
 1282 075a 564B     		ldr	r3, .L116+4
 1283 075c 1878     		ldrb	r0, [r3]	@ zero_extendqisi2
 1284 075e 574B     		ldr	r3, .L116+12
 1285 0760 1B78     		ldrb	r3, [r3]	@ zero_extendqisi2
 1286 0762 0122     		movs	r2, #1
 1287 0764 1946     		mov	r1, r3
 1288 0766 FFF7FEFF 		bl	TotalRequest
 261:main.c        ****                 CyDelay(10);
 1289              		.loc 1 261 0
 1290 076a 0A20     		movs	r0, #10
 1291 076c FFF7FEFF 		bl	CyDelay
 262:main.c        ****         		PumpState(side.a.dir);
 1292              		.loc 1 262 0
 1293 0770 504B     		ldr	r3, .L116+4
 1294 0772 1B78     		ldrb	r3, [r3]	@ zero_extendqisi2
 1295 0774 1846     		mov	r0, r3
 1296 0776 FFF7FEFF 		bl	PumpState
 263:main.c        ****                 PumpState(side.b.dir);
 1297              		.loc 1 263 0
 1298 077a 4E4B     		ldr	r3, .L116+4
 1299 077c 93F82D31 		ldrb	r3, [r3, #301]	@ zero_extendqisi2
 1300 0780 1846     		mov	r0, r3
 1301 0782 FFF7FEFF 		bl	PumpState
ARM GAS  C:\Users\THERMA~1\AppData\Local\Temp\cc1whVDs.s 			page 29


 264:main.c        ****                 PumpState(side.a.dir);
 1302              		.loc 1 264 0
 1303 0786 4B4B     		ldr	r3, .L116+4
 1304 0788 1B78     		ldrb	r3, [r3]	@ zero_extendqisi2
 1305 078a 1846     		mov	r0, r3
 1306 078c FFF7FEFF 		bl	PumpState
 1307              	.LBB11:
 265:main.c        ****         		for(uint8 LCDRx = 0; LCDRx < 20; LCDRx++){
 1308              		.loc 1 265 0
 1309 0790 0023     		movs	r3, #0
 1310 0792 87F82A30 		strb	r3, [r7, #42]
 1311 0796 09E0     		b	.L66
 1312              	.L67:
 266:main.c        ****         			touch1[LCDRx] = 0x00;
 1313              		.loc 1 266 0 discriminator 3
 1314 0798 97F82A30 		ldrb	r3, [r7, #42]	@ zero_extendqisi2
 1315 079c 444A     		ldr	r2, .L116
 1316 079e 0021     		movs	r1, #0
 1317 07a0 D154     		strb	r1, [r2, r3]
 265:main.c        ****         		for(uint8 LCDRx = 0; LCDRx < 20; LCDRx++){
 1318              		.loc 1 265 0 discriminator 3
 1319 07a2 97F82A30 		ldrb	r3, [r7, #42]	@ zero_extendqisi2
 1320 07a6 0133     		adds	r3, r3, #1
 1321 07a8 87F82A30 		strb	r3, [r7, #42]
 1322              	.L66:
 265:main.c        ****         		for(uint8 LCDRx = 0; LCDRx < 20; LCDRx++){
 1323              		.loc 1 265 0 is_stmt 0 discriminator 1
 1324 07ac 97F82A30 		ldrb	r3, [r7, #42]	@ zero_extendqisi2
 1325 07b0 132B     		cmp	r3, #19
 1326 07b2 F1D9     		bls	.L67
 1327              	.LBE11:
 267:main.c        ****         		}                        
 268:main.c        ****         		PrintShift(); 
 1328              		.loc 1 268 0 is_stmt 1
 1329 07b4 FFF7FEFF 		bl	PrintShift
 269:main.c        ****         	break;
 1330              		.loc 1 269 0
 1331 07b8 1CE2     		b	.L49
 1332              	.L39:
 270:main.c        ****         	default:
 271:main.c        ****                 if(touch1[3] == 0x83 && price_change == 0x0A && touch1[8] != 0xE1){
 1333              		.loc 1 271 0
 1334 07ba 3D4B     		ldr	r3, .L116
 1335 07bc DB78     		ldrb	r3, [r3, #3]	@ zero_extendqisi2
 1336 07be 832B     		cmp	r3, #131
 1337 07c0 40F0E780 		bne	.L68
 1338              		.loc 1 271 0 is_stmt 0 discriminator 1
 1339 07c4 97F83430 		ldrb	r3, [r7, #52]	@ zero_extendqisi2
 1340 07c8 0A2B     		cmp	r3, #10
 1341 07ca 40F0E280 		bne	.L68
 1342              		.loc 1 271 0 discriminator 2
 1343 07ce 384B     		ldr	r3, .L116
 1344 07d0 1B7A     		ldrb	r3, [r3, #8]	@ zero_extendqisi2
 1345 07d2 E12B     		cmp	r3, #225
 1346 07d4 00F0DD80 		beq	.L68
 1347              	.LBB12:
 272:main.c        ****                     for(uint8 LCDRx = 0; LCDRx < 6; LCDRx++){                        
ARM GAS  C:\Users\THERMA~1\AppData\Local\Temp\cc1whVDs.s 			page 30


 1348              		.loc 1 272 0 is_stmt 1
 1349 07d8 0023     		movs	r3, #0
 1350 07da 87F82930 		strb	r3, [r7, #41]
 1351 07de 0BE0     		b	.L69
 1352              	.L70:
 273:main.c        ****                         side.a.ProcessedPPU[0][LCDRx] = 0x30;
 1353              		.loc 1 273 0 discriminator 3
 1354 07e0 97F82930 		ldrb	r3, [r7, #41]	@ zero_extendqisi2
 1355 07e4 334A     		ldr	r2, .L116+4
 1356 07e6 1344     		add	r3, r3, r2
 1357 07e8 3022     		movs	r2, #48
 1358 07ea 83F80B21 		strb	r2, [r3, #267]
 272:main.c        ****                     for(uint8 LCDRx = 0; LCDRx < 6; LCDRx++){                        
 1359              		.loc 1 272 0 discriminator 3
 1360 07ee 97F82930 		ldrb	r3, [r7, #41]	@ zero_extendqisi2
 1361 07f2 0133     		adds	r3, r3, #1
 1362 07f4 87F82930 		strb	r3, [r7, #41]
 1363              	.L69:
 272:main.c        ****                     for(uint8 LCDRx = 0; LCDRx < 6; LCDRx++){                        
 1364              		.loc 1 272 0 is_stmt 0 discriminator 1
 1365 07f8 97F82930 		ldrb	r3, [r7, #41]	@ zero_extendqisi2
 1366 07fc 052B     		cmp	r3, #5
 1367 07fe EFD9     		bls	.L70
 1368              	.LBE12:
 274:main.c        ****             		}
 275:main.c        ****                     y = 0;
 1369              		.loc 1 275 0 is_stmt 1
 1370 0800 0023     		movs	r3, #0
 1371 0802 87F83530 		strb	r3, [r7, #53]
 276:main.c        ****                     LCDhose = 0;
 1372              		.loc 1 276 0
 1373 0806 2F4B     		ldr	r3, .L116+20
 1374 0808 0022     		movs	r2, #0
 1375 080a 1A70     		strb	r2, [r3]
 277:main.c        ****                     price_change = 0;
 1376              		.loc 1 277 0
 1377 080c 0023     		movs	r3, #0
 1378 080e 87F83430 		strb	r3, [r7, #52]
 1379              	.LBB13:
 278:main.c        ****                     for(uint8 LCDRx = 7; LCDRx < 12; LCDRx++){
 1380              		.loc 1 278 0
 1381 0812 0723     		movs	r3, #7
 1382 0814 87F82830 		strb	r3, [r7, #40]
 1383 0818 21E0     		b	.L71
 1384              	.L73:
 279:main.c        ****                         if((touch1[LCDRx] == 0x00) ||(touch1[LCDRx] == 0xFF))
 1385              		.loc 1 279 0
 1386 081a 97F82830 		ldrb	r3, [r7, #40]	@ zero_extendqisi2
 1387 081e 244A     		ldr	r2, .L116
 1388 0820 D35C     		ldrb	r3, [r2, r3]	@ zero_extendqisi2
 1389 0822 002B     		cmp	r3, #0
 1390 0824 1FD0     		beq	.L72
 1391              		.loc 1 279 0 is_stmt 0 discriminator 1
 1392 0826 97F82830 		ldrb	r3, [r7, #40]	@ zero_extendqisi2
 1393 082a 214A     		ldr	r2, .L116
 1394 082c D35C     		ldrb	r3, [r2, r3]	@ zero_extendqisi2
 1395 082e FF2B     		cmp	r3, #255
ARM GAS  C:\Users\THERMA~1\AppData\Local\Temp\cc1whVDs.s 			page 31


 1396 0830 19D0     		beq	.L72
 280:main.c        ****                             break;
 281:main.c        ****                         auxPrice[LCDRx-7] = touch1[LCDRx];
 1397              		.loc 1 281 0 is_stmt 1 discriminator 2
 1398 0832 97F82830 		ldrb	r3, [r7, #40]	@ zero_extendqisi2
 1399 0836 073B     		subs	r3, r3, #7
 1400 0838 97F82820 		ldrb	r2, [r7, #40]	@ zero_extendqisi2
 1401 083c 1C49     		ldr	r1, .L116
 1402 083e 8A5C     		ldrb	r2, [r1, r2]	@ zero_extendqisi2
 1403 0840 07F13801 		add	r1, r7, #56
 1404 0844 0B44     		add	r3, r3, r1
 1405 0846 03F8342C 		strb	r2, [r3, #-52]
 282:main.c        ****                         y++;
 1406              		.loc 1 282 0 discriminator 2
 1407 084a 97F83530 		ldrb	r3, [r7, #53]	@ zero_extendqisi2
 1408 084e 0133     		adds	r3, r3, #1
 1409 0850 87F83530 		strb	r3, [r7, #53]
 278:main.c        ****                         if((touch1[LCDRx] == 0x00) ||(touch1[LCDRx] == 0xFF))
 1410              		.loc 1 278 0 discriminator 2
 1411 0854 97F82830 		ldrb	r3, [r7, #40]	@ zero_extendqisi2
 1412 0858 0133     		adds	r3, r3, #1
 1413 085a 87F82830 		strb	r3, [r7, #40]
 1414              	.L71:
 278:main.c        ****                         if((touch1[LCDRx] == 0x00) ||(touch1[LCDRx] == 0xFF))
 1415              		.loc 1 278 0 is_stmt 0 discriminator 1
 1416 085e 97F82830 		ldrb	r3, [r7, #40]	@ zero_extendqisi2
 1417 0862 0B2B     		cmp	r3, #11
 1418 0864 D9D9     		bls	.L73
 1419              	.L72:
 1420              	.LBE13:
 283:main.c        ****             		}
 284:main.c        ****                     for (x = 6; x >0; x--){
 1421              		.loc 1 284 0 is_stmt 1
 1422 0866 0623     		movs	r3, #6
 1423 0868 87F83730 		strb	r3, [r7, #55]
 1424 086c 1BE0     		b	.L74
 1425              	.L77:
 285:main.c        ****                         side.a.ProcessedPPU[0][x] = auxPrice[y];                        
 1426              		.loc 1 285 0
 1427 086e 97F83730 		ldrb	r3, [r7, #55]	@ zero_extendqisi2
 1428 0872 97F83520 		ldrb	r2, [r7, #53]	@ zero_extendqisi2
 1429 0876 07F13801 		add	r1, r7, #56
 1430 087a 0A44     		add	r2, r2, r1
 1431 087c 12F8341C 		ldrb	r1, [r2, #-52]	@ zero_extendqisi2
 1432 0880 0C4A     		ldr	r2, .L116+4
 1433 0882 1344     		add	r3, r3, r2
 1434 0884 0A46     		mov	r2, r1
 1435 0886 83F80B21 		strb	r2, [r3, #267]
 286:main.c        ****                         if(y == 0 )
 1436              		.loc 1 286 0
 1437 088a 97F83530 		ldrb	r3, [r7, #53]	@ zero_extendqisi2
 1438 088e 002B     		cmp	r3, #0
 1439 0890 1AD0     		beq	.L110
 287:main.c        ****                             break;
 288:main.c        ****                         y--;
 1440              		.loc 1 288 0 discriminator 2
 1441 0892 97F83530 		ldrb	r3, [r7, #53]	@ zero_extendqisi2
ARM GAS  C:\Users\THERMA~1\AppData\Local\Temp\cc1whVDs.s 			page 32


 1442 0896 013B     		subs	r3, r3, #1
 1443 0898 87F83530 		strb	r3, [r7, #53]
 284:main.c        ****                         side.a.ProcessedPPU[0][x] = auxPrice[y];                        
 1444              		.loc 1 284 0 discriminator 2
 1445 089c 97F83730 		ldrb	r3, [r7, #55]	@ zero_extendqisi2
 1446 08a0 013B     		subs	r3, r3, #1
 1447 08a2 87F83730 		strb	r3, [r7, #55]
 1448              	.L74:
 284:main.c        ****                         side.a.ProcessedPPU[0][x] = auxPrice[y];                        
 1449              		.loc 1 284 0 is_stmt 0 discriminator 1
 1450 08a6 97F83730 		ldrb	r3, [r7, #55]	@ zero_extendqisi2
 1451 08aa 002B     		cmp	r3, #0
 1452 08ac DFD1     		bne	.L77
 1453 08ae 0CE0     		b	.L76
 1454              	.L117:
 1455              		.align	2
 1456              	.L116:
 1457 08b0 00000000 		.word	touch1
 1458 08b4 00000000 		.word	side
 1459 08b8 29000000 		.word	side+41
 1460 08bc 00000000 		.word	TotalRequestType
 1461 08c0 56010000 		.word	side+342
 1462 08c4 00000000 		.word	LCDhose
 1463              	.L110:
 287:main.c        ****                             break;
 1464              		.loc 1 287 0 is_stmt 1
 1465 08c8 00BF     		nop
 1466              	.L76:
 289:main.c        ****                     }
 290:main.c        ****                     
 291:main.c        ****                     side.a.ppuNozzle[0][0] = ((side.a.ProcessedPPU[0][0] - 0x30)<<4) |((side.a.Proc
 1467              		.loc 1 291 0
 1468 08ca BA4B     		ldr	r3, .L118
 1469 08cc 93F80B31 		ldrb	r3, [r3, #267]	@ zero_extendqisi2
 1470 08d0 303B     		subs	r3, r3, #48
 1471 08d2 1B01     		lsls	r3, r3, #4
 1472 08d4 5AB2     		sxtb	r2, r3
 1473 08d6 B74B     		ldr	r3, .L118
 1474 08d8 93F80C31 		ldrb	r3, [r3, #268]	@ zero_extendqisi2
 1475 08dc 303B     		subs	r3, r3, #48
 1476 08de DBB2     		uxtb	r3, r3
 1477 08e0 5BB2     		sxtb	r3, r3
 1478 08e2 1343     		orrs	r3, r3, r2
 1479 08e4 5BB2     		sxtb	r3, r3
 1480 08e6 DAB2     		uxtb	r2, r3
 1481 08e8 B24B     		ldr	r3, .L118
 1482 08ea 83F82920 		strb	r2, [r3, #41]
 292:main.c        ****                     side.a.ppuNozzle[0][1] = ((side.a.ProcessedPPU[0][2] - 0x30)<<4) |((side.a.Proc
 1483              		.loc 1 292 0
 1484 08ee B14B     		ldr	r3, .L118
 1485 08f0 93F80D31 		ldrb	r3, [r3, #269]	@ zero_extendqisi2
 1486 08f4 303B     		subs	r3, r3, #48
 1487 08f6 1B01     		lsls	r3, r3, #4
 1488 08f8 5AB2     		sxtb	r2, r3
 1489 08fa AE4B     		ldr	r3, .L118
 1490 08fc 93F80E31 		ldrb	r3, [r3, #270]	@ zero_extendqisi2
 1491 0900 303B     		subs	r3, r3, #48
ARM GAS  C:\Users\THERMA~1\AppData\Local\Temp\cc1whVDs.s 			page 33


 1492 0902 DBB2     		uxtb	r3, r3
 1493 0904 5BB2     		sxtb	r3, r3
 1494 0906 1343     		orrs	r3, r3, r2
 1495 0908 5BB2     		sxtb	r3, r3
 1496 090a DAB2     		uxtb	r2, r3
 1497 090c A94B     		ldr	r3, .L118
 1498 090e 83F82A20 		strb	r2, [r3, #42]
 293:main.c        ****                     side.a.ppuNozzle[0][2] = ((side.a.ProcessedPPU[0][4] - 0x30)<<4) |((side.a.Proc
 1499              		.loc 1 293 0
 1500 0912 A84B     		ldr	r3, .L118
 1501 0914 93F80F31 		ldrb	r3, [r3, #271]	@ zero_extendqisi2
 1502 0918 303B     		subs	r3, r3, #48
 1503 091a 1B01     		lsls	r3, r3, #4
 1504 091c 5AB2     		sxtb	r2, r3
 1505 091e A54B     		ldr	r3, .L118
 1506 0920 93F81031 		ldrb	r3, [r3, #272]	@ zero_extendqisi2
 1507 0924 303B     		subs	r3, r3, #48
 1508 0926 DBB2     		uxtb	r3, r3
 1509 0928 5BB2     		sxtb	r3, r3
 1510 092a 1343     		orrs	r3, r3, r2
 1511 092c 5BB2     		sxtb	r3, r3
 1512 092e DAB2     		uxtb	r2, r3
 1513 0930 A04B     		ldr	r3, .L118
 1514 0932 83F82B20 		strb	r2, [r3, #43]
 294:main.c        ****                     for(x = 0; x < 3; x++){
 1515              		.loc 1 294 0
 1516 0936 0023     		movs	r3, #0
 1517 0938 87F83730 		strb	r3, [r7, #55]
 1518 093c 13E0     		b	.L78
 1519              	.L79:
 295:main.c        ****                         EEPROM_1_WriteByte(side.a.ppuNozzle[0][x],12+x);
 1520              		.loc 1 295 0 discriminator 3
 1521 093e 97F83730 		ldrb	r3, [r7, #55]	@ zero_extendqisi2
 1522 0942 9C4A     		ldr	r2, .L118
 1523 0944 1344     		add	r3, r3, r2
 1524 0946 93F82920 		ldrb	r2, [r3, #41]	@ zero_extendqisi2
 1525 094a 97F83730 		ldrb	r3, [r7, #55]	@ zero_extendqisi2
 1526 094e 9BB2     		uxth	r3, r3
 1527 0950 0C33     		adds	r3, r3, #12
 1528 0952 9BB2     		uxth	r3, r3
 1529 0954 1946     		mov	r1, r3
 1530 0956 1046     		mov	r0, r2
 1531 0958 FFF7FEFF 		bl	EEPROM_1_WriteByte
 294:main.c        ****                     for(x = 0; x < 3; x++){
 1532              		.loc 1 294 0 discriminator 3
 1533 095c 97F83730 		ldrb	r3, [r7, #55]	@ zero_extendqisi2
 1534 0960 0133     		adds	r3, r3, #1
 1535 0962 87F83730 		strb	r3, [r7, #55]
 1536              	.L78:
 294:main.c        ****                     for(x = 0; x < 3; x++){
 1537              		.loc 1 294 0 is_stmt 0 discriminator 1
 1538 0966 97F83730 		ldrb	r3, [r7, #55]	@ zero_extendqisi2
 1539 096a 022B     		cmp	r3, #2
 1540 096c E7D9     		bls	.L79
 1541              	.LBB14:
 296:main.c        ****                     }                                                            
 297:main.c        ****                     for(uint8 LCDRx = 0; LCDRx < 20; LCDRx++){
ARM GAS  C:\Users\THERMA~1\AppData\Local\Temp\cc1whVDs.s 			page 34


 1542              		.loc 1 297 0 is_stmt 1
 1543 096e 0023     		movs	r3, #0
 1544 0970 87F82730 		strb	r3, [r7, #39]
 1545 0974 09E0     		b	.L80
 1546              	.L81:
 298:main.c        ****             			touch1[LCDRx] = 0x00;
 1547              		.loc 1 298 0 discriminator 3
 1548 0976 97F82730 		ldrb	r3, [r7, #39]	@ zero_extendqisi2
 1549 097a 8F4A     		ldr	r2, .L118+4
 1550 097c 0021     		movs	r1, #0
 1551 097e D154     		strb	r1, [r2, r3]
 297:main.c        ****             			touch1[LCDRx] = 0x00;
 1552              		.loc 1 297 0 discriminator 3
 1553 0980 97F82730 		ldrb	r3, [r7, #39]	@ zero_extendqisi2
 1554 0984 0133     		adds	r3, r3, #1
 1555 0986 87F82730 		strb	r3, [r7, #39]
 1556              	.L80:
 297:main.c        ****             			touch1[LCDRx] = 0x00;
 1557              		.loc 1 297 0 is_stmt 0 discriminator 1
 1558 098a 97F82730 		ldrb	r3, [r7, #39]	@ zero_extendqisi2
 1559 098e 132B     		cmp	r3, #19
 1560 0990 F1D9     		bls	.L81
 1561              	.L68:
 1562              	.LBE14:
 299:main.c        ****             		}
 300:main.c        ****                 }
 301:main.c        ****                 if(touch1[3] == 0x83 && price_change == 1 ){
 1563              		.loc 1 301 0 is_stmt 1
 1564 0992 894B     		ldr	r3, .L118+4
 1565 0994 DB78     		ldrb	r3, [r3, #3]	@ zero_extendqisi2
 1566 0996 832B     		cmp	r3, #131
 1567 0998 0AD1     		bne	.L82
 1568              		.loc 1 301 0 is_stmt 0 discriminator 1
 1569 099a 97F83430 		ldrb	r3, [r7, #52]	@ zero_extendqisi2
 1570 099e 012B     		cmp	r3, #1
 1571 09a0 06D1     		bne	.L82
 302:main.c        ****                     LCDhose = touch1[8];
 1572              		.loc 1 302 0 is_stmt 1
 1573 09a2 854B     		ldr	r3, .L118+4
 1574 09a4 1A7A     		ldrb	r2, [r3, #8]	@ zero_extendqisi2
 1575 09a6 854B     		ldr	r3, .L118+8
 1576 09a8 1A70     		strb	r2, [r3]
 303:main.c        ****                     price_change = 0x0A;
 1577              		.loc 1 303 0
 1578 09aa 0A23     		movs	r3, #10
 1579 09ac 87F83430 		strb	r3, [r7, #52]
 1580              	.L82:
 304:main.c        ****                 }
 305:main.c        ****         		if(touch1[3] == 0x83 && W_autorize == 3){             
 1581              		.loc 1 305 0
 1582 09b0 814B     		ldr	r3, .L118+4
 1583 09b2 DB78     		ldrb	r3, [r3, #3]	@ zero_extendqisi2
 1584 09b4 832B     		cmp	r3, #131
 1585 09b6 58D1     		bne	.L83
 1586              		.loc 1 305 0 is_stmt 0 discriminator 1
 1587 09b8 97F83630 		ldrb	r3, [r7, #54]	@ zero_extendqisi2
 1588 09bc 032B     		cmp	r3, #3
ARM GAS  C:\Users\THERMA~1\AppData\Local\Temp\cc1whVDs.s 			page 35


 1589 09be 54D1     		bne	.L83
 306:main.c        ****                     W_autorize = 0;
 1590              		.loc 1 306 0 is_stmt 1
 1591 09c0 0023     		movs	r3, #0
 1592 09c2 87F83630 		strb	r3, [r7, #54]
 307:main.c        ****                     if((touch1[7] == passw[0])&&(touch1[8] == passw[1])&&(touch1[9] == passw[2]) &&
 1593              		.loc 1 307 0
 1594 09c6 7C4B     		ldr	r3, .L118+4
 1595 09c8 DA79     		ldrb	r2, [r3, #7]	@ zero_extendqisi2
 1596 09ca 3B7F     		ldrb	r3, [r7, #28]	@ zero_extendqisi2
 1597 09cc 9A42     		cmp	r2, r3
 1598 09ce 2CD1     		bne	.L84
 1599              		.loc 1 307 0 is_stmt 0 discriminator 1
 1600 09d0 794B     		ldr	r3, .L118+4
 1601 09d2 1A7A     		ldrb	r2, [r3, #8]	@ zero_extendqisi2
 1602 09d4 7B7F     		ldrb	r3, [r7, #29]	@ zero_extendqisi2
 1603 09d6 9A42     		cmp	r2, r3
 1604 09d8 27D1     		bne	.L84
 1605              		.loc 1 307 0 discriminator 2
 1606 09da 774B     		ldr	r3, .L118+4
 1607 09dc 5A7A     		ldrb	r2, [r3, #9]	@ zero_extendqisi2
 1608 09de BB7F     		ldrb	r3, [r7, #30]	@ zero_extendqisi2
 1609 09e0 9A42     		cmp	r2, r3
 1610 09e2 22D1     		bne	.L84
 1611              		.loc 1 307 0 discriminator 3
 1612 09e4 744B     		ldr	r3, .L118+4
 1613 09e6 9A7A     		ldrb	r2, [r3, #10]	@ zero_extendqisi2
 1614 09e8 FB7F     		ldrb	r3, [r7, #31]	@ zero_extendqisi2
 1615 09ea 9A42     		cmp	r2, r3
 1616 09ec 1DD1     		bne	.L84
 1617              		.loc 1 307 0 discriminator 4
 1618 09ee 724B     		ldr	r3, .L118+4
 1619 09f0 DB7A     		ldrb	r3, [r3, #11]	@ zero_extendqisi2
 1620 09f2 FF2B     		cmp	r3, #255
 1621 09f4 19D1     		bne	.L84
 1622              	.LBB15:
 308:main.c        ****                         for(uint8 LCDRx = 0; LCDRx < 6; LCDRx++){
 1623              		.loc 1 308 0 is_stmt 1
 1624 09f6 0023     		movs	r3, #0
 1625 09f8 87F82630 		strb	r3, [r7, #38]
 1626 09fc 0EE0     		b	.L85
 1627              	.L86:
 309:main.c        ****                             screen_PutChar(change_pic[LCDRx]);
 1628              		.loc 1 309 0 discriminator 3
 1629 09fe 97F82630 		ldrb	r3, [r7, #38]	@ zero_extendqisi2
 1630 0a02 07F13802 		add	r2, r7, #56
 1631 0a06 1344     		add	r3, r3, r2
 1632 0a08 13F8243C 		ldrb	r3, [r3, #-36]	@ zero_extendqisi2
 1633 0a0c 1846     		mov	r0, r3
 1634 0a0e FFF7FEFF 		bl	screen_PutChar
 308:main.c        ****                         for(uint8 LCDRx = 0; LCDRx < 6; LCDRx++){
 1635              		.loc 1 308 0 discriminator 3
 1636 0a12 97F82630 		ldrb	r3, [r7, #38]	@ zero_extendqisi2
 1637 0a16 0133     		adds	r3, r3, #1
 1638 0a18 87F82630 		strb	r3, [r7, #38]
 1639              	.L85:
 308:main.c        ****                         for(uint8 LCDRx = 0; LCDRx < 6; LCDRx++){
ARM GAS  C:\Users\THERMA~1\AppData\Local\Temp\cc1whVDs.s 			page 36


 1640              		.loc 1 308 0 is_stmt 0 discriminator 1
 1641 0a1c 97F82630 		ldrb	r3, [r7, #38]	@ zero_extendqisi2
 1642 0a20 052B     		cmp	r3, #5
 1643 0a22 ECD9     		bls	.L86
 1644              	.LBE15:
 310:main.c        ****                         }
 311:main.c        ****                         CyDelay(4);
 1645              		.loc 1 311 0 is_stmt 1
 1646 0a24 0420     		movs	r0, #4
 1647 0a26 FFF7FEFF 		bl	CyDelay
 1648              	.L84:
 312:main.c        ****                     }
 313:main.c        ****                     if(touch1[8] == 0x01)
 1649              		.loc 1 313 0
 1650 0a2a 634B     		ldr	r3, .L118+4
 1651 0a2c 1B7A     		ldrb	r3, [r3, #8]	@ zero_extendqisi2
 1652 0a2e 012B     		cmp	r3, #1
 1653 0a30 02D1     		bne	.L87
 314:main.c        ****                         price_change = 1;
 1654              		.loc 1 314 0
 1655 0a32 0123     		movs	r3, #1
 1656 0a34 87F83430 		strb	r3, [r7, #52]
 1657              	.L87:
 315:main.c        ****                     if(touch1[8] == 0x02)
 1658              		.loc 1 315 0
 1659 0a38 5F4B     		ldr	r3, .L118+4
 1660 0a3a 1B7A     		ldrb	r3, [r3, #8]	@ zero_extendqisi2
 1661 0a3c 022B     		cmp	r3, #2
 1662 0a3e 02D1     		bne	.L88
 316:main.c        ****                         price_change = 2;
 1663              		.loc 1 316 0
 1664 0a40 0223     		movs	r3, #2
 1665 0a42 87F83430 		strb	r3, [r7, #52]
 1666              	.L88:
 1667              	.LBB16:
 317:main.c        ****                     for(uint8 LCDRx = 0; LCDRx < 20; LCDRx++){
 1668              		.loc 1 317 0
 1669 0a46 0023     		movs	r3, #0
 1670 0a48 87F82530 		strb	r3, [r7, #37]
 1671 0a4c 09E0     		b	.L89
 1672              	.L90:
 318:main.c        ****             			touch1[LCDRx] = 0x00;
 1673              		.loc 1 318 0 discriminator 3
 1674 0a4e 97F82530 		ldrb	r3, [r7, #37]	@ zero_extendqisi2
 1675 0a52 594A     		ldr	r2, .L118+4
 1676 0a54 0021     		movs	r1, #0
 1677 0a56 D154     		strb	r1, [r2, r3]
 317:main.c        ****                     for(uint8 LCDRx = 0; LCDRx < 20; LCDRx++){
 1678              		.loc 1 317 0 discriminator 3
 1679 0a58 97F82530 		ldrb	r3, [r7, #37]	@ zero_extendqisi2
 1680 0a5c 0133     		adds	r3, r3, #1
 1681 0a5e 87F82530 		strb	r3, [r7, #37]
 1682              	.L89:
 317:main.c        ****                     for(uint8 LCDRx = 0; LCDRx < 20; LCDRx++){
 1683              		.loc 1 317 0 is_stmt 0 discriminator 1
 1684 0a62 97F82530 		ldrb	r3, [r7, #37]	@ zero_extendqisi2
 1685 0a66 132B     		cmp	r3, #19
ARM GAS  C:\Users\THERMA~1\AppData\Local\Temp\cc1whVDs.s 			page 37


 1686 0a68 F1D9     		bls	.L90
 1687              	.L83:
 1688              	.LBE16:
 319:main.c        ****             		}
 320:main.c        ****                 }  
 321:main.c        ****                 if(touch1[3] == 0x83 && W_autorize == 0x0A){             
 1689              		.loc 1 321 0 is_stmt 1
 1690 0a6a 534B     		ldr	r3, .L118+4
 1691 0a6c DB78     		ldrb	r3, [r3, #3]	@ zero_extendqisi2
 1692 0a6e 832B     		cmp	r3, #131
 1693 0a70 57D1     		bne	.L91
 1694              		.loc 1 321 0 is_stmt 0 discriminator 1
 1695 0a72 97F83630 		ldrb	r3, [r7, #54]	@ zero_extendqisi2
 1696 0a76 0A2B     		cmp	r3, #10
 1697 0a78 53D1     		bne	.L91
 322:main.c        ****                     W_autorize = 0;
 1698              		.loc 1 322 0 is_stmt 1
 1699 0a7a 0023     		movs	r3, #0
 1700 0a7c 87F83630 		strb	r3, [r7, #54]
 1701              	.LBB17:
 323:main.c        ****                     for(uint8 LCDRx = 7; LCDRx < 15; LCDRx++){
 1702              		.loc 1 323 0
 1703 0a80 0723     		movs	r3, #7
 1704 0a82 87F82430 		strb	r3, [r7, #36]
 1705 0a86 31E0     		b	.L92
 1706              	.L96:
 324:main.c        ****                         if((touch1[LCDRx] == 0x00) ||(touch1[LCDRx] == 0xFF))
 1707              		.loc 1 324 0
 1708 0a88 97F82430 		ldrb	r3, [r7, #36]	@ zero_extendqisi2
 1709 0a8c 4A4A     		ldr	r2, .L118+4
 1710 0a8e D35C     		ldrb	r3, [r2, r3]	@ zero_extendqisi2
 1711 0a90 002B     		cmp	r3, #0
 1712 0a92 2FD0     		beq	.L93
 1713              		.loc 1 324 0 is_stmt 0 discriminator 1
 1714 0a94 97F82430 		ldrb	r3, [r7, #36]	@ zero_extendqisi2
 1715 0a98 474A     		ldr	r2, .L118+4
 1716 0a9a D35C     		ldrb	r3, [r2, r3]	@ zero_extendqisi2
 1717 0a9c FF2B     		cmp	r3, #255
 1718 0a9e 29D0     		beq	.L93
 325:main.c        ****                             break;
 326:main.c        ****                         if(touch1[LCDRx] < 0x40){
 1719              		.loc 1 326 0 is_stmt 1
 1720 0aa0 97F82430 		ldrb	r3, [r7, #36]	@ zero_extendqisi2
 1721 0aa4 444A     		ldr	r2, .L118+4
 1722 0aa6 D35C     		ldrb	r3, [r2, r3]	@ zero_extendqisi2
 1723 0aa8 3F2B     		cmp	r3, #63
 1724 0aaa 0CD8     		bhi	.L94
 327:main.c        ****                             side.a.msn_plate[LCDRx-7] = touch1[LCDRx];
 1725              		.loc 1 327 0
 1726 0aac 97F82430 		ldrb	r3, [r7, #36]	@ zero_extendqisi2
 1727 0ab0 073B     		subs	r3, r3, #7
 1728 0ab2 97F82420 		ldrb	r2, [r7, #36]	@ zero_extendqisi2
 1729 0ab6 4049     		ldr	r1, .L118+4
 1730 0ab8 895C     		ldrb	r1, [r1, r2]	@ zero_extendqisi2
 1731 0aba 3E4A     		ldr	r2, .L118
 1732 0abc 1344     		add	r3, r3, r2
 1733 0abe 0A46     		mov	r2, r1
ARM GAS  C:\Users\THERMA~1\AppData\Local\Temp\cc1whVDs.s 			page 38


 1734 0ac0 83F82321 		strb	r2, [r3, #291]
 1735 0ac4 0DE0     		b	.L95
 1736              	.L94:
 328:main.c        ****                         }else{
 329:main.c        ****                             side.a.msn_plate[LCDRx-7] = touch1[LCDRx]-0x20;
 1737              		.loc 1 329 0
 1738 0ac6 97F82430 		ldrb	r3, [r7, #36]	@ zero_extendqisi2
 1739 0aca 073B     		subs	r3, r3, #7
 1740 0acc 97F82420 		ldrb	r2, [r7, #36]	@ zero_extendqisi2
 1741 0ad0 3949     		ldr	r1, .L118+4
 1742 0ad2 8A5C     		ldrb	r2, [r1, r2]	@ zero_extendqisi2
 1743 0ad4 203A     		subs	r2, r2, #32
 1744 0ad6 D1B2     		uxtb	r1, r2
 1745 0ad8 364A     		ldr	r2, .L118
 1746 0ada 1344     		add	r3, r3, r2
 1747 0adc 0A46     		mov	r2, r1
 1748 0ade 83F82321 		strb	r2, [r3, #291]
 1749              	.L95:
 323:main.c        ****                         if((touch1[LCDRx] == 0x00) ||(touch1[LCDRx] == 0xFF))
 1750              		.loc 1 323 0 discriminator 2
 1751 0ae2 97F82430 		ldrb	r3, [r7, #36]	@ zero_extendqisi2
 1752 0ae6 0133     		adds	r3, r3, #1
 1753 0ae8 87F82430 		strb	r3, [r7, #36]
 1754              	.L92:
 323:main.c        ****                         if((touch1[LCDRx] == 0x00) ||(touch1[LCDRx] == 0xFF))
 1755              		.loc 1 323 0 is_stmt 0 discriminator 1
 1756 0aec 97F82430 		ldrb	r3, [r7, #36]	@ zero_extendqisi2
 1757 0af0 0E2B     		cmp	r3, #14
 1758 0af2 C9D9     		bls	.L96
 1759              	.L93:
 1760              	.LBE17:
 1761              	.LBB18:
 330:main.c        ****                         }
 331:main.c        ****             		}
 332:main.c        ****                     for(uint8 LCDRx = 0; LCDRx < 20; LCDRx++){
 1762              		.loc 1 332 0 is_stmt 1
 1763 0af4 0023     		movs	r3, #0
 1764 0af6 87F82330 		strb	r3, [r7, #35]
 1765 0afa 09E0     		b	.L97
 1766              	.L98:
 333:main.c        ****             			touch1[LCDRx] = 0x00;
 1767              		.loc 1 333 0 discriminator 3
 1768 0afc 97F82330 		ldrb	r3, [r7, #35]	@ zero_extendqisi2
 1769 0b00 2D4A     		ldr	r2, .L118+4
 1770 0b02 0021     		movs	r1, #0
 1771 0b04 D154     		strb	r1, [r2, r3]
 332:main.c        ****             			touch1[LCDRx] = 0x00;
 1772              		.loc 1 332 0 discriminator 3
 1773 0b06 97F82330 		ldrb	r3, [r7, #35]	@ zero_extendqisi2
 1774 0b0a 0133     		adds	r3, r3, #1
 1775 0b0c 87F82330 		strb	r3, [r7, #35]
 1776              	.L97:
 332:main.c        ****             			touch1[LCDRx] = 0x00;
 1777              		.loc 1 332 0 is_stmt 0 discriminator 1
 1778 0b10 97F82330 		ldrb	r3, [r7, #35]	@ zero_extendqisi2
 1779 0b14 132B     		cmp	r3, #19
 1780 0b16 F1D9     		bls	.L98
ARM GAS  C:\Users\THERMA~1\AppData\Local\Temp\cc1whVDs.s 			page 39


 1781              	.LBE18:
 334:main.c        ****             		}
 335:main.c        ****                     PrintReceipt(side.a.dir);
 1782              		.loc 1 335 0 is_stmt 1
 1783 0b18 264B     		ldr	r3, .L118
 1784 0b1a 1B78     		ldrb	r3, [r3]	@ zero_extendqisi2
 1785 0b1c 1846     		mov	r0, r3
 1786 0b1e FFF7FEFF 		bl	PrintReceipt
 1787              	.L91:
 336:main.c        ****                 }
 337:main.c        ****                 if(touch1[3] == 0x83 && W_autorize == 0x0B){             
 1788              		.loc 1 337 0
 1789 0b22 254B     		ldr	r3, .L118+4
 1790 0b24 DB78     		ldrb	r3, [r3, #3]	@ zero_extendqisi2
 1791 0b26 832B     		cmp	r3, #131
 1792 0b28 63D1     		bne	.L111
 1793              		.loc 1 337 0 is_stmt 0 discriminator 1
 1794 0b2a 97F83630 		ldrb	r3, [r7, #54]	@ zero_extendqisi2
 1795 0b2e 0B2B     		cmp	r3, #11
 1796 0b30 5FD1     		bne	.L111
 338:main.c        ****                     W_autorize = 0;
 1797              		.loc 1 338 0 is_stmt 1
 1798 0b32 0023     		movs	r3, #0
 1799 0b34 87F83630 		strb	r3, [r7, #54]
 1800              	.LBB19:
 339:main.c        ****                     for(uint8 LCDRx = 7; LCDRx < 15; LCDRx++){
 1801              		.loc 1 339 0
 1802 0b38 0723     		movs	r3, #7
 1803 0b3a 87F82230 		strb	r3, [r7, #34]
 1804 0b3e 31E0     		b	.L100
 1805              	.L104:
 340:main.c        ****                         if((touch1[LCDRx] == 0x00) ||(touch1[LCDRx] == 0xFF))
 1806              		.loc 1 340 0
 1807 0b40 97F82230 		ldrb	r3, [r7, #34]	@ zero_extendqisi2
 1808 0b44 1C4A     		ldr	r2, .L118+4
 1809 0b46 D35C     		ldrb	r3, [r2, r3]	@ zero_extendqisi2
 1810 0b48 002B     		cmp	r3, #0
 1811 0b4a 2FD0     		beq	.L101
 1812              		.loc 1 340 0 is_stmt 0 discriminator 1
 1813 0b4c 97F82230 		ldrb	r3, [r7, #34]	@ zero_extendqisi2
 1814 0b50 194A     		ldr	r2, .L118+4
 1815 0b52 D35C     		ldrb	r3, [r2, r3]	@ zero_extendqisi2
 1816 0b54 FF2B     		cmp	r3, #255
 1817 0b56 29D0     		beq	.L101
 341:main.c        ****                             break;
 342:main.c        ****                         if(touch1[LCDRx] < 0x40){
 1818              		.loc 1 342 0 is_stmt 1
 1819 0b58 97F82230 		ldrb	r3, [r7, #34]	@ zero_extendqisi2
 1820 0b5c 164A     		ldr	r2, .L118+4
 1821 0b5e D35C     		ldrb	r3, [r2, r3]	@ zero_extendqisi2
 1822 0b60 3F2B     		cmp	r3, #63
 1823 0b62 0CD8     		bhi	.L102
 343:main.c        ****                             side.b.msn_plate[LCDRx-7] = touch1[LCDRx];
 1824              		.loc 1 343 0
 1825 0b64 97F82230 		ldrb	r3, [r7, #34]	@ zero_extendqisi2
 1826 0b68 073B     		subs	r3, r3, #7
 1827 0b6a 97F82220 		ldrb	r2, [r7, #34]	@ zero_extendqisi2
ARM GAS  C:\Users\THERMA~1\AppData\Local\Temp\cc1whVDs.s 			page 40


 1828 0b6e 1249     		ldr	r1, .L118+4
 1829 0b70 895C     		ldrb	r1, [r1, r2]	@ zero_extendqisi2
 1830 0b72 104A     		ldr	r2, .L118
 1831 0b74 1344     		add	r3, r3, r2
 1832 0b76 0A46     		mov	r2, r1
 1833 0b78 83F85022 		strb	r2, [r3, #592]
 1834 0b7c 0DE0     		b	.L103
 1835              	.L102:
 344:main.c        ****                         }else{
 345:main.c        ****                             side.b.msn_plate[LCDRx-7] = touch1[LCDRx]-0x20;
 1836              		.loc 1 345 0
 1837 0b7e 97F82230 		ldrb	r3, [r7, #34]	@ zero_extendqisi2
 1838 0b82 073B     		subs	r3, r3, #7
 1839 0b84 97F82220 		ldrb	r2, [r7, #34]	@ zero_extendqisi2
 1840 0b88 0B49     		ldr	r1, .L118+4
 1841 0b8a 8A5C     		ldrb	r2, [r1, r2]	@ zero_extendqisi2
 1842 0b8c 203A     		subs	r2, r2, #32
 1843 0b8e D1B2     		uxtb	r1, r2
 1844 0b90 084A     		ldr	r2, .L118
 1845 0b92 1344     		add	r3, r3, r2
 1846 0b94 0A46     		mov	r2, r1
 1847 0b96 83F85022 		strb	r2, [r3, #592]
 1848              	.L103:
 339:main.c        ****                         if((touch1[LCDRx] == 0x00) ||(touch1[LCDRx] == 0xFF))
 1849              		.loc 1 339 0 discriminator 2
 1850 0b9a 97F82230 		ldrb	r3, [r7, #34]	@ zero_extendqisi2
 1851 0b9e 0133     		adds	r3, r3, #1
 1852 0ba0 87F82230 		strb	r3, [r7, #34]
 1853              	.L100:
 339:main.c        ****                         if((touch1[LCDRx] == 0x00) ||(touch1[LCDRx] == 0xFF))
 1854              		.loc 1 339 0 is_stmt 0 discriminator 1
 1855 0ba4 97F82230 		ldrb	r3, [r7, #34]	@ zero_extendqisi2
 1856 0ba8 0E2B     		cmp	r3, #14
 1857 0baa C9D9     		bls	.L104
 1858              	.L101:
 1859              	.LBE19:
 1860              	.LBB20:
 346:main.c        ****                         }
 347:main.c        ****             		}
 348:main.c        ****                     for(uint8 LCDRx = 0; LCDRx < 20; LCDRx++){
 1861              		.loc 1 348 0 is_stmt 1
 1862 0bac 0023     		movs	r3, #0
 1863 0bae 87F82130 		strb	r3, [r7, #33]
 1864 0bb2 0FE0     		b	.L105
 1865              	.L119:
 1866              		.align	2
 1867              	.L118:
 1868 0bb4 00000000 		.word	side
 1869 0bb8 00000000 		.word	touch1
 1870 0bbc 00000000 		.word	LCDhose
 1871              	.L106:
 349:main.c        ****             			touch1[LCDRx] = 0x00;
 1872              		.loc 1 349 0 discriminator 3
 1873 0bc0 97F82130 		ldrb	r3, [r7, #33]	@ zero_extendqisi2
 1874 0bc4 0D4A     		ldr	r2, .L120
 1875 0bc6 0021     		movs	r1, #0
 1876 0bc8 D154     		strb	r1, [r2, r3]
ARM GAS  C:\Users\THERMA~1\AppData\Local\Temp\cc1whVDs.s 			page 41


 348:main.c        ****             			touch1[LCDRx] = 0x00;
 1877              		.loc 1 348 0 discriminator 3
 1878 0bca 97F82130 		ldrb	r3, [r7, #33]	@ zero_extendqisi2
 1879 0bce 0133     		adds	r3, r3, #1
 1880 0bd0 87F82130 		strb	r3, [r7, #33]
 1881              	.L105:
 348:main.c        ****             			touch1[LCDRx] = 0x00;
 1882              		.loc 1 348 0 is_stmt 0 discriminator 1
 1883 0bd4 97F82130 		ldrb	r3, [r7, #33]	@ zero_extendqisi2
 1884 0bd8 132B     		cmp	r3, #19
 1885 0bda F1D9     		bls	.L106
 1886              	.LBE20:
 350:main.c        ****             		}
 351:main.c        ****                     PrintReceipt(side.b.dir);
 1887              		.loc 1 351 0 is_stmt 1
 1888 0bdc 084B     		ldr	r3, .L120+4
 1889 0bde 93F82D31 		ldrb	r3, [r3, #301]	@ zero_extendqisi2
 1890 0be2 1846     		mov	r0, r3
 1891 0be4 FFF7FEFF 		bl	PrintReceipt
 352:main.c        ****                 }
 353:main.c        ****                 
 354:main.c        ****         	break;
 1892              		.loc 1 354 0
 1893 0be8 03E0     		b	.L111
 1894              	.L108:
 234:main.c        ****         	case 0x0B:
 1895              		.loc 1 234 0
 1896 0bea 00BF     		nop
 1897 0bec 02E0     		b	.L49
 1898              	.L109:
 253:main.c        ****         	case 0xCC:
 1899              		.loc 1 253 0
 1900 0bee 00BF     		nop
 1901 0bf0 00E0     		b	.L49
 1902              	.L111:
 1903              		.loc 1 354 0
 1904 0bf2 00BF     		nop
 1905              	.L49:
 355:main.c        ****         }
 356:main.c        ****         screen_size = 0;
 1906              		.loc 1 356 0
 1907 0bf4 0023     		movs	r3, #0
 1908 0bf6 87F82030 		strb	r3, [r7, #32]
 357:main.c        ****     }
 1909              		.loc 1 357 0
 1910 0bfa 64E4     		b	.L107
 1911              	.L121:
 1912              		.align	2
 1913              	.L120:
 1914 0bfc 00000000 		.word	touch1
 1915 0c00 00000000 		.word	side
 1916              		.cfi_endproc
 1917              	.LFE64:
 1918              		.size	main, .-main
 1919              		.text
 1920              	.Letext0:
 1921              		.file 2 "c:\\program files (x86)\\cypress\\psoc creator\\4.2\\psoc creator\\import\\gnu\\arm\\5.4.
ARM GAS  C:\Users\THERMA~1\AppData\Local\Temp\cc1whVDs.s 			page 42


 1922              		.file 3 "c:\\program files (x86)\\cypress\\psoc creator\\4.2\\psoc creator\\import\\gnu\\arm\\5.4.
 1923              		.file 4 "Generated_Source\\PSoC5/cytypes.h"
 1924              		.file 5 "./GVar.h"
 1925              		.file 6 "Generated_Source\\PSoC5/core_cm3.h"
 1926              		.section	.debug_info,"",%progbits
 1927              	.Ldebug_info0:
 1928 0000 27070000 		.4byte	0x727
 1929 0004 0400     		.2byte	0x4
 1930 0006 00000000 		.4byte	.Ldebug_abbrev0
 1931 000a 04       		.byte	0x4
 1932 000b 01       		.uleb128 0x1
 1933 000c 75000000 		.4byte	.LASF69
 1934 0010 0C       		.byte	0xc
 1935 0011 24030000 		.4byte	.LASF70
 1936 0015 AA020000 		.4byte	.LASF71
 1937 0019 00000000 		.4byte	.Ldebug_ranges0+0
 1938 001d 00000000 		.4byte	0
 1939 0021 00000000 		.4byte	.Ldebug_line0
 1940 0025 02       		.uleb128 0x2
 1941 0026 01       		.byte	0x1
 1942 0027 06       		.byte	0x6
 1943 0028 27020000 		.4byte	.LASF0
 1944 002c 02       		.uleb128 0x2
 1945 002d 01       		.byte	0x1
 1946 002e 08       		.byte	0x8
 1947 002f FF010000 		.4byte	.LASF1
 1948 0033 02       		.uleb128 0x2
 1949 0034 02       		.byte	0x2
 1950 0035 05       		.byte	0x5
 1951 0036 4D000000 		.4byte	.LASF2
 1952 003a 02       		.uleb128 0x2
 1953 003b 02       		.byte	0x2
 1954 003c 07       		.byte	0x7
 1955 003d 7C020000 		.4byte	.LASF3
 1956 0041 03       		.uleb128 0x3
 1957 0042 60030000 		.4byte	.LASF9
 1958 0046 02       		.byte	0x2
 1959 0047 3F       		.byte	0x3f
 1960 0048 4C000000 		.4byte	0x4c
 1961 004c 02       		.uleb128 0x2
 1962 004d 04       		.byte	0x4
 1963 004e 05       		.byte	0x5
 1964 004f 78010000 		.4byte	.LASF4
 1965 0053 02       		.uleb128 0x2
 1966 0054 04       		.byte	0x4
 1967 0055 07       		.byte	0x7
 1968 0056 2B030000 		.4byte	.LASF5
 1969 005a 02       		.uleb128 0x2
 1970 005b 08       		.byte	0x8
 1971 005c 05       		.byte	0x5
 1972 005d 5B010000 		.4byte	.LASF6
 1973 0061 02       		.uleb128 0x2
 1974 0062 08       		.byte	0x8
 1975 0063 07       		.byte	0x7
 1976 0064 33020000 		.4byte	.LASF7
 1977 0068 04       		.uleb128 0x4
 1978 0069 04       		.byte	0x4
ARM GAS  C:\Users\THERMA~1\AppData\Local\Temp\cc1whVDs.s 			page 43


 1979 006a 05       		.byte	0x5
 1980 006b 696E7400 		.ascii	"int\000"
 1981 006f 02       		.uleb128 0x2
 1982 0070 04       		.byte	0x4
 1983 0071 07       		.byte	0x7
 1984 0072 55020000 		.4byte	.LASF8
 1985 0076 03       		.uleb128 0x3
 1986 0077 E4020000 		.4byte	.LASF10
 1987 007b 03       		.byte	0x3
 1988 007c 2C       		.byte	0x2c
 1989 007d 41000000 		.4byte	0x41
 1990 0081 05       		.uleb128 0x5
 1991 0082 23010000 		.4byte	.LASF11
 1992 0086 04       		.byte	0x4
 1993 0087 E401     		.2byte	0x1e4
 1994 0089 2C000000 		.4byte	0x2c
 1995 008d 05       		.uleb128 0x5
 1996 008e 12010000 		.4byte	.LASF12
 1997 0092 04       		.byte	0x4
 1998 0093 E501     		.2byte	0x1e5
 1999 0095 3A000000 		.4byte	0x3a
 2000 0099 02       		.uleb128 0x2
 2001 009a 04       		.byte	0x4
 2002 009b 04       		.byte	0x4
 2003 009c 00000000 		.4byte	.LASF13
 2004 00a0 02       		.uleb128 0x2
 2005 00a1 08       		.byte	0x8
 2006 00a2 04       		.byte	0x4
 2007 00a3 9A030000 		.4byte	.LASF14
 2008 00a7 05       		.uleb128 0x5
 2009 00a8 6F000000 		.4byte	.LASF15
 2010 00ac 04       		.byte	0x4
 2011 00ad F501     		.2byte	0x1f5
 2012 00af B3000000 		.4byte	0xb3
 2013 00b3 02       		.uleb128 0x2
 2014 00b4 01       		.byte	0x1
 2015 00b5 08       		.byte	0x8
 2016 00b6 99020000 		.4byte	.LASF16
 2017 00ba 02       		.uleb128 0x2
 2018 00bb 08       		.byte	0x8
 2019 00bc 04       		.byte	0x4
 2020 00bd E7010000 		.4byte	.LASF17
 2021 00c1 02       		.uleb128 0x2
 2022 00c2 04       		.byte	0x4
 2023 00c3 07       		.byte	0x7
 2024 00c4 57000000 		.4byte	.LASF18
 2025 00c8 06       		.uleb128 0x6
 2026 00c9 39010000 		.4byte	.LASF34
 2027 00cd 2D01     		.2byte	0x12d
 2028 00cf 05       		.byte	0x5
 2029 00d0 22       		.byte	0x22
 2030 00d1 9B010000 		.4byte	0x19b
 2031 00d5 07       		.uleb128 0x7
 2032 00d6 64697200 		.ascii	"dir\000"
 2033 00da 05       		.byte	0x5
 2034 00db 23       		.byte	0x23
 2035 00dc 81000000 		.4byte	0x81
ARM GAS  C:\Users\THERMA~1\AppData\Local\Temp\cc1whVDs.s 			page 44


 2036 00e0 00       		.byte	0
 2037 00e1 08       		.uleb128 0x8
 2038 00e2 0A030000 		.4byte	.LASF19
 2039 00e6 05       		.byte	0x5
 2040 00e7 24       		.byte	0x24
 2041 00e8 9B010000 		.4byte	0x19b
 2042 00ec 01       		.byte	0x1
 2043 00ed 08       		.uleb128 0x8
 2044 00ee 19010000 		.4byte	.LASF20
 2045 00f2 05       		.byte	0x5
 2046 00f3 25       		.byte	0x25
 2047 00f4 B7010000 		.4byte	0x1b7
 2048 00f8 29       		.byte	0x29
 2049 00f9 08       		.uleb128 0x8
 2050 00fa 8F020000 		.4byte	.LASF21
 2051 00fe 05       		.byte	0x5
 2052 00ff 26       		.byte	0x26
 2053 0100 CD010000 		.4byte	0x1cd
 2054 0104 35       		.byte	0x35
 2055 0105 08       		.uleb128 0x8
 2056 0106 C3010000 		.4byte	.LASF22
 2057 010a 05       		.byte	0x5
 2058 010b 27       		.byte	0x27
 2059 010c CD010000 		.4byte	0x1cd
 2060 0110 39       		.byte	0x39
 2061 0111 08       		.uleb128 0x8
 2062 0112 68020000 		.4byte	.LASF23
 2063 0116 05       		.byte	0x5
 2064 0117 28       		.byte	0x28
 2065 0118 DD010000 		.4byte	0x1dd
 2066 011c 3D       		.byte	0x3d
 2067 011d 08       		.uleb128 0x8
 2068 011e DB010000 		.4byte	.LASF24
 2069 0122 05       		.byte	0x5
 2070 0123 29       		.byte	0x29
 2071 0124 81000000 		.4byte	0x81
 2072 0128 4B       		.byte	0x4b
 2073 0129 08       		.uleb128 0x8
 2074 012a 69010000 		.4byte	.LASF25
 2075 012e 05       		.byte	0x5
 2076 012f 2A       		.byte	0x2a
 2077 0130 ED010000 		.4byte	0x1ed
 2078 0134 4C       		.byte	0x4c
 2079 0135 08       		.uleb128 0x8
 2080 0136 7B030000 		.4byte	.LASF26
 2081 013a 05       		.byte	0x5
 2082 013b 2B       		.byte	0x2b
 2083 013c FD010000 		.4byte	0x1fd
 2084 0140 51       		.byte	0x51
 2085 0141 08       		.uleb128 0x8
 2086 0142 38000000 		.4byte	.LASF27
 2087 0146 05       		.byte	0x5
 2088 0147 2C       		.byte	0x2c
 2089 0148 0D020000 		.4byte	0x20d
 2090 014c 83       		.byte	0x83
 2091 014d 08       		.uleb128 0x8
 2092 014e 87030000 		.4byte	.LASF28
ARM GAS  C:\Users\THERMA~1\AppData\Local\Temp\cc1whVDs.s 			page 45


 2093 0152 05       		.byte	0x5
 2094 0153 2D       		.byte	0x2d
 2095 0154 29020000 		.4byte	0x229
 2096 0158 FB       		.byte	0xfb
 2097 0159 09       		.uleb128 0x9
 2098 015a 81010000 		.4byte	.LASF29
 2099 015e 05       		.byte	0x5
 2100 015f 2E       		.byte	0x2e
 2101 0160 29020000 		.4byte	0x229
 2102 0164 0301     		.2byte	0x103
 2103 0166 09       		.uleb128 0x9
 2104 0167 17030000 		.4byte	.LASF30
 2105 016b 05       		.byte	0x5
 2106 016c 2F       		.byte	0x2f
 2107 016d 39020000 		.4byte	0x239
 2108 0171 0B01     		.2byte	0x10b
 2109 0173 09       		.uleb128 0x9
 2110 0174 D2030000 		.4byte	.LASF31
 2111 0178 05       		.byte	0x5
 2112 0179 30       		.byte	0x30
 2113 017a 29020000 		.4byte	0x229
 2114 017e 2301     		.2byte	0x123
 2115 0180 09       		.uleb128 0x9
 2116 0181 2D000000 		.4byte	.LASF32
 2117 0185 05       		.byte	0x5
 2118 0186 31       		.byte	0x31
 2119 0187 81000000 		.4byte	0x81
 2120 018b 2B01     		.2byte	0x12b
 2121 018d 09       		.uleb128 0x9
 2122 018e BB030000 		.4byte	.LASF33
 2123 0192 05       		.byte	0x5
 2124 0193 32       		.byte	0x32
 2125 0194 81000000 		.4byte	0x81
 2126 0198 2C01     		.2byte	0x12c
 2127 019a 00       		.byte	0
 2128 019b 0A       		.uleb128 0xa
 2129 019c 81000000 		.4byte	0x81
 2130 01a0 B7010000 		.4byte	0x1b7
 2131 01a4 0B       		.uleb128 0xb
 2132 01a5 C1000000 		.4byte	0xc1
 2133 01a9 03       		.byte	0x3
 2134 01aa 0B       		.uleb128 0xb
 2135 01ab C1000000 		.4byte	0xc1
 2136 01af 01       		.byte	0x1
 2137 01b0 0B       		.uleb128 0xb
 2138 01b1 C1000000 		.4byte	0xc1
 2139 01b5 04       		.byte	0x4
 2140 01b6 00       		.byte	0
 2141 01b7 0A       		.uleb128 0xa
 2142 01b8 81000000 		.4byte	0x81
 2143 01bc CD010000 		.4byte	0x1cd
 2144 01c0 0B       		.uleb128 0xb
 2145 01c1 C1000000 		.4byte	0xc1
 2146 01c5 03       		.byte	0x3
 2147 01c6 0B       		.uleb128 0xb
 2148 01c7 C1000000 		.4byte	0xc1
 2149 01cb 02       		.byte	0x2
ARM GAS  C:\Users\THERMA~1\AppData\Local\Temp\cc1whVDs.s 			page 46


 2150 01cc 00       		.byte	0
 2151 01cd 0A       		.uleb128 0xa
 2152 01ce 81000000 		.4byte	0x81
 2153 01d2 DD010000 		.4byte	0x1dd
 2154 01d6 0B       		.uleb128 0xb
 2155 01d7 C1000000 		.4byte	0xc1
 2156 01db 03       		.byte	0x3
 2157 01dc 00       		.byte	0
 2158 01dd 0A       		.uleb128 0xa
 2159 01de 81000000 		.4byte	0x81
 2160 01e2 ED010000 		.4byte	0x1ed
 2161 01e6 0B       		.uleb128 0xb
 2162 01e7 C1000000 		.4byte	0xc1
 2163 01eb 0D       		.byte	0xd
 2164 01ec 00       		.byte	0
 2165 01ed 0A       		.uleb128 0xa
 2166 01ee 81000000 		.4byte	0x81
 2167 01f2 FD010000 		.4byte	0x1fd
 2168 01f6 0B       		.uleb128 0xb
 2169 01f7 C1000000 		.4byte	0xc1
 2170 01fb 04       		.byte	0x4
 2171 01fc 00       		.byte	0
 2172 01fd 0A       		.uleb128 0xa
 2173 01fe 81000000 		.4byte	0x81
 2174 0202 0D020000 		.4byte	0x20d
 2175 0206 0B       		.uleb128 0xb
 2176 0207 C1000000 		.4byte	0xc1
 2177 020b 31       		.byte	0x31
 2178 020c 00       		.byte	0
 2179 020d 0A       		.uleb128 0xa
 2180 020e A7000000 		.4byte	0xa7
 2181 0212 29020000 		.4byte	0x229
 2182 0216 0B       		.uleb128 0xb
 2183 0217 C1000000 		.4byte	0xc1
 2184 021b 03       		.byte	0x3
 2185 021c 0B       		.uleb128 0xb
 2186 021d C1000000 		.4byte	0xc1
 2187 0221 02       		.byte	0x2
 2188 0222 0B       		.uleb128 0xb
 2189 0223 C1000000 		.4byte	0xc1
 2190 0227 09       		.byte	0x9
 2191 0228 00       		.byte	0
 2192 0229 0A       		.uleb128 0xa
 2193 022a 81000000 		.4byte	0x81
 2194 022e 39020000 		.4byte	0x239
 2195 0232 0B       		.uleb128 0xb
 2196 0233 C1000000 		.4byte	0xc1
 2197 0237 07       		.byte	0x7
 2198 0238 00       		.byte	0
 2199 0239 0A       		.uleb128 0xa
 2200 023a 81000000 		.4byte	0x81
 2201 023e 4F020000 		.4byte	0x24f
 2202 0242 0B       		.uleb128 0xb
 2203 0243 C1000000 		.4byte	0xc1
 2204 0247 03       		.byte	0x3
 2205 0248 0B       		.uleb128 0xb
 2206 0249 C1000000 		.4byte	0xc1
ARM GAS  C:\Users\THERMA~1\AppData\Local\Temp\cc1whVDs.s 			page 47


 2207 024d 05       		.byte	0x5
 2208 024e 00       		.byte	0
 2209 024f 06       		.uleb128 0x6
 2210 0250 F9020000 		.4byte	.LASF35
 2211 0254 B404     		.2byte	0x4b4
 2212 0256 05       		.byte	0x5
 2213 0257 35       		.byte	0x35
 2214 0258 88020000 		.4byte	0x288
 2215 025c 07       		.uleb128 0x7
 2216 025d 6100     		.ascii	"a\000"
 2217 025f 05       		.byte	0x5
 2218 0260 36       		.byte	0x36
 2219 0261 C8000000 		.4byte	0xc8
 2220 0265 00       		.byte	0
 2221 0266 0C       		.uleb128 0xc
 2222 0267 6200     		.ascii	"b\000"
 2223 0269 05       		.byte	0x5
 2224 026a 37       		.byte	0x37
 2225 026b C8000000 		.4byte	0xc8
 2226 026f 2D01     		.2byte	0x12d
 2227 0271 0C       		.uleb128 0xc
 2228 0272 6300     		.ascii	"c\000"
 2229 0274 05       		.byte	0x5
 2230 0275 38       		.byte	0x38
 2231 0276 C8000000 		.4byte	0xc8
 2232 027a 5A02     		.2byte	0x25a
 2233 027c 0C       		.uleb128 0xc
 2234 027d 6400     		.ascii	"d\000"
 2235 027f 05       		.byte	0x5
 2236 0280 39       		.byte	0x39
 2237 0281 C8000000 		.4byte	0xc8
 2238 0285 8703     		.2byte	0x387
 2239 0287 00       		.byte	0
 2240 0288 0D       		.uleb128 0xd
 2241 0289 06000000 		.4byte	.LASF72
 2242 028d 01       		.byte	0x1
 2243 028e 2C000000 		.4byte	0x2c
 2244 0292 05       		.byte	0x5
 2245 0293 3E       		.byte	0x3e
 2246 0294 AB020000 		.4byte	0x2ab
 2247 0298 0E       		.uleb128 0xe
 2248 0299 AE030000 		.4byte	.LASF36
 2249 029d 00       		.byte	0
 2250 029e 0E       		.uleb128 0xe
 2251 029f A7010000 		.4byte	.LASF37
 2252 02a3 06       		.byte	0x6
 2253 02a4 0E       		.uleb128 0xe
 2254 02a5 1C000000 		.4byte	.LASF38
 2255 02a9 04       		.byte	0x4
 2256 02aa 00       		.byte	0
 2257 02ab 0F       		.uleb128 0xf
 2258 02ac B8010000 		.4byte	.LASF39
 2259 02b0 01       		.byte	0x1
 2260 02b1 34       		.byte	0x34
 2261 02b2 00000000 		.4byte	.LFB63
 2262 02b6 D8010000 		.4byte	.LFE63-.LFB63
 2263 02ba 01       		.uleb128 0x1
ARM GAS  C:\Users\THERMA~1\AppData\Local\Temp\cc1whVDs.s 			page 48


 2264 02bb 9C       		.byte	0x9c
 2265 02bc CD020000 		.4byte	0x2cd
 2266 02c0 10       		.uleb128 0x10
 2267 02c1 7800     		.ascii	"x\000"
 2268 02c3 01       		.byte	0x1
 2269 02c4 35       		.byte	0x35
 2270 02c5 81000000 		.4byte	0x81
 2271 02c9 02       		.uleb128 0x2
 2272 02ca 91       		.byte	0x91
 2273 02cb 6F       		.sleb128 -17
 2274 02cc 00       		.byte	0
 2275 02cd 11       		.uleb128 0x11
 2276 02ce 03010000 		.4byte	.LASF40
 2277 02d2 01       		.byte	0x1
 2278 02d3 69       		.byte	0x69
 2279 02d4 68000000 		.4byte	0x68
 2280 02d8 00000000 		.4byte	.LFB64
 2281 02dc 040C0000 		.4byte	.LFE64-.LFB64
 2282 02e0 01       		.uleb128 0x1
 2283 02e1 9C       		.byte	0x9c
 2284 02e2 85050000 		.4byte	0x585
 2285 02e6 10       		.uleb128 0x10
 2286 02e7 7800     		.ascii	"x\000"
 2287 02e9 01       		.byte	0x1
 2288 02ea 6C       		.byte	0x6c
 2289 02eb 81000000 		.4byte	0x81
 2290 02ef 02       		.uleb128 0x2
 2291 02f0 91       		.byte	0x91
 2292 02f1 6F       		.sleb128 -17
 2293 02f2 12       		.uleb128 0x12
 2294 02f3 70020000 		.4byte	.LASF41
 2295 02f7 01       		.byte	0x1
 2296 02f8 6C       		.byte	0x6c
 2297 02f9 81000000 		.4byte	0x81
 2298 02fd 02       		.uleb128 0x2
 2299 02fe 91       		.byte	0x91
 2300 02ff 58       		.sleb128 -40
 2301 0300 12       		.uleb128 0x12
 2302 0301 9C010000 		.4byte	.LASF42
 2303 0305 01       		.byte	0x1
 2304 0306 6C       		.byte	0x6c
 2305 0307 81000000 		.4byte	0x81
 2306 030b 02       		.uleb128 0x2
 2307 030c 91       		.byte	0x91
 2308 030d 6E       		.sleb128 -18
 2309 030e 10       		.uleb128 0x10
 2310 030f 7900     		.ascii	"y\000"
 2311 0311 01       		.byte	0x1
 2312 0312 6C       		.byte	0x6c
 2313 0313 81000000 		.4byte	0x81
 2314 0317 02       		.uleb128 0x2
 2315 0318 91       		.byte	0x91
 2316 0319 6D       		.sleb128 -19
 2317 031a 13       		.uleb128 0x13
 2318 031b 48000000 		.4byte	.LASF73
 2319 031f 01       		.byte	0x1
 2320 0320 6C       		.byte	0x6c
ARM GAS  C:\Users\THERMA~1\AppData\Local\Temp\cc1whVDs.s 			page 49


 2321 0321 81000000 		.4byte	0x81
 2322 0325 12       		.uleb128 0x12
 2323 0326 55010000 		.4byte	.LASF43
 2324 032a 01       		.byte	0x1
 2325 032b 6D       		.byte	0x6d
 2326 032c CD010000 		.4byte	0x1cd
 2327 0330 02       		.uleb128 0x2
 2328 0331 91       		.byte	0x91
 2329 0332 54       		.sleb128 -44
 2330 0333 12       		.uleb128 0x12
 2331 0334 4A020000 		.4byte	.LASF44
 2332 0338 01       		.byte	0x1
 2333 0339 6E       		.byte	0x6e
 2334 033a 85050000 		.4byte	0x585
 2335 033e 02       		.uleb128 0x2
 2336 033f 91       		.byte	0x91
 2337 0340 4C       		.sleb128 -52
 2338 0341 12       		.uleb128 0x12
 2339 0342 9E020000 		.4byte	.LASF45
 2340 0346 01       		.byte	0x1
 2341 0347 6F       		.byte	0x6f
 2342 0348 85050000 		.4byte	0x585
 2343 034c 02       		.uleb128 0x2
 2344 034d 91       		.byte	0x91
 2345 034e 44       		.sleb128 -60
 2346 034f 12       		.uleb128 0x12
 2347 0350 EC020000 		.4byte	.LASF46
 2348 0354 01       		.byte	0x1
 2349 0355 70       		.byte	0x70
 2350 0356 81000000 		.4byte	0x81
 2351 035a 02       		.uleb128 0x2
 2352 035b 91       		.byte	0x91
 2353 035c 6C       		.sleb128 -20
 2354 035d 12       		.uleb128 0x12
 2355 035e C2030000 		.4byte	.LASF47
 2356 0362 01       		.byte	0x1
 2357 0363 71       		.byte	0x71
 2358 0364 ED010000 		.4byte	0x1ed
 2359 0368 03       		.uleb128 0x3
 2360 0369 91       		.byte	0x91
 2361 036a BC7F     		.sleb128 -68
 2362 036c 14       		.uleb128 0x14
 2363 036d 50040000 		.4byte	.LBB2
 2364 0371 30000000 		.4byte	.LBE2-.LBB2
 2365 0375 86030000 		.4byte	0x386
 2366 0379 10       		.uleb128 0x10
 2367 037a 7900     		.ascii	"y\000"
 2368 037c 01       		.byte	0x1
 2369 037d AC       		.byte	0xac
 2370 037e 81000000 		.4byte	0x81
 2371 0382 02       		.uleb128 0x2
 2372 0383 91       		.byte	0x91
 2373 0384 6B       		.sleb128 -21
 2374 0385 00       		.byte	0
 2375 0386 14       		.uleb128 0x14
 2376 0387 DC040000 		.4byte	.LBB3
 2377 038b 2E000000 		.4byte	.LBE3-.LBB3
ARM GAS  C:\Users\THERMA~1\AppData\Local\Temp\cc1whVDs.s 			page 50


 2378 038f A2030000 		.4byte	0x3a2
 2379 0393 12       		.uleb128 0x12
 2380 0394 62020000 		.4byte	.LASF48
 2381 0398 01       		.byte	0x1
 2382 0399 C0       		.byte	0xc0
 2383 039a 81000000 		.4byte	0x81
 2384 039e 02       		.uleb128 0x2
 2385 039f 91       		.byte	0x91
 2386 03a0 6A       		.sleb128 -22
 2387 03a1 00       		.byte	0
 2388 03a2 14       		.uleb128 0x14
 2389 03a3 3E050000 		.4byte	.LBB4
 2390 03a7 24000000 		.4byte	.LBE4-.LBB4
 2391 03ab BE030000 		.4byte	0x3be
 2392 03af 12       		.uleb128 0x12
 2393 03b0 62020000 		.4byte	.LASF48
 2394 03b4 01       		.byte	0x1
 2395 03b5 C8       		.byte	0xc8
 2396 03b6 81000000 		.4byte	0x81
 2397 03ba 02       		.uleb128 0x2
 2398 03bb 91       		.byte	0x91
 2399 03bc 69       		.sleb128 -23
 2400 03bd 00       		.byte	0
 2401 03be 14       		.uleb128 0x14
 2402 03bf 6A050000 		.4byte	.LBB5
 2403 03c3 3A000000 		.4byte	.LBE5-.LBB5
 2404 03c7 DA030000 		.4byte	0x3da
 2405 03cb 12       		.uleb128 0x12
 2406 03cc 62020000 		.4byte	.LASF48
 2407 03d0 01       		.byte	0x1
 2408 03d1 CE       		.byte	0xce
 2409 03d2 81000000 		.4byte	0x81
 2410 03d6 02       		.uleb128 0x2
 2411 03d7 91       		.byte	0x91
 2412 03d8 68       		.sleb128 -24
 2413 03d9 00       		.byte	0
 2414 03da 14       		.uleb128 0x14
 2415 03db AC050000 		.4byte	.LBB6
 2416 03df 24000000 		.4byte	.LBE6-.LBB6
 2417 03e3 F6030000 		.4byte	0x3f6
 2418 03e7 12       		.uleb128 0x12
 2419 03e8 62020000 		.4byte	.LASF48
 2420 03ec 01       		.byte	0x1
 2421 03ed D4       		.byte	0xd4
 2422 03ee 81000000 		.4byte	0x81
 2423 03f2 02       		.uleb128 0x2
 2424 03f3 91       		.byte	0x91
 2425 03f4 67       		.sleb128 -25
 2426 03f5 00       		.byte	0
 2427 03f6 14       		.uleb128 0x14
 2428 03f7 F6050000 		.4byte	.LBB7
 2429 03fb 24000000 		.4byte	.LBE7-.LBB7
 2430 03ff 12040000 		.4byte	0x412
 2431 0403 12       		.uleb128 0x12
 2432 0404 62020000 		.4byte	.LASF48
 2433 0408 01       		.byte	0x1
 2434 0409 DD       		.byte	0xdd
ARM GAS  C:\Users\THERMA~1\AppData\Local\Temp\cc1whVDs.s 			page 51


 2435 040a 81000000 		.4byte	0x81
 2436 040e 02       		.uleb128 0x2
 2437 040f 91       		.byte	0x91
 2438 0410 66       		.sleb128 -26
 2439 0411 00       		.byte	0
 2440 0412 14       		.uleb128 0x14
 2441 0413 4E060000 		.4byte	.LBB8
 2442 0417 24000000 		.4byte	.LBE8-.LBB8
 2443 041b 2E040000 		.4byte	0x42e
 2444 041f 12       		.uleb128 0x12
 2445 0420 62020000 		.4byte	.LASF48
 2446 0424 01       		.byte	0x1
 2447 0425 E6       		.byte	0xe6
 2448 0426 81000000 		.4byte	0x81
 2449 042a 02       		.uleb128 0x2
 2450 042b 91       		.byte	0x91
 2451 042c 65       		.sleb128 -27
 2452 042d 00       		.byte	0
 2453 042e 14       		.uleb128 0x14
 2454 042f 9C060000 		.4byte	.LBB9
 2455 0433 24000000 		.4byte	.LBE9-.LBB9
 2456 0437 4A040000 		.4byte	0x44a
 2457 043b 12       		.uleb128 0x12
 2458 043c 62020000 		.4byte	.LASF48
 2459 0440 01       		.byte	0x1
 2460 0441 F0       		.byte	0xf0
 2461 0442 81000000 		.4byte	0x81
 2462 0446 02       		.uleb128 0x2
 2463 0447 91       		.byte	0x91
 2464 0448 64       		.sleb128 -28
 2465 0449 00       		.byte	0
 2466 044a 14       		.uleb128 0x14
 2467 044b FA060000 		.4byte	.LBB10
 2468 044f 24000000 		.4byte	.LBE10-.LBB10
 2469 0453 66040000 		.4byte	0x466
 2470 0457 12       		.uleb128 0x12
 2471 0458 62020000 		.4byte	.LASF48
 2472 045c 01       		.byte	0x1
 2473 045d F9       		.byte	0xf9
 2474 045e 81000000 		.4byte	0x81
 2475 0462 02       		.uleb128 0x2
 2476 0463 91       		.byte	0x91
 2477 0464 63       		.sleb128 -29
 2478 0465 00       		.byte	0
 2479 0466 14       		.uleb128 0x14
 2480 0467 90070000 		.4byte	.LBB11
 2481 046b 24000000 		.4byte	.LBE11-.LBB11
 2482 046f 83040000 		.4byte	0x483
 2483 0473 15       		.uleb128 0x15
 2484 0474 62020000 		.4byte	.LASF48
 2485 0478 01       		.byte	0x1
 2486 0479 0901     		.2byte	0x109
 2487 047b 81000000 		.4byte	0x81
 2488 047f 02       		.uleb128 0x2
 2489 0480 91       		.byte	0x91
 2490 0481 62       		.sleb128 -30
 2491 0482 00       		.byte	0
ARM GAS  C:\Users\THERMA~1\AppData\Local\Temp\cc1whVDs.s 			page 52


 2492 0483 14       		.uleb128 0x14
 2493 0484 D8070000 		.4byte	.LBB12
 2494 0488 28000000 		.4byte	.LBE12-.LBB12
 2495 048c A0040000 		.4byte	0x4a0
 2496 0490 15       		.uleb128 0x15
 2497 0491 62020000 		.4byte	.LASF48
 2498 0495 01       		.byte	0x1
 2499 0496 1001     		.2byte	0x110
 2500 0498 81000000 		.4byte	0x81
 2501 049c 02       		.uleb128 0x2
 2502 049d 91       		.byte	0x91
 2503 049e 61       		.sleb128 -31
 2504 049f 00       		.byte	0
 2505 04a0 14       		.uleb128 0x14
 2506 04a1 12080000 		.4byte	.LBB13
 2507 04a5 54000000 		.4byte	.LBE13-.LBB13
 2508 04a9 BD040000 		.4byte	0x4bd
 2509 04ad 15       		.uleb128 0x15
 2510 04ae 62020000 		.4byte	.LASF48
 2511 04b2 01       		.byte	0x1
 2512 04b3 1601     		.2byte	0x116
 2513 04b5 81000000 		.4byte	0x81
 2514 04b9 02       		.uleb128 0x2
 2515 04ba 91       		.byte	0x91
 2516 04bb 60       		.sleb128 -32
 2517 04bc 00       		.byte	0
 2518 04bd 14       		.uleb128 0x14
 2519 04be 6E090000 		.4byte	.LBB14
 2520 04c2 24000000 		.4byte	.LBE14-.LBB14
 2521 04c6 DA040000 		.4byte	0x4da
 2522 04ca 15       		.uleb128 0x15
 2523 04cb 62020000 		.4byte	.LASF48
 2524 04cf 01       		.byte	0x1
 2525 04d0 2901     		.2byte	0x129
 2526 04d2 81000000 		.4byte	0x81
 2527 04d6 02       		.uleb128 0x2
 2528 04d7 91       		.byte	0x91
 2529 04d8 5F       		.sleb128 -33
 2530 04d9 00       		.byte	0
 2531 04da 14       		.uleb128 0x14
 2532 04db F6090000 		.4byte	.LBB15
 2533 04df 2E000000 		.4byte	.LBE15-.LBB15
 2534 04e3 F7040000 		.4byte	0x4f7
 2535 04e7 15       		.uleb128 0x15
 2536 04e8 62020000 		.4byte	.LASF48
 2537 04ec 01       		.byte	0x1
 2538 04ed 3401     		.2byte	0x134
 2539 04ef 81000000 		.4byte	0x81
 2540 04f3 02       		.uleb128 0x2
 2541 04f4 91       		.byte	0x91
 2542 04f5 5E       		.sleb128 -34
 2543 04f6 00       		.byte	0
 2544 04f7 14       		.uleb128 0x14
 2545 04f8 460A0000 		.4byte	.LBB16
 2546 04fc 24000000 		.4byte	.LBE16-.LBB16
 2547 0500 14050000 		.4byte	0x514
 2548 0504 15       		.uleb128 0x15
ARM GAS  C:\Users\THERMA~1\AppData\Local\Temp\cc1whVDs.s 			page 53


 2549 0505 62020000 		.4byte	.LASF48
 2550 0509 01       		.byte	0x1
 2551 050a 3D01     		.2byte	0x13d
 2552 050c 81000000 		.4byte	0x81
 2553 0510 02       		.uleb128 0x2
 2554 0511 91       		.byte	0x91
 2555 0512 5D       		.sleb128 -35
 2556 0513 00       		.byte	0
 2557 0514 14       		.uleb128 0x14
 2558 0515 800A0000 		.4byte	.LBB17
 2559 0519 74000000 		.4byte	.LBE17-.LBB17
 2560 051d 31050000 		.4byte	0x531
 2561 0521 15       		.uleb128 0x15
 2562 0522 62020000 		.4byte	.LASF48
 2563 0526 01       		.byte	0x1
 2564 0527 4301     		.2byte	0x143
 2565 0529 81000000 		.4byte	0x81
 2566 052d 02       		.uleb128 0x2
 2567 052e 91       		.byte	0x91
 2568 052f 5C       		.sleb128 -36
 2569 0530 00       		.byte	0
 2570 0531 14       		.uleb128 0x14
 2571 0532 F40A0000 		.4byte	.LBB18
 2572 0536 24000000 		.4byte	.LBE18-.LBB18
 2573 053a 4E050000 		.4byte	0x54e
 2574 053e 15       		.uleb128 0x15
 2575 053f 62020000 		.4byte	.LASF48
 2576 0543 01       		.byte	0x1
 2577 0544 4C01     		.2byte	0x14c
 2578 0546 81000000 		.4byte	0x81
 2579 054a 02       		.uleb128 0x2
 2580 054b 91       		.byte	0x91
 2581 054c 5B       		.sleb128 -37
 2582 054d 00       		.byte	0
 2583 054e 14       		.uleb128 0x14
 2584 054f 380B0000 		.4byte	.LBB19
 2585 0553 74000000 		.4byte	.LBE19-.LBB19
 2586 0557 6B050000 		.4byte	0x56b
 2587 055b 15       		.uleb128 0x15
 2588 055c 62020000 		.4byte	.LASF48
 2589 0560 01       		.byte	0x1
 2590 0561 5301     		.2byte	0x153
 2591 0563 81000000 		.4byte	0x81
 2592 0567 02       		.uleb128 0x2
 2593 0568 91       		.byte	0x91
 2594 0569 5A       		.sleb128 -38
 2595 056a 00       		.byte	0
 2596 056b 16       		.uleb128 0x16
 2597 056c AC0B0000 		.4byte	.LBB20
 2598 0570 30000000 		.4byte	.LBE20-.LBB20
 2599 0574 15       		.uleb128 0x15
 2600 0575 62020000 		.4byte	.LASF48
 2601 0579 01       		.byte	0x1
 2602 057a 5C01     		.2byte	0x15c
 2603 057c 81000000 		.4byte	0x81
 2604 0580 02       		.uleb128 0x2
 2605 0581 91       		.byte	0x91
ARM GAS  C:\Users\THERMA~1\AppData\Local\Temp\cc1whVDs.s 			page 54


 2606 0582 59       		.sleb128 -39
 2607 0583 00       		.byte	0
 2608 0584 00       		.byte	0
 2609 0585 0A       		.uleb128 0xa
 2610 0586 81000000 		.4byte	0x81
 2611 058a 95050000 		.4byte	0x595
 2612 058e 0B       		.uleb128 0xb
 2613 058f C1000000 		.4byte	0xc1
 2614 0593 06       		.byte	0x6
 2615 0594 00       		.byte	0
 2616 0595 17       		.uleb128 0x17
 2617 0596 53030000 		.4byte	.LASF49
 2618 059a 06       		.byte	0x6
 2619 059b 1207     		.2byte	0x712
 2620 059d A1050000 		.4byte	0x5a1
 2621 05a1 18       		.uleb128 0x18
 2622 05a2 76000000 		.4byte	0x76
 2623 05a6 19       		.uleb128 0x19
 2624 05a7 42010000 		.4byte	.LASF50
 2625 05ab 05       		.byte	0x5
 2626 05ac 10       		.byte	0x10
 2627 05ad 8D000000 		.4byte	0x8d
 2628 05b1 05       		.uleb128 0x5
 2629 05b2 03       		.byte	0x3
 2630 05b3 00000000 		.4byte	PollCounter
 2631 05b7 19       		.uleb128 0x19
 2632 05b8 0D020000 		.4byte	.LASF51
 2633 05bc 05       		.byte	0x5
 2634 05bd 11       		.byte	0x11
 2635 05be 81000000 		.4byte	0x81
 2636 05c2 05       		.uleb128 0x5
 2637 05c3 03       		.byte	0x3
 2638 05c4 00000000 		.4byte	CurrentState
 2639 05c8 19       		.uleb128 0x19
 2640 05c9 A1030000 		.4byte	.LASF52
 2641 05cd 05       		.byte	0x5
 2642 05ce 12       		.byte	0x12
 2643 05cf 81000000 		.4byte	0x81
 2644 05d3 05       		.uleb128 0x5
 2645 05d4 03       		.byte	0x3
 2646 05d5 00000000 		.4byte	Receipt
 2647 05d9 0A       		.uleb128 0xa
 2648 05da 81000000 		.4byte	0x81
 2649 05de E9050000 		.4byte	0x5e9
 2650 05e2 0B       		.uleb128 0xb
 2651 05e3 C1000000 		.4byte	0xc1
 2652 05e7 05       		.byte	0x5
 2653 05e8 00       		.byte	0
 2654 05e9 19       		.uleb128 0x19
 2655 05ea FE020000 		.4byte	.LASF53
 2656 05ee 05       		.byte	0x5
 2657 05ef 13       		.byte	0x13
 2658 05f0 D9050000 		.4byte	0x5d9
 2659 05f4 05       		.uleb128 0x5
 2660 05f5 03       		.byte	0x3
 2661 05f6 00000000 		.4byte	sale_number
 2662 05fa 19       		.uleb128 0x19
ARM GAS  C:\Users\THERMA~1\AppData\Local\Temp\cc1whVDs.s 			page 55


 2663 05fb 60000000 		.4byte	.LASF54
 2664 05ff 05       		.byte	0x5
 2665 0600 14       		.byte	0x14
 2666 0601 81000000 		.4byte	0x81
 2667 0605 05       		.uleb128 0x5
 2668 0606 03       		.byte	0x3
 2669 0607 00000000 		.4byte	int_salenumber
 2670 060b 19       		.uleb128 0x19
 2671 060c 1A020000 		.4byte	.LASF55
 2672 0610 05       		.byte	0x5
 2673 0611 15       		.byte	0x15
 2674 0612 D9050000 		.4byte	0x5d9
 2675 0616 05       		.uleb128 0x5
 2676 0617 03       		.byte	0x3
 2677 0618 00000000 		.4byte	shift_number
 2678 061c 19       		.uleb128 0x19
 2679 061d 29010000 		.4byte	.LASF56
 2680 0621 05       		.byte	0x5
 2681 0622 16       		.byte	0x16
 2682 0623 81000000 		.4byte	0x81
 2683 0627 05       		.uleb128 0x5
 2684 0628 03       		.byte	0x3
 2685 0629 00000000 		.4byte	int_shiftnumber
 2686 062d 19       		.uleb128 0x19
 2687 062e 70010000 		.4byte	.LASF57
 2688 0632 05       		.byte	0x5
 2689 0633 17       		.byte	0x17
 2690 0634 81000000 		.4byte	0x81
 2691 0638 05       		.uleb128 0x5
 2692 0639 03       		.byte	0x3
 2693 063a 00000000 		.4byte	LCDhose
 2694 063e 19       		.uleb128 0x19
 2695 063f A9030000 		.4byte	.LASF58
 2696 0643 05       		.byte	0x5
 2697 0644 3C       		.byte	0x3c
 2698 0645 4F020000 		.4byte	0x24f
 2699 0649 05       		.uleb128 0x5
 2700 064a 03       		.byte	0x3
 2701 064b 00000000 		.4byte	side
 2702 064f 19       		.uleb128 0x19
 2703 0650 44030000 		.4byte	.LASF59
 2704 0654 05       		.byte	0x5
 2705 0655 45       		.byte	0x45
 2706 0656 FD010000 		.4byte	0x1fd
 2707 065a 05       		.uleb128 0x5
 2708 065b 03       		.byte	0x3
 2709 065c 00000000 		.4byte	MepsanResponse
 2710 0660 19       		.uleb128 0x19
 2711 0661 CE010000 		.4byte	.LASF60
 2712 0665 05       		.byte	0x5
 2713 0666 46       		.byte	0x46
 2714 0667 FD010000 		.4byte	0x1fd
 2715 066b 05       		.uleb128 0x5
 2716 066c 03       		.byte	0x3
 2717 066d 00000000 		.4byte	MepsanSendTo
 2718 0671 0A       		.uleb128 0xa
 2719 0672 81000000 		.4byte	0x81
ARM GAS  C:\Users\THERMA~1\AppData\Local\Temp\cc1whVDs.s 			page 56


 2720 0676 81060000 		.4byte	0x681
 2721 067a 0B       		.uleb128 0xb
 2722 067b C1000000 		.4byte	0xc1
 2723 067f 0E       		.byte	0xe
 2724 0680 00       		.byte	0
 2725 0681 19       		.uleb128 0x19
 2726 0682 F3010000 		.4byte	.LASF61
 2727 0686 05       		.byte	0x5
 2728 0687 47       		.byte	0x47
 2729 0688 71060000 		.4byte	0x671
 2730 068c 05       		.uleb128 0x5
 2731 068d 03       		.byte	0x3
 2732 068e 00000000 		.4byte	PumpAddress
 2733 0692 1A       		.uleb128 0x1a
 2734 0693 43524300 		.ascii	"CRC\000"
 2735 0697 05       		.byte	0x5
 2736 0698 48       		.byte	0x48
 2737 0699 8D000000 		.4byte	0x8d
 2738 069d 05       		.uleb128 0x5
 2739 069e 03       		.byte	0x3
 2740 069f 00000000 		.4byte	CRC
 2741 06a3 19       		.uleb128 0x19
 2742 06a4 15000000 		.4byte	.LASF62
 2743 06a8 05       		.byte	0x5
 2744 06a9 49       		.byte	0x49
 2745 06aa 81000000 		.4byte	0x81
 2746 06ae 05       		.uleb128 0x5
 2747 06af 03       		.byte	0x3
 2748 06b0 00000000 		.4byte	crc_lo
 2749 06b4 19       		.uleb128 0x19
 2750 06b5 CB030000 		.4byte	.LASF63
 2751 06b9 05       		.byte	0x5
 2752 06ba 49       		.byte	0x49
 2753 06bb 81000000 		.4byte	0x81
 2754 06bf 05       		.uleb128 0x5
 2755 06c0 03       		.byte	0x3
 2756 06c1 00000000 		.4byte	crc_hi
 2757 06c5 19       		.uleb128 0x19
 2758 06c6 08010000 		.4byte	.LASF64
 2759 06ca 05       		.byte	0x5
 2760 06cb 4A       		.byte	0x4a
 2761 06cc 81000000 		.4byte	0x81
 2762 06d0 05       		.uleb128 0x5
 2763 06d1 03       		.byte	0x3
 2764 06d2 00000000 		.4byte	Positions
 2765 06d6 19       		.uleb128 0x19
 2766 06d7 6A030000 		.4byte	.LASF65
 2767 06db 05       		.byte	0x5
 2768 06dc 4B       		.byte	0x4b
 2769 06dd 81000000 		.4byte	0x81
 2770 06e1 05       		.uleb128 0x5
 2771 06e2 03       		.byte	0x3
 2772 06e3 00000000 		.4byte	TotalRequestType
 2773 06e7 19       		.uleb128 0x19
 2774 06e8 4E010000 		.4byte	.LASF66
 2775 06ec 05       		.byte	0x5
 2776 06ed 4C       		.byte	0x4c
ARM GAS  C:\Users\THERMA~1\AppData\Local\Temp\cc1whVDs.s 			page 57


 2777 06ee 81000000 		.4byte	0x81
 2778 06f2 05       		.uleb128 0x5
 2779 06f3 03       		.byte	0x3
 2780 06f4 00000000 		.4byte	DecVol
 2781 06f8 0A       		.uleb128 0xa
 2782 06f9 81000000 		.4byte	0x81
 2783 06fd 08070000 		.4byte	0x708
 2784 0701 0B       		.uleb128 0xb
 2785 0702 C1000000 		.4byte	0xc1
 2786 0706 13       		.byte	0x13
 2787 0707 00       		.byte	0
 2788 0708 19       		.uleb128 0x19
 2789 0709 3D030000 		.4byte	.LASF67
 2790 070d 05       		.byte	0x5
 2791 070e 55       		.byte	0x55
 2792 070f F8060000 		.4byte	0x6f8
 2793 0713 05       		.uleb128 0x5
 2794 0714 03       		.byte	0x3
 2795 0715 00000000 		.4byte	touch1
 2796 0719 19       		.uleb128 0x19
 2797 071a 95010000 		.4byte	.LASF68
 2798 071e 05       		.byte	0x5
 2799 071f 5E       		.byte	0x5e
 2800 0720 81000000 		.4byte	0x81
 2801 0724 05       		.uleb128 0x5
 2802 0725 03       		.byte	0x3
 2803 0726 00000000 		.4byte	dirGbr
 2804 072a 00       		.byte	0
 2805              		.section	.debug_abbrev,"",%progbits
 2806              	.Ldebug_abbrev0:
 2807 0000 01       		.uleb128 0x1
 2808 0001 11       		.uleb128 0x11
 2809 0002 01       		.byte	0x1
 2810 0003 25       		.uleb128 0x25
 2811 0004 0E       		.uleb128 0xe
 2812 0005 13       		.uleb128 0x13
 2813 0006 0B       		.uleb128 0xb
 2814 0007 03       		.uleb128 0x3
 2815 0008 0E       		.uleb128 0xe
 2816 0009 1B       		.uleb128 0x1b
 2817 000a 0E       		.uleb128 0xe
 2818 000b 55       		.uleb128 0x55
 2819 000c 17       		.uleb128 0x17
 2820 000d 11       		.uleb128 0x11
 2821 000e 01       		.uleb128 0x1
 2822 000f 10       		.uleb128 0x10
 2823 0010 17       		.uleb128 0x17
 2824 0011 00       		.byte	0
 2825 0012 00       		.byte	0
 2826 0013 02       		.uleb128 0x2
 2827 0014 24       		.uleb128 0x24
 2828 0015 00       		.byte	0
 2829 0016 0B       		.uleb128 0xb
 2830 0017 0B       		.uleb128 0xb
 2831 0018 3E       		.uleb128 0x3e
 2832 0019 0B       		.uleb128 0xb
 2833 001a 03       		.uleb128 0x3
ARM GAS  C:\Users\THERMA~1\AppData\Local\Temp\cc1whVDs.s 			page 58


 2834 001b 0E       		.uleb128 0xe
 2835 001c 00       		.byte	0
 2836 001d 00       		.byte	0
 2837 001e 03       		.uleb128 0x3
 2838 001f 16       		.uleb128 0x16
 2839 0020 00       		.byte	0
 2840 0021 03       		.uleb128 0x3
 2841 0022 0E       		.uleb128 0xe
 2842 0023 3A       		.uleb128 0x3a
 2843 0024 0B       		.uleb128 0xb
 2844 0025 3B       		.uleb128 0x3b
 2845 0026 0B       		.uleb128 0xb
 2846 0027 49       		.uleb128 0x49
 2847 0028 13       		.uleb128 0x13
 2848 0029 00       		.byte	0
 2849 002a 00       		.byte	0
 2850 002b 04       		.uleb128 0x4
 2851 002c 24       		.uleb128 0x24
 2852 002d 00       		.byte	0
 2853 002e 0B       		.uleb128 0xb
 2854 002f 0B       		.uleb128 0xb
 2855 0030 3E       		.uleb128 0x3e
 2856 0031 0B       		.uleb128 0xb
 2857 0032 03       		.uleb128 0x3
 2858 0033 08       		.uleb128 0x8
 2859 0034 00       		.byte	0
 2860 0035 00       		.byte	0
 2861 0036 05       		.uleb128 0x5
 2862 0037 16       		.uleb128 0x16
 2863 0038 00       		.byte	0
 2864 0039 03       		.uleb128 0x3
 2865 003a 0E       		.uleb128 0xe
 2866 003b 3A       		.uleb128 0x3a
 2867 003c 0B       		.uleb128 0xb
 2868 003d 3B       		.uleb128 0x3b
 2869 003e 05       		.uleb128 0x5
 2870 003f 49       		.uleb128 0x49
 2871 0040 13       		.uleb128 0x13
 2872 0041 00       		.byte	0
 2873 0042 00       		.byte	0
 2874 0043 06       		.uleb128 0x6
 2875 0044 13       		.uleb128 0x13
 2876 0045 01       		.byte	0x1
 2877 0046 03       		.uleb128 0x3
 2878 0047 0E       		.uleb128 0xe
 2879 0048 0B       		.uleb128 0xb
 2880 0049 05       		.uleb128 0x5
 2881 004a 3A       		.uleb128 0x3a
 2882 004b 0B       		.uleb128 0xb
 2883 004c 3B       		.uleb128 0x3b
 2884 004d 0B       		.uleb128 0xb
 2885 004e 01       		.uleb128 0x1
 2886 004f 13       		.uleb128 0x13
 2887 0050 00       		.byte	0
 2888 0051 00       		.byte	0
 2889 0052 07       		.uleb128 0x7
 2890 0053 0D       		.uleb128 0xd
ARM GAS  C:\Users\THERMA~1\AppData\Local\Temp\cc1whVDs.s 			page 59


 2891 0054 00       		.byte	0
 2892 0055 03       		.uleb128 0x3
 2893 0056 08       		.uleb128 0x8
 2894 0057 3A       		.uleb128 0x3a
 2895 0058 0B       		.uleb128 0xb
 2896 0059 3B       		.uleb128 0x3b
 2897 005a 0B       		.uleb128 0xb
 2898 005b 49       		.uleb128 0x49
 2899 005c 13       		.uleb128 0x13
 2900 005d 38       		.uleb128 0x38
 2901 005e 0B       		.uleb128 0xb
 2902 005f 00       		.byte	0
 2903 0060 00       		.byte	0
 2904 0061 08       		.uleb128 0x8
 2905 0062 0D       		.uleb128 0xd
 2906 0063 00       		.byte	0
 2907 0064 03       		.uleb128 0x3
 2908 0065 0E       		.uleb128 0xe
 2909 0066 3A       		.uleb128 0x3a
 2910 0067 0B       		.uleb128 0xb
 2911 0068 3B       		.uleb128 0x3b
 2912 0069 0B       		.uleb128 0xb
 2913 006a 49       		.uleb128 0x49
 2914 006b 13       		.uleb128 0x13
 2915 006c 38       		.uleb128 0x38
 2916 006d 0B       		.uleb128 0xb
 2917 006e 00       		.byte	0
 2918 006f 00       		.byte	0
 2919 0070 09       		.uleb128 0x9
 2920 0071 0D       		.uleb128 0xd
 2921 0072 00       		.byte	0
 2922 0073 03       		.uleb128 0x3
 2923 0074 0E       		.uleb128 0xe
 2924 0075 3A       		.uleb128 0x3a
 2925 0076 0B       		.uleb128 0xb
 2926 0077 3B       		.uleb128 0x3b
 2927 0078 0B       		.uleb128 0xb
 2928 0079 49       		.uleb128 0x49
 2929 007a 13       		.uleb128 0x13
 2930 007b 38       		.uleb128 0x38
 2931 007c 05       		.uleb128 0x5
 2932 007d 00       		.byte	0
 2933 007e 00       		.byte	0
 2934 007f 0A       		.uleb128 0xa
 2935 0080 01       		.uleb128 0x1
 2936 0081 01       		.byte	0x1
 2937 0082 49       		.uleb128 0x49
 2938 0083 13       		.uleb128 0x13
 2939 0084 01       		.uleb128 0x1
 2940 0085 13       		.uleb128 0x13
 2941 0086 00       		.byte	0
 2942 0087 00       		.byte	0
 2943 0088 0B       		.uleb128 0xb
 2944 0089 21       		.uleb128 0x21
 2945 008a 00       		.byte	0
 2946 008b 49       		.uleb128 0x49
 2947 008c 13       		.uleb128 0x13
ARM GAS  C:\Users\THERMA~1\AppData\Local\Temp\cc1whVDs.s 			page 60


 2948 008d 2F       		.uleb128 0x2f
 2949 008e 0B       		.uleb128 0xb
 2950 008f 00       		.byte	0
 2951 0090 00       		.byte	0
 2952 0091 0C       		.uleb128 0xc
 2953 0092 0D       		.uleb128 0xd
 2954 0093 00       		.byte	0
 2955 0094 03       		.uleb128 0x3
 2956 0095 08       		.uleb128 0x8
 2957 0096 3A       		.uleb128 0x3a
 2958 0097 0B       		.uleb128 0xb
 2959 0098 3B       		.uleb128 0x3b
 2960 0099 0B       		.uleb128 0xb
 2961 009a 49       		.uleb128 0x49
 2962 009b 13       		.uleb128 0x13
 2963 009c 38       		.uleb128 0x38
 2964 009d 05       		.uleb128 0x5
 2965 009e 00       		.byte	0
 2966 009f 00       		.byte	0
 2967 00a0 0D       		.uleb128 0xd
 2968 00a1 04       		.uleb128 0x4
 2969 00a2 01       		.byte	0x1
 2970 00a3 03       		.uleb128 0x3
 2971 00a4 0E       		.uleb128 0xe
 2972 00a5 0B       		.uleb128 0xb
 2973 00a6 0B       		.uleb128 0xb
 2974 00a7 49       		.uleb128 0x49
 2975 00a8 13       		.uleb128 0x13
 2976 00a9 3A       		.uleb128 0x3a
 2977 00aa 0B       		.uleb128 0xb
 2978 00ab 3B       		.uleb128 0x3b
 2979 00ac 0B       		.uleb128 0xb
 2980 00ad 01       		.uleb128 0x1
 2981 00ae 13       		.uleb128 0x13
 2982 00af 00       		.byte	0
 2983 00b0 00       		.byte	0
 2984 00b1 0E       		.uleb128 0xe
 2985 00b2 28       		.uleb128 0x28
 2986 00b3 00       		.byte	0
 2987 00b4 03       		.uleb128 0x3
 2988 00b5 0E       		.uleb128 0xe
 2989 00b6 1C       		.uleb128 0x1c
 2990 00b7 0B       		.uleb128 0xb
 2991 00b8 00       		.byte	0
 2992 00b9 00       		.byte	0
 2993 00ba 0F       		.uleb128 0xf
 2994 00bb 2E       		.uleb128 0x2e
 2995 00bc 01       		.byte	0x1
 2996 00bd 3F       		.uleb128 0x3f
 2997 00be 19       		.uleb128 0x19
 2998 00bf 03       		.uleb128 0x3
 2999 00c0 0E       		.uleb128 0xe
 3000 00c1 3A       		.uleb128 0x3a
 3001 00c2 0B       		.uleb128 0xb
 3002 00c3 3B       		.uleb128 0x3b
 3003 00c4 0B       		.uleb128 0xb
 3004 00c5 27       		.uleb128 0x27
ARM GAS  C:\Users\THERMA~1\AppData\Local\Temp\cc1whVDs.s 			page 61


 3005 00c6 19       		.uleb128 0x19
 3006 00c7 11       		.uleb128 0x11
 3007 00c8 01       		.uleb128 0x1
 3008 00c9 12       		.uleb128 0x12
 3009 00ca 06       		.uleb128 0x6
 3010 00cb 40       		.uleb128 0x40
 3011 00cc 18       		.uleb128 0x18
 3012 00cd 9642     		.uleb128 0x2116
 3013 00cf 19       		.uleb128 0x19
 3014 00d0 01       		.uleb128 0x1
 3015 00d1 13       		.uleb128 0x13
 3016 00d2 00       		.byte	0
 3017 00d3 00       		.byte	0
 3018 00d4 10       		.uleb128 0x10
 3019 00d5 34       		.uleb128 0x34
 3020 00d6 00       		.byte	0
 3021 00d7 03       		.uleb128 0x3
 3022 00d8 08       		.uleb128 0x8
 3023 00d9 3A       		.uleb128 0x3a
 3024 00da 0B       		.uleb128 0xb
 3025 00db 3B       		.uleb128 0x3b
 3026 00dc 0B       		.uleb128 0xb
 3027 00dd 49       		.uleb128 0x49
 3028 00de 13       		.uleb128 0x13
 3029 00df 02       		.uleb128 0x2
 3030 00e0 18       		.uleb128 0x18
 3031 00e1 00       		.byte	0
 3032 00e2 00       		.byte	0
 3033 00e3 11       		.uleb128 0x11
 3034 00e4 2E       		.uleb128 0x2e
 3035 00e5 01       		.byte	0x1
 3036 00e6 3F       		.uleb128 0x3f
 3037 00e7 19       		.uleb128 0x19
 3038 00e8 03       		.uleb128 0x3
 3039 00e9 0E       		.uleb128 0xe
 3040 00ea 3A       		.uleb128 0x3a
 3041 00eb 0B       		.uleb128 0xb
 3042 00ec 3B       		.uleb128 0x3b
 3043 00ed 0B       		.uleb128 0xb
 3044 00ee 49       		.uleb128 0x49
 3045 00ef 13       		.uleb128 0x13
 3046 00f0 11       		.uleb128 0x11
 3047 00f1 01       		.uleb128 0x1
 3048 00f2 12       		.uleb128 0x12
 3049 00f3 06       		.uleb128 0x6
 3050 00f4 40       		.uleb128 0x40
 3051 00f5 18       		.uleb128 0x18
 3052 00f6 9642     		.uleb128 0x2116
 3053 00f8 19       		.uleb128 0x19
 3054 00f9 01       		.uleb128 0x1
 3055 00fa 13       		.uleb128 0x13
 3056 00fb 00       		.byte	0
 3057 00fc 00       		.byte	0
 3058 00fd 12       		.uleb128 0x12
 3059 00fe 34       		.uleb128 0x34
 3060 00ff 00       		.byte	0
 3061 0100 03       		.uleb128 0x3
ARM GAS  C:\Users\THERMA~1\AppData\Local\Temp\cc1whVDs.s 			page 62


 3062 0101 0E       		.uleb128 0xe
 3063 0102 3A       		.uleb128 0x3a
 3064 0103 0B       		.uleb128 0xb
 3065 0104 3B       		.uleb128 0x3b
 3066 0105 0B       		.uleb128 0xb
 3067 0106 49       		.uleb128 0x49
 3068 0107 13       		.uleb128 0x13
 3069 0108 02       		.uleb128 0x2
 3070 0109 18       		.uleb128 0x18
 3071 010a 00       		.byte	0
 3072 010b 00       		.byte	0
 3073 010c 13       		.uleb128 0x13
 3074 010d 34       		.uleb128 0x34
 3075 010e 00       		.byte	0
 3076 010f 03       		.uleb128 0x3
 3077 0110 0E       		.uleb128 0xe
 3078 0111 3A       		.uleb128 0x3a
 3079 0112 0B       		.uleb128 0xb
 3080 0113 3B       		.uleb128 0x3b
 3081 0114 0B       		.uleb128 0xb
 3082 0115 49       		.uleb128 0x49
 3083 0116 13       		.uleb128 0x13
 3084 0117 00       		.byte	0
 3085 0118 00       		.byte	0
 3086 0119 14       		.uleb128 0x14
 3087 011a 0B       		.uleb128 0xb
 3088 011b 01       		.byte	0x1
 3089 011c 11       		.uleb128 0x11
 3090 011d 01       		.uleb128 0x1
 3091 011e 12       		.uleb128 0x12
 3092 011f 06       		.uleb128 0x6
 3093 0120 01       		.uleb128 0x1
 3094 0121 13       		.uleb128 0x13
 3095 0122 00       		.byte	0
 3096 0123 00       		.byte	0
 3097 0124 15       		.uleb128 0x15
 3098 0125 34       		.uleb128 0x34
 3099 0126 00       		.byte	0
 3100 0127 03       		.uleb128 0x3
 3101 0128 0E       		.uleb128 0xe
 3102 0129 3A       		.uleb128 0x3a
 3103 012a 0B       		.uleb128 0xb
 3104 012b 3B       		.uleb128 0x3b
 3105 012c 05       		.uleb128 0x5
 3106 012d 49       		.uleb128 0x49
 3107 012e 13       		.uleb128 0x13
 3108 012f 02       		.uleb128 0x2
 3109 0130 18       		.uleb128 0x18
 3110 0131 00       		.byte	0
 3111 0132 00       		.byte	0
 3112 0133 16       		.uleb128 0x16
 3113 0134 0B       		.uleb128 0xb
 3114 0135 01       		.byte	0x1
 3115 0136 11       		.uleb128 0x11
 3116 0137 01       		.uleb128 0x1
 3117 0138 12       		.uleb128 0x12
 3118 0139 06       		.uleb128 0x6
ARM GAS  C:\Users\THERMA~1\AppData\Local\Temp\cc1whVDs.s 			page 63


 3119 013a 00       		.byte	0
 3120 013b 00       		.byte	0
 3121 013c 17       		.uleb128 0x17
 3122 013d 34       		.uleb128 0x34
 3123 013e 00       		.byte	0
 3124 013f 03       		.uleb128 0x3
 3125 0140 0E       		.uleb128 0xe
 3126 0141 3A       		.uleb128 0x3a
 3127 0142 0B       		.uleb128 0xb
 3128 0143 3B       		.uleb128 0x3b
 3129 0144 05       		.uleb128 0x5
 3130 0145 49       		.uleb128 0x49
 3131 0146 13       		.uleb128 0x13
 3132 0147 3F       		.uleb128 0x3f
 3133 0148 19       		.uleb128 0x19
 3134 0149 3C       		.uleb128 0x3c
 3135 014a 19       		.uleb128 0x19
 3136 014b 00       		.byte	0
 3137 014c 00       		.byte	0
 3138 014d 18       		.uleb128 0x18
 3139 014e 35       		.uleb128 0x35
 3140 014f 00       		.byte	0
 3141 0150 49       		.uleb128 0x49
 3142 0151 13       		.uleb128 0x13
 3143 0152 00       		.byte	0
 3144 0153 00       		.byte	0
 3145 0154 19       		.uleb128 0x19
 3146 0155 34       		.uleb128 0x34
 3147 0156 00       		.byte	0
 3148 0157 03       		.uleb128 0x3
 3149 0158 0E       		.uleb128 0xe
 3150 0159 3A       		.uleb128 0x3a
 3151 015a 0B       		.uleb128 0xb
 3152 015b 3B       		.uleb128 0x3b
 3153 015c 0B       		.uleb128 0xb
 3154 015d 49       		.uleb128 0x49
 3155 015e 13       		.uleb128 0x13
 3156 015f 3F       		.uleb128 0x3f
 3157 0160 19       		.uleb128 0x19
 3158 0161 02       		.uleb128 0x2
 3159 0162 18       		.uleb128 0x18
 3160 0163 00       		.byte	0
 3161 0164 00       		.byte	0
 3162 0165 1A       		.uleb128 0x1a
 3163 0166 34       		.uleb128 0x34
 3164 0167 00       		.byte	0
 3165 0168 03       		.uleb128 0x3
 3166 0169 08       		.uleb128 0x8
 3167 016a 3A       		.uleb128 0x3a
 3168 016b 0B       		.uleb128 0xb
 3169 016c 3B       		.uleb128 0x3b
 3170 016d 0B       		.uleb128 0xb
 3171 016e 49       		.uleb128 0x49
 3172 016f 13       		.uleb128 0x13
 3173 0170 3F       		.uleb128 0x3f
 3174 0171 19       		.uleb128 0x19
 3175 0172 02       		.uleb128 0x2
ARM GAS  C:\Users\THERMA~1\AppData\Local\Temp\cc1whVDs.s 			page 64


 3176 0173 18       		.uleb128 0x18
 3177 0174 00       		.byte	0
 3178 0175 00       		.byte	0
 3179 0176 00       		.byte	0
 3180              		.section	.debug_aranges,"",%progbits
 3181 0000 24000000 		.4byte	0x24
 3182 0004 0200     		.2byte	0x2
 3183 0006 00000000 		.4byte	.Ldebug_info0
 3184 000a 04       		.byte	0x4
 3185 000b 00       		.byte	0
 3186 000c 0000     		.2byte	0
 3187 000e 0000     		.2byte	0
 3188 0010 00000000 		.4byte	.LFB63
 3189 0014 D8010000 		.4byte	.LFE63-.LFB63
 3190 0018 00000000 		.4byte	.LFB64
 3191 001c 040C0000 		.4byte	.LFE64-.LFB64
 3192 0020 00000000 		.4byte	0
 3193 0024 00000000 		.4byte	0
 3194              		.section	.debug_ranges,"",%progbits
 3195              	.Ldebug_ranges0:
 3196 0000 00000000 		.4byte	.LFB63
 3197 0004 D8010000 		.4byte	.LFE63
 3198 0008 00000000 		.4byte	.LFB64
 3199 000c 040C0000 		.4byte	.LFE64
 3200 0010 00000000 		.4byte	0
 3201 0014 00000000 		.4byte	0
 3202              		.section	.debug_line,"",%progbits
 3203              	.Ldebug_line0:
 3204 0000 C8040000 		.section	.debug_str,"MS",%progbits,1
 3204      02005801 
 3204      00000201 
 3204      FB0E0D00 
 3204      01010101 
 3205              	.LASF13:
 3206 0000 666C6F61 		.ascii	"float\000"
 3206      7400
 3207              	.LASF72:
 3208 0006 4D455053 		.ascii	"MEPSAN_REQUEST\000"
 3208      414E5F52 
 3208      45515545 
 3208      535400
 3209              	.LASF62:
 3210 0015 6372635F 		.ascii	"crc_lo\000"
 3210      6C6F00
 3211              	.LASF38:
 3212 001c 4D455053 		.ascii	"MEPSAN_R_FILLING\000"
 3212      414E5F52 
 3212      5F46494C 
 3212      4C494E47 
 3212      00
 3213              	.LASF32:
 3214 002d 4D657052 		.ascii	"MepRequest\000"
 3214      65717565 
 3214      737400
 3215              	.LASF27:
 3216 0038 50726F63 		.ascii	"ProcessedTotals\000"
 3216      65737365 
ARM GAS  C:\Users\THERMA~1\AppData\Local\Temp\cc1whVDs.s 			page 65


 3216      64546F74 
 3216      616C7300 
 3217              	.LASF73:
 3218 0048 74656D70 		.ascii	"temp\000"
 3218      00
 3219              	.LASF2:
 3220 004d 73686F72 		.ascii	"short int\000"
 3220      7420696E 
 3220      7400
 3221              	.LASF18:
 3222 0057 73697A65 		.ascii	"sizetype\000"
 3222      74797065 
 3222      00
 3223              	.LASF54:
 3224 0060 696E745F 		.ascii	"int_salenumber\000"
 3224      73616C65 
 3224      6E756D62 
 3224      657200
 3225              	.LASF15:
 3226 006f 63686172 		.ascii	"char8\000"
 3226      3800
 3227              	.LASF69:
 3228 0075 474E5520 		.ascii	"GNU C11 5.4.1 20160609 (release) [ARM/embedded-5-br"
 3228      43313120 
 3228      352E342E 
 3228      31203230 
 3228      31363036 
 3229 00a8 616E6368 		.ascii	"anch revision 237715] -mcpu=cortex-m3 -mthumb -g -O"
 3229      20726576 
 3229      6973696F 
 3229      6E203233 
 3229      37373135 
 3230 00db 30202D66 		.ascii	"0 -ffunction-sections -ffat-lto-objects\000"
 3230      66756E63 
 3230      74696F6E 
 3230      2D736563 
 3230      74696F6E 
 3231              	.LASF40:
 3232 0103 6D61696E 		.ascii	"main\000"
 3232      00
 3233              	.LASF64:
 3234 0108 506F7369 		.ascii	"Positions\000"
 3234      74696F6E 
 3234      7300
 3235              	.LASF12:
 3236 0112 75696E74 		.ascii	"uint16\000"
 3236      313600
 3237              	.LASF20:
 3238 0119 7070754E 		.ascii	"ppuNozzle\000"
 3238      6F7A7A6C 
 3238      6500
 3239              	.LASF11:
 3240 0123 75696E74 		.ascii	"uint8\000"
 3240      3800
 3241              	.LASF56:
 3242 0129 696E745F 		.ascii	"int_shiftnumber\000"
 3242      73686966 
ARM GAS  C:\Users\THERMA~1\AppData\Local\Temp\cc1whVDs.s 			page 66


 3242      746E756D 
 3242      62657200 
 3243              	.LASF34:
 3244 0139 706F7369 		.ascii	"position\000"
 3244      74696F6E 
 3244      00
 3245              	.LASF50:
 3246 0142 506F6C6C 		.ascii	"PollCounter\000"
 3246      436F756E 
 3246      74657200 
 3247              	.LASF66:
 3248 014e 44656356 		.ascii	"DecVol\000"
 3248      6F6C00
 3249              	.LASF43:
 3250 0155 70617373 		.ascii	"passw\000"
 3250      7700
 3251              	.LASF6:
 3252 015b 6C6F6E67 		.ascii	"long long int\000"
 3252      206C6F6E 
 3252      6720696E 
 3252      7400
 3253              	.LASF25:
 3254 0169 73746174 		.ascii	"states\000"
 3254      657300
 3255              	.LASF57:
 3256 0170 4C434468 		.ascii	"LCDhose\000"
 3256      6F736500 
 3257              	.LASF4:
 3258 0178 6C6F6E67 		.ascii	"long int\000"
 3258      20696E74 
 3258      00
 3259              	.LASF29:
 3260 0181 50726F63 		.ascii	"ProcessedvolumeSale\000"
 3260      65737365 
 3260      64766F6C 
 3260      756D6553 
 3260      616C6500 
 3261              	.LASF68:
 3262 0195 64697247 		.ascii	"dirGbr\000"
 3262      627200
 3263              	.LASF42:
 3264 019c 575F6175 		.ascii	"W_autorize\000"
 3264      746F7269 
 3264      7A6500
 3265              	.LASF37:
 3266 01a7 4D455053 		.ascii	"MEPSAN_AUTHORIZE\000"
 3266      414E5F41 
 3266      5554484F 
 3266      52495A45 
 3266      00
 3267              	.LASF39:
 3268 01b8 506F6C6C 		.ascii	"PollingPos\000"
 3268      696E6750 
 3268      6F7300
 3269              	.LASF22:
 3270 01c3 766F6C75 		.ascii	"volumeSale\000"
 3270      6D655361 
ARM GAS  C:\Users\THERMA~1\AppData\Local\Temp\cc1whVDs.s 			page 67


 3270      6C6500
 3271              	.LASF60:
 3272 01ce 4D657073 		.ascii	"MepsanSendTo\000"
 3272      616E5365 
 3272      6E64546F 
 3272      00
 3273              	.LASF24:
 3274 01db 70726F64 		.ascii	"productSale\000"
 3274      75637453 
 3274      616C6500 
 3275              	.LASF17:
 3276 01e7 6C6F6E67 		.ascii	"long double\000"
 3276      20646F75 
 3276      626C6500 
 3277              	.LASF61:
 3278 01f3 50756D70 		.ascii	"PumpAddress\000"
 3278      41646472 
 3278      65737300 
 3279              	.LASF1:
 3280 01ff 756E7369 		.ascii	"unsigned char\000"
 3280      676E6564 
 3280      20636861 
 3280      7200
 3281              	.LASF51:
 3282 020d 43757272 		.ascii	"CurrentState\000"
 3282      656E7453 
 3282      74617465 
 3282      00
 3283              	.LASF55:
 3284 021a 73686966 		.ascii	"shift_number\000"
 3284      745F6E75 
 3284      6D626572 
 3284      00
 3285              	.LASF0:
 3286 0227 7369676E 		.ascii	"signed char\000"
 3286      65642063 
 3286      68617200 
 3287              	.LASF7:
 3288 0233 6C6F6E67 		.ascii	"long long unsigned int\000"
 3288      206C6F6E 
 3288      6720756E 
 3288      7369676E 
 3288      65642069 
 3289              	.LASF44:
 3290 024a 6368616E 		.ascii	"change_pic\000"
 3290      67655F70 
 3290      696300
 3291              	.LASF8:
 3292 0255 756E7369 		.ascii	"unsigned int\000"
 3292      676E6564 
 3292      20696E74 
 3292      00
 3293              	.LASF48:
 3294 0262 4C434452 		.ascii	"LCDRx\000"
 3294      7800
 3295              	.LASF23:
 3296 0268 70707553 		.ascii	"ppuSale\000"
ARM GAS  C:\Users\THERMA~1\AppData\Local\Temp\cc1whVDs.s 			page 68


 3296      616C6500 
 3297              	.LASF41:
 3298 0270 73637265 		.ascii	"screen_size\000"
 3298      656E5F73 
 3298      697A6500 
 3299              	.LASF3:
 3300 027c 73686F72 		.ascii	"short unsigned int\000"
 3300      7420756E 
 3300      7369676E 
 3300      65642069 
 3300      6E7400
 3301              	.LASF21:
 3302 028f 6D6F6E65 		.ascii	"moneySale\000"
 3302      7953616C 
 3302      6500
 3303              	.LASF16:
 3304 0299 63686172 		.ascii	"char\000"
 3304      00
 3305              	.LASF45:
 3306 029e 6368616E 		.ascii	"change_pic2\000"
 3306      67655F70 
 3306      69633200 
 3307              	.LASF71:
 3308 02aa 433A5C55 		.ascii	"C:\\Users\\Thermaltake\\Documents\\GitHub\\Mepsan\\"
 3308      73657273 
 3308      5C546865 
 3308      726D616C 
 3308      74616B65 
 3309 02d7 4D657073 		.ascii	"Mepsan.cydsn\000"
 3309      616E2E63 
 3309      7964736E 
 3309      00
 3310              	.LASF10:
 3311 02e4 696E7433 		.ascii	"int32_t\000"
 3311      325F7400 
 3312              	.LASF46:
 3313 02ec 70726963 		.ascii	"price_change\000"
 3313      655F6368 
 3313      616E6765 
 3313      00
 3314              	.LASF35:
 3315 02f9 70756D70 		.ascii	"pump\000"
 3315      00
 3316              	.LASF53:
 3317 02fe 73616C65 		.ascii	"sale_number\000"
 3317      5F6E756D 
 3317      62657200 
 3318              	.LASF19:
 3319 030a 746F7461 		.ascii	"totalsNozzle\000"
 3319      6C734E6F 
 3319      7A7A6C65 
 3319      00
 3320              	.LASF30:
 3321 0317 50726F63 		.ascii	"ProcessedPPU\000"
 3321      65737365 
 3321      64505055 
 3321      00
ARM GAS  C:\Users\THERMA~1\AppData\Local\Temp\cc1whVDs.s 			page 69


 3322              	.LASF70:
 3323 0324 6D61696E 		.ascii	"main.c\000"
 3323      2E6300
 3324              	.LASF5:
 3325 032b 6C6F6E67 		.ascii	"long unsigned int\000"
 3325      20756E73 
 3325      69676E65 
 3325      6420696E 
 3325      7400
 3326              	.LASF67:
 3327 033d 746F7563 		.ascii	"touch1\000"
 3327      683100
 3328              	.LASF59:
 3329 0344 4D657073 		.ascii	"MepsanResponse\000"
 3329      616E5265 
 3329      73706F6E 
 3329      736500
 3330              	.LASF49:
 3331 0353 49544D5F 		.ascii	"ITM_RxBuffer\000"
 3331      52784275 
 3331      66666572 
 3331      00
 3332              	.LASF9:
 3333 0360 5F5F696E 		.ascii	"__int32_t\000"
 3333      7433325F 
 3333      7400
 3334              	.LASF65:
 3335 036a 546F7461 		.ascii	"TotalRequestType\000"
 3335      6C526571 
 3335      75657374 
 3335      54797065 
 3335      00
 3336              	.LASF26:
 3337 037b 4D657073 		.ascii	"MepsanStore\000"
 3337      616E5374 
 3337      6F726500 
 3338              	.LASF28:
 3339 0387 50726F63 		.ascii	"ProcessedmoneySale\000"
 3339      65737365 
 3339      646D6F6E 
 3339      65795361 
 3339      6C6500
 3340              	.LASF14:
 3341 039a 646F7562 		.ascii	"double\000"
 3341      6C6500
 3342              	.LASF52:
 3343 03a1 52656365 		.ascii	"Receipt\000"
 3343      69707400 
 3344              	.LASF58:
 3345 03a9 73696465 		.ascii	"side\000"
 3345      00
 3346              	.LASF36:
 3347 03ae 4D455053 		.ascii	"MEPSAN_STATE\000"
 3347      414E5F53 
 3347      54415445 
 3347      00
 3348              	.LASF33:
ARM GAS  C:\Users\THERMA~1\AppData\Local\Temp\cc1whVDs.s 			page 70


 3349 03bb 4E6F7A7A 		.ascii	"Nozzle\000"
 3349      6C6500
 3350              	.LASF47:
 3351 03c2 61757850 		.ascii	"auxPrice\000"
 3351      72696365 
 3351      00
 3352              	.LASF63:
 3353 03cb 6372635F 		.ascii	"crc_hi\000"
 3353      686900
 3354              	.LASF31:
 3355 03d2 6D736E5F 		.ascii	"msn_plate\000"
 3355      706C6174 
 3355      6500
 3356              		.ident	"GCC: (GNU Tools for ARM Embedded Processors) 5.4.1 20160609 (release) [ARM/embedded-5-bran
