ARM GAS  C:\Users\Lenovo\AppData\Local\Temp\ccHD7LbD.s 			page 1


   1              		.syntax unified
   2              		.cpu cortex-m3
   3              		.fpu softvfp
   4              		.eabi_attribute 20, 1
   5              		.eabi_attribute 21, 1
   6              		.eabi_attribute 23, 3
   7              		.eabi_attribute 24, 1
   8              		.eabi_attribute 25, 1
   9              		.eabi_attribute 26, 1
  10              		.eabi_attribute 30, 6
  11              		.eabi_attribute 34, 1
  12              		.eabi_attribute 18, 4
  13              		.thumb
  14              		.syntax unified
  15              		.file	"printer.c"
  16              		.text
  17              	.Ltext0:
  18              		.cfi_sections	.debug_frame
  19              		.comm	PollCounter,2,2
  20              		.comm	CurrentState,1,1
  21              		.comm	Receipt,1,1
  22              		.comm	sale_number,6,4
  23              		.comm	int_salenumber,1,1
  24              		.comm	shift_number,6,4
  25              		.comm	int_shiftnumber,1,1
  26              		.comm	side,1164,4
  27              		.comm	MepsanResponse,50,4
  28              		.comm	MepsanSendTo,50,4
  29              		.comm	PumpAddress,15,4
  30              		.comm	CRC,2,2
  31              		.comm	crc_lo,1,1
  32              		.comm	crc_hi,1,1
  33              		.comm	Positions,1,1
  34              		.comm	TotalRequestType,1,1
  35              		.comm	DecVol,1,1
  36              		.comm	touch1,20,4
  37              		.comm	dirGbr,1,1
  38              		.global	LINE_FEED
  39              		.data
  40              		.type	LINE_FEED, %object
  41              		.size	LINE_FEED, 1
  42              	LINE_FEED:
  43 0000 0A       		.byte	10
  44              		.global	VolSimbol
  45 0001 000000   		.align	2
  46              		.type	VolSimbol, %object
  47              		.size	VolSimbol, 1
  48              	VolSimbol:
  49 0004 47       		.ascii	"G"
  50              		.global	msn_EDS
  51 0005 000000   		.align	2
  52              		.type	msn_EDS, %object
  53              		.size	msn_EDS, 22
  54              	msn_EDS:
  55 0008 20455354 		.ascii	" ESTACION DE SERVICIO "
  55      4143494F 
  55      4E204445 
ARM GAS  C:\Users\Lenovo\AppData\Local\Temp\ccHD7LbD.s 			page 2


  55      20534552 
  55      56494349 
  56              		.global	msn_EDS2
  57 001e 0000     		.align	2
  58              		.type	msn_EDS2, %object
  59              		.size	msn_EDS2, 22
  60              	msn_EDS2:
  61 0020 20202020 		.ascii	"    PRUEBAS MEPSAN    "
  61      50525545 
  61      42415320 
  61      4D455053 
  61      414E2020 
  62              		.global	msn_EDS3
  63 0036 0000     		.align	2
  64              		.type	msn_EDS3, %object
  65              		.size	msn_EDS3, 22
  66              	msn_EDS3:
  67 0038 20202054 		.ascii	"   Tel: (57)123456    "
  67      656C3A20 
  67      28353729 
  67      31323334 
  67      35362020 
  68              		.global	msn_EDS4
  69 004e 0000     		.align	2
  70              		.type	msn_EDS4, %object
  71              		.size	msn_EDS4, 22
  72              	msn_EDS4:
  73 0050 2020204E 		.ascii	"   NIT: 900.123.456   "
  73      49543A20 
  73      3930302E 
  73      3132332E 
  73      34353620 
  74              		.global	msn_plate
  75 0066 0000     		.align	2
  76              		.type	msn_plate, %object
  77              		.size	msn_plate, 7
  78              	msn_plate:
  79 0068 3132332D 		.ascii	"123-ABC"
  79      414243
  80              		.global	msn_footer
  81 006f 00       		.align	2
  82              		.type	msn_footer, %object
  83              		.size	msn_footer, 22
  84              	msn_footer:
  85 0070 20534953 		.ascii	" SISPETROL INGENIERIA "
  85      50455452 
  85      4F4C2049 
  85      4E47454E 
  85      49455249 
  86              		.global	msn_footer2
  87 0086 0000     		.align	2
  88              		.type	msn_footer2, %object
  89              		.size	msn_footer2, 22
  90              	msn_footer2:
  91 0088 2020534F 		.ascii	"  SOLUCIONES PARA EDS "
  91      4C554349 
  91      4F4E4553 
ARM GAS  C:\Users\Lenovo\AppData\Local\Temp\ccHD7LbD.s 			page 3


  91      20504152 
  91      41204544 
  92              		.global	msn_diesel
  93 009e 0000     		.align	2
  94              		.type	msn_diesel, %object
  95              		.size	msn_diesel, 8
  96              	msn_diesel:
  97 00a0 44696573 		.ascii	"Diesel  "
  97      656C2020 
  98              		.global	msn_gasoline
  99              		.align	2
 100              		.type	msn_gasoline, %object
 101              		.size	msn_gasoline, 9
 102              	msn_gasoline:
 103 00a8 436F7272 		.ascii	"Corriente"
 103      69656E74 
 103      65
 104              		.global	msn_fecha
 105 00b1 000000   		.align	2
 106              		.type	msn_fecha, %object
 107              		.size	msn_fecha, 13
 108              	msn_fecha:
 109 00b4 46656368 		.ascii	"Fecha      : "
 109      61202020 
 109      2020203A 
 109      20
 110              		.global	msn_hora
 111 00c1 000000   		.align	2
 112              		.type	msn_hora, %object
 113              		.size	msn_hora, 13
 114              	msn_hora:
 115 00c4 486F7261 		.ascii	"Hora       : "
 115      20202020 
 115      2020203A 
 115      20
 116              		.global	msn_placa
 117 00d1 000000   		.align	2
 118              		.type	msn_placa, %object
 119              		.size	msn_placa, 13
 120              	msn_placa:
 121 00d4 506C6163 		.ascii	"Placa      : "
 121      61202020 
 121      2020203A 
 121      20
 122              		.global	PRN_MILLEAGE
 123 00e1 000000   		.align	2
 124              		.type	PRN_MILLEAGE, %object
 125              		.size	PRN_MILLEAGE, 13
 126              	PRN_MILLEAGE:
 127 00e4 4B696C6F 		.ascii	"Kilometraje: "
 127      6D657472 
 127      616A653A 
 127      20
 128              		.global	PRN_TRANSTYPE
 129 00f1 000000   		.align	2
 130              		.type	PRN_TRANSTYPE, %object
 131              		.size	PRN_TRANSTYPE, 13
ARM GAS  C:\Users\Lenovo\AppData\Local\Temp\ccHD7LbD.s 			page 4


 132              	PRN_TRANSTYPE:
 133 00f4 5469706F 		.ascii	"Tipo       : "
 133      20202020 
 133      2020203A 
 133      20
 134              		.global	msn_pos
 135 0101 000000   		.align	2
 136              		.type	msn_pos, %object
 137              		.size	msn_pos, 13
 138              	msn_pos:
 139 0104 506F7369 		.ascii	"Posicion   : "
 139      63696F6E 
 139      2020203A 
 139      20
 140              		.global	msn_product
 141 0111 000000   		.align	2
 142              		.type	msn_product, %object
 143              		.size	msn_product, 13
 144              	msn_product:
 145 0114 50726F64 		.ascii	"Producto   : "
 145      7563746F 
 145      2020203A 
 145      20
 146              		.global	msn_ppu
 147 0121 000000   		.align	2
 148              		.type	msn_ppu, %object
 149              		.size	msn_ppu, 13
 150              	msn_ppu:
 151 0124 50707520 		.ascii	"Ppu        : "
 151      20202020 
 151      2020203A 
 151      20
 152              		.global	msn_vol
 153 0131 000000   		.align	2
 154              		.type	msn_vol, %object
 155              		.size	msn_vol, 13
 156              	msn_vol:
 157 0134 566F6C75 		.ascii	"Volumen    : "
 157      6D656E20 
 157      2020203A 
 157      20
 158              		.global	msn_voltot
 159 0141 000000   		.align	2
 160              		.type	msn_voltot, %object
 161              		.size	msn_voltot, 13
 162              	msn_voltot:
 163 0144 546F742E 		.ascii	"Tot.Vol    : "
 163      566F6C20 
 163      2020203A 
 163      20
 164              		.global	msn_din
 165 0151 000000   		.align	2
 166              		.type	msn_din, %object
 167              		.size	msn_din, 13
 168              	msn_din:
 169 0154 44696E65 		.ascii	"Dinero     : "
 169      726F2020 
ARM GAS  C:\Users\Lenovo\AppData\Local\Temp\ccHD7LbD.s 			page 5


 169      2020203A 
 169      20
 170              		.global	msn_cierre
 171 0161 000000   		.align	2
 172              		.type	msn_cierre, %object
 173              		.size	msn_cierre, 13
 174              	msn_cierre:
 175 0164 43696572 		.ascii	"Cierre No  : "
 175      7265204E 
 175      6F20203A 
 175      20
 176              		.global	msn_venta
 177 0171 000000   		.align	2
 178              		.type	msn_venta, %object
 179              		.size	msn_venta, 13
 180              	msn_venta:
 181 0174 56656E74 		.ascii	"Venta No   : "
 181      61204E6F 
 181      2020203A 
 181      20
 182              		.global	msn_numero
 183 0181 000000   		.align	2
 184              		.type	msn_numero, %object
 185              		.size	msn_numero, 13
 186              	msn_numero:
 187 0184 436F6E73 		.ascii	"Consecutivo: "
 187      65637574 
 187      69766F3A 
 187      20
 188              		.global	PRN_BALANCE
 189 0191 000000   		.align	2
 190              		.type	PRN_BALANCE, %object
 191              		.size	PRN_BALANCE, 13
 192              	PRN_BALANCE:
 193 0194 53616C64 		.ascii	"Saldo      : "
 193      6F202020 
 193      2020203A 
 193      20
 194              		.global	PRN_COMPANY
 195 01a1 000000   		.align	2
 196              		.type	PRN_COMPANY, %object
 197              		.size	PRN_COMPANY, 13
 198              	PRN_COMPANY:
 199 01a4 456D7072 		.ascii	"Empresa    : "
 199      65736120 
 199      2020203A 
 199      20
 200              		.global	PRN_ACCOUNT
 201 01b1 000000   		.align	2
 202              		.type	PRN_ACCOUNT, %object
 203              		.size	PRN_ACCOUNT, 13
 204              	PRN_ACCOUNT:
 205 01b4 4375656E 		.ascii	"Cuenta     : "
 205      74612020 
 205      2020203A 
 205      20
 206              		.global	PRN_SERIAL
ARM GAS  C:\Users\Lenovo\AppData\Local\Temp\ccHD7LbD.s 			page 6


 207 01c1 000000   		.align	2
 208              		.type	PRN_SERIAL, %object
 209              		.size	PRN_SERIAL, 13
 210              	PRN_SERIAL:
 211 01c4 53657269 		.ascii	"Serial     : "
 211      616C2020 
 211      2020203A 
 211      20
 212              		.global	PRN_ACCOUNTTYPE
 213 01d1 000000   		.align	2
 214              		.type	PRN_ACCOUNTTYPE, %object
 215              		.size	PRN_ACCOUNTTYPE, 13
 216              	PRN_ACCOUNTTYPE:
 217 01d4 5469706F 		.ascii	"Tipo Cuenta: "
 217      20437565 
 217      6E74613A 
 217      20
 218              		.global	PRN_VISITSDAY
 219 01e1 000000   		.align	2
 220              		.type	PRN_VISITSDAY, %object
 221              		.size	PRN_VISITSDAY, 13
 222              	PRN_VISITSDAY:
 223 01e4 56697369 		.ascii	"Visitas Dia: "
 223      74617320 
 223      4469613A 
 223      20
 224              		.global	PRN_VISITSWEEK
 225 01f1 000000   		.align	2
 226              		.type	PRN_VISITSWEEK, %object
 227              		.size	PRN_VISITSWEEK, 13
 228              	PRN_VISITSWEEK:
 229 01f4 56697369 		.ascii	"Visitas Sem: "
 229      74617320 
 229      53656D3A 
 229      20
 230              		.global	PRN_VISITSMONTH
 231 0201 000000   		.align	2
 232              		.type	PRN_VISITSMONTH, %object
 233              		.size	PRN_VISITSMONTH, 13
 234              	PRN_VISITSMONTH:
 235 0204 56697369 		.ascii	"Visitas Mes: "
 235      74617320 
 235      4D65733A 
 235      20
 236              		.global	PRN_VOLUMEDAY
 237 0211 000000   		.align	2
 238              		.type	PRN_VOLUMEDAY, %object
 239              		.size	PRN_VOLUMEDAY, 13
 240              	PRN_VOLUMEDAY:
 241 0214 566F6C75 		.ascii	"Volumen Dia: "
 241      6D656E20 
 241      4469613A 
 241      20
 242              		.global	PRN_VOLUMEWEEK
 243 0221 000000   		.align	2
 244              		.type	PRN_VOLUMEWEEK, %object
 245              		.size	PRN_VOLUMEWEEK, 13
ARM GAS  C:\Users\Lenovo\AppData\Local\Temp\ccHD7LbD.s 			page 7


 246              	PRN_VOLUMEWEEK:
 247 0224 566F6C75 		.ascii	"Volumen Sem: "
 247      6D656E20 
 247      53656D3A 
 247      20
 248              		.global	PRN_VOLUMEMONTH
 249 0231 000000   		.align	2
 250              		.type	PRN_VOLUMEMONTH, %object
 251              		.size	PRN_VOLUMEMONTH, 13
 252              	PRN_VOLUMEMONTH:
 253 0234 566F6C75 		.ascii	"Volumen Mes: "
 253      6D656E20 
 253      4D65733A 
 253      20
 254              		.global	PRN_MONEYDAY
 255 0241 000000   		.align	2
 256              		.type	PRN_MONEYDAY, %object
 257              		.size	PRN_MONEYDAY, 13
 258              	PRN_MONEYDAY:
 259 0244 44696E65 		.ascii	"Dinero Dia : "
 259      726F2044 
 259      6961203A 
 259      20
 260              		.global	PRN_MONEYWEEK
 261 0251 000000   		.align	2
 262              		.type	PRN_MONEYWEEK, %object
 263              		.size	PRN_MONEYWEEK, 13
 264              	PRN_MONEYWEEK:
 265 0254 44696E65 		.ascii	"Dinero Sem : "
 265      726F2053 
 265      656D203A 
 265      20
 266              		.global	PRN_MONEYMONTH
 267 0261 000000   		.align	2
 268              		.type	PRN_MONEYMONTH, %object
 269              		.size	PRN_MONEYMONTH, 13
 270              	PRN_MONEYMONTH:
 271 0264 44696E65 		.ascii	"Dinero Mes : "
 271      726F204D 
 271      6573203A 
 271      20
 272              		.global	PRN_PRESET
 273 0271 000000   		.align	2
 274              		.type	PRN_PRESET, %object
 275              		.size	PRN_PRESET, 13
 276              	PRN_PRESET:
 277 0274 56616C6F 		.ascii	"Valor Prog.: "
 277      72205072 
 277      6F672E3A 
 277      20
 278              		.global	PRN_SIGNATURE
 279 0281 000000   		.align	2
 280              		.type	PRN_SIGNATURE, %object
 281              		.size	PRN_SIGNATURE, 13
 282              	PRN_SIGNATURE:
 283 0284 4669726D 		.ascii	"Firma      : "
 283      61202020 
ARM GAS  C:\Users\Lenovo\AppData\Local\Temp\ccHD7LbD.s 			page 8


 283      2020203A 
 283      20
 284              		.global	PRN_ID
 285 0291 000000   		.align	2
 286              		.type	PRN_ID, %object
 287              		.size	PRN_ID, 13
 288              	PRN_ID:
 289 0294 43656475 		.ascii	"Cedula     : "
 289      6C612020 
 289      2020203A 
 289      20
 290              		.global	PRN_CURRENCY
 291 02a1 000000   		.align	2
 292              		.type	PRN_CURRENCY, %object
 293              		.size	PRN_CURRENCY, 1
 294              	PRN_CURRENCY:
 295 02a4 24       		.ascii	"$"
 296              		.global	msn_lecact
 297 02a5 000000   		.align	2
 298              		.type	msn_lecact, %object
 299              		.size	msn_lecact, 16
 300              	msn_lecact:
 301 02a8 56616C6F 		.ascii	"Valor actual:   "
 301      72206163 
 301      7475616C 
 301      3A202020 
 302              		.global	msn_lecaan
 303              		.align	2
 304              		.type	msn_lecaan, %object
 305              		.size	msn_lecaan, 16
 306              	msn_lecaan:
 307 02b8 56616C6F 		.ascii	"Valor anterior: "
 307      7220616E 
 307      74657269 
 307      6F723A20 
 308              		.global	SEPARATOR
 309              		.align	2
 310              		.type	SEPARATOR, %object
 311              		.size	SEPARATOR, 24
 312              	SEPARATOR:
 313 02c8 2A2A2A2A 		.ascii	"************************"
 313      2A2A2A2A 
 313      2A2A2A2A 
 313      2A2A2A2A 
 313      2A2A2A2A 
 314              		.global	ASK_TIME
 315              		.align	2
 316              		.type	ASK_TIME, %object
 317              		.size	ASK_TIME, 6
 318              	ASK_TIME:
 319 02e0 5A       		.byte	90
 320 02e1 A5       		.byte	-91
 321 02e2 03       		.byte	3
 322 02e3 81       		.byte	-127
 323 02e4 20       		.byte	32
 324 02e5 07       		.byte	7
 325              		.section	.text.PrintReceipt,"ax",%progbits
ARM GAS  C:\Users\Lenovo\AppData\Local\Temp\ccHD7LbD.s 			page 9


 326              		.align	2
 327              		.global	PrintReceipt
 328              		.thumb
 329              		.thumb_func
 330              		.type	PrintReceipt, %function
 331              	PrintReceipt:
 332              	.LFB63:
 333              		.file 1 "printer.c"
   1:printer.c     **** /* ========================================
   2:printer.c     ****  *
   3:printer.c     ****  * Copyright YOUR COMPANY, THE YEAR
   4:printer.c     ****  * All Rights Reserved
   5:printer.c     ****  * UNPUBLISHED, LICENSED SOFTWARE.
   6:printer.c     ****  *
   7:printer.c     ****  * CONFIDENTIAL AND PROPRIETARY INFORMATION
   8:printer.c     ****  * WHICH IS THE PROPERTY OF your company.
   9:printer.c     ****  *
  10:printer.c     ****  * ========================================
  11:printer.c     **** */
  12:printer.c     **** #include <project.h>
  13:printer.c     **** #include <GVar.h>
  14:printer.c     **** 
  15:printer.c     **** uint8 LINE_FEED = 0x0A;
  16:printer.c     **** char VolSimbol[1] = "G";
  17:printer.c     **** 
  18:printer.c     **** 
  19:printer.c     **** /***********  Temporal messages ******************/
  20:printer.c     **** uint8 msn_EDS[22]       = " ESTACION DE SERVICIO ";
  21:printer.c     **** uint8 msn_EDS2[22]      = "    PRUEBAS MEPSAN    ";
  22:printer.c     **** uint8 msn_EDS3[22]      = "   Tel: (57)123456    ";
  23:printer.c     **** uint8 msn_EDS4[22]      = "   NIT: 900.123.456   ";
  24:printer.c     **** uint8 msn_plate[7]      = "123-ABC";
  25:printer.c     **** uint8 msn_footer[22]    = " SISPETROL INGENIERIA ";
  26:printer.c     **** uint8 msn_footer2[22]   = "  SOLUCIONES PARA EDS ";
  27:printer.c     **** uint8 msn_diesel[8]     = "Diesel  ";
  28:printer.c     **** uint8 msn_gasoline[9]   = "Corriente";
  29:printer.c     **** 
  30:printer.c     **** /*********** informative messages ****************/
  31:printer.c     **** 
  32:printer.c     **** uint8 msn_fecha[13]       = "Fecha      : ";
  33:printer.c     **** uint8 msn_hora[13]        = "Hora       : ";
  34:printer.c     **** uint8 msn_placa[13]       = "Placa      : ";
  35:printer.c     **** uint8 PRN_MILLEAGE[13]    = "Kilometraje: ";
  36:printer.c     **** uint8 PRN_TRANSTYPE[13]   = "Tipo       : ";
  37:printer.c     **** uint8 msn_pos[13]         = "Posicion   : ";
  38:printer.c     **** uint8 msn_product[13]     = "Producto   : ";
  39:printer.c     **** uint8 msn_ppu[13]         = "Ppu        : ";
  40:printer.c     **** uint8 msn_vol[13]         = "Volumen    : ";
  41:printer.c     **** uint8 msn_voltot[13]      = "Tot.Vol    : ";
  42:printer.c     **** uint8 msn_din[13]         = "Dinero     : ";
  43:printer.c     **** uint8 msn_cierre[13]      = "Cierre No  : ";
  44:printer.c     **** uint8 msn_venta[13]       = "Venta No   : ";
  45:printer.c     **** uint8 msn_numero[13]      = "Consecutivo: ";
  46:printer.c     **** uint8 PRN_BALANCE[13]     = "Saldo      : ";
  47:printer.c     **** uint8 PRN_COMPANY[13]     = "Empresa    : ";
  48:printer.c     **** uint8 PRN_ACCOUNT[13]     = "Cuenta     : ";
  49:printer.c     **** uint8 PRN_SERIAL[13]      = "Serial     : ";
ARM GAS  C:\Users\Lenovo\AppData\Local\Temp\ccHD7LbD.s 			page 10


  50:printer.c     **** uint8 PRN_ACCOUNTTYPE[13] = "Tipo Cuenta: ";
  51:printer.c     **** uint8 PRN_VISITSDAY[13]   = "Visitas Dia: ";
  52:printer.c     **** uint8 PRN_VISITSWEEK[13]  = "Visitas Sem: ";
  53:printer.c     **** uint8 PRN_VISITSMONTH[13] = "Visitas Mes: ";
  54:printer.c     **** uint8 PRN_VOLUMEDAY[13]   = "Volumen Dia: ";
  55:printer.c     **** uint8 PRN_VOLUMEWEEK[13]  = "Volumen Sem: ";
  56:printer.c     **** uint8 PRN_VOLUMEMONTH[13] = "Volumen Mes: ";
  57:printer.c     **** uint8 PRN_MONEYDAY[13]    = "Dinero Dia : ";
  58:printer.c     **** uint8 PRN_MONEYWEEK[13]   = "Dinero Sem : ";
  59:printer.c     **** uint8 PRN_MONEYMONTH[13]  = "Dinero Mes : ";
  60:printer.c     **** uint8 PRN_PRESET[13]      = "Valor Prog.: ";
  61:printer.c     **** uint8 PRN_SIGNATURE[13]   = "Firma      : ";
  62:printer.c     **** uint8 PRN_ID[13]          = "Cedula     : ";
  63:printer.c     **** uint8 PRN_CURRENCY[1]     = "$";
  64:printer.c     **** uint8 msn_lecact[16]      ="Valor actual:   ";
  65:printer.c     **** uint8 msn_lecaan[16]      ="Valor anterior: ";
  66:printer.c     **** uint8 SEPARATOR[24]       = "************************";
  67:printer.c     **** uint8 ASK_TIME[]={0x5A, 0xA5, 0x03, 0x81, 0x20, 0x07};
  68:printer.c     **** 
  69:printer.c     **** 
  70:printer.c     **** 
  71:printer.c     **** void PrintReceipt(uint8 address){
 334              		.loc 1 71 0
 335              		.cfi_startproc
 336              		@ args = 0, pretend = 0, frame = 72
 337              		@ frame_needed = 1, uses_anonymous_args = 0
 338 0000 90B5     		push	{r4, r7, lr}
 339              		.cfi_def_cfa_offset 12
 340              		.cfi_offset 4, -12
 341              		.cfi_offset 7, -8
 342              		.cfi_offset 14, -4
 343 0002 93B0     		sub	sp, sp, #76
 344              		.cfi_def_cfa_offset 88
 345 0004 00AF     		add	r7, sp, #0
 346              		.cfi_def_cfa_register 7
 347 0006 0346     		mov	r3, r0
 348 0008 FB71     		strb	r3, [r7, #7]
  72:printer.c     ****     int8 screen_size;
  73:printer.c     ****     int_salenumber++;
 349              		.loc 1 73 0
 350 000a C04B     		ldr	r3, .L125
 351 000c 1B78     		ldrb	r3, [r3]	@ zero_extendqisi2
 352 000e 0133     		adds	r3, r3, #1
 353 0010 DAB2     		uxtb	r2, r3
 354 0012 BE4B     		ldr	r3, .L125
 355 0014 1A70     		strb	r2, [r3]
  74:printer.c     ****     sale_number[5]=(int_salenumber/10000)+48;
 356              		.loc 1 74 0
 357 0016 BD4B     		ldr	r3, .L125
 358 0018 1B78     		ldrb	r3, [r3]	@ zero_extendqisi2
 359 001a BD4A     		ldr	r2, .L125+4
 360 001c 82FB0312 		smull	r1, r2, r2, r3
 361 0020 1213     		asrs	r2, r2, #12
 362 0022 DB17     		asrs	r3, r3, #31
 363 0024 D31A     		subs	r3, r2, r3
 364 0026 DBB2     		uxtb	r3, r3
 365 0028 3033     		adds	r3, r3, #48
ARM GAS  C:\Users\Lenovo\AppData\Local\Temp\ccHD7LbD.s 			page 11


 366 002a DAB2     		uxtb	r2, r3
 367 002c B94B     		ldr	r3, .L125+8
 368 002e 5A71     		strb	r2, [r3, #5]
  75:printer.c     **** 	sale_number[4]=((int_salenumber%10000)/1000)+48;
 369              		.loc 1 75 0
 370 0030 B64B     		ldr	r3, .L125
 371 0032 1B78     		ldrb	r3, [r3]	@ zero_extendqisi2
 372 0034 1A46     		mov	r2, r3
 373 0036 B64B     		ldr	r3, .L125+4
 374 0038 83FB0213 		smull	r1, r3, r3, r2
 375 003c 1913     		asrs	r1, r3, #12
 376 003e D317     		asrs	r3, r2, #31
 377 0040 CB1A     		subs	r3, r1, r3
 378 0042 42F21071 		movw	r1, #10000
 379 0046 01FB03F3 		mul	r3, r1, r3
 380 004a D31A     		subs	r3, r2, r3
 381 004c B24A     		ldr	r2, .L125+12
 382 004e 82FB0312 		smull	r1, r2, r2, r3
 383 0052 9211     		asrs	r2, r2, #6
 384 0054 DB17     		asrs	r3, r3, #31
 385 0056 D31A     		subs	r3, r2, r3
 386 0058 DBB2     		uxtb	r3, r3
 387 005a 3033     		adds	r3, r3, #48
 388 005c DAB2     		uxtb	r2, r3
 389 005e AD4B     		ldr	r3, .L125+8
 390 0060 1A71     		strb	r2, [r3, #4]
  76:printer.c     **** 	sale_number[3]=(((int_salenumber%10000)%1000)/100)+48;
 391              		.loc 1 76 0
 392 0062 AA4B     		ldr	r3, .L125
 393 0064 1B78     		ldrb	r3, [r3]	@ zero_extendqisi2
 394 0066 1A46     		mov	r2, r3
 395 0068 A94B     		ldr	r3, .L125+4
 396 006a 83FB0213 		smull	r1, r3, r3, r2
 397 006e 1913     		asrs	r1, r3, #12
 398 0070 D317     		asrs	r3, r2, #31
 399 0072 CB1A     		subs	r3, r1, r3
 400 0074 42F21071 		movw	r1, #10000
 401 0078 01FB03F3 		mul	r3, r1, r3
 402 007c D31A     		subs	r3, r2, r3
 403 007e A64A     		ldr	r2, .L125+12
 404 0080 82FB0312 		smull	r1, r2, r2, r3
 405 0084 9111     		asrs	r1, r2, #6
 406 0086 DA17     		asrs	r2, r3, #31
 407 0088 8A1A     		subs	r2, r1, r2
 408 008a 4FF47A71 		mov	r1, #1000
 409 008e 01FB02F2 		mul	r2, r1, r2
 410 0092 9A1A     		subs	r2, r3, r2
 411 0094 A14B     		ldr	r3, .L125+16
 412 0096 83FB0213 		smull	r1, r3, r3, r2
 413 009a 5911     		asrs	r1, r3, #5
 414 009c D317     		asrs	r3, r2, #31
 415 009e CB1A     		subs	r3, r1, r3
 416 00a0 DBB2     		uxtb	r3, r3
 417 00a2 3033     		adds	r3, r3, #48
 418 00a4 DAB2     		uxtb	r2, r3
 419 00a6 9B4B     		ldr	r3, .L125+8
 420 00a8 DA70     		strb	r2, [r3, #3]
ARM GAS  C:\Users\Lenovo\AppData\Local\Temp\ccHD7LbD.s 			page 12


  77:printer.c     **** 	sale_number[2]=((((int_salenumber%10000)%1000)%100)/10)+48;	
 421              		.loc 1 77 0
 422 00aa 984B     		ldr	r3, .L125
 423 00ac 1B78     		ldrb	r3, [r3]	@ zero_extendqisi2
 424 00ae 984A     		ldr	r2, .L125+4
 425 00b0 82FB0312 		smull	r1, r2, r2, r3
 426 00b4 1113     		asrs	r1, r2, #12
 427 00b6 DA17     		asrs	r2, r3, #31
 428 00b8 8A1A     		subs	r2, r1, r2
 429 00ba 42F21071 		movw	r1, #10000
 430 00be 01FB02F2 		mul	r2, r1, r2
 431 00c2 9A1A     		subs	r2, r3, r2
 432 00c4 944B     		ldr	r3, .L125+12
 433 00c6 83FB0213 		smull	r1, r3, r3, r2
 434 00ca 9911     		asrs	r1, r3, #6
 435 00cc D317     		asrs	r3, r2, #31
 436 00ce CB1A     		subs	r3, r1, r3
 437 00d0 4FF47A71 		mov	r1, #1000
 438 00d4 01FB03F3 		mul	r3, r1, r3
 439 00d8 D31A     		subs	r3, r2, r3
 440 00da 904A     		ldr	r2, .L125+16
 441 00dc 82FB0312 		smull	r1, r2, r2, r3
 442 00e0 5111     		asrs	r1, r2, #5
 443 00e2 DA17     		asrs	r2, r3, #31
 444 00e4 8A1A     		subs	r2, r1, r2
 445 00e6 6421     		movs	r1, #100
 446 00e8 01FB02F2 		mul	r2, r1, r2
 447 00ec 9A1A     		subs	r2, r3, r2
 448 00ee 8C4B     		ldr	r3, .L125+20
 449 00f0 83FB0213 		smull	r1, r3, r3, r2
 450 00f4 9910     		asrs	r1, r3, #2
 451 00f6 D317     		asrs	r3, r2, #31
 452 00f8 CB1A     		subs	r3, r1, r3
 453 00fa DBB2     		uxtb	r3, r3
 454 00fc 3033     		adds	r3, r3, #48
 455 00fe DAB2     		uxtb	r2, r3
 456 0100 844B     		ldr	r3, .L125+8
 457 0102 9A70     		strb	r2, [r3, #2]
  78:printer.c     **** 	sale_number[1]=((((int_salenumber%10000)%1000)%100)%10)+48;
 458              		.loc 1 78 0
 459 0104 814B     		ldr	r3, .L125
 460 0106 1B78     		ldrb	r3, [r3]	@ zero_extendqisi2
 461 0108 814A     		ldr	r2, .L125+4
 462 010a 82FB0312 		smull	r1, r2, r2, r3
 463 010e 1113     		asrs	r1, r2, #12
 464 0110 DA17     		asrs	r2, r3, #31
 465 0112 8A1A     		subs	r2, r1, r2
 466 0114 42F21071 		movw	r1, #10000
 467 0118 01FB02F2 		mul	r2, r1, r2
 468 011c 9A1A     		subs	r2, r3, r2
 469 011e 7E4B     		ldr	r3, .L125+12
 470 0120 83FB0213 		smull	r1, r3, r3, r2
 471 0124 9911     		asrs	r1, r3, #6
 472 0126 D317     		asrs	r3, r2, #31
 473 0128 CB1A     		subs	r3, r1, r3
 474 012a 4FF47A71 		mov	r1, #1000
 475 012e 01FB03F3 		mul	r3, r1, r3
ARM GAS  C:\Users\Lenovo\AppData\Local\Temp\ccHD7LbD.s 			page 13


 476 0132 D31A     		subs	r3, r2, r3
 477 0134 794A     		ldr	r2, .L125+16
 478 0136 82FB0312 		smull	r1, r2, r2, r3
 479 013a 5111     		asrs	r1, r2, #5
 480 013c DA17     		asrs	r2, r3, #31
 481 013e 8A1A     		subs	r2, r1, r2
 482 0140 6421     		movs	r1, #100
 483 0142 01FB02F2 		mul	r2, r1, r2
 484 0146 9A1A     		subs	r2, r3, r2
 485 0148 754B     		ldr	r3, .L125+20
 486 014a 83FB0213 		smull	r1, r3, r3, r2
 487 014e 9910     		asrs	r1, r3, #2
 488 0150 D317     		asrs	r3, r2, #31
 489 0152 C91A     		subs	r1, r1, r3
 490 0154 0B46     		mov	r3, r1
 491 0156 9B00     		lsls	r3, r3, #2
 492 0158 0B44     		add	r3, r3, r1
 493 015a 5B00     		lsls	r3, r3, #1
 494 015c D11A     		subs	r1, r2, r3
 495 015e CBB2     		uxtb	r3, r1
 496 0160 3033     		adds	r3, r3, #48
 497 0162 DAB2     		uxtb	r2, r3
 498 0164 6B4B     		ldr	r3, .L125+8
 499 0166 5A70     		strb	r2, [r3, #1]
 500              	.LBB2:
  79:printer.c     ****     for(uint8 i = 1; i<6; i++){
 501              		.loc 1 79 0
 502 0168 0123     		movs	r3, #1
 503 016a 87F84730 		strb	r3, [r7, #71]
 504 016e 0FE0     		b	.L2
 505              	.L3:
  80:printer.c     ****         EEPROM_1_WriteByte(sale_number[i],i);
 506              		.loc 1 80 0 discriminator 3
 507 0170 97F84730 		ldrb	r3, [r7, #71]	@ zero_extendqisi2
 508 0174 674A     		ldr	r2, .L125+8
 509 0176 D35C     		ldrb	r3, [r2, r3]	@ zero_extendqisi2
 510 0178 97F84720 		ldrb	r2, [r7, #71]	@ zero_extendqisi2
 511 017c 92B2     		uxth	r2, r2
 512 017e 1146     		mov	r1, r2
 513 0180 1846     		mov	r0, r3
 514 0182 FFF7FEFF 		bl	EEPROM_1_WriteByte
  79:printer.c     ****     for(uint8 i = 1; i<6; i++){
 515              		.loc 1 79 0 discriminator 3
 516 0186 97F84730 		ldrb	r3, [r7, #71]	@ zero_extendqisi2
 517 018a 0133     		adds	r3, r3, #1
 518 018c 87F84730 		strb	r3, [r7, #71]
 519              	.L2:
  79:printer.c     ****     for(uint8 i = 1; i<6; i++){
 520              		.loc 1 79 0 is_stmt 0 discriminator 1
 521 0190 97F84730 		ldrb	r3, [r7, #71]	@ zero_extendqisi2
 522 0194 052B     		cmp	r3, #5
 523 0196 EBD9     		bls	.L3
 524              	.LBE2:
 525              	.LBB3:
  81:printer.c     ****     }
  82:printer.c     ****     for(uint8 LCDRx = 0; LCDRx < 6; LCDRx++){
 526              		.loc 1 82 0 is_stmt 1
ARM GAS  C:\Users\Lenovo\AppData\Local\Temp\ccHD7LbD.s 			page 14


 527 0198 0023     		movs	r3, #0
 528 019a 87F84630 		strb	r3, [r7, #70]
 529 019e 0BE0     		b	.L4
 530              	.L5:
  83:printer.c     ****         screen_PutChar(ASK_TIME[LCDRx]);
 531              		.loc 1 83 0 discriminator 3
 532 01a0 97F84630 		ldrb	r3, [r7, #70]	@ zero_extendqisi2
 533 01a4 5F4A     		ldr	r2, .L125+24
 534 01a6 D35C     		ldrb	r3, [r2, r3]	@ zero_extendqisi2
 535 01a8 1846     		mov	r0, r3
 536 01aa FFF7FEFF 		bl	screen_PutChar
  82:printer.c     ****         screen_PutChar(ASK_TIME[LCDRx]);
 537              		.loc 1 82 0 discriminator 3
 538 01ae 97F84630 		ldrb	r3, [r7, #70]	@ zero_extendqisi2
 539 01b2 0133     		adds	r3, r3, #1
 540 01b4 87F84630 		strb	r3, [r7, #70]
 541              	.L4:
  82:printer.c     ****         screen_PutChar(ASK_TIME[LCDRx]);
 542              		.loc 1 82 0 is_stmt 0 discriminator 1
 543 01b8 97F84630 		ldrb	r3, [r7, #70]	@ zero_extendqisi2
 544 01bc 052B     		cmp	r3, #5
 545 01be EFD9     		bls	.L5
 546              	.LBE3:
  84:printer.c     ****     }
  85:printer.c     ****     CyDelay(4);
 547              		.loc 1 85 0 is_stmt 1
 548 01c0 0420     		movs	r0, #4
 549 01c2 FFF7FEFF 		bl	CyDelay
  86:printer.c     ****     screen_size = screen_GetRxBufferSize();
 550              		.loc 1 86 0
 551 01c6 FFF7FEFF 		bl	screen_GetRxBufferSize
 552 01ca 0346     		mov	r3, r0
 553 01cc BB73     		strb	r3, [r7, #14]
  87:printer.c     ****     if(screen_size >= 13 ){
 554              		.loc 1 87 0
 555 01ce 97F90E30 		ldrsb	r3, [r7, #14]
 556 01d2 0C2B     		cmp	r3, #12
 557 01d4 18DD     		ble	.L6
 558              	.LBB4:
  88:printer.c     ****         for(uint8 LCDRx = 0; LCDRx < screen_size; LCDRx++){
 559              		.loc 1 88 0
 560 01d6 0023     		movs	r3, #0
 561 01d8 87F84530 		strb	r3, [r7, #69]
 562 01dc 0CE0     		b	.L7
 563              	.L8:
  89:printer.c     ****             touch1[LCDRx] = screen_ReadRxData();
 564              		.loc 1 89 0 discriminator 3
 565 01de 97F84540 		ldrb	r4, [r7, #69]	@ zero_extendqisi2
 566 01e2 FFF7FEFF 		bl	screen_ReadRxData
 567 01e6 0346     		mov	r3, r0
 568 01e8 1A46     		mov	r2, r3
 569 01ea 4F4B     		ldr	r3, .L125+28
 570 01ec 1A55     		strb	r2, [r3, r4]
  88:printer.c     ****         for(uint8 LCDRx = 0; LCDRx < screen_size; LCDRx++){
 571              		.loc 1 88 0 discriminator 3
 572 01ee 97F84530 		ldrb	r3, [r7, #69]	@ zero_extendqisi2
 573 01f2 0133     		adds	r3, r3, #1
ARM GAS  C:\Users\Lenovo\AppData\Local\Temp\ccHD7LbD.s 			page 15


 574 01f4 87F84530 		strb	r3, [r7, #69]
 575              	.L7:
  88:printer.c     ****         for(uint8 LCDRx = 0; LCDRx < screen_size; LCDRx++){
 576              		.loc 1 88 0 is_stmt 0 discriminator 1
 577 01f8 97F84520 		ldrb	r2, [r7, #69]	@ zero_extendqisi2
 578 01fc 97F90E30 		ldrsb	r3, [r7, #14]
 579 0200 9A42     		cmp	r2, r3
 580 0202 ECDB     		blt	.L8
 581              	.LBE4:
  90:printer.c     ****         }
  91:printer.c     ****         screen_size = 0;
 582              		.loc 1 91 0 is_stmt 1
 583 0204 0023     		movs	r3, #0
 584 0206 BB73     		strb	r3, [r7, #14]
 585              	.L6:
 586              	.LBB5:
  92:printer.c     ****     }
  93:printer.c     **** 	for(uint8 x = 0; x < 22; x ++){
 587              		.loc 1 93 0
 588 0208 0023     		movs	r3, #0
 589 020a 87F84430 		strb	r3, [r7, #68]
 590 020e 0BE0     		b	.L9
 591              	.L10:
  94:printer.c     **** 		UART_3_PutChar(msn_EDS[x]);
 592              		.loc 1 94 0 discriminator 3
 593 0210 97F84430 		ldrb	r3, [r7, #68]	@ zero_extendqisi2
 594 0214 454A     		ldr	r2, .L125+32
 595 0216 D35C     		ldrb	r3, [r2, r3]	@ zero_extendqisi2
 596 0218 1846     		mov	r0, r3
 597 021a FFF7FEFF 		bl	UART_3_PutChar
  93:printer.c     **** 		UART_3_PutChar(msn_EDS[x]);
 598              		.loc 1 93 0 discriminator 3
 599 021e 97F84430 		ldrb	r3, [r7, #68]	@ zero_extendqisi2
 600 0222 0133     		adds	r3, r3, #1
 601 0224 87F84430 		strb	r3, [r7, #68]
 602              	.L9:
  93:printer.c     **** 		UART_3_PutChar(msn_EDS[x]);
 603              		.loc 1 93 0 is_stmt 0 discriminator 1
 604 0228 97F84430 		ldrb	r3, [r7, #68]	@ zero_extendqisi2
 605 022c 152B     		cmp	r3, #21
 606 022e EFD9     		bls	.L10
 607              	.LBE5:
  95:printer.c     **** 	}
  96:printer.c     ****     UART_3_PutChar(LINE_FEED);
 608              		.loc 1 96 0 is_stmt 1
 609 0230 3F4B     		ldr	r3, .L125+36
 610 0232 1B78     		ldrb	r3, [r3]	@ zero_extendqisi2
 611 0234 1846     		mov	r0, r3
 612 0236 FFF7FEFF 		bl	UART_3_PutChar
 613              	.LBB6:
  97:printer.c     **** 	for(uint8 x = 0; x < 22; x ++){
 614              		.loc 1 97 0
 615 023a 0023     		movs	r3, #0
 616 023c 87F84330 		strb	r3, [r7, #67]
 617 0240 0BE0     		b	.L11
 618              	.L12:
  98:printer.c     **** 		UART_3_PutChar(msn_EDS2[x]);
ARM GAS  C:\Users\Lenovo\AppData\Local\Temp\ccHD7LbD.s 			page 16


 619              		.loc 1 98 0 discriminator 3
 620 0242 97F84330 		ldrb	r3, [r7, #67]	@ zero_extendqisi2
 621 0246 3B4A     		ldr	r2, .L125+40
 622 0248 D35C     		ldrb	r3, [r2, r3]	@ zero_extendqisi2
 623 024a 1846     		mov	r0, r3
 624 024c FFF7FEFF 		bl	UART_3_PutChar
  97:printer.c     **** 	for(uint8 x = 0; x < 22; x ++){
 625              		.loc 1 97 0 discriminator 3
 626 0250 97F84330 		ldrb	r3, [r7, #67]	@ zero_extendqisi2
 627 0254 0133     		adds	r3, r3, #1
 628 0256 87F84330 		strb	r3, [r7, #67]
 629              	.L11:
  97:printer.c     **** 	for(uint8 x = 0; x < 22; x ++){
 630              		.loc 1 97 0 is_stmt 0 discriminator 1
 631 025a 97F84330 		ldrb	r3, [r7, #67]	@ zero_extendqisi2
 632 025e 152B     		cmp	r3, #21
 633 0260 EFD9     		bls	.L12
 634              	.LBE6:
  99:printer.c     **** 	}
 100:printer.c     **** 	UART_3_PutChar(LINE_FEED);
 635              		.loc 1 100 0 is_stmt 1
 636 0262 334B     		ldr	r3, .L125+36
 637 0264 1B78     		ldrb	r3, [r3]	@ zero_extendqisi2
 638 0266 1846     		mov	r0, r3
 639 0268 FFF7FEFF 		bl	UART_3_PutChar
 640              	.LBB7:
 101:printer.c     **** 	for(uint8 x = 0; x < 22; x ++){
 641              		.loc 1 101 0
 642 026c 0023     		movs	r3, #0
 643 026e 87F84230 		strb	r3, [r7, #66]
 644 0272 0BE0     		b	.L13
 645              	.L14:
 102:printer.c     **** 		UART_3_PutChar(msn_EDS3[x]);
 646              		.loc 1 102 0 discriminator 3
 647 0274 97F84230 		ldrb	r3, [r7, #66]	@ zero_extendqisi2
 648 0278 2F4A     		ldr	r2, .L125+44
 649 027a D35C     		ldrb	r3, [r2, r3]	@ zero_extendqisi2
 650 027c 1846     		mov	r0, r3
 651 027e FFF7FEFF 		bl	UART_3_PutChar
 101:printer.c     **** 	for(uint8 x = 0; x < 22; x ++){
 652              		.loc 1 101 0 discriminator 3
 653 0282 97F84230 		ldrb	r3, [r7, #66]	@ zero_extendqisi2
 654 0286 0133     		adds	r3, r3, #1
 655 0288 87F84230 		strb	r3, [r7, #66]
 656              	.L13:
 101:printer.c     **** 	for(uint8 x = 0; x < 22; x ++){
 657              		.loc 1 101 0 is_stmt 0 discriminator 1
 658 028c 97F84230 		ldrb	r3, [r7, #66]	@ zero_extendqisi2
 659 0290 152B     		cmp	r3, #21
 660 0292 EFD9     		bls	.L14
 661              	.LBE7:
 103:printer.c     **** 	}
 104:printer.c     **** 	UART_3_PutChar(LINE_FEED);
 662              		.loc 1 104 0 is_stmt 1
 663 0294 264B     		ldr	r3, .L125+36
 664 0296 1B78     		ldrb	r3, [r3]	@ zero_extendqisi2
 665 0298 1846     		mov	r0, r3
ARM GAS  C:\Users\Lenovo\AppData\Local\Temp\ccHD7LbD.s 			page 17


 666 029a FFF7FEFF 		bl	UART_3_PutChar
 667              	.LBB8:
 105:printer.c     **** 	for(uint8 x = 0; x < 22; x ++){
 668              		.loc 1 105 0
 669 029e 0023     		movs	r3, #0
 670 02a0 87F84130 		strb	r3, [r7, #65]
 671 02a4 0BE0     		b	.L15
 672              	.L16:
 106:printer.c     **** 		UART_3_PutChar(msn_EDS4[x]);
 673              		.loc 1 106 0 discriminator 3
 674 02a6 97F84130 		ldrb	r3, [r7, #65]	@ zero_extendqisi2
 675 02aa 244A     		ldr	r2, .L125+48
 676 02ac D35C     		ldrb	r3, [r2, r3]	@ zero_extendqisi2
 677 02ae 1846     		mov	r0, r3
 678 02b0 FFF7FEFF 		bl	UART_3_PutChar
 105:printer.c     **** 	for(uint8 x = 0; x < 22; x ++){
 679              		.loc 1 105 0 discriminator 3
 680 02b4 97F84130 		ldrb	r3, [r7, #65]	@ zero_extendqisi2
 681 02b8 0133     		adds	r3, r3, #1
 682 02ba 87F84130 		strb	r3, [r7, #65]
 683              	.L15:
 105:printer.c     **** 	for(uint8 x = 0; x < 22; x ++){
 684              		.loc 1 105 0 is_stmt 0 discriminator 1
 685 02be 97F84130 		ldrb	r3, [r7, #65]	@ zero_extendqisi2
 686 02c2 152B     		cmp	r3, #21
 687 02c4 EFD9     		bls	.L16
 688              	.LBE8:
 107:printer.c     **** 	}
 108:printer.c     ****     UART_3_PutChar(LINE_FEED);
 689              		.loc 1 108 0 is_stmt 1
 690 02c6 1A4B     		ldr	r3, .L125+36
 691 02c8 1B78     		ldrb	r3, [r3]	@ zero_extendqisi2
 692 02ca 1846     		mov	r0, r3
 693 02cc FFF7FEFF 		bl	UART_3_PutChar
 694              	.LBB9:
 109:printer.c     **** 	for(uint8 x = 0; x < 24; x ++){
 695              		.loc 1 109 0
 696 02d0 0023     		movs	r3, #0
 697 02d2 87F84030 		strb	r3, [r7, #64]
 698 02d6 0BE0     		b	.L17
 699              	.L18:
 110:printer.c     **** 		UART_3_PutChar(SEPARATOR[x]);
 700              		.loc 1 110 0 discriminator 3
 701 02d8 97F84030 		ldrb	r3, [r7, #64]	@ zero_extendqisi2
 702 02dc 184A     		ldr	r2, .L125+52
 703 02de D35C     		ldrb	r3, [r2, r3]	@ zero_extendqisi2
 704 02e0 1846     		mov	r0, r3
 705 02e2 FFF7FEFF 		bl	UART_3_PutChar
 109:printer.c     **** 	for(uint8 x = 0; x < 24; x ++){
 706              		.loc 1 109 0 discriminator 3
 707 02e6 97F84030 		ldrb	r3, [r7, #64]	@ zero_extendqisi2
 708 02ea 0133     		adds	r3, r3, #1
 709 02ec 87F84030 		strb	r3, [r7, #64]
 710              	.L17:
 109:printer.c     **** 	for(uint8 x = 0; x < 24; x ++){
 711              		.loc 1 109 0 is_stmt 0 discriminator 1
 712 02f0 97F84030 		ldrb	r3, [r7, #64]	@ zero_extendqisi2
ARM GAS  C:\Users\Lenovo\AppData\Local\Temp\ccHD7LbD.s 			page 18


 713 02f4 172B     		cmp	r3, #23
 714 02f6 EFD9     		bls	.L18
 715              	.LBE9:
 111:printer.c     **** 	}
 112:printer.c     ****     UART_3_PutChar(LINE_FEED);
 716              		.loc 1 112 0 is_stmt 1
 717 02f8 0D4B     		ldr	r3, .L125+36
 718 02fa 1B78     		ldrb	r3, [r3]	@ zero_extendqisi2
 719 02fc 1846     		mov	r0, r3
 720 02fe FFF7FEFF 		bl	UART_3_PutChar
 721              	.LBB10:
 113:printer.c     ****     /********** FECHA ***************/
 114:printer.c     **** 	for(uint8 x = 0; x < 13; x ++){
 722              		.loc 1 114 0
 723 0302 0023     		movs	r3, #0
 724 0304 87F83F30 		strb	r3, [r7, #63]
 725 0308 28E0     		b	.L19
 726              	.L126:
 727 030a 00BF     		.align	2
 728              	.L125:
 729 030c 00000000 		.word	int_salenumber
 730 0310 AD8BDB68 		.word	1759218605
 731 0314 00000000 		.word	sale_number
 732 0318 D34D6210 		.word	274877907
 733 031c 1F85EB51 		.word	1374389535
 734 0320 67666666 		.word	1717986919
 735 0324 00000000 		.word	ASK_TIME
 736 0328 00000000 		.word	touch1
 737 032c 00000000 		.word	msn_EDS
 738 0330 00000000 		.word	LINE_FEED
 739 0334 00000000 		.word	msn_EDS2
 740 0338 00000000 		.word	msn_EDS3
 741 033c 00000000 		.word	msn_EDS4
 742 0340 00000000 		.word	SEPARATOR
 743              	.L20:
 115:printer.c     **** 		UART_3_PutChar(msn_fecha[x]);
 744              		.loc 1 115 0 discriminator 3
 745 0344 97F83F30 		ldrb	r3, [r7, #63]	@ zero_extendqisi2
 746 0348 C34A     		ldr	r2, .L127
 747 034a D35C     		ldrb	r3, [r2, r3]	@ zero_extendqisi2
 748 034c 1846     		mov	r0, r3
 749 034e FFF7FEFF 		bl	UART_3_PutChar
 114:printer.c     **** 		UART_3_PutChar(msn_fecha[x]);
 750              		.loc 1 114 0 discriminator 3
 751 0352 97F83F30 		ldrb	r3, [r7, #63]	@ zero_extendqisi2
 752 0356 0133     		adds	r3, r3, #1
 753 0358 87F83F30 		strb	r3, [r7, #63]
 754              	.L19:
 114:printer.c     **** 		UART_3_PutChar(msn_fecha[x]);
 755              		.loc 1 114 0 is_stmt 0 discriminator 1
 756 035c 97F83F30 		ldrb	r3, [r7, #63]	@ zero_extendqisi2
 757 0360 0C2B     		cmp	r3, #12
 758 0362 EFD9     		bls	.L20
 759              	.LBE10:
 116:printer.c     **** 	}
 117:printer.c     ****     UART_3_PutChar(((touch1[6] >> 4) + 0x30));
 760              		.loc 1 117 0 is_stmt 1
ARM GAS  C:\Users\Lenovo\AppData\Local\Temp\ccHD7LbD.s 			page 19


 761 0364 BD4B     		ldr	r3, .L127+4
 762 0366 9B79     		ldrb	r3, [r3, #6]	@ zero_extendqisi2
 763 0368 1B09     		lsrs	r3, r3, #4
 764 036a DBB2     		uxtb	r3, r3
 765 036c 3033     		adds	r3, r3, #48
 766 036e DBB2     		uxtb	r3, r3
 767 0370 1846     		mov	r0, r3
 768 0372 FFF7FEFF 		bl	UART_3_PutChar
 118:printer.c     ****     UART_3_PutChar(((touch1[6] & 0x0F) + 0x30));
 769              		.loc 1 118 0
 770 0376 B94B     		ldr	r3, .L127+4
 771 0378 9B79     		ldrb	r3, [r3, #6]	@ zero_extendqisi2
 772 037a 03F00F03 		and	r3, r3, #15
 773 037e DBB2     		uxtb	r3, r3
 774 0380 3033     		adds	r3, r3, #48
 775 0382 DBB2     		uxtb	r3, r3
 776 0384 1846     		mov	r0, r3
 777 0386 FFF7FEFF 		bl	UART_3_PutChar
 119:printer.c     ****     UART_3_PutChar('/');
 778              		.loc 1 119 0
 779 038a 2F20     		movs	r0, #47
 780 038c FFF7FEFF 		bl	UART_3_PutChar
 120:printer.c     ****     UART_3_PutChar(((touch1[7] >> 4) + 0x30)) ;
 781              		.loc 1 120 0
 782 0390 B24B     		ldr	r3, .L127+4
 783 0392 DB79     		ldrb	r3, [r3, #7]	@ zero_extendqisi2
 784 0394 1B09     		lsrs	r3, r3, #4
 785 0396 DBB2     		uxtb	r3, r3
 786 0398 3033     		adds	r3, r3, #48
 787 039a DBB2     		uxtb	r3, r3
 788 039c 1846     		mov	r0, r3
 789 039e FFF7FEFF 		bl	UART_3_PutChar
 121:printer.c     ****     UART_3_PutChar(((touch1[7] & 0x0F) + 0x30));
 790              		.loc 1 121 0
 791 03a2 AE4B     		ldr	r3, .L127+4
 792 03a4 DB79     		ldrb	r3, [r3, #7]	@ zero_extendqisi2
 793 03a6 03F00F03 		and	r3, r3, #15
 794 03aa DBB2     		uxtb	r3, r3
 795 03ac 3033     		adds	r3, r3, #48
 796 03ae DBB2     		uxtb	r3, r3
 797 03b0 1846     		mov	r0, r3
 798 03b2 FFF7FEFF 		bl	UART_3_PutChar
 122:printer.c     ****     UART_3_PutChar('/');
 799              		.loc 1 122 0
 800 03b6 2F20     		movs	r0, #47
 801 03b8 FFF7FEFF 		bl	UART_3_PutChar
 123:printer.c     ****     UART_3_PutChar(((touch1[8] >> 4) + 0x30)) ;
 802              		.loc 1 123 0
 803 03bc A74B     		ldr	r3, .L127+4
 804 03be 1B7A     		ldrb	r3, [r3, #8]	@ zero_extendqisi2
 805 03c0 1B09     		lsrs	r3, r3, #4
 806 03c2 DBB2     		uxtb	r3, r3
 807 03c4 3033     		adds	r3, r3, #48
 808 03c6 DBB2     		uxtb	r3, r3
 809 03c8 1846     		mov	r0, r3
 810 03ca FFF7FEFF 		bl	UART_3_PutChar
 124:printer.c     **** 	UART_3_PutChar(((touch1[8] & 0x0F) + 0x30));
ARM GAS  C:\Users\Lenovo\AppData\Local\Temp\ccHD7LbD.s 			page 20


 811              		.loc 1 124 0
 812 03ce A34B     		ldr	r3, .L127+4
 813 03d0 1B7A     		ldrb	r3, [r3, #8]	@ zero_extendqisi2
 814 03d2 03F00F03 		and	r3, r3, #15
 815 03d6 DBB2     		uxtb	r3, r3
 816 03d8 3033     		adds	r3, r3, #48
 817 03da DBB2     		uxtb	r3, r3
 818 03dc 1846     		mov	r0, r3
 819 03de FFF7FEFF 		bl	UART_3_PutChar
 125:printer.c     **** 
 126:printer.c     **** 	UART_3_PutChar(LINE_FEED);
 820              		.loc 1 126 0
 821 03e2 9F4B     		ldr	r3, .L127+8
 822 03e4 1B78     		ldrb	r3, [r3]	@ zero_extendqisi2
 823 03e6 1846     		mov	r0, r3
 824 03e8 FFF7FEFF 		bl	UART_3_PutChar
 825              	.LBB11:
 127:printer.c     ****     /********** HORA ***************/
 128:printer.c     **** 	for(uint8 x = 0; x < 13; x ++){
 826              		.loc 1 128 0
 827 03ec 0023     		movs	r3, #0
 828 03ee 87F83E30 		strb	r3, [r7, #62]
 829 03f2 0BE0     		b	.L21
 830              	.L22:
 129:printer.c     **** 		UART_3_PutChar(msn_hora[x]);
 831              		.loc 1 129 0 discriminator 3
 832 03f4 97F83E30 		ldrb	r3, [r7, #62]	@ zero_extendqisi2
 833 03f8 9A4A     		ldr	r2, .L127+12
 834 03fa D35C     		ldrb	r3, [r2, r3]	@ zero_extendqisi2
 835 03fc 1846     		mov	r0, r3
 836 03fe FFF7FEFF 		bl	UART_3_PutChar
 128:printer.c     **** 		UART_3_PutChar(msn_hora[x]);
 837              		.loc 1 128 0 discriminator 3
 838 0402 97F83E30 		ldrb	r3, [r7, #62]	@ zero_extendqisi2
 839 0406 0133     		adds	r3, r3, #1
 840 0408 87F83E30 		strb	r3, [r7, #62]
 841              	.L21:
 128:printer.c     **** 		UART_3_PutChar(msn_hora[x]);
 842              		.loc 1 128 0 is_stmt 0 discriminator 1
 843 040c 97F83E30 		ldrb	r3, [r7, #62]	@ zero_extendqisi2
 844 0410 0C2B     		cmp	r3, #12
 845 0412 EFD9     		bls	.L22
 846              	.LBE11:
 130:printer.c     **** 	}
 131:printer.c     ****     UART_3_PutChar(((touch1[10] >> 4) + 0x30)) ;
 847              		.loc 1 131 0 is_stmt 1
 848 0414 914B     		ldr	r3, .L127+4
 849 0416 9B7A     		ldrb	r3, [r3, #10]	@ zero_extendqisi2
 850 0418 1B09     		lsrs	r3, r3, #4
 851 041a DBB2     		uxtb	r3, r3
 852 041c 3033     		adds	r3, r3, #48
 853 041e DBB2     		uxtb	r3, r3
 854 0420 1846     		mov	r0, r3
 855 0422 FFF7FEFF 		bl	UART_3_PutChar
 132:printer.c     ****     UART_3_PutChar(((touch1[10] & 0x0F) + 0x30));
 856              		.loc 1 132 0
 857 0426 8D4B     		ldr	r3, .L127+4
ARM GAS  C:\Users\Lenovo\AppData\Local\Temp\ccHD7LbD.s 			page 21


 858 0428 9B7A     		ldrb	r3, [r3, #10]	@ zero_extendqisi2
 859 042a 03F00F03 		and	r3, r3, #15
 860 042e DBB2     		uxtb	r3, r3
 861 0430 3033     		adds	r3, r3, #48
 862 0432 DBB2     		uxtb	r3, r3
 863 0434 1846     		mov	r0, r3
 864 0436 FFF7FEFF 		bl	UART_3_PutChar
 133:printer.c     ****     UART_3_PutChar(':');
 865              		.loc 1 133 0
 866 043a 3A20     		movs	r0, #58
 867 043c FFF7FEFF 		bl	UART_3_PutChar
 134:printer.c     ****     UART_3_PutChar(((touch1[11] >> 4) + 0x30)) ;
 868              		.loc 1 134 0
 869 0440 864B     		ldr	r3, .L127+4
 870 0442 DB7A     		ldrb	r3, [r3, #11]	@ zero_extendqisi2
 871 0444 1B09     		lsrs	r3, r3, #4
 872 0446 DBB2     		uxtb	r3, r3
 873 0448 3033     		adds	r3, r3, #48
 874 044a DBB2     		uxtb	r3, r3
 875 044c 1846     		mov	r0, r3
 876 044e FFF7FEFF 		bl	UART_3_PutChar
 135:printer.c     ****     UART_3_PutChar(((touch1[11] & 0x0F) + 0x30));
 877              		.loc 1 135 0
 878 0452 824B     		ldr	r3, .L127+4
 879 0454 DB7A     		ldrb	r3, [r3, #11]	@ zero_extendqisi2
 880 0456 03F00F03 		and	r3, r3, #15
 881 045a DBB2     		uxtb	r3, r3
 882 045c 3033     		adds	r3, r3, #48
 883 045e DBB2     		uxtb	r3, r3
 884 0460 1846     		mov	r0, r3
 885 0462 FFF7FEFF 		bl	UART_3_PutChar
 136:printer.c     ****     UART_3_PutChar(':');
 886              		.loc 1 136 0
 887 0466 3A20     		movs	r0, #58
 888 0468 FFF7FEFF 		bl	UART_3_PutChar
 137:printer.c     ****     UART_3_PutChar(((touch1[12] >> 4) + 0x30));
 889              		.loc 1 137 0
 890 046c 7B4B     		ldr	r3, .L127+4
 891 046e 1B7B     		ldrb	r3, [r3, #12]	@ zero_extendqisi2
 892 0470 1B09     		lsrs	r3, r3, #4
 893 0472 DBB2     		uxtb	r3, r3
 894 0474 3033     		adds	r3, r3, #48
 895 0476 DBB2     		uxtb	r3, r3
 896 0478 1846     		mov	r0, r3
 897 047a FFF7FEFF 		bl	UART_3_PutChar
 138:printer.c     **** 	UART_3_PutChar(((touch1[12] & 0x0F) + 0x30));
 898              		.loc 1 138 0
 899 047e 774B     		ldr	r3, .L127+4
 900 0480 1B7B     		ldrb	r3, [r3, #12]	@ zero_extendqisi2
 901 0482 03F00F03 		and	r3, r3, #15
 902 0486 DBB2     		uxtb	r3, r3
 903 0488 3033     		adds	r3, r3, #48
 904 048a DBB2     		uxtb	r3, r3
 905 048c 1846     		mov	r0, r3
 906 048e FFF7FEFF 		bl	UART_3_PutChar
 139:printer.c     **** 	
 140:printer.c     ****     UART_3_PutChar(LINE_FEED);
ARM GAS  C:\Users\Lenovo\AppData\Local\Temp\ccHD7LbD.s 			page 22


 907              		.loc 1 140 0
 908 0492 734B     		ldr	r3, .L127+8
 909 0494 1B78     		ldrb	r3, [r3]	@ zero_extendqisi2
 910 0496 1846     		mov	r0, r3
 911 0498 FFF7FEFF 		bl	UART_3_PutChar
 912              	.LBB12:
 141:printer.c     ****     for(uint8 x = 0; x < 24; x ++){
 913              		.loc 1 141 0
 914 049c 0023     		movs	r3, #0
 915 049e 87F83D30 		strb	r3, [r7, #61]
 916 04a2 0BE0     		b	.L23
 917              	.L24:
 142:printer.c     **** 		UART_3_PutChar(SEPARATOR[x]);
 918              		.loc 1 142 0 discriminator 3
 919 04a4 97F83D30 		ldrb	r3, [r7, #61]	@ zero_extendqisi2
 920 04a8 6F4A     		ldr	r2, .L127+16
 921 04aa D35C     		ldrb	r3, [r2, r3]	@ zero_extendqisi2
 922 04ac 1846     		mov	r0, r3
 923 04ae FFF7FEFF 		bl	UART_3_PutChar
 141:printer.c     ****     for(uint8 x = 0; x < 24; x ++){
 924              		.loc 1 141 0 discriminator 3
 925 04b2 97F83D30 		ldrb	r3, [r7, #61]	@ zero_extendqisi2
 926 04b6 0133     		adds	r3, r3, #1
 927 04b8 87F83D30 		strb	r3, [r7, #61]
 928              	.L23:
 141:printer.c     ****     for(uint8 x = 0; x < 24; x ++){
 929              		.loc 1 141 0 is_stmt 0 discriminator 1
 930 04bc 97F83D30 		ldrb	r3, [r7, #61]	@ zero_extendqisi2
 931 04c0 172B     		cmp	r3, #23
 932 04c2 EFD9     		bls	.L24
 933              	.LBE12:
 143:printer.c     **** 	}
 144:printer.c     ****     UART_3_PutChar(LINE_FEED); 
 934              		.loc 1 144 0 is_stmt 1
 935 04c4 664B     		ldr	r3, .L127+8
 936 04c6 1B78     		ldrb	r3, [r3]	@ zero_extendqisi2
 937 04c8 1846     		mov	r0, r3
 938 04ca FFF7FEFF 		bl	UART_3_PutChar
 939              	.LBB13:
 145:printer.c     ****     for(uint8 x = 0; x < 13; x ++){
 940              		.loc 1 145 0
 941 04ce 0023     		movs	r3, #0
 942 04d0 87F83C30 		strb	r3, [r7, #60]
 943 04d4 0BE0     		b	.L25
 944              	.L26:
 146:printer.c     **** 		UART_3_PutChar(msn_venta[x]);
 945              		.loc 1 146 0 discriminator 3
 946 04d6 97F83C30 		ldrb	r3, [r7, #60]	@ zero_extendqisi2
 947 04da 644A     		ldr	r2, .L127+20
 948 04dc D35C     		ldrb	r3, [r2, r3]	@ zero_extendqisi2
 949 04de 1846     		mov	r0, r3
 950 04e0 FFF7FEFF 		bl	UART_3_PutChar
 145:printer.c     ****     for(uint8 x = 0; x < 13; x ++){
 951              		.loc 1 145 0 discriminator 3
 952 04e4 97F83C30 		ldrb	r3, [r7, #60]	@ zero_extendqisi2
 953 04e8 0133     		adds	r3, r3, #1
 954 04ea 87F83C30 		strb	r3, [r7, #60]
ARM GAS  C:\Users\Lenovo\AppData\Local\Temp\ccHD7LbD.s 			page 23


 955              	.L25:
 145:printer.c     ****     for(uint8 x = 0; x < 13; x ++){
 956              		.loc 1 145 0 is_stmt 0 discriminator 1
 957 04ee 97F83C30 		ldrb	r3, [r7, #60]	@ zero_extendqisi2
 958 04f2 0C2B     		cmp	r3, #12
 959 04f4 EFD9     		bls	.L26
 960              	.LBE13:
 961              	.LBB14:
 147:printer.c     **** 	}
 148:printer.c     ****     for(uint8 x = 5; x > 0; x --){
 962              		.loc 1 148 0 is_stmt 1
 963 04f6 0523     		movs	r3, #5
 964 04f8 87F83B30 		strb	r3, [r7, #59]
 965 04fc 0BE0     		b	.L27
 966              	.L28:
 149:printer.c     **** 		UART_3_PutChar(sale_number[x]);
 967              		.loc 1 149 0 discriminator 3
 968 04fe 97F83B30 		ldrb	r3, [r7, #59]	@ zero_extendqisi2
 969 0502 5B4A     		ldr	r2, .L127+24
 970 0504 D35C     		ldrb	r3, [r2, r3]	@ zero_extendqisi2
 971 0506 1846     		mov	r0, r3
 972 0508 FFF7FEFF 		bl	UART_3_PutChar
 148:printer.c     **** 		UART_3_PutChar(sale_number[x]);
 973              		.loc 1 148 0 discriminator 3
 974 050c 97F83B30 		ldrb	r3, [r7, #59]	@ zero_extendqisi2
 975 0510 013B     		subs	r3, r3, #1
 976 0512 87F83B30 		strb	r3, [r7, #59]
 977              	.L27:
 148:printer.c     **** 		UART_3_PutChar(sale_number[x]);
 978              		.loc 1 148 0 is_stmt 0 discriminator 1
 979 0516 97F83B30 		ldrb	r3, [r7, #59]	@ zero_extendqisi2
 980 051a 002B     		cmp	r3, #0
 981 051c EFD1     		bne	.L28
 982              	.LBE14:
 150:printer.c     **** 	}
 151:printer.c     ****     UART_3_PutChar(LINE_FEED);
 983              		.loc 1 151 0 is_stmt 1
 984 051e 504B     		ldr	r3, .L127+8
 985 0520 1B78     		ldrb	r3, [r3]	@ zero_extendqisi2
 986 0522 1846     		mov	r0, r3
 987 0524 FFF7FEFF 		bl	UART_3_PutChar
 988              	.LBB15:
 152:printer.c     **** 	for(uint8 x = 0; x < 13; x ++){
 989              		.loc 1 152 0
 990 0528 0023     		movs	r3, #0
 991 052a 87F83A30 		strb	r3, [r7, #58]
 992 052e 0BE0     		b	.L29
 993              	.L30:
 153:printer.c     **** 		UART_3_PutChar(msn_placa[x]);
 994              		.loc 1 153 0 discriminator 3
 995 0530 97F83A30 		ldrb	r3, [r7, #58]	@ zero_extendqisi2
 996 0534 4F4A     		ldr	r2, .L127+28
 997 0536 D35C     		ldrb	r3, [r2, r3]	@ zero_extendqisi2
 998 0538 1846     		mov	r0, r3
 999 053a FFF7FEFF 		bl	UART_3_PutChar
 152:printer.c     **** 	for(uint8 x = 0; x < 13; x ++){
 1000              		.loc 1 152 0 discriminator 3
ARM GAS  C:\Users\Lenovo\AppData\Local\Temp\ccHD7LbD.s 			page 24


 1001 053e 97F83A30 		ldrb	r3, [r7, #58]	@ zero_extendqisi2
 1002 0542 0133     		adds	r3, r3, #1
 1003 0544 87F83A30 		strb	r3, [r7, #58]
 1004              	.L29:
 152:printer.c     **** 	for(uint8 x = 0; x < 13; x ++){
 1005              		.loc 1 152 0 is_stmt 0 discriminator 1
 1006 0548 97F83A30 		ldrb	r3, [r7, #58]	@ zero_extendqisi2
 1007 054c 0C2B     		cmp	r3, #12
 1008 054e EFD9     		bls	.L30
 1009              	.LBE15:
 154:printer.c     **** 	}
 155:printer.c     **** 	/***** body ******/
 156:printer.c     **** 	if(address == side.a.dir){
 1010              		.loc 1 156 0 is_stmt 1
 1011 0550 494B     		ldr	r3, .L127+32
 1012 0552 1B78     		ldrb	r3, [r3]	@ zero_extendqisi2
 1013 0554 FA79     		ldrb	r2, [r7, #7]	@ zero_extendqisi2
 1014 0556 9A42     		cmp	r2, r3
 1015 0558 40F03281 		bne	.L31
 1016              	.LBB16:
 157:printer.c     **** 		for(uint8 x = 0; x < 7; x ++){
 1017              		.loc 1 157 0
 1018 055c 0023     		movs	r3, #0
 1019 055e 87F83930 		strb	r3, [r7, #57]
 1020 0562 0BE0     		b	.L32
 1021              	.L33:
 158:printer.c     **** 			UART_3_PutChar(msn_plate[x]);
 1022              		.loc 1 158 0 discriminator 3
 1023 0564 97F83930 		ldrb	r3, [r7, #57]	@ zero_extendqisi2
 1024 0568 444A     		ldr	r2, .L127+36
 1025 056a D35C     		ldrb	r3, [r2, r3]	@ zero_extendqisi2
 1026 056c 1846     		mov	r0, r3
 1027 056e FFF7FEFF 		bl	UART_3_PutChar
 157:printer.c     **** 		for(uint8 x = 0; x < 7; x ++){
 1028              		.loc 1 157 0 discriminator 3
 1029 0572 97F83930 		ldrb	r3, [r7, #57]	@ zero_extendqisi2
 1030 0576 0133     		adds	r3, r3, #1
 1031 0578 87F83930 		strb	r3, [r7, #57]
 1032              	.L32:
 157:printer.c     **** 		for(uint8 x = 0; x < 7; x ++){
 1033              		.loc 1 157 0 is_stmt 0 discriminator 1
 1034 057c 97F83930 		ldrb	r3, [r7, #57]	@ zero_extendqisi2
 1035 0580 062B     		cmp	r3, #6
 1036 0582 EFD9     		bls	.L33
 1037              	.LBE16:
 159:printer.c     **** 		}  
 160:printer.c     ****         UART_3_PutChar(LINE_FEED);
 1038              		.loc 1 160 0 is_stmt 1
 1039 0584 364B     		ldr	r3, .L127+8
 1040 0586 1B78     		ldrb	r3, [r3]	@ zero_extendqisi2
 1041 0588 1846     		mov	r0, r3
 1042 058a FFF7FEFF 		bl	UART_3_PutChar
 1043              	.LBB17:
 161:printer.c     **** 		for(uint8 x = 0; x < 13; x ++){
 1044              		.loc 1 161 0
 1045 058e 0023     		movs	r3, #0
 1046 0590 87F83830 		strb	r3, [r7, #56]
ARM GAS  C:\Users\Lenovo\AppData\Local\Temp\ccHD7LbD.s 			page 25


 1047 0594 0BE0     		b	.L34
 1048              	.L35:
 162:printer.c     **** 			UART_3_PutChar(msn_pos[x]);
 1049              		.loc 1 162 0 discriminator 3
 1050 0596 97F83830 		ldrb	r3, [r7, #56]	@ zero_extendqisi2
 1051 059a 394A     		ldr	r2, .L127+40
 1052 059c D35C     		ldrb	r3, [r2, r3]	@ zero_extendqisi2
 1053 059e 1846     		mov	r0, r3
 1054 05a0 FFF7FEFF 		bl	UART_3_PutChar
 161:printer.c     **** 		for(uint8 x = 0; x < 13; x ++){
 1055              		.loc 1 161 0 discriminator 3
 1056 05a4 97F83830 		ldrb	r3, [r7, #56]	@ zero_extendqisi2
 1057 05a8 0133     		adds	r3, r3, #1
 1058 05aa 87F83830 		strb	r3, [r7, #56]
 1059              	.L34:
 161:printer.c     **** 		for(uint8 x = 0; x < 13; x ++){
 1060              		.loc 1 161 0 is_stmt 0 discriminator 1
 1061 05ae 97F83830 		ldrb	r3, [r7, #56]	@ zero_extendqisi2
 1062 05b2 0C2B     		cmp	r3, #12
 1063 05b4 EFD9     		bls	.L35
 1064              	.LBE17:
 163:printer.c     **** 		}
 164:printer.c     **** 		UART_3_PutChar((side.a.dir)+ 0x31);
 1065              		.loc 1 164 0 is_stmt 1
 1066 05b6 304B     		ldr	r3, .L127+32
 1067 05b8 1B78     		ldrb	r3, [r3]	@ zero_extendqisi2
 1068 05ba 3133     		adds	r3, r3, #49
 1069 05bc DBB2     		uxtb	r3, r3
 1070 05be 1846     		mov	r0, r3
 1071 05c0 FFF7FEFF 		bl	UART_3_PutChar
 165:printer.c     **** 		UART_3_PutChar(LINE_FEED);
 1072              		.loc 1 165 0
 1073 05c4 264B     		ldr	r3, .L127+8
 1074 05c6 1B78     		ldrb	r3, [r3]	@ zero_extendqisi2
 1075 05c8 1846     		mov	r0, r3
 1076 05ca FFF7FEFF 		bl	UART_3_PutChar
 1077              	.LBB18:
 166:printer.c     **** 		for(uint8 x = 0; x < 13; x ++){
 1078              		.loc 1 166 0
 1079 05ce 0023     		movs	r3, #0
 1080 05d0 87F83730 		strb	r3, [r7, #55]
 1081 05d4 0BE0     		b	.L36
 1082              	.L37:
 167:printer.c     **** 			UART_3_PutChar(msn_product[x]);
 1083              		.loc 1 167 0 discriminator 3
 1084 05d6 97F83730 		ldrb	r3, [r7, #55]	@ zero_extendqisi2
 1085 05da 2A4A     		ldr	r2, .L127+44
 1086 05dc D35C     		ldrb	r3, [r2, r3]	@ zero_extendqisi2
 1087 05de 1846     		mov	r0, r3
 1088 05e0 FFF7FEFF 		bl	UART_3_PutChar
 166:printer.c     **** 		for(uint8 x = 0; x < 13; x ++){
 1089              		.loc 1 166 0 discriminator 3
 1090 05e4 97F83730 		ldrb	r3, [r7, #55]	@ zero_extendqisi2
 1091 05e8 0133     		adds	r3, r3, #1
 1092 05ea 87F83730 		strb	r3, [r7, #55]
 1093              	.L36:
 166:printer.c     **** 		for(uint8 x = 0; x < 13; x ++){
ARM GAS  C:\Users\Lenovo\AppData\Local\Temp\ccHD7LbD.s 			page 26


 1094              		.loc 1 166 0 is_stmt 0 discriminator 1
 1095 05ee 97F83730 		ldrb	r3, [r7, #55]	@ zero_extendqisi2
 1096 05f2 0C2B     		cmp	r3, #12
 1097 05f4 EFD9     		bls	.L37
 1098              	.LBE18:
 1099              	.LBB19:
 168:printer.c     **** 		}
 169:printer.c     **** 		for(uint8 x = 0; x < 8; x ++){
 1100              		.loc 1 169 0 is_stmt 1
 1101 05f6 0023     		movs	r3, #0
 1102 05f8 87F83630 		strb	r3, [r7, #54]
 1103 05fc 0BE0     		b	.L38
 1104              	.L39:
 170:printer.c     **** 			UART_3_PutChar(msn_diesel[x]);
 1105              		.loc 1 170 0 discriminator 3
 1106 05fe 97F83630 		ldrb	r3, [r7, #54]	@ zero_extendqisi2
 1107 0602 214A     		ldr	r2, .L127+48
 1108 0604 D35C     		ldrb	r3, [r2, r3]	@ zero_extendqisi2
 1109 0606 1846     		mov	r0, r3
 1110 0608 FFF7FEFF 		bl	UART_3_PutChar
 169:printer.c     **** 			UART_3_PutChar(msn_diesel[x]);
 1111              		.loc 1 169 0 discriminator 3
 1112 060c 97F83630 		ldrb	r3, [r7, #54]	@ zero_extendqisi2
 1113 0610 0133     		adds	r3, r3, #1
 1114 0612 87F83630 		strb	r3, [r7, #54]
 1115              	.L38:
 169:printer.c     **** 			UART_3_PutChar(msn_diesel[x]);
 1116              		.loc 1 169 0 is_stmt 0 discriminator 1
 1117 0616 97F83630 		ldrb	r3, [r7, #54]	@ zero_extendqisi2
 1118 061a 072B     		cmp	r3, #7
 1119 061c EFD9     		bls	.L39
 1120              	.LBE19:
 171:printer.c     **** 		}
 172:printer.c     ****         UART_3_PutChar(LINE_FEED);
 1121              		.loc 1 172 0 is_stmt 1
 1122 061e 104B     		ldr	r3, .L127+8
 1123 0620 1B78     		ldrb	r3, [r3]	@ zero_extendqisi2
 1124 0622 1846     		mov	r0, r3
 1125 0624 FFF7FEFF 		bl	UART_3_PutChar
 1126              	.LBB20:
 173:printer.c     **** 		for(uint8 x = 0; x < 13; x ++){
 1127              		.loc 1 173 0
 1128 0628 0023     		movs	r3, #0
 1129 062a 87F83530 		strb	r3, [r7, #53]
 1130 062e 0BE0     		b	.L40
 1131              	.L41:
 174:printer.c     **** 			UART_3_PutChar(msn_vol[x]);
 1132              		.loc 1 174 0 discriminator 3
 1133 0630 97F83530 		ldrb	r3, [r7, #53]	@ zero_extendqisi2
 1134 0634 154A     		ldr	r2, .L127+52
 1135 0636 D35C     		ldrb	r3, [r2, r3]	@ zero_extendqisi2
 1136 0638 1846     		mov	r0, r3
 1137 063a FFF7FEFF 		bl	UART_3_PutChar
 173:printer.c     **** 		for(uint8 x = 0; x < 13; x ++){
 1138              		.loc 1 173 0 discriminator 3
 1139 063e 97F83530 		ldrb	r3, [r7, #53]	@ zero_extendqisi2
 1140 0642 0133     		adds	r3, r3, #1
ARM GAS  C:\Users\Lenovo\AppData\Local\Temp\ccHD7LbD.s 			page 27


 1141 0644 87F83530 		strb	r3, [r7, #53]
 1142              	.L40:
 173:printer.c     **** 		for(uint8 x = 0; x < 13; x ++){
 1143              		.loc 1 173 0 is_stmt 0 discriminator 1
 1144 0648 97F83530 		ldrb	r3, [r7, #53]	@ zero_extendqisi2
 1145 064c 0C2B     		cmp	r3, #12
 1146 064e EFD9     		bls	.L41
 1147              	.LBE20:
 1148              	.LBB21:
 175:printer.c     **** 		}
 176:printer.c     **** 		for(uint8 x = 0; x < 8; x ++){
 1149              		.loc 1 176 0 is_stmt 1
 1150 0650 0023     		movs	r3, #0
 1151 0652 87F83430 		strb	r3, [r7, #52]
 1152 0656 34E0     		b	.L42
 1153              	.L128:
 1154              		.align	2
 1155              	.L127:
 1156 0658 00000000 		.word	msn_fecha
 1157 065c 00000000 		.word	touch1
 1158 0660 00000000 		.word	LINE_FEED
 1159 0664 00000000 		.word	msn_hora
 1160 0668 00000000 		.word	SEPARATOR
 1161 066c 00000000 		.word	msn_venta
 1162 0670 00000000 		.word	sale_number
 1163 0674 00000000 		.word	msn_placa
 1164 0678 00000000 		.word	side
 1165 067c 00000000 		.word	msn_plate
 1166 0680 00000000 		.word	msn_pos
 1167 0684 00000000 		.word	msn_product
 1168 0688 00000000 		.word	msn_diesel
 1169 068c 00000000 		.word	msn_vol
 1170              	.L44:
 177:printer.c     **** 			if((8-x) == DecVol)
 1171              		.loc 1 177 0
 1172 0690 97F83430 		ldrb	r3, [r7, #52]	@ zero_extendqisi2
 1173 0694 C3F10803 		rsb	r3, r3, #8
 1174 0698 CD4A     		ldr	r2, .L129
 1175 069a 1278     		ldrb	r2, [r2]	@ zero_extendqisi2
 1176 069c 9342     		cmp	r3, r2
 1177 069e 02D1     		bne	.L43
 178:printer.c     **** 				UART_3_PutChar('.');
 1178              		.loc 1 178 0
 1179 06a0 2E20     		movs	r0, #46
 1180 06a2 FFF7FEFF 		bl	UART_3_PutChar
 1181              	.L43:
 179:printer.c     **** 			UART_3_PutChar(side.a.ProcessedvolumeSale[x]);        
 1182              		.loc 1 179 0 discriminator 2
 1183 06a6 97F83430 		ldrb	r3, [r7, #52]	@ zero_extendqisi2
 1184 06aa CA4A     		ldr	r2, .L129+4
 1185 06ac 1344     		add	r3, r3, r2
 1186 06ae 93F80331 		ldrb	r3, [r3, #259]	@ zero_extendqisi2
 1187 06b2 1846     		mov	r0, r3
 1188 06b4 FFF7FEFF 		bl	UART_3_PutChar
 176:printer.c     **** 			if((8-x) == DecVol)
 1189              		.loc 1 176 0 discriminator 2
 1190 06b8 97F83430 		ldrb	r3, [r7, #52]	@ zero_extendqisi2
ARM GAS  C:\Users\Lenovo\AppData\Local\Temp\ccHD7LbD.s 			page 28


 1191 06bc 0133     		adds	r3, r3, #1
 1192 06be 87F83430 		strb	r3, [r7, #52]
 1193              	.L42:
 176:printer.c     **** 			if((8-x) == DecVol)
 1194              		.loc 1 176 0 is_stmt 0 discriminator 1
 1195 06c2 97F83430 		ldrb	r3, [r7, #52]	@ zero_extendqisi2
 1196 06c6 072B     		cmp	r3, #7
 1197 06c8 E2D9     		bls	.L44
 1198              	.LBE21:
 180:printer.c     **** 		}
 181:printer.c     **** 		UART_3_PutChar(' ');
 1199              		.loc 1 181 0 is_stmt 1
 1200 06ca 2020     		movs	r0, #32
 1201 06cc FFF7FEFF 		bl	UART_3_PutChar
 182:printer.c     **** 		UART_3_PutChar(VolSimbol[0]);
 1202              		.loc 1 182 0
 1203 06d0 C14B     		ldr	r3, .L129+8
 1204 06d2 1B78     		ldrb	r3, [r3]	@ zero_extendqisi2
 1205 06d4 1846     		mov	r0, r3
 1206 06d6 FFF7FEFF 		bl	UART_3_PutChar
 183:printer.c     **** 		UART_3_PutChar(LINE_FEED); 
 1207              		.loc 1 183 0
 1208 06da C04B     		ldr	r3, .L129+12
 1209 06dc 1B78     		ldrb	r3, [r3]	@ zero_extendqisi2
 1210 06de 1846     		mov	r0, r3
 1211 06e0 FFF7FEFF 		bl	UART_3_PutChar
 1212              	.LBB22:
 184:printer.c     **** 		for(uint8 x = 0; x < 13; x ++){
 1213              		.loc 1 184 0
 1214 06e4 0023     		movs	r3, #0
 1215 06e6 87F83330 		strb	r3, [r7, #51]
 1216 06ea 0BE0     		b	.L45
 1217              	.L46:
 185:printer.c     **** 			UART_3_PutChar(msn_din[x]);
 1218              		.loc 1 185 0 discriminator 3
 1219 06ec 97F83330 		ldrb	r3, [r7, #51]	@ zero_extendqisi2
 1220 06f0 BB4A     		ldr	r2, .L129+16
 1221 06f2 D35C     		ldrb	r3, [r2, r3]	@ zero_extendqisi2
 1222 06f4 1846     		mov	r0, r3
 1223 06f6 FFF7FEFF 		bl	UART_3_PutChar
 184:printer.c     **** 		for(uint8 x = 0; x < 13; x ++){
 1224              		.loc 1 184 0 discriminator 3
 1225 06fa 97F83330 		ldrb	r3, [r7, #51]	@ zero_extendqisi2
 1226 06fe 0133     		adds	r3, r3, #1
 1227 0700 87F83330 		strb	r3, [r7, #51]
 1228              	.L45:
 184:printer.c     **** 		for(uint8 x = 0; x < 13; x ++){
 1229              		.loc 1 184 0 is_stmt 0 discriminator 1
 1230 0704 97F83330 		ldrb	r3, [r7, #51]	@ zero_extendqisi2
 1231 0708 0C2B     		cmp	r3, #12
 1232 070a EFD9     		bls	.L46
 1233              	.LBE22:
 186:printer.c     **** 		}     
 187:printer.c     **** 		UART_3_PutChar(PRN_CURRENCY[0]);  
 1234              		.loc 1 187 0 is_stmt 1
 1235 070c B54B     		ldr	r3, .L129+20
 1236 070e 1B78     		ldrb	r3, [r3]	@ zero_extendqisi2
ARM GAS  C:\Users\Lenovo\AppData\Local\Temp\ccHD7LbD.s 			page 29


 1237 0710 1846     		mov	r0, r3
 1238 0712 FFF7FEFF 		bl	UART_3_PutChar
 188:printer.c     **** 		UART_3_PutChar(' ');
 1239              		.loc 1 188 0
 1240 0716 2020     		movs	r0, #32
 1241 0718 FFF7FEFF 		bl	UART_3_PutChar
 1242              	.LBB23:
 189:printer.c     **** 		for(uint8 x = 0; x < 8; x ++){
 1243              		.loc 1 189 0
 1244 071c 0023     		movs	r3, #0
 1245 071e 87F83230 		strb	r3, [r7, #50]
 1246 0722 0DE0     		b	.L47
 1247              	.L48:
 190:printer.c     **** 			UART_3_PutChar(side.a.ProcessedmoneySale[x]);
 1248              		.loc 1 190 0 discriminator 3
 1249 0724 97F83230 		ldrb	r3, [r7, #50]	@ zero_extendqisi2
 1250 0728 AA4A     		ldr	r2, .L129+4
 1251 072a 1344     		add	r3, r3, r2
 1252 072c 93F8FB30 		ldrb	r3, [r3, #251]	@ zero_extendqisi2
 1253 0730 1846     		mov	r0, r3
 1254 0732 FFF7FEFF 		bl	UART_3_PutChar
 189:printer.c     **** 		for(uint8 x = 0; x < 8; x ++){
 1255              		.loc 1 189 0 discriminator 3
 1256 0736 97F83230 		ldrb	r3, [r7, #50]	@ zero_extendqisi2
 1257 073a 0133     		adds	r3, r3, #1
 1258 073c 87F83230 		strb	r3, [r7, #50]
 1259              	.L47:
 189:printer.c     **** 		for(uint8 x = 0; x < 8; x ++){
 1260              		.loc 1 189 0 is_stmt 0 discriminator 1
 1261 0740 97F83230 		ldrb	r3, [r7, #50]	@ zero_extendqisi2
 1262 0744 072B     		cmp	r3, #7
 1263 0746 EDD9     		bls	.L48
 1264              	.LBE23:
 191:printer.c     **** 		}
 192:printer.c     **** 		UART_3_PutChar(LINE_FEED); 	
 1265              		.loc 1 192 0 is_stmt 1
 1266 0748 A44B     		ldr	r3, .L129+12
 1267 074a 1B78     		ldrb	r3, [r3]	@ zero_extendqisi2
 1268 074c 1846     		mov	r0, r3
 1269 074e FFF7FEFF 		bl	UART_3_PutChar
 1270              	.LBB24:
 193:printer.c     **** 		for(uint8 x = 0; x < 13; x ++){
 1271              		.loc 1 193 0
 1272 0752 0023     		movs	r3, #0
 1273 0754 87F83130 		strb	r3, [r7, #49]
 1274 0758 0BE0     		b	.L49
 1275              	.L50:
 194:printer.c     **** 			UART_3_PutChar(msn_ppu[x]);
 1276              		.loc 1 194 0 discriminator 3
 1277 075a 97F83130 		ldrb	r3, [r7, #49]	@ zero_extendqisi2
 1278 075e A24A     		ldr	r2, .L129+24
 1279 0760 D35C     		ldrb	r3, [r2, r3]	@ zero_extendqisi2
 1280 0762 1846     		mov	r0, r3
 1281 0764 FFF7FEFF 		bl	UART_3_PutChar
 193:printer.c     **** 		for(uint8 x = 0; x < 13; x ++){
 1282              		.loc 1 193 0 discriminator 3
 1283 0768 97F83130 		ldrb	r3, [r7, #49]	@ zero_extendqisi2
ARM GAS  C:\Users\Lenovo\AppData\Local\Temp\ccHD7LbD.s 			page 30


 1284 076c 0133     		adds	r3, r3, #1
 1285 076e 87F83130 		strb	r3, [r7, #49]
 1286              	.L49:
 193:printer.c     **** 		for(uint8 x = 0; x < 13; x ++){
 1287              		.loc 1 193 0 is_stmt 0 discriminator 1
 1288 0772 97F83130 		ldrb	r3, [r7, #49]	@ zero_extendqisi2
 1289 0776 0C2B     		cmp	r3, #12
 1290 0778 EFD9     		bls	.L50
 1291              	.LBE24:
 195:printer.c     **** 		}
 196:printer.c     **** 		UART_3_PutChar(PRN_CURRENCY[0]);  
 1292              		.loc 1 196 0 is_stmt 1
 1293 077a 9A4B     		ldr	r3, .L129+20
 1294 077c 1B78     		ldrb	r3, [r3]	@ zero_extendqisi2
 1295 077e 1846     		mov	r0, r3
 1296 0780 FFF7FEFF 		bl	UART_3_PutChar
 197:printer.c     **** 		UART_3_PutChar(' ');
 1297              		.loc 1 197 0
 1298 0784 2020     		movs	r0, #32
 1299 0786 FFF7FEFF 		bl	UART_3_PutChar
 1300              	.LBB25:
 198:printer.c     **** 		for(uint8 x = 1; x < 6; x ++){
 1301              		.loc 1 198 0
 1302 078a 0123     		movs	r3, #1
 1303 078c 87F83030 		strb	r3, [r7, #48]
 1304 0790 0DE0     		b	.L51
 1305              	.L52:
 199:printer.c     **** 			UART_3_PutChar(side.a.ProcessedPPU[0][x]);
 1306              		.loc 1 199 0 discriminator 3
 1307 0792 97F83030 		ldrb	r3, [r7, #48]	@ zero_extendqisi2
 1308 0796 8F4A     		ldr	r2, .L129+4
 1309 0798 1344     		add	r3, r3, r2
 1310 079a 93F80B31 		ldrb	r3, [r3, #267]	@ zero_extendqisi2
 1311 079e 1846     		mov	r0, r3
 1312 07a0 FFF7FEFF 		bl	UART_3_PutChar
 198:printer.c     **** 		for(uint8 x = 1; x < 6; x ++){
 1313              		.loc 1 198 0 discriminator 3
 1314 07a4 97F83030 		ldrb	r3, [r7, #48]	@ zero_extendqisi2
 1315 07a8 0133     		adds	r3, r3, #1
 1316 07aa 87F83030 		strb	r3, [r7, #48]
 1317              	.L51:
 198:printer.c     **** 		for(uint8 x = 1; x < 6; x ++){
 1318              		.loc 1 198 0 is_stmt 0 discriminator 1
 1319 07ae 97F83030 		ldrb	r3, [r7, #48]	@ zero_extendqisi2
 1320 07b2 052B     		cmp	r3, #5
 1321 07b4 EDD9     		bls	.L52
 1322              	.LBE25:
 200:printer.c     **** 		}
 201:printer.c     **** 		UART_3_PutChar(LINE_FEED);
 1323              		.loc 1 201 0 is_stmt 1
 1324 07b6 894B     		ldr	r3, .L129+12
 1325 07b8 1B78     		ldrb	r3, [r3]	@ zero_extendqisi2
 1326 07ba 1846     		mov	r0, r3
 1327 07bc FFF7FEFF 		bl	UART_3_PutChar
 1328              	.L31:
 202:printer.c     **** 	}
 203:printer.c     **** 	
ARM GAS  C:\Users\Lenovo\AppData\Local\Temp\ccHD7LbD.s 			page 31


 204:printer.c     **** 	if(address == side.b.dir){
 1329              		.loc 1 204 0
 1330 07c0 844B     		ldr	r3, .L129+4
 1331 07c2 93F82331 		ldrb	r3, [r3, #291]	@ zero_extendqisi2
 1332 07c6 FA79     		ldrb	r2, [r7, #7]	@ zero_extendqisi2
 1333 07c8 9A42     		cmp	r2, r3
 1334 07ca 40F03081 		bne	.L53
 1335              	.LBB26:
 205:printer.c     **** 		for(uint8 x = 0; x < 7; x ++){
 1336              		.loc 1 205 0
 1337 07ce 0023     		movs	r3, #0
 1338 07d0 87F82F30 		strb	r3, [r7, #47]
 1339 07d4 0BE0     		b	.L54
 1340              	.L55:
 206:printer.c     **** 			UART_3_PutChar(msn_plate[x]);
 1341              		.loc 1 206 0 discriminator 3
 1342 07d6 97F82F30 		ldrb	r3, [r7, #47]	@ zero_extendqisi2
 1343 07da 844A     		ldr	r2, .L129+28
 1344 07dc D35C     		ldrb	r3, [r2, r3]	@ zero_extendqisi2
 1345 07de 1846     		mov	r0, r3
 1346 07e0 FFF7FEFF 		bl	UART_3_PutChar
 205:printer.c     **** 		for(uint8 x = 0; x < 7; x ++){
 1347              		.loc 1 205 0 discriminator 3
 1348 07e4 97F82F30 		ldrb	r3, [r7, #47]	@ zero_extendqisi2
 1349 07e8 0133     		adds	r3, r3, #1
 1350 07ea 87F82F30 		strb	r3, [r7, #47]
 1351              	.L54:
 205:printer.c     **** 		for(uint8 x = 0; x < 7; x ++){
 1352              		.loc 1 205 0 is_stmt 0 discriminator 1
 1353 07ee 97F82F30 		ldrb	r3, [r7, #47]	@ zero_extendqisi2
 1354 07f2 062B     		cmp	r3, #6
 1355 07f4 EFD9     		bls	.L55
 1356              	.LBE26:
 207:printer.c     **** 		}
 208:printer.c     ****         UART_3_PutChar(LINE_FEED);
 1357              		.loc 1 208 0 is_stmt 1
 1358 07f6 794B     		ldr	r3, .L129+12
 1359 07f8 1B78     		ldrb	r3, [r3]	@ zero_extendqisi2
 1360 07fa 1846     		mov	r0, r3
 1361 07fc FFF7FEFF 		bl	UART_3_PutChar
 1362              	.LBB27:
 209:printer.c     **** 		for(uint8 x = 0; x < 13; x ++){
 1363              		.loc 1 209 0
 1364 0800 0023     		movs	r3, #0
 1365 0802 87F82E30 		strb	r3, [r7, #46]
 1366 0806 0BE0     		b	.L56
 1367              	.L57:
 210:printer.c     **** 			UART_3_PutChar(msn_pos[x]);
 1368              		.loc 1 210 0 discriminator 3
 1369 0808 97F82E30 		ldrb	r3, [r7, #46]	@ zero_extendqisi2
 1370 080c 784A     		ldr	r2, .L129+32
 1371 080e D35C     		ldrb	r3, [r2, r3]	@ zero_extendqisi2
 1372 0810 1846     		mov	r0, r3
 1373 0812 FFF7FEFF 		bl	UART_3_PutChar
 209:printer.c     **** 		for(uint8 x = 0; x < 13; x ++){
 1374              		.loc 1 209 0 discriminator 3
 1375 0816 97F82E30 		ldrb	r3, [r7, #46]	@ zero_extendqisi2
ARM GAS  C:\Users\Lenovo\AppData\Local\Temp\ccHD7LbD.s 			page 32


 1376 081a 0133     		adds	r3, r3, #1
 1377 081c 87F82E30 		strb	r3, [r7, #46]
 1378              	.L56:
 209:printer.c     **** 		for(uint8 x = 0; x < 13; x ++){
 1379              		.loc 1 209 0 is_stmt 0 discriminator 1
 1380 0820 97F82E30 		ldrb	r3, [r7, #46]	@ zero_extendqisi2
 1381 0824 0C2B     		cmp	r3, #12
 1382 0826 EFD9     		bls	.L57
 1383              	.LBE27:
 211:printer.c     **** 		}
 212:printer.c     **** 		UART_3_PutChar((side.b.dir)+ 0x31);
 1384              		.loc 1 212 0 is_stmt 1
 1385 0828 6A4B     		ldr	r3, .L129+4
 1386 082a 93F82331 		ldrb	r3, [r3, #291]	@ zero_extendqisi2
 1387 082e 3133     		adds	r3, r3, #49
 1388 0830 DBB2     		uxtb	r3, r3
 1389 0832 1846     		mov	r0, r3
 1390 0834 FFF7FEFF 		bl	UART_3_PutChar
 213:printer.c     **** 		UART_3_PutChar(LINE_FEED);
 1391              		.loc 1 213 0
 1392 0838 684B     		ldr	r3, .L129+12
 1393 083a 1B78     		ldrb	r3, [r3]	@ zero_extendqisi2
 1394 083c 1846     		mov	r0, r3
 1395 083e FFF7FEFF 		bl	UART_3_PutChar
 1396              	.LBB28:
 214:printer.c     **** 		for(uint8 x = 0; x < 13; x ++){
 1397              		.loc 1 214 0
 1398 0842 0023     		movs	r3, #0
 1399 0844 87F82D30 		strb	r3, [r7, #45]
 1400 0848 0BE0     		b	.L58
 1401              	.L59:
 215:printer.c     **** 			UART_3_PutChar(msn_product[x]);
 1402              		.loc 1 215 0 discriminator 3
 1403 084a 97F82D30 		ldrb	r3, [r7, #45]	@ zero_extendqisi2
 1404 084e 694A     		ldr	r2, .L129+36
 1405 0850 D35C     		ldrb	r3, [r2, r3]	@ zero_extendqisi2
 1406 0852 1846     		mov	r0, r3
 1407 0854 FFF7FEFF 		bl	UART_3_PutChar
 214:printer.c     **** 		for(uint8 x = 0; x < 13; x ++){
 1408              		.loc 1 214 0 discriminator 3
 1409 0858 97F82D30 		ldrb	r3, [r7, #45]	@ zero_extendqisi2
 1410 085c 0133     		adds	r3, r3, #1
 1411 085e 87F82D30 		strb	r3, [r7, #45]
 1412              	.L58:
 214:printer.c     **** 		for(uint8 x = 0; x < 13; x ++){
 1413              		.loc 1 214 0 is_stmt 0 discriminator 1
 1414 0862 97F82D30 		ldrb	r3, [r7, #45]	@ zero_extendqisi2
 1415 0866 0C2B     		cmp	r3, #12
 1416 0868 EFD9     		bls	.L59
 1417              	.LBE28:
 1418              	.LBB29:
 216:printer.c     **** 		}
 217:printer.c     **** 		for(uint8 x = 0; x < 8; x ++){
 1419              		.loc 1 217 0 is_stmt 1
 1420 086a 0023     		movs	r3, #0
 1421 086c 87F82C30 		strb	r3, [r7, #44]
 1422 0870 0BE0     		b	.L60
ARM GAS  C:\Users\Lenovo\AppData\Local\Temp\ccHD7LbD.s 			page 33


 1423              	.L61:
 218:printer.c     **** 			UART_3_PutChar(msn_diesel[x]);
 1424              		.loc 1 218 0 discriminator 3
 1425 0872 97F82C30 		ldrb	r3, [r7, #44]	@ zero_extendqisi2
 1426 0876 604A     		ldr	r2, .L129+40
 1427 0878 D35C     		ldrb	r3, [r2, r3]	@ zero_extendqisi2
 1428 087a 1846     		mov	r0, r3
 1429 087c FFF7FEFF 		bl	UART_3_PutChar
 217:printer.c     **** 			UART_3_PutChar(msn_diesel[x]);
 1430              		.loc 1 217 0 discriminator 3
 1431 0880 97F82C30 		ldrb	r3, [r7, #44]	@ zero_extendqisi2
 1432 0884 0133     		adds	r3, r3, #1
 1433 0886 87F82C30 		strb	r3, [r7, #44]
 1434              	.L60:
 217:printer.c     **** 			UART_3_PutChar(msn_diesel[x]);
 1435              		.loc 1 217 0 is_stmt 0 discriminator 1
 1436 088a 97F82C30 		ldrb	r3, [r7, #44]	@ zero_extendqisi2
 1437 088e 072B     		cmp	r3, #7
 1438 0890 EFD9     		bls	.L61
 1439              	.LBE29:
 219:printer.c     **** 		}
 220:printer.c     ****         UART_3_PutChar(LINE_FEED);
 1440              		.loc 1 220 0 is_stmt 1
 1441 0892 524B     		ldr	r3, .L129+12
 1442 0894 1B78     		ldrb	r3, [r3]	@ zero_extendqisi2
 1443 0896 1846     		mov	r0, r3
 1444 0898 FFF7FEFF 		bl	UART_3_PutChar
 1445              	.LBB30:
 221:printer.c     **** 		for(uint8 x = 0; x < 13; x ++){
 1446              		.loc 1 221 0
 1447 089c 0023     		movs	r3, #0
 1448 089e 87F82B30 		strb	r3, [r7, #43]
 1449 08a2 0BE0     		b	.L62
 1450              	.L63:
 222:printer.c     **** 			UART_3_PutChar(msn_vol[x]);
 1451              		.loc 1 222 0 discriminator 3
 1452 08a4 97F82B30 		ldrb	r3, [r7, #43]	@ zero_extendqisi2
 1453 08a8 544A     		ldr	r2, .L129+44
 1454 08aa D35C     		ldrb	r3, [r2, r3]	@ zero_extendqisi2
 1455 08ac 1846     		mov	r0, r3
 1456 08ae FFF7FEFF 		bl	UART_3_PutChar
 221:printer.c     **** 		for(uint8 x = 0; x < 13; x ++){
 1457              		.loc 1 221 0 discriminator 3
 1458 08b2 97F82B30 		ldrb	r3, [r7, #43]	@ zero_extendqisi2
 1459 08b6 0133     		adds	r3, r3, #1
 1460 08b8 87F82B30 		strb	r3, [r7, #43]
 1461              	.L62:
 221:printer.c     **** 		for(uint8 x = 0; x < 13; x ++){
 1462              		.loc 1 221 0 is_stmt 0 discriminator 1
 1463 08bc 97F82B30 		ldrb	r3, [r7, #43]	@ zero_extendqisi2
 1464 08c0 0C2B     		cmp	r3, #12
 1465 08c2 EFD9     		bls	.L63
 1466              	.LBE30:
 1467              	.LBB31:
 223:printer.c     **** 		}
 224:printer.c     **** 		for(uint8 x = 0; x < 8; x ++){
 1468              		.loc 1 224 0 is_stmt 1
ARM GAS  C:\Users\Lenovo\AppData\Local\Temp\ccHD7LbD.s 			page 34


 1469 08c4 0023     		movs	r3, #0
 1470 08c6 87F82A30 		strb	r3, [r7, #42]
 1471 08ca 18E0     		b	.L64
 1472              	.L66:
 225:printer.c     **** 			if((8-x) == DecVol)
 1473              		.loc 1 225 0
 1474 08cc 97F82A30 		ldrb	r3, [r7, #42]	@ zero_extendqisi2
 1475 08d0 C3F10803 		rsb	r3, r3, #8
 1476 08d4 3E4A     		ldr	r2, .L129
 1477 08d6 1278     		ldrb	r2, [r2]	@ zero_extendqisi2
 1478 08d8 9342     		cmp	r3, r2
 1479 08da 02D1     		bne	.L65
 226:printer.c     **** 				UART_3_PutChar('.');
 1480              		.loc 1 226 0
 1481 08dc 2E20     		movs	r0, #46
 1482 08de FFF7FEFF 		bl	UART_3_PutChar
 1483              	.L65:
 227:printer.c     **** 			UART_3_PutChar(side.b.ProcessedvolumeSale[x]);        
 1484              		.loc 1 227 0 discriminator 2
 1485 08e2 97F82A30 		ldrb	r3, [r7, #42]	@ zero_extendqisi2
 1486 08e6 3B4A     		ldr	r2, .L129+4
 1487 08e8 1344     		add	r3, r3, r2
 1488 08ea 93F82632 		ldrb	r3, [r3, #550]	@ zero_extendqisi2
 1489 08ee 1846     		mov	r0, r3
 1490 08f0 FFF7FEFF 		bl	UART_3_PutChar
 224:printer.c     **** 			if((8-x) == DecVol)
 1491              		.loc 1 224 0 discriminator 2
 1492 08f4 97F82A30 		ldrb	r3, [r7, #42]	@ zero_extendqisi2
 1493 08f8 0133     		adds	r3, r3, #1
 1494 08fa 87F82A30 		strb	r3, [r7, #42]
 1495              	.L64:
 224:printer.c     **** 			if((8-x) == DecVol)
 1496              		.loc 1 224 0 is_stmt 0 discriminator 1
 1497 08fe 97F82A30 		ldrb	r3, [r7, #42]	@ zero_extendqisi2
 1498 0902 072B     		cmp	r3, #7
 1499 0904 E2D9     		bls	.L66
 1500              	.LBE31:
 228:printer.c     **** 		}
 229:printer.c     **** 		UART_3_PutChar(' ');
 1501              		.loc 1 229 0 is_stmt 1
 1502 0906 2020     		movs	r0, #32
 1503 0908 FFF7FEFF 		bl	UART_3_PutChar
 230:printer.c     **** 		UART_3_PutChar(VolSimbol[0]);
 1504              		.loc 1 230 0
 1505 090c 324B     		ldr	r3, .L129+8
 1506 090e 1B78     		ldrb	r3, [r3]	@ zero_extendqisi2
 1507 0910 1846     		mov	r0, r3
 1508 0912 FFF7FEFF 		bl	UART_3_PutChar
 231:printer.c     **** 		UART_3_PutChar(LINE_FEED); 
 1509              		.loc 1 231 0
 1510 0916 314B     		ldr	r3, .L129+12
 1511 0918 1B78     		ldrb	r3, [r3]	@ zero_extendqisi2
 1512 091a 1846     		mov	r0, r3
 1513 091c FFF7FEFF 		bl	UART_3_PutChar
 1514              	.LBB32:
 232:printer.c     **** 		for(uint8 x = 0; x < 13; x ++){
 1515              		.loc 1 232 0
ARM GAS  C:\Users\Lenovo\AppData\Local\Temp\ccHD7LbD.s 			page 35


 1516 0920 0023     		movs	r3, #0
 1517 0922 87F82930 		strb	r3, [r7, #41]
 1518 0926 0BE0     		b	.L67
 1519              	.L68:
 233:printer.c     **** 			UART_3_PutChar(msn_din[x]);
 1520              		.loc 1 233 0 discriminator 3
 1521 0928 97F82930 		ldrb	r3, [r7, #41]	@ zero_extendqisi2
 1522 092c 2C4A     		ldr	r2, .L129+16
 1523 092e D35C     		ldrb	r3, [r2, r3]	@ zero_extendqisi2
 1524 0930 1846     		mov	r0, r3
 1525 0932 FFF7FEFF 		bl	UART_3_PutChar
 232:printer.c     **** 		for(uint8 x = 0; x < 13; x ++){
 1526              		.loc 1 232 0 discriminator 3
 1527 0936 97F82930 		ldrb	r3, [r7, #41]	@ zero_extendqisi2
 1528 093a 0133     		adds	r3, r3, #1
 1529 093c 87F82930 		strb	r3, [r7, #41]
 1530              	.L67:
 232:printer.c     **** 		for(uint8 x = 0; x < 13; x ++){
 1531              		.loc 1 232 0 is_stmt 0 discriminator 1
 1532 0940 97F82930 		ldrb	r3, [r7, #41]	@ zero_extendqisi2
 1533 0944 0C2B     		cmp	r3, #12
 1534 0946 EFD9     		bls	.L68
 1535              	.LBE32:
 234:printer.c     **** 		}     
 235:printer.c     **** 		UART_3_PutChar(PRN_CURRENCY[0]);  
 1536              		.loc 1 235 0 is_stmt 1
 1537 0948 264B     		ldr	r3, .L129+20
 1538 094a 1B78     		ldrb	r3, [r3]	@ zero_extendqisi2
 1539 094c 1846     		mov	r0, r3
 1540 094e FFF7FEFF 		bl	UART_3_PutChar
 236:printer.c     **** 		UART_3_PutChar(' ');
 1541              		.loc 1 236 0
 1542 0952 2020     		movs	r0, #32
 1543 0954 FFF7FEFF 		bl	UART_3_PutChar
 1544              	.LBB33:
 237:printer.c     **** 		for(uint8 x = 0; x < 8; x ++){
 1545              		.loc 1 237 0
 1546 0958 0023     		movs	r3, #0
 1547 095a 87F82830 		strb	r3, [r7, #40]
 1548 095e 0DE0     		b	.L69
 1549              	.L70:
 238:printer.c     **** 			UART_3_PutChar(side.b.ProcessedmoneySale[x]);
 1550              		.loc 1 238 0 discriminator 3
 1551 0960 97F82830 		ldrb	r3, [r7, #40]	@ zero_extendqisi2
 1552 0964 1B4A     		ldr	r2, .L129+4
 1553 0966 1344     		add	r3, r3, r2
 1554 0968 93F81E32 		ldrb	r3, [r3, #542]	@ zero_extendqisi2
 1555 096c 1846     		mov	r0, r3
 1556 096e FFF7FEFF 		bl	UART_3_PutChar
 237:printer.c     **** 		for(uint8 x = 0; x < 8; x ++){
 1557              		.loc 1 237 0 discriminator 3
 1558 0972 97F82830 		ldrb	r3, [r7, #40]	@ zero_extendqisi2
 1559 0976 0133     		adds	r3, r3, #1
 1560 0978 87F82830 		strb	r3, [r7, #40]
 1561              	.L69:
 237:printer.c     **** 		for(uint8 x = 0; x < 8; x ++){
 1562              		.loc 1 237 0 is_stmt 0 discriminator 1
ARM GAS  C:\Users\Lenovo\AppData\Local\Temp\ccHD7LbD.s 			page 36


 1563 097c 97F82830 		ldrb	r3, [r7, #40]	@ zero_extendqisi2
 1564 0980 072B     		cmp	r3, #7
 1565 0982 EDD9     		bls	.L70
 1566              	.LBE33:
 239:printer.c     **** 		}
 240:printer.c     **** 		UART_3_PutChar(LINE_FEED); 	
 1567              		.loc 1 240 0 is_stmt 1
 1568 0984 154B     		ldr	r3, .L129+12
 1569 0986 1B78     		ldrb	r3, [r3]	@ zero_extendqisi2
 1570 0988 1846     		mov	r0, r3
 1571 098a FFF7FEFF 		bl	UART_3_PutChar
 1572              	.LBB34:
 241:printer.c     **** 		for(uint8 x = 0; x < 13; x ++){
 1573              		.loc 1 241 0
 1574 098e 0023     		movs	r3, #0
 1575 0990 87F82730 		strb	r3, [r7, #39]
 1576 0994 0BE0     		b	.L71
 1577              	.L72:
 242:printer.c     **** 			UART_3_PutChar(msn_ppu[x]);
 1578              		.loc 1 242 0 discriminator 3
 1579 0996 97F82730 		ldrb	r3, [r7, #39]	@ zero_extendqisi2
 1580 099a 134A     		ldr	r2, .L129+24
 1581 099c D35C     		ldrb	r3, [r2, r3]	@ zero_extendqisi2
 1582 099e 1846     		mov	r0, r3
 1583 09a0 FFF7FEFF 		bl	UART_3_PutChar
 241:printer.c     **** 		for(uint8 x = 0; x < 13; x ++){
 1584              		.loc 1 241 0 discriminator 3
 1585 09a4 97F82730 		ldrb	r3, [r7, #39]	@ zero_extendqisi2
 1586 09a8 0133     		adds	r3, r3, #1
 1587 09aa 87F82730 		strb	r3, [r7, #39]
 1588              	.L71:
 241:printer.c     **** 		for(uint8 x = 0; x < 13; x ++){
 1589              		.loc 1 241 0 is_stmt 0 discriminator 1
 1590 09ae 97F82730 		ldrb	r3, [r7, #39]	@ zero_extendqisi2
 1591 09b2 0C2B     		cmp	r3, #12
 1592 09b4 EFD9     		bls	.L72
 1593              	.LBE34:
 243:printer.c     **** 		}
 244:printer.c     **** 		UART_3_PutChar(PRN_CURRENCY[0]);  
 1594              		.loc 1 244 0 is_stmt 1
 1595 09b6 0B4B     		ldr	r3, .L129+20
 1596 09b8 1B78     		ldrb	r3, [r3]	@ zero_extendqisi2
 1597 09ba 1846     		mov	r0, r3
 1598 09bc FFF7FEFF 		bl	UART_3_PutChar
 245:printer.c     **** 		UART_3_PutChar(' ');
 1599              		.loc 1 245 0
 1600 09c0 2020     		movs	r0, #32
 1601 09c2 FFF7FEFF 		bl	UART_3_PutChar
 1602              	.LBB35:
 246:printer.c     **** 		for(uint8 x = 1; x < 6; x ++){
 1603              		.loc 1 246 0
 1604 09c6 0123     		movs	r3, #1
 1605 09c8 87F82630 		strb	r3, [r7, #38]
 1606 09cc 26E0     		b	.L73
 1607              	.L130:
 1608 09ce 00BF     		.align	2
 1609              	.L129:
ARM GAS  C:\Users\Lenovo\AppData\Local\Temp\ccHD7LbD.s 			page 37


 1610 09d0 00000000 		.word	DecVol
 1611 09d4 00000000 		.word	side
 1612 09d8 00000000 		.word	VolSimbol
 1613 09dc 00000000 		.word	LINE_FEED
 1614 09e0 00000000 		.word	msn_din
 1615 09e4 00000000 		.word	PRN_CURRENCY
 1616 09e8 00000000 		.word	msn_ppu
 1617 09ec 00000000 		.word	msn_plate
 1618 09f0 00000000 		.word	msn_pos
 1619 09f4 00000000 		.word	msn_product
 1620 09f8 00000000 		.word	msn_diesel
 1621 09fc 00000000 		.word	msn_vol
 1622              	.L74:
 247:printer.c     **** 			UART_3_PutChar(side.b.ProcessedPPU[0][x]);
 1623              		.loc 1 247 0 discriminator 3
 1624 0a00 97F82630 		ldrb	r3, [r7, #38]	@ zero_extendqisi2
 1625 0a04 BB4A     		ldr	r2, .L131
 1626 0a06 1344     		add	r3, r3, r2
 1627 0a08 93F82E32 		ldrb	r3, [r3, #558]	@ zero_extendqisi2
 1628 0a0c 1846     		mov	r0, r3
 1629 0a0e FFF7FEFF 		bl	UART_3_PutChar
 246:printer.c     **** 		for(uint8 x = 1; x < 6; x ++){
 1630              		.loc 1 246 0 discriminator 3
 1631 0a12 97F82630 		ldrb	r3, [r7, #38]	@ zero_extendqisi2
 1632 0a16 0133     		adds	r3, r3, #1
 1633 0a18 87F82630 		strb	r3, [r7, #38]
 1634              	.L73:
 246:printer.c     **** 		for(uint8 x = 1; x < 6; x ++){
 1635              		.loc 1 246 0 is_stmt 0 discriminator 1
 1636 0a1c 97F82630 		ldrb	r3, [r7, #38]	@ zero_extendqisi2
 1637 0a20 052B     		cmp	r3, #5
 1638 0a22 EDD9     		bls	.L74
 1639              	.LBE35:
 248:printer.c     **** 		}
 249:printer.c     **** 		UART_3_PutChar(LINE_FEED);
 1640              		.loc 1 249 0 is_stmt 1
 1641 0a24 B44B     		ldr	r3, .L131+4
 1642 0a26 1B78     		ldrb	r3, [r3]	@ zero_extendqisi2
 1643 0a28 1846     		mov	r0, r3
 1644 0a2a FFF7FEFF 		bl	UART_3_PutChar
 1645              	.L53:
 250:printer.c     **** 	}
 251:printer.c     **** 	
 252:printer.c     **** 	if(address == side.c.dir){
 1646              		.loc 1 252 0
 1647 0a2e B14B     		ldr	r3, .L131
 1648 0a30 93F84632 		ldrb	r3, [r3, #582]	@ zero_extendqisi2
 1649 0a34 FA79     		ldrb	r2, [r7, #7]	@ zero_extendqisi2
 1650 0a36 9A42     		cmp	r2, r3
 1651 0a38 40F00381 		bne	.L75
 1652              	.LBB36:
 253:printer.c     **** 		for(uint8 x = 0; x < 7; x ++){
 1653              		.loc 1 253 0
 1654 0a3c 0023     		movs	r3, #0
 1655 0a3e 87F82530 		strb	r3, [r7, #37]
 1656 0a42 0BE0     		b	.L76
 1657              	.L77:
ARM GAS  C:\Users\Lenovo\AppData\Local\Temp\ccHD7LbD.s 			page 38


 254:printer.c     **** 			UART_3_PutChar(msn_plate[x]);
 1658              		.loc 1 254 0 discriminator 3
 1659 0a44 97F82530 		ldrb	r3, [r7, #37]	@ zero_extendqisi2
 1660 0a48 AC4A     		ldr	r2, .L131+8
 1661 0a4a D35C     		ldrb	r3, [r2, r3]	@ zero_extendqisi2
 1662 0a4c 1846     		mov	r0, r3
 1663 0a4e FFF7FEFF 		bl	UART_3_PutChar
 253:printer.c     **** 		for(uint8 x = 0; x < 7; x ++){
 1664              		.loc 1 253 0 discriminator 3
 1665 0a52 97F82530 		ldrb	r3, [r7, #37]	@ zero_extendqisi2
 1666 0a56 0133     		adds	r3, r3, #1
 1667 0a58 87F82530 		strb	r3, [r7, #37]
 1668              	.L76:
 253:printer.c     **** 		for(uint8 x = 0; x < 7; x ++){
 1669              		.loc 1 253 0 is_stmt 0 discriminator 1
 1670 0a5c 97F82530 		ldrb	r3, [r7, #37]	@ zero_extendqisi2
 1671 0a60 062B     		cmp	r3, #6
 1672 0a62 EFD9     		bls	.L77
 1673              	.LBE36:
 255:printer.c     **** 		}  
 256:printer.c     ****         UART_3_PutChar(LINE_FEED);
 1674              		.loc 1 256 0 is_stmt 1
 1675 0a64 A44B     		ldr	r3, .L131+4
 1676 0a66 1B78     		ldrb	r3, [r3]	@ zero_extendqisi2
 1677 0a68 1846     		mov	r0, r3
 1678 0a6a FFF7FEFF 		bl	UART_3_PutChar
 1679              	.LBB37:
 257:printer.c     **** 		for(uint8 x = 0; x < 13; x ++){
 1680              		.loc 1 257 0
 1681 0a6e 0023     		movs	r3, #0
 1682 0a70 87F82430 		strb	r3, [r7, #36]
 1683 0a74 0BE0     		b	.L78
 1684              	.L79:
 258:printer.c     **** 			UART_3_PutChar(msn_pos[x]);
 1685              		.loc 1 258 0 discriminator 3
 1686 0a76 97F82430 		ldrb	r3, [r7, #36]	@ zero_extendqisi2
 1687 0a7a A14A     		ldr	r2, .L131+12
 1688 0a7c D35C     		ldrb	r3, [r2, r3]	@ zero_extendqisi2
 1689 0a7e 1846     		mov	r0, r3
 1690 0a80 FFF7FEFF 		bl	UART_3_PutChar
 257:printer.c     **** 		for(uint8 x = 0; x < 13; x ++){
 1691              		.loc 1 257 0 discriminator 3
 1692 0a84 97F82430 		ldrb	r3, [r7, #36]	@ zero_extendqisi2
 1693 0a88 0133     		adds	r3, r3, #1
 1694 0a8a 87F82430 		strb	r3, [r7, #36]
 1695              	.L78:
 257:printer.c     **** 		for(uint8 x = 0; x < 13; x ++){
 1696              		.loc 1 257 0 is_stmt 0 discriminator 1
 1697 0a8e 97F82430 		ldrb	r3, [r7, #36]	@ zero_extendqisi2
 1698 0a92 0C2B     		cmp	r3, #12
 1699 0a94 EFD9     		bls	.L79
 1700              	.LBE37:
 259:printer.c     **** 		}
 260:printer.c     **** 		UART_3_PutChar((side.c.dir)+ 0x31);
 1701              		.loc 1 260 0 is_stmt 1
 1702 0a96 974B     		ldr	r3, .L131
 1703 0a98 93F84632 		ldrb	r3, [r3, #582]	@ zero_extendqisi2
ARM GAS  C:\Users\Lenovo\AppData\Local\Temp\ccHD7LbD.s 			page 39


 1704 0a9c 3133     		adds	r3, r3, #49
 1705 0a9e DBB2     		uxtb	r3, r3
 1706 0aa0 1846     		mov	r0, r3
 1707 0aa2 FFF7FEFF 		bl	UART_3_PutChar
 261:printer.c     **** 		UART_3_PutChar(LINE_FEED);
 1708              		.loc 1 261 0
 1709 0aa6 944B     		ldr	r3, .L131+4
 1710 0aa8 1B78     		ldrb	r3, [r3]	@ zero_extendqisi2
 1711 0aaa 1846     		mov	r0, r3
 1712 0aac FFF7FEFF 		bl	UART_3_PutChar
 1713              	.LBB38:
 262:printer.c     **** 		for(uint8 x = 0; x < 13; x ++){
 1714              		.loc 1 262 0
 1715 0ab0 0023     		movs	r3, #0
 1716 0ab2 87F82330 		strb	r3, [r7, #35]
 1717 0ab6 0BE0     		b	.L80
 1718              	.L81:
 263:printer.c     **** 			UART_3_PutChar(msn_product[x]);
 1719              		.loc 1 263 0 discriminator 3
 1720 0ab8 97F82330 		ldrb	r3, [r7, #35]	@ zero_extendqisi2
 1721 0abc 914A     		ldr	r2, .L131+16
 1722 0abe D35C     		ldrb	r3, [r2, r3]	@ zero_extendqisi2
 1723 0ac0 1846     		mov	r0, r3
 1724 0ac2 FFF7FEFF 		bl	UART_3_PutChar
 262:printer.c     **** 		for(uint8 x = 0; x < 13; x ++){
 1725              		.loc 1 262 0 discriminator 3
 1726 0ac6 97F82330 		ldrb	r3, [r7, #35]	@ zero_extendqisi2
 1727 0aca 0133     		adds	r3, r3, #1
 1728 0acc 87F82330 		strb	r3, [r7, #35]
 1729              	.L80:
 262:printer.c     **** 		for(uint8 x = 0; x < 13; x ++){
 1730              		.loc 1 262 0 is_stmt 0 discriminator 1
 1731 0ad0 97F82330 		ldrb	r3, [r7, #35]	@ zero_extendqisi2
 1732 0ad4 0C2B     		cmp	r3, #12
 1733 0ad6 EFD9     		bls	.L81
 1734              	.LBE38:
 1735              	.LBB39:
 264:printer.c     **** 		}
 265:printer.c     **** 		for(uint8 x = 0; x < 8; x ++){
 1736              		.loc 1 265 0 is_stmt 1
 1737 0ad8 0023     		movs	r3, #0
 1738 0ada 87F82230 		strb	r3, [r7, #34]
 1739 0ade 0BE0     		b	.L82
 1740              	.L83:
 266:printer.c     **** 			UART_3_PutChar(msn_diesel[x]);
 1741              		.loc 1 266 0 discriminator 3
 1742 0ae0 97F82230 		ldrb	r3, [r7, #34]	@ zero_extendqisi2
 1743 0ae4 884A     		ldr	r2, .L131+20
 1744 0ae6 D35C     		ldrb	r3, [r2, r3]	@ zero_extendqisi2
 1745 0ae8 1846     		mov	r0, r3
 1746 0aea FFF7FEFF 		bl	UART_3_PutChar
 265:printer.c     **** 			UART_3_PutChar(msn_diesel[x]);
 1747              		.loc 1 265 0 discriminator 3
 1748 0aee 97F82230 		ldrb	r3, [r7, #34]	@ zero_extendqisi2
 1749 0af2 0133     		adds	r3, r3, #1
 1750 0af4 87F82230 		strb	r3, [r7, #34]
 1751              	.L82:
ARM GAS  C:\Users\Lenovo\AppData\Local\Temp\ccHD7LbD.s 			page 40


 265:printer.c     **** 			UART_3_PutChar(msn_diesel[x]);
 1752              		.loc 1 265 0 is_stmt 0 discriminator 1
 1753 0af8 97F82230 		ldrb	r3, [r7, #34]	@ zero_extendqisi2
 1754 0afc 072B     		cmp	r3, #7
 1755 0afe EFD9     		bls	.L83
 1756              	.LBE39:
 267:printer.c     **** 		}
 268:printer.c     ****         UART_3_PutChar(LINE_FEED);
 1757              		.loc 1 268 0 is_stmt 1
 1758 0b00 7D4B     		ldr	r3, .L131+4
 1759 0b02 1B78     		ldrb	r3, [r3]	@ zero_extendqisi2
 1760 0b04 1846     		mov	r0, r3
 1761 0b06 FFF7FEFF 		bl	UART_3_PutChar
 1762              	.LBB40:
 269:printer.c     **** 		for(uint8 x = 0; x < 13; x ++){
 1763              		.loc 1 269 0
 1764 0b0a 0023     		movs	r3, #0
 1765 0b0c 87F82130 		strb	r3, [r7, #33]
 1766 0b10 0BE0     		b	.L84
 1767              	.L85:
 270:printer.c     **** 			UART_3_PutChar(msn_vol[x]);
 1768              		.loc 1 270 0 discriminator 3
 1769 0b12 97F82130 		ldrb	r3, [r7, #33]	@ zero_extendqisi2
 1770 0b16 7D4A     		ldr	r2, .L131+24
 1771 0b18 D35C     		ldrb	r3, [r2, r3]	@ zero_extendqisi2
 1772 0b1a 1846     		mov	r0, r3
 1773 0b1c FFF7FEFF 		bl	UART_3_PutChar
 269:printer.c     **** 		for(uint8 x = 0; x < 13; x ++){
 1774              		.loc 1 269 0 discriminator 3
 1775 0b20 97F82130 		ldrb	r3, [r7, #33]	@ zero_extendqisi2
 1776 0b24 0133     		adds	r3, r3, #1
 1777 0b26 87F82130 		strb	r3, [r7, #33]
 1778              	.L84:
 269:printer.c     **** 		for(uint8 x = 0; x < 13; x ++){
 1779              		.loc 1 269 0 is_stmt 0 discriminator 1
 1780 0b2a 97F82130 		ldrb	r3, [r7, #33]	@ zero_extendqisi2
 1781 0b2e 0C2B     		cmp	r3, #12
 1782 0b30 EFD9     		bls	.L85
 1783              	.LBE40:
 1784              	.LBB41:
 271:printer.c     **** 		}
 272:printer.c     **** 		for(uint8 x = 0; x < 8; x ++){
 1785              		.loc 1 272 0 is_stmt 1
 1786 0b32 0023     		movs	r3, #0
 1787 0b34 87F82030 		strb	r3, [r7, #32]
 1788 0b38 18E0     		b	.L86
 1789              	.L88:
 273:printer.c     **** 			if((8-x) == DecVol)
 1790              		.loc 1 273 0
 1791 0b3a 97F82030 		ldrb	r3, [r7, #32]	@ zero_extendqisi2
 1792 0b3e C3F10803 		rsb	r3, r3, #8
 1793 0b42 734A     		ldr	r2, .L131+28
 1794 0b44 1278     		ldrb	r2, [r2]	@ zero_extendqisi2
 1795 0b46 9342     		cmp	r3, r2
 1796 0b48 02D1     		bne	.L87
 274:printer.c     **** 				UART_3_PutChar('.');
 1797              		.loc 1 274 0
ARM GAS  C:\Users\Lenovo\AppData\Local\Temp\ccHD7LbD.s 			page 41


 1798 0b4a 2E20     		movs	r0, #46
 1799 0b4c FFF7FEFF 		bl	UART_3_PutChar
 1800              	.L87:
 275:printer.c     **** 			UART_3_PutChar(side.c.ProcessedvolumeSale[x]);        
 1801              		.loc 1 275 0 discriminator 2
 1802 0b50 97F82030 		ldrb	r3, [r7, #32]	@ zero_extendqisi2
 1803 0b54 674A     		ldr	r2, .L131
 1804 0b56 1344     		add	r3, r3, r2
 1805 0b58 93F84933 		ldrb	r3, [r3, #841]	@ zero_extendqisi2
 1806 0b5c 1846     		mov	r0, r3
 1807 0b5e FFF7FEFF 		bl	UART_3_PutChar
 272:printer.c     **** 			if((8-x) == DecVol)
 1808              		.loc 1 272 0 discriminator 2
 1809 0b62 97F82030 		ldrb	r3, [r7, #32]	@ zero_extendqisi2
 1810 0b66 0133     		adds	r3, r3, #1
 1811 0b68 87F82030 		strb	r3, [r7, #32]
 1812              	.L86:
 272:printer.c     **** 			if((8-x) == DecVol)
 1813              		.loc 1 272 0 is_stmt 0 discriminator 1
 1814 0b6c 97F82030 		ldrb	r3, [r7, #32]	@ zero_extendqisi2
 1815 0b70 072B     		cmp	r3, #7
 1816 0b72 E2D9     		bls	.L88
 1817              	.LBE41:
 276:printer.c     **** 		}
 277:printer.c     **** 		UART_3_PutChar(' ');
 1818              		.loc 1 277 0 is_stmt 1
 1819 0b74 2020     		movs	r0, #32
 1820 0b76 FFF7FEFF 		bl	UART_3_PutChar
 278:printer.c     **** 		UART_3_PutChar(VolSimbol[0]);
 1821              		.loc 1 278 0
 1822 0b7a 664B     		ldr	r3, .L131+32
 1823 0b7c 1B78     		ldrb	r3, [r3]	@ zero_extendqisi2
 1824 0b7e 1846     		mov	r0, r3
 1825 0b80 FFF7FEFF 		bl	UART_3_PutChar
 279:printer.c     **** 		UART_3_PutChar(LINE_FEED); 
 1826              		.loc 1 279 0
 1827 0b84 5C4B     		ldr	r3, .L131+4
 1828 0b86 1B78     		ldrb	r3, [r3]	@ zero_extendqisi2
 1829 0b88 1846     		mov	r0, r3
 1830 0b8a FFF7FEFF 		bl	UART_3_PutChar
 1831              	.LBB42:
 280:printer.c     **** 		for(uint8 x = 0; x < 13; x ++){
 1832              		.loc 1 280 0
 1833 0b8e 0023     		movs	r3, #0
 1834 0b90 FB77     		strb	r3, [r7, #31]
 1835 0b92 08E0     		b	.L89
 1836              	.L90:
 281:printer.c     **** 			UART_3_PutChar(msn_din[x]);
 1837              		.loc 1 281 0 discriminator 3
 1838 0b94 FB7F     		ldrb	r3, [r7, #31]	@ zero_extendqisi2
 1839 0b96 604A     		ldr	r2, .L131+36
 1840 0b98 D35C     		ldrb	r3, [r2, r3]	@ zero_extendqisi2
 1841 0b9a 1846     		mov	r0, r3
 1842 0b9c FFF7FEFF 		bl	UART_3_PutChar
 280:printer.c     **** 		for(uint8 x = 0; x < 13; x ++){
 1843              		.loc 1 280 0 discriminator 3
 1844 0ba0 FB7F     		ldrb	r3, [r7, #31]	@ zero_extendqisi2
ARM GAS  C:\Users\Lenovo\AppData\Local\Temp\ccHD7LbD.s 			page 42


 1845 0ba2 0133     		adds	r3, r3, #1
 1846 0ba4 FB77     		strb	r3, [r7, #31]
 1847              	.L89:
 280:printer.c     **** 		for(uint8 x = 0; x < 13; x ++){
 1848              		.loc 1 280 0 is_stmt 0 discriminator 1
 1849 0ba6 FB7F     		ldrb	r3, [r7, #31]	@ zero_extendqisi2
 1850 0ba8 0C2B     		cmp	r3, #12
 1851 0baa F3D9     		bls	.L90
 1852              	.LBE42:
 282:printer.c     **** 		}     
 283:printer.c     **** 		UART_3_PutChar(PRN_CURRENCY[0]);  
 1853              		.loc 1 283 0 is_stmt 1
 1854 0bac 5B4B     		ldr	r3, .L131+40
 1855 0bae 1B78     		ldrb	r3, [r3]	@ zero_extendqisi2
 1856 0bb0 1846     		mov	r0, r3
 1857 0bb2 FFF7FEFF 		bl	UART_3_PutChar
 284:printer.c     **** 		UART_3_PutChar(' ');
 1858              		.loc 1 284 0
 1859 0bb6 2020     		movs	r0, #32
 1860 0bb8 FFF7FEFF 		bl	UART_3_PutChar
 1861              	.LBB43:
 285:printer.c     **** 		for(uint8 x = 0; x < 8; x ++){
 1862              		.loc 1 285 0
 1863 0bbc 0023     		movs	r3, #0
 1864 0bbe BB77     		strb	r3, [r7, #30]
 1865 0bc0 0AE0     		b	.L91
 1866              	.L92:
 286:printer.c     **** 			UART_3_PutChar(side.c.ProcessedmoneySale[x]);
 1867              		.loc 1 286 0 discriminator 3
 1868 0bc2 BB7F     		ldrb	r3, [r7, #30]	@ zero_extendqisi2
 1869 0bc4 4B4A     		ldr	r2, .L131
 1870 0bc6 1344     		add	r3, r3, r2
 1871 0bc8 93F84133 		ldrb	r3, [r3, #833]	@ zero_extendqisi2
 1872 0bcc 1846     		mov	r0, r3
 1873 0bce FFF7FEFF 		bl	UART_3_PutChar
 285:printer.c     **** 		for(uint8 x = 0; x < 8; x ++){
 1874              		.loc 1 285 0 discriminator 3
 1875 0bd2 BB7F     		ldrb	r3, [r7, #30]	@ zero_extendqisi2
 1876 0bd4 0133     		adds	r3, r3, #1
 1877 0bd6 BB77     		strb	r3, [r7, #30]
 1878              	.L91:
 285:printer.c     **** 		for(uint8 x = 0; x < 8; x ++){
 1879              		.loc 1 285 0 is_stmt 0 discriminator 1
 1880 0bd8 BB7F     		ldrb	r3, [r7, #30]	@ zero_extendqisi2
 1881 0bda 072B     		cmp	r3, #7
 1882 0bdc F1D9     		bls	.L92
 1883              	.LBE43:
 287:printer.c     **** 		}
 288:printer.c     **** 		UART_3_PutChar(LINE_FEED); 	
 1884              		.loc 1 288 0 is_stmt 1
 1885 0bde 464B     		ldr	r3, .L131+4
 1886 0be0 1B78     		ldrb	r3, [r3]	@ zero_extendqisi2
 1887 0be2 1846     		mov	r0, r3
 1888 0be4 FFF7FEFF 		bl	UART_3_PutChar
 1889              	.LBB44:
 289:printer.c     **** 		for(uint8 x = 0; x < 13; x ++){
 1890              		.loc 1 289 0
ARM GAS  C:\Users\Lenovo\AppData\Local\Temp\ccHD7LbD.s 			page 43


 1891 0be8 0023     		movs	r3, #0
 1892 0bea 7B77     		strb	r3, [r7, #29]
 1893 0bec 08E0     		b	.L93
 1894              	.L94:
 290:printer.c     **** 			UART_3_PutChar(msn_ppu[x]);
 1895              		.loc 1 290 0 discriminator 3
 1896 0bee 7B7F     		ldrb	r3, [r7, #29]	@ zero_extendqisi2
 1897 0bf0 4B4A     		ldr	r2, .L131+44
 1898 0bf2 D35C     		ldrb	r3, [r2, r3]	@ zero_extendqisi2
 1899 0bf4 1846     		mov	r0, r3
 1900 0bf6 FFF7FEFF 		bl	UART_3_PutChar
 289:printer.c     **** 		for(uint8 x = 0; x < 13; x ++){
 1901              		.loc 1 289 0 discriminator 3
 1902 0bfa 7B7F     		ldrb	r3, [r7, #29]	@ zero_extendqisi2
 1903 0bfc 0133     		adds	r3, r3, #1
 1904 0bfe 7B77     		strb	r3, [r7, #29]
 1905              	.L93:
 289:printer.c     **** 		for(uint8 x = 0; x < 13; x ++){
 1906              		.loc 1 289 0 is_stmt 0 discriminator 1
 1907 0c00 7B7F     		ldrb	r3, [r7, #29]	@ zero_extendqisi2
 1908 0c02 0C2B     		cmp	r3, #12
 1909 0c04 F3D9     		bls	.L94
 1910              	.LBE44:
 291:printer.c     **** 		}
 292:printer.c     **** 		UART_3_PutChar(PRN_CURRENCY[0]);  
 1911              		.loc 1 292 0 is_stmt 1
 1912 0c06 454B     		ldr	r3, .L131+40
 1913 0c08 1B78     		ldrb	r3, [r3]	@ zero_extendqisi2
 1914 0c0a 1846     		mov	r0, r3
 1915 0c0c FFF7FEFF 		bl	UART_3_PutChar
 293:printer.c     **** 		UART_3_PutChar(' ');
 1916              		.loc 1 293 0
 1917 0c10 2020     		movs	r0, #32
 1918 0c12 FFF7FEFF 		bl	UART_3_PutChar
 1919              	.LBB45:
 294:printer.c     **** 		for(uint8 x = 1; x < 6; x ++){
 1920              		.loc 1 294 0
 1921 0c16 0123     		movs	r3, #1
 1922 0c18 3B77     		strb	r3, [r7, #28]
 1923 0c1a 0AE0     		b	.L95
 1924              	.L96:
 295:printer.c     **** 			UART_3_PutChar(side.c.ProcessedPPU[0][x]);
 1925              		.loc 1 295 0 discriminator 3
 1926 0c1c 3B7F     		ldrb	r3, [r7, #28]	@ zero_extendqisi2
 1927 0c1e 354A     		ldr	r2, .L131
 1928 0c20 1344     		add	r3, r3, r2
 1929 0c22 93F85133 		ldrb	r3, [r3, #849]	@ zero_extendqisi2
 1930 0c26 1846     		mov	r0, r3
 1931 0c28 FFF7FEFF 		bl	UART_3_PutChar
 294:printer.c     **** 		for(uint8 x = 1; x < 6; x ++){
 1932              		.loc 1 294 0 discriminator 3
 1933 0c2c 3B7F     		ldrb	r3, [r7, #28]	@ zero_extendqisi2
 1934 0c2e 0133     		adds	r3, r3, #1
 1935 0c30 3B77     		strb	r3, [r7, #28]
 1936              	.L95:
 294:printer.c     **** 		for(uint8 x = 1; x < 6; x ++){
 1937              		.loc 1 294 0 is_stmt 0 discriminator 1
ARM GAS  C:\Users\Lenovo\AppData\Local\Temp\ccHD7LbD.s 			page 44


 1938 0c32 3B7F     		ldrb	r3, [r7, #28]	@ zero_extendqisi2
 1939 0c34 052B     		cmp	r3, #5
 1940 0c36 F1D9     		bls	.L96
 1941              	.LBE45:
 296:printer.c     **** 		}
 297:printer.c     **** 		UART_3_PutChar(LINE_FEED);
 1942              		.loc 1 297 0 is_stmt 1
 1943 0c38 2F4B     		ldr	r3, .L131+4
 1944 0c3a 1B78     		ldrb	r3, [r3]	@ zero_extendqisi2
 1945 0c3c 1846     		mov	r0, r3
 1946 0c3e FFF7FEFF 		bl	UART_3_PutChar
 1947              	.L75:
 298:printer.c     **** 	}
 299:printer.c     **** 	if(address == side.d.dir){
 1948              		.loc 1 299 0
 1949 0c42 2C4B     		ldr	r3, .L131
 1950 0c44 93F86933 		ldrb	r3, [r3, #873]	@ zero_extendqisi2
 1951 0c48 FA79     		ldrb	r2, [r7, #7]	@ zero_extendqisi2
 1952 0c4a 9A42     		cmp	r2, r3
 1953 0c4c 40F0F880 		bne	.L97
 1954              	.LBB46:
 300:printer.c     **** 		for(uint8 x = 0; x < 7; x ++){
 1955              		.loc 1 300 0
 1956 0c50 0023     		movs	r3, #0
 1957 0c52 FB76     		strb	r3, [r7, #27]
 1958 0c54 08E0     		b	.L98
 1959              	.L99:
 301:printer.c     **** 			UART_3_PutChar(msn_plate[x]);
 1960              		.loc 1 301 0 discriminator 3
 1961 0c56 FB7E     		ldrb	r3, [r7, #27]	@ zero_extendqisi2
 1962 0c58 284A     		ldr	r2, .L131+8
 1963 0c5a D35C     		ldrb	r3, [r2, r3]	@ zero_extendqisi2
 1964 0c5c 1846     		mov	r0, r3
 1965 0c5e FFF7FEFF 		bl	UART_3_PutChar
 300:printer.c     **** 		for(uint8 x = 0; x < 7; x ++){
 1966              		.loc 1 300 0 discriminator 3
 1967 0c62 FB7E     		ldrb	r3, [r7, #27]	@ zero_extendqisi2
 1968 0c64 0133     		adds	r3, r3, #1
 1969 0c66 FB76     		strb	r3, [r7, #27]
 1970              	.L98:
 300:printer.c     **** 		for(uint8 x = 0; x < 7; x ++){
 1971              		.loc 1 300 0 is_stmt 0 discriminator 1
 1972 0c68 FB7E     		ldrb	r3, [r7, #27]	@ zero_extendqisi2
 1973 0c6a 062B     		cmp	r3, #6
 1974 0c6c F3D9     		bls	.L99
 1975              	.LBE46:
 1976              	.LBB47:
 302:printer.c     **** 		}  
 303:printer.c     **** 		for(uint8 x = 0; x < 13; x ++){
 1977              		.loc 1 303 0 is_stmt 1
 1978 0c6e 0023     		movs	r3, #0
 1979 0c70 BB76     		strb	r3, [r7, #26]
 1980 0c72 08E0     		b	.L100
 1981              	.L101:
 304:printer.c     **** 			UART_3_PutChar(msn_pos[x]);
 1982              		.loc 1 304 0 discriminator 3
 1983 0c74 BB7E     		ldrb	r3, [r7, #26]	@ zero_extendqisi2
ARM GAS  C:\Users\Lenovo\AppData\Local\Temp\ccHD7LbD.s 			page 45


 1984 0c76 224A     		ldr	r2, .L131+12
 1985 0c78 D35C     		ldrb	r3, [r2, r3]	@ zero_extendqisi2
 1986 0c7a 1846     		mov	r0, r3
 1987 0c7c FFF7FEFF 		bl	UART_3_PutChar
 303:printer.c     **** 			UART_3_PutChar(msn_pos[x]);
 1988              		.loc 1 303 0 discriminator 3
 1989 0c80 BB7E     		ldrb	r3, [r7, #26]	@ zero_extendqisi2
 1990 0c82 0133     		adds	r3, r3, #1
 1991 0c84 BB76     		strb	r3, [r7, #26]
 1992              	.L100:
 303:printer.c     **** 			UART_3_PutChar(msn_pos[x]);
 1993              		.loc 1 303 0 is_stmt 0 discriminator 1
 1994 0c86 BB7E     		ldrb	r3, [r7, #26]	@ zero_extendqisi2
 1995 0c88 0C2B     		cmp	r3, #12
 1996 0c8a F3D9     		bls	.L101
 1997              	.LBE47:
 305:printer.c     **** 		}
 306:printer.c     **** 		UART_3_PutChar((side.d.dir)+ 0x31);
 1998              		.loc 1 306 0 is_stmt 1
 1999 0c8c 194B     		ldr	r3, .L131
 2000 0c8e 93F86933 		ldrb	r3, [r3, #873]	@ zero_extendqisi2
 2001 0c92 3133     		adds	r3, r3, #49
 2002 0c94 DBB2     		uxtb	r3, r3
 2003 0c96 1846     		mov	r0, r3
 2004 0c98 FFF7FEFF 		bl	UART_3_PutChar
 307:printer.c     **** 		UART_3_PutChar(LINE_FEED);
 2005              		.loc 1 307 0
 2006 0c9c 164B     		ldr	r3, .L131+4
 2007 0c9e 1B78     		ldrb	r3, [r3]	@ zero_extendqisi2
 2008 0ca0 1846     		mov	r0, r3
 2009 0ca2 FFF7FEFF 		bl	UART_3_PutChar
 308:printer.c     **** 		UART_3_PutChar(LINE_FEED);
 2010              		.loc 1 308 0
 2011 0ca6 144B     		ldr	r3, .L131+4
 2012 0ca8 1B78     		ldrb	r3, [r3]	@ zero_extendqisi2
 2013 0caa 1846     		mov	r0, r3
 2014 0cac FFF7FEFF 		bl	UART_3_PutChar
 2015              	.LBB48:
 309:printer.c     **** 		for(uint8 x = 0; x < 13; x ++){
 2016              		.loc 1 309 0
 2017 0cb0 0023     		movs	r3, #0
 2018 0cb2 7B76     		strb	r3, [r7, #25]
 2019 0cb4 08E0     		b	.L102
 2020              	.L103:
 310:printer.c     **** 			UART_3_PutChar(msn_product[x]);
 2021              		.loc 1 310 0 discriminator 3
 2022 0cb6 7B7E     		ldrb	r3, [r7, #25]	@ zero_extendqisi2
 2023 0cb8 124A     		ldr	r2, .L131+16
 2024 0cba D35C     		ldrb	r3, [r2, r3]	@ zero_extendqisi2
 2025 0cbc 1846     		mov	r0, r3
 2026 0cbe FFF7FEFF 		bl	UART_3_PutChar
 309:printer.c     **** 		for(uint8 x = 0; x < 13; x ++){
 2027              		.loc 1 309 0 discriminator 3
 2028 0cc2 7B7E     		ldrb	r3, [r7, #25]	@ zero_extendqisi2
 2029 0cc4 0133     		adds	r3, r3, #1
 2030 0cc6 7B76     		strb	r3, [r7, #25]
 2031              	.L102:
ARM GAS  C:\Users\Lenovo\AppData\Local\Temp\ccHD7LbD.s 			page 46


 309:printer.c     **** 		for(uint8 x = 0; x < 13; x ++){
 2032              		.loc 1 309 0 is_stmt 0 discriminator 1
 2033 0cc8 7B7E     		ldrb	r3, [r7, #25]	@ zero_extendqisi2
 2034 0cca 0C2B     		cmp	r3, #12
 2035 0ccc F3D9     		bls	.L103
 2036              	.LBE48:
 2037              	.LBB49:
 311:printer.c     **** 		}
 312:printer.c     **** 		for(uint8 x = 0; x < 8; x ++){
 2038              		.loc 1 312 0 is_stmt 1
 2039 0cce 0023     		movs	r3, #0
 2040 0cd0 3B76     		strb	r3, [r7, #24]
 2041 0cd2 08E0     		b	.L104
 2042              	.L105:
 313:printer.c     **** 			UART_3_PutChar(msn_diesel[x]);
 2043              		.loc 1 313 0 discriminator 3
 2044 0cd4 3B7E     		ldrb	r3, [r7, #24]	@ zero_extendqisi2
 2045 0cd6 0C4A     		ldr	r2, .L131+20
 2046 0cd8 D35C     		ldrb	r3, [r2, r3]	@ zero_extendqisi2
 2047 0cda 1846     		mov	r0, r3
 2048 0cdc FFF7FEFF 		bl	UART_3_PutChar
 312:printer.c     **** 			UART_3_PutChar(msn_diesel[x]);
 2049              		.loc 1 312 0 discriminator 3
 2050 0ce0 3B7E     		ldrb	r3, [r7, #24]	@ zero_extendqisi2
 2051 0ce2 0133     		adds	r3, r3, #1
 2052 0ce4 3B76     		strb	r3, [r7, #24]
 2053              	.L104:
 312:printer.c     **** 			UART_3_PutChar(msn_diesel[x]);
 2054              		.loc 1 312 0 is_stmt 0 discriminator 1
 2055 0ce6 3B7E     		ldrb	r3, [r7, #24]	@ zero_extendqisi2
 2056 0ce8 072B     		cmp	r3, #7
 2057 0cea F3D9     		bls	.L105
 2058              	.LBE49:
 2059              	.LBB50:
 314:printer.c     **** 		}
 315:printer.c     **** 		for(uint8 x = 0; x < 13; x ++){
 2060              		.loc 1 315 0 is_stmt 1
 2061 0cec 0023     		movs	r3, #0
 2062 0cee FB75     		strb	r3, [r7, #23]
 2063 0cf0 21E0     		b	.L106
 2064              	.L132:
 2065 0cf2 00BF     		.align	2
 2066              	.L131:
 2067 0cf4 00000000 		.word	side
 2068 0cf8 00000000 		.word	LINE_FEED
 2069 0cfc 00000000 		.word	msn_plate
 2070 0d00 00000000 		.word	msn_pos
 2071 0d04 00000000 		.word	msn_product
 2072 0d08 00000000 		.word	msn_diesel
 2073 0d0c 00000000 		.word	msn_vol
 2074 0d10 00000000 		.word	DecVol
 2075 0d14 00000000 		.word	VolSimbol
 2076 0d18 00000000 		.word	msn_din
 2077 0d1c 00000000 		.word	PRN_CURRENCY
 2078 0d20 00000000 		.word	msn_ppu
 2079              	.L107:
 316:printer.c     **** 			UART_3_PutChar(msn_vol[x]);
ARM GAS  C:\Users\Lenovo\AppData\Local\Temp\ccHD7LbD.s 			page 47


 2080              		.loc 1 316 0 discriminator 3
 2081 0d24 FB7D     		ldrb	r3, [r7, #23]	@ zero_extendqisi2
 2082 0d26 6B4A     		ldr	r2, .L133
 2083 0d28 D35C     		ldrb	r3, [r2, r3]	@ zero_extendqisi2
 2084 0d2a 1846     		mov	r0, r3
 2085 0d2c FFF7FEFF 		bl	UART_3_PutChar
 315:printer.c     **** 			UART_3_PutChar(msn_vol[x]);
 2086              		.loc 1 315 0 discriminator 3
 2087 0d30 FB7D     		ldrb	r3, [r7, #23]	@ zero_extendqisi2
 2088 0d32 0133     		adds	r3, r3, #1
 2089 0d34 FB75     		strb	r3, [r7, #23]
 2090              	.L106:
 315:printer.c     **** 			UART_3_PutChar(msn_vol[x]);
 2091              		.loc 1 315 0 is_stmt 0 discriminator 1
 2092 0d36 FB7D     		ldrb	r3, [r7, #23]	@ zero_extendqisi2
 2093 0d38 0C2B     		cmp	r3, #12
 2094 0d3a F3D9     		bls	.L107
 2095              	.LBE50:
 2096              	.LBB51:
 317:printer.c     **** 		}
 318:printer.c     **** 		for(uint8 x = 0; x < 8; x ++){
 2097              		.loc 1 318 0 is_stmt 1
 2098 0d3c 0023     		movs	r3, #0
 2099 0d3e BB75     		strb	r3, [r7, #22]
 2100 0d40 14E0     		b	.L108
 2101              	.L110:
 319:printer.c     **** 			if((8-x) == DecVol)
 2102              		.loc 1 319 0
 2103 0d42 BB7D     		ldrb	r3, [r7, #22]	@ zero_extendqisi2
 2104 0d44 C3F10803 		rsb	r3, r3, #8
 2105 0d48 634A     		ldr	r2, .L133+4
 2106 0d4a 1278     		ldrb	r2, [r2]	@ zero_extendqisi2
 2107 0d4c 9342     		cmp	r3, r2
 2108 0d4e 02D1     		bne	.L109
 320:printer.c     **** 				UART_3_PutChar('.');
 2109              		.loc 1 320 0
 2110 0d50 2E20     		movs	r0, #46
 2111 0d52 FFF7FEFF 		bl	UART_3_PutChar
 2112              	.L109:
 321:printer.c     **** 			UART_3_PutChar(side.d.ProcessedvolumeSale[x]);        
 2113              		.loc 1 321 0 discriminator 2
 2114 0d56 BB7D     		ldrb	r3, [r7, #22]	@ zero_extendqisi2
 2115 0d58 604A     		ldr	r2, .L133+8
 2116 0d5a 1344     		add	r3, r3, r2
 2117 0d5c 93F86C34 		ldrb	r3, [r3, #1132]	@ zero_extendqisi2
 2118 0d60 1846     		mov	r0, r3
 2119 0d62 FFF7FEFF 		bl	UART_3_PutChar
 318:printer.c     **** 			if((8-x) == DecVol)
 2120              		.loc 1 318 0 discriminator 2
 2121 0d66 BB7D     		ldrb	r3, [r7, #22]	@ zero_extendqisi2
 2122 0d68 0133     		adds	r3, r3, #1
 2123 0d6a BB75     		strb	r3, [r7, #22]
 2124              	.L108:
 318:printer.c     **** 			if((8-x) == DecVol)
 2125              		.loc 1 318 0 is_stmt 0 discriminator 1
 2126 0d6c BB7D     		ldrb	r3, [r7, #22]	@ zero_extendqisi2
 2127 0d6e 072B     		cmp	r3, #7
ARM GAS  C:\Users\Lenovo\AppData\Local\Temp\ccHD7LbD.s 			page 48


 2128 0d70 E7D9     		bls	.L110
 2129              	.LBE51:
 322:printer.c     **** 		}
 323:printer.c     **** 		UART_3_PutChar(' ');
 2130              		.loc 1 323 0 is_stmt 1
 2131 0d72 2020     		movs	r0, #32
 2132 0d74 FFF7FEFF 		bl	UART_3_PutChar
 324:printer.c     **** 		UART_3_PutChar(VolSimbol[0]);
 2133              		.loc 1 324 0
 2134 0d78 594B     		ldr	r3, .L133+12
 2135 0d7a 1B78     		ldrb	r3, [r3]	@ zero_extendqisi2
 2136 0d7c 1846     		mov	r0, r3
 2137 0d7e FFF7FEFF 		bl	UART_3_PutChar
 325:printer.c     **** 		UART_3_PutChar(LINE_FEED); 
 2138              		.loc 1 325 0
 2139 0d82 584B     		ldr	r3, .L133+16
 2140 0d84 1B78     		ldrb	r3, [r3]	@ zero_extendqisi2
 2141 0d86 1846     		mov	r0, r3
 2142 0d88 FFF7FEFF 		bl	UART_3_PutChar
 2143              	.LBB52:
 326:printer.c     **** 		for(uint8 x = 0; x < 13; x ++){
 2144              		.loc 1 326 0
 2145 0d8c 0023     		movs	r3, #0
 2146 0d8e 7B75     		strb	r3, [r7, #21]
 2147 0d90 08E0     		b	.L111
 2148              	.L112:
 327:printer.c     **** 			UART_3_PutChar(msn_din[x]);
 2149              		.loc 1 327 0 discriminator 3
 2150 0d92 7B7D     		ldrb	r3, [r7, #21]	@ zero_extendqisi2
 2151 0d94 544A     		ldr	r2, .L133+20
 2152 0d96 D35C     		ldrb	r3, [r2, r3]	@ zero_extendqisi2
 2153 0d98 1846     		mov	r0, r3
 2154 0d9a FFF7FEFF 		bl	UART_3_PutChar
 326:printer.c     **** 		for(uint8 x = 0; x < 13; x ++){
 2155              		.loc 1 326 0 discriminator 3
 2156 0d9e 7B7D     		ldrb	r3, [r7, #21]	@ zero_extendqisi2
 2157 0da0 0133     		adds	r3, r3, #1
 2158 0da2 7B75     		strb	r3, [r7, #21]
 2159              	.L111:
 326:printer.c     **** 		for(uint8 x = 0; x < 13; x ++){
 2160              		.loc 1 326 0 is_stmt 0 discriminator 1
 2161 0da4 7B7D     		ldrb	r3, [r7, #21]	@ zero_extendqisi2
 2162 0da6 0C2B     		cmp	r3, #12
 2163 0da8 F3D9     		bls	.L112
 2164              	.LBE52:
 328:printer.c     **** 		}     
 329:printer.c     **** 		UART_3_PutChar(PRN_CURRENCY[0]);  
 2165              		.loc 1 329 0 is_stmt 1
 2166 0daa 504B     		ldr	r3, .L133+24
 2167 0dac 1B78     		ldrb	r3, [r3]	@ zero_extendqisi2
 2168 0dae 1846     		mov	r0, r3
 2169 0db0 FFF7FEFF 		bl	UART_3_PutChar
 330:printer.c     **** 		UART_3_PutChar(' ');
 2170              		.loc 1 330 0
 2171 0db4 2020     		movs	r0, #32
 2172 0db6 FFF7FEFF 		bl	UART_3_PutChar
 2173              	.LBB53:
ARM GAS  C:\Users\Lenovo\AppData\Local\Temp\ccHD7LbD.s 			page 49


 331:printer.c     **** 		for(uint8 x = 0; x < 8; x ++){
 2174              		.loc 1 331 0
 2175 0dba 0023     		movs	r3, #0
 2176 0dbc 3B75     		strb	r3, [r7, #20]
 2177 0dbe 0AE0     		b	.L113
 2178              	.L114:
 332:printer.c     **** 			UART_3_PutChar(side.d.ProcessedmoneySale[x]);
 2179              		.loc 1 332 0 discriminator 3
 2180 0dc0 3B7D     		ldrb	r3, [r7, #20]	@ zero_extendqisi2
 2181 0dc2 464A     		ldr	r2, .L133+8
 2182 0dc4 1344     		add	r3, r3, r2
 2183 0dc6 93F86434 		ldrb	r3, [r3, #1124]	@ zero_extendqisi2
 2184 0dca 1846     		mov	r0, r3
 2185 0dcc FFF7FEFF 		bl	UART_3_PutChar
 331:printer.c     **** 		for(uint8 x = 0; x < 8; x ++){
 2186              		.loc 1 331 0 discriminator 3
 2187 0dd0 3B7D     		ldrb	r3, [r7, #20]	@ zero_extendqisi2
 2188 0dd2 0133     		adds	r3, r3, #1
 2189 0dd4 3B75     		strb	r3, [r7, #20]
 2190              	.L113:
 331:printer.c     **** 		for(uint8 x = 0; x < 8; x ++){
 2191              		.loc 1 331 0 is_stmt 0 discriminator 1
 2192 0dd6 3B7D     		ldrb	r3, [r7, #20]	@ zero_extendqisi2
 2193 0dd8 072B     		cmp	r3, #7
 2194 0dda F1D9     		bls	.L114
 2195              	.LBE53:
 333:printer.c     **** 		}
 334:printer.c     **** 		UART_3_PutChar(LINE_FEED); 	
 2196              		.loc 1 334 0 is_stmt 1
 2197 0ddc 414B     		ldr	r3, .L133+16
 2198 0dde 1B78     		ldrb	r3, [r3]	@ zero_extendqisi2
 2199 0de0 1846     		mov	r0, r3
 2200 0de2 FFF7FEFF 		bl	UART_3_PutChar
 2201              	.LBB54:
 335:printer.c     **** 		for(uint8 x = 0; x < 13; x ++){
 2202              		.loc 1 335 0
 2203 0de6 0023     		movs	r3, #0
 2204 0de8 FB74     		strb	r3, [r7, #19]
 2205 0dea 08E0     		b	.L115
 2206              	.L116:
 336:printer.c     **** 			UART_3_PutChar(msn_ppu[x]);
 2207              		.loc 1 336 0 discriminator 3
 2208 0dec FB7C     		ldrb	r3, [r7, #19]	@ zero_extendqisi2
 2209 0dee 404A     		ldr	r2, .L133+28
 2210 0df0 D35C     		ldrb	r3, [r2, r3]	@ zero_extendqisi2
 2211 0df2 1846     		mov	r0, r3
 2212 0df4 FFF7FEFF 		bl	UART_3_PutChar
 335:printer.c     **** 		for(uint8 x = 0; x < 13; x ++){
 2213              		.loc 1 335 0 discriminator 3
 2214 0df8 FB7C     		ldrb	r3, [r7, #19]	@ zero_extendqisi2
 2215 0dfa 0133     		adds	r3, r3, #1
 2216 0dfc FB74     		strb	r3, [r7, #19]
 2217              	.L115:
 335:printer.c     **** 		for(uint8 x = 0; x < 13; x ++){
 2218              		.loc 1 335 0 is_stmt 0 discriminator 1
 2219 0dfe FB7C     		ldrb	r3, [r7, #19]	@ zero_extendqisi2
 2220 0e00 0C2B     		cmp	r3, #12
ARM GAS  C:\Users\Lenovo\AppData\Local\Temp\ccHD7LbD.s 			page 50


 2221 0e02 F3D9     		bls	.L116
 2222              	.LBE54:
 337:printer.c     **** 		}
 338:printer.c     **** 		UART_3_PutChar(PRN_CURRENCY[0]);  
 2223              		.loc 1 338 0 is_stmt 1
 2224 0e04 394B     		ldr	r3, .L133+24
 2225 0e06 1B78     		ldrb	r3, [r3]	@ zero_extendqisi2
 2226 0e08 1846     		mov	r0, r3
 2227 0e0a FFF7FEFF 		bl	UART_3_PutChar
 339:printer.c     **** 		UART_3_PutChar(' ');
 2228              		.loc 1 339 0
 2229 0e0e 2020     		movs	r0, #32
 2230 0e10 FFF7FEFF 		bl	UART_3_PutChar
 2231              	.LBB55:
 340:printer.c     **** 		for(uint8 x = 1; x < 6; x ++){
 2232              		.loc 1 340 0
 2233 0e14 0123     		movs	r3, #1
 2234 0e16 BB74     		strb	r3, [r7, #18]
 2235 0e18 0AE0     		b	.L117
 2236              	.L118:
 341:printer.c     **** 			UART_3_PutChar(side.d.ProcessedPPU[0][x]);
 2237              		.loc 1 341 0 discriminator 3
 2238 0e1a BB7C     		ldrb	r3, [r7, #18]	@ zero_extendqisi2
 2239 0e1c 2F4A     		ldr	r2, .L133+8
 2240 0e1e 1344     		add	r3, r3, r2
 2241 0e20 93F87434 		ldrb	r3, [r3, #1140]	@ zero_extendqisi2
 2242 0e24 1846     		mov	r0, r3
 2243 0e26 FFF7FEFF 		bl	UART_3_PutChar
 340:printer.c     **** 		for(uint8 x = 1; x < 6; x ++){
 2244              		.loc 1 340 0 discriminator 3
 2245 0e2a BB7C     		ldrb	r3, [r7, #18]	@ zero_extendqisi2
 2246 0e2c 0133     		adds	r3, r3, #1
 2247 0e2e BB74     		strb	r3, [r7, #18]
 2248              	.L117:
 340:printer.c     **** 		for(uint8 x = 1; x < 6; x ++){
 2249              		.loc 1 340 0 is_stmt 0 discriminator 1
 2250 0e30 BB7C     		ldrb	r3, [r7, #18]	@ zero_extendqisi2
 2251 0e32 052B     		cmp	r3, #5
 2252 0e34 F1D9     		bls	.L118
 2253              	.LBE55:
 342:printer.c     **** 		}
 343:printer.c     **** 		UART_3_PutChar(LINE_FEED);
 2254              		.loc 1 343 0 is_stmt 1
 2255 0e36 2B4B     		ldr	r3, .L133+16
 2256 0e38 1B78     		ldrb	r3, [r3]	@ zero_extendqisi2
 2257 0e3a 1846     		mov	r0, r3
 2258 0e3c FFF7FEFF 		bl	UART_3_PutChar
 2259              	.L97:
 2260              	.LBB56:
 344:printer.c     **** 	}
 345:printer.c     **** 	
 346:printer.c     **** 	/******FOOTER*****/
 347:printer.c     **** 	for(uint8 x = 0; x < 24; x ++){
 2261              		.loc 1 347 0
 2262 0e40 0023     		movs	r3, #0
 2263 0e42 7B74     		strb	r3, [r7, #17]
 2264 0e44 08E0     		b	.L119
ARM GAS  C:\Users\Lenovo\AppData\Local\Temp\ccHD7LbD.s 			page 51


 2265              	.L120:
 348:printer.c     **** 		UART_3_PutChar(SEPARATOR[x]);
 2266              		.loc 1 348 0 discriminator 3
 2267 0e46 7B7C     		ldrb	r3, [r7, #17]	@ zero_extendqisi2
 2268 0e48 2A4A     		ldr	r2, .L133+32
 2269 0e4a D35C     		ldrb	r3, [r2, r3]	@ zero_extendqisi2
 2270 0e4c 1846     		mov	r0, r3
 2271 0e4e FFF7FEFF 		bl	UART_3_PutChar
 347:printer.c     **** 		UART_3_PutChar(SEPARATOR[x]);
 2272              		.loc 1 347 0 discriminator 3
 2273 0e52 7B7C     		ldrb	r3, [r7, #17]	@ zero_extendqisi2
 2274 0e54 0133     		adds	r3, r3, #1
 2275 0e56 7B74     		strb	r3, [r7, #17]
 2276              	.L119:
 347:printer.c     **** 		UART_3_PutChar(SEPARATOR[x]);
 2277              		.loc 1 347 0 is_stmt 0 discriminator 1
 2278 0e58 7B7C     		ldrb	r3, [r7, #17]	@ zero_extendqisi2
 2279 0e5a 172B     		cmp	r3, #23
 2280 0e5c F3D9     		bls	.L120
 2281              	.LBE56:
 349:printer.c     **** 	}
 350:printer.c     **** 	UART_3_PutChar(LINE_FEED);
 2282              		.loc 1 350 0 is_stmt 1
 2283 0e5e 214B     		ldr	r3, .L133+16
 2284 0e60 1B78     		ldrb	r3, [r3]	@ zero_extendqisi2
 2285 0e62 1846     		mov	r0, r3
 2286 0e64 FFF7FEFF 		bl	UART_3_PutChar
 2287              	.LBB57:
 351:printer.c     **** 	for(uint8 x = 0; x < 22; x ++){
 2288              		.loc 1 351 0
 2289 0e68 0023     		movs	r3, #0
 2290 0e6a 3B74     		strb	r3, [r7, #16]
 2291 0e6c 08E0     		b	.L121
 2292              	.L122:
 352:printer.c     **** 		UART_3_PutChar(msn_footer[x]);
 2293              		.loc 1 352 0 discriminator 3
 2294 0e6e 3B7C     		ldrb	r3, [r7, #16]	@ zero_extendqisi2
 2295 0e70 214A     		ldr	r2, .L133+36
 2296 0e72 D35C     		ldrb	r3, [r2, r3]	@ zero_extendqisi2
 2297 0e74 1846     		mov	r0, r3
 2298 0e76 FFF7FEFF 		bl	UART_3_PutChar
 351:printer.c     **** 	for(uint8 x = 0; x < 22; x ++){
 2299              		.loc 1 351 0 discriminator 3
 2300 0e7a 3B7C     		ldrb	r3, [r7, #16]	@ zero_extendqisi2
 2301 0e7c 0133     		adds	r3, r3, #1
 2302 0e7e 3B74     		strb	r3, [r7, #16]
 2303              	.L121:
 351:printer.c     **** 	for(uint8 x = 0; x < 22; x ++){
 2304              		.loc 1 351 0 is_stmt 0 discriminator 1
 2305 0e80 3B7C     		ldrb	r3, [r7, #16]	@ zero_extendqisi2
 2306 0e82 152B     		cmp	r3, #21
 2307 0e84 F3D9     		bls	.L122
 2308              	.LBE57:
 353:printer.c     **** 	}
 354:printer.c     **** 	UART_3_PutChar(LINE_FEED);
 2309              		.loc 1 354 0 is_stmt 1
 2310 0e86 174B     		ldr	r3, .L133+16
ARM GAS  C:\Users\Lenovo\AppData\Local\Temp\ccHD7LbD.s 			page 52


 2311 0e88 1B78     		ldrb	r3, [r3]	@ zero_extendqisi2
 2312 0e8a 1846     		mov	r0, r3
 2313 0e8c FFF7FEFF 		bl	UART_3_PutChar
 2314              	.LBB58:
 355:printer.c     **** 	for(uint8 x = 0; x < 22; x ++){
 2315              		.loc 1 355 0
 2316 0e90 0023     		movs	r3, #0
 2317 0e92 FB73     		strb	r3, [r7, #15]
 2318 0e94 08E0     		b	.L123
 2319              	.L124:
 356:printer.c     **** 		UART_3_PutChar(msn_footer2[x]);
 2320              		.loc 1 356 0 discriminator 3
 2321 0e96 FB7B     		ldrb	r3, [r7, #15]	@ zero_extendqisi2
 2322 0e98 184A     		ldr	r2, .L133+40
 2323 0e9a D35C     		ldrb	r3, [r2, r3]	@ zero_extendqisi2
 2324 0e9c 1846     		mov	r0, r3
 2325 0e9e FFF7FEFF 		bl	UART_3_PutChar
 355:printer.c     **** 	for(uint8 x = 0; x < 22; x ++){
 2326              		.loc 1 355 0 discriminator 3
 2327 0ea2 FB7B     		ldrb	r3, [r7, #15]	@ zero_extendqisi2
 2328 0ea4 0133     		adds	r3, r3, #1
 2329 0ea6 FB73     		strb	r3, [r7, #15]
 2330              	.L123:
 355:printer.c     **** 	for(uint8 x = 0; x < 22; x ++){
 2331              		.loc 1 355 0 is_stmt 0 discriminator 1
 2332 0ea8 FB7B     		ldrb	r3, [r7, #15]	@ zero_extendqisi2
 2333 0eaa 152B     		cmp	r3, #21
 2334 0eac F3D9     		bls	.L124
 2335              	.LBE58:
 357:printer.c     **** 	}
 358:printer.c     ****         
 359:printer.c     ****     
 360:printer.c     ****     UART_3_PutChar(LINE_FEED);
 2336              		.loc 1 360 0 is_stmt 1
 2337 0eae 0D4B     		ldr	r3, .L133+16
 2338 0eb0 1B78     		ldrb	r3, [r3]	@ zero_extendqisi2
 2339 0eb2 1846     		mov	r0, r3
 2340 0eb4 FFF7FEFF 		bl	UART_3_PutChar
 361:printer.c     ****     UART_3_PutChar(LINE_FEED);
 2341              		.loc 1 361 0
 2342 0eb8 0A4B     		ldr	r3, .L133+16
 2343 0eba 1B78     		ldrb	r3, [r3]	@ zero_extendqisi2
 2344 0ebc 1846     		mov	r0, r3
 2345 0ebe FFF7FEFF 		bl	UART_3_PutChar
 362:printer.c     ****     UART_3_PutChar(LINE_FEED);
 2346              		.loc 1 362 0
 2347 0ec2 084B     		ldr	r3, .L133+16
 2348 0ec4 1B78     		ldrb	r3, [r3]	@ zero_extendqisi2
 2349 0ec6 1846     		mov	r0, r3
 2350 0ec8 FFF7FEFF 		bl	UART_3_PutChar
 363:printer.c     **** }
 2351              		.loc 1 363 0
 2352 0ecc 00BF     		nop
 2353 0ece 4C37     		adds	r7, r7, #76
 2354              		.cfi_def_cfa_offset 12
 2355 0ed0 BD46     		mov	sp, r7
 2356              		.cfi_def_cfa_register 13
ARM GAS  C:\Users\Lenovo\AppData\Local\Temp\ccHD7LbD.s 			page 53


 2357              		@ sp needed
 2358 0ed2 90BD     		pop	{r4, r7, pc}
 2359              	.L134:
 2360              		.align	2
 2361              	.L133:
 2362 0ed4 00000000 		.word	msn_vol
 2363 0ed8 00000000 		.word	DecVol
 2364 0edc 00000000 		.word	side
 2365 0ee0 00000000 		.word	VolSimbol
 2366 0ee4 00000000 		.word	LINE_FEED
 2367 0ee8 00000000 		.word	msn_din
 2368 0eec 00000000 		.word	PRN_CURRENCY
 2369 0ef0 00000000 		.word	msn_ppu
 2370 0ef4 00000000 		.word	SEPARATOR
 2371 0ef8 00000000 		.word	msn_footer
 2372 0efc 00000000 		.word	msn_footer2
 2373              		.cfi_endproc
 2374              	.LFE63:
 2375              		.size	PrintReceipt, .-PrintReceipt
 2376              		.section	.text.PrintShift,"ax",%progbits
 2377              		.align	2
 2378              		.global	PrintShift
 2379              		.thumb
 2380              		.thumb_func
 2381              		.type	PrintShift, %function
 2382              	PrintShift:
 2383              	.LFB64:
 364:printer.c     **** 
 365:printer.c     **** void PrintShift(void){
 2384              		.loc 1 365 0
 2385              		.cfi_startproc
 2386              		@ args = 0, pretend = 0, frame = 32
 2387              		@ frame_needed = 1, uses_anonymous_args = 0
 2388 0000 90B5     		push	{r4, r7, lr}
 2389              		.cfi_def_cfa_offset 12
 2390              		.cfi_offset 4, -12
 2391              		.cfi_offset 7, -8
 2392              		.cfi_offset 14, -4
 2393 0002 89B0     		sub	sp, sp, #36
 2394              		.cfi_def_cfa_offset 48
 2395 0004 00AF     		add	r7, sp, #0
 2396              		.cfi_def_cfa_register 7
 2397              	.LBB59:
 366:printer.c     ****     int8 screen_size;
 367:printer.c     ****     for(uint8 LCDRx = 0; LCDRx < 6; LCDRx++){
 2398              		.loc 1 367 0
 2399 0006 0023     		movs	r3, #0
 2400 0008 FB77     		strb	r3, [r7, #31]
 2401 000a 08E0     		b	.L136
 2402              	.L137:
 368:printer.c     ****         screen_PutChar(ASK_TIME[LCDRx]);
 2403              		.loc 1 368 0 discriminator 3
 2404 000c FB7F     		ldrb	r3, [r7, #31]	@ zero_extendqisi2
 2405 000e AC4A     		ldr	r2, .L201
 2406 0010 D35C     		ldrb	r3, [r2, r3]	@ zero_extendqisi2
 2407 0012 1846     		mov	r0, r3
 2408 0014 FFF7FEFF 		bl	screen_PutChar
ARM GAS  C:\Users\Lenovo\AppData\Local\Temp\ccHD7LbD.s 			page 54


 367:printer.c     ****         screen_PutChar(ASK_TIME[LCDRx]);
 2409              		.loc 1 367 0 discriminator 3
 2410 0018 FB7F     		ldrb	r3, [r7, #31]	@ zero_extendqisi2
 2411 001a 0133     		adds	r3, r3, #1
 2412 001c FB77     		strb	r3, [r7, #31]
 2413              	.L136:
 367:printer.c     ****         screen_PutChar(ASK_TIME[LCDRx]);
 2414              		.loc 1 367 0 is_stmt 0 discriminator 1
 2415 001e FB7F     		ldrb	r3, [r7, #31]	@ zero_extendqisi2
 2416 0020 052B     		cmp	r3, #5
 2417 0022 F3D9     		bls	.L137
 2418              	.LBE59:
 369:printer.c     ****     }
 370:printer.c     ****     CyDelay(4);
 2419              		.loc 1 370 0 is_stmt 1
 2420 0024 0420     		movs	r0, #4
 2421 0026 FFF7FEFF 		bl	CyDelay
 371:printer.c     ****     screen_size = screen_GetRxBufferSize();
 2422              		.loc 1 371 0
 2423 002a FFF7FEFF 		bl	screen_GetRxBufferSize
 2424 002e 0346     		mov	r3, r0
 2425 0030 7B70     		strb	r3, [r7, #1]
 372:printer.c     ****     if(screen_size >= 13 ){
 2426              		.loc 1 372 0
 2427 0032 97F90130 		ldrsb	r3, [r7, #1]
 2428 0036 0C2B     		cmp	r3, #12
 2429 0038 13DD     		ble	.L138
 2430              	.LBB60:
 373:printer.c     ****         for(uint8 LCDRx = 0; LCDRx < screen_size; LCDRx++){
 2431              		.loc 1 373 0
 2432 003a 0023     		movs	r3, #0
 2433 003c BB77     		strb	r3, [r7, #30]
 2434 003e 09E0     		b	.L139
 2435              	.L140:
 374:printer.c     ****             touch1[LCDRx] = screen_ReadRxData();
 2436              		.loc 1 374 0 discriminator 3
 2437 0040 BC7F     		ldrb	r4, [r7, #30]	@ zero_extendqisi2
 2438 0042 FFF7FEFF 		bl	screen_ReadRxData
 2439 0046 0346     		mov	r3, r0
 2440 0048 1A46     		mov	r2, r3
 2441 004a 9E4B     		ldr	r3, .L201+4
 2442 004c 1A55     		strb	r2, [r3, r4]
 373:printer.c     ****         for(uint8 LCDRx = 0; LCDRx < screen_size; LCDRx++){
 2443              		.loc 1 373 0 discriminator 3
 2444 004e BB7F     		ldrb	r3, [r7, #30]	@ zero_extendqisi2
 2445 0050 0133     		adds	r3, r3, #1
 2446 0052 BB77     		strb	r3, [r7, #30]
 2447              	.L139:
 373:printer.c     ****         for(uint8 LCDRx = 0; LCDRx < screen_size; LCDRx++){
 2448              		.loc 1 373 0 is_stmt 0 discriminator 1
 2449 0054 BA7F     		ldrb	r2, [r7, #30]	@ zero_extendqisi2
 2450 0056 97F90130 		ldrsb	r3, [r7, #1]
 2451 005a 9A42     		cmp	r2, r3
 2452 005c F0DB     		blt	.L140
 2453              	.LBE60:
 375:printer.c     ****         }
 376:printer.c     ****         screen_size = 0;
ARM GAS  C:\Users\Lenovo\AppData\Local\Temp\ccHD7LbD.s 			page 55


 2454              		.loc 1 376 0 is_stmt 1
 2455 005e 0023     		movs	r3, #0
 2456 0060 7B70     		strb	r3, [r7, #1]
 2457              	.L138:
 377:printer.c     ****     }
 378:printer.c     ****     int_shiftnumber++;
 2458              		.loc 1 378 0
 2459 0062 994B     		ldr	r3, .L201+8
 2460 0064 1B78     		ldrb	r3, [r3]	@ zero_extendqisi2
 2461 0066 0133     		adds	r3, r3, #1
 2462 0068 DAB2     		uxtb	r2, r3
 2463 006a 974B     		ldr	r3, .L201+8
 2464 006c 1A70     		strb	r2, [r3]
 379:printer.c     ****     shift_number[5]=(int_shiftnumber/10000)+48;
 2465              		.loc 1 379 0
 2466 006e 964B     		ldr	r3, .L201+8
 2467 0070 1B78     		ldrb	r3, [r3]	@ zero_extendqisi2
 2468 0072 964A     		ldr	r2, .L201+12
 2469 0074 82FB0312 		smull	r1, r2, r2, r3
 2470 0078 1213     		asrs	r2, r2, #12
 2471 007a DB17     		asrs	r3, r3, #31
 2472 007c D31A     		subs	r3, r2, r3
 2473 007e DBB2     		uxtb	r3, r3
 2474 0080 3033     		adds	r3, r3, #48
 2475 0082 DAB2     		uxtb	r2, r3
 2476 0084 924B     		ldr	r3, .L201+16
 2477 0086 5A71     		strb	r2, [r3, #5]
 380:printer.c     **** 	shift_number[4]=((int_shiftnumber%10000)/1000)+48;
 2478              		.loc 1 380 0
 2479 0088 8F4B     		ldr	r3, .L201+8
 2480 008a 1B78     		ldrb	r3, [r3]	@ zero_extendqisi2
 2481 008c 1A46     		mov	r2, r3
 2482 008e 8F4B     		ldr	r3, .L201+12
 2483 0090 83FB0213 		smull	r1, r3, r3, r2
 2484 0094 1913     		asrs	r1, r3, #12
 2485 0096 D317     		asrs	r3, r2, #31
 2486 0098 CB1A     		subs	r3, r1, r3
 2487 009a 42F21071 		movw	r1, #10000
 2488 009e 01FB03F3 		mul	r3, r1, r3
 2489 00a2 D31A     		subs	r3, r2, r3
 2490 00a4 8B4A     		ldr	r2, .L201+20
 2491 00a6 82FB0312 		smull	r1, r2, r2, r3
 2492 00aa 9211     		asrs	r2, r2, #6
 2493 00ac DB17     		asrs	r3, r3, #31
 2494 00ae D31A     		subs	r3, r2, r3
 2495 00b0 DBB2     		uxtb	r3, r3
 2496 00b2 3033     		adds	r3, r3, #48
 2497 00b4 DAB2     		uxtb	r2, r3
 2498 00b6 864B     		ldr	r3, .L201+16
 2499 00b8 1A71     		strb	r2, [r3, #4]
 381:printer.c     **** 	shift_number[3]=(((int_shiftnumber%10000)%1000)/100)+48;
 2500              		.loc 1 381 0
 2501 00ba 834B     		ldr	r3, .L201+8
 2502 00bc 1B78     		ldrb	r3, [r3]	@ zero_extendqisi2
 2503 00be 1A46     		mov	r2, r3
 2504 00c0 824B     		ldr	r3, .L201+12
 2505 00c2 83FB0213 		smull	r1, r3, r3, r2
ARM GAS  C:\Users\Lenovo\AppData\Local\Temp\ccHD7LbD.s 			page 56


 2506 00c6 1913     		asrs	r1, r3, #12
 2507 00c8 D317     		asrs	r3, r2, #31
 2508 00ca CB1A     		subs	r3, r1, r3
 2509 00cc 42F21071 		movw	r1, #10000
 2510 00d0 01FB03F3 		mul	r3, r1, r3
 2511 00d4 D31A     		subs	r3, r2, r3
 2512 00d6 7F4A     		ldr	r2, .L201+20
 2513 00d8 82FB0312 		smull	r1, r2, r2, r3
 2514 00dc 9111     		asrs	r1, r2, #6
 2515 00de DA17     		asrs	r2, r3, #31
 2516 00e0 8A1A     		subs	r2, r1, r2
 2517 00e2 4FF47A71 		mov	r1, #1000
 2518 00e6 01FB02F2 		mul	r2, r1, r2
 2519 00ea 9A1A     		subs	r2, r3, r2
 2520 00ec 7A4B     		ldr	r3, .L201+24
 2521 00ee 83FB0213 		smull	r1, r3, r3, r2
 2522 00f2 5911     		asrs	r1, r3, #5
 2523 00f4 D317     		asrs	r3, r2, #31
 2524 00f6 CB1A     		subs	r3, r1, r3
 2525 00f8 DBB2     		uxtb	r3, r3
 2526 00fa 3033     		adds	r3, r3, #48
 2527 00fc DAB2     		uxtb	r2, r3
 2528 00fe 744B     		ldr	r3, .L201+16
 2529 0100 DA70     		strb	r2, [r3, #3]
 382:printer.c     **** 	shift_number[2]=((((int_shiftnumber%10000)%1000)%100)/10)+48;	
 2530              		.loc 1 382 0
 2531 0102 714B     		ldr	r3, .L201+8
 2532 0104 1B78     		ldrb	r3, [r3]	@ zero_extendqisi2
 2533 0106 714A     		ldr	r2, .L201+12
 2534 0108 82FB0312 		smull	r1, r2, r2, r3
 2535 010c 1113     		asrs	r1, r2, #12
 2536 010e DA17     		asrs	r2, r3, #31
 2537 0110 8A1A     		subs	r2, r1, r2
 2538 0112 42F21071 		movw	r1, #10000
 2539 0116 01FB02F2 		mul	r2, r1, r2
 2540 011a 9A1A     		subs	r2, r3, r2
 2541 011c 6D4B     		ldr	r3, .L201+20
 2542 011e 83FB0213 		smull	r1, r3, r3, r2
 2543 0122 9911     		asrs	r1, r3, #6
 2544 0124 D317     		asrs	r3, r2, #31
 2545 0126 CB1A     		subs	r3, r1, r3
 2546 0128 4FF47A71 		mov	r1, #1000
 2547 012c 01FB03F3 		mul	r3, r1, r3
 2548 0130 D31A     		subs	r3, r2, r3
 2549 0132 694A     		ldr	r2, .L201+24
 2550 0134 82FB0312 		smull	r1, r2, r2, r3
 2551 0138 5111     		asrs	r1, r2, #5
 2552 013a DA17     		asrs	r2, r3, #31
 2553 013c 8A1A     		subs	r2, r1, r2
 2554 013e 6421     		movs	r1, #100
 2555 0140 01FB02F2 		mul	r2, r1, r2
 2556 0144 9A1A     		subs	r2, r3, r2
 2557 0146 654B     		ldr	r3, .L201+28
 2558 0148 83FB0213 		smull	r1, r3, r3, r2
 2559 014c 9910     		asrs	r1, r3, #2
 2560 014e D317     		asrs	r3, r2, #31
 2561 0150 CB1A     		subs	r3, r1, r3
ARM GAS  C:\Users\Lenovo\AppData\Local\Temp\ccHD7LbD.s 			page 57


 2562 0152 DBB2     		uxtb	r3, r3
 2563 0154 3033     		adds	r3, r3, #48
 2564 0156 DAB2     		uxtb	r2, r3
 2565 0158 5D4B     		ldr	r3, .L201+16
 2566 015a 9A70     		strb	r2, [r3, #2]
 383:printer.c     **** 	shift_number[1]=((((int_shiftnumber%10000)%1000)%100)%10)+48;
 2567              		.loc 1 383 0
 2568 015c 5A4B     		ldr	r3, .L201+8
 2569 015e 1B78     		ldrb	r3, [r3]	@ zero_extendqisi2
 2570 0160 5A4A     		ldr	r2, .L201+12
 2571 0162 82FB0312 		smull	r1, r2, r2, r3
 2572 0166 1113     		asrs	r1, r2, #12
 2573 0168 DA17     		asrs	r2, r3, #31
 2574 016a 8A1A     		subs	r2, r1, r2
 2575 016c 42F21071 		movw	r1, #10000
 2576 0170 01FB02F2 		mul	r2, r1, r2
 2577 0174 9A1A     		subs	r2, r3, r2
 2578 0176 574B     		ldr	r3, .L201+20
 2579 0178 83FB0213 		smull	r1, r3, r3, r2
 2580 017c 9911     		asrs	r1, r3, #6
 2581 017e D317     		asrs	r3, r2, #31
 2582 0180 CB1A     		subs	r3, r1, r3
 2583 0182 4FF47A71 		mov	r1, #1000
 2584 0186 01FB03F3 		mul	r3, r1, r3
 2585 018a D31A     		subs	r3, r2, r3
 2586 018c 524A     		ldr	r2, .L201+24
 2587 018e 82FB0312 		smull	r1, r2, r2, r3
 2588 0192 5111     		asrs	r1, r2, #5
 2589 0194 DA17     		asrs	r2, r3, #31
 2590 0196 8A1A     		subs	r2, r1, r2
 2591 0198 6421     		movs	r1, #100
 2592 019a 01FB02F2 		mul	r2, r1, r2
 2593 019e 9A1A     		subs	r2, r3, r2
 2594 01a0 4E4B     		ldr	r3, .L201+28
 2595 01a2 83FB0213 		smull	r1, r3, r3, r2
 2596 01a6 9910     		asrs	r1, r3, #2
 2597 01a8 D317     		asrs	r3, r2, #31
 2598 01aa C91A     		subs	r1, r1, r3
 2599 01ac 0B46     		mov	r3, r1
 2600 01ae 9B00     		lsls	r3, r3, #2
 2601 01b0 0B44     		add	r3, r3, r1
 2602 01b2 5B00     		lsls	r3, r3, #1
 2603 01b4 D11A     		subs	r1, r2, r3
 2604 01b6 CBB2     		uxtb	r3, r1
 2605 01b8 3033     		adds	r3, r3, #48
 2606 01ba DAB2     		uxtb	r2, r3
 2607 01bc 444B     		ldr	r3, .L201+16
 2608 01be 5A70     		strb	r2, [r3, #1]
 2609              	.LBB61:
 384:printer.c     ****     for(uint8 i = 7; i<13; i++){
 2610              		.loc 1 384 0
 2611 01c0 0723     		movs	r3, #7
 2612 01c2 7B77     		strb	r3, [r7, #29]
 2613 01c4 0CE0     		b	.L141
 2614              	.L142:
 385:printer.c     ****         EEPROM_1_WriteByte(shift_number[i-6],i);
 2615              		.loc 1 385 0 discriminator 3
ARM GAS  C:\Users\Lenovo\AppData\Local\Temp\ccHD7LbD.s 			page 58


 2616 01c6 7B7F     		ldrb	r3, [r7, #29]	@ zero_extendqisi2
 2617 01c8 063B     		subs	r3, r3, #6
 2618 01ca 414A     		ldr	r2, .L201+16
 2619 01cc D35C     		ldrb	r3, [r2, r3]	@ zero_extendqisi2
 2620 01ce 7A7F     		ldrb	r2, [r7, #29]	@ zero_extendqisi2
 2621 01d0 92B2     		uxth	r2, r2
 2622 01d2 1146     		mov	r1, r2
 2623 01d4 1846     		mov	r0, r3
 2624 01d6 FFF7FEFF 		bl	EEPROM_1_WriteByte
 384:printer.c     ****     for(uint8 i = 7; i<13; i++){
 2625              		.loc 1 384 0 discriminator 3
 2626 01da 7B7F     		ldrb	r3, [r7, #29]	@ zero_extendqisi2
 2627 01dc 0133     		adds	r3, r3, #1
 2628 01de 7B77     		strb	r3, [r7, #29]
 2629              	.L141:
 384:printer.c     ****     for(uint8 i = 7; i<13; i++){
 2630              		.loc 1 384 0 is_stmt 0 discriminator 1
 2631 01e0 7B7F     		ldrb	r3, [r7, #29]	@ zero_extendqisi2
 2632 01e2 0C2B     		cmp	r3, #12
 2633 01e4 EFD9     		bls	.L142
 2634              	.LBE61:
 386:printer.c     ****     }
 387:printer.c     ****     UART_3_PutChar(LINE_FEED);
 2635              		.loc 1 387 0 is_stmt 1
 2636 01e6 3E4B     		ldr	r3, .L201+32
 2637 01e8 1B78     		ldrb	r3, [r3]	@ zero_extendqisi2
 2638 01ea 1846     		mov	r0, r3
 2639 01ec FFF7FEFF 		bl	UART_3_PutChar
 2640              	.LBB62:
 388:printer.c     **** 	for(uint8 x = 0; x < 22; x ++){
 2641              		.loc 1 388 0
 2642 01f0 0023     		movs	r3, #0
 2643 01f2 3B77     		strb	r3, [r7, #28]
 2644 01f4 08E0     		b	.L143
 2645              	.L144:
 389:printer.c     **** 		UART_3_PutChar(msn_EDS[x]);   // Encabezado de estacin
 2646              		.loc 1 389 0 discriminator 3
 2647 01f6 3B7F     		ldrb	r3, [r7, #28]	@ zero_extendqisi2
 2648 01f8 3A4A     		ldr	r2, .L201+36
 2649 01fa D35C     		ldrb	r3, [r2, r3]	@ zero_extendqisi2
 2650 01fc 1846     		mov	r0, r3
 2651 01fe FFF7FEFF 		bl	UART_3_PutChar
 388:printer.c     **** 	for(uint8 x = 0; x < 22; x ++){
 2652              		.loc 1 388 0 discriminator 3
 2653 0202 3B7F     		ldrb	r3, [r7, #28]	@ zero_extendqisi2
 2654 0204 0133     		adds	r3, r3, #1
 2655 0206 3B77     		strb	r3, [r7, #28]
 2656              	.L143:
 388:printer.c     **** 	for(uint8 x = 0; x < 22; x ++){
 2657              		.loc 1 388 0 is_stmt 0 discriminator 1
 2658 0208 3B7F     		ldrb	r3, [r7, #28]	@ zero_extendqisi2
 2659 020a 152B     		cmp	r3, #21
 2660 020c F3D9     		bls	.L144
 2661              	.LBE62:
 390:printer.c     **** 	}
 391:printer.c     **** 	UART_3_PutChar(LINE_FEED);
 2662              		.loc 1 391 0 is_stmt 1
ARM GAS  C:\Users\Lenovo\AppData\Local\Temp\ccHD7LbD.s 			page 59


 2663 020e 344B     		ldr	r3, .L201+32
 2664 0210 1B78     		ldrb	r3, [r3]	@ zero_extendqisi2
 2665 0212 1846     		mov	r0, r3
 2666 0214 FFF7FEFF 		bl	UART_3_PutChar
 2667              	.LBB63:
 392:printer.c     **** 	for(uint8 x = 0; x < 22; x ++){
 2668              		.loc 1 392 0
 2669 0218 0023     		movs	r3, #0
 2670 021a FB76     		strb	r3, [r7, #27]
 2671 021c 08E0     		b	.L145
 2672              	.L146:
 393:printer.c     **** 		UART_3_PutChar(msn_EDS2[x]);
 2673              		.loc 1 393 0 discriminator 3
 2674 021e FB7E     		ldrb	r3, [r7, #27]	@ zero_extendqisi2
 2675 0220 314A     		ldr	r2, .L201+40
 2676 0222 D35C     		ldrb	r3, [r2, r3]	@ zero_extendqisi2
 2677 0224 1846     		mov	r0, r3
 2678 0226 FFF7FEFF 		bl	UART_3_PutChar
 392:printer.c     **** 	for(uint8 x = 0; x < 22; x ++){
 2679              		.loc 1 392 0 discriminator 3
 2680 022a FB7E     		ldrb	r3, [r7, #27]	@ zero_extendqisi2
 2681 022c 0133     		adds	r3, r3, #1
 2682 022e FB76     		strb	r3, [r7, #27]
 2683              	.L145:
 392:printer.c     **** 	for(uint8 x = 0; x < 22; x ++){
 2684              		.loc 1 392 0 is_stmt 0 discriminator 1
 2685 0230 FB7E     		ldrb	r3, [r7, #27]	@ zero_extendqisi2
 2686 0232 152B     		cmp	r3, #21
 2687 0234 F3D9     		bls	.L146
 2688              	.LBE63:
 394:printer.c     **** 	}
 395:printer.c     **** 	UART_3_PutChar(LINE_FEED);
 2689              		.loc 1 395 0 is_stmt 1
 2690 0236 2A4B     		ldr	r3, .L201+32
 2691 0238 1B78     		ldrb	r3, [r3]	@ zero_extendqisi2
 2692 023a 1846     		mov	r0, r3
 2693 023c FFF7FEFF 		bl	UART_3_PutChar
 2694              	.LBB64:
 396:printer.c     **** 	for(uint8 x = 0; x < 22; x ++){
 2695              		.loc 1 396 0
 2696 0240 0023     		movs	r3, #0
 2697 0242 BB76     		strb	r3, [r7, #26]
 2698 0244 08E0     		b	.L147
 2699              	.L148:
 397:printer.c     **** 		UART_3_PutChar(msn_EDS3[x]);
 2700              		.loc 1 397 0 discriminator 3
 2701 0246 BB7E     		ldrb	r3, [r7, #26]	@ zero_extendqisi2
 2702 0248 284A     		ldr	r2, .L201+44
 2703 024a D35C     		ldrb	r3, [r2, r3]	@ zero_extendqisi2
 2704 024c 1846     		mov	r0, r3
 2705 024e FFF7FEFF 		bl	UART_3_PutChar
 396:printer.c     **** 	for(uint8 x = 0; x < 22; x ++){
 2706              		.loc 1 396 0 discriminator 3
 2707 0252 BB7E     		ldrb	r3, [r7, #26]	@ zero_extendqisi2
 2708 0254 0133     		adds	r3, r3, #1
 2709 0256 BB76     		strb	r3, [r7, #26]
 2710              	.L147:
ARM GAS  C:\Users\Lenovo\AppData\Local\Temp\ccHD7LbD.s 			page 60


 396:printer.c     **** 	for(uint8 x = 0; x < 22; x ++){
 2711              		.loc 1 396 0 is_stmt 0 discriminator 1
 2712 0258 BB7E     		ldrb	r3, [r7, #26]	@ zero_extendqisi2
 2713 025a 152B     		cmp	r3, #21
 2714 025c F3D9     		bls	.L148
 2715              	.LBE64:
 398:printer.c     **** 	}
 399:printer.c     **** 	UART_3_PutChar(LINE_FEED);
 2716              		.loc 1 399 0 is_stmt 1
 2717 025e 204B     		ldr	r3, .L201+32
 2718 0260 1B78     		ldrb	r3, [r3]	@ zero_extendqisi2
 2719 0262 1846     		mov	r0, r3
 2720 0264 FFF7FEFF 		bl	UART_3_PutChar
 2721              	.LBB65:
 400:printer.c     **** 	for(uint8 x = 0; x < 22; x ++){
 2722              		.loc 1 400 0
 2723 0268 0023     		movs	r3, #0
 2724 026a 7B76     		strb	r3, [r7, #25]
 2725 026c 08E0     		b	.L149
 2726              	.L150:
 401:printer.c     **** 		UART_3_PutChar(msn_EDS4[x]);
 2727              		.loc 1 401 0 discriminator 3
 2728 026e 7B7E     		ldrb	r3, [r7, #25]	@ zero_extendqisi2
 2729 0270 1F4A     		ldr	r2, .L201+48
 2730 0272 D35C     		ldrb	r3, [r2, r3]	@ zero_extendqisi2
 2731 0274 1846     		mov	r0, r3
 2732 0276 FFF7FEFF 		bl	UART_3_PutChar
 400:printer.c     **** 	for(uint8 x = 0; x < 22; x ++){
 2733              		.loc 1 400 0 discriminator 3
 2734 027a 7B7E     		ldrb	r3, [r7, #25]	@ zero_extendqisi2
 2735 027c 0133     		adds	r3, r3, #1
 2736 027e 7B76     		strb	r3, [r7, #25]
 2737              	.L149:
 400:printer.c     **** 	for(uint8 x = 0; x < 22; x ++){
 2738              		.loc 1 400 0 is_stmt 0 discriminator 1
 2739 0280 7B7E     		ldrb	r3, [r7, #25]	@ zero_extendqisi2
 2740 0282 152B     		cmp	r3, #21
 2741 0284 F3D9     		bls	.L150
 2742              	.LBE65:
 402:printer.c     **** 	}
 403:printer.c     **** 	UART_3_PutChar(LINE_FEED);  
 2743              		.loc 1 403 0 is_stmt 1
 2744 0286 164B     		ldr	r3, .L201+32
 2745 0288 1B78     		ldrb	r3, [r3]	@ zero_extendqisi2
 2746 028a 1846     		mov	r0, r3
 2747 028c FFF7FEFF 		bl	UART_3_PutChar
 2748              	.LBB66:
 404:printer.c     **** 	for(uint8 x = 0; x < 24; x ++){
 2749              		.loc 1 404 0
 2750 0290 0023     		movs	r3, #0
 2751 0292 3B76     		strb	r3, [r7, #24]
 2752 0294 08E0     		b	.L151
 2753              	.L152:
 405:printer.c     **** 		UART_3_PutChar(SEPARATOR[x]); //Separador de seccin
 2754              		.loc 1 405 0 discriminator 3
 2755 0296 3B7E     		ldrb	r3, [r7, #24]	@ zero_extendqisi2
 2756 0298 164A     		ldr	r2, .L201+52
ARM GAS  C:\Users\Lenovo\AppData\Local\Temp\ccHD7LbD.s 			page 61


 2757 029a D35C     		ldrb	r3, [r2, r3]	@ zero_extendqisi2
 2758 029c 1846     		mov	r0, r3
 2759 029e FFF7FEFF 		bl	UART_3_PutChar
 404:printer.c     **** 	for(uint8 x = 0; x < 24; x ++){
 2760              		.loc 1 404 0 discriminator 3
 2761 02a2 3B7E     		ldrb	r3, [r7, #24]	@ zero_extendqisi2
 2762 02a4 0133     		adds	r3, r3, #1
 2763 02a6 3B76     		strb	r3, [r7, #24]
 2764              	.L151:
 404:printer.c     **** 	for(uint8 x = 0; x < 24; x ++){
 2765              		.loc 1 404 0 is_stmt 0 discriminator 1
 2766 02a8 3B7E     		ldrb	r3, [r7, #24]	@ zero_extendqisi2
 2767 02aa 172B     		cmp	r3, #23
 2768 02ac F3D9     		bls	.L152
 2769              	.LBE66:
 406:printer.c     **** 	}
 407:printer.c     **** 	UART_3_PutChar(LINE_FEED);
 2770              		.loc 1 407 0 is_stmt 1
 2771 02ae 0C4B     		ldr	r3, .L201+32
 2772 02b0 1B78     		ldrb	r3, [r3]	@ zero_extendqisi2
 2773 02b2 1846     		mov	r0, r3
 2774 02b4 FFF7FEFF 		bl	UART_3_PutChar
 2775              	.LBB67:
 408:printer.c     ****     /********** FECHA ***************/
 409:printer.c     **** 	for(uint8 x = 0; x < 13; x ++){
 2776              		.loc 1 409 0
 2777 02b8 0023     		movs	r3, #0
 2778 02ba FB75     		strb	r3, [r7, #23]
 2779 02bc 25E0     		b	.L153
 2780              	.L202:
 2781 02be 00BF     		.align	2
 2782              	.L201:
 2783 02c0 00000000 		.word	ASK_TIME
 2784 02c4 00000000 		.word	touch1
 2785 02c8 00000000 		.word	int_shiftnumber
 2786 02cc AD8BDB68 		.word	1759218605
 2787 02d0 00000000 		.word	shift_number
 2788 02d4 D34D6210 		.word	274877907
 2789 02d8 1F85EB51 		.word	1374389535
 2790 02dc 67666666 		.word	1717986919
 2791 02e0 00000000 		.word	LINE_FEED
 2792 02e4 00000000 		.word	msn_EDS
 2793 02e8 00000000 		.word	msn_EDS2
 2794 02ec 00000000 		.word	msn_EDS3
 2795 02f0 00000000 		.word	msn_EDS4
 2796 02f4 00000000 		.word	SEPARATOR
 2797              	.L154:
 410:printer.c     **** 		UART_3_PutChar(msn_fecha[x]);
 2798              		.loc 1 410 0 discriminator 3
 2799 02f8 FB7D     		ldrb	r3, [r7, #23]	@ zero_extendqisi2
 2800 02fa A44A     		ldr	r2, .L203
 2801 02fc D35C     		ldrb	r3, [r2, r3]	@ zero_extendqisi2
 2802 02fe 1846     		mov	r0, r3
 2803 0300 FFF7FEFF 		bl	UART_3_PutChar
 409:printer.c     **** 		UART_3_PutChar(msn_fecha[x]);
 2804              		.loc 1 409 0 discriminator 3
 2805 0304 FB7D     		ldrb	r3, [r7, #23]	@ zero_extendqisi2
ARM GAS  C:\Users\Lenovo\AppData\Local\Temp\ccHD7LbD.s 			page 62


 2806 0306 0133     		adds	r3, r3, #1
 2807 0308 FB75     		strb	r3, [r7, #23]
 2808              	.L153:
 409:printer.c     **** 		UART_3_PutChar(msn_fecha[x]);
 2809              		.loc 1 409 0 is_stmt 0 discriminator 1
 2810 030a FB7D     		ldrb	r3, [r7, #23]	@ zero_extendqisi2
 2811 030c 0C2B     		cmp	r3, #12
 2812 030e F3D9     		bls	.L154
 2813              	.LBE67:
 411:printer.c     **** 	}
 412:printer.c     ****     UART_3_PutChar(((touch1[6] >> 4) + 0x30));
 2814              		.loc 1 412 0 is_stmt 1
 2815 0310 9F4B     		ldr	r3, .L203+4
 2816 0312 9B79     		ldrb	r3, [r3, #6]	@ zero_extendqisi2
 2817 0314 1B09     		lsrs	r3, r3, #4
 2818 0316 DBB2     		uxtb	r3, r3
 2819 0318 3033     		adds	r3, r3, #48
 2820 031a DBB2     		uxtb	r3, r3
 2821 031c 1846     		mov	r0, r3
 2822 031e FFF7FEFF 		bl	UART_3_PutChar
 413:printer.c     ****     UART_3_PutChar(((touch1[6] & 0x0F) + 0x30));
 2823              		.loc 1 413 0
 2824 0322 9B4B     		ldr	r3, .L203+4
 2825 0324 9B79     		ldrb	r3, [r3, #6]	@ zero_extendqisi2
 2826 0326 03F00F03 		and	r3, r3, #15
 2827 032a DBB2     		uxtb	r3, r3
 2828 032c 3033     		adds	r3, r3, #48
 2829 032e DBB2     		uxtb	r3, r3
 2830 0330 1846     		mov	r0, r3
 2831 0332 FFF7FEFF 		bl	UART_3_PutChar
 414:printer.c     ****     UART_3_PutChar('/');
 2832              		.loc 1 414 0
 2833 0336 2F20     		movs	r0, #47
 2834 0338 FFF7FEFF 		bl	UART_3_PutChar
 415:printer.c     ****     UART_3_PutChar(((touch1[7] >> 4) + 0x30)) ;
 2835              		.loc 1 415 0
 2836 033c 944B     		ldr	r3, .L203+4
 2837 033e DB79     		ldrb	r3, [r3, #7]	@ zero_extendqisi2
 2838 0340 1B09     		lsrs	r3, r3, #4
 2839 0342 DBB2     		uxtb	r3, r3
 2840 0344 3033     		adds	r3, r3, #48
 2841 0346 DBB2     		uxtb	r3, r3
 2842 0348 1846     		mov	r0, r3
 2843 034a FFF7FEFF 		bl	UART_3_PutChar
 416:printer.c     ****     UART_3_PutChar(((touch1[7] & 0x0F) + 0x30));
 2844              		.loc 1 416 0
 2845 034e 904B     		ldr	r3, .L203+4
 2846 0350 DB79     		ldrb	r3, [r3, #7]	@ zero_extendqisi2
 2847 0352 03F00F03 		and	r3, r3, #15
 2848 0356 DBB2     		uxtb	r3, r3
 2849 0358 3033     		adds	r3, r3, #48
 2850 035a DBB2     		uxtb	r3, r3
 2851 035c 1846     		mov	r0, r3
 2852 035e FFF7FEFF 		bl	UART_3_PutChar
 417:printer.c     ****     UART_3_PutChar('/');
 2853              		.loc 1 417 0
 2854 0362 2F20     		movs	r0, #47
ARM GAS  C:\Users\Lenovo\AppData\Local\Temp\ccHD7LbD.s 			page 63


 2855 0364 FFF7FEFF 		bl	UART_3_PutChar
 418:printer.c     ****     UART_3_PutChar(((touch1[8] >> 4) + 0x30)) ;
 2856              		.loc 1 418 0
 2857 0368 894B     		ldr	r3, .L203+4
 2858 036a 1B7A     		ldrb	r3, [r3, #8]	@ zero_extendqisi2
 2859 036c 1B09     		lsrs	r3, r3, #4
 2860 036e DBB2     		uxtb	r3, r3
 2861 0370 3033     		adds	r3, r3, #48
 2862 0372 DBB2     		uxtb	r3, r3
 2863 0374 1846     		mov	r0, r3
 2864 0376 FFF7FEFF 		bl	UART_3_PutChar
 419:printer.c     **** 	UART_3_PutChar(((touch1[8] & 0x0F) + 0x30));
 2865              		.loc 1 419 0
 2866 037a 854B     		ldr	r3, .L203+4
 2867 037c 1B7A     		ldrb	r3, [r3, #8]	@ zero_extendqisi2
 2868 037e 03F00F03 		and	r3, r3, #15
 2869 0382 DBB2     		uxtb	r3, r3
 2870 0384 3033     		adds	r3, r3, #48
 2871 0386 DBB2     		uxtb	r3, r3
 2872 0388 1846     		mov	r0, r3
 2873 038a FFF7FEFF 		bl	UART_3_PutChar
 420:printer.c     **** 
 421:printer.c     **** 	UART_3_PutChar(LINE_FEED);
 2874              		.loc 1 421 0
 2875 038e 814B     		ldr	r3, .L203+8
 2876 0390 1B78     		ldrb	r3, [r3]	@ zero_extendqisi2
 2877 0392 1846     		mov	r0, r3
 2878 0394 FFF7FEFF 		bl	UART_3_PutChar
 2879              	.LBB68:
 422:printer.c     ****     /********** HORA ***************/
 423:printer.c     **** 	for(uint8 x = 0; x < 13; x ++){
 2880              		.loc 1 423 0
 2881 0398 0023     		movs	r3, #0
 2882 039a BB75     		strb	r3, [r7, #22]
 2883 039c 08E0     		b	.L155
 2884              	.L156:
 424:printer.c     **** 		UART_3_PutChar(msn_hora[x]);
 2885              		.loc 1 424 0 discriminator 3
 2886 039e BB7D     		ldrb	r3, [r7, #22]	@ zero_extendqisi2
 2887 03a0 7D4A     		ldr	r2, .L203+12
 2888 03a2 D35C     		ldrb	r3, [r2, r3]	@ zero_extendqisi2
 2889 03a4 1846     		mov	r0, r3
 2890 03a6 FFF7FEFF 		bl	UART_3_PutChar
 423:printer.c     **** 		UART_3_PutChar(msn_hora[x]);
 2891              		.loc 1 423 0 discriminator 3
 2892 03aa BB7D     		ldrb	r3, [r7, #22]	@ zero_extendqisi2
 2893 03ac 0133     		adds	r3, r3, #1
 2894 03ae BB75     		strb	r3, [r7, #22]
 2895              	.L155:
 423:printer.c     **** 		UART_3_PutChar(msn_hora[x]);
 2896              		.loc 1 423 0 is_stmt 0 discriminator 1
 2897 03b0 BB7D     		ldrb	r3, [r7, #22]	@ zero_extendqisi2
 2898 03b2 0C2B     		cmp	r3, #12
 2899 03b4 F3D9     		bls	.L156
 2900              	.LBE68:
 425:printer.c     **** 	}
 426:printer.c     ****     UART_3_PutChar(((touch1[10] >> 4) + 0x30)) ;
ARM GAS  C:\Users\Lenovo\AppData\Local\Temp\ccHD7LbD.s 			page 64


 2901              		.loc 1 426 0 is_stmt 1
 2902 03b6 764B     		ldr	r3, .L203+4
 2903 03b8 9B7A     		ldrb	r3, [r3, #10]	@ zero_extendqisi2
 2904 03ba 1B09     		lsrs	r3, r3, #4
 2905 03bc DBB2     		uxtb	r3, r3
 2906 03be 3033     		adds	r3, r3, #48
 2907 03c0 DBB2     		uxtb	r3, r3
 2908 03c2 1846     		mov	r0, r3
 2909 03c4 FFF7FEFF 		bl	UART_3_PutChar
 427:printer.c     ****     UART_3_PutChar(((touch1[10] & 0x0F) + 0x30));
 2910              		.loc 1 427 0
 2911 03c8 714B     		ldr	r3, .L203+4
 2912 03ca 9B7A     		ldrb	r3, [r3, #10]	@ zero_extendqisi2
 2913 03cc 03F00F03 		and	r3, r3, #15
 2914 03d0 DBB2     		uxtb	r3, r3
 2915 03d2 3033     		adds	r3, r3, #48
 2916 03d4 DBB2     		uxtb	r3, r3
 2917 03d6 1846     		mov	r0, r3
 2918 03d8 FFF7FEFF 		bl	UART_3_PutChar
 428:printer.c     ****     UART_3_PutChar(':');
 2919              		.loc 1 428 0
 2920 03dc 3A20     		movs	r0, #58
 2921 03de FFF7FEFF 		bl	UART_3_PutChar
 429:printer.c     ****     UART_3_PutChar(((touch1[11] >> 4) + 0x30)) ;
 2922              		.loc 1 429 0
 2923 03e2 6B4B     		ldr	r3, .L203+4
 2924 03e4 DB7A     		ldrb	r3, [r3, #11]	@ zero_extendqisi2
 2925 03e6 1B09     		lsrs	r3, r3, #4
 2926 03e8 DBB2     		uxtb	r3, r3
 2927 03ea 3033     		adds	r3, r3, #48
 2928 03ec DBB2     		uxtb	r3, r3
 2929 03ee 1846     		mov	r0, r3
 2930 03f0 FFF7FEFF 		bl	UART_3_PutChar
 430:printer.c     ****     UART_3_PutChar(((touch1[11] & 0x0F) + 0x30));
 2931              		.loc 1 430 0
 2932 03f4 664B     		ldr	r3, .L203+4
 2933 03f6 DB7A     		ldrb	r3, [r3, #11]	@ zero_extendqisi2
 2934 03f8 03F00F03 		and	r3, r3, #15
 2935 03fc DBB2     		uxtb	r3, r3
 2936 03fe 3033     		adds	r3, r3, #48
 2937 0400 DBB2     		uxtb	r3, r3
 2938 0402 1846     		mov	r0, r3
 2939 0404 FFF7FEFF 		bl	UART_3_PutChar
 431:printer.c     ****     UART_3_PutChar(':');
 2940              		.loc 1 431 0
 2941 0408 3A20     		movs	r0, #58
 2942 040a FFF7FEFF 		bl	UART_3_PutChar
 432:printer.c     ****     UART_3_PutChar(((touch1[12] >> 4) + 0x30));
 2943              		.loc 1 432 0
 2944 040e 604B     		ldr	r3, .L203+4
 2945 0410 1B7B     		ldrb	r3, [r3, #12]	@ zero_extendqisi2
 2946 0412 1B09     		lsrs	r3, r3, #4
 2947 0414 DBB2     		uxtb	r3, r3
 2948 0416 3033     		adds	r3, r3, #48
 2949 0418 DBB2     		uxtb	r3, r3
 2950 041a 1846     		mov	r0, r3
 2951 041c FFF7FEFF 		bl	UART_3_PutChar
ARM GAS  C:\Users\Lenovo\AppData\Local\Temp\ccHD7LbD.s 			page 65


 433:printer.c     **** 	UART_3_PutChar(((touch1[12] & 0x0F) + 0x30));
 2952              		.loc 1 433 0
 2953 0420 5B4B     		ldr	r3, .L203+4
 2954 0422 1B7B     		ldrb	r3, [r3, #12]	@ zero_extendqisi2
 2955 0424 03F00F03 		and	r3, r3, #15
 2956 0428 DBB2     		uxtb	r3, r3
 2957 042a 3033     		adds	r3, r3, #48
 2958 042c DBB2     		uxtb	r3, r3
 2959 042e 1846     		mov	r0, r3
 2960 0430 FFF7FEFF 		bl	UART_3_PutChar
 434:printer.c     ****     UART_3_PutChar(LINE_FEED);
 2961              		.loc 1 434 0
 2962 0434 574B     		ldr	r3, .L203+8
 2963 0436 1B78     		ldrb	r3, [r3]	@ zero_extendqisi2
 2964 0438 1846     		mov	r0, r3
 2965 043a FFF7FEFF 		bl	UART_3_PutChar
 2966              	.LBB69:
 435:printer.c     ****     for(uint8 x = 0; x < 24; x ++){
 2967              		.loc 1 435 0
 2968 043e 0023     		movs	r3, #0
 2969 0440 7B75     		strb	r3, [r7, #21]
 2970 0442 08E0     		b	.L157
 2971              	.L158:
 436:printer.c     **** 		UART_3_PutChar(SEPARATOR[x]);
 2972              		.loc 1 436 0 discriminator 3
 2973 0444 7B7D     		ldrb	r3, [r7, #21]	@ zero_extendqisi2
 2974 0446 554A     		ldr	r2, .L203+16
 2975 0448 D35C     		ldrb	r3, [r2, r3]	@ zero_extendqisi2
 2976 044a 1846     		mov	r0, r3
 2977 044c FFF7FEFF 		bl	UART_3_PutChar
 435:printer.c     ****     for(uint8 x = 0; x < 24; x ++){
 2978              		.loc 1 435 0 discriminator 3
 2979 0450 7B7D     		ldrb	r3, [r7, #21]	@ zero_extendqisi2
 2980 0452 0133     		adds	r3, r3, #1
 2981 0454 7B75     		strb	r3, [r7, #21]
 2982              	.L157:
 435:printer.c     ****     for(uint8 x = 0; x < 24; x ++){
 2983              		.loc 1 435 0 is_stmt 0 discriminator 1
 2984 0456 7B7D     		ldrb	r3, [r7, #21]	@ zero_extendqisi2
 2985 0458 172B     		cmp	r3, #23
 2986 045a F3D9     		bls	.L158
 2987              	.LBE69:
 437:printer.c     **** 	}
 438:printer.c     ****     UART_3_PutChar(LINE_FEED); 
 2988              		.loc 1 438 0 is_stmt 1
 2989 045c 4D4B     		ldr	r3, .L203+8
 2990 045e 1B78     		ldrb	r3, [r3]	@ zero_extendqisi2
 2991 0460 1846     		mov	r0, r3
 2992 0462 FFF7FEFF 		bl	UART_3_PutChar
 2993              	.LBB70:
 439:printer.c     **** 	for(uint8 x = 0; x < 13; x ++){
 2994              		.loc 1 439 0
 2995 0466 0023     		movs	r3, #0
 2996 0468 3B75     		strb	r3, [r7, #20]
 2997 046a 08E0     		b	.L159
 2998              	.L160:
 440:printer.c     **** 		UART_3_PutChar(msn_cierre[x]);
ARM GAS  C:\Users\Lenovo\AppData\Local\Temp\ccHD7LbD.s 			page 66


 2999              		.loc 1 440 0 discriminator 3
 3000 046c 3B7D     		ldrb	r3, [r7, #20]	@ zero_extendqisi2
 3001 046e 4C4A     		ldr	r2, .L203+20
 3002 0470 D35C     		ldrb	r3, [r2, r3]	@ zero_extendqisi2
 3003 0472 1846     		mov	r0, r3
 3004 0474 FFF7FEFF 		bl	UART_3_PutChar
 439:printer.c     **** 	for(uint8 x = 0; x < 13; x ++){
 3005              		.loc 1 439 0 discriminator 3
 3006 0478 3B7D     		ldrb	r3, [r7, #20]	@ zero_extendqisi2
 3007 047a 0133     		adds	r3, r3, #1
 3008 047c 3B75     		strb	r3, [r7, #20]
 3009              	.L159:
 439:printer.c     **** 	for(uint8 x = 0; x < 13; x ++){
 3010              		.loc 1 439 0 is_stmt 0 discriminator 1
 3011 047e 3B7D     		ldrb	r3, [r7, #20]	@ zero_extendqisi2
 3012 0480 0C2B     		cmp	r3, #12
 3013 0482 F3D9     		bls	.L160
 3014              	.LBE70:
 3015              	.LBB71:
 441:printer.c     **** 	}     
 442:printer.c     **** 	for(uint8 x = 5; x > 0; x --){
 3016              		.loc 1 442 0 is_stmt 1
 3017 0484 0523     		movs	r3, #5
 3018 0486 FB74     		strb	r3, [r7, #19]
 3019 0488 08E0     		b	.L161
 3020              	.L162:
 443:printer.c     **** 		UART_3_PutChar(shift_number[x]);
 3021              		.loc 1 443 0 discriminator 3
 3022 048a FB7C     		ldrb	r3, [r7, #19]	@ zero_extendqisi2
 3023 048c 454A     		ldr	r2, .L203+24
 3024 048e D35C     		ldrb	r3, [r2, r3]	@ zero_extendqisi2
 3025 0490 1846     		mov	r0, r3
 3026 0492 FFF7FEFF 		bl	UART_3_PutChar
 442:printer.c     **** 		UART_3_PutChar(shift_number[x]);
 3027              		.loc 1 442 0 discriminator 3
 3028 0496 FB7C     		ldrb	r3, [r7, #19]	@ zero_extendqisi2
 3029 0498 013B     		subs	r3, r3, #1
 3030 049a FB74     		strb	r3, [r7, #19]
 3031              	.L161:
 442:printer.c     **** 		UART_3_PutChar(shift_number[x]);
 3032              		.loc 1 442 0 is_stmt 0 discriminator 1
 3033 049c FB7C     		ldrb	r3, [r7, #19]	@ zero_extendqisi2
 3034 049e 002B     		cmp	r3, #0
 3035 04a0 F3D1     		bne	.L162
 3036              	.LBE71:
 444:printer.c     **** 	}
 445:printer.c     **** 	UART_3_PutChar(LINE_FEED);
 3037              		.loc 1 445 0 is_stmt 1
 3038 04a2 3C4B     		ldr	r3, .L203+8
 3039 04a4 1B78     		ldrb	r3, [r3]	@ zero_extendqisi2
 3040 04a6 1846     		mov	r0, r3
 3041 04a8 FFF7FEFF 		bl	UART_3_PutChar
 3042              	.LBB72:
 446:printer.c     ****     for(uint8 x = 0; x < 13; x ++){
 3043              		.loc 1 446 0
 3044 04ac 0023     		movs	r3, #0
 3045 04ae BB74     		strb	r3, [r7, #18]
ARM GAS  C:\Users\Lenovo\AppData\Local\Temp\ccHD7LbD.s 			page 67


 3046 04b0 08E0     		b	.L163
 3047              	.L164:
 447:printer.c     ****         UART_3_PutChar(msn_pos[x]);
 3048              		.loc 1 447 0 discriminator 3
 3049 04b2 BB7C     		ldrb	r3, [r7, #18]	@ zero_extendqisi2
 3050 04b4 3C4A     		ldr	r2, .L203+28
 3051 04b6 D35C     		ldrb	r3, [r2, r3]	@ zero_extendqisi2
 3052 04b8 1846     		mov	r0, r3
 3053 04ba FFF7FEFF 		bl	UART_3_PutChar
 446:printer.c     ****     for(uint8 x = 0; x < 13; x ++){
 3054              		.loc 1 446 0 discriminator 3
 3055 04be BB7C     		ldrb	r3, [r7, #18]	@ zero_extendqisi2
 3056 04c0 0133     		adds	r3, r3, #1
 3057 04c2 BB74     		strb	r3, [r7, #18]
 3058              	.L163:
 446:printer.c     ****     for(uint8 x = 0; x < 13; x ++){
 3059              		.loc 1 446 0 is_stmt 0 discriminator 1
 3060 04c4 BB7C     		ldrb	r3, [r7, #18]	@ zero_extendqisi2
 3061 04c6 0C2B     		cmp	r3, #12
 3062 04c8 F3D9     		bls	.L164
 3063              	.LBE72:
 448:printer.c     ****     }
 449:printer.c     ****     UART_3_PutChar(side.a.dir + 0x30);
 3064              		.loc 1 449 0 is_stmt 1
 3065 04ca 384B     		ldr	r3, .L203+32
 3066 04cc 1B78     		ldrb	r3, [r3]	@ zero_extendqisi2
 3067 04ce 3033     		adds	r3, r3, #48
 3068 04d0 DBB2     		uxtb	r3, r3
 3069 04d2 1846     		mov	r0, r3
 3070 04d4 FFF7FEFF 		bl	UART_3_PutChar
 450:printer.c     ****     UART_3_PutChar(LINE_FEED);
 3071              		.loc 1 450 0
 3072 04d8 2E4B     		ldr	r3, .L203+8
 3073 04da 1B78     		ldrb	r3, [r3]	@ zero_extendqisi2
 3074 04dc 1846     		mov	r0, r3
 3075 04de FFF7FEFF 		bl	UART_3_PutChar
 3076              	.LBB73:
 451:printer.c     **** 	for(uint8 x = 0; x < 16; x ++){
 3077              		.loc 1 451 0
 3078 04e2 0023     		movs	r3, #0
 3079 04e4 7B74     		strb	r3, [r7, #17]
 3080 04e6 08E0     		b	.L165
 3081              	.L166:
 452:printer.c     **** 		UART_3_PutChar(msn_lecact[x]);
 3082              		.loc 1 452 0 discriminator 3
 3083 04e8 7B7C     		ldrb	r3, [r7, #17]	@ zero_extendqisi2
 3084 04ea 314A     		ldr	r2, .L203+36
 3085 04ec D35C     		ldrb	r3, [r2, r3]	@ zero_extendqisi2
 3086 04ee 1846     		mov	r0, r3
 3087 04f0 FFF7FEFF 		bl	UART_3_PutChar
 451:printer.c     **** 	for(uint8 x = 0; x < 16; x ++){
 3088              		.loc 1 451 0 discriminator 3
 3089 04f4 7B7C     		ldrb	r3, [r7, #17]	@ zero_extendqisi2
 3090 04f6 0133     		adds	r3, r3, #1
 3091 04f8 7B74     		strb	r3, [r7, #17]
 3092              	.L165:
 451:printer.c     **** 	for(uint8 x = 0; x < 16; x ++){
ARM GAS  C:\Users\Lenovo\AppData\Local\Temp\ccHD7LbD.s 			page 68


 3093              		.loc 1 451 0 is_stmt 0 discriminator 1
 3094 04fa 7B7C     		ldrb	r3, [r7, #17]	@ zero_extendqisi2
 3095 04fc 0F2B     		cmp	r3, #15
 3096 04fe F3D9     		bls	.L166
 3097              	.LBE73:
 453:printer.c     **** 	}
 454:printer.c     **** 	UART_3_PutChar(LINE_FEED);	
 3098              		.loc 1 454 0 is_stmt 1
 3099 0500 244B     		ldr	r3, .L203+8
 3100 0502 1B78     		ldrb	r3, [r3]	@ zero_extendqisi2
 3101 0504 1846     		mov	r0, r3
 3102 0506 FFF7FEFF 		bl	UART_3_PutChar
 3103              	.LBB74:
 455:printer.c     ****                           
 456:printer.c     ****     for(uint8 x = 0; x < 10; x ++){ 
 3104              		.loc 1 456 0
 3105 050a 0023     		movs	r3, #0
 3106 050c 3B74     		strb	r3, [r7, #16]
 3107 050e 14E0     		b	.L167
 3108              	.L169:
 457:printer.c     ****         if((10-x) == DecVol)
 3109              		.loc 1 457 0
 3110 0510 3B7C     		ldrb	r3, [r7, #16]	@ zero_extendqisi2
 3111 0512 C3F10A03 		rsb	r3, r3, #10
 3112 0516 274A     		ldr	r2, .L203+40
 3113 0518 1278     		ldrb	r2, [r2]	@ zero_extendqisi2
 3114 051a 9342     		cmp	r3, r2
 3115 051c 02D1     		bne	.L168
 458:printer.c     ****             UART_3_PutChar('.');
 3116              		.loc 1 458 0
 3117 051e 2E20     		movs	r0, #46
 3118 0520 FFF7FEFF 		bl	UART_3_PutChar
 3119              	.L168:
 459:printer.c     ****         UART_3_PutChar(side.a.ProcessedTotals[0][0][x]);
 3120              		.loc 1 459 0 discriminator 2
 3121 0524 3B7C     		ldrb	r3, [r7, #16]	@ zero_extendqisi2
 3122 0526 214A     		ldr	r2, .L203+32
 3123 0528 1344     		add	r3, r3, r2
 3124 052a 93F88330 		ldrb	r3, [r3, #131]	@ zero_extendqisi2
 3125 052e 1846     		mov	r0, r3
 3126 0530 FFF7FEFF 		bl	UART_3_PutChar
 456:printer.c     ****         if((10-x) == DecVol)
 3127              		.loc 1 456 0 discriminator 2
 3128 0534 3B7C     		ldrb	r3, [r7, #16]	@ zero_extendqisi2
 3129 0536 0133     		adds	r3, r3, #1
 3130 0538 3B74     		strb	r3, [r7, #16]
 3131              	.L167:
 456:printer.c     ****         if((10-x) == DecVol)
 3132              		.loc 1 456 0 is_stmt 0 discriminator 1
 3133 053a 3B7C     		ldrb	r3, [r7, #16]	@ zero_extendqisi2
 3134 053c 092B     		cmp	r3, #9
 3135 053e E7D9     		bls	.L169
 3136              	.LBE74:
 460:printer.c     ****     }
 461:printer.c     ****     UART_3_PutChar(LINE_FEED);
 3137              		.loc 1 461 0 is_stmt 1
 3138 0540 144B     		ldr	r3, .L203+8
ARM GAS  C:\Users\Lenovo\AppData\Local\Temp\ccHD7LbD.s 			page 69


 3139 0542 1B78     		ldrb	r3, [r3]	@ zero_extendqisi2
 3140 0544 1846     		mov	r0, r3
 3141 0546 FFF7FEFF 		bl	UART_3_PutChar
 3142              	.LBB75:
 462:printer.c     **** 	for(uint8 x = 0; x < 16; x ++){
 3143              		.loc 1 462 0
 3144 054a 0023     		movs	r3, #0
 3145 054c FB73     		strb	r3, [r7, #15]
 3146 054e 08E0     		b	.L170
 3147              	.L171:
 463:printer.c     **** 		UART_3_PutChar(msn_lecaan[x]);
 3148              		.loc 1 463 0 discriminator 3
 3149 0550 FB7B     		ldrb	r3, [r7, #15]	@ zero_extendqisi2
 3150 0552 194A     		ldr	r2, .L203+44
 3151 0554 D35C     		ldrb	r3, [r2, r3]	@ zero_extendqisi2
 3152 0556 1846     		mov	r0, r3
 3153 0558 FFF7FEFF 		bl	UART_3_PutChar
 462:printer.c     **** 	for(uint8 x = 0; x < 16; x ++){
 3154              		.loc 1 462 0 discriminator 3
 3155 055c FB7B     		ldrb	r3, [r7, #15]	@ zero_extendqisi2
 3156 055e 0133     		adds	r3, r3, #1
 3157 0560 FB73     		strb	r3, [r7, #15]
 3158              	.L170:
 462:printer.c     **** 	for(uint8 x = 0; x < 16; x ++){
 3159              		.loc 1 462 0 is_stmt 0 discriminator 1
 3160 0562 FB7B     		ldrb	r3, [r7, #15]	@ zero_extendqisi2
 3161 0564 0F2B     		cmp	r3, #15
 3162 0566 F3D9     		bls	.L171
 3163              	.LBE75:
 3164              	.LBB76:
 464:printer.c     **** 	}
 465:printer.c     ****     
 466:printer.c     ****     for(uint8 x = 0; x < 24; x ++){
 3165              		.loc 1 466 0 is_stmt 1
 3166 0568 0023     		movs	r3, #0
 3167 056a BB73     		strb	r3, [r7, #14]
 3168 056c 08E0     		b	.L172
 3169              	.L173:
 467:printer.c     ****         UART_3_PutChar(SEPARATOR[x]);
 3170              		.loc 1 467 0 discriminator 3
 3171 056e BB7B     		ldrb	r3, [r7, #14]	@ zero_extendqisi2
 3172 0570 0A4A     		ldr	r2, .L203+16
 3173 0572 D35C     		ldrb	r3, [r2, r3]	@ zero_extendqisi2
 3174 0574 1846     		mov	r0, r3
 3175 0576 FFF7FEFF 		bl	UART_3_PutChar
 466:printer.c     ****         UART_3_PutChar(SEPARATOR[x]);
 3176              		.loc 1 466 0 discriminator 3
 3177 057a BB7B     		ldrb	r3, [r7, #14]	@ zero_extendqisi2
 3178 057c 0133     		adds	r3, r3, #1
 3179 057e BB73     		strb	r3, [r7, #14]
 3180              	.L172:
 466:printer.c     ****         UART_3_PutChar(SEPARATOR[x]);
 3181              		.loc 1 466 0 is_stmt 0 discriminator 1
 3182 0580 BB7B     		ldrb	r3, [r7, #14]	@ zero_extendqisi2
 3183 0582 172B     		cmp	r3, #23
 3184 0584 F3D9     		bls	.L173
 3185              	.LBE76:
ARM GAS  C:\Users\Lenovo\AppData\Local\Temp\ccHD7LbD.s 			page 70


 3186              	.LBB77:
 468:printer.c     ****     }            
 469:printer.c     **** 
 470:printer.c     ****                        
 471:printer.c     ****     for(uint8 x = 0; x < 10; x ++){ 
 3187              		.loc 1 471 0 is_stmt 1
 3188 0586 0023     		movs	r3, #0
 3189 0588 7B73     		strb	r3, [r7, #13]
 3190 058a 2CE0     		b	.L174
 3191              	.L204:
 3192              		.align	2
 3193              	.L203:
 3194 058c 00000000 		.word	msn_fecha
 3195 0590 00000000 		.word	touch1
 3196 0594 00000000 		.word	LINE_FEED
 3197 0598 00000000 		.word	msn_hora
 3198 059c 00000000 		.word	SEPARATOR
 3199 05a0 00000000 		.word	msn_cierre
 3200 05a4 00000000 		.word	shift_number
 3201 05a8 00000000 		.word	msn_pos
 3202 05ac 00000000 		.word	side
 3203 05b0 00000000 		.word	msn_lecact
 3204 05b4 00000000 		.word	DecVol
 3205 05b8 00000000 		.word	msn_lecaan
 3206              	.L176:
 472:printer.c     ****         if((10-x) == DecVol)
 3207              		.loc 1 472 0
 3208 05bc 7B7B     		ldrb	r3, [r7, #13]	@ zero_extendqisi2
 3209 05be C3F10A03 		rsb	r3, r3, #10
 3210 05c2 7C4A     		ldr	r2, .L205
 3211 05c4 1278     		ldrb	r2, [r2]	@ zero_extendqisi2
 3212 05c6 9342     		cmp	r3, r2
 3213 05c8 02D1     		bne	.L175
 473:printer.c     ****             UART_3_PutChar('.');
 3214              		.loc 1 473 0
 3215 05ca 2E20     		movs	r0, #46
 3216 05cc FFF7FEFF 		bl	UART_3_PutChar
 3217              	.L175:
 474:printer.c     ****         UART_3_PutChar(side.b.ProcessedTotals[0][0][x]);
 3218              		.loc 1 474 0 discriminator 2
 3219 05d0 7B7B     		ldrb	r3, [r7, #13]	@ zero_extendqisi2
 3220 05d2 794A     		ldr	r2, .L205+4
 3221 05d4 1344     		add	r3, r3, r2
 3222 05d6 93F8A631 		ldrb	r3, [r3, #422]	@ zero_extendqisi2
 3223 05da 1846     		mov	r0, r3
 3224 05dc FFF7FEFF 		bl	UART_3_PutChar
 471:printer.c     ****         if((10-x) == DecVol)
 3225              		.loc 1 471 0 discriminator 2
 3226 05e0 7B7B     		ldrb	r3, [r7, #13]	@ zero_extendqisi2
 3227 05e2 0133     		adds	r3, r3, #1
 3228 05e4 7B73     		strb	r3, [r7, #13]
 3229              	.L174:
 471:printer.c     ****         if((10-x) == DecVol)
 3230              		.loc 1 471 0 is_stmt 0 discriminator 1
 3231 05e6 7B7B     		ldrb	r3, [r7, #13]	@ zero_extendqisi2
 3232 05e8 092B     		cmp	r3, #9
 3233 05ea E7D9     		bls	.L176
ARM GAS  C:\Users\Lenovo\AppData\Local\Temp\ccHD7LbD.s 			page 71


 3234              	.LBE77:
 475:printer.c     ****     }
 476:printer.c     ****     UART_3_PutChar(LINE_FEED);
 3235              		.loc 1 476 0 is_stmt 1
 3236 05ec 734B     		ldr	r3, .L205+8
 3237 05ee 1B78     		ldrb	r3, [r3]	@ zero_extendqisi2
 3238 05f0 1846     		mov	r0, r3
 3239 05f2 FFF7FEFF 		bl	UART_3_PutChar
 3240              	.LBB78:
 477:printer.c     **** 	for(uint8 x = 0; x < 16; x ++){
 3241              		.loc 1 477 0
 3242 05f6 0023     		movs	r3, #0
 3243 05f8 3B73     		strb	r3, [r7, #12]
 3244 05fa 08E0     		b	.L177
 3245              	.L178:
 478:printer.c     **** 		UART_3_PutChar(msn_lecaan[x]);
 3246              		.loc 1 478 0 discriminator 3
 3247 05fc 3B7B     		ldrb	r3, [r7, #12]	@ zero_extendqisi2
 3248 05fe 704A     		ldr	r2, .L205+12
 3249 0600 D35C     		ldrb	r3, [r2, r3]	@ zero_extendqisi2
 3250 0602 1846     		mov	r0, r3
 3251 0604 FFF7FEFF 		bl	UART_3_PutChar
 477:printer.c     **** 	for(uint8 x = 0; x < 16; x ++){
 3252              		.loc 1 477 0 discriminator 3
 3253 0608 3B7B     		ldrb	r3, [r7, #12]	@ zero_extendqisi2
 3254 060a 0133     		adds	r3, r3, #1
 3255 060c 3B73     		strb	r3, [r7, #12]
 3256              	.L177:
 477:printer.c     **** 	for(uint8 x = 0; x < 16; x ++){
 3257              		.loc 1 477 0 is_stmt 0 discriminator 1
 3258 060e 3B7B     		ldrb	r3, [r7, #12]	@ zero_extendqisi2
 3259 0610 0F2B     		cmp	r3, #15
 3260 0612 F3D9     		bls	.L178
 3261              	.LBE78:
 3262              	.LBB79:
 479:printer.c     **** 	}
 480:printer.c     ****     
 481:printer.c     ****     for(uint8 x = 0; x < 24; x ++){
 3263              		.loc 1 481 0 is_stmt 1
 3264 0614 0023     		movs	r3, #0
 3265 0616 FB72     		strb	r3, [r7, #11]
 3266 0618 08E0     		b	.L179
 3267              	.L180:
 482:printer.c     ****         UART_3_PutChar(SEPARATOR[x]);
 3268              		.loc 1 482 0 discriminator 3
 3269 061a FB7A     		ldrb	r3, [r7, #11]	@ zero_extendqisi2
 3270 061c 694A     		ldr	r2, .L205+16
 3271 061e D35C     		ldrb	r3, [r2, r3]	@ zero_extendqisi2
 3272 0620 1846     		mov	r0, r3
 3273 0622 FFF7FEFF 		bl	UART_3_PutChar
 481:printer.c     ****         UART_3_PutChar(SEPARATOR[x]);
 3274              		.loc 1 481 0 discriminator 3
 3275 0626 FB7A     		ldrb	r3, [r7, #11]	@ zero_extendqisi2
 3276 0628 0133     		adds	r3, r3, #1
 3277 062a FB72     		strb	r3, [r7, #11]
 3278              	.L179:
 481:printer.c     ****         UART_3_PutChar(SEPARATOR[x]);
ARM GAS  C:\Users\Lenovo\AppData\Local\Temp\ccHD7LbD.s 			page 72


 3279              		.loc 1 481 0 is_stmt 0 discriminator 1
 3280 062c FB7A     		ldrb	r3, [r7, #11]	@ zero_extendqisi2
 3281 062e 172B     		cmp	r3, #23
 3282 0630 F3D9     		bls	.L180
 3283              	.LBE79:
 3284              	.LBB80:
 483:printer.c     ****     }           
 484:printer.c     **** 
 485:printer.c     ****                        
 486:printer.c     ****     for(uint8 x = 0; x < 10; x ++){ 
 3285              		.loc 1 486 0 is_stmt 1
 3286 0632 0023     		movs	r3, #0
 3287 0634 BB72     		strb	r3, [r7, #10]
 3288 0636 14E0     		b	.L181
 3289              	.L183:
 487:printer.c     ****         if((10-x) == DecVol)
 3290              		.loc 1 487 0
 3291 0638 BB7A     		ldrb	r3, [r7, #10]	@ zero_extendqisi2
 3292 063a C3F10A03 		rsb	r3, r3, #10
 3293 063e 5D4A     		ldr	r2, .L205
 3294 0640 1278     		ldrb	r2, [r2]	@ zero_extendqisi2
 3295 0642 9342     		cmp	r3, r2
 3296 0644 02D1     		bne	.L182
 488:printer.c     ****             UART_3_PutChar('.');
 3297              		.loc 1 488 0
 3298 0646 2E20     		movs	r0, #46
 3299 0648 FFF7FEFF 		bl	UART_3_PutChar
 3300              	.L182:
 489:printer.c     ****         UART_3_PutChar(side.c.ProcessedTotals[0][0][x]);
 3301              		.loc 1 489 0 discriminator 2
 3302 064c BB7A     		ldrb	r3, [r7, #10]	@ zero_extendqisi2
 3303 064e 5A4A     		ldr	r2, .L205+4
 3304 0650 1344     		add	r3, r3, r2
 3305 0652 93F8C932 		ldrb	r3, [r3, #713]	@ zero_extendqisi2
 3306 0656 1846     		mov	r0, r3
 3307 0658 FFF7FEFF 		bl	UART_3_PutChar
 486:printer.c     ****         if((10-x) == DecVol)
 3308              		.loc 1 486 0 discriminator 2
 3309 065c BB7A     		ldrb	r3, [r7, #10]	@ zero_extendqisi2
 3310 065e 0133     		adds	r3, r3, #1
 3311 0660 BB72     		strb	r3, [r7, #10]
 3312              	.L181:
 486:printer.c     ****         if((10-x) == DecVol)
 3313              		.loc 1 486 0 is_stmt 0 discriminator 1
 3314 0662 BB7A     		ldrb	r3, [r7, #10]	@ zero_extendqisi2
 3315 0664 092B     		cmp	r3, #9
 3316 0666 E7D9     		bls	.L183
 3317              	.LBE80:
 490:printer.c     ****     }
 491:printer.c     ****     UART_3_PutChar(LINE_FEED);
 3318              		.loc 1 491 0 is_stmt 1
 3319 0668 544B     		ldr	r3, .L205+8
 3320 066a 1B78     		ldrb	r3, [r3]	@ zero_extendqisi2
 3321 066c 1846     		mov	r0, r3
 3322 066e FFF7FEFF 		bl	UART_3_PutChar
 3323              	.LBB81:
 492:printer.c     **** 	for(uint8 x = 0; x < 16; x ++){
ARM GAS  C:\Users\Lenovo\AppData\Local\Temp\ccHD7LbD.s 			page 73


 3324              		.loc 1 492 0
 3325 0672 0023     		movs	r3, #0
 3326 0674 7B72     		strb	r3, [r7, #9]
 3327 0676 08E0     		b	.L184
 3328              	.L185:
 493:printer.c     **** 		UART_3_PutChar(msn_lecaan[x]);
 3329              		.loc 1 493 0 discriminator 3
 3330 0678 7B7A     		ldrb	r3, [r7, #9]	@ zero_extendqisi2
 3331 067a 514A     		ldr	r2, .L205+12
 3332 067c D35C     		ldrb	r3, [r2, r3]	@ zero_extendqisi2
 3333 067e 1846     		mov	r0, r3
 3334 0680 FFF7FEFF 		bl	UART_3_PutChar
 492:printer.c     **** 	for(uint8 x = 0; x < 16; x ++){
 3335              		.loc 1 492 0 discriminator 3
 3336 0684 7B7A     		ldrb	r3, [r7, #9]	@ zero_extendqisi2
 3337 0686 0133     		adds	r3, r3, #1
 3338 0688 7B72     		strb	r3, [r7, #9]
 3339              	.L184:
 492:printer.c     **** 	for(uint8 x = 0; x < 16; x ++){
 3340              		.loc 1 492 0 is_stmt 0 discriminator 1
 3341 068a 7B7A     		ldrb	r3, [r7, #9]	@ zero_extendqisi2
 3342 068c 0F2B     		cmp	r3, #15
 3343 068e F3D9     		bls	.L185
 3344              	.LBE81:
 3345              	.LBB82:
 494:printer.c     **** 	}
 495:printer.c     ****     
 496:printer.c     ****     for(uint8 x = 0; x < 24; x ++){
 3346              		.loc 1 496 0 is_stmt 1
 3347 0690 0023     		movs	r3, #0
 3348 0692 3B72     		strb	r3, [r7, #8]
 3349 0694 08E0     		b	.L186
 3350              	.L187:
 497:printer.c     ****         UART_3_PutChar(SEPARATOR[x]);
 3351              		.loc 1 497 0 discriminator 3
 3352 0696 3B7A     		ldrb	r3, [r7, #8]	@ zero_extendqisi2
 3353 0698 4A4A     		ldr	r2, .L205+16
 3354 069a D35C     		ldrb	r3, [r2, r3]	@ zero_extendqisi2
 3355 069c 1846     		mov	r0, r3
 3356 069e FFF7FEFF 		bl	UART_3_PutChar
 496:printer.c     ****         UART_3_PutChar(SEPARATOR[x]);
 3357              		.loc 1 496 0 discriminator 3
 3358 06a2 3B7A     		ldrb	r3, [r7, #8]	@ zero_extendqisi2
 3359 06a4 0133     		adds	r3, r3, #1
 3360 06a6 3B72     		strb	r3, [r7, #8]
 3361              	.L186:
 496:printer.c     ****         UART_3_PutChar(SEPARATOR[x]);
 3362              		.loc 1 496 0 is_stmt 0 discriminator 1
 3363 06a8 3B7A     		ldrb	r3, [r7, #8]	@ zero_extendqisi2
 3364 06aa 172B     		cmp	r3, #23
 3365 06ac F3D9     		bls	.L187
 3366              	.LBE82:
 3367              	.LBB83:
 498:printer.c     ****     }   
 499:printer.c     ****     
 500:printer.c     **** 	                      
 501:printer.c     ****     for(uint8 x = 0; x < 10; x ++){ 
ARM GAS  C:\Users\Lenovo\AppData\Local\Temp\ccHD7LbD.s 			page 74


 3368              		.loc 1 501 0 is_stmt 1
 3369 06ae 0023     		movs	r3, #0
 3370 06b0 FB71     		strb	r3, [r7, #7]
 3371 06b2 14E0     		b	.L188
 3372              	.L190:
 502:printer.c     ****         if((10-x) == DecVol)
 3373              		.loc 1 502 0
 3374 06b4 FB79     		ldrb	r3, [r7, #7]	@ zero_extendqisi2
 3375 06b6 C3F10A03 		rsb	r3, r3, #10
 3376 06ba 3E4A     		ldr	r2, .L205
 3377 06bc 1278     		ldrb	r2, [r2]	@ zero_extendqisi2
 3378 06be 9342     		cmp	r3, r2
 3379 06c0 02D1     		bne	.L189
 503:printer.c     ****             UART_3_PutChar('.');
 3380              		.loc 1 503 0
 3381 06c2 2E20     		movs	r0, #46
 3382 06c4 FFF7FEFF 		bl	UART_3_PutChar
 3383              	.L189:
 504:printer.c     ****         UART_3_PutChar(side.d.ProcessedTotals[0][0][x]);
 3384              		.loc 1 504 0 discriminator 2
 3385 06c8 FB79     		ldrb	r3, [r7, #7]	@ zero_extendqisi2
 3386 06ca 3B4A     		ldr	r2, .L205+4
 3387 06cc 1344     		add	r3, r3, r2
 3388 06ce 93F8EC33 		ldrb	r3, [r3, #1004]	@ zero_extendqisi2
 3389 06d2 1846     		mov	r0, r3
 3390 06d4 FFF7FEFF 		bl	UART_3_PutChar
 501:printer.c     ****         if((10-x) == DecVol)
 3391              		.loc 1 501 0 discriminator 2
 3392 06d8 FB79     		ldrb	r3, [r7, #7]	@ zero_extendqisi2
 3393 06da 0133     		adds	r3, r3, #1
 3394 06dc FB71     		strb	r3, [r7, #7]
 3395              	.L188:
 501:printer.c     ****         if((10-x) == DecVol)
 3396              		.loc 1 501 0 is_stmt 0 discriminator 1
 3397 06de FB79     		ldrb	r3, [r7, #7]	@ zero_extendqisi2
 3398 06e0 092B     		cmp	r3, #9
 3399 06e2 E7D9     		bls	.L190
 3400              	.LBE83:
 505:printer.c     ****     }
 506:printer.c     ****     UART_3_PutChar(LINE_FEED);
 3401              		.loc 1 506 0 is_stmt 1
 3402 06e4 354B     		ldr	r3, .L205+8
 3403 06e6 1B78     		ldrb	r3, [r3]	@ zero_extendqisi2
 3404 06e8 1846     		mov	r0, r3
 3405 06ea FFF7FEFF 		bl	UART_3_PutChar
 3406              	.LBB84:
 507:printer.c     **** 	for(uint8 x = 0; x < 16; x ++){
 3407              		.loc 1 507 0
 3408 06ee 0023     		movs	r3, #0
 3409 06f0 BB71     		strb	r3, [r7, #6]
 3410 06f2 08E0     		b	.L191
 3411              	.L192:
 508:printer.c     **** 		UART_3_PutChar(msn_lecaan[x]);
 3412              		.loc 1 508 0 discriminator 3
 3413 06f4 BB79     		ldrb	r3, [r7, #6]	@ zero_extendqisi2
 3414 06f6 324A     		ldr	r2, .L205+12
 3415 06f8 D35C     		ldrb	r3, [r2, r3]	@ zero_extendqisi2
ARM GAS  C:\Users\Lenovo\AppData\Local\Temp\ccHD7LbD.s 			page 75


 3416 06fa 1846     		mov	r0, r3
 3417 06fc FFF7FEFF 		bl	UART_3_PutChar
 507:printer.c     **** 	for(uint8 x = 0; x < 16; x ++){
 3418              		.loc 1 507 0 discriminator 3
 3419 0700 BB79     		ldrb	r3, [r7, #6]	@ zero_extendqisi2
 3420 0702 0133     		adds	r3, r3, #1
 3421 0704 BB71     		strb	r3, [r7, #6]
 3422              	.L191:
 507:printer.c     **** 	for(uint8 x = 0; x < 16; x ++){
 3423              		.loc 1 507 0 is_stmt 0 discriminator 1
 3424 0706 BB79     		ldrb	r3, [r7, #6]	@ zero_extendqisi2
 3425 0708 0F2B     		cmp	r3, #15
 3426 070a F3D9     		bls	.L192
 3427              	.LBE84:
 3428              	.LBB85:
 509:printer.c     **** 	}
 510:printer.c     ****     
 511:printer.c     ****     for(uint8 x = 0; x < 24; x ++){
 3429              		.loc 1 511 0 is_stmt 1
 3430 070c 0023     		movs	r3, #0
 3431 070e 7B71     		strb	r3, [r7, #5]
 3432 0710 08E0     		b	.L193
 3433              	.L194:
 512:printer.c     ****         UART_3_PutChar(SEPARATOR[x]);
 3434              		.loc 1 512 0 discriminator 3
 3435 0712 7B79     		ldrb	r3, [r7, #5]	@ zero_extendqisi2
 3436 0714 2B4A     		ldr	r2, .L205+16
 3437 0716 D35C     		ldrb	r3, [r2, r3]	@ zero_extendqisi2
 3438 0718 1846     		mov	r0, r3
 3439 071a FFF7FEFF 		bl	UART_3_PutChar
 511:printer.c     ****         UART_3_PutChar(SEPARATOR[x]);
 3440              		.loc 1 511 0 discriminator 3
 3441 071e 7B79     		ldrb	r3, [r7, #5]	@ zero_extendqisi2
 3442 0720 0133     		adds	r3, r3, #1
 3443 0722 7B71     		strb	r3, [r7, #5]
 3444              	.L193:
 511:printer.c     ****         UART_3_PutChar(SEPARATOR[x]);
 3445              		.loc 1 511 0 is_stmt 0 discriminator 1
 3446 0724 7B79     		ldrb	r3, [r7, #5]	@ zero_extendqisi2
 3447 0726 172B     		cmp	r3, #23
 3448 0728 F3D9     		bls	.L194
 3449              	.LBE85:
 513:printer.c     ****     }            
 514:printer.c     ****     
 515:printer.c     **** 	UART_3_PutChar(LINE_FEED);
 3450              		.loc 1 515 0 is_stmt 1
 3451 072a 244B     		ldr	r3, .L205+8
 3452 072c 1B78     		ldrb	r3, [r3]	@ zero_extendqisi2
 3453 072e 1846     		mov	r0, r3
 3454 0730 FFF7FEFF 		bl	UART_3_PutChar
 3455              	.LBB86:
 516:printer.c     ****     /******FOOTER*****/
 517:printer.c     **** 	for(uint8 x = 0; x < 24; x ++){
 3456              		.loc 1 517 0
 3457 0734 0023     		movs	r3, #0
 3458 0736 3B71     		strb	r3, [r7, #4]
 3459 0738 08E0     		b	.L195
ARM GAS  C:\Users\Lenovo\AppData\Local\Temp\ccHD7LbD.s 			page 76


 3460              	.L196:
 518:printer.c     **** 		UART_3_PutChar(SEPARATOR[x]);
 3461              		.loc 1 518 0 discriminator 3
 3462 073a 3B79     		ldrb	r3, [r7, #4]	@ zero_extendqisi2
 3463 073c 214A     		ldr	r2, .L205+16
 3464 073e D35C     		ldrb	r3, [r2, r3]	@ zero_extendqisi2
 3465 0740 1846     		mov	r0, r3
 3466 0742 FFF7FEFF 		bl	UART_3_PutChar
 517:printer.c     **** 		UART_3_PutChar(SEPARATOR[x]);
 3467              		.loc 1 517 0 discriminator 3
 3468 0746 3B79     		ldrb	r3, [r7, #4]	@ zero_extendqisi2
 3469 0748 0133     		adds	r3, r3, #1
 3470 074a 3B71     		strb	r3, [r7, #4]
 3471              	.L195:
 517:printer.c     **** 		UART_3_PutChar(SEPARATOR[x]);
 3472              		.loc 1 517 0 is_stmt 0 discriminator 1
 3473 074c 3B79     		ldrb	r3, [r7, #4]	@ zero_extendqisi2
 3474 074e 172B     		cmp	r3, #23
 3475 0750 F3D9     		bls	.L196
 3476              	.LBE86:
 519:printer.c     **** 	}
 520:printer.c     **** 	UART_3_PutChar(LINE_FEED);
 3477              		.loc 1 520 0 is_stmt 1
 3478 0752 1A4B     		ldr	r3, .L205+8
 3479 0754 1B78     		ldrb	r3, [r3]	@ zero_extendqisi2
 3480 0756 1846     		mov	r0, r3
 3481 0758 FFF7FEFF 		bl	UART_3_PutChar
 3482              	.LBB87:
 521:printer.c     **** 	for(uint8 x = 0; x < 22; x ++){
 3483              		.loc 1 521 0
 3484 075c 0023     		movs	r3, #0
 3485 075e FB70     		strb	r3, [r7, #3]
 3486 0760 08E0     		b	.L197
 3487              	.L198:
 522:printer.c     **** 		UART_3_PutChar(msn_footer[x]);
 3488              		.loc 1 522 0 discriminator 3
 3489 0762 FB78     		ldrb	r3, [r7, #3]	@ zero_extendqisi2
 3490 0764 184A     		ldr	r2, .L205+20
 3491 0766 D35C     		ldrb	r3, [r2, r3]	@ zero_extendqisi2
 3492 0768 1846     		mov	r0, r3
 3493 076a FFF7FEFF 		bl	UART_3_PutChar
 521:printer.c     **** 	for(uint8 x = 0; x < 22; x ++){
 3494              		.loc 1 521 0 discriminator 3
 3495 076e FB78     		ldrb	r3, [r7, #3]	@ zero_extendqisi2
 3496 0770 0133     		adds	r3, r3, #1
 3497 0772 FB70     		strb	r3, [r7, #3]
 3498              	.L197:
 521:printer.c     **** 	for(uint8 x = 0; x < 22; x ++){
 3499              		.loc 1 521 0 is_stmt 0 discriminator 1
 3500 0774 FB78     		ldrb	r3, [r7, #3]	@ zero_extendqisi2
 3501 0776 152B     		cmp	r3, #21
 3502 0778 F3D9     		bls	.L198
 3503              	.LBE87:
 523:printer.c     **** 	}
 524:printer.c     **** 	UART_3_PutChar(LINE_FEED);
 3504              		.loc 1 524 0 is_stmt 1
 3505 077a 104B     		ldr	r3, .L205+8
ARM GAS  C:\Users\Lenovo\AppData\Local\Temp\ccHD7LbD.s 			page 77


 3506 077c 1B78     		ldrb	r3, [r3]	@ zero_extendqisi2
 3507 077e 1846     		mov	r0, r3
 3508 0780 FFF7FEFF 		bl	UART_3_PutChar
 3509              	.LBB88:
 525:printer.c     **** 	for(uint8 x = 0; x < 22; x ++){
 3510              		.loc 1 525 0
 3511 0784 0023     		movs	r3, #0
 3512 0786 BB70     		strb	r3, [r7, #2]
 3513 0788 08E0     		b	.L199
 3514              	.L200:
 526:printer.c     **** 		UART_3_PutChar(msn_footer2[x]);
 3515              		.loc 1 526 0 discriminator 3
 3516 078a BB78     		ldrb	r3, [r7, #2]	@ zero_extendqisi2
 3517 078c 0F4A     		ldr	r2, .L205+24
 3518 078e D35C     		ldrb	r3, [r2, r3]	@ zero_extendqisi2
 3519 0790 1846     		mov	r0, r3
 3520 0792 FFF7FEFF 		bl	UART_3_PutChar
 525:printer.c     **** 	for(uint8 x = 0; x < 22; x ++){
 3521              		.loc 1 525 0 discriminator 3
 3522 0796 BB78     		ldrb	r3, [r7, #2]	@ zero_extendqisi2
 3523 0798 0133     		adds	r3, r3, #1
 3524 079a BB70     		strb	r3, [r7, #2]
 3525              	.L199:
 525:printer.c     **** 	for(uint8 x = 0; x < 22; x ++){
 3526              		.loc 1 525 0 is_stmt 0 discriminator 1
 3527 079c BB78     		ldrb	r3, [r7, #2]	@ zero_extendqisi2
 3528 079e 152B     		cmp	r3, #21
 3529 07a0 F3D9     		bls	.L200
 3530              	.LBE88:
 527:printer.c     **** 	}           
 528:printer.c     ****     UART_3_PutChar(LINE_FEED);
 3531              		.loc 1 528 0 is_stmt 1
 3532 07a2 064B     		ldr	r3, .L205+8
 3533 07a4 1B78     		ldrb	r3, [r3]	@ zero_extendqisi2
 3534 07a6 1846     		mov	r0, r3
 3535 07a8 FFF7FEFF 		bl	UART_3_PutChar
 529:printer.c     **** }
 3536              		.loc 1 529 0
 3537 07ac 00BF     		nop
 3538 07ae 2437     		adds	r7, r7, #36
 3539              		.cfi_def_cfa_offset 12
 3540 07b0 BD46     		mov	sp, r7
 3541              		.cfi_def_cfa_register 13
 3542              		@ sp needed
 3543 07b2 90BD     		pop	{r4, r7, pc}
 3544              	.L206:
 3545              		.align	2
 3546              	.L205:
 3547 07b4 00000000 		.word	DecVol
 3548 07b8 00000000 		.word	side
 3549 07bc 00000000 		.word	LINE_FEED
 3550 07c0 00000000 		.word	msn_lecaan
 3551 07c4 00000000 		.word	SEPARATOR
 3552 07c8 00000000 		.word	msn_footer
 3553 07cc 00000000 		.word	msn_footer2
 3554              		.cfi_endproc
 3555              	.LFE64:
ARM GAS  C:\Users\Lenovo\AppData\Local\Temp\ccHD7LbD.s 			page 78


 3556              		.size	PrintShift, .-PrintShift
 3557              		.text
 3558              	.Letext0:
 3559              		.file 2 "c:\\program files (x86)\\cypress\\psoc creator\\4.2\\psoc creator\\import\\gnu\\arm\\5.4.
 3560              		.file 3 "c:\\program files (x86)\\cypress\\psoc creator\\4.2\\psoc creator\\import\\gnu\\arm\\5.4.
 3561              		.file 4 "Generated_Source\\PSoC5/cytypes.h"
 3562              		.file 5 "./GVar.h"
 3563              		.file 6 "Generated_Source\\PSoC5/core_cm3.h"