ARM GAS  C:\Users\THERMA~1\AppData\Local\Temp\ccXswU2c.s 			page 1


   1              		.syntax unified
   2              		.cpu cortex-m3
   3              		.fpu softvfp
   4              		.eabi_attribute 20, 1
   5              		.eabi_attribute 21, 1
   6              		.eabi_attribute 23, 3
   7              		.eabi_attribute 24, 1
   8              		.eabi_attribute 25, 1
   9              		.eabi_attribute 26, 1
  10              		.eabi_attribute 30, 6
  11              		.eabi_attribute 34, 1
  12              		.eabi_attribute 18, 4
  13              		.thumb
  14              		.syntax unified
  15              		.file	"printer.c"
  16              		.text
  17              	.Ltext0:
  18              		.cfi_sections	.debug_frame
  19              		.comm	PollCounter,2,2
  20              		.comm	CurrentState,1,1
  21              		.comm	Receipt,1,1
  22              		.comm	sale_number,6,4
  23              		.comm	sale_number_copy,6,4
  24              		.comm	int_salenumber,1,1
  25              		.comm	shift_number,6,4
  26              		.comm	int_shiftnumber,1,1
  27              		.comm	LCDhose,1,1
  28              		.comm	side,1236,4
  29              		.comm	MepsanResponse,50,4
  30              		.comm	MepsanSendTo,50,4
  31              		.comm	PumpAddress,15,4
  32              		.comm	CRC,2,2
  33              		.comm	crc_lo,1,1
  34              		.comm	crc_hi,1,1
  35              		.comm	Positions,1,1
  36              		.comm	TotalRequestType,1,1
  37              		.comm	DecVol,1,1
  38              		.comm	touch1,20,4
  39              		.comm	dirGbr,1,1
  40              		.global	LINE_FEED
  41              		.data
  42              		.type	LINE_FEED, %object
  43              		.size	LINE_FEED, 1
  44              	LINE_FEED:
  45 0000 0A       		.byte	10
  46              		.global	VolSimbol
  47 0001 000000   		.align	2
  48              		.type	VolSimbol, %object
  49              		.size	VolSimbol, 1
  50              	VolSimbol:
  51 0004 47       		.ascii	"G"
  52              		.global	msn_EDS
  53 0005 000000   		.align	2
  54              		.type	msn_EDS, %object
  55              		.size	msn_EDS, 32
  56              	msn_EDS:
  57 0008 20202020 		.ascii	"      ESTACION DE SERVICIO      "
ARM GAS  C:\Users\THERMA~1\AppData\Local\Temp\ccXswU2c.s 			page 2


  57      20204553 
  57      54414349 
  57      4F4E2044 
  57      45205345 
  58              		.global	msn_EDS2
  59              		.align	2
  60              		.type	msn_EDS2, %object
  61              		.size	msn_EDS2, 32
  62              	msn_EDS2:
  63 0028 20202020 		.ascii	"     SAN MARTIN D TOURS SAS     "
  63      2053414E 
  63      204D4152 
  63      54494E20 
  63      4420544F 
  64              		.global	msn_EDS4
  65              		.align	2
  66              		.type	msn_EDS4, %object
  67              		.size	msn_EDS4, 32
  68              	msn_EDS4:
  69 0048 20202020 		.ascii	"          Tel: 2072855          "
  69      20202020 
  69      20205465 
  69      6C3A2032 
  69      30373238 
  70              		.global	msn_EDS5
  71              		.align	2
  72              		.type	msn_EDS5, %object
  73              		.size	msn_EDS5, 32
  74              	msn_EDS5:
  75 0068 20202020 		.ascii	"       CRA 1A #41A - 34 SUR     "
  75      20202043 
  75      52412031 
  75      41202334 
  75      3141202D 
  76              		.global	msn_EDS6
  77              		.align	2
  78              		.type	msn_EDS6, %object
  79              		.size	msn_EDS6, 32
  80              	msn_EDS6:
  81 0088 20202020 		.ascii	"          BOGOTA D.C.           "
  81      20202020 
  81      2020424F 
  81      474F5441 
  81      20442E43 
  82              		.global	msn_footer
  83              		.align	2
  84              		.type	msn_footer, %object
  85              		.size	msn_footer, 32
  86              	msn_footer:
  87 00a8 20202020 		.ascii	"     GRACIAS POR SU COMPRA      "
  87      20475241 
  87      43494153 
  87      20504F52 
  87      20535520 
  88              		.global	msn_footer2
  89              		.align	2
  90              		.type	msn_footer2, %object
ARM GAS  C:\Users\THERMA~1\AppData\Local\Temp\ccXswU2c.s 			page 3


  91              		.size	msn_footer2, 32
  92              	msn_footer2:
  93 00c8 20202020 		.ascii	"          VUELVA PRONTO         "
  93      20202020 
  93      20205655 
  93      454C5641 
  93      2050524F 
  94              		.global	msn_footer3
  95              		.align	2
  96              		.type	msn_footer3, %object
  97              		.size	msn_footer3, 32
  98              	msn_footer3:
  99 00e8 4669726D 		.ascii	"Firma:                          "
  99      613A2020 
  99      20202020 
  99      20202020 
  99      20202020 
 100              		.global	msn_footer4
 101              		.align	2
 102              		.type	msn_footer4, %object
 103              		.size	msn_footer4, 32
 104              	msn_footer4:
 105 0108 5F5F5F5F 		.ascii	"________________________________"
 105      5F5F5F5F 
 105      5F5F5F5F 
 105      5F5F5F5F 
 105      5F5F5F5F 
 106              		.global	msn_copy
 107              		.align	2
 108              		.type	msn_copy, %object
 109              		.size	msn_copy, 32
 110              	msn_copy:
 111 0128 20202020 		.ascii	"             COPIA              "
 111      20202020 
 111      20202020 
 111      20434F50 
 111      49412020 
 112              		.global	msn_diesel
 113              		.align	2
 114              		.type	msn_diesel, %object
 115              		.size	msn_diesel, 9
 116              	msn_diesel:
 117 0148 44696573 		.ascii	"Diesel   "
 117      656C2020 
 117      20
 118              		.global	msn_gasoline
 119 0151 000000   		.align	2
 120              		.type	msn_gasoline, %object
 121              		.size	msn_gasoline, 9
 122              	msn_gasoline:
 123 0154 436F7272 		.ascii	"Corriente"
 123      69656E74 
 123      65
 124              		.global	msn_fecha
 125 015d 000000   		.align	2
 126              		.type	msn_fecha, %object
 127              		.size	msn_fecha, 13
ARM GAS  C:\Users\THERMA~1\AppData\Local\Temp\ccXswU2c.s 			page 4


 128              	msn_fecha:
 129 0160 46656368 		.ascii	"Fecha      : "
 129      61202020 
 129      2020203A 
 129      20
 130              		.global	msn_hora
 131 016d 000000   		.align	2
 132              		.type	msn_hora, %object
 133              		.size	msn_hora, 13
 134              	msn_hora:
 135 0170 486F7261 		.ascii	"Hora       : "
 135      20202020 
 135      2020203A 
 135      20
 136              		.global	msn_placa
 137 017d 000000   		.align	2
 138              		.type	msn_placa, %object
 139              		.size	msn_placa, 13
 140              	msn_placa:
 141 0180 506C6163 		.ascii	"Placa      : "
 141      61202020 
 141      2020203A 
 141      20
 142              		.global	PRN_MILLEAGE
 143 018d 000000   		.align	2
 144              		.type	PRN_MILLEAGE, %object
 145              		.size	PRN_MILLEAGE, 13
 146              	PRN_MILLEAGE:
 147 0190 4B696C6F 		.ascii	"Kilometraje: "
 147      6D657472 
 147      616A653A 
 147      20
 148              		.global	PRN_TRANSTYPE
 149 019d 000000   		.align	2
 150              		.type	PRN_TRANSTYPE, %object
 151              		.size	PRN_TRANSTYPE, 13
 152              	PRN_TRANSTYPE:
 153 01a0 5469706F 		.ascii	"Tipo       : "
 153      20202020 
 153      2020203A 
 153      20
 154              		.global	msn_pos
 155 01ad 000000   		.align	2
 156              		.type	msn_pos, %object
 157              		.size	msn_pos, 13
 158              	msn_pos:
 159 01b0 506F7369 		.ascii	"Posicion   : "
 159      63696F6E 
 159      2020203A 
 159      20
 160              		.global	msn_product
 161 01bd 000000   		.align	2
 162              		.type	msn_product, %object
 163              		.size	msn_product, 13
 164              	msn_product:
 165 01c0 50726F64 		.ascii	"Producto   : "
 165      7563746F 
ARM GAS  C:\Users\THERMA~1\AppData\Local\Temp\ccXswU2c.s 			page 5


 165      2020203A 
 165      20
 166              		.global	msn_ppu
 167 01cd 000000   		.align	2
 168              		.type	msn_ppu, %object
 169              		.size	msn_ppu, 13
 170              	msn_ppu:
 171 01d0 50707520 		.ascii	"Ppu        : "
 171      20202020 
 171      2020203A 
 171      20
 172              		.global	msn_vol
 173 01dd 000000   		.align	2
 174              		.type	msn_vol, %object
 175              		.size	msn_vol, 13
 176              	msn_vol:
 177 01e0 566F6C75 		.ascii	"Volumen    : "
 177      6D656E20 
 177      2020203A 
 177      20
 178              		.global	msn_voltot
 179 01ed 000000   		.align	2
 180              		.type	msn_voltot, %object
 181              		.size	msn_voltot, 13
 182              	msn_voltot:
 183 01f0 546F742E 		.ascii	"Tot.Vol    : "
 183      566F6C20 
 183      2020203A 
 183      20
 184              		.global	msn_din
 185 01fd 000000   		.align	2
 186              		.type	msn_din, %object
 187              		.size	msn_din, 13
 188              	msn_din:
 189 0200 496D706F 		.ascii	"Importe    : "
 189      72746520 
 189      2020203A 
 189      20
 190              		.global	msn_cierre
 191 020d 000000   		.align	2
 192              		.type	msn_cierre, %object
 193              		.size	msn_cierre, 13
 194              	msn_cierre:
 195 0210 43696572 		.ascii	"Cierre No  : "
 195      7265204E 
 195      6F20203A 
 195      20
 196              		.global	msn_venta
 197 021d 000000   		.align	2
 198              		.type	msn_venta, %object
 199              		.size	msn_venta, 13
 200              	msn_venta:
 201 0220 56656E74 		.ascii	"Venta No   : "
 201      61204E6F 
 201      2020203A 
 201      20
 202              		.global	msn_numero
ARM GAS  C:\Users\THERMA~1\AppData\Local\Temp\ccXswU2c.s 			page 6


 203 022d 000000   		.align	2
 204              		.type	msn_numero, %object
 205              		.size	msn_numero, 13
 206              	msn_numero:
 207 0230 436F6E73 		.ascii	"Consecutivo: "
 207      65637574 
 207      69766F3A 
 207      20
 208              		.global	PRN_BALANCE
 209 023d 000000   		.align	2
 210              		.type	PRN_BALANCE, %object
 211              		.size	PRN_BALANCE, 13
 212              	PRN_BALANCE:
 213 0240 53616C64 		.ascii	"Saldo      : "
 213      6F202020 
 213      2020203A 
 213      20
 214              		.global	PRN_COMPANY
 215 024d 000000   		.align	2
 216              		.type	PRN_COMPANY, %object
 217              		.size	PRN_COMPANY, 13
 218              	PRN_COMPANY:
 219 0250 456D7072 		.ascii	"Empresa    : "
 219      65736120 
 219      2020203A 
 219      20
 220              		.global	PRN_ACCOUNT
 221 025d 000000   		.align	2
 222              		.type	PRN_ACCOUNT, %object
 223              		.size	PRN_ACCOUNT, 13
 224              	PRN_ACCOUNT:
 225 0260 4375656E 		.ascii	"Cuenta     : "
 225      74612020 
 225      2020203A 
 225      20
 226              		.global	PRN_SERIAL
 227 026d 000000   		.align	2
 228              		.type	PRN_SERIAL, %object
 229              		.size	PRN_SERIAL, 13
 230              	PRN_SERIAL:
 231 0270 53657269 		.ascii	"Serial     : "
 231      616C2020 
 231      2020203A 
 231      20
 232              		.global	PRN_ACCOUNTTYPE
 233 027d 000000   		.align	2
 234              		.type	PRN_ACCOUNTTYPE, %object
 235              		.size	PRN_ACCOUNTTYPE, 13
 236              	PRN_ACCOUNTTYPE:
 237 0280 5469706F 		.ascii	"Tipo Cuenta: "
 237      20437565 
 237      6E74613A 
 237      20
 238              		.global	PRN_VISITSDAY
 239 028d 000000   		.align	2
 240              		.type	PRN_VISITSDAY, %object
 241              		.size	PRN_VISITSDAY, 13
ARM GAS  C:\Users\THERMA~1\AppData\Local\Temp\ccXswU2c.s 			page 7


 242              	PRN_VISITSDAY:
 243 0290 56697369 		.ascii	"Visitas Dia: "
 243      74617320 
 243      4469613A 
 243      20
 244              		.global	PRN_VISITSWEEK
 245 029d 000000   		.align	2
 246              		.type	PRN_VISITSWEEK, %object
 247              		.size	PRN_VISITSWEEK, 13
 248              	PRN_VISITSWEEK:
 249 02a0 56697369 		.ascii	"Visitas Sem: "
 249      74617320 
 249      53656D3A 
 249      20
 250              		.global	PRN_VISITSMONTH
 251 02ad 000000   		.align	2
 252              		.type	PRN_VISITSMONTH, %object
 253              		.size	PRN_VISITSMONTH, 13
 254              	PRN_VISITSMONTH:
 255 02b0 56697369 		.ascii	"Visitas Mes: "
 255      74617320 
 255      4D65733A 
 255      20
 256              		.global	PRN_VOLUMEDAY
 257 02bd 000000   		.align	2
 258              		.type	PRN_VOLUMEDAY, %object
 259              		.size	PRN_VOLUMEDAY, 13
 260              	PRN_VOLUMEDAY:
 261 02c0 566F6C75 		.ascii	"Volumen Dia: "
 261      6D656E20 
 261      4469613A 
 261      20
 262              		.global	PRN_VOLUMEWEEK
 263 02cd 000000   		.align	2
 264              		.type	PRN_VOLUMEWEEK, %object
 265              		.size	PRN_VOLUMEWEEK, 13
 266              	PRN_VOLUMEWEEK:
 267 02d0 566F6C75 		.ascii	"Volumen Sem: "
 267      6D656E20 
 267      53656D3A 
 267      20
 268              		.global	PRN_VOLUMEMONTH
 269 02dd 000000   		.align	2
 270              		.type	PRN_VOLUMEMONTH, %object
 271              		.size	PRN_VOLUMEMONTH, 13
 272              	PRN_VOLUMEMONTH:
 273 02e0 566F6C75 		.ascii	"Volumen Mes: "
 273      6D656E20 
 273      4D65733A 
 273      20
 274              		.global	PRN_MONEYDAY
 275 02ed 000000   		.align	2
 276              		.type	PRN_MONEYDAY, %object
 277              		.size	PRN_MONEYDAY, 13
 278              	PRN_MONEYDAY:
 279 02f0 44696E65 		.ascii	"Dinero Dia : "
 279      726F2044 
ARM GAS  C:\Users\THERMA~1\AppData\Local\Temp\ccXswU2c.s 			page 8


 279      6961203A 
 279      20
 280              		.global	PRN_MONEYWEEK
 281 02fd 000000   		.align	2
 282              		.type	PRN_MONEYWEEK, %object
 283              		.size	PRN_MONEYWEEK, 13
 284              	PRN_MONEYWEEK:
 285 0300 44696E65 		.ascii	"Dinero Sem : "
 285      726F2053 
 285      656D203A 
 285      20
 286              		.global	PRN_MONEYMONTH
 287 030d 000000   		.align	2
 288              		.type	PRN_MONEYMONTH, %object
 289              		.size	PRN_MONEYMONTH, 13
 290              	PRN_MONEYMONTH:
 291 0310 44696E65 		.ascii	"Dinero Mes : "
 291      726F204D 
 291      6573203A 
 291      20
 292              		.global	PRN_PRESET
 293 031d 000000   		.align	2
 294              		.type	PRN_PRESET, %object
 295              		.size	PRN_PRESET, 13
 296              	PRN_PRESET:
 297 0320 56616C6F 		.ascii	"Valor Prog.: "
 297      72205072 
 297      6F672E3A 
 297      20
 298              		.global	PRN_SIGNATURE
 299 032d 000000   		.align	2
 300              		.type	PRN_SIGNATURE, %object
 301              		.size	PRN_SIGNATURE, 13
 302              	PRN_SIGNATURE:
 303 0330 4669726D 		.ascii	"Firma      : "
 303      61202020 
 303      2020203A 
 303      20
 304              		.global	PRN_ID
 305 033d 000000   		.align	2
 306              		.type	PRN_ID, %object
 307              		.size	PRN_ID, 13
 308              	PRN_ID:
 309 0340 43656475 		.ascii	"Cedula     : "
 309      6C612020 
 309      2020203A 
 309      20
 310              		.global	PRN_CURRENCY
 311 034d 000000   		.align	2
 312              		.type	PRN_CURRENCY, %object
 313              		.size	PRN_CURRENCY, 1
 314              	PRN_CURRENCY:
 315 0350 24       		.ascii	"$"
 316              		.global	msn_lecact
 317 0351 000000   		.align	2
 318              		.type	msn_lecact, %object
 319              		.size	msn_lecact, 16
ARM GAS  C:\Users\THERMA~1\AppData\Local\Temp\ccXswU2c.s 			page 9


 320              	msn_lecact:
 321 0354 566F6C75 		.ascii	"Volumen actual: "
 321      6D656E20 
 321      61637475 
 321      616C3A20 
 322              		.global	msn_lecaan
 323              		.align	2
 324              		.type	msn_lecaan, %object
 325              		.size	msn_lecaan, 16
 326              	msn_lecaan:
 327 0364 566F6C2E 		.ascii	"Vol. anterior:  "
 327      20616E74 
 327      6572696F 
 327      723A2020 
 328              		.global	msn_dif
 329              		.align	2
 330              		.type	msn_dif, %object
 331              		.size	msn_dif, 18
 332              	msn_dif:
 333 0374 566F6C2E 		.ascii	"Vol. dispensado:  "
 333      20646973 
 333      70656E73 
 333      61646F3A 
 333      2020
 334              		.global	SEPARATOR
 335 0386 0000     		.align	2
 336              		.type	SEPARATOR, %object
 337              		.size	SEPARATOR, 32
 338              	SEPARATOR:
 339 0388 2A2A2A2A 		.ascii	"********************************"
 339      2A2A2A2A 
 339      2A2A2A2A 
 339      2A2A2A2A 
 339      2A2A2A2A 
 340              		.global	ASK_TIME
 341              		.align	2
 342              		.type	ASK_TIME, %object
 343              		.size	ASK_TIME, 6
 344              	ASK_TIME:
 345 03a8 5A       		.byte	90
 346 03a9 A5       		.byte	-91
 347 03aa 03       		.byte	3
 348 03ab 81       		.byte	-127
 349 03ac 20       		.byte	32
 350 03ad 07       		.byte	7
 351              		.section	.text.PrintReceipt,"ax",%progbits
 352              		.align	2
 353              		.global	PrintReceipt
 354              		.thumb
 355              		.thumb_func
 356              		.type	PrintReceipt, %function
 357              	PrintReceipt:
 358              	.LFB64:
 359              		.file 1 "printer.c"
   1:printer.c     **** /* ========================================
   2:printer.c     ****  *
   3:printer.c     ****  * Copyright YOUR COMPANY, THE YEAR
ARM GAS  C:\Users\THERMA~1\AppData\Local\Temp\ccXswU2c.s 			page 10


   4:printer.c     ****  * All Rights Reserved
   5:printer.c     ****  * UNPUBLISHED, LICENSED SOFTWARE.
   6:printer.c     ****  *
   7:printer.c     ****  * CONFIDENTIAL AND PROPRIETARY INFORMATION
   8:printer.c     ****  * WHICH IS THE PROPERTY OF your company.
   9:printer.c     ****  *
  10:printer.c     ****  * ========================================
  11:printer.c     **** */
  12:printer.c     **** #include <project.h>
  13:printer.c     **** #include <GVar.h>
  14:printer.c     **** #include <stdio.h>
  15:printer.c     **** #include <stdlib.h>
  16:printer.c     **** #include <string.h>
  17:printer.c     **** 
  18:printer.c     **** uint8 LINE_FEED = 0x0A;
  19:printer.c     **** char VolSimbol[1] = "G";
  20:printer.c     **** 
  21:printer.c     **** 
  22:printer.c     **** /***********  Temporal messages ******************/
  23:printer.c     **** uint8 msn_EDS[32]       = "      ESTACION DE SERVICIO      ";
  24:printer.c     **** uint8 msn_EDS2[32]      = "     SAN MARTIN D TOURS SAS     ";
  25:printer.c     **** /*uint8 msn_EDS3[32]      = "   para Estaciones de Servicio  ";*/
  26:printer.c     **** uint8 msn_EDS4[32]      = "          Tel: 2072855          ";
  27:printer.c     **** uint8 msn_EDS5[32]      = "       CRA 1A #41A - 34 SUR     ";
  28:printer.c     **** uint8 msn_EDS6[32]      = "          BOGOTA D.C.           ";
  29:printer.c     **** uint8 msn_footer[32]    = "     GRACIAS POR SU COMPRA      ";
  30:printer.c     **** uint8 msn_footer2[32]   = "          VUELVA PRONTO         ";
  31:printer.c     **** uint8 msn_footer3[32]   = "Firma:                          ";
  32:printer.c     **** uint8 msn_footer4[32]   = "________________________________";
  33:printer.c     **** uint8 msn_copy[32]      = "             COPIA              ";
  34:printer.c     **** uint8 msn_diesel[9]     = "Diesel   ";
  35:printer.c     **** uint8 msn_gasoline[9]   = "Corriente";
  36:printer.c     **** 
  37:printer.c     **** /*********** informative messages ****************/
  38:printer.c     **** 
  39:printer.c     **** uint8 msn_fecha[13]       = "Fecha      : ";
  40:printer.c     **** uint8 msn_hora[13]        = "Hora       : ";
  41:printer.c     **** uint8 msn_placa[13]       = "Placa      : ";
  42:printer.c     **** uint8 PRN_MILLEAGE[13]    = "Kilometraje: ";
  43:printer.c     **** uint8 PRN_TRANSTYPE[13]   = "Tipo       : ";
  44:printer.c     **** uint8 msn_pos[13]         = "Posicion   : ";
  45:printer.c     **** uint8 msn_product[13]     = "Producto   : ";
  46:printer.c     **** uint8 msn_ppu[13]         = "Ppu        : ";
  47:printer.c     **** uint8 msn_vol[13]         = "Volumen    : ";
  48:printer.c     **** uint8 msn_voltot[13]      = "Tot.Vol    : ";
  49:printer.c     **** uint8 msn_din[13]         = "Importe    : ";
  50:printer.c     **** uint8 msn_cierre[13]      = "Cierre No  : ";
  51:printer.c     **** uint8 msn_venta[13]       = "Venta No   : ";
  52:printer.c     **** uint8 msn_numero[13]      = "Consecutivo: ";
  53:printer.c     **** uint8 PRN_BALANCE[13]     = "Saldo      : ";
  54:printer.c     **** uint8 PRN_COMPANY[13]     = "Empresa    : ";
  55:printer.c     **** uint8 PRN_ACCOUNT[13]     = "Cuenta     : ";
  56:printer.c     **** uint8 PRN_SERIAL[13]      = "Serial     : ";
  57:printer.c     **** uint8 PRN_ACCOUNTTYPE[13] = "Tipo Cuenta: ";
  58:printer.c     **** uint8 PRN_VISITSDAY[13]   = "Visitas Dia: ";
  59:printer.c     **** uint8 PRN_VISITSWEEK[13]  = "Visitas Sem: ";
  60:printer.c     **** uint8 PRN_VISITSMONTH[13] = "Visitas Mes: ";
ARM GAS  C:\Users\THERMA~1\AppData\Local\Temp\ccXswU2c.s 			page 11


  61:printer.c     **** uint8 PRN_VOLUMEDAY[13]   = "Volumen Dia: ";
  62:printer.c     **** uint8 PRN_VOLUMEWEEK[13]  = "Volumen Sem: ";
  63:printer.c     **** uint8 PRN_VOLUMEMONTH[13] = "Volumen Mes: ";
  64:printer.c     **** uint8 PRN_MONEYDAY[13]    = "Dinero Dia : ";
  65:printer.c     **** uint8 PRN_MONEYWEEK[13]   = "Dinero Sem : ";
  66:printer.c     **** uint8 PRN_MONEYMONTH[13]  = "Dinero Mes : ";
  67:printer.c     **** uint8 PRN_PRESET[13]      = "Valor Prog.: ";
  68:printer.c     **** uint8 PRN_SIGNATURE[13]   = "Firma      : ";
  69:printer.c     **** uint8 PRN_ID[13]          = "Cedula     : ";
  70:printer.c     **** uint8 PRN_CURRENCY[1]     = "$";
  71:printer.c     **** uint8 msn_lecact[16]      ="Volumen actual: ";
  72:printer.c     **** uint8 msn_lecaan[16]      ="Vol. anterior:  ";
  73:printer.c     **** uint8 msn_dif[18]         ="Vol. dispensado:  ";
  74:printer.c     **** uint8 SEPARATOR[32]       = "********************************";
  75:printer.c     **** uint8 ASK_TIME[]={0x5A, 0xA5, 0x03, 0x81, 0x20, 0x07};
  76:printer.c     **** 
  77:printer.c     **** 
  78:printer.c     **** 
  79:printer.c     **** void PrintReceipt(uint8 address){
 360              		.loc 1 79 0
 361              		.cfi_startproc
 362              		@ args = 0, pretend = 0, frame = 104
 363              		@ frame_needed = 1, uses_anonymous_args = 0
 364 0000 90B5     		push	{r4, r7, lr}
 365              		.cfi_def_cfa_offset 12
 366              		.cfi_offset 4, -12
 367              		.cfi_offset 7, -8
 368              		.cfi_offset 14, -4
 369 0002 9BB0     		sub	sp, sp, #108
 370              		.cfi_def_cfa_offset 120
 371 0004 00AF     		add	r7, sp, #0
 372              		.cfi_def_cfa_register 7
 373 0006 0346     		mov	r3, r0
 374 0008 FB71     		strb	r3, [r7, #7]
  80:printer.c     ****     int8 screen_size;  
  81:printer.c     ****     screen_size = 0;
 375              		.loc 1 81 0
 376 000a 0023     		movs	r3, #0
 377 000c 87F86730 		strb	r3, [r7, #103]
  82:printer.c     ****     sale_number[5]=(int_salenumber/10000)+48;
 378              		.loc 1 82 0
 379 0010 CC4B     		ldr	r3, .L223
 380 0012 1B78     		ldrb	r3, [r3]	@ zero_extendqisi2
 381 0014 CC4A     		ldr	r2, .L223+4
 382 0016 82FB0312 		smull	r1, r2, r2, r3
 383 001a 1213     		asrs	r2, r2, #12
 384 001c DB17     		asrs	r3, r3, #31
 385 001e D31A     		subs	r3, r2, r3
 386 0020 DBB2     		uxtb	r3, r3
 387 0022 3033     		adds	r3, r3, #48
 388 0024 DAB2     		uxtb	r2, r3
 389 0026 C94B     		ldr	r3, .L223+8
 390 0028 5A71     		strb	r2, [r3, #5]
  83:printer.c     **** 	sale_number[4]=((int_salenumber%10000)/1000)+48;
 391              		.loc 1 83 0
 392 002a C64B     		ldr	r3, .L223
 393 002c 1B78     		ldrb	r3, [r3]	@ zero_extendqisi2
ARM GAS  C:\Users\THERMA~1\AppData\Local\Temp\ccXswU2c.s 			page 12


 394 002e 1A46     		mov	r2, r3
 395 0030 C54B     		ldr	r3, .L223+4
 396 0032 83FB0213 		smull	r1, r3, r3, r2
 397 0036 1913     		asrs	r1, r3, #12
 398 0038 D317     		asrs	r3, r2, #31
 399 003a CB1A     		subs	r3, r1, r3
 400 003c 42F21071 		movw	r1, #10000
 401 0040 01FB03F3 		mul	r3, r1, r3
 402 0044 D31A     		subs	r3, r2, r3
 403 0046 C24A     		ldr	r2, .L223+12
 404 0048 82FB0312 		smull	r1, r2, r2, r3
 405 004c 9211     		asrs	r2, r2, #6
 406 004e DB17     		asrs	r3, r3, #31
 407 0050 D31A     		subs	r3, r2, r3
 408 0052 DBB2     		uxtb	r3, r3
 409 0054 3033     		adds	r3, r3, #48
 410 0056 DAB2     		uxtb	r2, r3
 411 0058 BC4B     		ldr	r3, .L223+8
 412 005a 1A71     		strb	r2, [r3, #4]
  84:printer.c     **** 	sale_number[3]=(((int_salenumber%10000)%1000)/100)+48;
 413              		.loc 1 84 0
 414 005c B94B     		ldr	r3, .L223
 415 005e 1B78     		ldrb	r3, [r3]	@ zero_extendqisi2
 416 0060 1A46     		mov	r2, r3
 417 0062 B94B     		ldr	r3, .L223+4
 418 0064 83FB0213 		smull	r1, r3, r3, r2
 419 0068 1913     		asrs	r1, r3, #12
 420 006a D317     		asrs	r3, r2, #31
 421 006c CB1A     		subs	r3, r1, r3
 422 006e 42F21071 		movw	r1, #10000
 423 0072 01FB03F3 		mul	r3, r1, r3
 424 0076 D31A     		subs	r3, r2, r3
 425 0078 B54A     		ldr	r2, .L223+12
 426 007a 82FB0312 		smull	r1, r2, r2, r3
 427 007e 9111     		asrs	r1, r2, #6
 428 0080 DA17     		asrs	r2, r3, #31
 429 0082 8A1A     		subs	r2, r1, r2
 430 0084 4FF47A71 		mov	r1, #1000
 431 0088 01FB02F2 		mul	r2, r1, r2
 432 008c 9A1A     		subs	r2, r3, r2
 433 008e B14B     		ldr	r3, .L223+16
 434 0090 83FB0213 		smull	r1, r3, r3, r2
 435 0094 5911     		asrs	r1, r3, #5
 436 0096 D317     		asrs	r3, r2, #31
 437 0098 CB1A     		subs	r3, r1, r3
 438 009a DBB2     		uxtb	r3, r3
 439 009c 3033     		adds	r3, r3, #48
 440 009e DAB2     		uxtb	r2, r3
 441 00a0 AA4B     		ldr	r3, .L223+8
 442 00a2 DA70     		strb	r2, [r3, #3]
  85:printer.c     **** 	sale_number[2]=((((int_salenumber%10000)%1000)%100)/10)+48;	
 443              		.loc 1 85 0
 444 00a4 A74B     		ldr	r3, .L223
 445 00a6 1B78     		ldrb	r3, [r3]	@ zero_extendqisi2
 446 00a8 A74A     		ldr	r2, .L223+4
 447 00aa 82FB0312 		smull	r1, r2, r2, r3
 448 00ae 1113     		asrs	r1, r2, #12
ARM GAS  C:\Users\THERMA~1\AppData\Local\Temp\ccXswU2c.s 			page 13


 449 00b0 DA17     		asrs	r2, r3, #31
 450 00b2 8A1A     		subs	r2, r1, r2
 451 00b4 42F21071 		movw	r1, #10000
 452 00b8 01FB02F2 		mul	r2, r1, r2
 453 00bc 9A1A     		subs	r2, r3, r2
 454 00be A44B     		ldr	r3, .L223+12
 455 00c0 83FB0213 		smull	r1, r3, r3, r2
 456 00c4 9911     		asrs	r1, r3, #6
 457 00c6 D317     		asrs	r3, r2, #31
 458 00c8 CB1A     		subs	r3, r1, r3
 459 00ca 4FF47A71 		mov	r1, #1000
 460 00ce 01FB03F3 		mul	r3, r1, r3
 461 00d2 D31A     		subs	r3, r2, r3
 462 00d4 9F4A     		ldr	r2, .L223+16
 463 00d6 82FB0312 		smull	r1, r2, r2, r3
 464 00da 5111     		asrs	r1, r2, #5
 465 00dc DA17     		asrs	r2, r3, #31
 466 00de 8A1A     		subs	r2, r1, r2
 467 00e0 6421     		movs	r1, #100
 468 00e2 01FB02F2 		mul	r2, r1, r2
 469 00e6 9A1A     		subs	r2, r3, r2
 470 00e8 9B4B     		ldr	r3, .L223+20
 471 00ea 83FB0213 		smull	r1, r3, r3, r2
 472 00ee 9910     		asrs	r1, r3, #2
 473 00f0 D317     		asrs	r3, r2, #31
 474 00f2 CB1A     		subs	r3, r1, r3
 475 00f4 DBB2     		uxtb	r3, r3
 476 00f6 3033     		adds	r3, r3, #48
 477 00f8 DAB2     		uxtb	r2, r3
 478 00fa 944B     		ldr	r3, .L223+8
 479 00fc 9A70     		strb	r2, [r3, #2]
  86:printer.c     **** 	sale_number[1]=((((int_salenumber%10000)%1000)%100)%10)+48;
 480              		.loc 1 86 0
 481 00fe 914B     		ldr	r3, .L223
 482 0100 1B78     		ldrb	r3, [r3]	@ zero_extendqisi2
 483 0102 914A     		ldr	r2, .L223+4
 484 0104 82FB0312 		smull	r1, r2, r2, r3
 485 0108 1113     		asrs	r1, r2, #12
 486 010a DA17     		asrs	r2, r3, #31
 487 010c 8A1A     		subs	r2, r1, r2
 488 010e 42F21071 		movw	r1, #10000
 489 0112 01FB02F2 		mul	r2, r1, r2
 490 0116 9A1A     		subs	r2, r3, r2
 491 0118 8D4B     		ldr	r3, .L223+12
 492 011a 83FB0213 		smull	r1, r3, r3, r2
 493 011e 9911     		asrs	r1, r3, #6
 494 0120 D317     		asrs	r3, r2, #31
 495 0122 CB1A     		subs	r3, r1, r3
 496 0124 4FF47A71 		mov	r1, #1000
 497 0128 01FB03F3 		mul	r3, r1, r3
 498 012c D31A     		subs	r3, r2, r3
 499 012e 894A     		ldr	r2, .L223+16
 500 0130 82FB0312 		smull	r1, r2, r2, r3
 501 0134 5111     		asrs	r1, r2, #5
 502 0136 DA17     		asrs	r2, r3, #31
 503 0138 8A1A     		subs	r2, r1, r2
 504 013a 6421     		movs	r1, #100
ARM GAS  C:\Users\THERMA~1\AppData\Local\Temp\ccXswU2c.s 			page 14


 505 013c 01FB02F2 		mul	r2, r1, r2
 506 0140 9A1A     		subs	r2, r3, r2
 507 0142 854B     		ldr	r3, .L223+20
 508 0144 83FB0213 		smull	r1, r3, r3, r2
 509 0148 9910     		asrs	r1, r3, #2
 510 014a D317     		asrs	r3, r2, #31
 511 014c C91A     		subs	r1, r1, r3
 512 014e 0B46     		mov	r3, r1
 513 0150 9B00     		lsls	r3, r3, #2
 514 0152 0B44     		add	r3, r3, r1
 515 0154 5B00     		lsls	r3, r3, #1
 516 0156 D11A     		subs	r1, r2, r3
 517 0158 CBB2     		uxtb	r3, r1
 518 015a 3033     		adds	r3, r3, #48
 519 015c DAB2     		uxtb	r2, r3
 520 015e 7B4B     		ldr	r3, .L223+8
 521 0160 5A70     		strb	r2, [r3, #1]
 522              	.LBB2:
  87:printer.c     ****     for(uint8 i = 1; i<6; i++){
 523              		.loc 1 87 0
 524 0162 0123     		movs	r3, #1
 525 0164 87F86630 		strb	r3, [r7, #102]
 526 0168 0FE0     		b	.L2
 527              	.L3:
  88:printer.c     ****         EEPROM_1_WriteByte(sale_number[i],i);
 528              		.loc 1 88 0 discriminator 3
 529 016a 97F86630 		ldrb	r3, [r7, #102]	@ zero_extendqisi2
 530 016e 774A     		ldr	r2, .L223+8
 531 0170 D35C     		ldrb	r3, [r2, r3]	@ zero_extendqisi2
 532 0172 97F86620 		ldrb	r2, [r7, #102]	@ zero_extendqisi2
 533 0176 92B2     		uxth	r2, r2
 534 0178 1146     		mov	r1, r2
 535 017a 1846     		mov	r0, r3
 536 017c FFF7FEFF 		bl	EEPROM_1_WriteByte
  87:printer.c     ****     for(uint8 i = 1; i<6; i++){
 537              		.loc 1 87 0 discriminator 3
 538 0180 97F86630 		ldrb	r3, [r7, #102]	@ zero_extendqisi2
 539 0184 0133     		adds	r3, r3, #1
 540 0186 87F86630 		strb	r3, [r7, #102]
 541              	.L2:
  87:printer.c     ****     for(uint8 i = 1; i<6; i++){
 542              		.loc 1 87 0 is_stmt 0 discriminator 1
 543 018a 97F86630 		ldrb	r3, [r7, #102]	@ zero_extendqisi2
 544 018e 052B     		cmp	r3, #5
 545 0190 EBD9     		bls	.L3
 546              	.LBE2:
  89:printer.c     ****     }
  90:printer.c     ****     while(screen_size == 0){
 547              		.loc 1 90 0 is_stmt 1
 548 0192 1BE0     		b	.L4
 549              	.L7:
 550              	.LBB3:
  91:printer.c     ****         for(uint8 LCDRx = 0; LCDRx < 6; LCDRx++){
 551              		.loc 1 91 0
 552 0194 0023     		movs	r3, #0
 553 0196 87F86530 		strb	r3, [r7, #101]
 554 019a 0BE0     		b	.L5
ARM GAS  C:\Users\THERMA~1\AppData\Local\Temp\ccXswU2c.s 			page 15


 555              	.L6:
  92:printer.c     ****             screen_PutChar(ASK_TIME[LCDRx]);
 556              		.loc 1 92 0 discriminator 3
 557 019c 97F86530 		ldrb	r3, [r7, #101]	@ zero_extendqisi2
 558 01a0 6E4A     		ldr	r2, .L223+24
 559 01a2 D35C     		ldrb	r3, [r2, r3]	@ zero_extendqisi2
 560 01a4 1846     		mov	r0, r3
 561 01a6 FFF7FEFF 		bl	screen_PutChar
  91:printer.c     ****         for(uint8 LCDRx = 0; LCDRx < 6; LCDRx++){
 562              		.loc 1 91 0 discriminator 3
 563 01aa 97F86530 		ldrb	r3, [r7, #101]	@ zero_extendqisi2
 564 01ae 0133     		adds	r3, r3, #1
 565 01b0 87F86530 		strb	r3, [r7, #101]
 566              	.L5:
  91:printer.c     ****         for(uint8 LCDRx = 0; LCDRx < 6; LCDRx++){
 567              		.loc 1 91 0 is_stmt 0 discriminator 1
 568 01b4 97F86530 		ldrb	r3, [r7, #101]	@ zero_extendqisi2
 569 01b8 052B     		cmp	r3, #5
 570 01ba EFD9     		bls	.L6
 571              	.LBE3:
  93:printer.c     ****         }
  94:printer.c     ****         CyDelay(5);
 572              		.loc 1 94 0 is_stmt 1
 573 01bc 0520     		movs	r0, #5
 574 01be FFF7FEFF 		bl	CyDelay
  95:printer.c     ****         screen_size = screen_GetRxBufferSize();
 575              		.loc 1 95 0
 576 01c2 FFF7FEFF 		bl	screen_GetRxBufferSize
 577 01c6 0346     		mov	r3, r0
 578 01c8 87F86730 		strb	r3, [r7, #103]
 579              	.L4:
  90:printer.c     ****         for(uint8 LCDRx = 0; LCDRx < 6; LCDRx++){
 580              		.loc 1 90 0
 581 01cc 97F96730 		ldrsb	r3, [r7, #103]
 582 01d0 002B     		cmp	r3, #0
 583 01d2 DFD0     		beq	.L7
  96:printer.c     ****     }
  97:printer.c     ****     if(screen_size >= 13 ){
 584              		.loc 1 97 0
 585 01d4 97F96730 		ldrsb	r3, [r7, #103]
 586 01d8 0C2B     		cmp	r3, #12
 587 01da 19DD     		ble	.L8
 588              	.LBB4:
  98:printer.c     ****         for(uint8 LCDRx = 0; LCDRx < screen_size; LCDRx++){
 589              		.loc 1 98 0
 590 01dc 0023     		movs	r3, #0
 591 01de 87F86430 		strb	r3, [r7, #100]
 592 01e2 0CE0     		b	.L9
 593              	.L10:
  99:printer.c     ****             touch1[LCDRx] = screen_ReadRxData();
 594              		.loc 1 99 0 discriminator 3
 595 01e4 97F86440 		ldrb	r4, [r7, #100]	@ zero_extendqisi2
 596 01e8 FFF7FEFF 		bl	screen_ReadRxData
 597 01ec 0346     		mov	r3, r0
 598 01ee 1A46     		mov	r2, r3
 599 01f0 5B4B     		ldr	r3, .L223+28
 600 01f2 1A55     		strb	r2, [r3, r4]
ARM GAS  C:\Users\THERMA~1\AppData\Local\Temp\ccXswU2c.s 			page 16


  98:printer.c     ****         for(uint8 LCDRx = 0; LCDRx < screen_size; LCDRx++){
 601              		.loc 1 98 0 discriminator 3
 602 01f4 97F86430 		ldrb	r3, [r7, #100]	@ zero_extendqisi2
 603 01f8 0133     		adds	r3, r3, #1
 604 01fa 87F86430 		strb	r3, [r7, #100]
 605              	.L9:
  98:printer.c     ****         for(uint8 LCDRx = 0; LCDRx < screen_size; LCDRx++){
 606              		.loc 1 98 0 is_stmt 0 discriminator 1
 607 01fe 97F86420 		ldrb	r2, [r7, #100]	@ zero_extendqisi2
 608 0202 97F96730 		ldrsb	r3, [r7, #103]
 609 0206 9A42     		cmp	r2, r3
 610 0208 ECDB     		blt	.L10
 611              	.LBE4:
 100:printer.c     ****         }
 101:printer.c     ****         screen_size = 0;
 612              		.loc 1 101 0 is_stmt 1
 613 020a 0023     		movs	r3, #0
 614 020c 87F86730 		strb	r3, [r7, #103]
 615              	.L8:
 616              	.LBB5:
 102:printer.c     ****     }
 103:printer.c     **** 	for(uint8 x = 0; x < 32; x ++){
 617              		.loc 1 103 0
 618 0210 0023     		movs	r3, #0
 619 0212 87F86330 		strb	r3, [r7, #99]
 620 0216 0BE0     		b	.L11
 621              	.L12:
 104:printer.c     **** 		PRINTER_A_PutChar(msn_EDS[x]);
 622              		.loc 1 104 0 discriminator 3
 623 0218 97F86330 		ldrb	r3, [r7, #99]	@ zero_extendqisi2
 624 021c 514A     		ldr	r2, .L223+32
 625 021e D35C     		ldrb	r3, [r2, r3]	@ zero_extendqisi2
 626 0220 1846     		mov	r0, r3
 627 0222 FFF7FEFF 		bl	PRINTER_A_PutChar
 103:printer.c     **** 		PRINTER_A_PutChar(msn_EDS[x]);
 628              		.loc 1 103 0 discriminator 3
 629 0226 97F86330 		ldrb	r3, [r7, #99]	@ zero_extendqisi2
 630 022a 0133     		adds	r3, r3, #1
 631 022c 87F86330 		strb	r3, [r7, #99]
 632              	.L11:
 103:printer.c     **** 		PRINTER_A_PutChar(msn_EDS[x]);
 633              		.loc 1 103 0 is_stmt 0 discriminator 1
 634 0230 97F86330 		ldrb	r3, [r7, #99]	@ zero_extendqisi2
 635 0234 1F2B     		cmp	r3, #31
 636 0236 EFD9     		bls	.L12
 637              	.LBE5:
 105:printer.c     **** 	}
 106:printer.c     ****     PRINTER_A_PutChar(LINE_FEED);
 638              		.loc 1 106 0 is_stmt 1
 639 0238 4B4B     		ldr	r3, .L223+36
 640 023a 1B78     		ldrb	r3, [r3]	@ zero_extendqisi2
 641 023c 1846     		mov	r0, r3
 642 023e FFF7FEFF 		bl	PRINTER_A_PutChar
 643              	.LBB6:
 107:printer.c     **** 	for(uint8 x = 0; x < 32; x ++){
 644              		.loc 1 107 0
 645 0242 0023     		movs	r3, #0
ARM GAS  C:\Users\THERMA~1\AppData\Local\Temp\ccXswU2c.s 			page 17


 646 0244 87F86230 		strb	r3, [r7, #98]
 647 0248 0BE0     		b	.L13
 648              	.L14:
 108:printer.c     **** 		PRINTER_A_PutChar(msn_EDS2[x]);
 649              		.loc 1 108 0 discriminator 3
 650 024a 97F86230 		ldrb	r3, [r7, #98]	@ zero_extendqisi2
 651 024e 474A     		ldr	r2, .L223+40
 652 0250 D35C     		ldrb	r3, [r2, r3]	@ zero_extendqisi2
 653 0252 1846     		mov	r0, r3
 654 0254 FFF7FEFF 		bl	PRINTER_A_PutChar
 107:printer.c     **** 	for(uint8 x = 0; x < 32; x ++){
 655              		.loc 1 107 0 discriminator 3
 656 0258 97F86230 		ldrb	r3, [r7, #98]	@ zero_extendqisi2
 657 025c 0133     		adds	r3, r3, #1
 658 025e 87F86230 		strb	r3, [r7, #98]
 659              	.L13:
 107:printer.c     **** 	for(uint8 x = 0; x < 32; x ++){
 660              		.loc 1 107 0 is_stmt 0 discriminator 1
 661 0262 97F86230 		ldrb	r3, [r7, #98]	@ zero_extendqisi2
 662 0266 1F2B     		cmp	r3, #31
 663 0268 EFD9     		bls	.L14
 664              	.LBE6:
 109:printer.c     **** 	}
 110:printer.c     **** 	/*PRINTER_A_PutChar(LINE_FEED);
 111:printer.c     **** 	for(uint8 x = 0; x < 32; x ++){
 112:printer.c     **** 		PRINTER_A_PutChar(msn_EDS3[x]);
 113:printer.c     **** 	}*/
 114:printer.c     **** 	PRINTER_A_PutChar(LINE_FEED);
 665              		.loc 1 114 0 is_stmt 1
 666 026a 3F4B     		ldr	r3, .L223+36
 667 026c 1B78     		ldrb	r3, [r3]	@ zero_extendqisi2
 668 026e 1846     		mov	r0, r3
 669 0270 FFF7FEFF 		bl	PRINTER_A_PutChar
 670              	.LBB7:
 115:printer.c     **** 	for(uint8 x = 0; x < 32; x ++){
 671              		.loc 1 115 0
 672 0274 0023     		movs	r3, #0
 673 0276 87F86130 		strb	r3, [r7, #97]
 674 027a 0BE0     		b	.L15
 675              	.L16:
 116:printer.c     **** 		PRINTER_A_PutChar(msn_EDS4[x]);
 676              		.loc 1 116 0 discriminator 3
 677 027c 97F86130 		ldrb	r3, [r7, #97]	@ zero_extendqisi2
 678 0280 3B4A     		ldr	r2, .L223+44
 679 0282 D35C     		ldrb	r3, [r2, r3]	@ zero_extendqisi2
 680 0284 1846     		mov	r0, r3
 681 0286 FFF7FEFF 		bl	PRINTER_A_PutChar
 115:printer.c     **** 	for(uint8 x = 0; x < 32; x ++){
 682              		.loc 1 115 0 discriminator 3
 683 028a 97F86130 		ldrb	r3, [r7, #97]	@ zero_extendqisi2
 684 028e 0133     		adds	r3, r3, #1
 685 0290 87F86130 		strb	r3, [r7, #97]
 686              	.L15:
 115:printer.c     **** 	for(uint8 x = 0; x < 32; x ++){
 687              		.loc 1 115 0 is_stmt 0 discriminator 1
 688 0294 97F86130 		ldrb	r3, [r7, #97]	@ zero_extendqisi2
 689 0298 1F2B     		cmp	r3, #31
ARM GAS  C:\Users\THERMA~1\AppData\Local\Temp\ccXswU2c.s 			page 18


 690 029a EFD9     		bls	.L16
 691              	.LBE7:
 117:printer.c     **** 	}
 118:printer.c     ****     PRINTER_A_PutChar(LINE_FEED);
 692              		.loc 1 118 0 is_stmt 1
 693 029c 324B     		ldr	r3, .L223+36
 694 029e 1B78     		ldrb	r3, [r3]	@ zero_extendqisi2
 695 02a0 1846     		mov	r0, r3
 696 02a2 FFF7FEFF 		bl	PRINTER_A_PutChar
 697              	.LBB8:
 119:printer.c     ****     for(uint8 x = 0; x < 32; x ++){
 698              		.loc 1 119 0
 699 02a6 0023     		movs	r3, #0
 700 02a8 87F86030 		strb	r3, [r7, #96]
 701 02ac 0BE0     		b	.L17
 702              	.L18:
 120:printer.c     **** 		PRINTER_A_PutChar(msn_EDS5[x]);
 703              		.loc 1 120 0 discriminator 3
 704 02ae 97F86030 		ldrb	r3, [r7, #96]	@ zero_extendqisi2
 705 02b2 304A     		ldr	r2, .L223+48
 706 02b4 D35C     		ldrb	r3, [r2, r3]	@ zero_extendqisi2
 707 02b6 1846     		mov	r0, r3
 708 02b8 FFF7FEFF 		bl	PRINTER_A_PutChar
 119:printer.c     ****     for(uint8 x = 0; x < 32; x ++){
 709              		.loc 1 119 0 discriminator 3
 710 02bc 97F86030 		ldrb	r3, [r7, #96]	@ zero_extendqisi2
 711 02c0 0133     		adds	r3, r3, #1
 712 02c2 87F86030 		strb	r3, [r7, #96]
 713              	.L17:
 119:printer.c     ****     for(uint8 x = 0; x < 32; x ++){
 714              		.loc 1 119 0 is_stmt 0 discriminator 1
 715 02c6 97F86030 		ldrb	r3, [r7, #96]	@ zero_extendqisi2
 716 02ca 1F2B     		cmp	r3, #31
 717 02cc EFD9     		bls	.L18
 718              	.LBE8:
 121:printer.c     **** 	}
 122:printer.c     ****     PRINTER_A_PutChar(LINE_FEED);
 719              		.loc 1 122 0 is_stmt 1
 720 02ce 264B     		ldr	r3, .L223+36
 721 02d0 1B78     		ldrb	r3, [r3]	@ zero_extendqisi2
 722 02d2 1846     		mov	r0, r3
 723 02d4 FFF7FEFF 		bl	PRINTER_A_PutChar
 724              	.LBB9:
 123:printer.c     ****     for(uint8 x = 0; x < 32; x ++){
 725              		.loc 1 123 0
 726 02d8 0023     		movs	r3, #0
 727 02da 87F85F30 		strb	r3, [r7, #95]
 728 02de 0BE0     		b	.L19
 729              	.L20:
 124:printer.c     **** 		PRINTER_A_PutChar(msn_EDS6[x]);
 730              		.loc 1 124 0 discriminator 3
 731 02e0 97F85F30 		ldrb	r3, [r7, #95]	@ zero_extendqisi2
 732 02e4 244A     		ldr	r2, .L223+52
 733 02e6 D35C     		ldrb	r3, [r2, r3]	@ zero_extendqisi2
 734 02e8 1846     		mov	r0, r3
 735 02ea FFF7FEFF 		bl	PRINTER_A_PutChar
 123:printer.c     ****     for(uint8 x = 0; x < 32; x ++){
ARM GAS  C:\Users\THERMA~1\AppData\Local\Temp\ccXswU2c.s 			page 19


 736              		.loc 1 123 0 discriminator 3
 737 02ee 97F85F30 		ldrb	r3, [r7, #95]	@ zero_extendqisi2
 738 02f2 0133     		adds	r3, r3, #1
 739 02f4 87F85F30 		strb	r3, [r7, #95]
 740              	.L19:
 123:printer.c     ****     for(uint8 x = 0; x < 32; x ++){
 741              		.loc 1 123 0 is_stmt 0 discriminator 1
 742 02f8 97F85F30 		ldrb	r3, [r7, #95]	@ zero_extendqisi2
 743 02fc 1F2B     		cmp	r3, #31
 744 02fe EFD9     		bls	.L20
 745              	.LBE9:
 125:printer.c     **** 	}    
 126:printer.c     ****     PRINTER_A_PutChar(LINE_FEED);
 746              		.loc 1 126 0 is_stmt 1
 747 0300 194B     		ldr	r3, .L223+36
 748 0302 1B78     		ldrb	r3, [r3]	@ zero_extendqisi2
 749 0304 1846     		mov	r0, r3
 750 0306 FFF7FEFF 		bl	PRINTER_A_PutChar
 751              	.LBB10:
 127:printer.c     **** 	for(uint8 x = 0; x < 32; x ++){
 752              		.loc 1 127 0
 753 030a 0023     		movs	r3, #0
 754 030c 87F85E30 		strb	r3, [r7, #94]
 755 0310 0BE0     		b	.L21
 756              	.L22:
 128:printer.c     **** 		PRINTER_A_PutChar(SEPARATOR[x]);
 757              		.loc 1 128 0 discriminator 3
 758 0312 97F85E30 		ldrb	r3, [r7, #94]	@ zero_extendqisi2
 759 0316 194A     		ldr	r2, .L223+56
 760 0318 D35C     		ldrb	r3, [r2, r3]	@ zero_extendqisi2
 761 031a 1846     		mov	r0, r3
 762 031c FFF7FEFF 		bl	PRINTER_A_PutChar
 127:printer.c     **** 	for(uint8 x = 0; x < 32; x ++){
 763              		.loc 1 127 0 discriminator 3
 764 0320 97F85E30 		ldrb	r3, [r7, #94]	@ zero_extendqisi2
 765 0324 0133     		adds	r3, r3, #1
 766 0326 87F85E30 		strb	r3, [r7, #94]
 767              	.L21:
 127:printer.c     **** 	for(uint8 x = 0; x < 32; x ++){
 768              		.loc 1 127 0 is_stmt 0 discriminator 1
 769 032a 97F85E30 		ldrb	r3, [r7, #94]	@ zero_extendqisi2
 770 032e 1F2B     		cmp	r3, #31
 771 0330 EFD9     		bls	.L22
 772              	.LBE10:
 129:printer.c     **** 	}
 130:printer.c     ****     PRINTER_A_PutChar(LINE_FEED);
 773              		.loc 1 130 0 is_stmt 1
 774 0332 0D4B     		ldr	r3, .L223+36
 775 0334 1B78     		ldrb	r3, [r3]	@ zero_extendqisi2
 776 0336 1846     		mov	r0, r3
 777 0338 FFF7FEFF 		bl	PRINTER_A_PutChar
 778              	.LBB11:
 131:printer.c     ****     /********** FECHA ***************/
 132:printer.c     **** 	for(uint8 x = 0; x < 13; x ++){
 779              		.loc 1 132 0
 780 033c 0023     		movs	r3, #0
 781 033e 87F85D30 		strb	r3, [r7, #93]
ARM GAS  C:\Users\THERMA~1\AppData\Local\Temp\ccXswU2c.s 			page 20


 782 0342 29E0     		b	.L23
 783              	.L224:
 784              		.align	2
 785              	.L223:
 786 0344 00000000 		.word	int_salenumber
 787 0348 AD8BDB68 		.word	1759218605
 788 034c 00000000 		.word	sale_number
 789 0350 D34D6210 		.word	274877907
 790 0354 1F85EB51 		.word	1374389535
 791 0358 67666666 		.word	1717986919
 792 035c 00000000 		.word	ASK_TIME
 793 0360 00000000 		.word	touch1
 794 0364 00000000 		.word	msn_EDS
 795 0368 00000000 		.word	LINE_FEED
 796 036c 00000000 		.word	msn_EDS2
 797 0370 00000000 		.word	msn_EDS4
 798 0374 00000000 		.word	msn_EDS5
 799 0378 00000000 		.word	msn_EDS6
 800 037c 00000000 		.word	SEPARATOR
 801              	.L24:
 133:printer.c     **** 		PRINTER_A_PutChar(msn_fecha[x]);
 802              		.loc 1 133 0 discriminator 3
 803 0380 97F85D30 		ldrb	r3, [r7, #93]	@ zero_extendqisi2
 804 0384 BD4A     		ldr	r2, .L225
 805 0386 D35C     		ldrb	r3, [r2, r3]	@ zero_extendqisi2
 806 0388 1846     		mov	r0, r3
 807 038a FFF7FEFF 		bl	PRINTER_A_PutChar
 132:printer.c     **** 		PRINTER_A_PutChar(msn_fecha[x]);
 808              		.loc 1 132 0 discriminator 3
 809 038e 97F85D30 		ldrb	r3, [r7, #93]	@ zero_extendqisi2
 810 0392 0133     		adds	r3, r3, #1
 811 0394 87F85D30 		strb	r3, [r7, #93]
 812              	.L23:
 132:printer.c     **** 		PRINTER_A_PutChar(msn_fecha[x]);
 813              		.loc 1 132 0 is_stmt 0 discriminator 1
 814 0398 97F85D30 		ldrb	r3, [r7, #93]	@ zero_extendqisi2
 815 039c 0C2B     		cmp	r3, #12
 816 039e EFD9     		bls	.L24
 817              	.LBE11:
 134:printer.c     **** 	}
 135:printer.c     ****     PRINTER_A_PutChar(((touch1[8] >> 4) + 0x30)) ;
 818              		.loc 1 135 0 is_stmt 1
 819 03a0 B74B     		ldr	r3, .L225+4
 820 03a2 1B7A     		ldrb	r3, [r3, #8]	@ zero_extendqisi2
 821 03a4 1B09     		lsrs	r3, r3, #4
 822 03a6 DBB2     		uxtb	r3, r3
 823 03a8 3033     		adds	r3, r3, #48
 824 03aa DBB2     		uxtb	r3, r3
 825 03ac 1846     		mov	r0, r3
 826 03ae FFF7FEFF 		bl	PRINTER_A_PutChar
 136:printer.c     **** 	PRINTER_A_PutChar(((touch1[8] & 0x0F) + 0x30));
 827              		.loc 1 136 0
 828 03b2 B34B     		ldr	r3, .L225+4
 829 03b4 1B7A     		ldrb	r3, [r3, #8]	@ zero_extendqisi2
 830 03b6 03F00F03 		and	r3, r3, #15
 831 03ba DBB2     		uxtb	r3, r3
 832 03bc 3033     		adds	r3, r3, #48
ARM GAS  C:\Users\THERMA~1\AppData\Local\Temp\ccXswU2c.s 			page 21


 833 03be DBB2     		uxtb	r3, r3
 834 03c0 1846     		mov	r0, r3
 835 03c2 FFF7FEFF 		bl	PRINTER_A_PutChar
 137:printer.c     ****     PRINTER_A_PutChar('/');
 836              		.loc 1 137 0
 837 03c6 2F20     		movs	r0, #47
 838 03c8 FFF7FEFF 		bl	PRINTER_A_PutChar
 138:printer.c     ****     PRINTER_A_PutChar(((touch1[7] >> 4) + 0x30)) ;
 839              		.loc 1 138 0
 840 03cc AC4B     		ldr	r3, .L225+4
 841 03ce DB79     		ldrb	r3, [r3, #7]	@ zero_extendqisi2
 842 03d0 1B09     		lsrs	r3, r3, #4
 843 03d2 DBB2     		uxtb	r3, r3
 844 03d4 3033     		adds	r3, r3, #48
 845 03d6 DBB2     		uxtb	r3, r3
 846 03d8 1846     		mov	r0, r3
 847 03da FFF7FEFF 		bl	PRINTER_A_PutChar
 139:printer.c     ****     PRINTER_A_PutChar(((touch1[7] & 0x0F) + 0x30));
 848              		.loc 1 139 0
 849 03de A84B     		ldr	r3, .L225+4
 850 03e0 DB79     		ldrb	r3, [r3, #7]	@ zero_extendqisi2
 851 03e2 03F00F03 		and	r3, r3, #15
 852 03e6 DBB2     		uxtb	r3, r3
 853 03e8 3033     		adds	r3, r3, #48
 854 03ea DBB2     		uxtb	r3, r3
 855 03ec 1846     		mov	r0, r3
 856 03ee FFF7FEFF 		bl	PRINTER_A_PutChar
 140:printer.c     ****     PRINTER_A_PutChar('/');    
 857              		.loc 1 140 0
 858 03f2 2F20     		movs	r0, #47
 859 03f4 FFF7FEFF 		bl	PRINTER_A_PutChar
 141:printer.c     ****     PRINTER_A_PutChar(((touch1[6] >> 4) + 0x30));
 860              		.loc 1 141 0
 861 03f8 A14B     		ldr	r3, .L225+4
 862 03fa 9B79     		ldrb	r3, [r3, #6]	@ zero_extendqisi2
 863 03fc 1B09     		lsrs	r3, r3, #4
 864 03fe DBB2     		uxtb	r3, r3
 865 0400 3033     		adds	r3, r3, #48
 866 0402 DBB2     		uxtb	r3, r3
 867 0404 1846     		mov	r0, r3
 868 0406 FFF7FEFF 		bl	PRINTER_A_PutChar
 142:printer.c     ****     PRINTER_A_PutChar(((touch1[6] & 0x0F) + 0x30));
 869              		.loc 1 142 0
 870 040a 9D4B     		ldr	r3, .L225+4
 871 040c 9B79     		ldrb	r3, [r3, #6]	@ zero_extendqisi2
 872 040e 03F00F03 		and	r3, r3, #15
 873 0412 DBB2     		uxtb	r3, r3
 874 0414 3033     		adds	r3, r3, #48
 875 0416 DBB2     		uxtb	r3, r3
 876 0418 1846     		mov	r0, r3
 877 041a FFF7FEFF 		bl	PRINTER_A_PutChar
 143:printer.c     **** 	PRINTER_A_PutChar(LINE_FEED);
 878              		.loc 1 143 0
 879 041e 994B     		ldr	r3, .L225+8
 880 0420 1B78     		ldrb	r3, [r3]	@ zero_extendqisi2
 881 0422 1846     		mov	r0, r3
 882 0424 FFF7FEFF 		bl	PRINTER_A_PutChar
ARM GAS  C:\Users\THERMA~1\AppData\Local\Temp\ccXswU2c.s 			page 22


 883              	.LBB12:
 144:printer.c     ****     /********** HORA ***************/
 145:printer.c     **** 	for(uint8 x = 0; x < 13; x ++){
 884              		.loc 1 145 0
 885 0428 0023     		movs	r3, #0
 886 042a 87F85C30 		strb	r3, [r7, #92]
 887 042e 0BE0     		b	.L25
 888              	.L26:
 146:printer.c     **** 		PRINTER_A_PutChar(msn_hora[x]);
 889              		.loc 1 146 0 discriminator 3
 890 0430 97F85C30 		ldrb	r3, [r7, #92]	@ zero_extendqisi2
 891 0434 944A     		ldr	r2, .L225+12
 892 0436 D35C     		ldrb	r3, [r2, r3]	@ zero_extendqisi2
 893 0438 1846     		mov	r0, r3
 894 043a FFF7FEFF 		bl	PRINTER_A_PutChar
 145:printer.c     **** 		PRINTER_A_PutChar(msn_hora[x]);
 895              		.loc 1 145 0 discriminator 3
 896 043e 97F85C30 		ldrb	r3, [r7, #92]	@ zero_extendqisi2
 897 0442 0133     		adds	r3, r3, #1
 898 0444 87F85C30 		strb	r3, [r7, #92]
 899              	.L25:
 145:printer.c     **** 		PRINTER_A_PutChar(msn_hora[x]);
 900              		.loc 1 145 0 is_stmt 0 discriminator 1
 901 0448 97F85C30 		ldrb	r3, [r7, #92]	@ zero_extendqisi2
 902 044c 0C2B     		cmp	r3, #12
 903 044e EFD9     		bls	.L26
 904              	.LBE12:
 147:printer.c     **** 	}
 148:printer.c     ****     PRINTER_A_PutChar(((touch1[10] >> 4) + 0x30)) ;
 905              		.loc 1 148 0 is_stmt 1
 906 0450 8B4B     		ldr	r3, .L225+4
 907 0452 9B7A     		ldrb	r3, [r3, #10]	@ zero_extendqisi2
 908 0454 1B09     		lsrs	r3, r3, #4
 909 0456 DBB2     		uxtb	r3, r3
 910 0458 3033     		adds	r3, r3, #48
 911 045a DBB2     		uxtb	r3, r3
 912 045c 1846     		mov	r0, r3
 913 045e FFF7FEFF 		bl	PRINTER_A_PutChar
 149:printer.c     ****     PRINTER_A_PutChar(((touch1[10] & 0x0F) + 0x30));
 914              		.loc 1 149 0
 915 0462 874B     		ldr	r3, .L225+4
 916 0464 9B7A     		ldrb	r3, [r3, #10]	@ zero_extendqisi2
 917 0466 03F00F03 		and	r3, r3, #15
 918 046a DBB2     		uxtb	r3, r3
 919 046c 3033     		adds	r3, r3, #48
 920 046e DBB2     		uxtb	r3, r3
 921 0470 1846     		mov	r0, r3
 922 0472 FFF7FEFF 		bl	PRINTER_A_PutChar
 150:printer.c     ****     PRINTER_A_PutChar(':');
 923              		.loc 1 150 0
 924 0476 3A20     		movs	r0, #58
 925 0478 FFF7FEFF 		bl	PRINTER_A_PutChar
 151:printer.c     ****     PRINTER_A_PutChar(((touch1[11] >> 4) + 0x30)) ;
 926              		.loc 1 151 0
 927 047c 804B     		ldr	r3, .L225+4
 928 047e DB7A     		ldrb	r3, [r3, #11]	@ zero_extendqisi2
 929 0480 1B09     		lsrs	r3, r3, #4
ARM GAS  C:\Users\THERMA~1\AppData\Local\Temp\ccXswU2c.s 			page 23


 930 0482 DBB2     		uxtb	r3, r3
 931 0484 3033     		adds	r3, r3, #48
 932 0486 DBB2     		uxtb	r3, r3
 933 0488 1846     		mov	r0, r3
 934 048a FFF7FEFF 		bl	PRINTER_A_PutChar
 152:printer.c     ****     PRINTER_A_PutChar(((touch1[11] & 0x0F) + 0x30));
 935              		.loc 1 152 0
 936 048e 7C4B     		ldr	r3, .L225+4
 937 0490 DB7A     		ldrb	r3, [r3, #11]	@ zero_extendqisi2
 938 0492 03F00F03 		and	r3, r3, #15
 939 0496 DBB2     		uxtb	r3, r3
 940 0498 3033     		adds	r3, r3, #48
 941 049a DBB2     		uxtb	r3, r3
 942 049c 1846     		mov	r0, r3
 943 049e FFF7FEFF 		bl	PRINTER_A_PutChar
 153:printer.c     ****     PRINTER_A_PutChar(':');
 944              		.loc 1 153 0
 945 04a2 3A20     		movs	r0, #58
 946 04a4 FFF7FEFF 		bl	PRINTER_A_PutChar
 154:printer.c     ****     PRINTER_A_PutChar(((touch1[12] >> 4) + 0x30));
 947              		.loc 1 154 0
 948 04a8 754B     		ldr	r3, .L225+4
 949 04aa 1B7B     		ldrb	r3, [r3, #12]	@ zero_extendqisi2
 950 04ac 1B09     		lsrs	r3, r3, #4
 951 04ae DBB2     		uxtb	r3, r3
 952 04b0 3033     		adds	r3, r3, #48
 953 04b2 DBB2     		uxtb	r3, r3
 954 04b4 1846     		mov	r0, r3
 955 04b6 FFF7FEFF 		bl	PRINTER_A_PutChar
 155:printer.c     **** 	PRINTER_A_PutChar(((touch1[12] & 0x0F) + 0x30));
 956              		.loc 1 155 0
 957 04ba 714B     		ldr	r3, .L225+4
 958 04bc 1B7B     		ldrb	r3, [r3, #12]	@ zero_extendqisi2
 959 04be 03F00F03 		and	r3, r3, #15
 960 04c2 DBB2     		uxtb	r3, r3
 961 04c4 3033     		adds	r3, r3, #48
 962 04c6 DBB2     		uxtb	r3, r3
 963 04c8 1846     		mov	r0, r3
 964 04ca FFF7FEFF 		bl	PRINTER_A_PutChar
 156:printer.c     **** 	
 157:printer.c     ****     PRINTER_A_PutChar(LINE_FEED);
 965              		.loc 1 157 0
 966 04ce 6D4B     		ldr	r3, .L225+8
 967 04d0 1B78     		ldrb	r3, [r3]	@ zero_extendqisi2
 968 04d2 1846     		mov	r0, r3
 969 04d4 FFF7FEFF 		bl	PRINTER_A_PutChar
 970              	.LBB13:
 158:printer.c     ****     for(uint8 x = 0; x < 32; x ++){
 971              		.loc 1 158 0
 972 04d8 0023     		movs	r3, #0
 973 04da 87F85B30 		strb	r3, [r7, #91]
 974 04de 0BE0     		b	.L27
 975              	.L28:
 159:printer.c     **** 		PRINTER_A_PutChar(SEPARATOR[x]);
 976              		.loc 1 159 0 discriminator 3
 977 04e0 97F85B30 		ldrb	r3, [r7, #91]	@ zero_extendqisi2
 978 04e4 694A     		ldr	r2, .L225+16
ARM GAS  C:\Users\THERMA~1\AppData\Local\Temp\ccXswU2c.s 			page 24


 979 04e6 D35C     		ldrb	r3, [r2, r3]	@ zero_extendqisi2
 980 04e8 1846     		mov	r0, r3
 981 04ea FFF7FEFF 		bl	PRINTER_A_PutChar
 158:printer.c     ****     for(uint8 x = 0; x < 32; x ++){
 982              		.loc 1 158 0 discriminator 3
 983 04ee 97F85B30 		ldrb	r3, [r7, #91]	@ zero_extendqisi2
 984 04f2 0133     		adds	r3, r3, #1
 985 04f4 87F85B30 		strb	r3, [r7, #91]
 986              	.L27:
 158:printer.c     ****     for(uint8 x = 0; x < 32; x ++){
 987              		.loc 1 158 0 is_stmt 0 discriminator 1
 988 04f8 97F85B30 		ldrb	r3, [r7, #91]	@ zero_extendqisi2
 989 04fc 1F2B     		cmp	r3, #31
 990 04fe EFD9     		bls	.L28
 991              	.LBE13:
 160:printer.c     **** 	}
 161:printer.c     ****             
 162:printer.c     **** 	/***** body ******/
 163:printer.c     **** 	if(address == side.a.dir){
 992              		.loc 1 163 0 is_stmt 1
 993 0500 634B     		ldr	r3, .L225+20
 994 0502 1B78     		ldrb	r3, [r3]	@ zero_extendqisi2
 995 0504 FA79     		ldrb	r2, [r7, #7]	@ zero_extendqisi2
 996 0506 9A42     		cmp	r2, r3
 997 0508 40F02082 		bne	.L29
 164:printer.c     ****         if(side.a.Copy == 1){
 998              		.loc 1 164 0
 999 050c 604B     		ldr	r3, .L225+20
 1000 050e 93F83431 		ldrb	r3, [r3, #308]	@ zero_extendqisi2
 1001 0512 012B     		cmp	r3, #1
 1002 0514 2CD1     		bne	.L30
 1003              	.LBB14:
 165:printer.c     ****             for(uint8 x = 0; x < 32; x ++){
 1004              		.loc 1 165 0
 1005 0516 0023     		movs	r3, #0
 1006 0518 87F85A30 		strb	r3, [r7, #90]
 1007 051c 0BE0     		b	.L31
 1008              	.L32:
 166:printer.c     ****         		PRINTER_A_PutChar(msn_copy[x]);
 1009              		.loc 1 166 0 discriminator 3
 1010 051e 97F85A30 		ldrb	r3, [r7, #90]	@ zero_extendqisi2
 1011 0522 5C4A     		ldr	r2, .L225+24
 1012 0524 D35C     		ldrb	r3, [r2, r3]	@ zero_extendqisi2
 1013 0526 1846     		mov	r0, r3
 1014 0528 FFF7FEFF 		bl	PRINTER_A_PutChar
 165:printer.c     ****             for(uint8 x = 0; x < 32; x ++){
 1015              		.loc 1 165 0 discriminator 3
 1016 052c 97F85A30 		ldrb	r3, [r7, #90]	@ zero_extendqisi2
 1017 0530 0133     		adds	r3, r3, #1
 1018 0532 87F85A30 		strb	r3, [r7, #90]
 1019              	.L31:
 165:printer.c     ****             for(uint8 x = 0; x < 32; x ++){
 1020              		.loc 1 165 0 is_stmt 0 discriminator 1
 1021 0536 97F85A30 		ldrb	r3, [r7, #90]	@ zero_extendqisi2
 1022 053a 1F2B     		cmp	r3, #31
 1023 053c EFD9     		bls	.L32
 1024              	.LBE14:
ARM GAS  C:\Users\THERMA~1\AppData\Local\Temp\ccXswU2c.s 			page 25


 167:printer.c     ****         	}
 168:printer.c     ****             PRINTER_A_PutChar(LINE_FEED);
 1025              		.loc 1 168 0 is_stmt 1
 1026 053e 514B     		ldr	r3, .L225+8
 1027 0540 1B78     		ldrb	r3, [r3]	@ zero_extendqisi2
 1028 0542 1846     		mov	r0, r3
 1029 0544 FFF7FEFF 		bl	PRINTER_A_PutChar
 1030              	.LBB15:
 169:printer.c     ****             for(uint8 x = 0; x < 32; x ++){
 1031              		.loc 1 169 0
 1032 0548 0023     		movs	r3, #0
 1033 054a 87F85930 		strb	r3, [r7, #89]
 1034 054e 0BE0     		b	.L33
 1035              	.L34:
 170:printer.c     ****         		PRINTER_A_PutChar(SEPARATOR[x]);
 1036              		.loc 1 170 0 discriminator 3
 1037 0550 97F85930 		ldrb	r3, [r7, #89]	@ zero_extendqisi2
 1038 0554 4D4A     		ldr	r2, .L225+16
 1039 0556 D35C     		ldrb	r3, [r2, r3]	@ zero_extendqisi2
 1040 0558 1846     		mov	r0, r3
 1041 055a FFF7FEFF 		bl	PRINTER_A_PutChar
 169:printer.c     ****             for(uint8 x = 0; x < 32; x ++){
 1042              		.loc 1 169 0 discriminator 3
 1043 055e 97F85930 		ldrb	r3, [r7, #89]	@ zero_extendqisi2
 1044 0562 0133     		adds	r3, r3, #1
 1045 0564 87F85930 		strb	r3, [r7, #89]
 1046              	.L33:
 169:printer.c     ****             for(uint8 x = 0; x < 32; x ++){
 1047              		.loc 1 169 0 is_stmt 0 discriminator 1
 1048 0568 97F85930 		ldrb	r3, [r7, #89]	@ zero_extendqisi2
 1049 056c 1F2B     		cmp	r3, #31
 1050 056e EFD9     		bls	.L34
 1051              	.L30:
 1052              	.LBE15:
 171:printer.c     ****         	}            
 172:printer.c     ****         }
 173:printer.c     ****         PRINTER_A_PutChar(LINE_FEED);
 1053              		.loc 1 173 0 is_stmt 1
 1054 0570 444B     		ldr	r3, .L225+8
 1055 0572 1B78     		ldrb	r3, [r3]	@ zero_extendqisi2
 1056 0574 1846     		mov	r0, r3
 1057 0576 FFF7FEFF 		bl	PRINTER_A_PutChar
 1058              	.LBB16:
 174:printer.c     ****         for(uint8 x = 0; x < 13; x ++){
 1059              		.loc 1 174 0
 1060 057a 0023     		movs	r3, #0
 1061 057c 87F85830 		strb	r3, [r7, #88]
 1062 0580 0BE0     		b	.L35
 1063              	.L36:
 175:printer.c     ****     		PRINTER_A_PutChar(msn_venta[x]);
 1064              		.loc 1 175 0 discriminator 3
 1065 0582 97F85830 		ldrb	r3, [r7, #88]	@ zero_extendqisi2
 1066 0586 444A     		ldr	r2, .L225+28
 1067 0588 D35C     		ldrb	r3, [r2, r3]	@ zero_extendqisi2
 1068 058a 1846     		mov	r0, r3
 1069 058c FFF7FEFF 		bl	PRINTER_A_PutChar
 174:printer.c     ****         for(uint8 x = 0; x < 13; x ++){
ARM GAS  C:\Users\THERMA~1\AppData\Local\Temp\ccXswU2c.s 			page 26


 1070              		.loc 1 174 0 discriminator 3
 1071 0590 97F85830 		ldrb	r3, [r7, #88]	@ zero_extendqisi2
 1072 0594 0133     		adds	r3, r3, #1
 1073 0596 87F85830 		strb	r3, [r7, #88]
 1074              	.L35:
 174:printer.c     ****         for(uint8 x = 0; x < 13; x ++){
 1075              		.loc 1 174 0 is_stmt 0 discriminator 1
 1076 059a 97F85830 		ldrb	r3, [r7, #88]	@ zero_extendqisi2
 1077 059e 0C2B     		cmp	r3, #12
 1078 05a0 EFD9     		bls	.L36
 1079              	.LBE16:
 176:printer.c     ****     	}
 177:printer.c     ****         if(side.a.Copy == 1){
 1080              		.loc 1 177 0 is_stmt 1
 1081 05a2 3B4B     		ldr	r3, .L225+20
 1082 05a4 93F83431 		ldrb	r3, [r3, #308]	@ zero_extendqisi2
 1083 05a8 012B     		cmp	r3, #1
 1084 05aa 14D1     		bne	.L37
 1085              	.LBB17:
 178:printer.c     ****            for(uint8 x = 5; x > 0; x --){
 1086              		.loc 1 178 0
 1087 05ac 0523     		movs	r3, #5
 1088 05ae 87F85730 		strb	r3, [r7, #87]
 1089 05b2 0BE0     		b	.L38
 1090              	.L39:
 179:printer.c     ****         		PRINTER_A_PutChar(sale_number_copy[x]);
 1091              		.loc 1 179 0 discriminator 3
 1092 05b4 97F85730 		ldrb	r3, [r7, #87]	@ zero_extendqisi2
 1093 05b8 384A     		ldr	r2, .L225+32
 1094 05ba D35C     		ldrb	r3, [r2, r3]	@ zero_extendqisi2
 1095 05bc 1846     		mov	r0, r3
 1096 05be FFF7FEFF 		bl	PRINTER_A_PutChar
 178:printer.c     ****            for(uint8 x = 5; x > 0; x --){
 1097              		.loc 1 178 0 discriminator 3
 1098 05c2 97F85730 		ldrb	r3, [r7, #87]	@ zero_extendqisi2
 1099 05c6 013B     		subs	r3, r3, #1
 1100 05c8 87F85730 		strb	r3, [r7, #87]
 1101              	.L38:
 178:printer.c     ****            for(uint8 x = 5; x > 0; x --){
 1102              		.loc 1 178 0 is_stmt 0 discriminator 1
 1103 05cc 97F85730 		ldrb	r3, [r7, #87]	@ zero_extendqisi2
 1104 05d0 002B     		cmp	r3, #0
 1105 05d2 EFD1     		bne	.L39
 1106 05d4 19E0     		b	.L40
 1107              	.L37:
 1108              	.LBE17:
 1109              	.LBB18:
 180:printer.c     ****         	} 
 181:printer.c     ****         }else{
 182:printer.c     ****             for(uint8 x = 5; x > 0; x --){
 1110              		.loc 1 182 0 is_stmt 1
 1111 05d6 0523     		movs	r3, #5
 1112 05d8 87F85630 		strb	r3, [r7, #86]
 1113 05dc 0BE0     		b	.L41
 1114              	.L42:
 183:printer.c     ****         		PRINTER_A_PutChar(sale_number[x]);
 1115              		.loc 1 183 0 discriminator 3
ARM GAS  C:\Users\THERMA~1\AppData\Local\Temp\ccXswU2c.s 			page 27


 1116 05de 97F85630 		ldrb	r3, [r7, #86]	@ zero_extendqisi2
 1117 05e2 2F4A     		ldr	r2, .L225+36
 1118 05e4 D35C     		ldrb	r3, [r2, r3]	@ zero_extendqisi2
 1119 05e6 1846     		mov	r0, r3
 1120 05e8 FFF7FEFF 		bl	PRINTER_A_PutChar
 182:printer.c     ****         		PRINTER_A_PutChar(sale_number[x]);
 1121              		.loc 1 182 0 discriminator 3
 1122 05ec 97F85630 		ldrb	r3, [r7, #86]	@ zero_extendqisi2
 1123 05f0 013B     		subs	r3, r3, #1
 1124 05f2 87F85630 		strb	r3, [r7, #86]
 1125              	.L41:
 182:printer.c     ****         		PRINTER_A_PutChar(sale_number[x]);
 1126              		.loc 1 182 0 is_stmt 0 discriminator 1
 1127 05f6 97F85630 		ldrb	r3, [r7, #86]	@ zero_extendqisi2
 1128 05fa 002B     		cmp	r3, #0
 1129 05fc EFD1     		bne	.L42
 1130              	.LBE18:
 184:printer.c     ****         	}
 185:printer.c     ****             int_salenumber++;
 1131              		.loc 1 185 0 is_stmt 1
 1132 05fe 294B     		ldr	r3, .L225+40
 1133 0600 1B78     		ldrb	r3, [r3]	@ zero_extendqisi2
 1134 0602 0133     		adds	r3, r3, #1
 1135 0604 DAB2     		uxtb	r2, r3
 1136 0606 274B     		ldr	r3, .L225+40
 1137 0608 1A70     		strb	r2, [r3]
 1138              	.L40:
 186:printer.c     ****         }
 187:printer.c     ****         PRINTER_A_PutChar(LINE_FEED);
 1139              		.loc 1 187 0
 1140 060a 1E4B     		ldr	r3, .L225+8
 1141 060c 1B78     		ldrb	r3, [r3]	@ zero_extendqisi2
 1142 060e 1846     		mov	r0, r3
 1143 0610 FFF7FEFF 		bl	PRINTER_A_PutChar
 1144              	.LBB19:
 188:printer.c     ****     	for(uint8 x = 0; x < 13; x ++){
 1145              		.loc 1 188 0
 1146 0614 0023     		movs	r3, #0
 1147 0616 87F85530 		strb	r3, [r7, #85]
 1148 061a 0BE0     		b	.L43
 1149              	.L44:
 189:printer.c     ****     		PRINTER_A_PutChar(msn_placa[x]);
 1150              		.loc 1 189 0 discriminator 3
 1151 061c 97F85530 		ldrb	r3, [r7, #85]	@ zero_extendqisi2
 1152 0620 214A     		ldr	r2, .L225+44
 1153 0622 D35C     		ldrb	r3, [r2, r3]	@ zero_extendqisi2
 1154 0624 1846     		mov	r0, r3
 1155 0626 FFF7FEFF 		bl	PRINTER_A_PutChar
 188:printer.c     ****     	for(uint8 x = 0; x < 13; x ++){
 1156              		.loc 1 188 0 discriminator 3
 1157 062a 97F85530 		ldrb	r3, [r7, #85]	@ zero_extendqisi2
 1158 062e 0133     		adds	r3, r3, #1
 1159 0630 87F85530 		strb	r3, [r7, #85]
 1160              	.L43:
 188:printer.c     ****     	for(uint8 x = 0; x < 13; x ++){
 1161              		.loc 1 188 0 is_stmt 0 discriminator 1
 1162 0634 97F85530 		ldrb	r3, [r7, #85]	@ zero_extendqisi2
ARM GAS  C:\Users\THERMA~1\AppData\Local\Temp\ccXswU2c.s 			page 28


 1163 0638 0C2B     		cmp	r3, #12
 1164 063a EFD9     		bls	.L44
 1165              	.LBE19:
 1166              	.LBB20:
 190:printer.c     ****     	}
 191:printer.c     **** 		for(uint8 x = 0; x < 8; x ++){
 1167              		.loc 1 191 0 is_stmt 1
 1168 063c 0023     		movs	r3, #0
 1169 063e 87F85430 		strb	r3, [r7, #84]
 1170 0642 0DE0     		b	.L45
 1171              	.L46:
 192:printer.c     **** 			PRINTER_A_PutChar(side.a.msn_plate[x]);
 1172              		.loc 1 192 0 discriminator 3
 1173 0644 97F85430 		ldrb	r3, [r7, #84]	@ zero_extendqisi2
 1174 0648 114A     		ldr	r2, .L225+20
 1175 064a 1344     		add	r3, r3, r2
 1176 064c 93F82331 		ldrb	r3, [r3, #291]	@ zero_extendqisi2
 1177 0650 1846     		mov	r0, r3
 1178 0652 FFF7FEFF 		bl	PRINTER_A_PutChar
 191:printer.c     **** 			PRINTER_A_PutChar(side.a.msn_plate[x]);
 1179              		.loc 1 191 0 discriminator 3
 1180 0656 97F85430 		ldrb	r3, [r7, #84]	@ zero_extendqisi2
 1181 065a 0133     		adds	r3, r3, #1
 1182 065c 87F85430 		strb	r3, [r7, #84]
 1183              	.L45:
 191:printer.c     **** 			PRINTER_A_PutChar(side.a.msn_plate[x]);
 1184              		.loc 1 191 0 is_stmt 0 discriminator 1
 1185 0660 97F85430 		ldrb	r3, [r7, #84]	@ zero_extendqisi2
 1186 0664 072B     		cmp	r3, #7
 1187 0666 EDD9     		bls	.L46
 1188              	.LBE20:
 193:printer.c     **** 		}  
 194:printer.c     ****         PRINTER_A_PutChar(LINE_FEED);
 1189              		.loc 1 194 0 is_stmt 1
 1190 0668 064B     		ldr	r3, .L225+8
 1191 066a 1B78     		ldrb	r3, [r3]	@ zero_extendqisi2
 1192 066c 1846     		mov	r0, r3
 1193 066e FFF7FEFF 		bl	PRINTER_A_PutChar
 1194              	.LBB21:
 195:printer.c     ****         for(uint8 x = 0; x < 13; x ++){
 1195              		.loc 1 195 0
 1196 0672 0023     		movs	r3, #0
 1197 0674 87F85330 		strb	r3, [r7, #83]
 1198 0678 24E0     		b	.L47
 1199              	.L226:
 1200 067a 00BF     		.align	2
 1201              	.L225:
 1202 067c 00000000 		.word	msn_fecha
 1203 0680 00000000 		.word	touch1
 1204 0684 00000000 		.word	LINE_FEED
 1205 0688 00000000 		.word	msn_hora
 1206 068c 00000000 		.word	SEPARATOR
 1207 0690 00000000 		.word	side
 1208 0694 00000000 		.word	msn_copy
 1209 0698 00000000 		.word	msn_venta
 1210 069c 00000000 		.word	sale_number_copy
 1211 06a0 00000000 		.word	sale_number
ARM GAS  C:\Users\THERMA~1\AppData\Local\Temp\ccXswU2c.s 			page 29


 1212 06a4 00000000 		.word	int_salenumber
 1213 06a8 00000000 		.word	msn_placa
 1214              	.L48:
 196:printer.c     **** 			PRINTER_A_PutChar(PRN_MILLEAGE[x]);
 1215              		.loc 1 196 0 discriminator 3
 1216 06ac 97F85330 		ldrb	r3, [r7, #83]	@ zero_extendqisi2
 1217 06b0 C74A     		ldr	r2, .L227
 1218 06b2 D35C     		ldrb	r3, [r2, r3]	@ zero_extendqisi2
 1219 06b4 1846     		mov	r0, r3
 1220 06b6 FFF7FEFF 		bl	PRINTER_A_PutChar
 195:printer.c     ****         for(uint8 x = 0; x < 13; x ++){
 1221              		.loc 1 195 0 discriminator 3
 1222 06ba 97F85330 		ldrb	r3, [r7, #83]	@ zero_extendqisi2
 1223 06be 0133     		adds	r3, r3, #1
 1224 06c0 87F85330 		strb	r3, [r7, #83]
 1225              	.L47:
 195:printer.c     ****         for(uint8 x = 0; x < 13; x ++){
 1226              		.loc 1 195 0 is_stmt 0 discriminator 1
 1227 06c4 97F85330 		ldrb	r3, [r7, #83]	@ zero_extendqisi2
 1228 06c8 0C2B     		cmp	r3, #12
 1229 06ca EFD9     		bls	.L48
 1230              	.LBE21:
 1231              	.LBB22:
 197:printer.c     **** 		}          
 198:printer.c     ****         for(uint8 x = 0; x <6; x ++){
 1232              		.loc 1 198 0 is_stmt 1
 1233 06cc 0023     		movs	r3, #0
 1234 06ce 87F85230 		strb	r3, [r7, #82]
 1235 06d2 0DE0     		b	.L49
 1236              	.L50:
 199:printer.c     **** 			PRINTER_A_PutChar(side.a.km[x]);
 1237              		.loc 1 199 0 discriminator 3
 1238 06d4 97F85230 		ldrb	r3, [r7, #82]	@ zero_extendqisi2
 1239 06d8 BE4A     		ldr	r2, .L227+4
 1240 06da 1344     		add	r3, r3, r2
 1241 06dc 93F82D31 		ldrb	r3, [r3, #301]	@ zero_extendqisi2
 1242 06e0 1846     		mov	r0, r3
 1243 06e2 FFF7FEFF 		bl	PRINTER_A_PutChar
 198:printer.c     **** 			PRINTER_A_PutChar(side.a.km[x]);
 1244              		.loc 1 198 0 discriminator 3
 1245 06e6 97F85230 		ldrb	r3, [r7, #82]	@ zero_extendqisi2
 1246 06ea 0133     		adds	r3, r3, #1
 1247 06ec 87F85230 		strb	r3, [r7, #82]
 1248              	.L49:
 198:printer.c     **** 			PRINTER_A_PutChar(side.a.km[x]);
 1249              		.loc 1 198 0 is_stmt 0 discriminator 1
 1250 06f0 97F85230 		ldrb	r3, [r7, #82]	@ zero_extendqisi2
 1251 06f4 052B     		cmp	r3, #5
 1252 06f6 EDD9     		bls	.L50
 1253              	.LBE22:
 200:printer.c     **** 		}  
 201:printer.c     ****         PRINTER_A_PutChar(LINE_FEED);
 1254              		.loc 1 201 0 is_stmt 1
 1255 06f8 B74B     		ldr	r3, .L227+8
 1256 06fa 1B78     		ldrb	r3, [r3]	@ zero_extendqisi2
 1257 06fc 1846     		mov	r0, r3
 1258 06fe FFF7FEFF 		bl	PRINTER_A_PutChar
ARM GAS  C:\Users\THERMA~1\AppData\Local\Temp\ccXswU2c.s 			page 30


 1259              	.LBB23:
 202:printer.c     **** 		for(uint8 x = 0; x < 13; x ++){
 1260              		.loc 1 202 0
 1261 0702 0023     		movs	r3, #0
 1262 0704 87F85130 		strb	r3, [r7, #81]
 1263 0708 0BE0     		b	.L51
 1264              	.L52:
 203:printer.c     **** 			PRINTER_A_PutChar(msn_pos[x]);
 1265              		.loc 1 203 0 discriminator 3
 1266 070a 97F85130 		ldrb	r3, [r7, #81]	@ zero_extendqisi2
 1267 070e B34A     		ldr	r2, .L227+12
 1268 0710 D35C     		ldrb	r3, [r2, r3]	@ zero_extendqisi2
 1269 0712 1846     		mov	r0, r3
 1270 0714 FFF7FEFF 		bl	PRINTER_A_PutChar
 202:printer.c     **** 		for(uint8 x = 0; x < 13; x ++){
 1271              		.loc 1 202 0 discriminator 3
 1272 0718 97F85130 		ldrb	r3, [r7, #81]	@ zero_extendqisi2
 1273 071c 0133     		adds	r3, r3, #1
 1274 071e 87F85130 		strb	r3, [r7, #81]
 1275              	.L51:
 202:printer.c     **** 		for(uint8 x = 0; x < 13; x ++){
 1276              		.loc 1 202 0 is_stmt 0 discriminator 1
 1277 0722 97F85130 		ldrb	r3, [r7, #81]	@ zero_extendqisi2
 1278 0726 0C2B     		cmp	r3, #12
 1279 0728 EFD9     		bls	.L52
 1280              	.LBE23:
 204:printer.c     **** 		}
 205:printer.c     **** 		PRINTER_A_PutChar((side.a.dir)+ 0x31);
 1281              		.loc 1 205 0 is_stmt 1
 1282 072a AA4B     		ldr	r3, .L227+4
 1283 072c 1B78     		ldrb	r3, [r3]	@ zero_extendqisi2
 1284 072e 3133     		adds	r3, r3, #49
 1285 0730 DBB2     		uxtb	r3, r3
 1286 0732 1846     		mov	r0, r3
 1287 0734 FFF7FEFF 		bl	PRINTER_A_PutChar
 206:printer.c     **** 		PRINTER_A_PutChar(LINE_FEED);
 1288              		.loc 1 206 0
 1289 0738 A74B     		ldr	r3, .L227+8
 1290 073a 1B78     		ldrb	r3, [r3]	@ zero_extendqisi2
 1291 073c 1846     		mov	r0, r3
 1292 073e FFF7FEFF 		bl	PRINTER_A_PutChar
 1293              	.LBB24:
 207:printer.c     **** 		for(uint8 x = 0; x < 13; x ++){
 1294              		.loc 1 207 0
 1295 0742 0023     		movs	r3, #0
 1296 0744 87F85030 		strb	r3, [r7, #80]
 1297 0748 0BE0     		b	.L53
 1298              	.L54:
 208:printer.c     **** 			PRINTER_A_PutChar(msn_product[x]);
 1299              		.loc 1 208 0 discriminator 3
 1300 074a 97F85030 		ldrb	r3, [r7, #80]	@ zero_extendqisi2
 1301 074e A44A     		ldr	r2, .L227+16
 1302 0750 D35C     		ldrb	r3, [r2, r3]	@ zero_extendqisi2
 1303 0752 1846     		mov	r0, r3
 1304 0754 FFF7FEFF 		bl	PRINTER_A_PutChar
 207:printer.c     **** 		for(uint8 x = 0; x < 13; x ++){
 1305              		.loc 1 207 0 discriminator 3
ARM GAS  C:\Users\THERMA~1\AppData\Local\Temp\ccXswU2c.s 			page 31


 1306 0758 97F85030 		ldrb	r3, [r7, #80]	@ zero_extendqisi2
 1307 075c 0133     		adds	r3, r3, #1
 1308 075e 87F85030 		strb	r3, [r7, #80]
 1309              	.L53:
 207:printer.c     **** 		for(uint8 x = 0; x < 13; x ++){
 1310              		.loc 1 207 0 is_stmt 0 discriminator 1
 1311 0762 97F85030 		ldrb	r3, [r7, #80]	@ zero_extendqisi2
 1312 0766 0C2B     		cmp	r3, #12
 1313 0768 EFD9     		bls	.L54
 1314              	.LBE24:
 209:printer.c     **** 		}
 210:printer.c     ****         if(side.a.Nozzle == 0x01){
 1315              		.loc 1 210 0 is_stmt 1
 1316 076a 9A4B     		ldr	r3, .L227+4
 1317 076c 93F82C31 		ldrb	r3, [r3, #300]	@ zero_extendqisi2
 1318 0770 012B     		cmp	r3, #1
 1319 0772 14D1     		bne	.L55
 1320              	.LBB25:
 211:printer.c     ****     		for(uint8 x = 0; x < 9; x ++){
 1321              		.loc 1 211 0
 1322 0774 0023     		movs	r3, #0
 1323 0776 87F84F30 		strb	r3, [r7, #79]
 1324 077a 0BE0     		b	.L56
 1325              	.L57:
 212:printer.c     ****     			PRINTER_A_PutChar(msn_diesel[x]);
 1326              		.loc 1 212 0 discriminator 3
 1327 077c 97F84F30 		ldrb	r3, [r7, #79]	@ zero_extendqisi2
 1328 0780 984A     		ldr	r2, .L227+20
 1329 0782 D35C     		ldrb	r3, [r2, r3]	@ zero_extendqisi2
 1330 0784 1846     		mov	r0, r3
 1331 0786 FFF7FEFF 		bl	PRINTER_A_PutChar
 211:printer.c     ****     		for(uint8 x = 0; x < 9; x ++){
 1332              		.loc 1 211 0 discriminator 3
 1333 078a 97F84F30 		ldrb	r3, [r7, #79]	@ zero_extendqisi2
 1334 078e 0133     		adds	r3, r3, #1
 1335 0790 87F84F30 		strb	r3, [r7, #79]
 1336              	.L56:
 211:printer.c     ****     		for(uint8 x = 0; x < 9; x ++){
 1337              		.loc 1 211 0 is_stmt 0 discriminator 1
 1338 0794 97F84F30 		ldrb	r3, [r7, #79]	@ zero_extendqisi2
 1339 0798 082B     		cmp	r3, #8
 1340 079a EFD9     		bls	.L57
 1341 079c 13E0     		b	.L58
 1342              	.L55:
 1343              	.LBE25:
 1344              	.LBB26:
 213:printer.c     ****     		}
 214:printer.c     ****         }else{
 215:printer.c     ****             for(uint8 x = 0; x < 9; x ++){
 1345              		.loc 1 215 0 is_stmt 1
 1346 079e 0023     		movs	r3, #0
 1347 07a0 87F84E30 		strb	r3, [r7, #78]
 1348 07a4 0BE0     		b	.L59
 1349              	.L60:
 216:printer.c     ****     			PRINTER_A_PutChar(msn_gasoline[x]);
 1350              		.loc 1 216 0 discriminator 3
 1351 07a6 97F84E30 		ldrb	r3, [r7, #78]	@ zero_extendqisi2
ARM GAS  C:\Users\THERMA~1\AppData\Local\Temp\ccXswU2c.s 			page 32


 1352 07aa 8F4A     		ldr	r2, .L227+24
 1353 07ac D35C     		ldrb	r3, [r2, r3]	@ zero_extendqisi2
 1354 07ae 1846     		mov	r0, r3
 1355 07b0 FFF7FEFF 		bl	PRINTER_A_PutChar
 215:printer.c     ****     			PRINTER_A_PutChar(msn_gasoline[x]);
 1356              		.loc 1 215 0 discriminator 3
 1357 07b4 97F84E30 		ldrb	r3, [r7, #78]	@ zero_extendqisi2
 1358 07b8 0133     		adds	r3, r3, #1
 1359 07ba 87F84E30 		strb	r3, [r7, #78]
 1360              	.L59:
 215:printer.c     ****     			PRINTER_A_PutChar(msn_gasoline[x]);
 1361              		.loc 1 215 0 is_stmt 0 discriminator 1
 1362 07be 97F84E30 		ldrb	r3, [r7, #78]	@ zero_extendqisi2
 1363 07c2 082B     		cmp	r3, #8
 1364 07c4 EFD9     		bls	.L60
 1365              	.L58:
 1366              	.LBE26:
 217:printer.c     ****     		}
 218:printer.c     ****         } 
 219:printer.c     ****         PRINTER_A_PutChar(LINE_FEED); 	
 1367              		.loc 1 219 0 is_stmt 1
 1368 07c6 844B     		ldr	r3, .L227+8
 1369 07c8 1B78     		ldrb	r3, [r3]	@ zero_extendqisi2
 1370 07ca 1846     		mov	r0, r3
 1371 07cc FFF7FEFF 		bl	PRINTER_A_PutChar
 1372              	.LBB27:
 220:printer.c     **** 		for(uint8 x = 0; x < 13; x ++){
 1373              		.loc 1 220 0
 1374 07d0 0023     		movs	r3, #0
 1375 07d2 87F84D30 		strb	r3, [r7, #77]
 1376 07d6 0BE0     		b	.L61
 1377              	.L62:
 221:printer.c     **** 			PRINTER_A_PutChar(msn_ppu[x]);
 1378              		.loc 1 221 0 discriminator 3
 1379 07d8 97F84D30 		ldrb	r3, [r7, #77]	@ zero_extendqisi2
 1380 07dc 834A     		ldr	r2, .L227+28
 1381 07de D35C     		ldrb	r3, [r2, r3]	@ zero_extendqisi2
 1382 07e0 1846     		mov	r0, r3
 1383 07e2 FFF7FEFF 		bl	PRINTER_A_PutChar
 220:printer.c     **** 		for(uint8 x = 0; x < 13; x ++){
 1384              		.loc 1 220 0 discriminator 3
 1385 07e6 97F84D30 		ldrb	r3, [r7, #77]	@ zero_extendqisi2
 1386 07ea 0133     		adds	r3, r3, #1
 1387 07ec 87F84D30 		strb	r3, [r7, #77]
 1388              	.L61:
 220:printer.c     **** 		for(uint8 x = 0; x < 13; x ++){
 1389              		.loc 1 220 0 is_stmt 0 discriminator 1
 1390 07f0 97F84D30 		ldrb	r3, [r7, #77]	@ zero_extendqisi2
 1391 07f4 0C2B     		cmp	r3, #12
 1392 07f6 EFD9     		bls	.L62
 1393              	.LBE27:
 222:printer.c     **** 		}
 223:printer.c     **** 		PRINTER_A_PutChar(PRN_CURRENCY[0]);  
 1394              		.loc 1 223 0 is_stmt 1
 1395 07f8 7D4B     		ldr	r3, .L227+32
 1396 07fa 1B78     		ldrb	r3, [r3]	@ zero_extendqisi2
 1397 07fc 1846     		mov	r0, r3
ARM GAS  C:\Users\THERMA~1\AppData\Local\Temp\ccXswU2c.s 			page 33


 1398 07fe FFF7FEFF 		bl	PRINTER_A_PutChar
 224:printer.c     **** 		PRINTER_A_PutChar(' ');
 1399              		.loc 1 224 0
 1400 0802 2020     		movs	r0, #32
 1401 0804 FFF7FEFF 		bl	PRINTER_A_PutChar
 1402              	.LBB28:
 225:printer.c     **** 		for(uint8 x = 1; x < 6; x ++){
 1403              		.loc 1 225 0
 1404 0808 0123     		movs	r3, #1
 1405 080a 87F84C30 		strb	r3, [r7, #76]
 1406 080e 17E0     		b	.L63
 1407              	.L64:
 226:printer.c     **** 			PRINTER_A_PutChar(side.a.ProcessedPPU[side.a.Nozzle-1][x]);
 1408              		.loc 1 226 0 discriminator 3
 1409 0810 704B     		ldr	r3, .L227+4
 1410 0812 93F82C31 		ldrb	r3, [r3, #300]	@ zero_extendqisi2
 1411 0816 5A1E     		subs	r2, r3, #1
 1412 0818 97F84C10 		ldrb	r1, [r7, #76]	@ zero_extendqisi2
 1413 081c 6D48     		ldr	r0, .L227+4
 1414 081e 1346     		mov	r3, r2
 1415 0820 5B00     		lsls	r3, r3, #1
 1416 0822 1344     		add	r3, r3, r2
 1417 0824 5B00     		lsls	r3, r3, #1
 1418 0826 0344     		add	r3, r3, r0
 1419 0828 0B44     		add	r3, r3, r1
 1420 082a 03F20B13 		addw	r3, r3, #267
 1421 082e 1B78     		ldrb	r3, [r3]	@ zero_extendqisi2
 1422 0830 1846     		mov	r0, r3
 1423 0832 FFF7FEFF 		bl	PRINTER_A_PutChar
 225:printer.c     **** 		for(uint8 x = 1; x < 6; x ++){
 1424              		.loc 1 225 0 discriminator 3
 1425 0836 97F84C30 		ldrb	r3, [r7, #76]	@ zero_extendqisi2
 1426 083a 0133     		adds	r3, r3, #1
 1427 083c 87F84C30 		strb	r3, [r7, #76]
 1428              	.L63:
 225:printer.c     **** 		for(uint8 x = 1; x < 6; x ++){
 1429              		.loc 1 225 0 is_stmt 0 discriminator 1
 1430 0840 97F84C30 		ldrb	r3, [r7, #76]	@ zero_extendqisi2
 1431 0844 052B     		cmp	r3, #5
 1432 0846 E3D9     		bls	.L64
 1433              	.LBE28:
 227:printer.c     **** 		}
 228:printer.c     ****         PRINTER_A_PutChar(LINE_FEED);
 1434              		.loc 1 228 0 is_stmt 1
 1435 0848 634B     		ldr	r3, .L227+8
 1436 084a 1B78     		ldrb	r3, [r3]	@ zero_extendqisi2
 1437 084c 1846     		mov	r0, r3
 1438 084e FFF7FEFF 		bl	PRINTER_A_PutChar
 1439              	.LBB29:
 229:printer.c     **** 		for(uint8 x = 0; x < 13; x ++){
 1440              		.loc 1 229 0
 1441 0852 0023     		movs	r3, #0
 1442 0854 87F84B30 		strb	r3, [r7, #75]
 1443 0858 0BE0     		b	.L65
 1444              	.L66:
 230:printer.c     **** 			PRINTER_A_PutChar(msn_vol[x]);
 1445              		.loc 1 230 0 discriminator 3
ARM GAS  C:\Users\THERMA~1\AppData\Local\Temp\ccXswU2c.s 			page 34


 1446 085a 97F84B30 		ldrb	r3, [r7, #75]	@ zero_extendqisi2
 1447 085e 654A     		ldr	r2, .L227+36
 1448 0860 D35C     		ldrb	r3, [r2, r3]	@ zero_extendqisi2
 1449 0862 1846     		mov	r0, r3
 1450 0864 FFF7FEFF 		bl	PRINTER_A_PutChar
 229:printer.c     **** 		for(uint8 x = 0; x < 13; x ++){
 1451              		.loc 1 229 0 discriminator 3
 1452 0868 97F84B30 		ldrb	r3, [r7, #75]	@ zero_extendqisi2
 1453 086c 0133     		adds	r3, r3, #1
 1454 086e 87F84B30 		strb	r3, [r7, #75]
 1455              	.L65:
 229:printer.c     **** 		for(uint8 x = 0; x < 13; x ++){
 1456              		.loc 1 229 0 is_stmt 0 discriminator 1
 1457 0872 97F84B30 		ldrb	r3, [r7, #75]	@ zero_extendqisi2
 1458 0876 0C2B     		cmp	r3, #12
 1459 0878 EFD9     		bls	.L66
 1460              	.LBE29:
 1461              	.LBB30:
 231:printer.c     **** 		}
 232:printer.c     **** 		for(uint8 x = 0; x < 8; x ++){
 1462              		.loc 1 232 0 is_stmt 1
 1463 087a 0023     		movs	r3, #0
 1464 087c 87F84A30 		strb	r3, [r7, #74]
 1465 0880 18E0     		b	.L67
 1466              	.L69:
 233:printer.c     **** 			if((8-x) == DecVol)
 1467              		.loc 1 233 0
 1468 0882 97F84A30 		ldrb	r3, [r7, #74]	@ zero_extendqisi2
 1469 0886 C3F10803 		rsb	r3, r3, #8
 1470 088a 5B4A     		ldr	r2, .L227+40
 1471 088c 1278     		ldrb	r2, [r2]	@ zero_extendqisi2
 1472 088e 9342     		cmp	r3, r2
 1473 0890 02D1     		bne	.L68
 234:printer.c     **** 				PRINTER_A_PutChar('.');
 1474              		.loc 1 234 0
 1475 0892 2E20     		movs	r0, #46
 1476 0894 FFF7FEFF 		bl	PRINTER_A_PutChar
 1477              	.L68:
 235:printer.c     **** 			PRINTER_A_PutChar(side.a.ProcessedvolumeSale[x]);        
 1478              		.loc 1 235 0 discriminator 2
 1479 0898 97F84A30 		ldrb	r3, [r7, #74]	@ zero_extendqisi2
 1480 089c 4D4A     		ldr	r2, .L227+4
 1481 089e 1344     		add	r3, r3, r2
 1482 08a0 93F80331 		ldrb	r3, [r3, #259]	@ zero_extendqisi2
 1483 08a4 1846     		mov	r0, r3
 1484 08a6 FFF7FEFF 		bl	PRINTER_A_PutChar
 232:printer.c     **** 			if((8-x) == DecVol)
 1485              		.loc 1 232 0 discriminator 2
 1486 08aa 97F84A30 		ldrb	r3, [r7, #74]	@ zero_extendqisi2
 1487 08ae 0133     		adds	r3, r3, #1
 1488 08b0 87F84A30 		strb	r3, [r7, #74]
 1489              	.L67:
 232:printer.c     **** 			if((8-x) == DecVol)
 1490              		.loc 1 232 0 is_stmt 0 discriminator 1
 1491 08b4 97F84A30 		ldrb	r3, [r7, #74]	@ zero_extendqisi2
 1492 08b8 072B     		cmp	r3, #7
 1493 08ba E2D9     		bls	.L69
ARM GAS  C:\Users\THERMA~1\AppData\Local\Temp\ccXswU2c.s 			page 35


 1494              	.LBE30:
 236:printer.c     **** 		}
 237:printer.c     **** 		PRINTER_A_PutChar(' ');
 1495              		.loc 1 237 0 is_stmt 1
 1496 08bc 2020     		movs	r0, #32
 1497 08be FFF7FEFF 		bl	PRINTER_A_PutChar
 238:printer.c     **** 		PRINTER_A_PutChar(VolSimbol[0]);
 1498              		.loc 1 238 0
 1499 08c2 4E4B     		ldr	r3, .L227+44
 1500 08c4 1B78     		ldrb	r3, [r3]	@ zero_extendqisi2
 1501 08c6 1846     		mov	r0, r3
 1502 08c8 FFF7FEFF 		bl	PRINTER_A_PutChar
 239:printer.c     **** 		PRINTER_A_PutChar(LINE_FEED); 
 1503              		.loc 1 239 0
 1504 08cc 424B     		ldr	r3, .L227+8
 1505 08ce 1B78     		ldrb	r3, [r3]	@ zero_extendqisi2
 1506 08d0 1846     		mov	r0, r3
 1507 08d2 FFF7FEFF 		bl	PRINTER_A_PutChar
 1508              	.LBB31:
 240:printer.c     **** 		for(uint8 x = 0; x < 13; x ++){
 1509              		.loc 1 240 0
 1510 08d6 0023     		movs	r3, #0
 1511 08d8 87F84930 		strb	r3, [r7, #73]
 1512 08dc 0BE0     		b	.L70
 1513              	.L71:
 241:printer.c     **** 			PRINTER_A_PutChar(msn_din[x]);
 1514              		.loc 1 241 0 discriminator 3
 1515 08de 97F84930 		ldrb	r3, [r7, #73]	@ zero_extendqisi2
 1516 08e2 474A     		ldr	r2, .L227+48
 1517 08e4 D35C     		ldrb	r3, [r2, r3]	@ zero_extendqisi2
 1518 08e6 1846     		mov	r0, r3
 1519 08e8 FFF7FEFF 		bl	PRINTER_A_PutChar
 240:printer.c     **** 		for(uint8 x = 0; x < 13; x ++){
 1520              		.loc 1 240 0 discriminator 3
 1521 08ec 97F84930 		ldrb	r3, [r7, #73]	@ zero_extendqisi2
 1522 08f0 0133     		adds	r3, r3, #1
 1523 08f2 87F84930 		strb	r3, [r7, #73]
 1524              	.L70:
 240:printer.c     **** 		for(uint8 x = 0; x < 13; x ++){
 1525              		.loc 1 240 0 is_stmt 0 discriminator 1
 1526 08f6 97F84930 		ldrb	r3, [r7, #73]	@ zero_extendqisi2
 1527 08fa 0C2B     		cmp	r3, #12
 1528 08fc EFD9     		bls	.L71
 1529              	.LBE31:
 242:printer.c     **** 		}     
 243:printer.c     **** 		PRINTER_A_PutChar(PRN_CURRENCY[0]);  
 1530              		.loc 1 243 0 is_stmt 1
 1531 08fe 3C4B     		ldr	r3, .L227+32
 1532 0900 1B78     		ldrb	r3, [r3]	@ zero_extendqisi2
 1533 0902 1846     		mov	r0, r3
 1534 0904 FFF7FEFF 		bl	PRINTER_A_PutChar
 244:printer.c     **** 		PRINTER_A_PutChar(' ');
 1535              		.loc 1 244 0
 1536 0908 2020     		movs	r0, #32
 1537 090a FFF7FEFF 		bl	PRINTER_A_PutChar
 1538              	.LBB32:
 245:printer.c     **** 		for(uint8 x = 0; x < 8; x ++){
ARM GAS  C:\Users\THERMA~1\AppData\Local\Temp\ccXswU2c.s 			page 36


 1539              		.loc 1 245 0
 1540 090e 0023     		movs	r3, #0
 1541 0910 87F84830 		strb	r3, [r7, #72]
 1542 0914 0DE0     		b	.L72
 1543              	.L73:
 246:printer.c     **** 			PRINTER_A_PutChar(side.a.ProcessedmoneySale[x]);
 1544              		.loc 1 246 0 discriminator 3
 1545 0916 97F84830 		ldrb	r3, [r7, #72]	@ zero_extendqisi2
 1546 091a 2E4A     		ldr	r2, .L227+4
 1547 091c 1344     		add	r3, r3, r2
 1548 091e 93F8FB30 		ldrb	r3, [r3, #251]	@ zero_extendqisi2
 1549 0922 1846     		mov	r0, r3
 1550 0924 FFF7FEFF 		bl	PRINTER_A_PutChar
 245:printer.c     **** 		for(uint8 x = 0; x < 8; x ++){
 1551              		.loc 1 245 0 discriminator 3
 1552 0928 97F84830 		ldrb	r3, [r7, #72]	@ zero_extendqisi2
 1553 092c 0133     		adds	r3, r3, #1
 1554 092e 87F84830 		strb	r3, [r7, #72]
 1555              	.L72:
 245:printer.c     **** 		for(uint8 x = 0; x < 8; x ++){
 1556              		.loc 1 245 0 is_stmt 0 discriminator 1
 1557 0932 97F84830 		ldrb	r3, [r7, #72]	@ zero_extendqisi2
 1558 0936 072B     		cmp	r3, #7
 1559 0938 EDD9     		bls	.L73
 1560              	.LBE32:
 247:printer.c     **** 		}		
 248:printer.c     **** 		PRINTER_A_PutChar(LINE_FEED);
 1561              		.loc 1 248 0 is_stmt 1
 1562 093a 274B     		ldr	r3, .L227+8
 1563 093c 1B78     		ldrb	r3, [r3]	@ zero_extendqisi2
 1564 093e 1846     		mov	r0, r3
 1565 0940 FFF7FEFF 		bl	PRINTER_A_PutChar
 249:printer.c     ****         side.a.Copy = 1;
 1566              		.loc 1 249 0
 1567 0944 234B     		ldr	r3, .L227+4
 1568 0946 0122     		movs	r2, #1
 1569 0948 83F83421 		strb	r2, [r3, #308]
 1570              	.L29:
 250:printer.c     **** 	}	
 251:printer.c     **** 	if(address == side.b.dir){
 1571              		.loc 1 251 0
 1572 094c 214B     		ldr	r3, .L227+4
 1573 094e 93F83531 		ldrb	r3, [r3, #309]	@ zero_extendqisi2
 1574 0952 FA79     		ldrb	r2, [r7, #7]	@ zero_extendqisi2
 1575 0954 9A42     		cmp	r2, r3
 1576 0956 40F04882 		bne	.L74
 252:printer.c     **** 		if(side.b.Copy == 1){
 1577              		.loc 1 252 0
 1578 095a 1E4B     		ldr	r3, .L227+4
 1579 095c 93F86932 		ldrb	r3, [r3, #617]	@ zero_extendqisi2
 1580 0960 012B     		cmp	r3, #1
 1581 0962 2CD1     		bne	.L75
 1582              	.LBB33:
 253:printer.c     ****             for(uint8 x = 0; x < 32; x ++){
 1583              		.loc 1 253 0
 1584 0964 0023     		movs	r3, #0
 1585 0966 87F84730 		strb	r3, [r7, #71]
ARM GAS  C:\Users\THERMA~1\AppData\Local\Temp\ccXswU2c.s 			page 37


 1586 096a 0BE0     		b	.L76
 1587              	.L77:
 254:printer.c     ****         		PRINTER_A_PutChar(msn_copy[x]);
 1588              		.loc 1 254 0 discriminator 3
 1589 096c 97F84730 		ldrb	r3, [r7, #71]	@ zero_extendqisi2
 1590 0970 244A     		ldr	r2, .L227+52
 1591 0972 D35C     		ldrb	r3, [r2, r3]	@ zero_extendqisi2
 1592 0974 1846     		mov	r0, r3
 1593 0976 FFF7FEFF 		bl	PRINTER_A_PutChar
 253:printer.c     ****             for(uint8 x = 0; x < 32; x ++){
 1594              		.loc 1 253 0 discriminator 3
 1595 097a 97F84730 		ldrb	r3, [r7, #71]	@ zero_extendqisi2
 1596 097e 0133     		adds	r3, r3, #1
 1597 0980 87F84730 		strb	r3, [r7, #71]
 1598              	.L76:
 253:printer.c     ****             for(uint8 x = 0; x < 32; x ++){
 1599              		.loc 1 253 0 is_stmt 0 discriminator 1
 1600 0984 97F84730 		ldrb	r3, [r7, #71]	@ zero_extendqisi2
 1601 0988 1F2B     		cmp	r3, #31
 1602 098a EFD9     		bls	.L77
 1603              	.LBE33:
 255:printer.c     ****         	}
 256:printer.c     ****             PRINTER_A_PutChar(LINE_FEED);
 1604              		.loc 1 256 0 is_stmt 1
 1605 098c 124B     		ldr	r3, .L227+8
 1606 098e 1B78     		ldrb	r3, [r3]	@ zero_extendqisi2
 1607 0990 1846     		mov	r0, r3
 1608 0992 FFF7FEFF 		bl	PRINTER_A_PutChar
 1609              	.LBB34:
 257:printer.c     ****             for(uint8 x = 0; x < 32; x ++){
 1610              		.loc 1 257 0
 1611 0996 0023     		movs	r3, #0
 1612 0998 87F84630 		strb	r3, [r7, #70]
 1613 099c 0BE0     		b	.L78
 1614              	.L79:
 258:printer.c     ****         		PRINTER_A_PutChar(SEPARATOR[x]);
 1615              		.loc 1 258 0 discriminator 3
 1616 099e 97F84630 		ldrb	r3, [r7, #70]	@ zero_extendqisi2
 1617 09a2 194A     		ldr	r2, .L227+56
 1618 09a4 D35C     		ldrb	r3, [r2, r3]	@ zero_extendqisi2
 1619 09a6 1846     		mov	r0, r3
 1620 09a8 FFF7FEFF 		bl	PRINTER_A_PutChar
 257:printer.c     ****             for(uint8 x = 0; x < 32; x ++){
 1621              		.loc 1 257 0 discriminator 3
 1622 09ac 97F84630 		ldrb	r3, [r7, #70]	@ zero_extendqisi2
 1623 09b0 0133     		adds	r3, r3, #1
 1624 09b2 87F84630 		strb	r3, [r7, #70]
 1625              	.L78:
 257:printer.c     ****             for(uint8 x = 0; x < 32; x ++){
 1626              		.loc 1 257 0 is_stmt 0 discriminator 1
 1627 09b6 97F84630 		ldrb	r3, [r7, #70]	@ zero_extendqisi2
 1628 09ba 1F2B     		cmp	r3, #31
 1629 09bc EFD9     		bls	.L79
 1630              	.L75:
 1631              	.LBE34:
 259:printer.c     ****         	}            
 260:printer.c     ****         }    
ARM GAS  C:\Users\THERMA~1\AppData\Local\Temp\ccXswU2c.s 			page 38


 261:printer.c     ****         PRINTER_A_PutChar(LINE_FEED);
 1632              		.loc 1 261 0 is_stmt 1
 1633 09be 064B     		ldr	r3, .L227+8
 1634 09c0 1B78     		ldrb	r3, [r3]	@ zero_extendqisi2
 1635 09c2 1846     		mov	r0, r3
 1636 09c4 FFF7FEFF 		bl	PRINTER_A_PutChar
 1637              	.LBB35:
 262:printer.c     ****         for(uint8 x = 0; x < 13; x ++){
 1638              		.loc 1 262 0
 1639 09c8 0023     		movs	r3, #0
 1640 09ca 87F84530 		strb	r3, [r7, #69]
 1641 09ce 29E0     		b	.L80
 1642              	.L228:
 1643              		.align	2
 1644              	.L227:
 1645 09d0 00000000 		.word	PRN_MILLEAGE
 1646 09d4 00000000 		.word	side
 1647 09d8 00000000 		.word	LINE_FEED
 1648 09dc 00000000 		.word	msn_pos
 1649 09e0 00000000 		.word	msn_product
 1650 09e4 00000000 		.word	msn_diesel
 1651 09e8 00000000 		.word	msn_gasoline
 1652 09ec 00000000 		.word	msn_ppu
 1653 09f0 00000000 		.word	PRN_CURRENCY
 1654 09f4 00000000 		.word	msn_vol
 1655 09f8 00000000 		.word	DecVol
 1656 09fc 00000000 		.word	VolSimbol
 1657 0a00 00000000 		.word	msn_din
 1658 0a04 00000000 		.word	msn_copy
 1659 0a08 00000000 		.word	SEPARATOR
 1660              	.L81:
 263:printer.c     ****     		PRINTER_A_PutChar(msn_venta[x]);
 1661              		.loc 1 263 0 discriminator 3
 1662 0a0c 97F84530 		ldrb	r3, [r7, #69]	@ zero_extendqisi2
 1663 0a10 C94A     		ldr	r2, .L229
 1664 0a12 D35C     		ldrb	r3, [r2, r3]	@ zero_extendqisi2
 1665 0a14 1846     		mov	r0, r3
 1666 0a16 FFF7FEFF 		bl	PRINTER_A_PutChar
 262:printer.c     ****         for(uint8 x = 0; x < 13; x ++){
 1667              		.loc 1 262 0 discriminator 3
 1668 0a1a 97F84530 		ldrb	r3, [r7, #69]	@ zero_extendqisi2
 1669 0a1e 0133     		adds	r3, r3, #1
 1670 0a20 87F84530 		strb	r3, [r7, #69]
 1671              	.L80:
 262:printer.c     ****         for(uint8 x = 0; x < 13; x ++){
 1672              		.loc 1 262 0 is_stmt 0 discriminator 1
 1673 0a24 97F84530 		ldrb	r3, [r7, #69]	@ zero_extendqisi2
 1674 0a28 0C2B     		cmp	r3, #12
 1675 0a2a EFD9     		bls	.L81
 1676              	.LBE35:
 264:printer.c     ****     	}
 265:printer.c     ****         if(side.b.Copy == 1){
 1677              		.loc 1 265 0 is_stmt 1
 1678 0a2c C34B     		ldr	r3, .L229+4
 1679 0a2e 93F86932 		ldrb	r3, [r3, #617]	@ zero_extendqisi2
 1680 0a32 012B     		cmp	r3, #1
 1681 0a34 14D1     		bne	.L82
ARM GAS  C:\Users\THERMA~1\AppData\Local\Temp\ccXswU2c.s 			page 39


 1682              	.LBB36:
 266:printer.c     ****            for(uint8 x = 5; x > 0; x --){
 1683              		.loc 1 266 0
 1684 0a36 0523     		movs	r3, #5
 1685 0a38 87F84430 		strb	r3, [r7, #68]
 1686 0a3c 0BE0     		b	.L83
 1687              	.L84:
 267:printer.c     ****         		PRINTER_A_PutChar(sale_number_copy[x]);
 1688              		.loc 1 267 0 discriminator 3
 1689 0a3e 97F84430 		ldrb	r3, [r7, #68]	@ zero_extendqisi2
 1690 0a42 BF4A     		ldr	r2, .L229+8
 1691 0a44 D35C     		ldrb	r3, [r2, r3]	@ zero_extendqisi2
 1692 0a46 1846     		mov	r0, r3
 1693 0a48 FFF7FEFF 		bl	PRINTER_A_PutChar
 266:printer.c     ****            for(uint8 x = 5; x > 0; x --){
 1694              		.loc 1 266 0 discriminator 3
 1695 0a4c 97F84430 		ldrb	r3, [r7, #68]	@ zero_extendqisi2
 1696 0a50 013B     		subs	r3, r3, #1
 1697 0a52 87F84430 		strb	r3, [r7, #68]
 1698              	.L83:
 266:printer.c     ****            for(uint8 x = 5; x > 0; x --){
 1699              		.loc 1 266 0 is_stmt 0 discriminator 1
 1700 0a56 97F84430 		ldrb	r3, [r7, #68]	@ zero_extendqisi2
 1701 0a5a 002B     		cmp	r3, #0
 1702 0a5c EFD1     		bne	.L84
 1703 0a5e 19E0     		b	.L85
 1704              	.L82:
 1705              	.LBE36:
 1706              	.LBB37:
 268:printer.c     ****         	} 
 269:printer.c     ****         }else{
 270:printer.c     ****             for(uint8 x = 5; x > 0; x --){
 1707              		.loc 1 270 0 is_stmt 1
 1708 0a60 0523     		movs	r3, #5
 1709 0a62 87F84330 		strb	r3, [r7, #67]
 1710 0a66 0BE0     		b	.L86
 1711              	.L87:
 271:printer.c     ****         		PRINTER_A_PutChar(sale_number[x]);
 1712              		.loc 1 271 0 discriminator 3
 1713 0a68 97F84330 		ldrb	r3, [r7, #67]	@ zero_extendqisi2
 1714 0a6c B54A     		ldr	r2, .L229+12
 1715 0a6e D35C     		ldrb	r3, [r2, r3]	@ zero_extendqisi2
 1716 0a70 1846     		mov	r0, r3
 1717 0a72 FFF7FEFF 		bl	PRINTER_A_PutChar
 270:printer.c     ****         		PRINTER_A_PutChar(sale_number[x]);
 1718              		.loc 1 270 0 discriminator 3
 1719 0a76 97F84330 		ldrb	r3, [r7, #67]	@ zero_extendqisi2
 1720 0a7a 013B     		subs	r3, r3, #1
 1721 0a7c 87F84330 		strb	r3, [r7, #67]
 1722              	.L86:
 270:printer.c     ****         		PRINTER_A_PutChar(sale_number[x]);
 1723              		.loc 1 270 0 is_stmt 0 discriminator 1
 1724 0a80 97F84330 		ldrb	r3, [r7, #67]	@ zero_extendqisi2
 1725 0a84 002B     		cmp	r3, #0
 1726 0a86 EFD1     		bne	.L87
 1727              	.LBE37:
 272:printer.c     ****         	}
ARM GAS  C:\Users\THERMA~1\AppData\Local\Temp\ccXswU2c.s 			page 40


 273:printer.c     ****             int_salenumber++;
 1728              		.loc 1 273 0 is_stmt 1
 1729 0a88 AF4B     		ldr	r3, .L229+16
 1730 0a8a 1B78     		ldrb	r3, [r3]	@ zero_extendqisi2
 1731 0a8c 0133     		adds	r3, r3, #1
 1732 0a8e DAB2     		uxtb	r2, r3
 1733 0a90 AD4B     		ldr	r3, .L229+16
 1734 0a92 1A70     		strb	r2, [r3]
 1735              	.L85:
 274:printer.c     ****         }
 275:printer.c     ****         PRINTER_A_PutChar(LINE_FEED);
 1736              		.loc 1 275 0
 1737 0a94 AD4B     		ldr	r3, .L229+20
 1738 0a96 1B78     		ldrb	r3, [r3]	@ zero_extendqisi2
 1739 0a98 1846     		mov	r0, r3
 1740 0a9a FFF7FEFF 		bl	PRINTER_A_PutChar
 1741              	.LBB38:
 276:printer.c     ****     	for(uint8 x = 0; x < 13; x ++){
 1742              		.loc 1 276 0
 1743 0a9e 0023     		movs	r3, #0
 1744 0aa0 87F84230 		strb	r3, [r7, #66]
 1745 0aa4 0BE0     		b	.L88
 1746              	.L89:
 277:printer.c     ****     		PRINTER_A_PutChar(msn_placa[x]);
 1747              		.loc 1 277 0 discriminator 3
 1748 0aa6 97F84230 		ldrb	r3, [r7, #66]	@ zero_extendqisi2
 1749 0aaa A94A     		ldr	r2, .L229+24
 1750 0aac D35C     		ldrb	r3, [r2, r3]	@ zero_extendqisi2
 1751 0aae 1846     		mov	r0, r3
 1752 0ab0 FFF7FEFF 		bl	PRINTER_A_PutChar
 276:printer.c     ****     	for(uint8 x = 0; x < 13; x ++){
 1753              		.loc 1 276 0 discriminator 3
 1754 0ab4 97F84230 		ldrb	r3, [r7, #66]	@ zero_extendqisi2
 1755 0ab8 0133     		adds	r3, r3, #1
 1756 0aba 87F84230 		strb	r3, [r7, #66]
 1757              	.L88:
 276:printer.c     ****     	for(uint8 x = 0; x < 13; x ++){
 1758              		.loc 1 276 0 is_stmt 0 discriminator 1
 1759 0abe 97F84230 		ldrb	r3, [r7, #66]	@ zero_extendqisi2
 1760 0ac2 0C2B     		cmp	r3, #12
 1761 0ac4 EFD9     		bls	.L89
 1762              	.LBE38:
 1763              	.LBB39:
 278:printer.c     ****     	}
 279:printer.c     **** 		for(uint8 x = 0; x < 8; x ++){
 1764              		.loc 1 279 0 is_stmt 1
 1765 0ac6 0023     		movs	r3, #0
 1766 0ac8 87F84130 		strb	r3, [r7, #65]
 1767 0acc 0DE0     		b	.L90
 1768              	.L91:
 280:printer.c     **** 			PRINTER_A_PutChar(side.b.msn_plate[x]);
 1769              		.loc 1 280 0 discriminator 3
 1770 0ace 97F84130 		ldrb	r3, [r7, #65]	@ zero_extendqisi2
 1771 0ad2 9A4A     		ldr	r2, .L229+4
 1772 0ad4 1344     		add	r3, r3, r2
 1773 0ad6 93F85832 		ldrb	r3, [r3, #600]	@ zero_extendqisi2
 1774 0ada 1846     		mov	r0, r3
ARM GAS  C:\Users\THERMA~1\AppData\Local\Temp\ccXswU2c.s 			page 41


 1775 0adc FFF7FEFF 		bl	PRINTER_A_PutChar
 279:printer.c     **** 			PRINTER_A_PutChar(side.b.msn_plate[x]);
 1776              		.loc 1 279 0 discriminator 3
 1777 0ae0 97F84130 		ldrb	r3, [r7, #65]	@ zero_extendqisi2
 1778 0ae4 0133     		adds	r3, r3, #1
 1779 0ae6 87F84130 		strb	r3, [r7, #65]
 1780              	.L90:
 279:printer.c     **** 			PRINTER_A_PutChar(side.b.msn_plate[x]);
 1781              		.loc 1 279 0 is_stmt 0 discriminator 1
 1782 0aea 97F84130 		ldrb	r3, [r7, #65]	@ zero_extendqisi2
 1783 0aee 072B     		cmp	r3, #7
 1784 0af0 EDD9     		bls	.L91
 1785              	.LBE39:
 281:printer.c     **** 		}  
 282:printer.c     ****         PRINTER_A_PutChar(LINE_FEED);
 1786              		.loc 1 282 0 is_stmt 1
 1787 0af2 964B     		ldr	r3, .L229+20
 1788 0af4 1B78     		ldrb	r3, [r3]	@ zero_extendqisi2
 1789 0af6 1846     		mov	r0, r3
 1790 0af8 FFF7FEFF 		bl	PRINTER_A_PutChar
 1791              	.LBB40:
 283:printer.c     ****         for(uint8 x = 0; x < 13; x ++){
 1792              		.loc 1 283 0
 1793 0afc 0023     		movs	r3, #0
 1794 0afe 87F84030 		strb	r3, [r7, #64]
 1795 0b02 0BE0     		b	.L92
 1796              	.L93:
 284:printer.c     **** 			PRINTER_A_PutChar(PRN_MILLEAGE[x]);
 1797              		.loc 1 284 0 discriminator 3
 1798 0b04 97F84030 		ldrb	r3, [r7, #64]	@ zero_extendqisi2
 1799 0b08 924A     		ldr	r2, .L229+28
 1800 0b0a D35C     		ldrb	r3, [r2, r3]	@ zero_extendqisi2
 1801 0b0c 1846     		mov	r0, r3
 1802 0b0e FFF7FEFF 		bl	PRINTER_A_PutChar
 283:printer.c     ****         for(uint8 x = 0; x < 13; x ++){
 1803              		.loc 1 283 0 discriminator 3
 1804 0b12 97F84030 		ldrb	r3, [r7, #64]	@ zero_extendqisi2
 1805 0b16 0133     		adds	r3, r3, #1
 1806 0b18 87F84030 		strb	r3, [r7, #64]
 1807              	.L92:
 283:printer.c     ****         for(uint8 x = 0; x < 13; x ++){
 1808              		.loc 1 283 0 is_stmt 0 discriminator 1
 1809 0b1c 97F84030 		ldrb	r3, [r7, #64]	@ zero_extendqisi2
 1810 0b20 0C2B     		cmp	r3, #12
 1811 0b22 EFD9     		bls	.L93
 1812              	.LBE40:
 1813              	.LBB41:
 285:printer.c     **** 		}          
 286:printer.c     ****         for(uint8 x = 0; x <6; x ++){
 1814              		.loc 1 286 0 is_stmt 1
 1815 0b24 0023     		movs	r3, #0
 1816 0b26 87F83F30 		strb	r3, [r7, #63]
 1817 0b2a 0DE0     		b	.L94
 1818              	.L95:
 287:printer.c     **** 			PRINTER_A_PutChar(side.b.km[x]);
 1819              		.loc 1 287 0 discriminator 3
 1820 0b2c 97F83F30 		ldrb	r3, [r7, #63]	@ zero_extendqisi2
ARM GAS  C:\Users\THERMA~1\AppData\Local\Temp\ccXswU2c.s 			page 42


 1821 0b30 824A     		ldr	r2, .L229+4
 1822 0b32 1344     		add	r3, r3, r2
 1823 0b34 93F86232 		ldrb	r3, [r3, #610]	@ zero_extendqisi2
 1824 0b38 1846     		mov	r0, r3
 1825 0b3a FFF7FEFF 		bl	PRINTER_A_PutChar
 286:printer.c     **** 			PRINTER_A_PutChar(side.b.km[x]);
 1826              		.loc 1 286 0 discriminator 3
 1827 0b3e 97F83F30 		ldrb	r3, [r7, #63]	@ zero_extendqisi2
 1828 0b42 0133     		adds	r3, r3, #1
 1829 0b44 87F83F30 		strb	r3, [r7, #63]
 1830              	.L94:
 286:printer.c     **** 			PRINTER_A_PutChar(side.b.km[x]);
 1831              		.loc 1 286 0 is_stmt 0 discriminator 1
 1832 0b48 97F83F30 		ldrb	r3, [r7, #63]	@ zero_extendqisi2
 1833 0b4c 052B     		cmp	r3, #5
 1834 0b4e EDD9     		bls	.L95
 1835              	.LBE41:
 288:printer.c     **** 		}          
 289:printer.c     ****         PRINTER_A_PutChar(LINE_FEED);
 1836              		.loc 1 289 0 is_stmt 1
 1837 0b50 7E4B     		ldr	r3, .L229+20
 1838 0b52 1B78     		ldrb	r3, [r3]	@ zero_extendqisi2
 1839 0b54 1846     		mov	r0, r3
 1840 0b56 FFF7FEFF 		bl	PRINTER_A_PutChar
 1841              	.LBB42:
 290:printer.c     **** 		for(uint8 x = 0; x < 13; x ++){
 1842              		.loc 1 290 0
 1843 0b5a 0023     		movs	r3, #0
 1844 0b5c 87F83E30 		strb	r3, [r7, #62]
 1845 0b60 0BE0     		b	.L96
 1846              	.L97:
 291:printer.c     **** 			PRINTER_A_PutChar(msn_pos[x]);
 1847              		.loc 1 291 0 discriminator 3
 1848 0b62 97F83E30 		ldrb	r3, [r7, #62]	@ zero_extendqisi2
 1849 0b66 7C4A     		ldr	r2, .L229+32
 1850 0b68 D35C     		ldrb	r3, [r2, r3]	@ zero_extendqisi2
 1851 0b6a 1846     		mov	r0, r3
 1852 0b6c FFF7FEFF 		bl	PRINTER_A_PutChar
 290:printer.c     **** 		for(uint8 x = 0; x < 13; x ++){
 1853              		.loc 1 290 0 discriminator 3
 1854 0b70 97F83E30 		ldrb	r3, [r7, #62]	@ zero_extendqisi2
 1855 0b74 0133     		adds	r3, r3, #1
 1856 0b76 87F83E30 		strb	r3, [r7, #62]
 1857              	.L96:
 290:printer.c     **** 		for(uint8 x = 0; x < 13; x ++){
 1858              		.loc 1 290 0 is_stmt 0 discriminator 1
 1859 0b7a 97F83E30 		ldrb	r3, [r7, #62]	@ zero_extendqisi2
 1860 0b7e 0C2B     		cmp	r3, #12
 1861 0b80 EFD9     		bls	.L97
 1862              	.LBE42:
 292:printer.c     **** 		}
 293:printer.c     **** 		PRINTER_A_PutChar((side.b.dir)+ 0x31);
 1863              		.loc 1 293 0 is_stmt 1
 1864 0b82 6E4B     		ldr	r3, .L229+4
 1865 0b84 93F83531 		ldrb	r3, [r3, #309]	@ zero_extendqisi2
 1866 0b88 3133     		adds	r3, r3, #49
 1867 0b8a DBB2     		uxtb	r3, r3
ARM GAS  C:\Users\THERMA~1\AppData\Local\Temp\ccXswU2c.s 			page 43


 1868 0b8c 1846     		mov	r0, r3
 1869 0b8e FFF7FEFF 		bl	PRINTER_A_PutChar
 294:printer.c     **** 		PRINTER_A_PutChar(LINE_FEED);
 1870              		.loc 1 294 0
 1871 0b92 6E4B     		ldr	r3, .L229+20
 1872 0b94 1B78     		ldrb	r3, [r3]	@ zero_extendqisi2
 1873 0b96 1846     		mov	r0, r3
 1874 0b98 FFF7FEFF 		bl	PRINTER_A_PutChar
 1875              	.LBB43:
 295:printer.c     **** 		for(uint8 x = 0; x < 13; x ++){
 1876              		.loc 1 295 0
 1877 0b9c 0023     		movs	r3, #0
 1878 0b9e 87F83D30 		strb	r3, [r7, #61]
 1879 0ba2 0BE0     		b	.L98
 1880              	.L99:
 296:printer.c     **** 			PRINTER_A_PutChar(msn_product[x]);
 1881              		.loc 1 296 0 discriminator 3
 1882 0ba4 97F83D30 		ldrb	r3, [r7, #61]	@ zero_extendqisi2
 1883 0ba8 6C4A     		ldr	r2, .L229+36
 1884 0baa D35C     		ldrb	r3, [r2, r3]	@ zero_extendqisi2
 1885 0bac 1846     		mov	r0, r3
 1886 0bae FFF7FEFF 		bl	PRINTER_A_PutChar
 295:printer.c     **** 		for(uint8 x = 0; x < 13; x ++){
 1887              		.loc 1 295 0 discriminator 3
 1888 0bb2 97F83D30 		ldrb	r3, [r7, #61]	@ zero_extendqisi2
 1889 0bb6 0133     		adds	r3, r3, #1
 1890 0bb8 87F83D30 		strb	r3, [r7, #61]
 1891              	.L98:
 295:printer.c     **** 		for(uint8 x = 0; x < 13; x ++){
 1892              		.loc 1 295 0 is_stmt 0 discriminator 1
 1893 0bbc 97F83D30 		ldrb	r3, [r7, #61]	@ zero_extendqisi2
 1894 0bc0 0C2B     		cmp	r3, #12
 1895 0bc2 EFD9     		bls	.L99
 1896              	.LBE43:
 297:printer.c     **** 		}
 298:printer.c     **** 		if(side.b.Nozzle == 0x02){
 1897              		.loc 1 298 0 is_stmt 1
 1898 0bc4 5D4B     		ldr	r3, .L229+4
 1899 0bc6 93F86132 		ldrb	r3, [r3, #609]	@ zero_extendqisi2
 1900 0bca 022B     		cmp	r3, #2
 1901 0bcc 14D1     		bne	.L100
 1902              	.LBB44:
 299:printer.c     ****     		for(uint8 x = 0; x < 9; x ++){
 1903              		.loc 1 299 0
 1904 0bce 0023     		movs	r3, #0
 1905 0bd0 87F83C30 		strb	r3, [r7, #60]
 1906 0bd4 0BE0     		b	.L101
 1907              	.L102:
 300:printer.c     ****     			PRINTER_A_PutChar(msn_diesel[x]);
 1908              		.loc 1 300 0 discriminator 3
 1909 0bd6 97F83C30 		ldrb	r3, [r7, #60]	@ zero_extendqisi2
 1910 0bda 614A     		ldr	r2, .L229+40
 1911 0bdc D35C     		ldrb	r3, [r2, r3]	@ zero_extendqisi2
 1912 0bde 1846     		mov	r0, r3
 1913 0be0 FFF7FEFF 		bl	PRINTER_A_PutChar
 299:printer.c     ****     		for(uint8 x = 0; x < 9; x ++){
 1914              		.loc 1 299 0 discriminator 3
ARM GAS  C:\Users\THERMA~1\AppData\Local\Temp\ccXswU2c.s 			page 44


 1915 0be4 97F83C30 		ldrb	r3, [r7, #60]	@ zero_extendqisi2
 1916 0be8 0133     		adds	r3, r3, #1
 1917 0bea 87F83C30 		strb	r3, [r7, #60]
 1918              	.L101:
 299:printer.c     ****     		for(uint8 x = 0; x < 9; x ++){
 1919              		.loc 1 299 0 is_stmt 0 discriminator 1
 1920 0bee 97F83C30 		ldrb	r3, [r7, #60]	@ zero_extendqisi2
 1921 0bf2 082B     		cmp	r3, #8
 1922 0bf4 EFD9     		bls	.L102
 1923 0bf6 13E0     		b	.L103
 1924              	.L100:
 1925              	.LBE44:
 1926              	.LBB45:
 301:printer.c     ****     		}
 302:printer.c     ****         }else{
 303:printer.c     ****             for(uint8 x = 0; x < 9; x ++){
 1927              		.loc 1 303 0 is_stmt 1
 1928 0bf8 0023     		movs	r3, #0
 1929 0bfa 87F83B30 		strb	r3, [r7, #59]
 1930 0bfe 0BE0     		b	.L104
 1931              	.L105:
 304:printer.c     ****     			PRINTER_A_PutChar(msn_gasoline[x]);
 1932              		.loc 1 304 0 discriminator 3
 1933 0c00 97F83B30 		ldrb	r3, [r7, #59]	@ zero_extendqisi2
 1934 0c04 574A     		ldr	r2, .L229+44
 1935 0c06 D35C     		ldrb	r3, [r2, r3]	@ zero_extendqisi2
 1936 0c08 1846     		mov	r0, r3
 1937 0c0a FFF7FEFF 		bl	PRINTER_A_PutChar
 303:printer.c     ****     			PRINTER_A_PutChar(msn_gasoline[x]);
 1938              		.loc 1 303 0 discriminator 3
 1939 0c0e 97F83B30 		ldrb	r3, [r7, #59]	@ zero_extendqisi2
 1940 0c12 0133     		adds	r3, r3, #1
 1941 0c14 87F83B30 		strb	r3, [r7, #59]
 1942              	.L104:
 303:printer.c     ****     			PRINTER_A_PutChar(msn_gasoline[x]);
 1943              		.loc 1 303 0 is_stmt 0 discriminator 1
 1944 0c18 97F83B30 		ldrb	r3, [r7, #59]	@ zero_extendqisi2
 1945 0c1c 082B     		cmp	r3, #8
 1946 0c1e EFD9     		bls	.L105
 1947              	.L103:
 1948              	.LBE45:
 305:printer.c     ****     		}
 306:printer.c     ****         }
 307:printer.c     ****         PRINTER_A_PutChar(LINE_FEED); 	
 1949              		.loc 1 307 0 is_stmt 1
 1950 0c20 4A4B     		ldr	r3, .L229+20
 1951 0c22 1B78     		ldrb	r3, [r3]	@ zero_extendqisi2
 1952 0c24 1846     		mov	r0, r3
 1953 0c26 FFF7FEFF 		bl	PRINTER_A_PutChar
 1954              	.LBB46:
 308:printer.c     **** 		for(uint8 x = 0; x < 13; x ++){
 1955              		.loc 1 308 0
 1956 0c2a 0023     		movs	r3, #0
 1957 0c2c 87F83A30 		strb	r3, [r7, #58]
 1958 0c30 0BE0     		b	.L106
 1959              	.L107:
 309:printer.c     **** 			PRINTER_A_PutChar(msn_ppu[x]);
ARM GAS  C:\Users\THERMA~1\AppData\Local\Temp\ccXswU2c.s 			page 45


 1960              		.loc 1 309 0 discriminator 3
 1961 0c32 97F83A30 		ldrb	r3, [r7, #58]	@ zero_extendqisi2
 1962 0c36 4C4A     		ldr	r2, .L229+48
 1963 0c38 D35C     		ldrb	r3, [r2, r3]	@ zero_extendqisi2
 1964 0c3a 1846     		mov	r0, r3
 1965 0c3c FFF7FEFF 		bl	PRINTER_A_PutChar
 308:printer.c     **** 		for(uint8 x = 0; x < 13; x ++){
 1966              		.loc 1 308 0 discriminator 3
 1967 0c40 97F83A30 		ldrb	r3, [r7, #58]	@ zero_extendqisi2
 1968 0c44 0133     		adds	r3, r3, #1
 1969 0c46 87F83A30 		strb	r3, [r7, #58]
 1970              	.L106:
 308:printer.c     **** 		for(uint8 x = 0; x < 13; x ++){
 1971              		.loc 1 308 0 is_stmt 0 discriminator 1
 1972 0c4a 97F83A30 		ldrb	r3, [r7, #58]	@ zero_extendqisi2
 1973 0c4e 0C2B     		cmp	r3, #12
 1974 0c50 EFD9     		bls	.L107
 1975              	.LBE46:
 310:printer.c     **** 		}
 311:printer.c     **** 		PRINTER_A_PutChar(PRN_CURRENCY[0]);  
 1976              		.loc 1 311 0 is_stmt 1
 1977 0c52 464B     		ldr	r3, .L229+52
 1978 0c54 1B78     		ldrb	r3, [r3]	@ zero_extendqisi2
 1979 0c56 1846     		mov	r0, r3
 1980 0c58 FFF7FEFF 		bl	PRINTER_A_PutChar
 312:printer.c     **** 		PRINTER_A_PutChar(' ');
 1981              		.loc 1 312 0
 1982 0c5c 2020     		movs	r0, #32
 1983 0c5e FFF7FEFF 		bl	PRINTER_A_PutChar
 1984              	.LBB47:
 313:printer.c     **** 		for(uint8 x = 1; x < 6; x ++){
 1985              		.loc 1 313 0
 1986 0c62 0123     		movs	r3, #1
 1987 0c64 87F83930 		strb	r3, [r7, #57]
 1988 0c68 17E0     		b	.L108
 1989              	.L109:
 314:printer.c     **** 			PRINTER_A_PutChar(side.b.ProcessedPPU[side.b.Nozzle - 1][x]);
 1990              		.loc 1 314 0 discriminator 3
 1991 0c6a 344B     		ldr	r3, .L229+4
 1992 0c6c 93F86132 		ldrb	r3, [r3, #609]	@ zero_extendqisi2
 1993 0c70 5A1E     		subs	r2, r3, #1
 1994 0c72 97F83910 		ldrb	r1, [r7, #57]	@ zero_extendqisi2
 1995 0c76 3148     		ldr	r0, .L229+4
 1996 0c78 1346     		mov	r3, r2
 1997 0c7a 5B00     		lsls	r3, r3, #1
 1998 0c7c 1344     		add	r3, r3, r2
 1999 0c7e 5B00     		lsls	r3, r3, #1
 2000 0c80 0344     		add	r3, r3, r0
 2001 0c82 0B44     		add	r3, r3, r1
 2002 0c84 03F51073 		add	r3, r3, #576
 2003 0c88 1B78     		ldrb	r3, [r3]	@ zero_extendqisi2
 2004 0c8a 1846     		mov	r0, r3
 2005 0c8c FFF7FEFF 		bl	PRINTER_A_PutChar
 313:printer.c     **** 		for(uint8 x = 1; x < 6; x ++){
 2006              		.loc 1 313 0 discriminator 3
 2007 0c90 97F83930 		ldrb	r3, [r7, #57]	@ zero_extendqisi2
 2008 0c94 0133     		adds	r3, r3, #1
ARM GAS  C:\Users\THERMA~1\AppData\Local\Temp\ccXswU2c.s 			page 46


 2009 0c96 87F83930 		strb	r3, [r7, #57]
 2010              	.L108:
 313:printer.c     **** 		for(uint8 x = 1; x < 6; x ++){
 2011              		.loc 1 313 0 is_stmt 0 discriminator 1
 2012 0c9a 97F83930 		ldrb	r3, [r7, #57]	@ zero_extendqisi2
 2013 0c9e 052B     		cmp	r3, #5
 2014 0ca0 E3D9     		bls	.L109
 2015              	.LBE47:
 315:printer.c     **** 		}
 316:printer.c     ****         PRINTER_A_PutChar(LINE_FEED);
 2016              		.loc 1 316 0 is_stmt 1
 2017 0ca2 2A4B     		ldr	r3, .L229+20
 2018 0ca4 1B78     		ldrb	r3, [r3]	@ zero_extendqisi2
 2019 0ca6 1846     		mov	r0, r3
 2020 0ca8 FFF7FEFF 		bl	PRINTER_A_PutChar
 2021              	.LBB48:
 317:printer.c     **** 		for(uint8 x = 0; x < 13; x ++){
 2022              		.loc 1 317 0
 2023 0cac 0023     		movs	r3, #0
 2024 0cae 87F83830 		strb	r3, [r7, #56]
 2025 0cb2 0BE0     		b	.L110
 2026              	.L111:
 318:printer.c     **** 			PRINTER_A_PutChar(msn_vol[x]);
 2027              		.loc 1 318 0 discriminator 3
 2028 0cb4 97F83830 		ldrb	r3, [r7, #56]	@ zero_extendqisi2
 2029 0cb8 2D4A     		ldr	r2, .L229+56
 2030 0cba D35C     		ldrb	r3, [r2, r3]	@ zero_extendqisi2
 2031 0cbc 1846     		mov	r0, r3
 2032 0cbe FFF7FEFF 		bl	PRINTER_A_PutChar
 317:printer.c     **** 		for(uint8 x = 0; x < 13; x ++){
 2033              		.loc 1 317 0 discriminator 3
 2034 0cc2 97F83830 		ldrb	r3, [r7, #56]	@ zero_extendqisi2
 2035 0cc6 0133     		adds	r3, r3, #1
 2036 0cc8 87F83830 		strb	r3, [r7, #56]
 2037              	.L110:
 317:printer.c     **** 		for(uint8 x = 0; x < 13; x ++){
 2038              		.loc 1 317 0 is_stmt 0 discriminator 1
 2039 0ccc 97F83830 		ldrb	r3, [r7, #56]	@ zero_extendqisi2
 2040 0cd0 0C2B     		cmp	r3, #12
 2041 0cd2 EFD9     		bls	.L111
 2042              	.LBE48:
 2043              	.LBB49:
 319:printer.c     **** 		}
 320:printer.c     **** 		for(uint8 x = 0; x < 8; x ++){
 2044              		.loc 1 320 0 is_stmt 1
 2045 0cd4 0023     		movs	r3, #0
 2046 0cd6 87F83730 		strb	r3, [r7, #55]
 2047 0cda 18E0     		b	.L112
 2048              	.L114:
 321:printer.c     **** 			if((8-x) == DecVol)
 2049              		.loc 1 321 0
 2050 0cdc 97F83730 		ldrb	r3, [r7, #55]	@ zero_extendqisi2
 2051 0ce0 C3F10803 		rsb	r3, r3, #8
 2052 0ce4 234A     		ldr	r2, .L229+60
 2053 0ce6 1278     		ldrb	r2, [r2]	@ zero_extendqisi2
 2054 0ce8 9342     		cmp	r3, r2
 2055 0cea 02D1     		bne	.L113
ARM GAS  C:\Users\THERMA~1\AppData\Local\Temp\ccXswU2c.s 			page 47


 322:printer.c     **** 				PRINTER_A_PutChar('.');
 2056              		.loc 1 322 0
 2057 0cec 2E20     		movs	r0, #46
 2058 0cee FFF7FEFF 		bl	PRINTER_A_PutChar
 2059              	.L113:
 323:printer.c     **** 			PRINTER_A_PutChar(side.b.ProcessedvolumeSale[x]);        
 2060              		.loc 1 323 0 discriminator 2
 2061 0cf2 97F83730 		ldrb	r3, [r7, #55]	@ zero_extendqisi2
 2062 0cf6 114A     		ldr	r2, .L229+4
 2063 0cf8 1344     		add	r3, r3, r2
 2064 0cfa 93F83832 		ldrb	r3, [r3, #568]	@ zero_extendqisi2
 2065 0cfe 1846     		mov	r0, r3
 2066 0d00 FFF7FEFF 		bl	PRINTER_A_PutChar
 320:printer.c     **** 			if((8-x) == DecVol)
 2067              		.loc 1 320 0 discriminator 2
 2068 0d04 97F83730 		ldrb	r3, [r7, #55]	@ zero_extendqisi2
 2069 0d08 0133     		adds	r3, r3, #1
 2070 0d0a 87F83730 		strb	r3, [r7, #55]
 2071              	.L112:
 320:printer.c     **** 			if((8-x) == DecVol)
 2072              		.loc 1 320 0 is_stmt 0 discriminator 1
 2073 0d0e 97F83730 		ldrb	r3, [r7, #55]	@ zero_extendqisi2
 2074 0d12 072B     		cmp	r3, #7
 2075 0d14 E2D9     		bls	.L114
 2076              	.LBE49:
 324:printer.c     **** 		}
 325:printer.c     **** 		PRINTER_A_PutChar(' ');
 2077              		.loc 1 325 0 is_stmt 1
 2078 0d16 2020     		movs	r0, #32
 2079 0d18 FFF7FEFF 		bl	PRINTER_A_PutChar
 326:printer.c     **** 		PRINTER_A_PutChar(VolSimbol[0]);
 2080              		.loc 1 326 0
 2081 0d1c 164B     		ldr	r3, .L229+64
 2082 0d1e 1B78     		ldrb	r3, [r3]	@ zero_extendqisi2
 2083 0d20 1846     		mov	r0, r3
 2084 0d22 FFF7FEFF 		bl	PRINTER_A_PutChar
 327:printer.c     **** 		PRINTER_A_PutChar(LINE_FEED); 
 2085              		.loc 1 327 0
 2086 0d26 094B     		ldr	r3, .L229+20
 2087 0d28 1B78     		ldrb	r3, [r3]	@ zero_extendqisi2
 2088 0d2a 1846     		mov	r0, r3
 2089 0d2c FFF7FEFF 		bl	PRINTER_A_PutChar
 2090              	.LBB50:
 328:printer.c     **** 		for(uint8 x = 0; x < 13; x ++){
 2091              		.loc 1 328 0
 2092 0d30 0023     		movs	r3, #0
 2093 0d32 87F83630 		strb	r3, [r7, #54]
 2094 0d36 2DE0     		b	.L115
 2095              	.L230:
 2096              		.align	2
 2097              	.L229:
 2098 0d38 00000000 		.word	msn_venta
 2099 0d3c 00000000 		.word	side
 2100 0d40 00000000 		.word	sale_number_copy
 2101 0d44 00000000 		.word	sale_number
 2102 0d48 00000000 		.word	int_salenumber
 2103 0d4c 00000000 		.word	LINE_FEED
ARM GAS  C:\Users\THERMA~1\AppData\Local\Temp\ccXswU2c.s 			page 48


 2104 0d50 00000000 		.word	msn_placa
 2105 0d54 00000000 		.word	PRN_MILLEAGE
 2106 0d58 00000000 		.word	msn_pos
 2107 0d5c 00000000 		.word	msn_product
 2108 0d60 00000000 		.word	msn_diesel
 2109 0d64 00000000 		.word	msn_gasoline
 2110 0d68 00000000 		.word	msn_ppu
 2111 0d6c 00000000 		.word	PRN_CURRENCY
 2112 0d70 00000000 		.word	msn_vol
 2113 0d74 00000000 		.word	DecVol
 2114 0d78 00000000 		.word	VolSimbol
 2115              	.L116:
 329:printer.c     **** 			PRINTER_A_PutChar(msn_din[x]);
 2116              		.loc 1 329 0 discriminator 3
 2117 0d7c 97F83630 		ldrb	r3, [r7, #54]	@ zero_extendqisi2
 2118 0d80 C44A     		ldr	r2, .L231
 2119 0d82 D35C     		ldrb	r3, [r2, r3]	@ zero_extendqisi2
 2120 0d84 1846     		mov	r0, r3
 2121 0d86 FFF7FEFF 		bl	PRINTER_A_PutChar
 328:printer.c     **** 		for(uint8 x = 0; x < 13; x ++){
 2122              		.loc 1 328 0 discriminator 3
 2123 0d8a 97F83630 		ldrb	r3, [r7, #54]	@ zero_extendqisi2
 2124 0d8e 0133     		adds	r3, r3, #1
 2125 0d90 87F83630 		strb	r3, [r7, #54]
 2126              	.L115:
 328:printer.c     **** 		for(uint8 x = 0; x < 13; x ++){
 2127              		.loc 1 328 0 is_stmt 0 discriminator 1
 2128 0d94 97F83630 		ldrb	r3, [r7, #54]	@ zero_extendqisi2
 2129 0d98 0C2B     		cmp	r3, #12
 2130 0d9a EFD9     		bls	.L116
 2131              	.LBE50:
 330:printer.c     **** 		}     
 331:printer.c     **** 		PRINTER_A_PutChar(PRN_CURRENCY[0]);  
 2132              		.loc 1 331 0 is_stmt 1
 2133 0d9c BE4B     		ldr	r3, .L231+4
 2134 0d9e 1B78     		ldrb	r3, [r3]	@ zero_extendqisi2
 2135 0da0 1846     		mov	r0, r3
 2136 0da2 FFF7FEFF 		bl	PRINTER_A_PutChar
 332:printer.c     **** 		PRINTER_A_PutChar(' ');
 2137              		.loc 1 332 0
 2138 0da6 2020     		movs	r0, #32
 2139 0da8 FFF7FEFF 		bl	PRINTER_A_PutChar
 2140              	.LBB51:
 333:printer.c     **** 		for(uint8 x = 0; x < 8; x ++){
 2141              		.loc 1 333 0
 2142 0dac 0023     		movs	r3, #0
 2143 0dae 87F83530 		strb	r3, [r7, #53]
 2144 0db2 0DE0     		b	.L117
 2145              	.L118:
 334:printer.c     **** 			PRINTER_A_PutChar(side.b.ProcessedmoneySale[x]);
 2146              		.loc 1 334 0 discriminator 3
 2147 0db4 97F83530 		ldrb	r3, [r7, #53]	@ zero_extendqisi2
 2148 0db8 B84A     		ldr	r2, .L231+8
 2149 0dba 1344     		add	r3, r3, r2
 2150 0dbc 93F83032 		ldrb	r3, [r3, #560]	@ zero_extendqisi2
 2151 0dc0 1846     		mov	r0, r3
 2152 0dc2 FFF7FEFF 		bl	PRINTER_A_PutChar
ARM GAS  C:\Users\THERMA~1\AppData\Local\Temp\ccXswU2c.s 			page 49


 333:printer.c     **** 		for(uint8 x = 0; x < 8; x ++){
 2153              		.loc 1 333 0 discriminator 3
 2154 0dc6 97F83530 		ldrb	r3, [r7, #53]	@ zero_extendqisi2
 2155 0dca 0133     		adds	r3, r3, #1
 2156 0dcc 87F83530 		strb	r3, [r7, #53]
 2157              	.L117:
 333:printer.c     **** 		for(uint8 x = 0; x < 8; x ++){
 2158              		.loc 1 333 0 is_stmt 0 discriminator 1
 2159 0dd0 97F83530 		ldrb	r3, [r7, #53]	@ zero_extendqisi2
 2160 0dd4 072B     		cmp	r3, #7
 2161 0dd6 EDD9     		bls	.L118
 2162              	.LBE51:
 335:printer.c     **** 		}		
 336:printer.c     **** 		PRINTER_A_PutChar(LINE_FEED);
 2163              		.loc 1 336 0 is_stmt 1
 2164 0dd8 B14B     		ldr	r3, .L231+12
 2165 0dda 1B78     		ldrb	r3, [r3]	@ zero_extendqisi2
 2166 0ddc 1846     		mov	r0, r3
 2167 0dde FFF7FEFF 		bl	PRINTER_A_PutChar
 337:printer.c     ****         side.b.Copy = 1;
 2168              		.loc 1 337 0
 2169 0de2 AE4B     		ldr	r3, .L231+8
 2170 0de4 0122     		movs	r2, #1
 2171 0de6 83F86922 		strb	r2, [r3, #617]
 2172              	.L74:
 338:printer.c     **** 	}
 339:printer.c     **** 	
 340:printer.c     ****     if(address == side.c.dir){
 2173              		.loc 1 340 0
 2174 0dea AC4B     		ldr	r3, .L231+8
 2175 0dec 93F86A32 		ldrb	r3, [r3, #618]	@ zero_extendqisi2
 2176 0df0 FA79     		ldrb	r2, [r7, #7]	@ zero_extendqisi2
 2177 0df2 9A42     		cmp	r2, r3
 2178 0df4 40F02882 		bne	.L119
 341:printer.c     ****         if(side.c.Copy == 1){
 2179              		.loc 1 341 0
 2180 0df8 A84B     		ldr	r3, .L231+8
 2181 0dfa 93F89E33 		ldrb	r3, [r3, #926]	@ zero_extendqisi2
 2182 0dfe 012B     		cmp	r3, #1
 2183 0e00 2CD1     		bne	.L120
 2184              	.LBB52:
 342:printer.c     ****             for(uint8 x = 0; x < 32; x ++){
 2185              		.loc 1 342 0
 2186 0e02 0023     		movs	r3, #0
 2187 0e04 87F83430 		strb	r3, [r7, #52]
 2188 0e08 0BE0     		b	.L121
 2189              	.L122:
 343:printer.c     ****         		PRINTER_A_PutChar(msn_copy[x]);
 2190              		.loc 1 343 0 discriminator 3
 2191 0e0a 97F83430 		ldrb	r3, [r7, #52]	@ zero_extendqisi2
 2192 0e0e A54A     		ldr	r2, .L231+16
 2193 0e10 D35C     		ldrb	r3, [r2, r3]	@ zero_extendqisi2
 2194 0e12 1846     		mov	r0, r3
 2195 0e14 FFF7FEFF 		bl	PRINTER_A_PutChar
 342:printer.c     ****             for(uint8 x = 0; x < 32; x ++){
 2196              		.loc 1 342 0 discriminator 3
 2197 0e18 97F83430 		ldrb	r3, [r7, #52]	@ zero_extendqisi2
ARM GAS  C:\Users\THERMA~1\AppData\Local\Temp\ccXswU2c.s 			page 50


 2198 0e1c 0133     		adds	r3, r3, #1
 2199 0e1e 87F83430 		strb	r3, [r7, #52]
 2200              	.L121:
 342:printer.c     ****             for(uint8 x = 0; x < 32; x ++){
 2201              		.loc 1 342 0 is_stmt 0 discriminator 1
 2202 0e22 97F83430 		ldrb	r3, [r7, #52]	@ zero_extendqisi2
 2203 0e26 1F2B     		cmp	r3, #31
 2204 0e28 EFD9     		bls	.L122
 2205              	.LBE52:
 344:printer.c     ****         	}
 345:printer.c     ****             PRINTER_A_PutChar(LINE_FEED);
 2206              		.loc 1 345 0 is_stmt 1
 2207 0e2a 9D4B     		ldr	r3, .L231+12
 2208 0e2c 1B78     		ldrb	r3, [r3]	@ zero_extendqisi2
 2209 0e2e 1846     		mov	r0, r3
 2210 0e30 FFF7FEFF 		bl	PRINTER_A_PutChar
 2211              	.LBB53:
 346:printer.c     ****             for(uint8 x = 0; x < 32; x ++){
 2212              		.loc 1 346 0
 2213 0e34 0023     		movs	r3, #0
 2214 0e36 87F83330 		strb	r3, [r7, #51]
 2215 0e3a 0BE0     		b	.L123
 2216              	.L124:
 347:printer.c     ****         		PRINTER_A_PutChar(SEPARATOR[x]);
 2217              		.loc 1 347 0 discriminator 3
 2218 0e3c 97F83330 		ldrb	r3, [r7, #51]	@ zero_extendqisi2
 2219 0e40 994A     		ldr	r2, .L231+20
 2220 0e42 D35C     		ldrb	r3, [r2, r3]	@ zero_extendqisi2
 2221 0e44 1846     		mov	r0, r3
 2222 0e46 FFF7FEFF 		bl	PRINTER_A_PutChar
 346:printer.c     ****             for(uint8 x = 0; x < 32; x ++){
 2223              		.loc 1 346 0 discriminator 3
 2224 0e4a 97F83330 		ldrb	r3, [r7, #51]	@ zero_extendqisi2
 2225 0e4e 0133     		adds	r3, r3, #1
 2226 0e50 87F83330 		strb	r3, [r7, #51]
 2227              	.L123:
 346:printer.c     ****             for(uint8 x = 0; x < 32; x ++){
 2228              		.loc 1 346 0 is_stmt 0 discriminator 1
 2229 0e54 97F83330 		ldrb	r3, [r7, #51]	@ zero_extendqisi2
 2230 0e58 1F2B     		cmp	r3, #31
 2231 0e5a EFD9     		bls	.L124
 2232              	.L120:
 2233              	.LBE53:
 348:printer.c     ****         	}            
 349:printer.c     ****         }
 350:printer.c     ****         PRINTER_A_PutChar(LINE_FEED);
 2234              		.loc 1 350 0 is_stmt 1
 2235 0e5c 904B     		ldr	r3, .L231+12
 2236 0e5e 1B78     		ldrb	r3, [r3]	@ zero_extendqisi2
 2237 0e60 1846     		mov	r0, r3
 2238 0e62 FFF7FEFF 		bl	PRINTER_A_PutChar
 2239              	.LBB54:
 351:printer.c     ****         for(uint8 x = 0; x < 13; x ++){
 2240              		.loc 1 351 0
 2241 0e66 0023     		movs	r3, #0
 2242 0e68 87F83230 		strb	r3, [r7, #50]
 2243 0e6c 0BE0     		b	.L125
ARM GAS  C:\Users\THERMA~1\AppData\Local\Temp\ccXswU2c.s 			page 51


 2244              	.L126:
 352:printer.c     ****     		PRINTER_A_PutChar(msn_venta[x]);
 2245              		.loc 1 352 0 discriminator 3
 2246 0e6e 97F83230 		ldrb	r3, [r7, #50]	@ zero_extendqisi2
 2247 0e72 8E4A     		ldr	r2, .L231+24
 2248 0e74 D35C     		ldrb	r3, [r2, r3]	@ zero_extendqisi2
 2249 0e76 1846     		mov	r0, r3
 2250 0e78 FFF7FEFF 		bl	PRINTER_A_PutChar
 351:printer.c     ****         for(uint8 x = 0; x < 13; x ++){
 2251              		.loc 1 351 0 discriminator 3
 2252 0e7c 97F83230 		ldrb	r3, [r7, #50]	@ zero_extendqisi2
 2253 0e80 0133     		adds	r3, r3, #1
 2254 0e82 87F83230 		strb	r3, [r7, #50]
 2255              	.L125:
 351:printer.c     ****         for(uint8 x = 0; x < 13; x ++){
 2256              		.loc 1 351 0 is_stmt 0 discriminator 1
 2257 0e86 97F83230 		ldrb	r3, [r7, #50]	@ zero_extendqisi2
 2258 0e8a 0C2B     		cmp	r3, #12
 2259 0e8c EFD9     		bls	.L126
 2260              	.LBE54:
 353:printer.c     ****     	}
 354:printer.c     ****         if(side.c.Copy == 1){
 2261              		.loc 1 354 0 is_stmt 1
 2262 0e8e 834B     		ldr	r3, .L231+8
 2263 0e90 93F89E33 		ldrb	r3, [r3, #926]	@ zero_extendqisi2
 2264 0e94 012B     		cmp	r3, #1
 2265 0e96 14D1     		bne	.L127
 2266              	.LBB55:
 355:printer.c     ****            for(uint8 x = 5; x > 0; x --){
 2267              		.loc 1 355 0
 2268 0e98 0523     		movs	r3, #5
 2269 0e9a 87F83130 		strb	r3, [r7, #49]
 2270 0e9e 0BE0     		b	.L128
 2271              	.L129:
 356:printer.c     ****         		PRINTER_A_PutChar(sale_number_copy[x]);
 2272              		.loc 1 356 0 discriminator 3
 2273 0ea0 97F83130 		ldrb	r3, [r7, #49]	@ zero_extendqisi2
 2274 0ea4 824A     		ldr	r2, .L231+28
 2275 0ea6 D35C     		ldrb	r3, [r2, r3]	@ zero_extendqisi2
 2276 0ea8 1846     		mov	r0, r3
 2277 0eaa FFF7FEFF 		bl	PRINTER_A_PutChar
 355:printer.c     ****            for(uint8 x = 5; x > 0; x --){
 2278              		.loc 1 355 0 discriminator 3
 2279 0eae 97F83130 		ldrb	r3, [r7, #49]	@ zero_extendqisi2
 2280 0eb2 013B     		subs	r3, r3, #1
 2281 0eb4 87F83130 		strb	r3, [r7, #49]
 2282              	.L128:
 355:printer.c     ****            for(uint8 x = 5; x > 0; x --){
 2283              		.loc 1 355 0 is_stmt 0 discriminator 1
 2284 0eb8 97F83130 		ldrb	r3, [r7, #49]	@ zero_extendqisi2
 2285 0ebc 002B     		cmp	r3, #0
 2286 0ebe EFD1     		bne	.L129
 2287 0ec0 19E0     		b	.L130
 2288              	.L127:
 2289              	.LBE55:
 2290              	.LBB56:
 357:printer.c     ****         	} 
ARM GAS  C:\Users\THERMA~1\AppData\Local\Temp\ccXswU2c.s 			page 52


 358:printer.c     ****         }else{
 359:printer.c     ****             for(uint8 x = 5; x > 0; x --){
 2291              		.loc 1 359 0 is_stmt 1
 2292 0ec2 0523     		movs	r3, #5
 2293 0ec4 87F83030 		strb	r3, [r7, #48]
 2294 0ec8 0BE0     		b	.L131
 2295              	.L132:
 360:printer.c     ****         		PRINTER_A_PutChar(sale_number[x]);
 2296              		.loc 1 360 0 discriminator 3
 2297 0eca 97F83030 		ldrb	r3, [r7, #48]	@ zero_extendqisi2
 2298 0ece 794A     		ldr	r2, .L231+32
 2299 0ed0 D35C     		ldrb	r3, [r2, r3]	@ zero_extendqisi2
 2300 0ed2 1846     		mov	r0, r3
 2301 0ed4 FFF7FEFF 		bl	PRINTER_A_PutChar
 359:printer.c     ****         		PRINTER_A_PutChar(sale_number[x]);
 2302              		.loc 1 359 0 discriminator 3
 2303 0ed8 97F83030 		ldrb	r3, [r7, #48]	@ zero_extendqisi2
 2304 0edc 013B     		subs	r3, r3, #1
 2305 0ede 87F83030 		strb	r3, [r7, #48]
 2306              	.L131:
 359:printer.c     ****         		PRINTER_A_PutChar(sale_number[x]);
 2307              		.loc 1 359 0 is_stmt 0 discriminator 1
 2308 0ee2 97F83030 		ldrb	r3, [r7, #48]	@ zero_extendqisi2
 2309 0ee6 002B     		cmp	r3, #0
 2310 0ee8 EFD1     		bne	.L132
 2311              	.LBE56:
 361:printer.c     ****         	}
 362:printer.c     ****             int_salenumber++;
 2312              		.loc 1 362 0 is_stmt 1
 2313 0eea 734B     		ldr	r3, .L231+36
 2314 0eec 1B78     		ldrb	r3, [r3]	@ zero_extendqisi2
 2315 0eee 0133     		adds	r3, r3, #1
 2316 0ef0 DAB2     		uxtb	r2, r3
 2317 0ef2 714B     		ldr	r3, .L231+36
 2318 0ef4 1A70     		strb	r2, [r3]
 2319              	.L130:
 363:printer.c     ****         }
 364:printer.c     ****         PRINTER_A_PutChar(LINE_FEED);
 2320              		.loc 1 364 0
 2321 0ef6 6A4B     		ldr	r3, .L231+12
 2322 0ef8 1B78     		ldrb	r3, [r3]	@ zero_extendqisi2
 2323 0efa 1846     		mov	r0, r3
 2324 0efc FFF7FEFF 		bl	PRINTER_A_PutChar
 2325              	.LBB57:
 365:printer.c     ****     	for(uint8 x = 0; x < 13; x ++){
 2326              		.loc 1 365 0
 2327 0f00 0023     		movs	r3, #0
 2328 0f02 87F82F30 		strb	r3, [r7, #47]
 2329 0f06 0BE0     		b	.L133
 2330              	.L134:
 366:printer.c     ****     		PRINTER_A_PutChar(msn_placa[x]);
 2331              		.loc 1 366 0 discriminator 3
 2332 0f08 97F82F30 		ldrb	r3, [r7, #47]	@ zero_extendqisi2
 2333 0f0c 6B4A     		ldr	r2, .L231+40
 2334 0f0e D35C     		ldrb	r3, [r2, r3]	@ zero_extendqisi2
 2335 0f10 1846     		mov	r0, r3
 2336 0f12 FFF7FEFF 		bl	PRINTER_A_PutChar
ARM GAS  C:\Users\THERMA~1\AppData\Local\Temp\ccXswU2c.s 			page 53


 365:printer.c     ****     	for(uint8 x = 0; x < 13; x ++){
 2337              		.loc 1 365 0 discriminator 3
 2338 0f16 97F82F30 		ldrb	r3, [r7, #47]	@ zero_extendqisi2
 2339 0f1a 0133     		adds	r3, r3, #1
 2340 0f1c 87F82F30 		strb	r3, [r7, #47]
 2341              	.L133:
 365:printer.c     ****     	for(uint8 x = 0; x < 13; x ++){
 2342              		.loc 1 365 0 is_stmt 0 discriminator 1
 2343 0f20 97F82F30 		ldrb	r3, [r7, #47]	@ zero_extendqisi2
 2344 0f24 0C2B     		cmp	r3, #12
 2345 0f26 EFD9     		bls	.L134
 2346              	.LBE57:
 2347              	.LBB58:
 367:printer.c     ****     	}
 368:printer.c     **** 		for(uint8 x = 0; x < 8; x ++){
 2348              		.loc 1 368 0 is_stmt 1
 2349 0f28 0023     		movs	r3, #0
 2350 0f2a 87F82E30 		strb	r3, [r7, #46]
 2351 0f2e 0DE0     		b	.L135
 2352              	.L136:
 369:printer.c     **** 			PRINTER_A_PutChar(side.c.msn_plate[x]);
 2353              		.loc 1 369 0 discriminator 3
 2354 0f30 97F82E30 		ldrb	r3, [r7, #46]	@ zero_extendqisi2
 2355 0f34 594A     		ldr	r2, .L231+8
 2356 0f36 1344     		add	r3, r3, r2
 2357 0f38 93F88D33 		ldrb	r3, [r3, #909]	@ zero_extendqisi2
 2358 0f3c 1846     		mov	r0, r3
 2359 0f3e FFF7FEFF 		bl	PRINTER_A_PutChar
 368:printer.c     **** 			PRINTER_A_PutChar(side.c.msn_plate[x]);
 2360              		.loc 1 368 0 discriminator 3
 2361 0f42 97F82E30 		ldrb	r3, [r7, #46]	@ zero_extendqisi2
 2362 0f46 0133     		adds	r3, r3, #1
 2363 0f48 87F82E30 		strb	r3, [r7, #46]
 2364              	.L135:
 368:printer.c     **** 			PRINTER_A_PutChar(side.c.msn_plate[x]);
 2365              		.loc 1 368 0 is_stmt 0 discriminator 1
 2366 0f4c 97F82E30 		ldrb	r3, [r7, #46]	@ zero_extendqisi2
 2367 0f50 072B     		cmp	r3, #7
 2368 0f52 EDD9     		bls	.L136
 2369              	.LBE58:
 370:printer.c     **** 		}  
 371:printer.c     ****         PRINTER_A_PutChar(LINE_FEED);
 2370              		.loc 1 371 0 is_stmt 1
 2371 0f54 524B     		ldr	r3, .L231+12
 2372 0f56 1B78     		ldrb	r3, [r3]	@ zero_extendqisi2
 2373 0f58 1846     		mov	r0, r3
 2374 0f5a FFF7FEFF 		bl	PRINTER_A_PutChar
 2375              	.LBB59:
 372:printer.c     ****         for(uint8 x = 0; x < 13; x ++){
 2376              		.loc 1 372 0
 2377 0f5e 0023     		movs	r3, #0
 2378 0f60 87F82D30 		strb	r3, [r7, #45]
 2379 0f64 0BE0     		b	.L137
 2380              	.L138:
 373:printer.c     **** 			PRINTER_A_PutChar(PRN_MILLEAGE[x]);
 2381              		.loc 1 373 0 discriminator 3
 2382 0f66 97F82D30 		ldrb	r3, [r7, #45]	@ zero_extendqisi2
ARM GAS  C:\Users\THERMA~1\AppData\Local\Temp\ccXswU2c.s 			page 54


 2383 0f6a 554A     		ldr	r2, .L231+44
 2384 0f6c D35C     		ldrb	r3, [r2, r3]	@ zero_extendqisi2
 2385 0f6e 1846     		mov	r0, r3
 2386 0f70 FFF7FEFF 		bl	PRINTER_A_PutChar
 372:printer.c     ****         for(uint8 x = 0; x < 13; x ++){
 2387              		.loc 1 372 0 discriminator 3
 2388 0f74 97F82D30 		ldrb	r3, [r7, #45]	@ zero_extendqisi2
 2389 0f78 0133     		adds	r3, r3, #1
 2390 0f7a 87F82D30 		strb	r3, [r7, #45]
 2391              	.L137:
 372:printer.c     ****         for(uint8 x = 0; x < 13; x ++){
 2392              		.loc 1 372 0 is_stmt 0 discriminator 1
 2393 0f7e 97F82D30 		ldrb	r3, [r7, #45]	@ zero_extendqisi2
 2394 0f82 0C2B     		cmp	r3, #12
 2395 0f84 EFD9     		bls	.L138
 2396              	.LBE59:
 2397              	.LBB60:
 374:printer.c     **** 		}          
 375:printer.c     ****         for(uint8 x = 0; x <6; x ++){
 2398              		.loc 1 375 0 is_stmt 1
 2399 0f86 0023     		movs	r3, #0
 2400 0f88 87F82C30 		strb	r3, [r7, #44]
 2401 0f8c 0DE0     		b	.L139
 2402              	.L140:
 376:printer.c     **** 			PRINTER_A_PutChar(side.c.km[x]);
 2403              		.loc 1 376 0 discriminator 3
 2404 0f8e 97F82C30 		ldrb	r3, [r7, #44]	@ zero_extendqisi2
 2405 0f92 424A     		ldr	r2, .L231+8
 2406 0f94 1344     		add	r3, r3, r2
 2407 0f96 93F89733 		ldrb	r3, [r3, #919]	@ zero_extendqisi2
 2408 0f9a 1846     		mov	r0, r3
 2409 0f9c FFF7FEFF 		bl	PRINTER_A_PutChar
 375:printer.c     **** 			PRINTER_A_PutChar(side.c.km[x]);
 2410              		.loc 1 375 0 discriminator 3
 2411 0fa0 97F82C30 		ldrb	r3, [r7, #44]	@ zero_extendqisi2
 2412 0fa4 0133     		adds	r3, r3, #1
 2413 0fa6 87F82C30 		strb	r3, [r7, #44]
 2414              	.L139:
 375:printer.c     **** 			PRINTER_A_PutChar(side.c.km[x]);
 2415              		.loc 1 375 0 is_stmt 0 discriminator 1
 2416 0faa 97F82C30 		ldrb	r3, [r7, #44]	@ zero_extendqisi2
 2417 0fae 052B     		cmp	r3, #5
 2418 0fb0 EDD9     		bls	.L140
 2419              	.LBE60:
 377:printer.c     **** 		}  
 378:printer.c     ****         PRINTER_A_PutChar(LINE_FEED);
 2420              		.loc 1 378 0 is_stmt 1
 2421 0fb2 3B4B     		ldr	r3, .L231+12
 2422 0fb4 1B78     		ldrb	r3, [r3]	@ zero_extendqisi2
 2423 0fb6 1846     		mov	r0, r3
 2424 0fb8 FFF7FEFF 		bl	PRINTER_A_PutChar
 2425              	.LBB61:
 379:printer.c     **** 		for(uint8 x = 0; x < 13; x ++){
 2426              		.loc 1 379 0
 2427 0fbc 0023     		movs	r3, #0
 2428 0fbe 87F82B30 		strb	r3, [r7, #43]
 2429 0fc2 0BE0     		b	.L141
ARM GAS  C:\Users\THERMA~1\AppData\Local\Temp\ccXswU2c.s 			page 55


 2430              	.L142:
 380:printer.c     **** 			PRINTER_A_PutChar(msn_pos[x]);
 2431              		.loc 1 380 0 discriminator 3
 2432 0fc4 97F82B30 		ldrb	r3, [r7, #43]	@ zero_extendqisi2
 2433 0fc8 3E4A     		ldr	r2, .L231+48
 2434 0fca D35C     		ldrb	r3, [r2, r3]	@ zero_extendqisi2
 2435 0fcc 1846     		mov	r0, r3
 2436 0fce FFF7FEFF 		bl	PRINTER_A_PutChar
 379:printer.c     **** 		for(uint8 x = 0; x < 13; x ++){
 2437              		.loc 1 379 0 discriminator 3
 2438 0fd2 97F82B30 		ldrb	r3, [r7, #43]	@ zero_extendqisi2
 2439 0fd6 0133     		adds	r3, r3, #1
 2440 0fd8 87F82B30 		strb	r3, [r7, #43]
 2441              	.L141:
 379:printer.c     **** 		for(uint8 x = 0; x < 13; x ++){
 2442              		.loc 1 379 0 is_stmt 0 discriminator 1
 2443 0fdc 97F82B30 		ldrb	r3, [r7, #43]	@ zero_extendqisi2
 2444 0fe0 0C2B     		cmp	r3, #12
 2445 0fe2 EFD9     		bls	.L142
 2446              	.LBE61:
 381:printer.c     **** 		}
 382:printer.c     **** 		PRINTER_A_PutChar((side.c.dir)+ 0x31);
 2447              		.loc 1 382 0 is_stmt 1
 2448 0fe4 2D4B     		ldr	r3, .L231+8
 2449 0fe6 93F86A32 		ldrb	r3, [r3, #618]	@ zero_extendqisi2
 2450 0fea 3133     		adds	r3, r3, #49
 2451 0fec DBB2     		uxtb	r3, r3
 2452 0fee 1846     		mov	r0, r3
 2453 0ff0 FFF7FEFF 		bl	PRINTER_A_PutChar
 383:printer.c     **** 		PRINTER_A_PutChar(LINE_FEED);
 2454              		.loc 1 383 0
 2455 0ff4 2A4B     		ldr	r3, .L231+12
 2456 0ff6 1B78     		ldrb	r3, [r3]	@ zero_extendqisi2
 2457 0ff8 1846     		mov	r0, r3
 2458 0ffa FFF7FEFF 		bl	PRINTER_A_PutChar
 2459              	.LBB62:
 384:printer.c     **** 		for(uint8 x = 0; x < 13; x ++){
 2460              		.loc 1 384 0
 2461 0ffe 0023     		movs	r3, #0
 2462 1000 87F82A30 		strb	r3, [r7, #42]
 2463 1004 0BE0     		b	.L143
 2464              	.L144:
 385:printer.c     **** 			PRINTER_A_PutChar(msn_product[x]);
 2465              		.loc 1 385 0 discriminator 3
 2466 1006 97F82A30 		ldrb	r3, [r7, #42]	@ zero_extendqisi2
 2467 100a 2F4A     		ldr	r2, .L231+52
 2468 100c D35C     		ldrb	r3, [r2, r3]	@ zero_extendqisi2
 2469 100e 1846     		mov	r0, r3
 2470 1010 FFF7FEFF 		bl	PRINTER_A_PutChar
 384:printer.c     **** 		for(uint8 x = 0; x < 13; x ++){
 2471              		.loc 1 384 0 discriminator 3
 2472 1014 97F82A30 		ldrb	r3, [r7, #42]	@ zero_extendqisi2
 2473 1018 0133     		adds	r3, r3, #1
 2474 101a 87F82A30 		strb	r3, [r7, #42]
 2475              	.L143:
 384:printer.c     **** 		for(uint8 x = 0; x < 13; x ++){
 2476              		.loc 1 384 0 is_stmt 0 discriminator 1
ARM GAS  C:\Users\THERMA~1\AppData\Local\Temp\ccXswU2c.s 			page 56


 2477 101e 97F82A30 		ldrb	r3, [r7, #42]	@ zero_extendqisi2
 2478 1022 0C2B     		cmp	r3, #12
 2479 1024 EFD9     		bls	.L144
 2480              	.LBE62:
 386:printer.c     **** 		}
 387:printer.c     ****         if(side.c.Nozzle == 0x01){
 2481              		.loc 1 387 0 is_stmt 1
 2482 1026 1D4B     		ldr	r3, .L231+8
 2483 1028 93F89633 		ldrb	r3, [r3, #918]	@ zero_extendqisi2
 2484 102c 012B     		cmp	r3, #1
 2485 102e 14D1     		bne	.L145
 2486              	.LBB63:
 388:printer.c     ****     		for(uint8 x = 0; x < 9; x ++){
 2487              		.loc 1 388 0
 2488 1030 0023     		movs	r3, #0
 2489 1032 87F82930 		strb	r3, [r7, #41]
 2490 1036 0BE0     		b	.L146
 2491              	.L147:
 389:printer.c     ****     			PRINTER_A_PutChar(msn_diesel[x]);
 2492              		.loc 1 389 0 discriminator 3
 2493 1038 97F82930 		ldrb	r3, [r7, #41]	@ zero_extendqisi2
 2494 103c 234A     		ldr	r2, .L231+56
 2495 103e D35C     		ldrb	r3, [r2, r3]	@ zero_extendqisi2
 2496 1040 1846     		mov	r0, r3
 2497 1042 FFF7FEFF 		bl	PRINTER_A_PutChar
 388:printer.c     ****     		for(uint8 x = 0; x < 9; x ++){
 2498              		.loc 1 388 0 discriminator 3
 2499 1046 97F82930 		ldrb	r3, [r7, #41]	@ zero_extendqisi2
 2500 104a 0133     		adds	r3, r3, #1
 2501 104c 87F82930 		strb	r3, [r7, #41]
 2502              	.L146:
 388:printer.c     ****     		for(uint8 x = 0; x < 9; x ++){
 2503              		.loc 1 388 0 is_stmt 0 discriminator 1
 2504 1050 97F82930 		ldrb	r3, [r7, #41]	@ zero_extendqisi2
 2505 1054 082B     		cmp	r3, #8
 2506 1056 EFD9     		bls	.L147
 2507 1058 13E0     		b	.L148
 2508              	.L145:
 2509              	.LBE63:
 2510              	.LBB64:
 390:printer.c     ****     		}
 391:printer.c     ****         }else{
 392:printer.c     ****             for(uint8 x = 0; x < 9; x ++){
 2511              		.loc 1 392 0 is_stmt 1
 2512 105a 0023     		movs	r3, #0
 2513 105c 87F82830 		strb	r3, [r7, #40]
 2514 1060 0BE0     		b	.L149
 2515              	.L150:
 393:printer.c     ****     			PRINTER_A_PutChar(msn_gasoline[x]);
 2516              		.loc 1 393 0 discriminator 3
 2517 1062 97F82830 		ldrb	r3, [r7, #40]	@ zero_extendqisi2
 2518 1066 1A4A     		ldr	r2, .L231+60
 2519 1068 D35C     		ldrb	r3, [r2, r3]	@ zero_extendqisi2
 2520 106a 1846     		mov	r0, r3
 2521 106c FFF7FEFF 		bl	PRINTER_A_PutChar
 392:printer.c     ****     			PRINTER_A_PutChar(msn_gasoline[x]);
 2522              		.loc 1 392 0 discriminator 3
ARM GAS  C:\Users\THERMA~1\AppData\Local\Temp\ccXswU2c.s 			page 57


 2523 1070 97F82830 		ldrb	r3, [r7, #40]	@ zero_extendqisi2
 2524 1074 0133     		adds	r3, r3, #1
 2525 1076 87F82830 		strb	r3, [r7, #40]
 2526              	.L149:
 392:printer.c     ****     			PRINTER_A_PutChar(msn_gasoline[x]);
 2527              		.loc 1 392 0 is_stmt 0 discriminator 1
 2528 107a 97F82830 		ldrb	r3, [r7, #40]	@ zero_extendqisi2
 2529 107e 082B     		cmp	r3, #8
 2530 1080 EFD9     		bls	.L150
 2531              	.L148:
 2532              	.LBE64:
 394:printer.c     ****     		}
 395:printer.c     ****         } 
 396:printer.c     ****         PRINTER_A_PutChar(LINE_FEED); 	
 2533              		.loc 1 396 0 is_stmt 1
 2534 1082 074B     		ldr	r3, .L231+12
 2535 1084 1B78     		ldrb	r3, [r3]	@ zero_extendqisi2
 2536 1086 1846     		mov	r0, r3
 2537 1088 FFF7FEFF 		bl	PRINTER_A_PutChar
 2538              	.LBB65:
 397:printer.c     **** 		for(uint8 x = 0; x < 13; x ++){
 2539              		.loc 1 397 0
 2540 108c 0023     		movs	r3, #0
 2541 108e 87F82730 		strb	r3, [r7, #39]
 2542 1092 2BE0     		b	.L151
 2543              	.L232:
 2544              		.align	2
 2545              	.L231:
 2546 1094 00000000 		.word	msn_din
 2547 1098 00000000 		.word	PRN_CURRENCY
 2548 109c 00000000 		.word	side
 2549 10a0 00000000 		.word	LINE_FEED
 2550 10a4 00000000 		.word	msn_copy
 2551 10a8 00000000 		.word	SEPARATOR
 2552 10ac 00000000 		.word	msn_venta
 2553 10b0 00000000 		.word	sale_number_copy
 2554 10b4 00000000 		.word	sale_number
 2555 10b8 00000000 		.word	int_salenumber
 2556 10bc 00000000 		.word	msn_placa
 2557 10c0 00000000 		.word	PRN_MILLEAGE
 2558 10c4 00000000 		.word	msn_pos
 2559 10c8 00000000 		.word	msn_product
 2560 10cc 00000000 		.word	msn_diesel
 2561 10d0 00000000 		.word	msn_gasoline
 2562              	.L152:
 398:printer.c     **** 			PRINTER_A_PutChar(msn_ppu[x]);
 2563              		.loc 1 398 0 discriminator 3
 2564 10d4 97F82730 		ldrb	r3, [r7, #39]	@ zero_extendqisi2
 2565 10d8 C04A     		ldr	r2, .L233
 2566 10da D35C     		ldrb	r3, [r2, r3]	@ zero_extendqisi2
 2567 10dc 1846     		mov	r0, r3
 2568 10de FFF7FEFF 		bl	PRINTER_A_PutChar
 397:printer.c     **** 		for(uint8 x = 0; x < 13; x ++){
 2569              		.loc 1 397 0 discriminator 3
 2570 10e2 97F82730 		ldrb	r3, [r7, #39]	@ zero_extendqisi2
 2571 10e6 0133     		adds	r3, r3, #1
 2572 10e8 87F82730 		strb	r3, [r7, #39]
ARM GAS  C:\Users\THERMA~1\AppData\Local\Temp\ccXswU2c.s 			page 58


 2573              	.L151:
 397:printer.c     **** 		for(uint8 x = 0; x < 13; x ++){
 2574              		.loc 1 397 0 is_stmt 0 discriminator 1
 2575 10ec 97F82730 		ldrb	r3, [r7, #39]	@ zero_extendqisi2
 2576 10f0 0C2B     		cmp	r3, #12
 2577 10f2 EFD9     		bls	.L152
 2578              	.LBE65:
 399:printer.c     **** 		}
 400:printer.c     **** 		PRINTER_A_PutChar(PRN_CURRENCY[0]);  
 2579              		.loc 1 400 0 is_stmt 1
 2580 10f4 BA4B     		ldr	r3, .L233+4
 2581 10f6 1B78     		ldrb	r3, [r3]	@ zero_extendqisi2
 2582 10f8 1846     		mov	r0, r3
 2583 10fa FFF7FEFF 		bl	PRINTER_A_PutChar
 401:printer.c     **** 		PRINTER_A_PutChar(' ');
 2584              		.loc 1 401 0
 2585 10fe 2020     		movs	r0, #32
 2586 1100 FFF7FEFF 		bl	PRINTER_A_PutChar
 2587              	.LBB66:
 402:printer.c     **** 		for(uint8 x = 1; x < 6; x ++){
 2588              		.loc 1 402 0
 2589 1104 0123     		movs	r3, #1
 2590 1106 87F82630 		strb	r3, [r7, #38]
 2591 110a 17E0     		b	.L153
 2592              	.L154:
 403:printer.c     **** 			PRINTER_A_PutChar(side.c.ProcessedPPU[side.c.Nozzle-1][x]);
 2593              		.loc 1 403 0 discriminator 3
 2594 110c B54B     		ldr	r3, .L233+8
 2595 110e 93F89633 		ldrb	r3, [r3, #918]	@ zero_extendqisi2
 2596 1112 5A1E     		subs	r2, r3, #1
 2597 1114 97F82610 		ldrb	r1, [r7, #38]	@ zero_extendqisi2
 2598 1118 B248     		ldr	r0, .L233+8
 2599 111a 1346     		mov	r3, r2
 2600 111c 5B00     		lsls	r3, r3, #1
 2601 111e 1344     		add	r3, r3, r2
 2602 1120 5B00     		lsls	r3, r3, #1
 2603 1122 0344     		add	r3, r3, r0
 2604 1124 0B44     		add	r3, r3, r1
 2605 1126 03F27533 		addw	r3, r3, #885
 2606 112a 1B78     		ldrb	r3, [r3]	@ zero_extendqisi2
 2607 112c 1846     		mov	r0, r3
 2608 112e FFF7FEFF 		bl	PRINTER_A_PutChar
 402:printer.c     **** 		for(uint8 x = 1; x < 6; x ++){
 2609              		.loc 1 402 0 discriminator 3
 2610 1132 97F82630 		ldrb	r3, [r7, #38]	@ zero_extendqisi2
 2611 1136 0133     		adds	r3, r3, #1
 2612 1138 87F82630 		strb	r3, [r7, #38]
 2613              	.L153:
 402:printer.c     **** 		for(uint8 x = 1; x < 6; x ++){
 2614              		.loc 1 402 0 is_stmt 0 discriminator 1
 2615 113c 97F82630 		ldrb	r3, [r7, #38]	@ zero_extendqisi2
 2616 1140 052B     		cmp	r3, #5
 2617 1142 E3D9     		bls	.L154
 2618              	.LBE66:
 404:printer.c     **** 		}
 405:printer.c     ****         PRINTER_A_PutChar(LINE_FEED);
 2619              		.loc 1 405 0 is_stmt 1
ARM GAS  C:\Users\THERMA~1\AppData\Local\Temp\ccXswU2c.s 			page 59


 2620 1144 A84B     		ldr	r3, .L233+12
 2621 1146 1B78     		ldrb	r3, [r3]	@ zero_extendqisi2
 2622 1148 1846     		mov	r0, r3
 2623 114a FFF7FEFF 		bl	PRINTER_A_PutChar
 2624              	.LBB67:
 406:printer.c     **** 		for(uint8 x = 0; x < 13; x ++){
 2625              		.loc 1 406 0
 2626 114e 0023     		movs	r3, #0
 2627 1150 87F82530 		strb	r3, [r7, #37]
 2628 1154 0BE0     		b	.L155
 2629              	.L156:
 407:printer.c     **** 			PRINTER_A_PutChar(msn_vol[x]);
 2630              		.loc 1 407 0 discriminator 3
 2631 1156 97F82530 		ldrb	r3, [r7, #37]	@ zero_extendqisi2
 2632 115a A44A     		ldr	r2, .L233+16
 2633 115c D35C     		ldrb	r3, [r2, r3]	@ zero_extendqisi2
 2634 115e 1846     		mov	r0, r3
 2635 1160 FFF7FEFF 		bl	PRINTER_A_PutChar
 406:printer.c     **** 		for(uint8 x = 0; x < 13; x ++){
 2636              		.loc 1 406 0 discriminator 3
 2637 1164 97F82530 		ldrb	r3, [r7, #37]	@ zero_extendqisi2
 2638 1168 0133     		adds	r3, r3, #1
 2639 116a 87F82530 		strb	r3, [r7, #37]
 2640              	.L155:
 406:printer.c     **** 		for(uint8 x = 0; x < 13; x ++){
 2641              		.loc 1 406 0 is_stmt 0 discriminator 1
 2642 116e 97F82530 		ldrb	r3, [r7, #37]	@ zero_extendqisi2
 2643 1172 0C2B     		cmp	r3, #12
 2644 1174 EFD9     		bls	.L156
 2645              	.LBE67:
 2646              	.LBB68:
 408:printer.c     **** 		}
 409:printer.c     **** 		for(uint8 x = 0; x < 8; x ++){
 2647              		.loc 1 409 0 is_stmt 1
 2648 1176 0023     		movs	r3, #0
 2649 1178 87F82430 		strb	r3, [r7, #36]
 2650 117c 18E0     		b	.L157
 2651              	.L159:
 410:printer.c     **** 			if((8-x) == DecVol)
 2652              		.loc 1 410 0
 2653 117e 97F82430 		ldrb	r3, [r7, #36]	@ zero_extendqisi2
 2654 1182 C3F10803 		rsb	r3, r3, #8
 2655 1186 9A4A     		ldr	r2, .L233+20
 2656 1188 1278     		ldrb	r2, [r2]	@ zero_extendqisi2
 2657 118a 9342     		cmp	r3, r2
 2658 118c 02D1     		bne	.L158
 411:printer.c     **** 				PRINTER_A_PutChar('.');
 2659              		.loc 1 411 0
 2660 118e 2E20     		movs	r0, #46
 2661 1190 FFF7FEFF 		bl	PRINTER_A_PutChar
 2662              	.L158:
 412:printer.c     **** 			PRINTER_A_PutChar(side.c.ProcessedvolumeSale[x]);        
 2663              		.loc 1 412 0 discriminator 2
 2664 1194 97F82430 		ldrb	r3, [r7, #36]	@ zero_extendqisi2
 2665 1198 924A     		ldr	r2, .L233+8
 2666 119a 1344     		add	r3, r3, r2
 2667 119c 93F86D33 		ldrb	r3, [r3, #877]	@ zero_extendqisi2
ARM GAS  C:\Users\THERMA~1\AppData\Local\Temp\ccXswU2c.s 			page 60


 2668 11a0 1846     		mov	r0, r3
 2669 11a2 FFF7FEFF 		bl	PRINTER_A_PutChar
 409:printer.c     **** 			if((8-x) == DecVol)
 2670              		.loc 1 409 0 discriminator 2
 2671 11a6 97F82430 		ldrb	r3, [r7, #36]	@ zero_extendqisi2
 2672 11aa 0133     		adds	r3, r3, #1
 2673 11ac 87F82430 		strb	r3, [r7, #36]
 2674              	.L157:
 409:printer.c     **** 			if((8-x) == DecVol)
 2675              		.loc 1 409 0 is_stmt 0 discriminator 1
 2676 11b0 97F82430 		ldrb	r3, [r7, #36]	@ zero_extendqisi2
 2677 11b4 072B     		cmp	r3, #7
 2678 11b6 E2D9     		bls	.L159
 2679              	.LBE68:
 413:printer.c     **** 		}
 414:printer.c     **** 		PRINTER_A_PutChar(' ');
 2680              		.loc 1 414 0 is_stmt 1
 2681 11b8 2020     		movs	r0, #32
 2682 11ba FFF7FEFF 		bl	PRINTER_A_PutChar
 415:printer.c     **** 		PRINTER_A_PutChar(VolSimbol[0]);
 2683              		.loc 1 415 0
 2684 11be 8D4B     		ldr	r3, .L233+24
 2685 11c0 1B78     		ldrb	r3, [r3]	@ zero_extendqisi2
 2686 11c2 1846     		mov	r0, r3
 2687 11c4 FFF7FEFF 		bl	PRINTER_A_PutChar
 416:printer.c     **** 		PRINTER_A_PutChar(LINE_FEED); 
 2688              		.loc 1 416 0
 2689 11c8 874B     		ldr	r3, .L233+12
 2690 11ca 1B78     		ldrb	r3, [r3]	@ zero_extendqisi2
 2691 11cc 1846     		mov	r0, r3
 2692 11ce FFF7FEFF 		bl	PRINTER_A_PutChar
 2693              	.LBB69:
 417:printer.c     **** 		for(uint8 x = 0; x < 13; x ++){
 2694              		.loc 1 417 0
 2695 11d2 0023     		movs	r3, #0
 2696 11d4 87F82330 		strb	r3, [r7, #35]
 2697 11d8 0BE0     		b	.L160
 2698              	.L161:
 418:printer.c     **** 			PRINTER_A_PutChar(msn_din[x]);
 2699              		.loc 1 418 0 discriminator 3
 2700 11da 97F82330 		ldrb	r3, [r7, #35]	@ zero_extendqisi2
 2701 11de 864A     		ldr	r2, .L233+28
 2702 11e0 D35C     		ldrb	r3, [r2, r3]	@ zero_extendqisi2
 2703 11e2 1846     		mov	r0, r3
 2704 11e4 FFF7FEFF 		bl	PRINTER_A_PutChar
 417:printer.c     **** 		for(uint8 x = 0; x < 13; x ++){
 2705              		.loc 1 417 0 discriminator 3
 2706 11e8 97F82330 		ldrb	r3, [r7, #35]	@ zero_extendqisi2
 2707 11ec 0133     		adds	r3, r3, #1
 2708 11ee 87F82330 		strb	r3, [r7, #35]
 2709              	.L160:
 417:printer.c     **** 		for(uint8 x = 0; x < 13; x ++){
 2710              		.loc 1 417 0 is_stmt 0 discriminator 1
 2711 11f2 97F82330 		ldrb	r3, [r7, #35]	@ zero_extendqisi2
 2712 11f6 0C2B     		cmp	r3, #12
 2713 11f8 EFD9     		bls	.L161
 2714              	.LBE69:
ARM GAS  C:\Users\THERMA~1\AppData\Local\Temp\ccXswU2c.s 			page 61


 419:printer.c     **** 		}     
 420:printer.c     **** 		PRINTER_A_PutChar(PRN_CURRENCY[0]);  
 2715              		.loc 1 420 0 is_stmt 1
 2716 11fa 794B     		ldr	r3, .L233+4
 2717 11fc 1B78     		ldrb	r3, [r3]	@ zero_extendqisi2
 2718 11fe 1846     		mov	r0, r3
 2719 1200 FFF7FEFF 		bl	PRINTER_A_PutChar
 421:printer.c     **** 		PRINTER_A_PutChar(' ');
 2720              		.loc 1 421 0
 2721 1204 2020     		movs	r0, #32
 2722 1206 FFF7FEFF 		bl	PRINTER_A_PutChar
 2723              	.LBB70:
 422:printer.c     **** 		for(uint8 x = 0; x < 8; x ++){
 2724              		.loc 1 422 0
 2725 120a 0023     		movs	r3, #0
 2726 120c 87F82230 		strb	r3, [r7, #34]
 2727 1210 0DE0     		b	.L162
 2728              	.L163:
 423:printer.c     **** 			PRINTER_A_PutChar(side.c.ProcessedmoneySale[x]);
 2729              		.loc 1 423 0 discriminator 3
 2730 1212 97F82230 		ldrb	r3, [r7, #34]	@ zero_extendqisi2
 2731 1216 734A     		ldr	r2, .L233+8
 2732 1218 1344     		add	r3, r3, r2
 2733 121a 93F86533 		ldrb	r3, [r3, #869]	@ zero_extendqisi2
 2734 121e 1846     		mov	r0, r3
 2735 1220 FFF7FEFF 		bl	PRINTER_A_PutChar
 422:printer.c     **** 		for(uint8 x = 0; x < 8; x ++){
 2736              		.loc 1 422 0 discriminator 3
 2737 1224 97F82230 		ldrb	r3, [r7, #34]	@ zero_extendqisi2
 2738 1228 0133     		adds	r3, r3, #1
 2739 122a 87F82230 		strb	r3, [r7, #34]
 2740              	.L162:
 422:printer.c     **** 		for(uint8 x = 0; x < 8; x ++){
 2741              		.loc 1 422 0 is_stmt 0 discriminator 1
 2742 122e 97F82230 		ldrb	r3, [r7, #34]	@ zero_extendqisi2
 2743 1232 072B     		cmp	r3, #7
 2744 1234 EDD9     		bls	.L163
 2745              	.LBE70:
 424:printer.c     **** 		}		
 425:printer.c     **** 		PRINTER_A_PutChar(LINE_FEED);
 2746              		.loc 1 425 0 is_stmt 1
 2747 1236 6C4B     		ldr	r3, .L233+12
 2748 1238 1B78     		ldrb	r3, [r3]	@ zero_extendqisi2
 2749 123a 1846     		mov	r0, r3
 2750 123c FFF7FEFF 		bl	PRINTER_A_PutChar
 426:printer.c     ****         side.c.Copy = 1;
 2751              		.loc 1 426 0
 2752 1240 684B     		ldr	r3, .L233+8
 2753 1242 0122     		movs	r2, #1
 2754 1244 83F89E23 		strb	r2, [r3, #926]
 2755              	.L119:
 427:printer.c     **** 	}
 428:printer.c     **** 	
 429:printer.c     ****     if(address == side.d.dir){
 2756              		.loc 1 429 0
 2757 1248 664B     		ldr	r3, .L233+8
 2758 124a 93F89F33 		ldrb	r3, [r3, #927]	@ zero_extendqisi2
ARM GAS  C:\Users\THERMA~1\AppData\Local\Temp\ccXswU2c.s 			page 62


 2759 124e FA79     		ldrb	r2, [r7, #7]	@ zero_extendqisi2
 2760 1250 9A42     		cmp	r2, r3
 2761 1252 40F0D381 		bne	.L164
 430:printer.c     ****         if(side.d.Copy == 1){
 2762              		.loc 1 430 0
 2763 1256 634B     		ldr	r3, .L233+8
 2764 1258 93F8D334 		ldrb	r3, [r3, #1235]	@ zero_extendqisi2
 2765 125c 012B     		cmp	r3, #1
 2766 125e 2CD1     		bne	.L165
 2767              	.LBB71:
 431:printer.c     ****             for(uint8 x = 0; x < 32; x ++){
 2768              		.loc 1 431 0
 2769 1260 0023     		movs	r3, #0
 2770 1262 87F82130 		strb	r3, [r7, #33]
 2771 1266 0BE0     		b	.L166
 2772              	.L167:
 432:printer.c     ****         		PRINTER_A_PutChar(msn_copy[x]);
 2773              		.loc 1 432 0 discriminator 3
 2774 1268 97F82130 		ldrb	r3, [r7, #33]	@ zero_extendqisi2
 2775 126c 634A     		ldr	r2, .L233+32
 2776 126e D35C     		ldrb	r3, [r2, r3]	@ zero_extendqisi2
 2777 1270 1846     		mov	r0, r3
 2778 1272 FFF7FEFF 		bl	PRINTER_A_PutChar
 431:printer.c     ****             for(uint8 x = 0; x < 32; x ++){
 2779              		.loc 1 431 0 discriminator 3
 2780 1276 97F82130 		ldrb	r3, [r7, #33]	@ zero_extendqisi2
 2781 127a 0133     		adds	r3, r3, #1
 2782 127c 87F82130 		strb	r3, [r7, #33]
 2783              	.L166:
 431:printer.c     ****             for(uint8 x = 0; x < 32; x ++){
 2784              		.loc 1 431 0 is_stmt 0 discriminator 1
 2785 1280 97F82130 		ldrb	r3, [r7, #33]	@ zero_extendqisi2
 2786 1284 1F2B     		cmp	r3, #31
 2787 1286 EFD9     		bls	.L167
 2788              	.LBE71:
 433:printer.c     ****         	}
 434:printer.c     ****             PRINTER_A_PutChar(LINE_FEED);
 2789              		.loc 1 434 0 is_stmt 1
 2790 1288 574B     		ldr	r3, .L233+12
 2791 128a 1B78     		ldrb	r3, [r3]	@ zero_extendqisi2
 2792 128c 1846     		mov	r0, r3
 2793 128e FFF7FEFF 		bl	PRINTER_A_PutChar
 2794              	.LBB72:
 435:printer.c     ****             for(uint8 x = 0; x < 32; x ++){
 2795              		.loc 1 435 0
 2796 1292 0023     		movs	r3, #0
 2797 1294 87F82030 		strb	r3, [r7, #32]
 2798 1298 0BE0     		b	.L168
 2799              	.L169:
 436:printer.c     ****         		PRINTER_A_PutChar(SEPARATOR[x]);
 2800              		.loc 1 436 0 discriminator 3
 2801 129a 97F82030 		ldrb	r3, [r7, #32]	@ zero_extendqisi2
 2802 129e 584A     		ldr	r2, .L233+36
 2803 12a0 D35C     		ldrb	r3, [r2, r3]	@ zero_extendqisi2
 2804 12a2 1846     		mov	r0, r3
 2805 12a4 FFF7FEFF 		bl	PRINTER_A_PutChar
 435:printer.c     ****             for(uint8 x = 0; x < 32; x ++){
ARM GAS  C:\Users\THERMA~1\AppData\Local\Temp\ccXswU2c.s 			page 63


 2806              		.loc 1 435 0 discriminator 3
 2807 12a8 97F82030 		ldrb	r3, [r7, #32]	@ zero_extendqisi2
 2808 12ac 0133     		adds	r3, r3, #1
 2809 12ae 87F82030 		strb	r3, [r7, #32]
 2810              	.L168:
 435:printer.c     ****             for(uint8 x = 0; x < 32; x ++){
 2811              		.loc 1 435 0 is_stmt 0 discriminator 1
 2812 12b2 97F82030 		ldrb	r3, [r7, #32]	@ zero_extendqisi2
 2813 12b6 1F2B     		cmp	r3, #31
 2814 12b8 EFD9     		bls	.L169
 2815              	.L165:
 2816              	.LBE72:
 437:printer.c     ****         	}            
 438:printer.c     ****         }
 439:printer.c     ****         PRINTER_A_PutChar(LINE_FEED);
 2817              		.loc 1 439 0 is_stmt 1
 2818 12ba 4B4B     		ldr	r3, .L233+12
 2819 12bc 1B78     		ldrb	r3, [r3]	@ zero_extendqisi2
 2820 12be 1846     		mov	r0, r3
 2821 12c0 FFF7FEFF 		bl	PRINTER_A_PutChar
 2822              	.LBB73:
 440:printer.c     ****         for(uint8 x = 0; x < 13; x ++){
 2823              		.loc 1 440 0
 2824 12c4 0023     		movs	r3, #0
 2825 12c6 FB77     		strb	r3, [r7, #31]
 2826 12c8 08E0     		b	.L170
 2827              	.L171:
 441:printer.c     ****     		PRINTER_A_PutChar(msn_venta[x]);
 2828              		.loc 1 441 0 discriminator 3
 2829 12ca FB7F     		ldrb	r3, [r7, #31]	@ zero_extendqisi2
 2830 12cc 4D4A     		ldr	r2, .L233+40
 2831 12ce D35C     		ldrb	r3, [r2, r3]	@ zero_extendqisi2
 2832 12d0 1846     		mov	r0, r3
 2833 12d2 FFF7FEFF 		bl	PRINTER_A_PutChar
 440:printer.c     ****         for(uint8 x = 0; x < 13; x ++){
 2834              		.loc 1 440 0 discriminator 3
 2835 12d6 FB7F     		ldrb	r3, [r7, #31]	@ zero_extendqisi2
 2836 12d8 0133     		adds	r3, r3, #1
 2837 12da FB77     		strb	r3, [r7, #31]
 2838              	.L170:
 440:printer.c     ****         for(uint8 x = 0; x < 13; x ++){
 2839              		.loc 1 440 0 is_stmt 0 discriminator 1
 2840 12dc FB7F     		ldrb	r3, [r7, #31]	@ zero_extendqisi2
 2841 12de 0C2B     		cmp	r3, #12
 2842 12e0 F3D9     		bls	.L171
 2843              	.LBE73:
 442:printer.c     ****     	}
 443:printer.c     ****         if(side.d.Copy == 1){
 2844              		.loc 1 443 0 is_stmt 1
 2845 12e2 404B     		ldr	r3, .L233+8
 2846 12e4 93F8D334 		ldrb	r3, [r3, #1235]	@ zero_extendqisi2
 2847 12e8 012B     		cmp	r3, #1
 2848 12ea 0FD1     		bne	.L172
 2849              	.LBB74:
 444:printer.c     ****            for(uint8 x = 5; x > 0; x --){
 2850              		.loc 1 444 0
 2851 12ec 0523     		movs	r3, #5
ARM GAS  C:\Users\THERMA~1\AppData\Local\Temp\ccXswU2c.s 			page 64


 2852 12ee BB77     		strb	r3, [r7, #30]
 2853 12f0 08E0     		b	.L173
 2854              	.L174:
 445:printer.c     ****         		PRINTER_A_PutChar(sale_number_copy[x]);
 2855              		.loc 1 445 0 discriminator 3
 2856 12f2 BB7F     		ldrb	r3, [r7, #30]	@ zero_extendqisi2
 2857 12f4 444A     		ldr	r2, .L233+44
 2858 12f6 D35C     		ldrb	r3, [r2, r3]	@ zero_extendqisi2
 2859 12f8 1846     		mov	r0, r3
 2860 12fa FFF7FEFF 		bl	PRINTER_A_PutChar
 444:printer.c     ****            for(uint8 x = 5; x > 0; x --){
 2861              		.loc 1 444 0 discriminator 3
 2862 12fe BB7F     		ldrb	r3, [r7, #30]	@ zero_extendqisi2
 2863 1300 013B     		subs	r3, r3, #1
 2864 1302 BB77     		strb	r3, [r7, #30]
 2865              	.L173:
 444:printer.c     ****            for(uint8 x = 5; x > 0; x --){
 2866              		.loc 1 444 0 is_stmt 0 discriminator 1
 2867 1304 BB7F     		ldrb	r3, [r7, #30]	@ zero_extendqisi2
 2868 1306 002B     		cmp	r3, #0
 2869 1308 F3D1     		bne	.L174
 2870 130a 14E0     		b	.L175
 2871              	.L172:
 2872              	.LBE74:
 2873              	.LBB75:
 446:printer.c     ****         	} 
 447:printer.c     ****         }else{
 448:printer.c     ****             for(uint8 x = 5; x > 0; x --){
 2874              		.loc 1 448 0 is_stmt 1
 2875 130c 0523     		movs	r3, #5
 2876 130e 7B77     		strb	r3, [r7, #29]
 2877 1310 08E0     		b	.L176
 2878              	.L177:
 449:printer.c     ****         		PRINTER_A_PutChar(sale_number[x]);
 2879              		.loc 1 449 0 discriminator 3
 2880 1312 7B7F     		ldrb	r3, [r7, #29]	@ zero_extendqisi2
 2881 1314 3D4A     		ldr	r2, .L233+48
 2882 1316 D35C     		ldrb	r3, [r2, r3]	@ zero_extendqisi2
 2883 1318 1846     		mov	r0, r3
 2884 131a FFF7FEFF 		bl	PRINTER_A_PutChar
 448:printer.c     ****         		PRINTER_A_PutChar(sale_number[x]);
 2885              		.loc 1 448 0 discriminator 3
 2886 131e 7B7F     		ldrb	r3, [r7, #29]	@ zero_extendqisi2
 2887 1320 013B     		subs	r3, r3, #1
 2888 1322 7B77     		strb	r3, [r7, #29]
 2889              	.L176:
 448:printer.c     ****         		PRINTER_A_PutChar(sale_number[x]);
 2890              		.loc 1 448 0 is_stmt 0 discriminator 1
 2891 1324 7B7F     		ldrb	r3, [r7, #29]	@ zero_extendqisi2
 2892 1326 002B     		cmp	r3, #0
 2893 1328 F3D1     		bne	.L177
 2894              	.LBE75:
 450:printer.c     ****         	}
 451:printer.c     ****             int_salenumber++;
 2895              		.loc 1 451 0 is_stmt 1
 2896 132a 394B     		ldr	r3, .L233+52
 2897 132c 1B78     		ldrb	r3, [r3]	@ zero_extendqisi2
ARM GAS  C:\Users\THERMA~1\AppData\Local\Temp\ccXswU2c.s 			page 65


 2898 132e 0133     		adds	r3, r3, #1
 2899 1330 DAB2     		uxtb	r2, r3
 2900 1332 374B     		ldr	r3, .L233+52
 2901 1334 1A70     		strb	r2, [r3]
 2902              	.L175:
 452:printer.c     ****         }
 453:printer.c     ****         PRINTER_A_PutChar(LINE_FEED);
 2903              		.loc 1 453 0
 2904 1336 2C4B     		ldr	r3, .L233+12
 2905 1338 1B78     		ldrb	r3, [r3]	@ zero_extendqisi2
 2906 133a 1846     		mov	r0, r3
 2907 133c FFF7FEFF 		bl	PRINTER_A_PutChar
 2908              	.LBB76:
 454:printer.c     ****     	for(uint8 x = 0; x < 13; x ++){
 2909              		.loc 1 454 0
 2910 1340 0023     		movs	r3, #0
 2911 1342 3B77     		strb	r3, [r7, #28]
 2912 1344 08E0     		b	.L178
 2913              	.L179:
 455:printer.c     ****     		PRINTER_A_PutChar(msn_placa[x]);
 2914              		.loc 1 455 0 discriminator 3
 2915 1346 3B7F     		ldrb	r3, [r7, #28]	@ zero_extendqisi2
 2916 1348 324A     		ldr	r2, .L233+56
 2917 134a D35C     		ldrb	r3, [r2, r3]	@ zero_extendqisi2
 2918 134c 1846     		mov	r0, r3
 2919 134e FFF7FEFF 		bl	PRINTER_A_PutChar
 454:printer.c     ****     	for(uint8 x = 0; x < 13; x ++){
 2920              		.loc 1 454 0 discriminator 3
 2921 1352 3B7F     		ldrb	r3, [r7, #28]	@ zero_extendqisi2
 2922 1354 0133     		adds	r3, r3, #1
 2923 1356 3B77     		strb	r3, [r7, #28]
 2924              	.L178:
 454:printer.c     ****     	for(uint8 x = 0; x < 13; x ++){
 2925              		.loc 1 454 0 is_stmt 0 discriminator 1
 2926 1358 3B7F     		ldrb	r3, [r7, #28]	@ zero_extendqisi2
 2927 135a 0C2B     		cmp	r3, #12
 2928 135c F3D9     		bls	.L179
 2929              	.LBE76:
 2930              	.LBB77:
 456:printer.c     ****     	}
 457:printer.c     **** 		for(uint8 x = 0; x < 8; x ++){
 2931              		.loc 1 457 0 is_stmt 1
 2932 135e 0023     		movs	r3, #0
 2933 1360 FB76     		strb	r3, [r7, #27]
 2934 1362 0AE0     		b	.L180
 2935              	.L181:
 458:printer.c     **** 			PRINTER_A_PutChar(side.d.msn_plate[x]);
 2936              		.loc 1 458 0 discriminator 3
 2937 1364 FB7E     		ldrb	r3, [r7, #27]	@ zero_extendqisi2
 2938 1366 1F4A     		ldr	r2, .L233+8
 2939 1368 1344     		add	r3, r3, r2
 2940 136a 93F8C234 		ldrb	r3, [r3, #1218]	@ zero_extendqisi2
 2941 136e 1846     		mov	r0, r3
 2942 1370 FFF7FEFF 		bl	PRINTER_A_PutChar
 457:printer.c     **** 			PRINTER_A_PutChar(side.d.msn_plate[x]);
 2943              		.loc 1 457 0 discriminator 3
 2944 1374 FB7E     		ldrb	r3, [r7, #27]	@ zero_extendqisi2
ARM GAS  C:\Users\THERMA~1\AppData\Local\Temp\ccXswU2c.s 			page 66


 2945 1376 0133     		adds	r3, r3, #1
 2946 1378 FB76     		strb	r3, [r7, #27]
 2947              	.L180:
 457:printer.c     **** 			PRINTER_A_PutChar(side.d.msn_plate[x]);
 2948              		.loc 1 457 0 is_stmt 0 discriminator 1
 2949 137a FB7E     		ldrb	r3, [r7, #27]	@ zero_extendqisi2
 2950 137c 072B     		cmp	r3, #7
 2951 137e F1D9     		bls	.L181
 2952              	.LBE77:
 459:printer.c     **** 		}  
 460:printer.c     ****         PRINTER_A_PutChar(LINE_FEED);
 2953              		.loc 1 460 0 is_stmt 1
 2954 1380 194B     		ldr	r3, .L233+12
 2955 1382 1B78     		ldrb	r3, [r3]	@ zero_extendqisi2
 2956 1384 1846     		mov	r0, r3
 2957 1386 FFF7FEFF 		bl	PRINTER_A_PutChar
 2958              	.LBB78:
 461:printer.c     ****         for(uint8 x = 0; x < 13; x ++){
 2959              		.loc 1 461 0
 2960 138a 0023     		movs	r3, #0
 2961 138c BB76     		strb	r3, [r7, #26]
 2962 138e 08E0     		b	.L182
 2963              	.L183:
 462:printer.c     **** 			PRINTER_A_PutChar(PRN_MILLEAGE[x]);
 2964              		.loc 1 462 0 discriminator 3
 2965 1390 BB7E     		ldrb	r3, [r7, #26]	@ zero_extendqisi2
 2966 1392 214A     		ldr	r2, .L233+60
 2967 1394 D35C     		ldrb	r3, [r2, r3]	@ zero_extendqisi2
 2968 1396 1846     		mov	r0, r3
 2969 1398 FFF7FEFF 		bl	PRINTER_A_PutChar
 461:printer.c     ****         for(uint8 x = 0; x < 13; x ++){
 2970              		.loc 1 461 0 discriminator 3
 2971 139c BB7E     		ldrb	r3, [r7, #26]	@ zero_extendqisi2
 2972 139e 0133     		adds	r3, r3, #1
 2973 13a0 BB76     		strb	r3, [r7, #26]
 2974              	.L182:
 461:printer.c     ****         for(uint8 x = 0; x < 13; x ++){
 2975              		.loc 1 461 0 is_stmt 0 discriminator 1
 2976 13a2 BB7E     		ldrb	r3, [r7, #26]	@ zero_extendqisi2
 2977 13a4 0C2B     		cmp	r3, #12
 2978 13a6 F3D9     		bls	.L183
 2979              	.LBE78:
 2980              	.LBB79:
 463:printer.c     **** 		}          
 464:printer.c     ****         for(uint8 x = 0; x <6; x ++){
 2981              		.loc 1 464 0 is_stmt 1
 2982 13a8 0023     		movs	r3, #0
 2983 13aa 7B76     		strb	r3, [r7, #25]
 2984 13ac 0AE0     		b	.L184
 2985              	.L185:
 465:printer.c     **** 			PRINTER_A_PutChar(side.d.km[x]);
 2986              		.loc 1 465 0 discriminator 3
 2987 13ae 7B7E     		ldrb	r3, [r7, #25]	@ zero_extendqisi2
 2988 13b0 0C4A     		ldr	r2, .L233+8
 2989 13b2 1344     		add	r3, r3, r2
 2990 13b4 93F8CC34 		ldrb	r3, [r3, #1228]	@ zero_extendqisi2
 2991 13b8 1846     		mov	r0, r3
ARM GAS  C:\Users\THERMA~1\AppData\Local\Temp\ccXswU2c.s 			page 67


 2992 13ba FFF7FEFF 		bl	PRINTER_A_PutChar
 464:printer.c     **** 			PRINTER_A_PutChar(side.d.km[x]);
 2993              		.loc 1 464 0 discriminator 3
 2994 13be 7B7E     		ldrb	r3, [r7, #25]	@ zero_extendqisi2
 2995 13c0 0133     		adds	r3, r3, #1
 2996 13c2 7B76     		strb	r3, [r7, #25]
 2997              	.L184:
 464:printer.c     **** 			PRINTER_A_PutChar(side.d.km[x]);
 2998              		.loc 1 464 0 is_stmt 0 discriminator 1
 2999 13c4 7B7E     		ldrb	r3, [r7, #25]	@ zero_extendqisi2
 3000 13c6 052B     		cmp	r3, #5
 3001 13c8 F1D9     		bls	.L185
 3002              	.LBE79:
 466:printer.c     **** 		}  
 467:printer.c     ****         PRINTER_A_PutChar(LINE_FEED);
 3003              		.loc 1 467 0 is_stmt 1
 3004 13ca 074B     		ldr	r3, .L233+12
 3005 13cc 1B78     		ldrb	r3, [r3]	@ zero_extendqisi2
 3006 13ce 1846     		mov	r0, r3
 3007 13d0 FFF7FEFF 		bl	PRINTER_A_PutChar
 3008              	.LBB80:
 468:printer.c     **** 		for(uint8 x = 0; x < 13; x ++){
 3009              		.loc 1 468 0
 3010 13d4 0023     		movs	r3, #0
 3011 13d6 3B76     		strb	r3, [r7, #24]
 3012 13d8 29E0     		b	.L186
 3013              	.L234:
 3014 13da 00BF     		.align	2
 3015              	.L233:
 3016 13dc 00000000 		.word	msn_ppu
 3017 13e0 00000000 		.word	PRN_CURRENCY
 3018 13e4 00000000 		.word	side
 3019 13e8 00000000 		.word	LINE_FEED
 3020 13ec 00000000 		.word	msn_vol
 3021 13f0 00000000 		.word	DecVol
 3022 13f4 00000000 		.word	VolSimbol
 3023 13f8 00000000 		.word	msn_din
 3024 13fc 00000000 		.word	msn_copy
 3025 1400 00000000 		.word	SEPARATOR
 3026 1404 00000000 		.word	msn_venta
 3027 1408 00000000 		.word	sale_number_copy
 3028 140c 00000000 		.word	sale_number
 3029 1410 00000000 		.word	int_salenumber
 3030 1414 00000000 		.word	msn_placa
 3031 1418 00000000 		.word	PRN_MILLEAGE
 3032              	.L187:
 469:printer.c     **** 			PRINTER_A_PutChar(msn_pos[x]);
 3033              		.loc 1 469 0 discriminator 3
 3034 141c 3B7E     		ldrb	r3, [r7, #24]	@ zero_extendqisi2
 3035 141e AD4A     		ldr	r2, .L235
 3036 1420 D35C     		ldrb	r3, [r2, r3]	@ zero_extendqisi2
 3037 1422 1846     		mov	r0, r3
 3038 1424 FFF7FEFF 		bl	PRINTER_A_PutChar
 468:printer.c     **** 		for(uint8 x = 0; x < 13; x ++){
 3039              		.loc 1 468 0 discriminator 3
 3040 1428 3B7E     		ldrb	r3, [r7, #24]	@ zero_extendqisi2
 3041 142a 0133     		adds	r3, r3, #1
ARM GAS  C:\Users\THERMA~1\AppData\Local\Temp\ccXswU2c.s 			page 68


 3042 142c 3B76     		strb	r3, [r7, #24]
 3043              	.L186:
 468:printer.c     **** 		for(uint8 x = 0; x < 13; x ++){
 3044              		.loc 1 468 0 is_stmt 0 discriminator 1
 3045 142e 3B7E     		ldrb	r3, [r7, #24]	@ zero_extendqisi2
 3046 1430 0C2B     		cmp	r3, #12
 3047 1432 F3D9     		bls	.L187
 3048              	.LBE80:
 470:printer.c     **** 		}
 471:printer.c     **** 		PRINTER_A_PutChar((side.d.dir)+ 0x31);
 3049              		.loc 1 471 0 is_stmt 1
 3050 1434 A84B     		ldr	r3, .L235+4
 3051 1436 93F89F33 		ldrb	r3, [r3, #927]	@ zero_extendqisi2
 3052 143a 3133     		adds	r3, r3, #49
 3053 143c DBB2     		uxtb	r3, r3
 3054 143e 1846     		mov	r0, r3
 3055 1440 FFF7FEFF 		bl	PRINTER_A_PutChar
 472:printer.c     **** 		PRINTER_A_PutChar(LINE_FEED);
 3056              		.loc 1 472 0
 3057 1444 A54B     		ldr	r3, .L235+8
 3058 1446 1B78     		ldrb	r3, [r3]	@ zero_extendqisi2
 3059 1448 1846     		mov	r0, r3
 3060 144a FFF7FEFF 		bl	PRINTER_A_PutChar
 3061              	.LBB81:
 473:printer.c     **** 		for(uint8 x = 0; x < 13; x ++){
 3062              		.loc 1 473 0
 3063 144e 0023     		movs	r3, #0
 3064 1450 FB75     		strb	r3, [r7, #23]
 3065 1452 08E0     		b	.L188
 3066              	.L189:
 474:printer.c     **** 			PRINTER_A_PutChar(msn_product[x]);
 3067              		.loc 1 474 0 discriminator 3
 3068 1454 FB7D     		ldrb	r3, [r7, #23]	@ zero_extendqisi2
 3069 1456 A24A     		ldr	r2, .L235+12
 3070 1458 D35C     		ldrb	r3, [r2, r3]	@ zero_extendqisi2
 3071 145a 1846     		mov	r0, r3
 3072 145c FFF7FEFF 		bl	PRINTER_A_PutChar
 473:printer.c     **** 		for(uint8 x = 0; x < 13; x ++){
 3073              		.loc 1 473 0 discriminator 3
 3074 1460 FB7D     		ldrb	r3, [r7, #23]	@ zero_extendqisi2
 3075 1462 0133     		adds	r3, r3, #1
 3076 1464 FB75     		strb	r3, [r7, #23]
 3077              	.L188:
 473:printer.c     **** 		for(uint8 x = 0; x < 13; x ++){
 3078              		.loc 1 473 0 is_stmt 0 discriminator 1
 3079 1466 FB7D     		ldrb	r3, [r7, #23]	@ zero_extendqisi2
 3080 1468 0C2B     		cmp	r3, #12
 3081 146a F3D9     		bls	.L189
 3082              	.LBE81:
 475:printer.c     **** 		}
 476:printer.c     ****         if(side.d.Nozzle == 0x01){
 3083              		.loc 1 476 0 is_stmt 1
 3084 146c 9A4B     		ldr	r3, .L235+4
 3085 146e 93F8CB34 		ldrb	r3, [r3, #1227]	@ zero_extendqisi2
 3086 1472 012B     		cmp	r3, #1
 3087 1474 0FD1     		bne	.L190
 3088              	.LBB82:
ARM GAS  C:\Users\THERMA~1\AppData\Local\Temp\ccXswU2c.s 			page 69


 477:printer.c     ****     		for(uint8 x = 0; x < 9; x ++){
 3089              		.loc 1 477 0
 3090 1476 0023     		movs	r3, #0
 3091 1478 BB75     		strb	r3, [r7, #22]
 3092 147a 08E0     		b	.L191
 3093              	.L192:
 478:printer.c     ****     			PRINTER_A_PutChar(msn_diesel[x]);
 3094              		.loc 1 478 0 discriminator 3
 3095 147c BB7D     		ldrb	r3, [r7, #22]	@ zero_extendqisi2
 3096 147e 994A     		ldr	r2, .L235+16
 3097 1480 D35C     		ldrb	r3, [r2, r3]	@ zero_extendqisi2
 3098 1482 1846     		mov	r0, r3
 3099 1484 FFF7FEFF 		bl	PRINTER_A_PutChar
 477:printer.c     ****     		for(uint8 x = 0; x < 9; x ++){
 3100              		.loc 1 477 0 discriminator 3
 3101 1488 BB7D     		ldrb	r3, [r7, #22]	@ zero_extendqisi2
 3102 148a 0133     		adds	r3, r3, #1
 3103 148c BB75     		strb	r3, [r7, #22]
 3104              	.L191:
 477:printer.c     ****     		for(uint8 x = 0; x < 9; x ++){
 3105              		.loc 1 477 0 is_stmt 0 discriminator 1
 3106 148e BB7D     		ldrb	r3, [r7, #22]	@ zero_extendqisi2
 3107 1490 082B     		cmp	r3, #8
 3108 1492 F3D9     		bls	.L192
 3109 1494 0EE0     		b	.L193
 3110              	.L190:
 3111              	.LBE82:
 3112              	.LBB83:
 479:printer.c     ****     		}
 480:printer.c     ****         }else{
 481:printer.c     ****             for(uint8 x = 0; x < 9; x ++){
 3113              		.loc 1 481 0 is_stmt 1
 3114 1496 0023     		movs	r3, #0
 3115 1498 7B75     		strb	r3, [r7, #21]
 3116 149a 08E0     		b	.L194
 3117              	.L195:
 482:printer.c     ****     			PRINTER_A_PutChar(msn_gasoline[x]);
 3118              		.loc 1 482 0 discriminator 3
 3119 149c 7B7D     		ldrb	r3, [r7, #21]	@ zero_extendqisi2
 3120 149e 924A     		ldr	r2, .L235+20
 3121 14a0 D35C     		ldrb	r3, [r2, r3]	@ zero_extendqisi2
 3122 14a2 1846     		mov	r0, r3
 3123 14a4 FFF7FEFF 		bl	PRINTER_A_PutChar
 481:printer.c     ****     			PRINTER_A_PutChar(msn_gasoline[x]);
 3124              		.loc 1 481 0 discriminator 3
 3125 14a8 7B7D     		ldrb	r3, [r7, #21]	@ zero_extendqisi2
 3126 14aa 0133     		adds	r3, r3, #1
 3127 14ac 7B75     		strb	r3, [r7, #21]
 3128              	.L194:
 481:printer.c     ****     			PRINTER_A_PutChar(msn_gasoline[x]);
 3129              		.loc 1 481 0 is_stmt 0 discriminator 1
 3130 14ae 7B7D     		ldrb	r3, [r7, #21]	@ zero_extendqisi2
 3131 14b0 082B     		cmp	r3, #8
 3132 14b2 F3D9     		bls	.L195
 3133              	.L193:
 3134              	.LBE83:
 483:printer.c     ****     		}
ARM GAS  C:\Users\THERMA~1\AppData\Local\Temp\ccXswU2c.s 			page 70


 484:printer.c     ****         } 
 485:printer.c     ****         PRINTER_A_PutChar(LINE_FEED); 	
 3135              		.loc 1 485 0 is_stmt 1
 3136 14b4 894B     		ldr	r3, .L235+8
 3137 14b6 1B78     		ldrb	r3, [r3]	@ zero_extendqisi2
 3138 14b8 1846     		mov	r0, r3
 3139 14ba FFF7FEFF 		bl	PRINTER_A_PutChar
 3140              	.LBB84:
 486:printer.c     **** 		for(uint8 x = 0; x < 13; x ++){
 3141              		.loc 1 486 0
 3142 14be 0023     		movs	r3, #0
 3143 14c0 3B75     		strb	r3, [r7, #20]
 3144 14c2 08E0     		b	.L196
 3145              	.L197:
 487:printer.c     **** 			PRINTER_A_PutChar(msn_ppu[x]);
 3146              		.loc 1 487 0 discriminator 3
 3147 14c4 3B7D     		ldrb	r3, [r7, #20]	@ zero_extendqisi2
 3148 14c6 894A     		ldr	r2, .L235+24
 3149 14c8 D35C     		ldrb	r3, [r2, r3]	@ zero_extendqisi2
 3150 14ca 1846     		mov	r0, r3
 3151 14cc FFF7FEFF 		bl	PRINTER_A_PutChar
 486:printer.c     **** 		for(uint8 x = 0; x < 13; x ++){
 3152              		.loc 1 486 0 discriminator 3
 3153 14d0 3B7D     		ldrb	r3, [r7, #20]	@ zero_extendqisi2
 3154 14d2 0133     		adds	r3, r3, #1
 3155 14d4 3B75     		strb	r3, [r7, #20]
 3156              	.L196:
 486:printer.c     **** 		for(uint8 x = 0; x < 13; x ++){
 3157              		.loc 1 486 0 is_stmt 0 discriminator 1
 3158 14d6 3B7D     		ldrb	r3, [r7, #20]	@ zero_extendqisi2
 3159 14d8 0C2B     		cmp	r3, #12
 3160 14da F3D9     		bls	.L197
 3161              	.LBE84:
 488:printer.c     **** 		}
 489:printer.c     **** 		PRINTER_A_PutChar(PRN_CURRENCY[0]);  
 3162              		.loc 1 489 0 is_stmt 1
 3163 14dc 844B     		ldr	r3, .L235+28
 3164 14de 1B78     		ldrb	r3, [r3]	@ zero_extendqisi2
 3165 14e0 1846     		mov	r0, r3
 3166 14e2 FFF7FEFF 		bl	PRINTER_A_PutChar
 490:printer.c     **** 		PRINTER_A_PutChar(' ');
 3167              		.loc 1 490 0
 3168 14e6 2020     		movs	r0, #32
 3169 14e8 FFF7FEFF 		bl	PRINTER_A_PutChar
 3170              	.LBB85:
 491:printer.c     **** 		for(uint8 x = 1; x < 6; x ++){
 3171              		.loc 1 491 0
 3172 14ec 0123     		movs	r3, #1
 3173 14ee FB74     		strb	r3, [r7, #19]
 3174 14f0 14E0     		b	.L198
 3175              	.L199:
 492:printer.c     **** 			PRINTER_A_PutChar(side.d.ProcessedPPU[side.d.Nozzle-1][x]);
 3176              		.loc 1 492 0 discriminator 3
 3177 14f2 794B     		ldr	r3, .L235+4
 3178 14f4 93F8CB34 		ldrb	r3, [r3, #1227]	@ zero_extendqisi2
 3179 14f8 5A1E     		subs	r2, r3, #1
 3180 14fa F97C     		ldrb	r1, [r7, #19]	@ zero_extendqisi2
ARM GAS  C:\Users\THERMA~1\AppData\Local\Temp\ccXswU2c.s 			page 71


 3181 14fc 7648     		ldr	r0, .L235+4
 3182 14fe 1346     		mov	r3, r2
 3183 1500 5B00     		lsls	r3, r3, #1
 3184 1502 1344     		add	r3, r3, r2
 3185 1504 5B00     		lsls	r3, r3, #1
 3186 1506 0344     		add	r3, r3, r0
 3187 1508 0B44     		add	r3, r3, r1
 3188 150a 03F2AA43 		addw	r3, r3, #1194
 3189 150e 1B78     		ldrb	r3, [r3]	@ zero_extendqisi2
 3190 1510 1846     		mov	r0, r3
 3191 1512 FFF7FEFF 		bl	PRINTER_A_PutChar
 491:printer.c     **** 		for(uint8 x = 1; x < 6; x ++){
 3192              		.loc 1 491 0 discriminator 3
 3193 1516 FB7C     		ldrb	r3, [r7, #19]	@ zero_extendqisi2
 3194 1518 0133     		adds	r3, r3, #1
 3195 151a FB74     		strb	r3, [r7, #19]
 3196              	.L198:
 491:printer.c     **** 		for(uint8 x = 1; x < 6; x ++){
 3197              		.loc 1 491 0 is_stmt 0 discriminator 1
 3198 151c FB7C     		ldrb	r3, [r7, #19]	@ zero_extendqisi2
 3199 151e 052B     		cmp	r3, #5
 3200 1520 E7D9     		bls	.L199
 3201              	.LBE85:
 493:printer.c     **** 		}
 494:printer.c     ****         PRINTER_A_PutChar(LINE_FEED);
 3202              		.loc 1 494 0 is_stmt 1
 3203 1522 6E4B     		ldr	r3, .L235+8
 3204 1524 1B78     		ldrb	r3, [r3]	@ zero_extendqisi2
 3205 1526 1846     		mov	r0, r3
 3206 1528 FFF7FEFF 		bl	PRINTER_A_PutChar
 3207              	.LBB86:
 495:printer.c     **** 		for(uint8 x = 0; x < 13; x ++){
 3208              		.loc 1 495 0
 3209 152c 0023     		movs	r3, #0
 3210 152e BB74     		strb	r3, [r7, #18]
 3211 1530 08E0     		b	.L200
 3212              	.L201:
 496:printer.c     **** 			PRINTER_A_PutChar(msn_vol[x]);
 3213              		.loc 1 496 0 discriminator 3
 3214 1532 BB7C     		ldrb	r3, [r7, #18]	@ zero_extendqisi2
 3215 1534 6F4A     		ldr	r2, .L235+32
 3216 1536 D35C     		ldrb	r3, [r2, r3]	@ zero_extendqisi2
 3217 1538 1846     		mov	r0, r3
 3218 153a FFF7FEFF 		bl	PRINTER_A_PutChar
 495:printer.c     **** 		for(uint8 x = 0; x < 13; x ++){
 3219              		.loc 1 495 0 discriminator 3
 3220 153e BB7C     		ldrb	r3, [r7, #18]	@ zero_extendqisi2
 3221 1540 0133     		adds	r3, r3, #1
 3222 1542 BB74     		strb	r3, [r7, #18]
 3223              	.L200:
 495:printer.c     **** 		for(uint8 x = 0; x < 13; x ++){
 3224              		.loc 1 495 0 is_stmt 0 discriminator 1
 3225 1544 BB7C     		ldrb	r3, [r7, #18]	@ zero_extendqisi2
 3226 1546 0C2B     		cmp	r3, #12
 3227 1548 F3D9     		bls	.L201
 3228              	.LBE86:
 3229              	.LBB87:
ARM GAS  C:\Users\THERMA~1\AppData\Local\Temp\ccXswU2c.s 			page 72


 497:printer.c     **** 		}
 498:printer.c     **** 		for(uint8 x = 0; x < 8; x ++){
 3230              		.loc 1 498 0 is_stmt 1
 3231 154a 0023     		movs	r3, #0
 3232 154c 7B74     		strb	r3, [r7, #17]
 3233 154e 14E0     		b	.L202
 3234              	.L204:
 499:printer.c     **** 			if((8-x) == DecVol)
 3235              		.loc 1 499 0
 3236 1550 7B7C     		ldrb	r3, [r7, #17]	@ zero_extendqisi2
 3237 1552 C3F10803 		rsb	r3, r3, #8
 3238 1556 684A     		ldr	r2, .L235+36
 3239 1558 1278     		ldrb	r2, [r2]	@ zero_extendqisi2
 3240 155a 9342     		cmp	r3, r2
 3241 155c 02D1     		bne	.L203
 500:printer.c     **** 				PRINTER_A_PutChar('.');
 3242              		.loc 1 500 0
 3243 155e 2E20     		movs	r0, #46
 3244 1560 FFF7FEFF 		bl	PRINTER_A_PutChar
 3245              	.L203:
 501:printer.c     **** 			PRINTER_A_PutChar(side.d.ProcessedvolumeSale[x]);        
 3246              		.loc 1 501 0 discriminator 2
 3247 1564 7B7C     		ldrb	r3, [r7, #17]	@ zero_extendqisi2
 3248 1566 5C4A     		ldr	r2, .L235+4
 3249 1568 1344     		add	r3, r3, r2
 3250 156a 93F8A234 		ldrb	r3, [r3, #1186]	@ zero_extendqisi2
 3251 156e 1846     		mov	r0, r3
 3252 1570 FFF7FEFF 		bl	PRINTER_A_PutChar
 498:printer.c     **** 			if((8-x) == DecVol)
 3253              		.loc 1 498 0 discriminator 2
 3254 1574 7B7C     		ldrb	r3, [r7, #17]	@ zero_extendqisi2
 3255 1576 0133     		adds	r3, r3, #1
 3256 1578 7B74     		strb	r3, [r7, #17]
 3257              	.L202:
 498:printer.c     **** 			if((8-x) == DecVol)
 3258              		.loc 1 498 0 is_stmt 0 discriminator 1
 3259 157a 7B7C     		ldrb	r3, [r7, #17]	@ zero_extendqisi2
 3260 157c 072B     		cmp	r3, #7
 3261 157e E7D9     		bls	.L204
 3262              	.LBE87:
 502:printer.c     **** 		}
 503:printer.c     **** 		PRINTER_A_PutChar(' ');
 3263              		.loc 1 503 0 is_stmt 1
 3264 1580 2020     		movs	r0, #32
 3265 1582 FFF7FEFF 		bl	PRINTER_A_PutChar
 504:printer.c     **** 		PRINTER_A_PutChar(VolSimbol[0]);
 3266              		.loc 1 504 0
 3267 1586 5D4B     		ldr	r3, .L235+40
 3268 1588 1B78     		ldrb	r3, [r3]	@ zero_extendqisi2
 3269 158a 1846     		mov	r0, r3
 3270 158c FFF7FEFF 		bl	PRINTER_A_PutChar
 505:printer.c     **** 		PRINTER_A_PutChar(LINE_FEED); 
 3271              		.loc 1 505 0
 3272 1590 524B     		ldr	r3, .L235+8
 3273 1592 1B78     		ldrb	r3, [r3]	@ zero_extendqisi2
 3274 1594 1846     		mov	r0, r3
 3275 1596 FFF7FEFF 		bl	PRINTER_A_PutChar
ARM GAS  C:\Users\THERMA~1\AppData\Local\Temp\ccXswU2c.s 			page 73


 3276              	.LBB88:
 506:printer.c     **** 		for(uint8 x = 0; x < 13; x ++){
 3277              		.loc 1 506 0
 3278 159a 0023     		movs	r3, #0
 3279 159c 3B74     		strb	r3, [r7, #16]
 3280 159e 08E0     		b	.L205
 3281              	.L206:
 507:printer.c     **** 			PRINTER_A_PutChar(msn_din[x]);
 3282              		.loc 1 507 0 discriminator 3
 3283 15a0 3B7C     		ldrb	r3, [r7, #16]	@ zero_extendqisi2
 3284 15a2 574A     		ldr	r2, .L235+44
 3285 15a4 D35C     		ldrb	r3, [r2, r3]	@ zero_extendqisi2
 3286 15a6 1846     		mov	r0, r3
 3287 15a8 FFF7FEFF 		bl	PRINTER_A_PutChar
 506:printer.c     **** 		for(uint8 x = 0; x < 13; x ++){
 3288              		.loc 1 506 0 discriminator 3
 3289 15ac 3B7C     		ldrb	r3, [r7, #16]	@ zero_extendqisi2
 3290 15ae 0133     		adds	r3, r3, #1
 3291 15b0 3B74     		strb	r3, [r7, #16]
 3292              	.L205:
 506:printer.c     **** 		for(uint8 x = 0; x < 13; x ++){
 3293              		.loc 1 506 0 is_stmt 0 discriminator 1
 3294 15b2 3B7C     		ldrb	r3, [r7, #16]	@ zero_extendqisi2
 3295 15b4 0C2B     		cmp	r3, #12
 3296 15b6 F3D9     		bls	.L206
 3297              	.LBE88:
 508:printer.c     **** 		}     
 509:printer.c     **** 		PRINTER_A_PutChar(PRN_CURRENCY[0]);  
 3298              		.loc 1 509 0 is_stmt 1
 3299 15b8 4D4B     		ldr	r3, .L235+28
 3300 15ba 1B78     		ldrb	r3, [r3]	@ zero_extendqisi2
 3301 15bc 1846     		mov	r0, r3
 3302 15be FFF7FEFF 		bl	PRINTER_A_PutChar
 510:printer.c     **** 		PRINTER_A_PutChar(' ');
 3303              		.loc 1 510 0
 3304 15c2 2020     		movs	r0, #32
 3305 15c4 FFF7FEFF 		bl	PRINTER_A_PutChar
 3306              	.LBB89:
 511:printer.c     **** 		for(uint8 x = 0; x < 8; x ++){
 3307              		.loc 1 511 0
 3308 15c8 0023     		movs	r3, #0
 3309 15ca FB73     		strb	r3, [r7, #15]
 3310 15cc 0AE0     		b	.L207
 3311              	.L208:
 512:printer.c     **** 			PRINTER_A_PutChar(side.d.ProcessedmoneySale[x]);
 3312              		.loc 1 512 0 discriminator 3
 3313 15ce FB7B     		ldrb	r3, [r7, #15]	@ zero_extendqisi2
 3314 15d0 414A     		ldr	r2, .L235+4
 3315 15d2 1344     		add	r3, r3, r2
 3316 15d4 93F89A34 		ldrb	r3, [r3, #1178]	@ zero_extendqisi2
 3317 15d8 1846     		mov	r0, r3
 3318 15da FFF7FEFF 		bl	PRINTER_A_PutChar
 511:printer.c     **** 		for(uint8 x = 0; x < 8; x ++){
 3319              		.loc 1 511 0 discriminator 3
 3320 15de FB7B     		ldrb	r3, [r7, #15]	@ zero_extendqisi2
 3321 15e0 0133     		adds	r3, r3, #1
 3322 15e2 FB73     		strb	r3, [r7, #15]
ARM GAS  C:\Users\THERMA~1\AppData\Local\Temp\ccXswU2c.s 			page 74


 3323              	.L207:
 511:printer.c     **** 		for(uint8 x = 0; x < 8; x ++){
 3324              		.loc 1 511 0 is_stmt 0 discriminator 1
 3325 15e4 FB7B     		ldrb	r3, [r7, #15]	@ zero_extendqisi2
 3326 15e6 072B     		cmp	r3, #7
 3327 15e8 F1D9     		bls	.L208
 3328              	.LBE89:
 513:printer.c     **** 		}		
 514:printer.c     **** 		PRINTER_A_PutChar(LINE_FEED);
 3329              		.loc 1 514 0 is_stmt 1
 3330 15ea 3C4B     		ldr	r3, .L235+8
 3331 15ec 1B78     		ldrb	r3, [r3]	@ zero_extendqisi2
 3332 15ee 1846     		mov	r0, r3
 3333 15f0 FFF7FEFF 		bl	PRINTER_A_PutChar
 515:printer.c     ****         side.d.Copy = 1;
 3334              		.loc 1 515 0
 3335 15f4 384B     		ldr	r3, .L235+4
 3336 15f6 0122     		movs	r2, #1
 3337 15f8 83F8D324 		strb	r2, [r3, #1235]
 3338              	.L164:
 3339              	.LBB90:
 516:printer.c     **** 	}
 517:printer.c     **** 	
 518:printer.c     **** 	/******FOOTER*****/
 519:printer.c     **** 	for(uint8 x = 0; x < 32; x ++){
 3340              		.loc 1 519 0
 3341 15fc 0023     		movs	r3, #0
 3342 15fe BB73     		strb	r3, [r7, #14]
 3343 1600 08E0     		b	.L209
 3344              	.L210:
 520:printer.c     **** 		PRINTER_A_PutChar(SEPARATOR[x]);
 3345              		.loc 1 520 0 discriminator 3
 3346 1602 BB7B     		ldrb	r3, [r7, #14]	@ zero_extendqisi2
 3347 1604 3F4A     		ldr	r2, .L235+48
 3348 1606 D35C     		ldrb	r3, [r2, r3]	@ zero_extendqisi2
 3349 1608 1846     		mov	r0, r3
 3350 160a FFF7FEFF 		bl	PRINTER_A_PutChar
 519:printer.c     **** 		PRINTER_A_PutChar(SEPARATOR[x]);
 3351              		.loc 1 519 0 discriminator 3
 3352 160e BB7B     		ldrb	r3, [r7, #14]	@ zero_extendqisi2
 3353 1610 0133     		adds	r3, r3, #1
 3354 1612 BB73     		strb	r3, [r7, #14]
 3355              	.L209:
 519:printer.c     **** 		PRINTER_A_PutChar(SEPARATOR[x]);
 3356              		.loc 1 519 0 is_stmt 0 discriminator 1
 3357 1614 BB7B     		ldrb	r3, [r7, #14]	@ zero_extendqisi2
 3358 1616 1F2B     		cmp	r3, #31
 3359 1618 F3D9     		bls	.L210
 3360              	.LBE90:
 521:printer.c     **** 	}
 522:printer.c     ****     PRINTER_A_PutChar(LINE_FEED);    
 3361              		.loc 1 522 0 is_stmt 1
 3362 161a 304B     		ldr	r3, .L235+8
 3363 161c 1B78     		ldrb	r3, [r3]	@ zero_extendqisi2
 3364 161e 1846     		mov	r0, r3
 3365 1620 FFF7FEFF 		bl	PRINTER_A_PutChar
 3366              	.LBB91:
ARM GAS  C:\Users\THERMA~1\AppData\Local\Temp\ccXswU2c.s 			page 75


 523:printer.c     **** 	for(uint8 x = 0; x < 32; x ++){
 3367              		.loc 1 523 0
 3368 1624 0023     		movs	r3, #0
 3369 1626 7B73     		strb	r3, [r7, #13]
 3370 1628 08E0     		b	.L211
 3371              	.L212:
 524:printer.c     **** 		PRINTER_A_PutChar(msn_footer3[x]);
 3372              		.loc 1 524 0 discriminator 3
 3373 162a 7B7B     		ldrb	r3, [r7, #13]	@ zero_extendqisi2
 3374 162c 364A     		ldr	r2, .L235+52
 3375 162e D35C     		ldrb	r3, [r2, r3]	@ zero_extendqisi2
 3376 1630 1846     		mov	r0, r3
 3377 1632 FFF7FEFF 		bl	PRINTER_A_PutChar
 523:printer.c     **** 	for(uint8 x = 0; x < 32; x ++){
 3378              		.loc 1 523 0 discriminator 3
 3379 1636 7B7B     		ldrb	r3, [r7, #13]	@ zero_extendqisi2
 3380 1638 0133     		adds	r3, r3, #1
 3381 163a 7B73     		strb	r3, [r7, #13]
 3382              	.L211:
 523:printer.c     **** 	for(uint8 x = 0; x < 32; x ++){
 3383              		.loc 1 523 0 is_stmt 0 discriminator 1
 3384 163c 7B7B     		ldrb	r3, [r7, #13]	@ zero_extendqisi2
 3385 163e 1F2B     		cmp	r3, #31
 3386 1640 F3D9     		bls	.L212
 3387              	.LBE91:
 525:printer.c     **** 	}
 526:printer.c     ****     PRINTER_A_PutChar(LINE_FEED);
 3388              		.loc 1 526 0 is_stmt 1
 3389 1642 264B     		ldr	r3, .L235+8
 3390 1644 1B78     		ldrb	r3, [r3]	@ zero_extendqisi2
 3391 1646 1846     		mov	r0, r3
 3392 1648 FFF7FEFF 		bl	PRINTER_A_PutChar
 527:printer.c     ****     PRINTER_A_PutChar(LINE_FEED);
 3393              		.loc 1 527 0
 3394 164c 234B     		ldr	r3, .L235+8
 3395 164e 1B78     		ldrb	r3, [r3]	@ zero_extendqisi2
 3396 1650 1846     		mov	r0, r3
 3397 1652 FFF7FEFF 		bl	PRINTER_A_PutChar
 3398              	.LBB92:
 528:printer.c     **** 	for(uint8 x = 0; x < 32; x ++){
 3399              		.loc 1 528 0
 3400 1656 0023     		movs	r3, #0
 3401 1658 3B73     		strb	r3, [r7, #12]
 3402 165a 08E0     		b	.L213
 3403              	.L214:
 529:printer.c     **** 		PRINTER_A_PutChar(msn_footer4[x]);
 3404              		.loc 1 529 0 discriminator 3
 3405 165c 3B7B     		ldrb	r3, [r7, #12]	@ zero_extendqisi2
 3406 165e 2B4A     		ldr	r2, .L235+56
 3407 1660 D35C     		ldrb	r3, [r2, r3]	@ zero_extendqisi2
 3408 1662 1846     		mov	r0, r3
 3409 1664 FFF7FEFF 		bl	PRINTER_A_PutChar
 528:printer.c     **** 	for(uint8 x = 0; x < 32; x ++){
 3410              		.loc 1 528 0 discriminator 3
 3411 1668 3B7B     		ldrb	r3, [r7, #12]	@ zero_extendqisi2
 3412 166a 0133     		adds	r3, r3, #1
 3413 166c 3B73     		strb	r3, [r7, #12]
ARM GAS  C:\Users\THERMA~1\AppData\Local\Temp\ccXswU2c.s 			page 76


 3414              	.L213:
 528:printer.c     **** 	for(uint8 x = 0; x < 32; x ++){
 3415              		.loc 1 528 0 is_stmt 0 discriminator 1
 3416 166e 3B7B     		ldrb	r3, [r7, #12]	@ zero_extendqisi2
 3417 1670 1F2B     		cmp	r3, #31
 3418 1672 F3D9     		bls	.L214
 3419              	.LBE92:
 530:printer.c     **** 	}
 531:printer.c     **** 	PRINTER_A_PutChar(LINE_FEED);    
 3420              		.loc 1 531 0 is_stmt 1
 3421 1674 194B     		ldr	r3, .L235+8
 3422 1676 1B78     		ldrb	r3, [r3]	@ zero_extendqisi2
 3423 1678 1846     		mov	r0, r3
 3424 167a FFF7FEFF 		bl	PRINTER_A_PutChar
 3425              	.LBB93:
 532:printer.c     ****     for(uint8 x = 0; x < 32; x ++){
 3426              		.loc 1 532 0
 3427 167e 0023     		movs	r3, #0
 3428 1680 FB72     		strb	r3, [r7, #11]
 3429 1682 08E0     		b	.L215
 3430              	.L216:
 533:printer.c     **** 		PRINTER_A_PutChar(SEPARATOR[x]);
 3431              		.loc 1 533 0 discriminator 3
 3432 1684 FB7A     		ldrb	r3, [r7, #11]	@ zero_extendqisi2
 3433 1686 1F4A     		ldr	r2, .L235+48
 3434 1688 D35C     		ldrb	r3, [r2, r3]	@ zero_extendqisi2
 3435 168a 1846     		mov	r0, r3
 3436 168c FFF7FEFF 		bl	PRINTER_A_PutChar
 532:printer.c     ****     for(uint8 x = 0; x < 32; x ++){
 3437              		.loc 1 532 0 discriminator 3
 3438 1690 FB7A     		ldrb	r3, [r7, #11]	@ zero_extendqisi2
 3439 1692 0133     		adds	r3, r3, #1
 3440 1694 FB72     		strb	r3, [r7, #11]
 3441              	.L215:
 532:printer.c     ****     for(uint8 x = 0; x < 32; x ++){
 3442              		.loc 1 532 0 is_stmt 0 discriminator 1
 3443 1696 FB7A     		ldrb	r3, [r7, #11]	@ zero_extendqisi2
 3444 1698 1F2B     		cmp	r3, #31
 3445 169a F3D9     		bls	.L216
 3446              	.LBE93:
 534:printer.c     **** 	}
 535:printer.c     ****     PRINTER_A_PutChar(LINE_FEED);
 3447              		.loc 1 535 0 is_stmt 1
 3448 169c 0F4B     		ldr	r3, .L235+8
 3449 169e 1B78     		ldrb	r3, [r3]	@ zero_extendqisi2
 3450 16a0 1846     		mov	r0, r3
 3451 16a2 FFF7FEFF 		bl	PRINTER_A_PutChar
 3452              	.LBB94:
 536:printer.c     **** 	for(uint8 x = 0; x < 32; x ++){
 3453              		.loc 1 536 0
 3454 16a6 0023     		movs	r3, #0
 3455 16a8 BB72     		strb	r3, [r7, #10]
 3456 16aa 08E0     		b	.L217
 3457              	.L218:
 537:printer.c     **** 		PRINTER_A_PutChar(msn_footer[x]);
 3458              		.loc 1 537 0 discriminator 3
 3459 16ac BB7A     		ldrb	r3, [r7, #10]	@ zero_extendqisi2
ARM GAS  C:\Users\THERMA~1\AppData\Local\Temp\ccXswU2c.s 			page 77


 3460 16ae 184A     		ldr	r2, .L235+60
 3461 16b0 D35C     		ldrb	r3, [r2, r3]	@ zero_extendqisi2
 3462 16b2 1846     		mov	r0, r3
 3463 16b4 FFF7FEFF 		bl	PRINTER_A_PutChar
 536:printer.c     **** 	for(uint8 x = 0; x < 32; x ++){
 3464              		.loc 1 536 0 discriminator 3
 3465 16b8 BB7A     		ldrb	r3, [r7, #10]	@ zero_extendqisi2
 3466 16ba 0133     		adds	r3, r3, #1
 3467 16bc BB72     		strb	r3, [r7, #10]
 3468              	.L217:
 536:printer.c     **** 	for(uint8 x = 0; x < 32; x ++){
 3469              		.loc 1 536 0 is_stmt 0 discriminator 1
 3470 16be BB7A     		ldrb	r3, [r7, #10]	@ zero_extendqisi2
 3471 16c0 1F2B     		cmp	r3, #31
 3472 16c2 F3D9     		bls	.L218
 3473              	.LBE94:
 538:printer.c     **** 	}
 539:printer.c     **** 	PRINTER_A_PutChar(LINE_FEED);
 3474              		.loc 1 539 0 is_stmt 1
 3475 16c4 054B     		ldr	r3, .L235+8
 3476 16c6 1B78     		ldrb	r3, [r3]	@ zero_extendqisi2
 3477 16c8 1846     		mov	r0, r3
 3478 16ca FFF7FEFF 		bl	PRINTER_A_PutChar
 3479              	.LBB95:
 540:printer.c     **** 	for(uint8 x = 0; x < 32; x ++){
 3480              		.loc 1 540 0
 3481 16ce 0023     		movs	r3, #0
 3482 16d0 7B72     		strb	r3, [r7, #9]
 3483 16d2 28E0     		b	.L219
 3484              	.L236:
 3485              		.align	2
 3486              	.L235:
 3487 16d4 00000000 		.word	msn_pos
 3488 16d8 00000000 		.word	side
 3489 16dc 00000000 		.word	LINE_FEED
 3490 16e0 00000000 		.word	msn_product
 3491 16e4 00000000 		.word	msn_diesel
 3492 16e8 00000000 		.word	msn_gasoline
 3493 16ec 00000000 		.word	msn_ppu
 3494 16f0 00000000 		.word	PRN_CURRENCY
 3495 16f4 00000000 		.word	msn_vol
 3496 16f8 00000000 		.word	DecVol
 3497 16fc 00000000 		.word	VolSimbol
 3498 1700 00000000 		.word	msn_din
 3499 1704 00000000 		.word	SEPARATOR
 3500 1708 00000000 		.word	msn_footer3
 3501 170c 00000000 		.word	msn_footer4
 3502 1710 00000000 		.word	msn_footer
 3503              	.L220:
 541:printer.c     **** 		PRINTER_A_PutChar(msn_footer2[x]);
 3504              		.loc 1 541 0 discriminator 3
 3505 1714 7B7A     		ldrb	r3, [r7, #9]	@ zero_extendqisi2
 3506 1716 1B4A     		ldr	r2, .L237
 3507 1718 D35C     		ldrb	r3, [r2, r3]	@ zero_extendqisi2
 3508 171a 1846     		mov	r0, r3
 3509 171c FFF7FEFF 		bl	PRINTER_A_PutChar
 540:printer.c     **** 	for(uint8 x = 0; x < 32; x ++){
ARM GAS  C:\Users\THERMA~1\AppData\Local\Temp\ccXswU2c.s 			page 78


 3510              		.loc 1 540 0 discriminator 3
 3511 1720 7B7A     		ldrb	r3, [r7, #9]	@ zero_extendqisi2
 3512 1722 0133     		adds	r3, r3, #1
 3513 1724 7B72     		strb	r3, [r7, #9]
 3514              	.L219:
 540:printer.c     **** 	for(uint8 x = 0; x < 32; x ++){
 3515              		.loc 1 540 0 is_stmt 0 discriminator 1
 3516 1726 7B7A     		ldrb	r3, [r7, #9]	@ zero_extendqisi2
 3517 1728 1F2B     		cmp	r3, #31
 3518 172a F3D9     		bls	.L220
 3519              	.LBE95:
 542:printer.c     **** 	}    
 543:printer.c     ****     PRINTER_A_PutChar(LINE_FEED);
 3520              		.loc 1 543 0 is_stmt 1
 3521 172c 164B     		ldr	r3, .L237+4
 3522 172e 1B78     		ldrb	r3, [r3]	@ zero_extendqisi2
 3523 1730 1846     		mov	r0, r3
 3524 1732 FFF7FEFF 		bl	PRINTER_A_PutChar
 544:printer.c     ****     PRINTER_A_PutChar(LINE_FEED);
 3525              		.loc 1 544 0
 3526 1736 144B     		ldr	r3, .L237+4
 3527 1738 1B78     		ldrb	r3, [r3]	@ zero_extendqisi2
 3528 173a 1846     		mov	r0, r3
 3529 173c FFF7FEFF 		bl	PRINTER_A_PutChar
 545:printer.c     ****     PRINTER_A_PutChar(LINE_FEED);
 3530              		.loc 1 545 0
 3531 1740 114B     		ldr	r3, .L237+4
 3532 1742 1B78     		ldrb	r3, [r3]	@ zero_extendqisi2
 3533 1744 1846     		mov	r0, r3
 3534 1746 FFF7FEFF 		bl	PRINTER_A_PutChar
 546:printer.c     ****     PRINTER_A_PutChar(LINE_FEED);
 3535              		.loc 1 546 0
 3536 174a 0F4B     		ldr	r3, .L237+4
 3537 174c 1B78     		ldrb	r3, [r3]	@ zero_extendqisi2
 3538 174e 1846     		mov	r0, r3
 3539 1750 FFF7FEFF 		bl	PRINTER_A_PutChar
 547:printer.c     ****     PRINTER_A_PutChar(LINE_FEED);
 3540              		.loc 1 547 0
 3541 1754 0C4B     		ldr	r3, .L237+4
 3542 1756 1B78     		ldrb	r3, [r3]	@ zero_extendqisi2
 3543 1758 1846     		mov	r0, r3
 3544 175a FFF7FEFF 		bl	PRINTER_A_PutChar
 3545              	.LBB96:
 548:printer.c     ****     for(uint8 x = 0; x < 6; x ++){
 3546              		.loc 1 548 0
 3547 175e 0023     		movs	r3, #0
 3548 1760 3B72     		strb	r3, [r7, #8]
 3549 1762 08E0     		b	.L221
 3550              	.L222:
 549:printer.c     ****         sale_number_copy[x] = sale_number[x];
 3551              		.loc 1 549 0 discriminator 3
 3552 1764 3B7A     		ldrb	r3, [r7, #8]	@ zero_extendqisi2
 3553 1766 3A7A     		ldrb	r2, [r7, #8]	@ zero_extendqisi2
 3554 1768 0849     		ldr	r1, .L237+8
 3555 176a 895C     		ldrb	r1, [r1, r2]	@ zero_extendqisi2
 3556 176c 084A     		ldr	r2, .L237+12
 3557 176e D154     		strb	r1, [r2, r3]
ARM GAS  C:\Users\THERMA~1\AppData\Local\Temp\ccXswU2c.s 			page 79


 548:printer.c     ****     for(uint8 x = 0; x < 6; x ++){
 3558              		.loc 1 548 0 discriminator 3
 3559 1770 3B7A     		ldrb	r3, [r7, #8]	@ zero_extendqisi2
 3560 1772 0133     		adds	r3, r3, #1
 3561 1774 3B72     		strb	r3, [r7, #8]
 3562              	.L221:
 548:printer.c     ****     for(uint8 x = 0; x < 6; x ++){
 3563              		.loc 1 548 0 is_stmt 0 discriminator 1
 3564 1776 3B7A     		ldrb	r3, [r7, #8]	@ zero_extendqisi2
 3565 1778 052B     		cmp	r3, #5
 3566 177a F3D9     		bls	.L222
 3567              	.LBE96:
 550:printer.c     ****     }
 551:printer.c     **** }
 3568              		.loc 1 551 0 is_stmt 1
 3569 177c 00BF     		nop
 3570 177e 6C37     		adds	r7, r7, #108
 3571              		.cfi_def_cfa_offset 12
 3572 1780 BD46     		mov	sp, r7
 3573              		.cfi_def_cfa_register 13
 3574              		@ sp needed
 3575 1782 90BD     		pop	{r4, r7, pc}
 3576              	.L238:
 3577              		.align	2
 3578              	.L237:
 3579 1784 00000000 		.word	msn_footer2
 3580 1788 00000000 		.word	LINE_FEED
 3581 178c 00000000 		.word	sale_number
 3582 1790 00000000 		.word	sale_number_copy
 3583              		.cfi_endproc
 3584              	.LFE64:
 3585              		.size	PrintReceipt, .-PrintReceipt
 3586              		.section	.text.PrintShift,"ax",%progbits
 3587              		.align	2
 3588              		.global	PrintShift
 3589              		.thumb
 3590              		.thumb_func
 3591              		.type	PrintShift, %function
 3592              	PrintShift:
 3593              	.LFB65:
 552:printer.c     **** 
 553:printer.c     **** void PrintShift(void){
 3594              		.loc 1 553 0
 3595              		.cfi_startproc
 3596              		@ args = 0, pretend = 0, frame = 112
 3597              		@ frame_needed = 1, uses_anonymous_args = 0
 3598 0000 90B5     		push	{r4, r7, lr}
 3599              		.cfi_def_cfa_offset 12
 3600              		.cfi_offset 4, -12
 3601              		.cfi_offset 7, -8
 3602              		.cfi_offset 14, -4
 3603 0002 9DB0     		sub	sp, sp, #116
 3604              		.cfi_def_cfa_offset 128
 3605 0004 00AF     		add	r7, sp, #0
 3606              		.cfi_def_cfa_register 7
 554:printer.c     ****     uint8 screen_size,pos;
 555:printer.c     ****     screen_size = 0;
ARM GAS  C:\Users\THERMA~1\AppData\Local\Temp\ccXswU2c.s 			page 80


 3607              		.loc 1 555 0
 3608 0006 0023     		movs	r3, #0
 3609 0008 87F86F30 		strb	r3, [r7, #111]
 556:printer.c     ****     char8 lectanterior[10],lectactual[10],memoria[10],resultado[10];
 557:printer.c     ****     uint32 actual,anterior,resta;
 558:printer.c     ****     while(screen_size == 0){
 3610              		.loc 1 558 0
 3611 000c 1BE0     		b	.L240
 3612              	.L243:
 3613              	.LBB97:
 559:printer.c     ****         for(uint8 LCDRx = 0; LCDRx < 6; LCDRx++){
 3614              		.loc 1 559 0
 3615 000e 0023     		movs	r3, #0
 3616 0010 87F86D30 		strb	r3, [r7, #109]
 3617 0014 0BE0     		b	.L241
 3618              	.L242:
 560:printer.c     ****             screen_PutChar(ASK_TIME[LCDRx]);
 3619              		.loc 1 560 0 discriminator 3
 3620 0016 97F86D30 		ldrb	r3, [r7, #109]	@ zero_extendqisi2
 3621 001a BC4A     		ldr	r2, .L351
 3622 001c D35C     		ldrb	r3, [r2, r3]	@ zero_extendqisi2
 3623 001e 1846     		mov	r0, r3
 3624 0020 FFF7FEFF 		bl	screen_PutChar
 559:printer.c     ****         for(uint8 LCDRx = 0; LCDRx < 6; LCDRx++){
 3625              		.loc 1 559 0 discriminator 3
 3626 0024 97F86D30 		ldrb	r3, [r7, #109]	@ zero_extendqisi2
 3627 0028 0133     		adds	r3, r3, #1
 3628 002a 87F86D30 		strb	r3, [r7, #109]
 3629              	.L241:
 559:printer.c     ****         for(uint8 LCDRx = 0; LCDRx < 6; LCDRx++){
 3630              		.loc 1 559 0 is_stmt 0 discriminator 1
 3631 002e 97F86D30 		ldrb	r3, [r7, #109]	@ zero_extendqisi2
 3632 0032 052B     		cmp	r3, #5
 3633 0034 EFD9     		bls	.L242
 3634              	.LBE97:
 561:printer.c     ****         }
 562:printer.c     ****         CyDelay(5);
 3635              		.loc 1 562 0 is_stmt 1
 3636 0036 0520     		movs	r0, #5
 3637 0038 FFF7FEFF 		bl	CyDelay
 563:printer.c     ****         screen_size = screen_GetRxBufferSize();
 3638              		.loc 1 563 0
 3639 003c FFF7FEFF 		bl	screen_GetRxBufferSize
 3640 0040 0346     		mov	r3, r0
 3641 0042 87F86F30 		strb	r3, [r7, #111]
 3642              	.L240:
 558:printer.c     ****         for(uint8 LCDRx = 0; LCDRx < 6; LCDRx++){
 3643              		.loc 1 558 0
 3644 0046 97F86F30 		ldrb	r3, [r7, #111]	@ zero_extendqisi2
 3645 004a 002B     		cmp	r3, #0
 3646 004c DFD0     		beq	.L243
 564:printer.c     ****     }
 565:printer.c     ****     if(screen_size >= 13 ){
 3647              		.loc 1 565 0
 3648 004e 97F86F30 		ldrb	r3, [r7, #111]	@ zero_extendqisi2
 3649 0052 0C2B     		cmp	r3, #12
 3650 0054 19D9     		bls	.L244
ARM GAS  C:\Users\THERMA~1\AppData\Local\Temp\ccXswU2c.s 			page 81


 3651              	.LBB98:
 566:printer.c     ****         for(uint8 LCDRx = 0; LCDRx < screen_size; LCDRx++){
 3652              		.loc 1 566 0
 3653 0056 0023     		movs	r3, #0
 3654 0058 87F86C30 		strb	r3, [r7, #108]
 3655 005c 0CE0     		b	.L245
 3656              	.L246:
 567:printer.c     ****             touch1[LCDRx] = screen_ReadRxData();
 3657              		.loc 1 567 0 discriminator 3
 3658 005e 97F86C40 		ldrb	r4, [r7, #108]	@ zero_extendqisi2
 3659 0062 FFF7FEFF 		bl	screen_ReadRxData
 3660 0066 0346     		mov	r3, r0
 3661 0068 1A46     		mov	r2, r3
 3662 006a A94B     		ldr	r3, .L351+4
 3663 006c 1A55     		strb	r2, [r3, r4]
 566:printer.c     ****         for(uint8 LCDRx = 0; LCDRx < screen_size; LCDRx++){
 3664              		.loc 1 566 0 discriminator 3
 3665 006e 97F86C30 		ldrb	r3, [r7, #108]	@ zero_extendqisi2
 3666 0072 0133     		adds	r3, r3, #1
 3667 0074 87F86C30 		strb	r3, [r7, #108]
 3668              	.L245:
 566:printer.c     ****         for(uint8 LCDRx = 0; LCDRx < screen_size; LCDRx++){
 3669              		.loc 1 566 0 is_stmt 0 discriminator 1
 3670 0078 97F86C20 		ldrb	r2, [r7, #108]	@ zero_extendqisi2
 3671 007c 97F86F30 		ldrb	r3, [r7, #111]	@ zero_extendqisi2
 3672 0080 9A42     		cmp	r2, r3
 3673 0082 ECD3     		bcc	.L246
 3674              	.LBE98:
 568:printer.c     ****         }
 569:printer.c     ****         screen_size = 0;
 3675              		.loc 1 569 0 is_stmt 1
 3676 0084 0023     		movs	r3, #0
 3677 0086 87F86F30 		strb	r3, [r7, #111]
 3678              	.L244:
 570:printer.c     ****     }
 571:printer.c     ****     PRINTER_A_PutChar(0x1D);
 3679              		.loc 1 571 0
 3680 008a 1D20     		movs	r0, #29
 3681 008c FFF7FEFF 		bl	PRINTER_A_PutChar
 572:printer.c     ****     PRINTER_A_PutChar(0x70);
 3682              		.loc 1 572 0
 3683 0090 7020     		movs	r0, #112
 3684 0092 FFF7FEFF 		bl	PRINTER_A_PutChar
 573:printer.c     ****     PRINTER_A_PutChar(0x01);
 3685              		.loc 1 573 0
 3686 0096 0120     		movs	r0, #1
 3687 0098 FFF7FEFF 		bl	PRINTER_A_PutChar
 574:printer.c     ****     PRINTER_A_PutChar(0x00);
 3688              		.loc 1 574 0
 3689 009c 0020     		movs	r0, #0
 3690 009e FFF7FEFF 		bl	PRINTER_A_PutChar
 575:printer.c     ****     int_shiftnumber++;
 3691              		.loc 1 575 0
 3692 00a2 9C4B     		ldr	r3, .L351+8
 3693 00a4 1B78     		ldrb	r3, [r3]	@ zero_extendqisi2
 3694 00a6 0133     		adds	r3, r3, #1
 3695 00a8 DAB2     		uxtb	r2, r3
ARM GAS  C:\Users\THERMA~1\AppData\Local\Temp\ccXswU2c.s 			page 82


 3696 00aa 9A4B     		ldr	r3, .L351+8
 3697 00ac 1A70     		strb	r2, [r3]
 576:printer.c     ****     shift_number[5]=(int_shiftnumber/10000)+48;
 3698              		.loc 1 576 0
 3699 00ae 994B     		ldr	r3, .L351+8
 3700 00b0 1B78     		ldrb	r3, [r3]	@ zero_extendqisi2
 3701 00b2 994A     		ldr	r2, .L351+12
 3702 00b4 82FB0312 		smull	r1, r2, r2, r3
 3703 00b8 1213     		asrs	r2, r2, #12
 3704 00ba DB17     		asrs	r3, r3, #31
 3705 00bc D31A     		subs	r3, r2, r3
 3706 00be DBB2     		uxtb	r3, r3
 3707 00c0 3033     		adds	r3, r3, #48
 3708 00c2 DAB2     		uxtb	r2, r3
 3709 00c4 954B     		ldr	r3, .L351+16
 3710 00c6 5A71     		strb	r2, [r3, #5]
 577:printer.c     **** 	shift_number[4]=((int_shiftnumber%10000)/1000)+48;
 3711              		.loc 1 577 0
 3712 00c8 924B     		ldr	r3, .L351+8
 3713 00ca 1B78     		ldrb	r3, [r3]	@ zero_extendqisi2
 3714 00cc 1A46     		mov	r2, r3
 3715 00ce 924B     		ldr	r3, .L351+12
 3716 00d0 83FB0213 		smull	r1, r3, r3, r2
 3717 00d4 1913     		asrs	r1, r3, #12
 3718 00d6 D317     		asrs	r3, r2, #31
 3719 00d8 CB1A     		subs	r3, r1, r3
 3720 00da 42F21071 		movw	r1, #10000
 3721 00de 01FB03F3 		mul	r3, r1, r3
 3722 00e2 D31A     		subs	r3, r2, r3
 3723 00e4 8E4A     		ldr	r2, .L351+20
 3724 00e6 82FB0312 		smull	r1, r2, r2, r3
 3725 00ea 9211     		asrs	r2, r2, #6
 3726 00ec DB17     		asrs	r3, r3, #31
 3727 00ee D31A     		subs	r3, r2, r3
 3728 00f0 DBB2     		uxtb	r3, r3
 3729 00f2 3033     		adds	r3, r3, #48
 3730 00f4 DAB2     		uxtb	r2, r3
 3731 00f6 894B     		ldr	r3, .L351+16
 3732 00f8 1A71     		strb	r2, [r3, #4]
 578:printer.c     **** 	shift_number[3]=(((int_shiftnumber%10000)%1000)/100)+48;
 3733              		.loc 1 578 0
 3734 00fa 864B     		ldr	r3, .L351+8
 3735 00fc 1B78     		ldrb	r3, [r3]	@ zero_extendqisi2
 3736 00fe 1A46     		mov	r2, r3
 3737 0100 854B     		ldr	r3, .L351+12
 3738 0102 83FB0213 		smull	r1, r3, r3, r2
 3739 0106 1913     		asrs	r1, r3, #12
 3740 0108 D317     		asrs	r3, r2, #31
 3741 010a CB1A     		subs	r3, r1, r3
 3742 010c 42F21071 		movw	r1, #10000
 3743 0110 01FB03F3 		mul	r3, r1, r3
 3744 0114 D31A     		subs	r3, r2, r3
 3745 0116 824A     		ldr	r2, .L351+20
 3746 0118 82FB0312 		smull	r1, r2, r2, r3
 3747 011c 9111     		asrs	r1, r2, #6
 3748 011e DA17     		asrs	r2, r3, #31
 3749 0120 8A1A     		subs	r2, r1, r2
ARM GAS  C:\Users\THERMA~1\AppData\Local\Temp\ccXswU2c.s 			page 83


 3750 0122 4FF47A71 		mov	r1, #1000
 3751 0126 01FB02F2 		mul	r2, r1, r2
 3752 012a 9A1A     		subs	r2, r3, r2
 3753 012c 7D4B     		ldr	r3, .L351+24
 3754 012e 83FB0213 		smull	r1, r3, r3, r2
 3755 0132 5911     		asrs	r1, r3, #5
 3756 0134 D317     		asrs	r3, r2, #31
 3757 0136 CB1A     		subs	r3, r1, r3
 3758 0138 DBB2     		uxtb	r3, r3
 3759 013a 3033     		adds	r3, r3, #48
 3760 013c DAB2     		uxtb	r2, r3
 3761 013e 774B     		ldr	r3, .L351+16
 3762 0140 DA70     		strb	r2, [r3, #3]
 579:printer.c     **** 	shift_number[2]=((((int_shiftnumber%10000)%1000)%100)/10)+48;	
 3763              		.loc 1 579 0
 3764 0142 744B     		ldr	r3, .L351+8
 3765 0144 1B78     		ldrb	r3, [r3]	@ zero_extendqisi2
 3766 0146 744A     		ldr	r2, .L351+12
 3767 0148 82FB0312 		smull	r1, r2, r2, r3
 3768 014c 1113     		asrs	r1, r2, #12
 3769 014e DA17     		asrs	r2, r3, #31
 3770 0150 8A1A     		subs	r2, r1, r2
 3771 0152 42F21071 		movw	r1, #10000
 3772 0156 01FB02F2 		mul	r2, r1, r2
 3773 015a 9A1A     		subs	r2, r3, r2
 3774 015c 704B     		ldr	r3, .L351+20
 3775 015e 83FB0213 		smull	r1, r3, r3, r2
 3776 0162 9911     		asrs	r1, r3, #6
 3777 0164 D317     		asrs	r3, r2, #31
 3778 0166 CB1A     		subs	r3, r1, r3
 3779 0168 4FF47A71 		mov	r1, #1000
 3780 016c 01FB03F3 		mul	r3, r1, r3
 3781 0170 D31A     		subs	r3, r2, r3
 3782 0172 6C4A     		ldr	r2, .L351+24
 3783 0174 82FB0312 		smull	r1, r2, r2, r3
 3784 0178 5111     		asrs	r1, r2, #5
 3785 017a DA17     		asrs	r2, r3, #31
 3786 017c 8A1A     		subs	r2, r1, r2
 3787 017e 6421     		movs	r1, #100
 3788 0180 01FB02F2 		mul	r2, r1, r2
 3789 0184 9A1A     		subs	r2, r3, r2
 3790 0186 684B     		ldr	r3, .L351+28
 3791 0188 83FB0213 		smull	r1, r3, r3, r2
 3792 018c 9910     		asrs	r1, r3, #2
 3793 018e D317     		asrs	r3, r2, #31
 3794 0190 CB1A     		subs	r3, r1, r3
 3795 0192 DBB2     		uxtb	r3, r3
 3796 0194 3033     		adds	r3, r3, #48
 3797 0196 DAB2     		uxtb	r2, r3
 3798 0198 604B     		ldr	r3, .L351+16
 3799 019a 9A70     		strb	r2, [r3, #2]
 580:printer.c     **** 	shift_number[1]=((((int_shiftnumber%10000)%1000)%100)%10)+48;
 3800              		.loc 1 580 0
 3801 019c 5D4B     		ldr	r3, .L351+8
 3802 019e 1B78     		ldrb	r3, [r3]	@ zero_extendqisi2
 3803 01a0 5D4A     		ldr	r2, .L351+12
 3804 01a2 82FB0312 		smull	r1, r2, r2, r3
ARM GAS  C:\Users\THERMA~1\AppData\Local\Temp\ccXswU2c.s 			page 84


 3805 01a6 1113     		asrs	r1, r2, #12
 3806 01a8 DA17     		asrs	r2, r3, #31
 3807 01aa 8A1A     		subs	r2, r1, r2
 3808 01ac 42F21071 		movw	r1, #10000
 3809 01b0 01FB02F2 		mul	r2, r1, r2
 3810 01b4 9A1A     		subs	r2, r3, r2
 3811 01b6 5A4B     		ldr	r3, .L351+20
 3812 01b8 83FB0213 		smull	r1, r3, r3, r2
 3813 01bc 9911     		asrs	r1, r3, #6
 3814 01be D317     		asrs	r3, r2, #31
 3815 01c0 CB1A     		subs	r3, r1, r3
 3816 01c2 4FF47A71 		mov	r1, #1000
 3817 01c6 01FB03F3 		mul	r3, r1, r3
 3818 01ca D31A     		subs	r3, r2, r3
 3819 01cc 554A     		ldr	r2, .L351+24
 3820 01ce 82FB0312 		smull	r1, r2, r2, r3
 3821 01d2 5111     		asrs	r1, r2, #5
 3822 01d4 DA17     		asrs	r2, r3, #31
 3823 01d6 8A1A     		subs	r2, r1, r2
 3824 01d8 6421     		movs	r1, #100
 3825 01da 01FB02F2 		mul	r2, r1, r2
 3826 01de 9A1A     		subs	r2, r3, r2
 3827 01e0 514B     		ldr	r3, .L351+28
 3828 01e2 83FB0213 		smull	r1, r3, r3, r2
 3829 01e6 9910     		asrs	r1, r3, #2
 3830 01e8 D317     		asrs	r3, r2, #31
 3831 01ea C91A     		subs	r1, r1, r3
 3832 01ec 0B46     		mov	r3, r1
 3833 01ee 9B00     		lsls	r3, r3, #2
 3834 01f0 0B44     		add	r3, r3, r1
 3835 01f2 5B00     		lsls	r3, r3, #1
 3836 01f4 D11A     		subs	r1, r2, r3
 3837 01f6 CBB2     		uxtb	r3, r1
 3838 01f8 3033     		adds	r3, r3, #48
 3839 01fa DAB2     		uxtb	r2, r3
 3840 01fc 474B     		ldr	r3, .L351+16
 3841 01fe 5A70     		strb	r2, [r3, #1]
 3842              	.LBB99:
 581:printer.c     ****     for(uint8 i = 7; i<13; i++){
 3843              		.loc 1 581 0
 3844 0200 0723     		movs	r3, #7
 3845 0202 87F86B30 		strb	r3, [r7, #107]
 3846 0206 10E0     		b	.L247
 3847              	.L248:
 582:printer.c     ****         EEPROM_1_WriteByte(shift_number[i-6],i);
 3848              		.loc 1 582 0 discriminator 3
 3849 0208 97F86B30 		ldrb	r3, [r7, #107]	@ zero_extendqisi2
 3850 020c 063B     		subs	r3, r3, #6
 3851 020e 434A     		ldr	r2, .L351+16
 3852 0210 D35C     		ldrb	r3, [r2, r3]	@ zero_extendqisi2
 3853 0212 97F86B20 		ldrb	r2, [r7, #107]	@ zero_extendqisi2
 3854 0216 92B2     		uxth	r2, r2
 3855 0218 1146     		mov	r1, r2
 3856 021a 1846     		mov	r0, r3
 3857 021c FFF7FEFF 		bl	EEPROM_1_WriteByte
 581:printer.c     ****     for(uint8 i = 7; i<13; i++){
 3858              		.loc 1 581 0 discriminator 3
ARM GAS  C:\Users\THERMA~1\AppData\Local\Temp\ccXswU2c.s 			page 85


 3859 0220 97F86B30 		ldrb	r3, [r7, #107]	@ zero_extendqisi2
 3860 0224 0133     		adds	r3, r3, #1
 3861 0226 87F86B30 		strb	r3, [r7, #107]
 3862              	.L247:
 581:printer.c     ****     for(uint8 i = 7; i<13; i++){
 3863              		.loc 1 581 0 is_stmt 0 discriminator 1
 3864 022a 97F86B30 		ldrb	r3, [r7, #107]	@ zero_extendqisi2
 3865 022e 0C2B     		cmp	r3, #12
 3866 0230 EAD9     		bls	.L248
 3867              	.LBE99:
 583:printer.c     ****     }
 584:printer.c     ****     PRINTER_A_PutChar(LINE_FEED);
 3868              		.loc 1 584 0 is_stmt 1
 3869 0232 3E4B     		ldr	r3, .L351+32
 3870 0234 1B78     		ldrb	r3, [r3]	@ zero_extendqisi2
 3871 0236 1846     		mov	r0, r3
 3872 0238 FFF7FEFF 		bl	PRINTER_A_PutChar
 3873              	.LBB100:
 585:printer.c     **** 	for(uint8 x = 0; x < 32; x ++){
 3874              		.loc 1 585 0
 3875 023c 0023     		movs	r3, #0
 3876 023e 87F86A30 		strb	r3, [r7, #106]
 3877 0242 0BE0     		b	.L249
 3878              	.L250:
 586:printer.c     **** 		PRINTER_A_PutChar(msn_EDS[x]);   // Encabezado de estacin
 3879              		.loc 1 586 0 discriminator 3
 3880 0244 97F86A30 		ldrb	r3, [r7, #106]	@ zero_extendqisi2
 3881 0248 394A     		ldr	r2, .L351+36
 3882 024a D35C     		ldrb	r3, [r2, r3]	@ zero_extendqisi2
 3883 024c 1846     		mov	r0, r3
 3884 024e FFF7FEFF 		bl	PRINTER_A_PutChar
 585:printer.c     **** 	for(uint8 x = 0; x < 32; x ++){
 3885              		.loc 1 585 0 discriminator 3
 3886 0252 97F86A30 		ldrb	r3, [r7, #106]	@ zero_extendqisi2
 3887 0256 0133     		adds	r3, r3, #1
 3888 0258 87F86A30 		strb	r3, [r7, #106]
 3889              	.L249:
 585:printer.c     **** 	for(uint8 x = 0; x < 32; x ++){
 3890              		.loc 1 585 0 is_stmt 0 discriminator 1
 3891 025c 97F86A30 		ldrb	r3, [r7, #106]	@ zero_extendqisi2
 3892 0260 1F2B     		cmp	r3, #31
 3893 0262 EFD9     		bls	.L250
 3894              	.LBE100:
 587:printer.c     **** 	}
 588:printer.c     **** 	PRINTER_A_PutChar(LINE_FEED);
 3895              		.loc 1 588 0 is_stmt 1
 3896 0264 314B     		ldr	r3, .L351+32
 3897 0266 1B78     		ldrb	r3, [r3]	@ zero_extendqisi2
 3898 0268 1846     		mov	r0, r3
 3899 026a FFF7FEFF 		bl	PRINTER_A_PutChar
 3900              	.LBB101:
 589:printer.c     **** 	for(uint8 x = 0; x < 32; x ++){
 3901              		.loc 1 589 0
 3902 026e 0023     		movs	r3, #0
 3903 0270 87F86930 		strb	r3, [r7, #105]
 3904 0274 0BE0     		b	.L251
 3905              	.L252:
ARM GAS  C:\Users\THERMA~1\AppData\Local\Temp\ccXswU2c.s 			page 86


 590:printer.c     **** 		PRINTER_A_PutChar(msn_EDS2[x]);
 3906              		.loc 1 590 0 discriminator 3
 3907 0276 97F86930 		ldrb	r3, [r7, #105]	@ zero_extendqisi2
 3908 027a 2E4A     		ldr	r2, .L351+40
 3909 027c D35C     		ldrb	r3, [r2, r3]	@ zero_extendqisi2
 3910 027e 1846     		mov	r0, r3
 3911 0280 FFF7FEFF 		bl	PRINTER_A_PutChar
 589:printer.c     **** 	for(uint8 x = 0; x < 32; x ++){
 3912              		.loc 1 589 0 discriminator 3
 3913 0284 97F86930 		ldrb	r3, [r7, #105]	@ zero_extendqisi2
 3914 0288 0133     		adds	r3, r3, #1
 3915 028a 87F86930 		strb	r3, [r7, #105]
 3916              	.L251:
 589:printer.c     **** 	for(uint8 x = 0; x < 32; x ++){
 3917              		.loc 1 589 0 is_stmt 0 discriminator 1
 3918 028e 97F86930 		ldrb	r3, [r7, #105]	@ zero_extendqisi2
 3919 0292 1F2B     		cmp	r3, #31
 3920 0294 EFD9     		bls	.L252
 3921              	.LBE101:
 591:printer.c     **** 	}
 592:printer.c     **** 	/*PRINTER_A_PutChar(LINE_FEED);
 593:printer.c     **** 	for(uint8 x = 0; x < 32; x ++){
 594:printer.c     **** 		PRINTER_A_PutChar(msn_EDS3[x]);
 595:printer.c     **** 	}*/
 596:printer.c     **** 	PRINTER_A_PutChar(LINE_FEED);
 3922              		.loc 1 596 0 is_stmt 1
 3923 0296 254B     		ldr	r3, .L351+32
 3924 0298 1B78     		ldrb	r3, [r3]	@ zero_extendqisi2
 3925 029a 1846     		mov	r0, r3
 3926 029c FFF7FEFF 		bl	PRINTER_A_PutChar
 3927              	.LBB102:
 597:printer.c     **** 	for(uint8 x = 0; x < 32; x ++){
 3928              		.loc 1 597 0
 3929 02a0 0023     		movs	r3, #0
 3930 02a2 87F86830 		strb	r3, [r7, #104]
 3931 02a6 0BE0     		b	.L253
 3932              	.L254:
 598:printer.c     **** 		PRINTER_A_PutChar(msn_EDS4[x]);
 3933              		.loc 1 598 0 discriminator 3
 3934 02a8 97F86830 		ldrb	r3, [r7, #104]	@ zero_extendqisi2
 3935 02ac 224A     		ldr	r2, .L351+44
 3936 02ae D35C     		ldrb	r3, [r2, r3]	@ zero_extendqisi2
 3937 02b0 1846     		mov	r0, r3
 3938 02b2 FFF7FEFF 		bl	PRINTER_A_PutChar
 597:printer.c     **** 	for(uint8 x = 0; x < 32; x ++){
 3939              		.loc 1 597 0 discriminator 3
 3940 02b6 97F86830 		ldrb	r3, [r7, #104]	@ zero_extendqisi2
 3941 02ba 0133     		adds	r3, r3, #1
 3942 02bc 87F86830 		strb	r3, [r7, #104]
 3943              	.L253:
 597:printer.c     **** 	for(uint8 x = 0; x < 32; x ++){
 3944              		.loc 1 597 0 is_stmt 0 discriminator 1
 3945 02c0 97F86830 		ldrb	r3, [r7, #104]	@ zero_extendqisi2
 3946 02c4 1F2B     		cmp	r3, #31
 3947 02c6 EFD9     		bls	.L254
 3948              	.LBE102:
 599:printer.c     **** 	}
ARM GAS  C:\Users\THERMA~1\AppData\Local\Temp\ccXswU2c.s 			page 87


 600:printer.c     **** 	PRINTER_A_PutChar(LINE_FEED);  
 3949              		.loc 1 600 0 is_stmt 1
 3950 02c8 184B     		ldr	r3, .L351+32
 3951 02ca 1B78     		ldrb	r3, [r3]	@ zero_extendqisi2
 3952 02cc 1846     		mov	r0, r3
 3953 02ce FFF7FEFF 		bl	PRINTER_A_PutChar
 3954              	.LBB103:
 601:printer.c     **** 	for(uint8 x = 0; x < 32; x ++){
 3955              		.loc 1 601 0
 3956 02d2 0023     		movs	r3, #0
 3957 02d4 87F86730 		strb	r3, [r7, #103]
 3958 02d8 0BE0     		b	.L255
 3959              	.L256:
 602:printer.c     **** 		PRINTER_A_PutChar(SEPARATOR[x]); //Separador de seccin
 3960              		.loc 1 602 0 discriminator 3
 3961 02da 97F86730 		ldrb	r3, [r7, #103]	@ zero_extendqisi2
 3962 02de 174A     		ldr	r2, .L351+48
 3963 02e0 D35C     		ldrb	r3, [r2, r3]	@ zero_extendqisi2
 3964 02e2 1846     		mov	r0, r3
 3965 02e4 FFF7FEFF 		bl	PRINTER_A_PutChar
 601:printer.c     **** 	for(uint8 x = 0; x < 32; x ++){
 3966              		.loc 1 601 0 discriminator 3
 3967 02e8 97F86730 		ldrb	r3, [r7, #103]	@ zero_extendqisi2
 3968 02ec 0133     		adds	r3, r3, #1
 3969 02ee 87F86730 		strb	r3, [r7, #103]
 3970              	.L255:
 601:printer.c     **** 	for(uint8 x = 0; x < 32; x ++){
 3971              		.loc 1 601 0 is_stmt 0 discriminator 1
 3972 02f2 97F86730 		ldrb	r3, [r7, #103]	@ zero_extendqisi2
 3973 02f6 1F2B     		cmp	r3, #31
 3974 02f8 EFD9     		bls	.L256
 3975              	.LBE103:
 603:printer.c     **** 	}
 604:printer.c     ****     PRINTER_A_PutChar(LINE_FEED);
 3976              		.loc 1 604 0 is_stmt 1
 3977 02fa 0C4B     		ldr	r3, .L351+32
 3978 02fc 1B78     		ldrb	r3, [r3]	@ zero_extendqisi2
 3979 02fe 1846     		mov	r0, r3
 3980 0300 FFF7FEFF 		bl	PRINTER_A_PutChar
 3981              	.LBB104:
 605:printer.c     ****     /********** FECHA ***************/
 606:printer.c     **** 	for(uint8 x = 0; x < 13; x ++){
 3982              		.loc 1 606 0
 3983 0304 0023     		movs	r3, #0
 3984 0306 87F86630 		strb	r3, [r7, #102]
 3985 030a 25E0     		b	.L257
 3986              	.L352:
 3987              		.align	2
 3988              	.L351:
 3989 030c 00000000 		.word	ASK_TIME
 3990 0310 00000000 		.word	touch1
 3991 0314 00000000 		.word	int_shiftnumber
 3992 0318 AD8BDB68 		.word	1759218605
 3993 031c 00000000 		.word	shift_number
 3994 0320 D34D6210 		.word	274877907
 3995 0324 1F85EB51 		.word	1374389535
 3996 0328 67666666 		.word	1717986919
ARM GAS  C:\Users\THERMA~1\AppData\Local\Temp\ccXswU2c.s 			page 88


 3997 032c 00000000 		.word	LINE_FEED
 3998 0330 00000000 		.word	msn_EDS
 3999 0334 00000000 		.word	msn_EDS2
 4000 0338 00000000 		.word	msn_EDS4
 4001 033c 00000000 		.word	SEPARATOR
 4002              	.L258:
 607:printer.c     **** 		PRINTER_A_PutChar(msn_fecha[x]);
 4003              		.loc 1 607 0 discriminator 3
 4004 0340 97F86630 		ldrb	r3, [r7, #102]	@ zero_extendqisi2
 4005 0344 C54A     		ldr	r2, .L353
 4006 0346 D35C     		ldrb	r3, [r2, r3]	@ zero_extendqisi2
 4007 0348 1846     		mov	r0, r3
 4008 034a FFF7FEFF 		bl	PRINTER_A_PutChar
 606:printer.c     **** 		PRINTER_A_PutChar(msn_fecha[x]);
 4009              		.loc 1 606 0 discriminator 3
 4010 034e 97F86630 		ldrb	r3, [r7, #102]	@ zero_extendqisi2
 4011 0352 0133     		adds	r3, r3, #1
 4012 0354 87F86630 		strb	r3, [r7, #102]
 4013              	.L257:
 606:printer.c     **** 		PRINTER_A_PutChar(msn_fecha[x]);
 4014              		.loc 1 606 0 is_stmt 0 discriminator 1
 4015 0358 97F86630 		ldrb	r3, [r7, #102]	@ zero_extendqisi2
 4016 035c 0C2B     		cmp	r3, #12
 4017 035e EFD9     		bls	.L258
 4018              	.LBE104:
 608:printer.c     **** 	}
 609:printer.c     ****     PRINTER_A_PutChar(((touch1[6] >> 4) + 0x30));
 4019              		.loc 1 609 0 is_stmt 1
 4020 0360 BF4B     		ldr	r3, .L353+4
 4021 0362 9B79     		ldrb	r3, [r3, #6]	@ zero_extendqisi2
 4022 0364 1B09     		lsrs	r3, r3, #4
 4023 0366 DBB2     		uxtb	r3, r3
 4024 0368 3033     		adds	r3, r3, #48
 4025 036a DBB2     		uxtb	r3, r3
 4026 036c 1846     		mov	r0, r3
 4027 036e FFF7FEFF 		bl	PRINTER_A_PutChar
 610:printer.c     ****     PRINTER_A_PutChar(((touch1[6] & 0x0F) + 0x30));
 4028              		.loc 1 610 0
 4029 0372 BB4B     		ldr	r3, .L353+4
 4030 0374 9B79     		ldrb	r3, [r3, #6]	@ zero_extendqisi2
 4031 0376 03F00F03 		and	r3, r3, #15
 4032 037a DBB2     		uxtb	r3, r3
 4033 037c 3033     		adds	r3, r3, #48
 4034 037e DBB2     		uxtb	r3, r3
 4035 0380 1846     		mov	r0, r3
 4036 0382 FFF7FEFF 		bl	PRINTER_A_PutChar
 611:printer.c     ****     PRINTER_A_PutChar('/');
 4037              		.loc 1 611 0
 4038 0386 2F20     		movs	r0, #47
 4039 0388 FFF7FEFF 		bl	PRINTER_A_PutChar
 612:printer.c     ****     PRINTER_A_PutChar(((touch1[7] >> 4) + 0x30)) ;
 4040              		.loc 1 612 0
 4041 038c B44B     		ldr	r3, .L353+4
 4042 038e DB79     		ldrb	r3, [r3, #7]	@ zero_extendqisi2
 4043 0390 1B09     		lsrs	r3, r3, #4
 4044 0392 DBB2     		uxtb	r3, r3
 4045 0394 3033     		adds	r3, r3, #48
ARM GAS  C:\Users\THERMA~1\AppData\Local\Temp\ccXswU2c.s 			page 89


 4046 0396 DBB2     		uxtb	r3, r3
 4047 0398 1846     		mov	r0, r3
 4048 039a FFF7FEFF 		bl	PRINTER_A_PutChar
 613:printer.c     ****     PRINTER_A_PutChar(((touch1[7] & 0x0F) + 0x30));
 4049              		.loc 1 613 0
 4050 039e B04B     		ldr	r3, .L353+4
 4051 03a0 DB79     		ldrb	r3, [r3, #7]	@ zero_extendqisi2
 4052 03a2 03F00F03 		and	r3, r3, #15
 4053 03a6 DBB2     		uxtb	r3, r3
 4054 03a8 3033     		adds	r3, r3, #48
 4055 03aa DBB2     		uxtb	r3, r3
 4056 03ac 1846     		mov	r0, r3
 4057 03ae FFF7FEFF 		bl	PRINTER_A_PutChar
 614:printer.c     ****     PRINTER_A_PutChar('/');
 4058              		.loc 1 614 0
 4059 03b2 2F20     		movs	r0, #47
 4060 03b4 FFF7FEFF 		bl	PRINTER_A_PutChar
 615:printer.c     ****     PRINTER_A_PutChar(((touch1[8] >> 4) + 0x30)) ;
 4061              		.loc 1 615 0
 4062 03b8 A94B     		ldr	r3, .L353+4
 4063 03ba 1B7A     		ldrb	r3, [r3, #8]	@ zero_extendqisi2
 4064 03bc 1B09     		lsrs	r3, r3, #4
 4065 03be DBB2     		uxtb	r3, r3
 4066 03c0 3033     		adds	r3, r3, #48
 4067 03c2 DBB2     		uxtb	r3, r3
 4068 03c4 1846     		mov	r0, r3
 4069 03c6 FFF7FEFF 		bl	PRINTER_A_PutChar
 616:printer.c     **** 	PRINTER_A_PutChar(((touch1[8] & 0x0F) + 0x30));
 4070              		.loc 1 616 0
 4071 03ca A54B     		ldr	r3, .L353+4
 4072 03cc 1B7A     		ldrb	r3, [r3, #8]	@ zero_extendqisi2
 4073 03ce 03F00F03 		and	r3, r3, #15
 4074 03d2 DBB2     		uxtb	r3, r3
 4075 03d4 3033     		adds	r3, r3, #48
 4076 03d6 DBB2     		uxtb	r3, r3
 4077 03d8 1846     		mov	r0, r3
 4078 03da FFF7FEFF 		bl	PRINTER_A_PutChar
 617:printer.c     **** 
 618:printer.c     **** 	PRINTER_A_PutChar(LINE_FEED);
 4079              		.loc 1 618 0
 4080 03de A14B     		ldr	r3, .L353+8
 4081 03e0 1B78     		ldrb	r3, [r3]	@ zero_extendqisi2
 4082 03e2 1846     		mov	r0, r3
 4083 03e4 FFF7FEFF 		bl	PRINTER_A_PutChar
 4084              	.LBB105:
 619:printer.c     ****     /********** HORA ***************/
 620:printer.c     **** 	for(uint8 x = 0; x < 13; x ++){
 4085              		.loc 1 620 0
 4086 03e8 0023     		movs	r3, #0
 4087 03ea 87F86530 		strb	r3, [r7, #101]
 4088 03ee 0BE0     		b	.L259
 4089              	.L260:
 621:printer.c     **** 		PRINTER_A_PutChar(msn_hora[x]);
 4090              		.loc 1 621 0 discriminator 3
 4091 03f0 97F86530 		ldrb	r3, [r7, #101]	@ zero_extendqisi2
 4092 03f4 9C4A     		ldr	r2, .L353+12
 4093 03f6 D35C     		ldrb	r3, [r2, r3]	@ zero_extendqisi2
ARM GAS  C:\Users\THERMA~1\AppData\Local\Temp\ccXswU2c.s 			page 90


 4094 03f8 1846     		mov	r0, r3
 4095 03fa FFF7FEFF 		bl	PRINTER_A_PutChar
 620:printer.c     **** 		PRINTER_A_PutChar(msn_hora[x]);
 4096              		.loc 1 620 0 discriminator 3
 4097 03fe 97F86530 		ldrb	r3, [r7, #101]	@ zero_extendqisi2
 4098 0402 0133     		adds	r3, r3, #1
 4099 0404 87F86530 		strb	r3, [r7, #101]
 4100              	.L259:
 620:printer.c     **** 		PRINTER_A_PutChar(msn_hora[x]);
 4101              		.loc 1 620 0 is_stmt 0 discriminator 1
 4102 0408 97F86530 		ldrb	r3, [r7, #101]	@ zero_extendqisi2
 4103 040c 0C2B     		cmp	r3, #12
 4104 040e EFD9     		bls	.L260
 4105              	.LBE105:
 622:printer.c     **** 	}
 623:printer.c     ****     PRINTER_A_PutChar(((touch1[10] >> 4) + 0x30)) ;
 4106              		.loc 1 623 0 is_stmt 1
 4107 0410 934B     		ldr	r3, .L353+4
 4108 0412 9B7A     		ldrb	r3, [r3, #10]	@ zero_extendqisi2
 4109 0414 1B09     		lsrs	r3, r3, #4
 4110 0416 DBB2     		uxtb	r3, r3
 4111 0418 3033     		adds	r3, r3, #48
 4112 041a DBB2     		uxtb	r3, r3
 4113 041c 1846     		mov	r0, r3
 4114 041e FFF7FEFF 		bl	PRINTER_A_PutChar
 624:printer.c     ****     PRINTER_A_PutChar(((touch1[10] & 0x0F) + 0x30));
 4115              		.loc 1 624 0
 4116 0422 8F4B     		ldr	r3, .L353+4
 4117 0424 9B7A     		ldrb	r3, [r3, #10]	@ zero_extendqisi2
 4118 0426 03F00F03 		and	r3, r3, #15
 4119 042a DBB2     		uxtb	r3, r3
 4120 042c 3033     		adds	r3, r3, #48
 4121 042e DBB2     		uxtb	r3, r3
 4122 0430 1846     		mov	r0, r3
 4123 0432 FFF7FEFF 		bl	PRINTER_A_PutChar
 625:printer.c     ****     PRINTER_A_PutChar(':');
 4124              		.loc 1 625 0
 4125 0436 3A20     		movs	r0, #58
 4126 0438 FFF7FEFF 		bl	PRINTER_A_PutChar
 626:printer.c     ****     PRINTER_A_PutChar(((touch1[11] >> 4) + 0x30)) ;
 4127              		.loc 1 626 0
 4128 043c 884B     		ldr	r3, .L353+4
 4129 043e DB7A     		ldrb	r3, [r3, #11]	@ zero_extendqisi2
 4130 0440 1B09     		lsrs	r3, r3, #4
 4131 0442 DBB2     		uxtb	r3, r3
 4132 0444 3033     		adds	r3, r3, #48
 4133 0446 DBB2     		uxtb	r3, r3
 4134 0448 1846     		mov	r0, r3
 4135 044a FFF7FEFF 		bl	PRINTER_A_PutChar
 627:printer.c     ****     PRINTER_A_PutChar(((touch1[11] & 0x0F) + 0x30));
 4136              		.loc 1 627 0
 4137 044e 844B     		ldr	r3, .L353+4
 4138 0450 DB7A     		ldrb	r3, [r3, #11]	@ zero_extendqisi2
 4139 0452 03F00F03 		and	r3, r3, #15
 4140 0456 DBB2     		uxtb	r3, r3
 4141 0458 3033     		adds	r3, r3, #48
 4142 045a DBB2     		uxtb	r3, r3
ARM GAS  C:\Users\THERMA~1\AppData\Local\Temp\ccXswU2c.s 			page 91


 4143 045c 1846     		mov	r0, r3
 4144 045e FFF7FEFF 		bl	PRINTER_A_PutChar
 628:printer.c     ****     PRINTER_A_PutChar(':');
 4145              		.loc 1 628 0
 4146 0462 3A20     		movs	r0, #58
 4147 0464 FFF7FEFF 		bl	PRINTER_A_PutChar
 629:printer.c     ****     PRINTER_A_PutChar(((touch1[12] >> 4) + 0x30));
 4148              		.loc 1 629 0
 4149 0468 7D4B     		ldr	r3, .L353+4
 4150 046a 1B7B     		ldrb	r3, [r3, #12]	@ zero_extendqisi2
 4151 046c 1B09     		lsrs	r3, r3, #4
 4152 046e DBB2     		uxtb	r3, r3
 4153 0470 3033     		adds	r3, r3, #48
 4154 0472 DBB2     		uxtb	r3, r3
 4155 0474 1846     		mov	r0, r3
 4156 0476 FFF7FEFF 		bl	PRINTER_A_PutChar
 630:printer.c     **** 	PRINTER_A_PutChar(((touch1[12] & 0x0F) + 0x30));
 4157              		.loc 1 630 0
 4158 047a 794B     		ldr	r3, .L353+4
 4159 047c 1B7B     		ldrb	r3, [r3, #12]	@ zero_extendqisi2
 4160 047e 03F00F03 		and	r3, r3, #15
 4161 0482 DBB2     		uxtb	r3, r3
 4162 0484 3033     		adds	r3, r3, #48
 4163 0486 DBB2     		uxtb	r3, r3
 4164 0488 1846     		mov	r0, r3
 4165 048a FFF7FEFF 		bl	PRINTER_A_PutChar
 631:printer.c     ****     PRINTER_A_PutChar(LINE_FEED);
 4166              		.loc 1 631 0
 4167 048e 754B     		ldr	r3, .L353+8
 4168 0490 1B78     		ldrb	r3, [r3]	@ zero_extendqisi2
 4169 0492 1846     		mov	r0, r3
 4170 0494 FFF7FEFF 		bl	PRINTER_A_PutChar
 4171              	.LBB106:
 632:printer.c     ****     for(uint8 x = 0; x < 32; x ++){
 4172              		.loc 1 632 0
 4173 0498 0023     		movs	r3, #0
 4174 049a 87F86430 		strb	r3, [r7, #100]
 4175 049e 0BE0     		b	.L261
 4176              	.L262:
 633:printer.c     **** 		PRINTER_A_PutChar(SEPARATOR[x]);
 4177              		.loc 1 633 0 discriminator 3
 4178 04a0 97F86430 		ldrb	r3, [r7, #100]	@ zero_extendqisi2
 4179 04a4 714A     		ldr	r2, .L353+16
 4180 04a6 D35C     		ldrb	r3, [r2, r3]	@ zero_extendqisi2
 4181 04a8 1846     		mov	r0, r3
 4182 04aa FFF7FEFF 		bl	PRINTER_A_PutChar
 632:printer.c     ****     for(uint8 x = 0; x < 32; x ++){
 4183              		.loc 1 632 0 discriminator 3
 4184 04ae 97F86430 		ldrb	r3, [r7, #100]	@ zero_extendqisi2
 4185 04b2 0133     		adds	r3, r3, #1
 4186 04b4 87F86430 		strb	r3, [r7, #100]
 4187              	.L261:
 632:printer.c     ****     for(uint8 x = 0; x < 32; x ++){
 4188              		.loc 1 632 0 is_stmt 0 discriminator 1
 4189 04b8 97F86430 		ldrb	r3, [r7, #100]	@ zero_extendqisi2
 4190 04bc 1F2B     		cmp	r3, #31
 4191 04be EFD9     		bls	.L262
ARM GAS  C:\Users\THERMA~1\AppData\Local\Temp\ccXswU2c.s 			page 92


 4192              	.LBE106:
 634:printer.c     **** 	} 
 635:printer.c     ****     PRINTER_A_PutChar(LINE_FEED);
 4193              		.loc 1 635 0 is_stmt 1
 4194 04c0 684B     		ldr	r3, .L353+8
 4195 04c2 1B78     		ldrb	r3, [r3]	@ zero_extendqisi2
 4196 04c4 1846     		mov	r0, r3
 4197 04c6 FFF7FEFF 		bl	PRINTER_A_PutChar
 4198              	.LBB107:
 636:printer.c     ****     ////////////////////////////////////////
 637:printer.c     **** 	for(uint8 x = 0; x < 13; x ++){
 4199              		.loc 1 637 0
 4200 04ca 0023     		movs	r3, #0
 4201 04cc 87F86330 		strb	r3, [r7, #99]
 4202 04d0 0BE0     		b	.L263
 4203              	.L264:
 638:printer.c     **** 		PRINTER_A_PutChar(msn_cierre[x]);
 4204              		.loc 1 638 0 discriminator 3
 4205 04d2 97F86330 		ldrb	r3, [r7, #99]	@ zero_extendqisi2
 4206 04d6 664A     		ldr	r2, .L353+20
 4207 04d8 D35C     		ldrb	r3, [r2, r3]	@ zero_extendqisi2
 4208 04da 1846     		mov	r0, r3
 4209 04dc FFF7FEFF 		bl	PRINTER_A_PutChar
 637:printer.c     **** 		PRINTER_A_PutChar(msn_cierre[x]);
 4210              		.loc 1 637 0 discriminator 3
 4211 04e0 97F86330 		ldrb	r3, [r7, #99]	@ zero_extendqisi2
 4212 04e4 0133     		adds	r3, r3, #1
 4213 04e6 87F86330 		strb	r3, [r7, #99]
 4214              	.L263:
 637:printer.c     **** 		PRINTER_A_PutChar(msn_cierre[x]);
 4215              		.loc 1 637 0 is_stmt 0 discriminator 1
 4216 04ea 97F86330 		ldrb	r3, [r7, #99]	@ zero_extendqisi2
 4217 04ee 0C2B     		cmp	r3, #12
 4218 04f0 EFD9     		bls	.L264
 4219              	.LBE107:
 4220              	.LBB108:
 639:printer.c     **** 	}     
 640:printer.c     **** 	for(uint8 x = 5; x > 0; x --){
 4221              		.loc 1 640 0 is_stmt 1
 4222 04f2 0523     		movs	r3, #5
 4223 04f4 87F86230 		strb	r3, [r7, #98]
 4224 04f8 0BE0     		b	.L265
 4225              	.L266:
 641:printer.c     **** 		PRINTER_A_PutChar(shift_number[x]);   //Nmero de cierre
 4226              		.loc 1 641 0 discriminator 3
 4227 04fa 97F86230 		ldrb	r3, [r7, #98]	@ zero_extendqisi2
 4228 04fe 5D4A     		ldr	r2, .L353+24
 4229 0500 D35C     		ldrb	r3, [r2, r3]	@ zero_extendqisi2
 4230 0502 1846     		mov	r0, r3
 4231 0504 FFF7FEFF 		bl	PRINTER_A_PutChar
 640:printer.c     **** 		PRINTER_A_PutChar(shift_number[x]);   //Nmero de cierre
 4232              		.loc 1 640 0 discriminator 3
 4233 0508 97F86230 		ldrb	r3, [r7, #98]	@ zero_extendqisi2
 4234 050c 013B     		subs	r3, r3, #1
 4235 050e 87F86230 		strb	r3, [r7, #98]
 4236              	.L265:
 640:printer.c     **** 		PRINTER_A_PutChar(shift_number[x]);   //Nmero de cierre
ARM GAS  C:\Users\THERMA~1\AppData\Local\Temp\ccXswU2c.s 			page 93


 4237              		.loc 1 640 0 is_stmt 0 discriminator 1
 4238 0512 97F86230 		ldrb	r3, [r7, #98]	@ zero_extendqisi2
 4239 0516 002B     		cmp	r3, #0
 4240 0518 EFD1     		bne	.L266
 4241              	.LBE108:
 642:printer.c     **** 	}
 643:printer.c     **** 	PRINTER_A_PutChar(LINE_FEED);
 4242              		.loc 1 643 0 is_stmt 1
 4243 051a 524B     		ldr	r3, .L353+8
 4244 051c 1B78     		ldrb	r3, [r3]	@ zero_extendqisi2
 4245 051e 1846     		mov	r0, r3
 4246 0520 FFF7FEFF 		bl	PRINTER_A_PutChar
 644:printer.c     ****     PRINTER_A_PutChar(LINE_FEED);
 4247              		.loc 1 644 0
 4248 0524 4F4B     		ldr	r3, .L353+8
 4249 0526 1B78     		ldrb	r3, [r3]	@ zero_extendqisi2
 4250 0528 1846     		mov	r0, r3
 4251 052a FFF7FEFF 		bl	PRINTER_A_PutChar
 4252              	.LBB109:
 645:printer.c     ****     for(uint8 x = 0; x < 13; x ++){
 4253              		.loc 1 645 0
 4254 052e 0023     		movs	r3, #0
 4255 0530 87F86130 		strb	r3, [r7, #97]
 4256 0534 0BE0     		b	.L267
 4257              	.L268:
 646:printer.c     ****         PRINTER_A_PutChar(msn_pos[x]);
 4258              		.loc 1 646 0 discriminator 3
 4259 0536 97F86130 		ldrb	r3, [r7, #97]	@ zero_extendqisi2
 4260 053a 4F4A     		ldr	r2, .L353+28
 4261 053c D35C     		ldrb	r3, [r2, r3]	@ zero_extendqisi2
 4262 053e 1846     		mov	r0, r3
 4263 0540 FFF7FEFF 		bl	PRINTER_A_PutChar
 645:printer.c     ****     for(uint8 x = 0; x < 13; x ++){
 4264              		.loc 1 645 0 discriminator 3
 4265 0544 97F86130 		ldrb	r3, [r7, #97]	@ zero_extendqisi2
 4266 0548 0133     		adds	r3, r3, #1
 4267 054a 87F86130 		strb	r3, [r7, #97]
 4268              	.L267:
 645:printer.c     ****     for(uint8 x = 0; x < 13; x ++){
 4269              		.loc 1 645 0 is_stmt 0 discriminator 1
 4270 054e 97F86130 		ldrb	r3, [r7, #97]	@ zero_extendqisi2
 4271 0552 0C2B     		cmp	r3, #12
 4272 0554 EFD9     		bls	.L268
 4273              	.LBE109:
 647:printer.c     ****     }
 648:printer.c     ****     PRINTER_A_PutChar(side.a.dir + 0x31);
 4274              		.loc 1 648 0 is_stmt 1
 4275 0556 494B     		ldr	r3, .L353+32
 4276 0558 1B78     		ldrb	r3, [r3]	@ zero_extendqisi2
 4277 055a 3133     		adds	r3, r3, #49
 4278 055c DBB2     		uxtb	r3, r3
 4279 055e 1846     		mov	r0, r3
 4280 0560 FFF7FEFF 		bl	PRINTER_A_PutChar
 649:printer.c     ****     PRINTER_A_PutChar(LINE_FEED);
 4281              		.loc 1 649 0
 4282 0564 3F4B     		ldr	r3, .L353+8
 4283 0566 1B78     		ldrb	r3, [r3]	@ zero_extendqisi2
ARM GAS  C:\Users\THERMA~1\AppData\Local\Temp\ccXswU2c.s 			page 94


 4284 0568 1846     		mov	r0, r3
 4285 056a FFF7FEFF 		bl	PRINTER_A_PutChar
 4286              	.LBB110:
 650:printer.c     **** 	for(uint8 x = 0; x < 16; x ++){
 4287              		.loc 1 650 0
 4288 056e 0023     		movs	r3, #0
 4289 0570 87F86030 		strb	r3, [r7, #96]
 4290 0574 0BE0     		b	.L269
 4291              	.L270:
 651:printer.c     **** 		PRINTER_A_PutChar(msn_lecact[x]);
 4292              		.loc 1 651 0 discriminator 3
 4293 0576 97F86030 		ldrb	r3, [r7, #96]	@ zero_extendqisi2
 4294 057a 414A     		ldr	r2, .L353+36
 4295 057c D35C     		ldrb	r3, [r2, r3]	@ zero_extendqisi2
 4296 057e 1846     		mov	r0, r3
 4297 0580 FFF7FEFF 		bl	PRINTER_A_PutChar
 650:printer.c     **** 	for(uint8 x = 0; x < 16; x ++){
 4298              		.loc 1 650 0 discriminator 3
 4299 0584 97F86030 		ldrb	r3, [r7, #96]	@ zero_extendqisi2
 4300 0588 0133     		adds	r3, r3, #1
 4301 058a 87F86030 		strb	r3, [r7, #96]
 4302              	.L269:
 650:printer.c     **** 	for(uint8 x = 0; x < 16; x ++){
 4303              		.loc 1 650 0 is_stmt 0 discriminator 1
 4304 058e 97F86030 		ldrb	r3, [r7, #96]	@ zero_extendqisi2
 4305 0592 0F2B     		cmp	r3, #15
 4306 0594 EFD9     		bls	.L270
 4307              	.LBE110:
 652:printer.c     **** 	}
 653:printer.c     **** 	PRINTER_A_PutChar(LINE_FEED);	
 4308              		.loc 1 653 0 is_stmt 1
 4309 0596 334B     		ldr	r3, .L353+8
 4310 0598 1B78     		ldrb	r3, [r3]	@ zero_extendqisi2
 4311 059a 1846     		mov	r0, r3
 4312 059c FFF7FEFF 		bl	PRINTER_A_PutChar
 4313              	.LBB111:
 654:printer.c     ****                           
 655:printer.c     ****     for(uint8 x = 0; x < 10; x ++){ 
 4314              		.loc 1 655 0
 4315 05a0 0023     		movs	r3, #0
 4316 05a2 87F85F30 		strb	r3, [r7, #95]
 4317 05a6 18E0     		b	.L271
 4318              	.L273:
 656:printer.c     ****         if((10-x) == DecVol)
 4319              		.loc 1 656 0
 4320 05a8 97F85F30 		ldrb	r3, [r7, #95]	@ zero_extendqisi2
 4321 05ac C3F10A03 		rsb	r3, r3, #10
 4322 05b0 344A     		ldr	r2, .L353+40
 4323 05b2 1278     		ldrb	r2, [r2]	@ zero_extendqisi2
 4324 05b4 9342     		cmp	r3, r2
 4325 05b6 02D1     		bne	.L272
 657:printer.c     ****             PRINTER_A_PutChar('.');
 4326              		.loc 1 657 0
 4327 05b8 2E20     		movs	r0, #46
 4328 05ba FFF7FEFF 		bl	PRINTER_A_PutChar
 4329              	.L272:
 658:printer.c     ****         PRINTER_A_PutChar(side.a.ProcessedTotals[0][0][x]);
ARM GAS  C:\Users\THERMA~1\AppData\Local\Temp\ccXswU2c.s 			page 95


 4330              		.loc 1 658 0 discriminator 2
 4331 05be 97F85F30 		ldrb	r3, [r7, #95]	@ zero_extendqisi2
 4332 05c2 2E4A     		ldr	r2, .L353+32
 4333 05c4 1344     		add	r3, r3, r2
 4334 05c6 93F88330 		ldrb	r3, [r3, #131]	@ zero_extendqisi2
 4335 05ca 1846     		mov	r0, r3
 4336 05cc FFF7FEFF 		bl	PRINTER_A_PutChar
 655:printer.c     ****         if((10-x) == DecVol)
 4337              		.loc 1 655 0 discriminator 2
 4338 05d0 97F85F30 		ldrb	r3, [r7, #95]	@ zero_extendqisi2
 4339 05d4 0133     		adds	r3, r3, #1
 4340 05d6 87F85F30 		strb	r3, [r7, #95]
 4341              	.L271:
 655:printer.c     ****         if((10-x) == DecVol)
 4342              		.loc 1 655 0 is_stmt 0 discriminator 1
 4343 05da 97F85F30 		ldrb	r3, [r7, #95]	@ zero_extendqisi2
 4344 05de 092B     		cmp	r3, #9
 4345 05e0 E2D9     		bls	.L273
 4346              	.LBE111:
 659:printer.c     ****     }
 660:printer.c     ****     PRINTER_A_PutChar(LINE_FEED);
 4347              		.loc 1 660 0 is_stmt 1
 4348 05e2 204B     		ldr	r3, .L353+8
 4349 05e4 1B78     		ldrb	r3, [r3]	@ zero_extendqisi2
 4350 05e6 1846     		mov	r0, r3
 4351 05e8 FFF7FEFF 		bl	PRINTER_A_PutChar
 4352              	.LBB112:
 661:printer.c     ****     for(uint8 x = 0; x < 10; x++){
 4353              		.loc 1 661 0
 4354 05ec 0023     		movs	r3, #0
 4355 05ee 87F85E30 		strb	r3, [r7, #94]
 4356 05f2 10E0     		b	.L274
 4357              	.L277:
 662:printer.c     ****         pos = x;
 4358              		.loc 1 662 0
 4359 05f4 97F85E30 		ldrb	r3, [r7, #94]
 4360 05f8 87F86E30 		strb	r3, [r7, #110]
 663:printer.c     ****         if(side.a.ProcessedTotals[0][0][x] != 0x00 )
 4361              		.loc 1 663 0
 4362 05fc 97F85E30 		ldrb	r3, [r7, #94]	@ zero_extendqisi2
 4363 0600 1E4A     		ldr	r2, .L353+32
 4364 0602 1344     		add	r3, r3, r2
 4365 0604 93F88330 		ldrb	r3, [r3, #131]	@ zero_extendqisi2
 4366 0608 002B     		cmp	r3, #0
 4367 060a 09D1     		bne	.L350
 661:printer.c     ****     for(uint8 x = 0; x < 10; x++){
 4368              		.loc 1 661 0 discriminator 2
 4369 060c 97F85E30 		ldrb	r3, [r7, #94]	@ zero_extendqisi2
 4370 0610 0133     		adds	r3, r3, #1
 4371 0612 87F85E30 		strb	r3, [r7, #94]
 4372              	.L274:
 661:printer.c     ****     for(uint8 x = 0; x < 10; x++){
 4373              		.loc 1 661 0 is_stmt 0 discriminator 1
 4374 0616 97F85E30 		ldrb	r3, [r7, #94]	@ zero_extendqisi2
 4375 061a 092B     		cmp	r3, #9
 4376 061c EAD9     		bls	.L277
 4377 061e 00E0     		b	.L276
ARM GAS  C:\Users\THERMA~1\AppData\Local\Temp\ccXswU2c.s 			page 96


 4378              	.L350:
 664:printer.c     ****             break;
 4379              		.loc 1 664 0 is_stmt 1
 4380 0620 00BF     		nop
 4381              	.L276:
 4382              	.LBE112:
 4383              	.LBB113:
 665:printer.c     ****     }
 666:printer.c     **** 	for(uint8 x = 0; x < 16; x ++){
 4384              		.loc 1 666 0
 4385 0622 0023     		movs	r3, #0
 4386 0624 87F85D30 		strb	r3, [r7, #93]
 4387 0628 0BE0     		b	.L278
 4388              	.L279:
 667:printer.c     **** 		PRINTER_A_PutChar(msn_lecaan[x]);
 4389              		.loc 1 667 0 discriminator 3
 4390 062a 97F85D30 		ldrb	r3, [r7, #93]	@ zero_extendqisi2
 4391 062e 164A     		ldr	r2, .L353+44
 4392 0630 D35C     		ldrb	r3, [r2, r3]	@ zero_extendqisi2
 4393 0632 1846     		mov	r0, r3
 4394 0634 FFF7FEFF 		bl	PRINTER_A_PutChar
 666:printer.c     **** 		PRINTER_A_PutChar(msn_lecaan[x]);
 4395              		.loc 1 666 0 discriminator 3
 4396 0638 97F85D30 		ldrb	r3, [r7, #93]	@ zero_extendqisi2
 4397 063c 0133     		adds	r3, r3, #1
 4398 063e 87F85D30 		strb	r3, [r7, #93]
 4399              	.L278:
 666:printer.c     **** 		PRINTER_A_PutChar(msn_lecaan[x]);
 4400              		.loc 1 666 0 is_stmt 0 discriminator 1
 4401 0642 97F85D30 		ldrb	r3, [r7, #93]	@ zero_extendqisi2
 4402 0646 0F2B     		cmp	r3, #15
 4403 0648 EFD9     		bls	.L279
 4404              	.LBE113:
 668:printer.c     **** 	}
 669:printer.c     ****     PRINTER_A_PutChar(LINE_FEED);
 4405              		.loc 1 669 0 is_stmt 1
 4406 064a 064B     		ldr	r3, .L353+8
 4407 064c 1B78     		ldrb	r3, [r3]	@ zero_extendqisi2
 4408 064e 1846     		mov	r0, r3
 4409 0650 FFF7FEFF 		bl	PRINTER_A_PutChar
 4410              	.LBB114:
 670:printer.c     ****     for(uint8 x = 0; x < 10; x ++){
 4411              		.loc 1 670 0
 4412 0654 0023     		movs	r3, #0
 4413 0656 87F85C30 		strb	r3, [r7, #92]
 4414 065a 2DE0     		b	.L280
 4415              	.L354:
 4416              		.align	2
 4417              	.L353:
 4418 065c 00000000 		.word	msn_fecha
 4419 0660 00000000 		.word	touch1
 4420 0664 00000000 		.word	LINE_FEED
 4421 0668 00000000 		.word	msn_hora
 4422 066c 00000000 		.word	SEPARATOR
 4423 0670 00000000 		.word	msn_cierre
 4424 0674 00000000 		.word	shift_number
 4425 0678 00000000 		.word	msn_pos
ARM GAS  C:\Users\THERMA~1\AppData\Local\Temp\ccXswU2c.s 			page 97


 4426 067c 00000000 		.word	side
 4427 0680 00000000 		.word	msn_lecact
 4428 0684 00000000 		.word	DecVol
 4429 0688 00000000 		.word	msn_lecaan
 4430              	.L281:
 671:printer.c     ****         memoria[x] = EEPROM_1_ReadByte(36+x);
 4431              		.loc 1 671 0 discriminator 3
 4432 068c 97F85C40 		ldrb	r4, [r7, #92]	@ zero_extendqisi2
 4433 0690 97F85C30 		ldrb	r3, [r7, #92]	@ zero_extendqisi2
 4434 0694 9BB2     		uxth	r3, r3
 4435 0696 2433     		adds	r3, r3, #36
 4436 0698 9BB2     		uxth	r3, r3
 4437 069a 1846     		mov	r0, r3
 4438 069c FFF7FEFF 		bl	EEPROM_1_ReadByte
 4439 06a0 0346     		mov	r3, r0
 4440 06a2 1A46     		mov	r2, r3
 4441 06a4 07F17003 		add	r3, r7, #112
 4442 06a8 2344     		add	r3, r3, r4
 4443 06aa 03F8642C 		strb	r2, [r3, #-100]
 670:printer.c     ****     for(uint8 x = 0; x < 10; x ++){
 4444              		.loc 1 670 0 discriminator 3
 4445 06ae 97F85C30 		ldrb	r3, [r7, #92]	@ zero_extendqisi2
 4446 06b2 0133     		adds	r3, r3, #1
 4447 06b4 87F85C30 		strb	r3, [r7, #92]
 4448              	.L280:
 670:printer.c     ****     for(uint8 x = 0; x < 10; x ++){
 4449              		.loc 1 670 0 is_stmt 0 discriminator 1
 4450 06b8 97F85C30 		ldrb	r3, [r7, #92]	@ zero_extendqisi2
 4451 06bc 092B     		cmp	r3, #9
 4452 06be E5D9     		bls	.L281
 4453              	.LBE114:
 4454              	.LBB115:
 672:printer.c     ****     }
 673:printer.c     ****     for(uint8 x = 0; x < 10; x ++){ 
 4455              		.loc 1 673 0 is_stmt 1
 4456 06c0 0023     		movs	r3, #0
 4457 06c2 87F85B30 		strb	r3, [r7, #91]
 4458 06c6 19E0     		b	.L282
 4459              	.L284:
 674:printer.c     ****         if((10-x) == DecVol)
 4460              		.loc 1 674 0
 4461 06c8 97F85B30 		ldrb	r3, [r7, #91]	@ zero_extendqisi2
 4462 06cc C3F10A03 		rsb	r3, r3, #10
 4463 06d0 C44A     		ldr	r2, .L355
 4464 06d2 1278     		ldrb	r2, [r2]	@ zero_extendqisi2
 4465 06d4 9342     		cmp	r3, r2
 4466 06d6 02D1     		bne	.L283
 675:printer.c     ****             PRINTER_A_PutChar('.');
 4467              		.loc 1 675 0
 4468 06d8 2E20     		movs	r0, #46
 4469 06da FFF7FEFF 		bl	PRINTER_A_PutChar
 4470              	.L283:
 676:printer.c     ****         PRINTER_A_PutChar(memoria[x]);
 4471              		.loc 1 676 0 discriminator 2
 4472 06de 97F85B30 		ldrb	r3, [r7, #91]	@ zero_extendqisi2
 4473 06e2 07F17002 		add	r2, r7, #112
 4474 06e6 1344     		add	r3, r3, r2
ARM GAS  C:\Users\THERMA~1\AppData\Local\Temp\ccXswU2c.s 			page 98


 4475 06e8 13F8643C 		ldrb	r3, [r3, #-100]	@ zero_extendqisi2
 4476 06ec 1846     		mov	r0, r3
 4477 06ee FFF7FEFF 		bl	PRINTER_A_PutChar
 673:printer.c     ****         if((10-x) == DecVol)
 4478              		.loc 1 673 0 discriminator 2
 4479 06f2 97F85B30 		ldrb	r3, [r7, #91]	@ zero_extendqisi2
 4480 06f6 0133     		adds	r3, r3, #1
 4481 06f8 87F85B30 		strb	r3, [r7, #91]
 4482              	.L282:
 673:printer.c     ****         if((10-x) == DecVol)
 4483              		.loc 1 673 0 is_stmt 0 discriminator 1
 4484 06fc 97F85B30 		ldrb	r3, [r7, #91]	@ zero_extendqisi2
 4485 0700 092B     		cmp	r3, #9
 4486 0702 E1D9     		bls	.L284
 4487              	.LBE115:
 677:printer.c     ****     }
 678:printer.c     ****     PRINTER_A_PutChar(LINE_FEED);
 4488              		.loc 1 678 0 is_stmt 1
 4489 0704 B84B     		ldr	r3, .L355+4
 4490 0706 1B78     		ldrb	r3, [r3]	@ zero_extendqisi2
 4491 0708 1846     		mov	r0, r3
 4492 070a FFF7FEFF 		bl	PRINTER_A_PutChar
 4493              	.LBB116:
 679:printer.c     ****     
 680:printer.c     ****     for(uint8 x = pos; x < 10; x++ ){
 4494              		.loc 1 680 0
 4495 070e 97F86E30 		ldrb	r3, [r7, #110]
 4496 0712 87F85A30 		strb	r3, [r7, #90]
 4497 0716 2DE0     		b	.L285
 4498              	.L286:
 681:printer.c     ****         lectactual[x-pos] = side.a.ProcessedTotals[0][0][x];
 4499              		.loc 1 681 0 discriminator 3
 4500 0718 97F85A20 		ldrb	r2, [r7, #90]	@ zero_extendqisi2
 4501 071c 97F86E30 		ldrb	r3, [r7, #110]	@ zero_extendqisi2
 4502 0720 D31A     		subs	r3, r2, r3
 4503 0722 97F85A20 		ldrb	r2, [r7, #90]	@ zero_extendqisi2
 4504 0726 B149     		ldr	r1, .L355+8
 4505 0728 0A44     		add	r2, r2, r1
 4506 072a 92F88320 		ldrb	r2, [r2, #131]	@ zero_extendqisi2
 4507 072e 07F17001 		add	r1, r7, #112
 4508 0732 0B44     		add	r3, r3, r1
 4509 0734 03F8582C 		strb	r2, [r3, #-88]
 682:printer.c     ****         lectanterior[x-pos] = memoria[x];
 4510              		.loc 1 682 0 discriminator 3
 4511 0738 97F85A20 		ldrb	r2, [r7, #90]	@ zero_extendqisi2
 4512 073c 97F86E30 		ldrb	r3, [r7, #110]	@ zero_extendqisi2
 4513 0740 D31A     		subs	r3, r2, r3
 4514 0742 97F85A20 		ldrb	r2, [r7, #90]	@ zero_extendqisi2
 4515 0746 07F17001 		add	r1, r7, #112
 4516 074a 0A44     		add	r2, r2, r1
 4517 074c 12F8642C 		ldrb	r2, [r2, #-100]	@ zero_extendqisi2
 4518 0750 07F17001 		add	r1, r7, #112
 4519 0754 0B44     		add	r3, r3, r1
 4520 0756 03F84C2C 		strb	r2, [r3, #-76]
 683:printer.c     ****         resultado[x] = 0x00;
 4521              		.loc 1 683 0 discriminator 3
 4522 075a 97F85A30 		ldrb	r3, [r7, #90]	@ zero_extendqisi2
ARM GAS  C:\Users\THERMA~1\AppData\Local\Temp\ccXswU2c.s 			page 99


 4523 075e 07F17002 		add	r2, r7, #112
 4524 0762 1344     		add	r3, r3, r2
 4525 0764 0022     		movs	r2, #0
 4526 0766 03F8702C 		strb	r2, [r3, #-112]
 680:printer.c     ****         lectactual[x-pos] = side.a.ProcessedTotals[0][0][x];
 4527              		.loc 1 680 0 discriminator 3
 4528 076a 97F85A30 		ldrb	r3, [r7, #90]	@ zero_extendqisi2
 4529 076e 0133     		adds	r3, r3, #1
 4530 0770 87F85A30 		strb	r3, [r7, #90]
 4531              	.L285:
 680:printer.c     ****         lectactual[x-pos] = side.a.ProcessedTotals[0][0][x];
 4532              		.loc 1 680 0 is_stmt 0 discriminator 1
 4533 0774 97F85A30 		ldrb	r3, [r7, #90]	@ zero_extendqisi2
 4534 0778 092B     		cmp	r3, #9
 4535 077a CDD9     		bls	.L286
 4536              	.LBE116:
 684:printer.c     ****     }
 685:printer.c     ****     
 686:printer.c     ****     anterior = atoi(lectanterior);
 4537              		.loc 1 686 0 is_stmt 1
 4538 077c 07F12403 		add	r3, r7, #36
 4539 0780 1846     		mov	r0, r3
 4540 0782 FFF7FEFF 		bl	atoi
 4541 0786 0346     		mov	r3, r0
 4542 0788 BB63     		str	r3, [r7, #56]
 687:printer.c     ****     actual = atoi(lectactual);
 4543              		.loc 1 687 0
 4544 078a 07F11803 		add	r3, r7, #24
 4545 078e 1846     		mov	r0, r3
 4546 0790 FFF7FEFF 		bl	atoi
 4547 0794 0346     		mov	r3, r0
 4548 0796 7B63     		str	r3, [r7, #52]
 688:printer.c     ****     resta =  actual - anterior;
 4549              		.loc 1 688 0
 4550 0798 7A6B     		ldr	r2, [r7, #52]
 4551 079a BB6B     		ldr	r3, [r7, #56]
 4552 079c D31A     		subs	r3, r2, r3
 4553 079e 3B63     		str	r3, [r7, #48]
 689:printer.c     ****     itoa(resta,resultado,10);
 4554              		.loc 1 689 0
 4555 07a0 3B6B     		ldr	r3, [r7, #48]
 4556 07a2 3946     		mov	r1, r7
 4557 07a4 0A22     		movs	r2, #10
 4558 07a6 1846     		mov	r0, r3
 4559 07a8 FFF7FEFF 		bl	itoa
 4560              	.LBB117:
 690:printer.c     ****     
 691:printer.c     ****     for(uint8 x = 0; x < 18; x ++){
 4561              		.loc 1 691 0
 4562 07ac 0023     		movs	r3, #0
 4563 07ae 87F85930 		strb	r3, [r7, #89]
 4564 07b2 0BE0     		b	.L287
 4565              	.L288:
 692:printer.c     ****         PRINTER_A_PutChar(msn_dif[x]);
 4566              		.loc 1 692 0 discriminator 3
 4567 07b4 97F85930 		ldrb	r3, [r7, #89]	@ zero_extendqisi2
 4568 07b8 8D4A     		ldr	r2, .L355+12
ARM GAS  C:\Users\THERMA~1\AppData\Local\Temp\ccXswU2c.s 			page 100


 4569 07ba D35C     		ldrb	r3, [r2, r3]	@ zero_extendqisi2
 4570 07bc 1846     		mov	r0, r3
 4571 07be FFF7FEFF 		bl	PRINTER_A_PutChar
 691:printer.c     ****         PRINTER_A_PutChar(msn_dif[x]);
 4572              		.loc 1 691 0 discriminator 3
 4573 07c2 97F85930 		ldrb	r3, [r7, #89]	@ zero_extendqisi2
 4574 07c6 0133     		adds	r3, r3, #1
 4575 07c8 87F85930 		strb	r3, [r7, #89]
 4576              	.L287:
 691:printer.c     ****         PRINTER_A_PutChar(msn_dif[x]);
 4577              		.loc 1 691 0 is_stmt 0 discriminator 1
 4578 07cc 97F85930 		ldrb	r3, [r7, #89]	@ zero_extendqisi2
 4579 07d0 112B     		cmp	r3, #17
 4580 07d2 EFD9     		bls	.L288
 4581              	.LBE117:
 693:printer.c     ****     }
 694:printer.c     ****     PRINTER_A_PutChar(LINE_FEED);
 4582              		.loc 1 694 0 is_stmt 1
 4583 07d4 844B     		ldr	r3, .L355+4
 4584 07d6 1B78     		ldrb	r3, [r3]	@ zero_extendqisi2
 4585 07d8 1846     		mov	r0, r3
 4586 07da FFF7FEFF 		bl	PRINTER_A_PutChar
 4587              	.LBB118:
 695:printer.c     ****     for(uint8 x = 0; x < 10; x ++){
 4588              		.loc 1 695 0
 4589 07de 0023     		movs	r3, #0
 4590 07e0 87F85830 		strb	r3, [r7, #88]
 4591 07e4 19E0     		b	.L289
 4592              	.L291:
 696:printer.c     ****         if((10-x) == DecVol)
 4593              		.loc 1 696 0
 4594 07e6 97F85830 		ldrb	r3, [r7, #88]	@ zero_extendqisi2
 4595 07ea C3F10A03 		rsb	r3, r3, #10
 4596 07ee 7D4A     		ldr	r2, .L355
 4597 07f0 1278     		ldrb	r2, [r2]	@ zero_extendqisi2
 4598 07f2 9342     		cmp	r3, r2
 4599 07f4 02D1     		bne	.L290
 697:printer.c     ****             PRINTER_A_PutChar('.');
 4600              		.loc 1 697 0
 4601 07f6 2E20     		movs	r0, #46
 4602 07f8 FFF7FEFF 		bl	PRINTER_A_PutChar
 4603              	.L290:
 698:printer.c     ****         PRINTER_A_PutChar(resultado[x]);
 4604              		.loc 1 698 0 discriminator 2
 4605 07fc 97F85830 		ldrb	r3, [r7, #88]	@ zero_extendqisi2
 4606 0800 07F17002 		add	r2, r7, #112
 4607 0804 1344     		add	r3, r3, r2
 4608 0806 13F8703C 		ldrb	r3, [r3, #-112]	@ zero_extendqisi2
 4609 080a 1846     		mov	r0, r3
 4610 080c FFF7FEFF 		bl	PRINTER_A_PutChar
 695:printer.c     ****         if((10-x) == DecVol)
 4611              		.loc 1 695 0 discriminator 2
 4612 0810 97F85830 		ldrb	r3, [r7, #88]	@ zero_extendqisi2
 4613 0814 0133     		adds	r3, r3, #1
 4614 0816 87F85830 		strb	r3, [r7, #88]
 4615              	.L289:
 695:printer.c     ****         if((10-x) == DecVol)
ARM GAS  C:\Users\THERMA~1\AppData\Local\Temp\ccXswU2c.s 			page 101


 4616              		.loc 1 695 0 is_stmt 0 discriminator 1
 4617 081a 97F85830 		ldrb	r3, [r7, #88]	@ zero_extendqisi2
 4618 081e 092B     		cmp	r3, #9
 4619 0820 E1D9     		bls	.L291
 4620              	.LBE118:
 699:printer.c     ****     }
 700:printer.c     ****     PRINTER_A_PutChar(LINE_FEED);
 4621              		.loc 1 700 0 is_stmt 1
 4622 0822 714B     		ldr	r3, .L355+4
 4623 0824 1B78     		ldrb	r3, [r3]	@ zero_extendqisi2
 4624 0826 1846     		mov	r0, r3
 4625 0828 FFF7FEFF 		bl	PRINTER_A_PutChar
 4626              	.LBB119:
 701:printer.c     ****     for(uint8 x = 0; x < 32; x ++){
 4627              		.loc 1 701 0
 4628 082c 0023     		movs	r3, #0
 4629 082e 87F85730 		strb	r3, [r7, #87]
 4630 0832 0BE0     		b	.L292
 4631              	.L293:
 702:printer.c     ****         PRINTER_A_PutChar(SEPARATOR[x]);
 4632              		.loc 1 702 0 discriminator 3
 4633 0834 97F85730 		ldrb	r3, [r7, #87]	@ zero_extendqisi2
 4634 0838 6E4A     		ldr	r2, .L355+16
 4635 083a D35C     		ldrb	r3, [r2, r3]	@ zero_extendqisi2
 4636 083c 1846     		mov	r0, r3
 4637 083e FFF7FEFF 		bl	PRINTER_A_PutChar
 701:printer.c     ****     for(uint8 x = 0; x < 32; x ++){
 4638              		.loc 1 701 0 discriminator 3
 4639 0842 97F85730 		ldrb	r3, [r7, #87]	@ zero_extendqisi2
 4640 0846 0133     		adds	r3, r3, #1
 4641 0848 87F85730 		strb	r3, [r7, #87]
 4642              	.L292:
 701:printer.c     ****     for(uint8 x = 0; x < 32; x ++){
 4643              		.loc 1 701 0 is_stmt 0 discriminator 1
 4644 084c 97F85730 		ldrb	r3, [r7, #87]	@ zero_extendqisi2
 4645 0850 1F2B     		cmp	r3, #31
 4646 0852 EFD9     		bls	.L293
 4647              	.LBE119:
 703:printer.c     ****     }  
 704:printer.c     ****     PRINTER_A_PutChar(LINE_FEED);
 4648              		.loc 1 704 0 is_stmt 1
 4649 0854 644B     		ldr	r3, .L355+4
 4650 0856 1B78     		ldrb	r3, [r3]	@ zero_extendqisi2
 4651 0858 1846     		mov	r0, r3
 4652 085a FFF7FEFF 		bl	PRINTER_A_PutChar
 4653              	.LBB120:
 705:printer.c     ****     for(uint8 x = 0; x < 13; x ++){
 4654              		.loc 1 705 0
 4655 085e 0023     		movs	r3, #0
 4656 0860 87F85630 		strb	r3, [r7, #86]
 4657 0864 0BE0     		b	.L294
 4658              	.L295:
 706:printer.c     ****         PRINTER_A_PutChar(msn_pos[x]);
 4659              		.loc 1 706 0 discriminator 3
 4660 0866 97F85630 		ldrb	r3, [r7, #86]	@ zero_extendqisi2
 4661 086a 634A     		ldr	r2, .L355+20
 4662 086c D35C     		ldrb	r3, [r2, r3]	@ zero_extendqisi2
ARM GAS  C:\Users\THERMA~1\AppData\Local\Temp\ccXswU2c.s 			page 102


 4663 086e 1846     		mov	r0, r3
 4664 0870 FFF7FEFF 		bl	PRINTER_A_PutChar
 705:printer.c     ****     for(uint8 x = 0; x < 13; x ++){
 4665              		.loc 1 705 0 discriminator 3
 4666 0874 97F85630 		ldrb	r3, [r7, #86]	@ zero_extendqisi2
 4667 0878 0133     		adds	r3, r3, #1
 4668 087a 87F85630 		strb	r3, [r7, #86]
 4669              	.L294:
 705:printer.c     ****     for(uint8 x = 0; x < 13; x ++){
 4670              		.loc 1 705 0 is_stmt 0 discriminator 1
 4671 087e 97F85630 		ldrb	r3, [r7, #86]	@ zero_extendqisi2
 4672 0882 0C2B     		cmp	r3, #12
 4673 0884 EFD9     		bls	.L295
 4674              	.LBE120:
 707:printer.c     ****     }
 708:printer.c     ****     PRINTER_A_PutChar(side.b.dir + 0x31);
 4675              		.loc 1 708 0 is_stmt 1
 4676 0886 594B     		ldr	r3, .L355+8
 4677 0888 93F83531 		ldrb	r3, [r3, #309]	@ zero_extendqisi2
 4678 088c 3133     		adds	r3, r3, #49
 4679 088e DBB2     		uxtb	r3, r3
 4680 0890 1846     		mov	r0, r3
 4681 0892 FFF7FEFF 		bl	PRINTER_A_PutChar
 709:printer.c     ****     PRINTER_A_PutChar(LINE_FEED);
 4682              		.loc 1 709 0
 4683 0896 544B     		ldr	r3, .L355+4
 4684 0898 1B78     		ldrb	r3, [r3]	@ zero_extendqisi2
 4685 089a 1846     		mov	r0, r3
 4686 089c FFF7FEFF 		bl	PRINTER_A_PutChar
 4687              	.LBB121:
 710:printer.c     ****     for(uint8 x = 0; x < 16; x ++){
 4688              		.loc 1 710 0
 4689 08a0 0023     		movs	r3, #0
 4690 08a2 87F85530 		strb	r3, [r7, #85]
 4691 08a6 0BE0     		b	.L296
 4692              	.L297:
 711:printer.c     **** 		PRINTER_A_PutChar(msn_lecact[x]);
 4693              		.loc 1 711 0 discriminator 3
 4694 08a8 97F85530 		ldrb	r3, [r7, #85]	@ zero_extendqisi2
 4695 08ac 534A     		ldr	r2, .L355+24
 4696 08ae D35C     		ldrb	r3, [r2, r3]	@ zero_extendqisi2
 4697 08b0 1846     		mov	r0, r3
 4698 08b2 FFF7FEFF 		bl	PRINTER_A_PutChar
 710:printer.c     ****     for(uint8 x = 0; x < 16; x ++){
 4699              		.loc 1 710 0 discriminator 3
 4700 08b6 97F85530 		ldrb	r3, [r7, #85]	@ zero_extendqisi2
 4701 08ba 0133     		adds	r3, r3, #1
 4702 08bc 87F85530 		strb	r3, [r7, #85]
 4703              	.L296:
 710:printer.c     ****     for(uint8 x = 0; x < 16; x ++){
 4704              		.loc 1 710 0 is_stmt 0 discriminator 1
 4705 08c0 97F85530 		ldrb	r3, [r7, #85]	@ zero_extendqisi2
 4706 08c4 0F2B     		cmp	r3, #15
 4707 08c6 EFD9     		bls	.L297
 4708              	.LBE121:
 712:printer.c     **** 	}
 713:printer.c     **** 	PRINTER_A_PutChar(LINE_FEED);
ARM GAS  C:\Users\THERMA~1\AppData\Local\Temp\ccXswU2c.s 			page 103


 4709              		.loc 1 713 0 is_stmt 1
 4710 08c8 474B     		ldr	r3, .L355+4
 4711 08ca 1B78     		ldrb	r3, [r3]	@ zero_extendqisi2
 4712 08cc 1846     		mov	r0, r3
 4713 08ce FFF7FEFF 		bl	PRINTER_A_PutChar
 4714              	.LBB122:
 714:printer.c     ****     for(uint8 x = 0; x < 10; x ++){ 
 4715              		.loc 1 714 0
 4716 08d2 0023     		movs	r3, #0
 4717 08d4 87F85430 		strb	r3, [r7, #84]
 4718 08d8 18E0     		b	.L298
 4719              	.L300:
 715:printer.c     ****         if((10-x) == DecVol)
 4720              		.loc 1 715 0
 4721 08da 97F85430 		ldrb	r3, [r7, #84]	@ zero_extendqisi2
 4722 08de C3F10A03 		rsb	r3, r3, #10
 4723 08e2 404A     		ldr	r2, .L355
 4724 08e4 1278     		ldrb	r2, [r2]	@ zero_extendqisi2
 4725 08e6 9342     		cmp	r3, r2
 4726 08e8 02D1     		bne	.L299
 716:printer.c     ****             PRINTER_A_PutChar('.');
 4727              		.loc 1 716 0
 4728 08ea 2E20     		movs	r0, #46
 4729 08ec FFF7FEFF 		bl	PRINTER_A_PutChar
 4730              	.L299:
 717:printer.c     ****         PRINTER_A_PutChar(side.b.ProcessedTotals[0][0][x]);
 4731              		.loc 1 717 0 discriminator 2
 4732 08f0 97F85430 		ldrb	r3, [r7, #84]	@ zero_extendqisi2
 4733 08f4 3D4A     		ldr	r2, .L355+8
 4734 08f6 1344     		add	r3, r3, r2
 4735 08f8 93F8B831 		ldrb	r3, [r3, #440]	@ zero_extendqisi2
 4736 08fc 1846     		mov	r0, r3
 4737 08fe FFF7FEFF 		bl	PRINTER_A_PutChar
 714:printer.c     ****         if((10-x) == DecVol)
 4738              		.loc 1 714 0 discriminator 2
 4739 0902 97F85430 		ldrb	r3, [r7, #84]	@ zero_extendqisi2
 4740 0906 0133     		adds	r3, r3, #1
 4741 0908 87F85430 		strb	r3, [r7, #84]
 4742              	.L298:
 714:printer.c     ****         if((10-x) == DecVol)
 4743              		.loc 1 714 0 is_stmt 0 discriminator 1
 4744 090c 97F85430 		ldrb	r3, [r7, #84]	@ zero_extendqisi2
 4745 0910 092B     		cmp	r3, #9
 4746 0912 E2D9     		bls	.L300
 4747              	.LBE122:
 718:printer.c     ****     }
 719:printer.c     ****     PRINTER_A_PutChar(LINE_FEED);
 4748              		.loc 1 719 0 is_stmt 1
 4749 0914 344B     		ldr	r3, .L355+4
 4750 0916 1B78     		ldrb	r3, [r3]	@ zero_extendqisi2
 4751 0918 1846     		mov	r0, r3
 4752 091a FFF7FEFF 		bl	PRINTER_A_PutChar
 4753              	.LBB123:
 720:printer.c     **** 	for(uint8 x = 0; x < 16; x ++){
 4754              		.loc 1 720 0
 4755 091e 0023     		movs	r3, #0
 4756 0920 87F85330 		strb	r3, [r7, #83]
ARM GAS  C:\Users\THERMA~1\AppData\Local\Temp\ccXswU2c.s 			page 104


 4757 0924 0BE0     		b	.L301
 4758              	.L302:
 721:printer.c     **** 		PRINTER_A_PutChar(msn_lecaan[x]);
 4759              		.loc 1 721 0 discriminator 3
 4760 0926 97F85330 		ldrb	r3, [r7, #83]	@ zero_extendqisi2
 4761 092a 354A     		ldr	r2, .L355+28
 4762 092c D35C     		ldrb	r3, [r2, r3]	@ zero_extendqisi2
 4763 092e 1846     		mov	r0, r3
 4764 0930 FFF7FEFF 		bl	PRINTER_A_PutChar
 720:printer.c     **** 	for(uint8 x = 0; x < 16; x ++){
 4765              		.loc 1 720 0 discriminator 3
 4766 0934 97F85330 		ldrb	r3, [r7, #83]	@ zero_extendqisi2
 4767 0938 0133     		adds	r3, r3, #1
 4768 093a 87F85330 		strb	r3, [r7, #83]
 4769              	.L301:
 720:printer.c     **** 	for(uint8 x = 0; x < 16; x ++){
 4770              		.loc 1 720 0 is_stmt 0 discriminator 1
 4771 093e 97F85330 		ldrb	r3, [r7, #83]	@ zero_extendqisi2
 4772 0942 0F2B     		cmp	r3, #15
 4773 0944 EFD9     		bls	.L302
 4774              	.LBE123:
 722:printer.c     **** 	}
 723:printer.c     ****     PRINTER_A_PutChar(LINE_FEED);
 4775              		.loc 1 723 0 is_stmt 1
 4776 0946 284B     		ldr	r3, .L355+4
 4777 0948 1B78     		ldrb	r3, [r3]	@ zero_extendqisi2
 4778 094a 1846     		mov	r0, r3
 4779 094c FFF7FEFF 		bl	PRINTER_A_PutChar
 4780              	.LBB124:
 724:printer.c     ****     for(uint8 x = 0; x < 10; x ++){
 4781              		.loc 1 724 0
 4782 0950 0023     		movs	r3, #0
 4783 0952 87F85230 		strb	r3, [r7, #82]
 4784 0956 15E0     		b	.L303
 4785              	.L304:
 725:printer.c     ****         memoria[x] = EEPROM_1_ReadByte(46+x);
 4786              		.loc 1 725 0 discriminator 3
 4787 0958 97F85240 		ldrb	r4, [r7, #82]	@ zero_extendqisi2
 4788 095c 97F85230 		ldrb	r3, [r7, #82]	@ zero_extendqisi2
 4789 0960 9BB2     		uxth	r3, r3
 4790 0962 2E33     		adds	r3, r3, #46
 4791 0964 9BB2     		uxth	r3, r3
 4792 0966 1846     		mov	r0, r3
 4793 0968 FFF7FEFF 		bl	EEPROM_1_ReadByte
 4794 096c 0346     		mov	r3, r0
 4795 096e 1A46     		mov	r2, r3
 4796 0970 07F17003 		add	r3, r7, #112
 4797 0974 2344     		add	r3, r3, r4
 4798 0976 03F8642C 		strb	r2, [r3, #-100]
 724:printer.c     ****     for(uint8 x = 0; x < 10; x ++){
 4799              		.loc 1 724 0 discriminator 3
 4800 097a 97F85230 		ldrb	r3, [r7, #82]	@ zero_extendqisi2
 4801 097e 0133     		adds	r3, r3, #1
 4802 0980 87F85230 		strb	r3, [r7, #82]
 4803              	.L303:
 724:printer.c     ****     for(uint8 x = 0; x < 10; x ++){
 4804              		.loc 1 724 0 is_stmt 0 discriminator 1
ARM GAS  C:\Users\THERMA~1\AppData\Local\Temp\ccXswU2c.s 			page 105


 4805 0984 97F85230 		ldrb	r3, [r7, #82]	@ zero_extendqisi2
 4806 0988 092B     		cmp	r3, #9
 4807 098a E5D9     		bls	.L304
 4808              	.LBE124:
 4809              	.LBB125:
 726:printer.c     ****     }
 727:printer.c     ****     for(uint8 x = 0; x < 10; x ++){ 
 4810              		.loc 1 727 0 is_stmt 1
 4811 098c 0023     		movs	r3, #0
 4812 098e 87F85130 		strb	r3, [r7, #81]
 4813 0992 19E0     		b	.L305
 4814              	.L307:
 728:printer.c     ****         if((10-x) == DecVol)
 4815              		.loc 1 728 0
 4816 0994 97F85130 		ldrb	r3, [r7, #81]	@ zero_extendqisi2
 4817 0998 C3F10A03 		rsb	r3, r3, #10
 4818 099c 114A     		ldr	r2, .L355
 4819 099e 1278     		ldrb	r2, [r2]	@ zero_extendqisi2
 4820 09a0 9342     		cmp	r3, r2
 4821 09a2 02D1     		bne	.L306
 729:printer.c     ****             PRINTER_A_PutChar('.');
 4822              		.loc 1 729 0
 4823 09a4 2E20     		movs	r0, #46
 4824 09a6 FFF7FEFF 		bl	PRINTER_A_PutChar
 4825              	.L306:
 730:printer.c     ****         PRINTER_A_PutChar(memoria[x]);
 4826              		.loc 1 730 0 discriminator 2
 4827 09aa 97F85130 		ldrb	r3, [r7, #81]	@ zero_extendqisi2
 4828 09ae 07F17002 		add	r2, r7, #112
 4829 09b2 1344     		add	r3, r3, r2
 4830 09b4 13F8643C 		ldrb	r3, [r3, #-100]	@ zero_extendqisi2
 4831 09b8 1846     		mov	r0, r3
 4832 09ba FFF7FEFF 		bl	PRINTER_A_PutChar
 727:printer.c     ****         if((10-x) == DecVol)
 4833              		.loc 1 727 0 discriminator 2
 4834 09be 97F85130 		ldrb	r3, [r7, #81]	@ zero_extendqisi2
 4835 09c2 0133     		adds	r3, r3, #1
 4836 09c4 87F85130 		strb	r3, [r7, #81]
 4837              	.L305:
 727:printer.c     ****         if((10-x) == DecVol)
 4838              		.loc 1 727 0 is_stmt 0 discriminator 1
 4839 09c8 97F85130 		ldrb	r3, [r7, #81]	@ zero_extendqisi2
 4840 09cc 092B     		cmp	r3, #9
 4841 09ce E1D9     		bls	.L307
 4842              	.LBE125:
 731:printer.c     ****     }
 732:printer.c     ****     PRINTER_A_PutChar(LINE_FEED);
 4843              		.loc 1 732 0 is_stmt 1
 4844 09d0 054B     		ldr	r3, .L355+4
 4845 09d2 1B78     		ldrb	r3, [r3]	@ zero_extendqisi2
 4846 09d4 1846     		mov	r0, r3
 4847 09d6 FFF7FEFF 		bl	PRINTER_A_PutChar
 4848              	.LBB126:
 733:printer.c     ****     for(uint8 x = pos; x < 10; x++ ){
 4849              		.loc 1 733 0
 4850 09da 97F86E30 		ldrb	r3, [r7, #110]
 4851 09de 87F85030 		strb	r3, [r7, #80]
ARM GAS  C:\Users\THERMA~1\AppData\Local\Temp\ccXswU2c.s 			page 106


 4852 09e2 3DE0     		b	.L308
 4853              	.L356:
 4854              		.align	2
 4855              	.L355:
 4856 09e4 00000000 		.word	DecVol
 4857 09e8 00000000 		.word	LINE_FEED
 4858 09ec 00000000 		.word	side
 4859 09f0 00000000 		.word	msn_dif
 4860 09f4 00000000 		.word	SEPARATOR
 4861 09f8 00000000 		.word	msn_pos
 4862 09fc 00000000 		.word	msn_lecact
 4863 0a00 00000000 		.word	msn_lecaan
 4864              	.L309:
 734:printer.c     ****         lectactual[x-pos] = side.b.ProcessedTotals[0][0][x];
 4865              		.loc 1 734 0 discriminator 3
 4866 0a04 97F85020 		ldrb	r2, [r7, #80]	@ zero_extendqisi2
 4867 0a08 97F86E30 		ldrb	r3, [r7, #110]	@ zero_extendqisi2
 4868 0a0c D31A     		subs	r3, r2, r3
 4869 0a0e 97F85020 		ldrb	r2, [r7, #80]	@ zero_extendqisi2
 4870 0a12 C949     		ldr	r1, .L357
 4871 0a14 0A44     		add	r2, r2, r1
 4872 0a16 92F8B821 		ldrb	r2, [r2, #440]	@ zero_extendqisi2
 4873 0a1a 07F17001 		add	r1, r7, #112
 4874 0a1e 0B44     		add	r3, r3, r1
 4875 0a20 03F8582C 		strb	r2, [r3, #-88]
 735:printer.c     ****         lectanterior[x-pos] = memoria[x];
 4876              		.loc 1 735 0 discriminator 3
 4877 0a24 97F85020 		ldrb	r2, [r7, #80]	@ zero_extendqisi2
 4878 0a28 97F86E30 		ldrb	r3, [r7, #110]	@ zero_extendqisi2
 4879 0a2c D31A     		subs	r3, r2, r3
 4880 0a2e 97F85020 		ldrb	r2, [r7, #80]	@ zero_extendqisi2
 4881 0a32 07F17001 		add	r1, r7, #112
 4882 0a36 0A44     		add	r2, r2, r1
 4883 0a38 12F8642C 		ldrb	r2, [r2, #-100]	@ zero_extendqisi2
 4884 0a3c 07F17001 		add	r1, r7, #112
 4885 0a40 0B44     		add	r3, r3, r1
 4886 0a42 03F84C2C 		strb	r2, [r3, #-76]
 736:printer.c     ****         resultado[x] = 0x00;
 4887              		.loc 1 736 0 discriminator 3
 4888 0a46 97F85030 		ldrb	r3, [r7, #80]	@ zero_extendqisi2
 4889 0a4a 07F17002 		add	r2, r7, #112
 4890 0a4e 1344     		add	r3, r3, r2
 4891 0a50 0022     		movs	r2, #0
 4892 0a52 03F8702C 		strb	r2, [r3, #-112]
 733:printer.c     ****         lectactual[x-pos] = side.b.ProcessedTotals[0][0][x];
 4893              		.loc 1 733 0 discriminator 3
 4894 0a56 97F85030 		ldrb	r3, [r7, #80]	@ zero_extendqisi2
 4895 0a5a 0133     		adds	r3, r3, #1
 4896 0a5c 87F85030 		strb	r3, [r7, #80]
 4897              	.L308:
 733:printer.c     ****         lectactual[x-pos] = side.b.ProcessedTotals[0][0][x];
 4898              		.loc 1 733 0 is_stmt 0 discriminator 1
 4899 0a60 97F85030 		ldrb	r3, [r7, #80]	@ zero_extendqisi2
 4900 0a64 092B     		cmp	r3, #9
 4901 0a66 CDD9     		bls	.L309
 4902              	.LBE126:
 737:printer.c     ****     }
ARM GAS  C:\Users\THERMA~1\AppData\Local\Temp\ccXswU2c.s 			page 107


 738:printer.c     ****     
 739:printer.c     ****     anterior = atoi(lectanterior);
 4903              		.loc 1 739 0 is_stmt 1
 4904 0a68 07F12403 		add	r3, r7, #36
 4905 0a6c 1846     		mov	r0, r3
 4906 0a6e FFF7FEFF 		bl	atoi
 4907 0a72 0346     		mov	r3, r0
 4908 0a74 BB63     		str	r3, [r7, #56]
 740:printer.c     ****     actual = atoi(lectactual);
 4909              		.loc 1 740 0
 4910 0a76 07F11803 		add	r3, r7, #24
 4911 0a7a 1846     		mov	r0, r3
 4912 0a7c FFF7FEFF 		bl	atoi
 4913 0a80 0346     		mov	r3, r0
 4914 0a82 7B63     		str	r3, [r7, #52]
 741:printer.c     ****     resta =  actual - anterior;
 4915              		.loc 1 741 0
 4916 0a84 7A6B     		ldr	r2, [r7, #52]
 4917 0a86 BB6B     		ldr	r3, [r7, #56]
 4918 0a88 D31A     		subs	r3, r2, r3
 4919 0a8a 3B63     		str	r3, [r7, #48]
 742:printer.c     ****     itoa(resta,resultado,10);
 4920              		.loc 1 742 0
 4921 0a8c 3B6B     		ldr	r3, [r7, #48]
 4922 0a8e 3946     		mov	r1, r7
 4923 0a90 0A22     		movs	r2, #10
 4924 0a92 1846     		mov	r0, r3
 4925 0a94 FFF7FEFF 		bl	itoa
 4926              	.LBB127:
 743:printer.c     ****     for(uint8 x = 0; x < 18; x ++){
 4927              		.loc 1 743 0
 4928 0a98 0023     		movs	r3, #0
 4929 0a9a 87F84F30 		strb	r3, [r7, #79]
 4930 0a9e 0BE0     		b	.L310
 4931              	.L311:
 744:printer.c     ****         PRINTER_A_PutChar(msn_dif[x]);
 4932              		.loc 1 744 0 discriminator 3
 4933 0aa0 97F84F30 		ldrb	r3, [r7, #79]	@ zero_extendqisi2
 4934 0aa4 A54A     		ldr	r2, .L357+4
 4935 0aa6 D35C     		ldrb	r3, [r2, r3]	@ zero_extendqisi2
 4936 0aa8 1846     		mov	r0, r3
 4937 0aaa FFF7FEFF 		bl	PRINTER_A_PutChar
 743:printer.c     ****     for(uint8 x = 0; x < 18; x ++){
 4938              		.loc 1 743 0 discriminator 3
 4939 0aae 97F84F30 		ldrb	r3, [r7, #79]	@ zero_extendqisi2
 4940 0ab2 0133     		adds	r3, r3, #1
 4941 0ab4 87F84F30 		strb	r3, [r7, #79]
 4942              	.L310:
 743:printer.c     ****     for(uint8 x = 0; x < 18; x ++){
 4943              		.loc 1 743 0 is_stmt 0 discriminator 1
 4944 0ab8 97F84F30 		ldrb	r3, [r7, #79]	@ zero_extendqisi2
 4945 0abc 112B     		cmp	r3, #17
 4946 0abe EFD9     		bls	.L311
 4947              	.LBE127:
 745:printer.c     ****     }
 746:printer.c     ****     PRINTER_A_PutChar(LINE_FEED);
 4948              		.loc 1 746 0 is_stmt 1
ARM GAS  C:\Users\THERMA~1\AppData\Local\Temp\ccXswU2c.s 			page 108


 4949 0ac0 9F4B     		ldr	r3, .L357+8
 4950 0ac2 1B78     		ldrb	r3, [r3]	@ zero_extendqisi2
 4951 0ac4 1846     		mov	r0, r3
 4952 0ac6 FFF7FEFF 		bl	PRINTER_A_PutChar
 4953              	.LBB128:
 747:printer.c     ****     for(uint8 x = 0; x < 10; x ++){
 4954              		.loc 1 747 0
 4955 0aca 0023     		movs	r3, #0
 4956 0acc 87F84E30 		strb	r3, [r7, #78]
 4957 0ad0 19E0     		b	.L312
 4958              	.L314:
 748:printer.c     ****         if((10-x) == DecVol)
 4959              		.loc 1 748 0
 4960 0ad2 97F84E30 		ldrb	r3, [r7, #78]	@ zero_extendqisi2
 4961 0ad6 C3F10A03 		rsb	r3, r3, #10
 4962 0ada 9A4A     		ldr	r2, .L357+12
 4963 0adc 1278     		ldrb	r2, [r2]	@ zero_extendqisi2
 4964 0ade 9342     		cmp	r3, r2
 4965 0ae0 02D1     		bne	.L313
 749:printer.c     ****             PRINTER_A_PutChar('.');
 4966              		.loc 1 749 0
 4967 0ae2 2E20     		movs	r0, #46
 4968 0ae4 FFF7FEFF 		bl	PRINTER_A_PutChar
 4969              	.L313:
 750:printer.c     ****         PRINTER_A_PutChar(resultado[x]);
 4970              		.loc 1 750 0 discriminator 2
 4971 0ae8 97F84E30 		ldrb	r3, [r7, #78]	@ zero_extendqisi2
 4972 0aec 07F17002 		add	r2, r7, #112
 4973 0af0 1344     		add	r3, r3, r2
 4974 0af2 13F8703C 		ldrb	r3, [r3, #-112]	@ zero_extendqisi2
 4975 0af6 1846     		mov	r0, r3
 4976 0af8 FFF7FEFF 		bl	PRINTER_A_PutChar
 747:printer.c     ****         if((10-x) == DecVol)
 4977              		.loc 1 747 0 discriminator 2
 4978 0afc 97F84E30 		ldrb	r3, [r7, #78]	@ zero_extendqisi2
 4979 0b00 0133     		adds	r3, r3, #1
 4980 0b02 87F84E30 		strb	r3, [r7, #78]
 4981              	.L312:
 747:printer.c     ****         if((10-x) == DecVol)
 4982              		.loc 1 747 0 is_stmt 0 discriminator 1
 4983 0b06 97F84E30 		ldrb	r3, [r7, #78]	@ zero_extendqisi2
 4984 0b0a 092B     		cmp	r3, #9
 4985 0b0c E1D9     		bls	.L314
 4986              	.LBE128:
 751:printer.c     ****     }
 752:printer.c     ****     PRINTER_A_PutChar(LINE_FEED);
 4987              		.loc 1 752 0 is_stmt 1
 4988 0b0e 8C4B     		ldr	r3, .L357+8
 4989 0b10 1B78     		ldrb	r3, [r3]	@ zero_extendqisi2
 4990 0b12 1846     		mov	r0, r3
 4991 0b14 FFF7FEFF 		bl	PRINTER_A_PutChar
 753:printer.c     ****     
 754:printer.c     ****     if((Positions-1)>= 3){
 4992              		.loc 1 754 0
 4993 0b18 8B4B     		ldr	r3, .L357+16
 4994 0b1a 1B78     		ldrb	r3, [r3]	@ zero_extendqisi2
 4995 0b1c 013B     		subs	r3, r3, #1
ARM GAS  C:\Users\THERMA~1\AppData\Local\Temp\ccXswU2c.s 			page 109


 4996 0b1e 022B     		cmp	r3, #2
 4997 0b20 40F30681 		ble	.L315
 4998              	.LBB129:
 755:printer.c     ****         for(uint8 x = 0; x < 32; x ++){
 4999              		.loc 1 755 0
 5000 0b24 0023     		movs	r3, #0
 5001 0b26 87F84D30 		strb	r3, [r7, #77]
 5002 0b2a 0BE0     		b	.L316
 5003              	.L317:
 756:printer.c     ****             PRINTER_A_PutChar(SEPARATOR[x]);
 5004              		.loc 1 756 0 discriminator 3
 5005 0b2c 97F84D30 		ldrb	r3, [r7, #77]	@ zero_extendqisi2
 5006 0b30 864A     		ldr	r2, .L357+20
 5007 0b32 D35C     		ldrb	r3, [r2, r3]	@ zero_extendqisi2
 5008 0b34 1846     		mov	r0, r3
 5009 0b36 FFF7FEFF 		bl	PRINTER_A_PutChar
 755:printer.c     ****         for(uint8 x = 0; x < 32; x ++){
 5010              		.loc 1 755 0 discriminator 3
 5011 0b3a 97F84D30 		ldrb	r3, [r7, #77]	@ zero_extendqisi2
 5012 0b3e 0133     		adds	r3, r3, #1
 5013 0b40 87F84D30 		strb	r3, [r7, #77]
 5014              	.L316:
 755:printer.c     ****         for(uint8 x = 0; x < 32; x ++){
 5015              		.loc 1 755 0 is_stmt 0 discriminator 1
 5016 0b44 97F84D30 		ldrb	r3, [r7, #77]	@ zero_extendqisi2
 5017 0b48 1F2B     		cmp	r3, #31
 5018 0b4a EFD9     		bls	.L317
 5019              	.LBE129:
 757:printer.c     ****         }           
 758:printer.c     ****         PRINTER_A_PutChar(LINE_FEED);
 5020              		.loc 1 758 0 is_stmt 1
 5021 0b4c 7C4B     		ldr	r3, .L357+8
 5022 0b4e 1B78     		ldrb	r3, [r3]	@ zero_extendqisi2
 5023 0b50 1846     		mov	r0, r3
 5024 0b52 FFF7FEFF 		bl	PRINTER_A_PutChar
 5025              	.LBB130:
 759:printer.c     ****         for(uint8 x = 0; x < 13; x ++){
 5026              		.loc 1 759 0
 5027 0b56 0023     		movs	r3, #0
 5028 0b58 87F84C30 		strb	r3, [r7, #76]
 5029 0b5c 0BE0     		b	.L318
 5030              	.L319:
 760:printer.c     ****             PRINTER_A_PutChar(msn_pos[x]);
 5031              		.loc 1 760 0 discriminator 3
 5032 0b5e 97F84C30 		ldrb	r3, [r7, #76]	@ zero_extendqisi2
 5033 0b62 7B4A     		ldr	r2, .L357+24
 5034 0b64 D35C     		ldrb	r3, [r2, r3]	@ zero_extendqisi2
 5035 0b66 1846     		mov	r0, r3
 5036 0b68 FFF7FEFF 		bl	PRINTER_A_PutChar
 759:printer.c     ****         for(uint8 x = 0; x < 13; x ++){
 5037              		.loc 1 759 0 discriminator 3
 5038 0b6c 97F84C30 		ldrb	r3, [r7, #76]	@ zero_extendqisi2
 5039 0b70 0133     		adds	r3, r3, #1
 5040 0b72 87F84C30 		strb	r3, [r7, #76]
 5041              	.L318:
 759:printer.c     ****         for(uint8 x = 0; x < 13; x ++){
 5042              		.loc 1 759 0 is_stmt 0 discriminator 1
ARM GAS  C:\Users\THERMA~1\AppData\Local\Temp\ccXswU2c.s 			page 110


 5043 0b76 97F84C30 		ldrb	r3, [r7, #76]	@ zero_extendqisi2
 5044 0b7a 0C2B     		cmp	r3, #12
 5045 0b7c EFD9     		bls	.L319
 5046              	.LBE130:
 761:printer.c     ****         }
 762:printer.c     ****         PRINTER_A_PutChar(side.c.dir + 0x31);
 5047              		.loc 1 762 0 is_stmt 1
 5048 0b7e 6E4B     		ldr	r3, .L357
 5049 0b80 93F86A32 		ldrb	r3, [r3, #618]	@ zero_extendqisi2
 5050 0b84 3133     		adds	r3, r3, #49
 5051 0b86 DBB2     		uxtb	r3, r3
 5052 0b88 1846     		mov	r0, r3
 5053 0b8a FFF7FEFF 		bl	PRINTER_A_PutChar
 763:printer.c     ****         PRINTER_A_PutChar(LINE_FEED);              
 5054              		.loc 1 763 0
 5055 0b8e 6C4B     		ldr	r3, .L357+8
 5056 0b90 1B78     		ldrb	r3, [r3]	@ zero_extendqisi2
 5057 0b92 1846     		mov	r0, r3
 5058 0b94 FFF7FEFF 		bl	PRINTER_A_PutChar
 5059              	.LBB131:
 764:printer.c     ****         for(uint8 x = 0; x < 10; x ++){ 
 5060              		.loc 1 764 0
 5061 0b98 0023     		movs	r3, #0
 5062 0b9a 87F84B30 		strb	r3, [r7, #75]
 5063 0b9e 18E0     		b	.L320
 5064              	.L322:
 765:printer.c     ****             if((10-x) == DecVol)
 5065              		.loc 1 765 0
 5066 0ba0 97F84B30 		ldrb	r3, [r7, #75]	@ zero_extendqisi2
 5067 0ba4 C3F10A03 		rsb	r3, r3, #10
 5068 0ba8 664A     		ldr	r2, .L357+12
 5069 0baa 1278     		ldrb	r2, [r2]	@ zero_extendqisi2
 5070 0bac 9342     		cmp	r3, r2
 5071 0bae 02D1     		bne	.L321
 766:printer.c     ****                 PRINTER_A_PutChar('.');
 5072              		.loc 1 766 0
 5073 0bb0 2E20     		movs	r0, #46
 5074 0bb2 FFF7FEFF 		bl	PRINTER_A_PutChar
 5075              	.L321:
 767:printer.c     ****             PRINTER_A_PutChar(side.c.ProcessedTotals[0][0][x]);
 5076              		.loc 1 767 0 discriminator 2
 5077 0bb6 97F84B30 		ldrb	r3, [r7, #75]	@ zero_extendqisi2
 5078 0bba 5F4A     		ldr	r2, .L357
 5079 0bbc 1344     		add	r3, r3, r2
 5080 0bbe 93F8ED32 		ldrb	r3, [r3, #749]	@ zero_extendqisi2
 5081 0bc2 1846     		mov	r0, r3
 5082 0bc4 FFF7FEFF 		bl	PRINTER_A_PutChar
 764:printer.c     ****             if((10-x) == DecVol)
 5083              		.loc 1 764 0 discriminator 2
 5084 0bc8 97F84B30 		ldrb	r3, [r7, #75]	@ zero_extendqisi2
 5085 0bcc 0133     		adds	r3, r3, #1
 5086 0bce 87F84B30 		strb	r3, [r7, #75]
 5087              	.L320:
 764:printer.c     ****             if((10-x) == DecVol)
 5088              		.loc 1 764 0 is_stmt 0 discriminator 1
 5089 0bd2 97F84B30 		ldrb	r3, [r7, #75]	@ zero_extendqisi2
 5090 0bd6 092B     		cmp	r3, #9
ARM GAS  C:\Users\THERMA~1\AppData\Local\Temp\ccXswU2c.s 			page 111


 5091 0bd8 E2D9     		bls	.L322
 5092              	.LBE131:
 768:printer.c     ****         }
 769:printer.c     ****         PRINTER_A_PutChar(LINE_FEED);
 5093              		.loc 1 769 0 is_stmt 1
 5094 0bda 594B     		ldr	r3, .L357+8
 5095 0bdc 1B78     		ldrb	r3, [r3]	@ zero_extendqisi2
 5096 0bde 1846     		mov	r0, r3
 5097 0be0 FFF7FEFF 		bl	PRINTER_A_PutChar
 5098              	.LBB132:
 770:printer.c     ****     	for(uint8 x = 0; x < 16; x ++){
 5099              		.loc 1 770 0
 5100 0be4 0023     		movs	r3, #0
 5101 0be6 87F84A30 		strb	r3, [r7, #74]
 5102 0bea 0BE0     		b	.L323
 5103              	.L324:
 771:printer.c     ****     		PRINTER_A_PutChar(msn_lecaan[x]);
 5104              		.loc 1 771 0 discriminator 3
 5105 0bec 97F84A30 		ldrb	r3, [r7, #74]	@ zero_extendqisi2
 5106 0bf0 584A     		ldr	r2, .L357+28
 5107 0bf2 D35C     		ldrb	r3, [r2, r3]	@ zero_extendqisi2
 5108 0bf4 1846     		mov	r0, r3
 5109 0bf6 FFF7FEFF 		bl	PRINTER_A_PutChar
 770:printer.c     ****     	for(uint8 x = 0; x < 16; x ++){
 5110              		.loc 1 770 0 discriminator 3
 5111 0bfa 97F84A30 		ldrb	r3, [r7, #74]	@ zero_extendqisi2
 5112 0bfe 0133     		adds	r3, r3, #1
 5113 0c00 87F84A30 		strb	r3, [r7, #74]
 5114              	.L323:
 770:printer.c     ****     	for(uint8 x = 0; x < 16; x ++){
 5115              		.loc 1 770 0 is_stmt 0 discriminator 1
 5116 0c04 97F84A30 		ldrb	r3, [r7, #74]	@ zero_extendqisi2
 5117 0c08 0F2B     		cmp	r3, #15
 5118 0c0a EFD9     		bls	.L324
 5119              	.LBE132:
 772:printer.c     ****     	}
 773:printer.c     ****         PRINTER_A_PutChar(LINE_FEED);
 5120              		.loc 1 773 0 is_stmt 1
 5121 0c0c 4C4B     		ldr	r3, .L357+8
 5122 0c0e 1B78     		ldrb	r3, [r3]	@ zero_extendqisi2
 5123 0c10 1846     		mov	r0, r3
 5124 0c12 FFF7FEFF 		bl	PRINTER_A_PutChar
 5125              	.LBB133:
 774:printer.c     ****         for(uint8 x = 0; x < 32; x ++){
 5126              		.loc 1 774 0
 5127 0c16 0023     		movs	r3, #0
 5128 0c18 87F84930 		strb	r3, [r7, #73]
 5129 0c1c 0BE0     		b	.L325
 5130              	.L326:
 775:printer.c     ****             PRINTER_A_PutChar(SEPARATOR[x]);
 5131              		.loc 1 775 0 discriminator 3
 5132 0c1e 97F84930 		ldrb	r3, [r7, #73]	@ zero_extendqisi2
 5133 0c22 4A4A     		ldr	r2, .L357+20
 5134 0c24 D35C     		ldrb	r3, [r2, r3]	@ zero_extendqisi2
 5135 0c26 1846     		mov	r0, r3
 5136 0c28 FFF7FEFF 		bl	PRINTER_A_PutChar
 774:printer.c     ****         for(uint8 x = 0; x < 32; x ++){
ARM GAS  C:\Users\THERMA~1\AppData\Local\Temp\ccXswU2c.s 			page 112


 5137              		.loc 1 774 0 discriminator 3
 5138 0c2c 97F84930 		ldrb	r3, [r7, #73]	@ zero_extendqisi2
 5139 0c30 0133     		adds	r3, r3, #1
 5140 0c32 87F84930 		strb	r3, [r7, #73]
 5141              	.L325:
 774:printer.c     ****         for(uint8 x = 0; x < 32; x ++){
 5142              		.loc 1 774 0 is_stmt 0 discriminator 1
 5143 0c36 97F84930 		ldrb	r3, [r7, #73]	@ zero_extendqisi2
 5144 0c3a 1F2B     		cmp	r3, #31
 5145 0c3c EFD9     		bls	.L326
 5146              	.LBE133:
 776:printer.c     ****         }   
 777:printer.c     ****         PRINTER_A_PutChar(LINE_FEED);
 5147              		.loc 1 777 0 is_stmt 1
 5148 0c3e 404B     		ldr	r3, .L357+8
 5149 0c40 1B78     		ldrb	r3, [r3]	@ zero_extendqisi2
 5150 0c42 1846     		mov	r0, r3
 5151 0c44 FFF7FEFF 		bl	PRINTER_A_PutChar
 5152              	.LBB134:
 778:printer.c     ****     	for(uint8 x = 0; x < 13; x ++){
 5153              		.loc 1 778 0
 5154 0c48 0023     		movs	r3, #0
 5155 0c4a 87F84830 		strb	r3, [r7, #72]
 5156 0c4e 0BE0     		b	.L327
 5157              	.L328:
 779:printer.c     ****             PRINTER_A_PutChar(msn_pos[x]);
 5158              		.loc 1 779 0 discriminator 3
 5159 0c50 97F84830 		ldrb	r3, [r7, #72]	@ zero_extendqisi2
 5160 0c54 3E4A     		ldr	r2, .L357+24
 5161 0c56 D35C     		ldrb	r3, [r2, r3]	@ zero_extendqisi2
 5162 0c58 1846     		mov	r0, r3
 5163 0c5a FFF7FEFF 		bl	PRINTER_A_PutChar
 778:printer.c     ****     	for(uint8 x = 0; x < 13; x ++){
 5164              		.loc 1 778 0 discriminator 3
 5165 0c5e 97F84830 		ldrb	r3, [r7, #72]	@ zero_extendqisi2
 5166 0c62 0133     		adds	r3, r3, #1
 5167 0c64 87F84830 		strb	r3, [r7, #72]
 5168              	.L327:
 778:printer.c     ****     	for(uint8 x = 0; x < 13; x ++){
 5169              		.loc 1 778 0 is_stmt 0 discriminator 1
 5170 0c68 97F84830 		ldrb	r3, [r7, #72]	@ zero_extendqisi2
 5171 0c6c 0C2B     		cmp	r3, #12
 5172 0c6e EFD9     		bls	.L328
 5173              	.LBE134:
 780:printer.c     ****         }
 781:printer.c     ****         PRINTER_A_PutChar(side.d.dir + 0x31);
 5174              		.loc 1 781 0 is_stmt 1
 5175 0c70 314B     		ldr	r3, .L357
 5176 0c72 93F89F33 		ldrb	r3, [r3, #927]	@ zero_extendqisi2
 5177 0c76 3133     		adds	r3, r3, #49
 5178 0c78 DBB2     		uxtb	r3, r3
 5179 0c7a 1846     		mov	r0, r3
 5180 0c7c FFF7FEFF 		bl	PRINTER_A_PutChar
 782:printer.c     ****         PRINTER_A_PutChar(LINE_FEED);                      
 5181              		.loc 1 782 0
 5182 0c80 2F4B     		ldr	r3, .L357+8
 5183 0c82 1B78     		ldrb	r3, [r3]	@ zero_extendqisi2
ARM GAS  C:\Users\THERMA~1\AppData\Local\Temp\ccXswU2c.s 			page 113


 5184 0c84 1846     		mov	r0, r3
 5185 0c86 FFF7FEFF 		bl	PRINTER_A_PutChar
 5186              	.LBB135:
 783:printer.c     ****         for(uint8 x = 0; x < 10; x ++){ 
 5187              		.loc 1 783 0
 5188 0c8a 0023     		movs	r3, #0
 5189 0c8c 87F84730 		strb	r3, [r7, #71]
 5190 0c90 18E0     		b	.L329
 5191              	.L331:
 784:printer.c     ****             if((10-x) == DecVol)
 5192              		.loc 1 784 0
 5193 0c92 97F84730 		ldrb	r3, [r7, #71]	@ zero_extendqisi2
 5194 0c96 C3F10A03 		rsb	r3, r3, #10
 5195 0c9a 2A4A     		ldr	r2, .L357+12
 5196 0c9c 1278     		ldrb	r2, [r2]	@ zero_extendqisi2
 5197 0c9e 9342     		cmp	r3, r2
 5198 0ca0 02D1     		bne	.L330
 785:printer.c     ****                 PRINTER_A_PutChar('.');
 5199              		.loc 1 785 0
 5200 0ca2 2E20     		movs	r0, #46
 5201 0ca4 FFF7FEFF 		bl	PRINTER_A_PutChar
 5202              	.L330:
 786:printer.c     ****             PRINTER_A_PutChar(side.d.ProcessedTotals[0][0][x]);
 5203              		.loc 1 786 0 discriminator 2
 5204 0ca8 97F84730 		ldrb	r3, [r7, #71]	@ zero_extendqisi2
 5205 0cac 224A     		ldr	r2, .L357
 5206 0cae 1344     		add	r3, r3, r2
 5207 0cb0 93F82234 		ldrb	r3, [r3, #1058]	@ zero_extendqisi2
 5208 0cb4 1846     		mov	r0, r3
 5209 0cb6 FFF7FEFF 		bl	PRINTER_A_PutChar
 783:printer.c     ****             if((10-x) == DecVol)
 5210              		.loc 1 783 0 discriminator 2
 5211 0cba 97F84730 		ldrb	r3, [r7, #71]	@ zero_extendqisi2
 5212 0cbe 0133     		adds	r3, r3, #1
 5213 0cc0 87F84730 		strb	r3, [r7, #71]
 5214              	.L329:
 783:printer.c     ****             if((10-x) == DecVol)
 5215              		.loc 1 783 0 is_stmt 0 discriminator 1
 5216 0cc4 97F84730 		ldrb	r3, [r7, #71]	@ zero_extendqisi2
 5217 0cc8 092B     		cmp	r3, #9
 5218 0cca E2D9     		bls	.L331
 5219              	.LBE135:
 787:printer.c     ****         }
 788:printer.c     ****         PRINTER_A_PutChar(LINE_FEED);
 5220              		.loc 1 788 0 is_stmt 1
 5221 0ccc 1C4B     		ldr	r3, .L357+8
 5222 0cce 1B78     		ldrb	r3, [r3]	@ zero_extendqisi2
 5223 0cd0 1846     		mov	r0, r3
 5224 0cd2 FFF7FEFF 		bl	PRINTER_A_PutChar
 5225              	.LBB136:
 789:printer.c     ****     	for(uint8 x = 0; x < 16; x ++){
 5226              		.loc 1 789 0
 5227 0cd6 0023     		movs	r3, #0
 5228 0cd8 87F84630 		strb	r3, [r7, #70]
 5229 0cdc 0BE0     		b	.L332
 5230              	.L333:
 790:printer.c     ****     		PRINTER_A_PutChar(msn_lecaan[x]);
ARM GAS  C:\Users\THERMA~1\AppData\Local\Temp\ccXswU2c.s 			page 114


 5231              		.loc 1 790 0 discriminator 3
 5232 0cde 97F84630 		ldrb	r3, [r7, #70]	@ zero_extendqisi2
 5233 0ce2 1C4A     		ldr	r2, .L357+28
 5234 0ce4 D35C     		ldrb	r3, [r2, r3]	@ zero_extendqisi2
 5235 0ce6 1846     		mov	r0, r3
 5236 0ce8 FFF7FEFF 		bl	PRINTER_A_PutChar
 789:printer.c     ****     	for(uint8 x = 0; x < 16; x ++){
 5237              		.loc 1 789 0 discriminator 3
 5238 0cec 97F84630 		ldrb	r3, [r7, #70]	@ zero_extendqisi2
 5239 0cf0 0133     		adds	r3, r3, #1
 5240 0cf2 87F84630 		strb	r3, [r7, #70]
 5241              	.L332:
 789:printer.c     ****     	for(uint8 x = 0; x < 16; x ++){
 5242              		.loc 1 789 0 is_stmt 0 discriminator 1
 5243 0cf6 97F84630 		ldrb	r3, [r7, #70]	@ zero_extendqisi2
 5244 0cfa 0F2B     		cmp	r3, #15
 5245 0cfc EFD9     		bls	.L333
 5246              	.LBE136:
 5247              	.LBB137:
 791:printer.c     ****     	}
 792:printer.c     ****         
 793:printer.c     ****         for(uint8 x = 0; x < 24; x ++){
 5248              		.loc 1 793 0 is_stmt 1
 5249 0cfe 0023     		movs	r3, #0
 5250 0d00 87F84530 		strb	r3, [r7, #69]
 5251 0d04 0BE0     		b	.L334
 5252              	.L335:
 794:printer.c     ****             PRINTER_A_PutChar(SEPARATOR[x]);
 5253              		.loc 1 794 0 discriminator 3
 5254 0d06 97F84530 		ldrb	r3, [r7, #69]	@ zero_extendqisi2
 5255 0d0a 104A     		ldr	r2, .L357+20
 5256 0d0c D35C     		ldrb	r3, [r2, r3]	@ zero_extendqisi2
 5257 0d0e 1846     		mov	r0, r3
 5258 0d10 FFF7FEFF 		bl	PRINTER_A_PutChar
 793:printer.c     ****             PRINTER_A_PutChar(SEPARATOR[x]);
 5259              		.loc 1 793 0 discriminator 3
 5260 0d14 97F84530 		ldrb	r3, [r7, #69]	@ zero_extendqisi2
 5261 0d18 0133     		adds	r3, r3, #1
 5262 0d1a 87F84530 		strb	r3, [r7, #69]
 5263              	.L334:
 793:printer.c     ****             PRINTER_A_PutChar(SEPARATOR[x]);
 5264              		.loc 1 793 0 is_stmt 0 discriminator 1
 5265 0d1e 97F84530 		ldrb	r3, [r7, #69]	@ zero_extendqisi2
 5266 0d22 172B     		cmp	r3, #23
 5267 0d24 EFD9     		bls	.L335
 5268              	.LBE137:
 795:printer.c     ****         }            
 796:printer.c     **** 	    PRINTER_A_PutChar(LINE_FEED);
 5269              		.loc 1 796 0 is_stmt 1
 5270 0d26 064B     		ldr	r3, .L357+8
 5271 0d28 1B78     		ldrb	r3, [r3]	@ zero_extendqisi2
 5272 0d2a 1846     		mov	r0, r3
 5273 0d2c FFF7FEFF 		bl	PRINTER_A_PutChar
 5274              	.L315:
 5275              	.LBB138:
 797:printer.c     ****     } 
 798:printer.c     ****     /******FOOTER*****/
ARM GAS  C:\Users\THERMA~1\AppData\Local\Temp\ccXswU2c.s 			page 115


 799:printer.c     **** 	for(uint8 x = 0; x < 32; x ++){
 5276              		.loc 1 799 0
 5277 0d30 0023     		movs	r3, #0
 5278 0d32 87F84430 		strb	r3, [r7, #68]
 5279 0d36 1BE0     		b	.L336
 5280              	.L358:
 5281              		.align	2
 5282              	.L357:
 5283 0d38 00000000 		.word	side
 5284 0d3c 00000000 		.word	msn_dif
 5285 0d40 00000000 		.word	LINE_FEED
 5286 0d44 00000000 		.word	DecVol
 5287 0d48 00000000 		.word	Positions
 5288 0d4c 00000000 		.word	SEPARATOR
 5289 0d50 00000000 		.word	msn_pos
 5290 0d54 00000000 		.word	msn_lecaan
 5291              	.L337:
 800:printer.c     **** 		PRINTER_A_PutChar(SEPARATOR[x]);
 5292              		.loc 1 800 0 discriminator 3
 5293 0d58 97F84430 		ldrb	r3, [r7, #68]	@ zero_extendqisi2
 5294 0d5c 664A     		ldr	r2, .L359
 5295 0d5e D35C     		ldrb	r3, [r2, r3]	@ zero_extendqisi2
 5296 0d60 1846     		mov	r0, r3
 5297 0d62 FFF7FEFF 		bl	PRINTER_A_PutChar
 799:printer.c     **** 		PRINTER_A_PutChar(SEPARATOR[x]);
 5298              		.loc 1 799 0 discriminator 3
 5299 0d66 97F84430 		ldrb	r3, [r7, #68]	@ zero_extendqisi2
 5300 0d6a 0133     		adds	r3, r3, #1
 5301 0d6c 87F84430 		strb	r3, [r7, #68]
 5302              	.L336:
 799:printer.c     **** 		PRINTER_A_PutChar(SEPARATOR[x]);
 5303              		.loc 1 799 0 is_stmt 0 discriminator 1
 5304 0d70 97F84430 		ldrb	r3, [r7, #68]	@ zero_extendqisi2
 5305 0d74 1F2B     		cmp	r3, #31
 5306 0d76 EFD9     		bls	.L337
 5307              	.LBE138:
 801:printer.c     **** 	}
 802:printer.c     **** 	PRINTER_A_PutChar(LINE_FEED);
 5308              		.loc 1 802 0 is_stmt 1
 5309 0d78 604B     		ldr	r3, .L359+4
 5310 0d7a 1B78     		ldrb	r3, [r3]	@ zero_extendqisi2
 5311 0d7c 1846     		mov	r0, r3
 5312 0d7e FFF7FEFF 		bl	PRINTER_A_PutChar
 5313              	.LBB139:
 803:printer.c     **** 	for(uint8 x = 0; x < 32; x ++){
 5314              		.loc 1 803 0
 5315 0d82 0023     		movs	r3, #0
 5316 0d84 87F84330 		strb	r3, [r7, #67]
 5317 0d88 0BE0     		b	.L338
 5318              	.L339:
 804:printer.c     **** 		PRINTER_A_PutChar(msn_footer[x]);
 5319              		.loc 1 804 0 discriminator 3
 5320 0d8a 97F84330 		ldrb	r3, [r7, #67]	@ zero_extendqisi2
 5321 0d8e 5C4A     		ldr	r2, .L359+8
 5322 0d90 D35C     		ldrb	r3, [r2, r3]	@ zero_extendqisi2
 5323 0d92 1846     		mov	r0, r3
 5324 0d94 FFF7FEFF 		bl	PRINTER_A_PutChar
ARM GAS  C:\Users\THERMA~1\AppData\Local\Temp\ccXswU2c.s 			page 116


 803:printer.c     **** 	for(uint8 x = 0; x < 32; x ++){
 5325              		.loc 1 803 0 discriminator 3
 5326 0d98 97F84330 		ldrb	r3, [r7, #67]	@ zero_extendqisi2
 5327 0d9c 0133     		adds	r3, r3, #1
 5328 0d9e 87F84330 		strb	r3, [r7, #67]
 5329              	.L338:
 803:printer.c     **** 	for(uint8 x = 0; x < 32; x ++){
 5330              		.loc 1 803 0 is_stmt 0 discriminator 1
 5331 0da2 97F84330 		ldrb	r3, [r7, #67]	@ zero_extendqisi2
 5332 0da6 1F2B     		cmp	r3, #31
 5333 0da8 EFD9     		bls	.L339
 5334              	.LBE139:
 805:printer.c     **** 	}
 806:printer.c     **** 	PRINTER_A_PutChar(LINE_FEED);
 5335              		.loc 1 806 0 is_stmt 1
 5336 0daa 544B     		ldr	r3, .L359+4
 5337 0dac 1B78     		ldrb	r3, [r3]	@ zero_extendqisi2
 5338 0dae 1846     		mov	r0, r3
 5339 0db0 FFF7FEFF 		bl	PRINTER_A_PutChar
 5340              	.LBB140:
 807:printer.c     **** 	for(uint8 x = 0; x < 32; x ++){
 5341              		.loc 1 807 0
 5342 0db4 0023     		movs	r3, #0
 5343 0db6 87F84230 		strb	r3, [r7, #66]
 5344 0dba 0BE0     		b	.L340
 5345              	.L341:
 808:printer.c     **** 		PRINTER_A_PutChar(msn_footer2[x]);
 5346              		.loc 1 808 0 discriminator 3
 5347 0dbc 97F84230 		ldrb	r3, [r7, #66]	@ zero_extendqisi2
 5348 0dc0 504A     		ldr	r2, .L359+12
 5349 0dc2 D35C     		ldrb	r3, [r2, r3]	@ zero_extendqisi2
 5350 0dc4 1846     		mov	r0, r3
 5351 0dc6 FFF7FEFF 		bl	PRINTER_A_PutChar
 807:printer.c     **** 	for(uint8 x = 0; x < 32; x ++){
 5352              		.loc 1 807 0 discriminator 3
 5353 0dca 97F84230 		ldrb	r3, [r7, #66]	@ zero_extendqisi2
 5354 0dce 0133     		adds	r3, r3, #1
 5355 0dd0 87F84230 		strb	r3, [r7, #66]
 5356              	.L340:
 807:printer.c     **** 	for(uint8 x = 0; x < 32; x ++){
 5357              		.loc 1 807 0 is_stmt 0 discriminator 1
 5358 0dd4 97F84230 		ldrb	r3, [r7, #66]	@ zero_extendqisi2
 5359 0dd8 1F2B     		cmp	r3, #31
 5360 0dda EFD9     		bls	.L341
 5361              	.LBE140:
 809:printer.c     **** 	}           
 810:printer.c     ****     PRINTER_A_PutChar(LINE_FEED);
 5362              		.loc 1 810 0 is_stmt 1
 5363 0ddc 474B     		ldr	r3, .L359+4
 5364 0dde 1B78     		ldrb	r3, [r3]	@ zero_extendqisi2
 5365 0de0 1846     		mov	r0, r3
 5366 0de2 FFF7FEFF 		bl	PRINTER_A_PutChar
 811:printer.c     ****     PRINTER_A_PutChar(LINE_FEED);
 5367              		.loc 1 811 0
 5368 0de6 454B     		ldr	r3, .L359+4
 5369 0de8 1B78     		ldrb	r3, [r3]	@ zero_extendqisi2
 5370 0dea 1846     		mov	r0, r3
ARM GAS  C:\Users\THERMA~1\AppData\Local\Temp\ccXswU2c.s 			page 117


 5371 0dec FFF7FEFF 		bl	PRINTER_A_PutChar
 812:printer.c     ****     PRINTER_A_PutChar(LINE_FEED);
 5372              		.loc 1 812 0
 5373 0df0 424B     		ldr	r3, .L359+4
 5374 0df2 1B78     		ldrb	r3, [r3]	@ zero_extendqisi2
 5375 0df4 1846     		mov	r0, r3
 5376 0df6 FFF7FEFF 		bl	PRINTER_A_PutChar
 813:printer.c     ****     PRINTER_A_PutChar(LINE_FEED);
 5377              		.loc 1 813 0
 5378 0dfa 404B     		ldr	r3, .L359+4
 5379 0dfc 1B78     		ldrb	r3, [r3]	@ zero_extendqisi2
 5380 0dfe 1846     		mov	r0, r3
 5381 0e00 FFF7FEFF 		bl	PRINTER_A_PutChar
 814:printer.c     ****     PRINTER_A_PutChar(LINE_FEED);
 5382              		.loc 1 814 0
 5383 0e04 3D4B     		ldr	r3, .L359+4
 5384 0e06 1B78     		ldrb	r3, [r3]	@ zero_extendqisi2
 5385 0e08 1846     		mov	r0, r3
 5386 0e0a FFF7FEFF 		bl	PRINTER_A_PutChar
 5387              	.LBB141:
 815:printer.c     ****     for(uint8 x = 0; x < 10; x++){
 5388              		.loc 1 815 0
 5389 0e0e 0023     		movs	r3, #0
 5390 0e10 87F84130 		strb	r3, [r7, #65]
 5391 0e14 13E0     		b	.L342
 5392              	.L343:
 816:printer.c     ****         EEPROM_1_WriteByte(side.a.ProcessedTotals[0][0][x],36+x);        
 5393              		.loc 1 816 0 discriminator 3
 5394 0e16 97F84130 		ldrb	r3, [r7, #65]	@ zero_extendqisi2
 5395 0e1a 3B4A     		ldr	r2, .L359+16
 5396 0e1c 1344     		add	r3, r3, r2
 5397 0e1e 93F88320 		ldrb	r2, [r3, #131]	@ zero_extendqisi2
 5398 0e22 97F84130 		ldrb	r3, [r7, #65]	@ zero_extendqisi2
 5399 0e26 9BB2     		uxth	r3, r3
 5400 0e28 2433     		adds	r3, r3, #36
 5401 0e2a 9BB2     		uxth	r3, r3
 5402 0e2c 1946     		mov	r1, r3
 5403 0e2e 1046     		mov	r0, r2
 5404 0e30 FFF7FEFF 		bl	EEPROM_1_WriteByte
 815:printer.c     ****     for(uint8 x = 0; x < 10; x++){
 5405              		.loc 1 815 0 discriminator 3
 5406 0e34 97F84130 		ldrb	r3, [r7, #65]	@ zero_extendqisi2
 5407 0e38 0133     		adds	r3, r3, #1
 5408 0e3a 87F84130 		strb	r3, [r7, #65]
 5409              	.L342:
 815:printer.c     ****     for(uint8 x = 0; x < 10; x++){
 5410              		.loc 1 815 0 is_stmt 0 discriminator 1
 5411 0e3e 97F84130 		ldrb	r3, [r7, #65]	@ zero_extendqisi2
 5412 0e42 092B     		cmp	r3, #9
 5413 0e44 E7D9     		bls	.L343
 5414              	.LBE141:
 5415              	.LBB142:
 817:printer.c     ****     }
 818:printer.c     ****     for(uint8 x = 0; x < 10; x++){
 5416              		.loc 1 818 0 is_stmt 1
 5417 0e46 0023     		movs	r3, #0
 5418 0e48 87F84030 		strb	r3, [r7, #64]
ARM GAS  C:\Users\THERMA~1\AppData\Local\Temp\ccXswU2c.s 			page 118


 5419 0e4c 13E0     		b	.L344
 5420              	.L345:
 819:printer.c     ****         EEPROM_1_WriteByte(side.b.ProcessedTotals[0][0][x],46+x);
 5421              		.loc 1 819 0 discriminator 3
 5422 0e4e 97F84030 		ldrb	r3, [r7, #64]	@ zero_extendqisi2
 5423 0e52 2D4A     		ldr	r2, .L359+16
 5424 0e54 1344     		add	r3, r3, r2
 5425 0e56 93F8B821 		ldrb	r2, [r3, #440]	@ zero_extendqisi2
 5426 0e5a 97F84030 		ldrb	r3, [r7, #64]	@ zero_extendqisi2
 5427 0e5e 9BB2     		uxth	r3, r3
 5428 0e60 2E33     		adds	r3, r3, #46
 5429 0e62 9BB2     		uxth	r3, r3
 5430 0e64 1946     		mov	r1, r3
 5431 0e66 1046     		mov	r0, r2
 5432 0e68 FFF7FEFF 		bl	EEPROM_1_WriteByte
 818:printer.c     ****         EEPROM_1_WriteByte(side.b.ProcessedTotals[0][0][x],46+x);
 5433              		.loc 1 818 0 discriminator 3
 5434 0e6c 97F84030 		ldrb	r3, [r7, #64]	@ zero_extendqisi2
 5435 0e70 0133     		adds	r3, r3, #1
 5436 0e72 87F84030 		strb	r3, [r7, #64]
 5437              	.L344:
 818:printer.c     ****         EEPROM_1_WriteByte(side.b.ProcessedTotals[0][0][x],46+x);
 5438              		.loc 1 818 0 is_stmt 0 discriminator 1
 5439 0e76 97F84030 		ldrb	r3, [r7, #64]	@ zero_extendqisi2
 5440 0e7a 092B     		cmp	r3, #9
 5441 0e7c E7D9     		bls	.L345
 5442              	.LBE142:
 5443              	.LBB143:
 820:printer.c     ****     }
 821:printer.c     ****     for(uint8 x = 0; x < 10; x++){
 5444              		.loc 1 821 0 is_stmt 1
 5445 0e7e 0023     		movs	r3, #0
 5446 0e80 87F83F30 		strb	r3, [r7, #63]
 5447 0e84 13E0     		b	.L346
 5448              	.L347:
 822:printer.c     ****         EEPROM_1_WriteByte(side.c.ProcessedTotals[0][0][x],56+x);
 5449              		.loc 1 822 0 discriminator 3
 5450 0e86 97F83F30 		ldrb	r3, [r7, #63]	@ zero_extendqisi2
 5451 0e8a 1F4A     		ldr	r2, .L359+16
 5452 0e8c 1344     		add	r3, r3, r2
 5453 0e8e 93F8ED22 		ldrb	r2, [r3, #749]	@ zero_extendqisi2
 5454 0e92 97F83F30 		ldrb	r3, [r7, #63]	@ zero_extendqisi2
 5455 0e96 9BB2     		uxth	r3, r3
 5456 0e98 3833     		adds	r3, r3, #56
 5457 0e9a 9BB2     		uxth	r3, r3
 5458 0e9c 1946     		mov	r1, r3
 5459 0e9e 1046     		mov	r0, r2
 5460 0ea0 FFF7FEFF 		bl	EEPROM_1_WriteByte
 821:printer.c     ****         EEPROM_1_WriteByte(side.c.ProcessedTotals[0][0][x],56+x);
 5461              		.loc 1 821 0 discriminator 3
 5462 0ea4 97F83F30 		ldrb	r3, [r7, #63]	@ zero_extendqisi2
 5463 0ea8 0133     		adds	r3, r3, #1
 5464 0eaa 87F83F30 		strb	r3, [r7, #63]
 5465              	.L346:
 821:printer.c     ****         EEPROM_1_WriteByte(side.c.ProcessedTotals[0][0][x],56+x);
 5466              		.loc 1 821 0 is_stmt 0 discriminator 1
 5467 0eae 97F83F30 		ldrb	r3, [r7, #63]	@ zero_extendqisi2
ARM GAS  C:\Users\THERMA~1\AppData\Local\Temp\ccXswU2c.s 			page 119


 5468 0eb2 092B     		cmp	r3, #9
 5469 0eb4 E7D9     		bls	.L347
 5470              	.LBE143:
 5471              	.LBB144:
 823:printer.c     ****     }
 824:printer.c     ****     for(uint8 x = 0; x < 10; x++){
 5472              		.loc 1 824 0 is_stmt 1
 5473 0eb6 0023     		movs	r3, #0
 5474 0eb8 87F83E30 		strb	r3, [r7, #62]
 5475 0ebc 13E0     		b	.L348
 5476              	.L349:
 825:printer.c     ****         EEPROM_1_WriteByte(side.d.ProcessedTotals[0][0][x],66+x);
 5477              		.loc 1 825 0 discriminator 3
 5478 0ebe 97F83E30 		ldrb	r3, [r7, #62]	@ zero_extendqisi2
 5479 0ec2 114A     		ldr	r2, .L359+16
 5480 0ec4 1344     		add	r3, r3, r2
 5481 0ec6 93F82224 		ldrb	r2, [r3, #1058]	@ zero_extendqisi2
 5482 0eca 97F83E30 		ldrb	r3, [r7, #62]	@ zero_extendqisi2
 5483 0ece 9BB2     		uxth	r3, r3
 5484 0ed0 4233     		adds	r3, r3, #66
 5485 0ed2 9BB2     		uxth	r3, r3
 5486 0ed4 1946     		mov	r1, r3
 5487 0ed6 1046     		mov	r0, r2
 5488 0ed8 FFF7FEFF 		bl	EEPROM_1_WriteByte
 824:printer.c     ****         EEPROM_1_WriteByte(side.d.ProcessedTotals[0][0][x],66+x);
 5489              		.loc 1 824 0 discriminator 3
 5490 0edc 97F83E30 		ldrb	r3, [r7, #62]	@ zero_extendqisi2
 5491 0ee0 0133     		adds	r3, r3, #1
 5492 0ee2 87F83E30 		strb	r3, [r7, #62]
 5493              	.L348:
 824:printer.c     ****         EEPROM_1_WriteByte(side.d.ProcessedTotals[0][0][x],66+x);
 5494              		.loc 1 824 0 is_stmt 0 discriminator 1
 5495 0ee6 97F83E30 		ldrb	r3, [r7, #62]	@ zero_extendqisi2
 5496 0eea 092B     		cmp	r3, #9
 5497 0eec E7D9     		bls	.L349
 5498              	.LBE144:
 826:printer.c     ****     }
 827:printer.c     **** }
 5499              		.loc 1 827 0 is_stmt 1
 5500 0eee 00BF     		nop
 5501 0ef0 7437     		adds	r7, r7, #116
 5502              		.cfi_def_cfa_offset 12
 5503 0ef2 BD46     		mov	sp, r7
 5504              		.cfi_def_cfa_register 13
 5505              		@ sp needed
 5506 0ef4 90BD     		pop	{r4, r7, pc}
 5507              	.L360:
 5508 0ef6 00BF     		.align	2
 5509              	.L359:
 5510 0ef8 00000000 		.word	SEPARATOR
 5511 0efc 00000000 		.word	LINE_FEED
 5512 0f00 00000000 		.word	msn_footer
 5513 0f04 00000000 		.word	msn_footer2
 5514 0f08 00000000 		.word	side
 5515              		.cfi_endproc
 5516              	.LFE65:
 5517              		.size	PrintShift, .-PrintShift
ARM GAS  C:\Users\THERMA~1\AppData\Local\Temp\ccXswU2c.s 			page 120


 5518              		.text
 5519              	.Letext0:
 5520              		.file 2 "c:\\program files (x86)\\cypress\\psoc creator\\4.2\\psoc creator\\import\\gnu\\arm\\5.4.
 5521              		.file 3 "c:\\program files (x86)\\cypress\\psoc creator\\4.2\\psoc creator\\import\\gnu\\arm\\5.4.
 5522              		.file 4 "Generated_Source\\PSoC5/cytypes.h"
 5523              		.file 5 "./GVar.h"
 5524              		.file 6 "Generated_Source\\PSoC5/core_cm3.h"
 5525              		.section	.debug_info,"",%progbits
 5526              	.Ldebug_info0:
 5527 0000 4E180000 		.4byte	0x184e
 5528 0004 0400     		.2byte	0x4
 5529 0006 00000000 		.4byte	.Ldebug_abbrev0
 5530 000a 04       		.byte	0x4
 5531 000b 01       		.uleb128 0x1
 5532 000c 4C000000 		.4byte	.LASF122
 5533 0010 0C       		.byte	0xc
 5534 0011 F7040000 		.4byte	.LASF123
 5535 0015 1C050000 		.4byte	.LASF124
 5536 0019 00000000 		.4byte	.Ldebug_ranges0+0
 5537 001d 00000000 		.4byte	0
 5538 0021 00000000 		.4byte	.Ldebug_line0
 5539 0025 02       		.uleb128 0x2
 5540 0026 01       		.byte	0x1
 5541 0027 06       		.byte	0x6
 5542 0028 56050000 		.4byte	.LASF0
 5543 002c 02       		.uleb128 0x2
 5544 002d 01       		.byte	0x1
 5545 002e 08       		.byte	0x8
 5546 002f 95040000 		.4byte	.LASF1
 5547 0033 02       		.uleb128 0x2
 5548 0034 02       		.byte	0x2
 5549 0035 05       		.byte	0x5
 5550 0036 9D030000 		.4byte	.LASF2
 5551 003a 02       		.uleb128 0x2
 5552 003b 02       		.byte	0x2
 5553 003c 07       		.byte	0x7
 5554 003d 62050000 		.4byte	.LASF3
 5555 0041 03       		.uleb128 0x3
 5556 0042 3B000000 		.4byte	.LASF9
 5557 0046 02       		.byte	0x2
 5558 0047 3F       		.byte	0x3f
 5559 0048 4C000000 		.4byte	0x4c
 5560 004c 02       		.uleb128 0x2
 5561 004d 04       		.byte	0x4
 5562 004e 05       		.byte	0x5
 5563 004f AE030000 		.4byte	.LASF4
 5564 0053 02       		.uleb128 0x2
 5565 0054 04       		.byte	0x4
 5566 0055 07       		.byte	0x7
 5567 0056 40040000 		.4byte	.LASF5
 5568 005a 02       		.uleb128 0x2
 5569 005b 08       		.byte	0x8
 5570 005c 05       		.byte	0x5
 5571 005d F4020000 		.4byte	.LASF6
 5572 0061 02       		.uleb128 0x2
 5573 0062 08       		.byte	0x8
 5574 0063 07       		.byte	0x7
ARM GAS  C:\Users\THERMA~1\AppData\Local\Temp\ccXswU2c.s 			page 121


 5575 0064 95010000 		.4byte	.LASF7
 5576 0068 04       		.uleb128 0x4
 5577 0069 04       		.byte	0x4
 5578 006a 05       		.byte	0x5
 5579 006b 696E7400 		.ascii	"int\000"
 5580 006f 02       		.uleb128 0x2
 5581 0070 04       		.byte	0x4
 5582 0071 07       		.byte	0x7
 5583 0072 22000000 		.4byte	.LASF8
 5584 0076 03       		.uleb128 0x3
 5585 0077 5A040000 		.4byte	.LASF10
 5586 007b 03       		.byte	0x3
 5587 007c 2C       		.byte	0x2c
 5588 007d 41000000 		.4byte	0x41
 5589 0081 05       		.uleb128 0x5
 5590 0082 C1050000 		.4byte	.LASF11
 5591 0086 04       		.byte	0x4
 5592 0087 E401     		.2byte	0x1e4
 5593 0089 2C000000 		.4byte	0x2c
 5594 008d 05       		.uleb128 0x5
 5595 008e B6020000 		.4byte	.LASF12
 5596 0092 04       		.byte	0x4
 5597 0093 E501     		.2byte	0x1e5
 5598 0095 3A000000 		.4byte	0x3a
 5599 0099 05       		.uleb128 0x5
 5600 009a 3A030000 		.4byte	.LASF13
 5601 009e 04       		.byte	0x4
 5602 009f E601     		.2byte	0x1e6
 5603 00a1 53000000 		.4byte	0x53
 5604 00a5 05       		.uleb128 0x5
 5605 00a6 BD020000 		.4byte	.LASF14
 5606 00aa 04       		.byte	0x4
 5607 00ab E701     		.2byte	0x1e7
 5608 00ad 25000000 		.4byte	0x25
 5609 00b1 02       		.uleb128 0x2
 5610 00b2 04       		.byte	0x4
 5611 00b3 04       		.byte	0x4
 5612 00b4 63010000 		.4byte	.LASF15
 5613 00b8 02       		.uleb128 0x2
 5614 00b9 08       		.byte	0x8
 5615 00ba 04       		.byte	0x4
 5616 00bb C7050000 		.4byte	.LASF16
 5617 00bf 05       		.uleb128 0x5
 5618 00c0 CD020000 		.4byte	.LASF17
 5619 00c4 04       		.byte	0x4
 5620 00c5 F501     		.2byte	0x1f5
 5621 00c7 CB000000 		.4byte	0xcb
 5622 00cb 02       		.uleb128 0x2
 5623 00cc 01       		.byte	0x1
 5624 00cd 08       		.byte	0x8
 5625 00ce 92020000 		.4byte	.LASF18
 5626 00d2 02       		.uleb128 0x2
 5627 00d3 08       		.byte	0x8
 5628 00d4 04       		.byte	0x4
 5629 00d5 72030000 		.4byte	.LASF19
 5630 00d9 02       		.uleb128 0x2
 5631 00da 04       		.byte	0x4
ARM GAS  C:\Users\THERMA~1\AppData\Local\Temp\ccXswU2c.s 			page 122


 5632 00db 07       		.byte	0x7
 5633 00dc 37040000 		.4byte	.LASF20
 5634 00e0 06       		.uleb128 0x6
 5635 00e1 F7050000 		.4byte	.LASF37
 5636 00e5 3501     		.2byte	0x135
 5637 00e7 05       		.byte	0x5
 5638 00e8 23       		.byte	0x23
 5639 00e9 CC010000 		.4byte	0x1cc
 5640 00ed 07       		.uleb128 0x7
 5641 00ee 64697200 		.ascii	"dir\000"
 5642 00f2 05       		.byte	0x5
 5643 00f3 24       		.byte	0x24
 5644 00f4 81000000 		.4byte	0x81
 5645 00f8 00       		.byte	0
 5646 00f9 08       		.uleb128 0x8
 5647 00fa 0F040000 		.4byte	.LASF21
 5648 00fe 05       		.byte	0x5
 5649 00ff 25       		.byte	0x25
 5650 0100 CC010000 		.4byte	0x1cc
 5651 0104 01       		.byte	0x1
 5652 0105 08       		.uleb128 0x8
 5653 0106 16030000 		.4byte	.LASF22
 5654 010a 05       		.byte	0x5
 5655 010b 26       		.byte	0x26
 5656 010c E8010000 		.4byte	0x1e8
 5657 0110 29       		.byte	0x29
 5658 0111 08       		.uleb128 0x8
 5659 0112 EA020000 		.4byte	.LASF23
 5660 0116 05       		.byte	0x5
 5661 0117 27       		.byte	0x27
 5662 0118 FE010000 		.4byte	0x1fe
 5663 011c 35       		.byte	0x35
 5664 011d 08       		.uleb128 0x8
 5665 011e 0A050000 		.4byte	.LASF24
 5666 0122 05       		.byte	0x5
 5667 0123 28       		.byte	0x28
 5668 0124 FE010000 		.4byte	0x1fe
 5669 0128 39       		.byte	0x39
 5670 0129 08       		.uleb128 0x8
 5671 012a 02030000 		.4byte	.LASF25
 5672 012e 05       		.byte	0x5
 5673 012f 29       		.byte	0x29
 5674 0130 0E020000 		.4byte	0x20e
 5675 0134 3D       		.byte	0x3d
 5676 0135 08       		.uleb128 0x8
 5677 0136 91050000 		.4byte	.LASF26
 5678 013a 05       		.byte	0x5
 5679 013b 2A       		.byte	0x2a
 5680 013c 81000000 		.4byte	0x81
 5681 0140 4B       		.byte	0x4b
 5682 0141 08       		.uleb128 0x8
 5683 0142 8B020000 		.4byte	.LASF27
 5684 0146 05       		.byte	0x5
 5685 0147 2B       		.byte	0x2b
 5686 0148 1E020000 		.4byte	0x21e
 5687 014c 4C       		.byte	0x4c
 5688 014d 08       		.uleb128 0x8
ARM GAS  C:\Users\THERMA~1\AppData\Local\Temp\ccXswU2c.s 			page 123


 5689 014e 59030000 		.4byte	.LASF28
 5690 0152 05       		.byte	0x5
 5691 0153 2C       		.byte	0x2c
 5692 0154 2E020000 		.4byte	0x22e
 5693 0158 51       		.byte	0x51
 5694 0159 08       		.uleb128 0x8
 5695 015a C4030000 		.4byte	.LASF29
 5696 015e 05       		.byte	0x5
 5697 015f 2D       		.byte	0x2d
 5698 0160 3E020000 		.4byte	0x23e
 5699 0164 83       		.byte	0x83
 5700 0165 08       		.uleb128 0x8
 5701 0166 63020000 		.4byte	.LASF30
 5702 016a 05       		.byte	0x5
 5703 016b 2E       		.byte	0x2e
 5704 016c 5A020000 		.4byte	0x25a
 5705 0170 FB       		.byte	0xfb
 5706 0171 09       		.uleb128 0x9
 5707 0172 03010000 		.4byte	.LASF31
 5708 0176 05       		.byte	0x5
 5709 0177 2F       		.byte	0x2f
 5710 0178 5A020000 		.4byte	0x25a
 5711 017c 0301     		.2byte	0x103
 5712 017e 09       		.uleb128 0x9
 5713 017f 33010000 		.4byte	.LASF32
 5714 0183 05       		.byte	0x5
 5715 0184 30       		.byte	0x30
 5716 0185 6A020000 		.4byte	0x26a
 5717 0189 0B01     		.2byte	0x10b
 5718 018b 09       		.uleb128 0x9
 5719 018c 14020000 		.4byte	.LASF33
 5720 0190 05       		.byte	0x5
 5721 0191 31       		.byte	0x31
 5722 0192 5A020000 		.4byte	0x25a
 5723 0196 2301     		.2byte	0x123
 5724 0198 09       		.uleb128 0x9
 5725 0199 DB040000 		.4byte	.LASF34
 5726 019d 05       		.byte	0x5
 5727 019e 32       		.byte	0x32
 5728 019f 81000000 		.4byte	0x81
 5729 01a3 2B01     		.2byte	0x12b
 5730 01a5 09       		.uleb128 0x9
 5731 01a6 00000000 		.4byte	.LASF35
 5732 01aa 05       		.byte	0x5
 5733 01ab 33       		.byte	0x33
 5734 01ac 81000000 		.4byte	0x81
 5735 01b0 2C01     		.2byte	0x12c
 5736 01b2 0A       		.uleb128 0xa
 5737 01b3 6B6D00   		.ascii	"km\000"
 5738 01b6 05       		.byte	0x5
 5739 01b7 34       		.byte	0x34
 5740 01b8 80020000 		.4byte	0x280
 5741 01bc 2D01     		.2byte	0x12d
 5742 01be 09       		.uleb128 0x9
 5743 01bf E9030000 		.4byte	.LASF36
 5744 01c3 05       		.byte	0x5
 5745 01c4 35       		.byte	0x35
ARM GAS  C:\Users\THERMA~1\AppData\Local\Temp\ccXswU2c.s 			page 124


 5746 01c5 81000000 		.4byte	0x81
 5747 01c9 3401     		.2byte	0x134
 5748 01cb 00       		.byte	0
 5749 01cc 0B       		.uleb128 0xb
 5750 01cd 81000000 		.4byte	0x81
 5751 01d1 E8010000 		.4byte	0x1e8
 5752 01d5 0C       		.uleb128 0xc
 5753 01d6 D9000000 		.4byte	0xd9
 5754 01da 03       		.byte	0x3
 5755 01db 0C       		.uleb128 0xc
 5756 01dc D9000000 		.4byte	0xd9
 5757 01e0 01       		.byte	0x1
 5758 01e1 0C       		.uleb128 0xc
 5759 01e2 D9000000 		.4byte	0xd9
 5760 01e6 04       		.byte	0x4
 5761 01e7 00       		.byte	0
 5762 01e8 0B       		.uleb128 0xb
 5763 01e9 81000000 		.4byte	0x81
 5764 01ed FE010000 		.4byte	0x1fe
 5765 01f1 0C       		.uleb128 0xc
 5766 01f2 D9000000 		.4byte	0xd9
 5767 01f6 03       		.byte	0x3
 5768 01f7 0C       		.uleb128 0xc
 5769 01f8 D9000000 		.4byte	0xd9
 5770 01fc 02       		.byte	0x2
 5771 01fd 00       		.byte	0
 5772 01fe 0B       		.uleb128 0xb
 5773 01ff 81000000 		.4byte	0x81
 5774 0203 0E020000 		.4byte	0x20e
 5775 0207 0C       		.uleb128 0xc
 5776 0208 D9000000 		.4byte	0xd9
 5777 020c 03       		.byte	0x3
 5778 020d 00       		.byte	0
 5779 020e 0B       		.uleb128 0xb
 5780 020f 81000000 		.4byte	0x81
 5781 0213 1E020000 		.4byte	0x21e
 5782 0217 0C       		.uleb128 0xc
 5783 0218 D9000000 		.4byte	0xd9
 5784 021c 0D       		.byte	0xd
 5785 021d 00       		.byte	0
 5786 021e 0B       		.uleb128 0xb
 5787 021f 81000000 		.4byte	0x81
 5788 0223 2E020000 		.4byte	0x22e
 5789 0227 0C       		.uleb128 0xc
 5790 0228 D9000000 		.4byte	0xd9
 5791 022c 04       		.byte	0x4
 5792 022d 00       		.byte	0
 5793 022e 0B       		.uleb128 0xb
 5794 022f 81000000 		.4byte	0x81
 5795 0233 3E020000 		.4byte	0x23e
 5796 0237 0C       		.uleb128 0xc
 5797 0238 D9000000 		.4byte	0xd9
 5798 023c 31       		.byte	0x31
 5799 023d 00       		.byte	0
 5800 023e 0B       		.uleb128 0xb
 5801 023f BF000000 		.4byte	0xbf
 5802 0243 5A020000 		.4byte	0x25a
ARM GAS  C:\Users\THERMA~1\AppData\Local\Temp\ccXswU2c.s 			page 125


 5803 0247 0C       		.uleb128 0xc
 5804 0248 D9000000 		.4byte	0xd9
 5805 024c 03       		.byte	0x3
 5806 024d 0C       		.uleb128 0xc
 5807 024e D9000000 		.4byte	0xd9
 5808 0252 02       		.byte	0x2
 5809 0253 0C       		.uleb128 0xc
 5810 0254 D9000000 		.4byte	0xd9
 5811 0258 09       		.byte	0x9
 5812 0259 00       		.byte	0
 5813 025a 0B       		.uleb128 0xb
 5814 025b 81000000 		.4byte	0x81
 5815 025f 6A020000 		.4byte	0x26a
 5816 0263 0C       		.uleb128 0xc
 5817 0264 D9000000 		.4byte	0xd9
 5818 0268 07       		.byte	0x7
 5819 0269 00       		.byte	0
 5820 026a 0B       		.uleb128 0xb
 5821 026b 81000000 		.4byte	0x81
 5822 026f 80020000 		.4byte	0x280
 5823 0273 0C       		.uleb128 0xc
 5824 0274 D9000000 		.4byte	0xd9
 5825 0278 03       		.byte	0x3
 5826 0279 0C       		.uleb128 0xc
 5827 027a D9000000 		.4byte	0xd9
 5828 027e 05       		.byte	0x5
 5829 027f 00       		.byte	0
 5830 0280 0B       		.uleb128 0xb
 5831 0281 81000000 		.4byte	0x81
 5832 0285 90020000 		.4byte	0x290
 5833 0289 0C       		.uleb128 0xc
 5834 028a D9000000 		.4byte	0xd9
 5835 028e 06       		.byte	0x6
 5836 028f 00       		.byte	0
 5837 0290 06       		.uleb128 0x6
 5838 0291 E6040000 		.4byte	.LASF38
 5839 0295 D404     		.2byte	0x4d4
 5840 0297 05       		.byte	0x5
 5841 0298 38       		.byte	0x38
 5842 0299 C9020000 		.4byte	0x2c9
 5843 029d 07       		.uleb128 0x7
 5844 029e 6100     		.ascii	"a\000"
 5845 02a0 05       		.byte	0x5
 5846 02a1 39       		.byte	0x39
 5847 02a2 E0000000 		.4byte	0xe0
 5848 02a6 00       		.byte	0
 5849 02a7 0A       		.uleb128 0xa
 5850 02a8 6200     		.ascii	"b\000"
 5851 02aa 05       		.byte	0x5
 5852 02ab 3A       		.byte	0x3a
 5853 02ac E0000000 		.4byte	0xe0
 5854 02b0 3501     		.2byte	0x135
 5855 02b2 0A       		.uleb128 0xa
 5856 02b3 6300     		.ascii	"c\000"
 5857 02b5 05       		.byte	0x5
 5858 02b6 3B       		.byte	0x3b
 5859 02b7 E0000000 		.4byte	0xe0
ARM GAS  C:\Users\THERMA~1\AppData\Local\Temp\ccXswU2c.s 			page 126


 5860 02bb 6A02     		.2byte	0x26a
 5861 02bd 0A       		.uleb128 0xa
 5862 02be 6400     		.ascii	"d\000"
 5863 02c0 05       		.byte	0x5
 5864 02c1 3C       		.byte	0x3c
 5865 02c2 E0000000 		.4byte	0xe0
 5866 02c6 9F03     		.2byte	0x39f
 5867 02c8 00       		.byte	0
 5868 02c9 0D       		.uleb128 0xd
 5869 02ca 6C040000 		.4byte	.LASF41
 5870 02ce 01       		.byte	0x1
 5871 02cf 4F       		.byte	0x4f
 5872 02d0 00000000 		.4byte	.LFB64
 5873 02d4 94170000 		.4byte	.LFE64-.LFB64
 5874 02d8 01       		.uleb128 0x1
 5875 02d9 9C       		.byte	0x9c
 5876 02da 110D0000 		.4byte	0xd11
 5877 02de 0E       		.uleb128 0xe
 5878 02df 52040000 		.4byte	.LASF125
 5879 02e3 01       		.byte	0x1
 5880 02e4 4F       		.byte	0x4f
 5881 02e5 81000000 		.4byte	0x81
 5882 02e9 03       		.uleb128 0x3
 5883 02ea 91       		.byte	0x91
 5884 02eb 8F7F     		.sleb128 -113
 5885 02ed 0F       		.uleb128 0xf
 5886 02ee 79040000 		.4byte	.LASF39
 5887 02f2 01       		.byte	0x1
 5888 02f3 50       		.byte	0x50
 5889 02f4 A5000000 		.4byte	0xa5
 5890 02f8 02       		.uleb128 0x2
 5891 02f9 91       		.byte	0x91
 5892 02fa 6F       		.sleb128 -17
 5893 02fb 10       		.uleb128 0x10
 5894 02fc 62010000 		.4byte	.LBB2
 5895 0300 30000000 		.4byte	.LBE2-.LBB2
 5896 0304 15030000 		.4byte	0x315
 5897 0308 11       		.uleb128 0x11
 5898 0309 6900     		.ascii	"i\000"
 5899 030b 01       		.byte	0x1
 5900 030c 57       		.byte	0x57
 5901 030d 81000000 		.4byte	0x81
 5902 0311 02       		.uleb128 0x2
 5903 0312 91       		.byte	0x91
 5904 0313 6E       		.sleb128 -18
 5905 0314 00       		.byte	0
 5906 0315 10       		.uleb128 0x10
 5907 0316 94010000 		.4byte	.LBB3
 5908 031a 28000000 		.4byte	.LBE3-.LBB3
 5909 031e 31030000 		.4byte	0x331
 5910 0322 0F       		.uleb128 0xf
 5911 0323 E5010000 		.4byte	.LASF40
 5912 0327 01       		.byte	0x1
 5913 0328 5B       		.byte	0x5b
 5914 0329 81000000 		.4byte	0x81
 5915 032d 02       		.uleb128 0x2
 5916 032e 91       		.byte	0x91
ARM GAS  C:\Users\THERMA~1\AppData\Local\Temp\ccXswU2c.s 			page 127


 5917 032f 6D       		.sleb128 -19
 5918 0330 00       		.byte	0
 5919 0331 10       		.uleb128 0x10
 5920 0332 DC010000 		.4byte	.LBB4
 5921 0336 2E000000 		.4byte	.LBE4-.LBB4
 5922 033a 4D030000 		.4byte	0x34d
 5923 033e 0F       		.uleb128 0xf
 5924 033f E5010000 		.4byte	.LASF40
 5925 0343 01       		.byte	0x1
 5926 0344 62       		.byte	0x62
 5927 0345 81000000 		.4byte	0x81
 5928 0349 02       		.uleb128 0x2
 5929 034a 91       		.byte	0x91
 5930 034b 6C       		.sleb128 -20
 5931 034c 00       		.byte	0
 5932 034d 10       		.uleb128 0x10
 5933 034e 10020000 		.4byte	.LBB5
 5934 0352 28000000 		.4byte	.LBE5-.LBB5
 5935 0356 67030000 		.4byte	0x367
 5936 035a 11       		.uleb128 0x11
 5937 035b 7800     		.ascii	"x\000"
 5938 035d 01       		.byte	0x1
 5939 035e 67       		.byte	0x67
 5940 035f 81000000 		.4byte	0x81
 5941 0363 02       		.uleb128 0x2
 5942 0364 91       		.byte	0x91
 5943 0365 6B       		.sleb128 -21
 5944 0366 00       		.byte	0
 5945 0367 10       		.uleb128 0x10
 5946 0368 42020000 		.4byte	.LBB6
 5947 036c 28000000 		.4byte	.LBE6-.LBB6
 5948 0370 81030000 		.4byte	0x381
 5949 0374 11       		.uleb128 0x11
 5950 0375 7800     		.ascii	"x\000"
 5951 0377 01       		.byte	0x1
 5952 0378 6B       		.byte	0x6b
 5953 0379 81000000 		.4byte	0x81
 5954 037d 02       		.uleb128 0x2
 5955 037e 91       		.byte	0x91
 5956 037f 6A       		.sleb128 -22
 5957 0380 00       		.byte	0
 5958 0381 10       		.uleb128 0x10
 5959 0382 74020000 		.4byte	.LBB7
 5960 0386 28000000 		.4byte	.LBE7-.LBB7
 5961 038a 9B030000 		.4byte	0x39b
 5962 038e 11       		.uleb128 0x11
 5963 038f 7800     		.ascii	"x\000"
 5964 0391 01       		.byte	0x1
 5965 0392 73       		.byte	0x73
 5966 0393 81000000 		.4byte	0x81
 5967 0397 02       		.uleb128 0x2
 5968 0398 91       		.byte	0x91
 5969 0399 69       		.sleb128 -23
 5970 039a 00       		.byte	0
 5971 039b 10       		.uleb128 0x10
 5972 039c A6020000 		.4byte	.LBB8
 5973 03a0 28000000 		.4byte	.LBE8-.LBB8
ARM GAS  C:\Users\THERMA~1\AppData\Local\Temp\ccXswU2c.s 			page 128


 5974 03a4 B5030000 		.4byte	0x3b5
 5975 03a8 11       		.uleb128 0x11
 5976 03a9 7800     		.ascii	"x\000"
 5977 03ab 01       		.byte	0x1
 5978 03ac 77       		.byte	0x77
 5979 03ad 81000000 		.4byte	0x81
 5980 03b1 02       		.uleb128 0x2
 5981 03b2 91       		.byte	0x91
 5982 03b3 68       		.sleb128 -24
 5983 03b4 00       		.byte	0
 5984 03b5 10       		.uleb128 0x10
 5985 03b6 D8020000 		.4byte	.LBB9
 5986 03ba 28000000 		.4byte	.LBE9-.LBB9
 5987 03be CF030000 		.4byte	0x3cf
 5988 03c2 11       		.uleb128 0x11
 5989 03c3 7800     		.ascii	"x\000"
 5990 03c5 01       		.byte	0x1
 5991 03c6 7B       		.byte	0x7b
 5992 03c7 81000000 		.4byte	0x81
 5993 03cb 02       		.uleb128 0x2
 5994 03cc 91       		.byte	0x91
 5995 03cd 67       		.sleb128 -25
 5996 03ce 00       		.byte	0
 5997 03cf 10       		.uleb128 0x10
 5998 03d0 0A030000 		.4byte	.LBB10
 5999 03d4 28000000 		.4byte	.LBE10-.LBB10
 6000 03d8 E9030000 		.4byte	0x3e9
 6001 03dc 11       		.uleb128 0x11
 6002 03dd 7800     		.ascii	"x\000"
 6003 03df 01       		.byte	0x1
 6004 03e0 7F       		.byte	0x7f
 6005 03e1 81000000 		.4byte	0x81
 6006 03e5 02       		.uleb128 0x2
 6007 03e6 91       		.byte	0x91
 6008 03e7 66       		.sleb128 -26
 6009 03e8 00       		.byte	0
 6010 03e9 10       		.uleb128 0x10
 6011 03ea 3C030000 		.4byte	.LBB11
 6012 03ee 64000000 		.4byte	.LBE11-.LBB11
 6013 03f2 03040000 		.4byte	0x403
 6014 03f6 11       		.uleb128 0x11
 6015 03f7 7800     		.ascii	"x\000"
 6016 03f9 01       		.byte	0x1
 6017 03fa 84       		.byte	0x84
 6018 03fb 81000000 		.4byte	0x81
 6019 03ff 02       		.uleb128 0x2
 6020 0400 91       		.byte	0x91
 6021 0401 65       		.sleb128 -27
 6022 0402 00       		.byte	0
 6023 0403 10       		.uleb128 0x10
 6024 0404 28040000 		.4byte	.LBB12
 6025 0408 28000000 		.4byte	.LBE12-.LBB12
 6026 040c 1D040000 		.4byte	0x41d
 6027 0410 11       		.uleb128 0x11
 6028 0411 7800     		.ascii	"x\000"
 6029 0413 01       		.byte	0x1
 6030 0414 91       		.byte	0x91
ARM GAS  C:\Users\THERMA~1\AppData\Local\Temp\ccXswU2c.s 			page 129


 6031 0415 81000000 		.4byte	0x81
 6032 0419 02       		.uleb128 0x2
 6033 041a 91       		.byte	0x91
 6034 041b 64       		.sleb128 -28
 6035 041c 00       		.byte	0
 6036 041d 10       		.uleb128 0x10
 6037 041e D8040000 		.4byte	.LBB13
 6038 0422 28000000 		.4byte	.LBE13-.LBB13
 6039 0426 37040000 		.4byte	0x437
 6040 042a 11       		.uleb128 0x11
 6041 042b 7800     		.ascii	"x\000"
 6042 042d 01       		.byte	0x1
 6043 042e 9E       		.byte	0x9e
 6044 042f 81000000 		.4byte	0x81
 6045 0433 02       		.uleb128 0x2
 6046 0434 91       		.byte	0x91
 6047 0435 63       		.sleb128 -29
 6048 0436 00       		.byte	0
 6049 0437 10       		.uleb128 0x10
 6050 0438 16050000 		.4byte	.LBB14
 6051 043c 28000000 		.4byte	.LBE14-.LBB14
 6052 0440 51040000 		.4byte	0x451
 6053 0444 11       		.uleb128 0x11
 6054 0445 7800     		.ascii	"x\000"
 6055 0447 01       		.byte	0x1
 6056 0448 A5       		.byte	0xa5
 6057 0449 81000000 		.4byte	0x81
 6058 044d 02       		.uleb128 0x2
 6059 044e 91       		.byte	0x91
 6060 044f 62       		.sleb128 -30
 6061 0450 00       		.byte	0
 6062 0451 10       		.uleb128 0x10
 6063 0452 48050000 		.4byte	.LBB15
 6064 0456 28000000 		.4byte	.LBE15-.LBB15
 6065 045a 6B040000 		.4byte	0x46b
 6066 045e 11       		.uleb128 0x11
 6067 045f 7800     		.ascii	"x\000"
 6068 0461 01       		.byte	0x1
 6069 0462 A9       		.byte	0xa9
 6070 0463 81000000 		.4byte	0x81
 6071 0467 02       		.uleb128 0x2
 6072 0468 91       		.byte	0x91
 6073 0469 61       		.sleb128 -31
 6074 046a 00       		.byte	0
 6075 046b 10       		.uleb128 0x10
 6076 046c 7A050000 		.4byte	.LBB16
 6077 0470 28000000 		.4byte	.LBE16-.LBB16
 6078 0474 85040000 		.4byte	0x485
 6079 0478 11       		.uleb128 0x11
 6080 0479 7800     		.ascii	"x\000"
 6081 047b 01       		.byte	0x1
 6082 047c AE       		.byte	0xae
 6083 047d 81000000 		.4byte	0x81
 6084 0481 02       		.uleb128 0x2
 6085 0482 91       		.byte	0x91
 6086 0483 60       		.sleb128 -32
 6087 0484 00       		.byte	0
ARM GAS  C:\Users\THERMA~1\AppData\Local\Temp\ccXswU2c.s 			page 130


 6088 0485 10       		.uleb128 0x10
 6089 0486 AC050000 		.4byte	.LBB17
 6090 048a 2A000000 		.4byte	.LBE17-.LBB17
 6091 048e 9F040000 		.4byte	0x49f
 6092 0492 11       		.uleb128 0x11
 6093 0493 7800     		.ascii	"x\000"
 6094 0495 01       		.byte	0x1
 6095 0496 B2       		.byte	0xb2
 6096 0497 81000000 		.4byte	0x81
 6097 049b 02       		.uleb128 0x2
 6098 049c 91       		.byte	0x91
 6099 049d 5F       		.sleb128 -33
 6100 049e 00       		.byte	0
 6101 049f 10       		.uleb128 0x10
 6102 04a0 D6050000 		.4byte	.LBB18
 6103 04a4 28000000 		.4byte	.LBE18-.LBB18
 6104 04a8 B9040000 		.4byte	0x4b9
 6105 04ac 11       		.uleb128 0x11
 6106 04ad 7800     		.ascii	"x\000"
 6107 04af 01       		.byte	0x1
 6108 04b0 B6       		.byte	0xb6
 6109 04b1 81000000 		.4byte	0x81
 6110 04b5 02       		.uleb128 0x2
 6111 04b6 91       		.byte	0x91
 6112 04b7 5E       		.sleb128 -34
 6113 04b8 00       		.byte	0
 6114 04b9 10       		.uleb128 0x10
 6115 04ba 14060000 		.4byte	.LBB19
 6116 04be 28000000 		.4byte	.LBE19-.LBB19
 6117 04c2 D3040000 		.4byte	0x4d3
 6118 04c6 11       		.uleb128 0x11
 6119 04c7 7800     		.ascii	"x\000"
 6120 04c9 01       		.byte	0x1
 6121 04ca BC       		.byte	0xbc
 6122 04cb 81000000 		.4byte	0x81
 6123 04cf 02       		.uleb128 0x2
 6124 04d0 91       		.byte	0x91
 6125 04d1 5D       		.sleb128 -35
 6126 04d2 00       		.byte	0
 6127 04d3 10       		.uleb128 0x10
 6128 04d4 3C060000 		.4byte	.LBB20
 6129 04d8 2C000000 		.4byte	.LBE20-.LBB20
 6130 04dc ED040000 		.4byte	0x4ed
 6131 04e0 11       		.uleb128 0x11
 6132 04e1 7800     		.ascii	"x\000"
 6133 04e3 01       		.byte	0x1
 6134 04e4 BF       		.byte	0xbf
 6135 04e5 81000000 		.4byte	0x81
 6136 04e9 02       		.uleb128 0x2
 6137 04ea 91       		.byte	0x91
 6138 04eb 5C       		.sleb128 -36
 6139 04ec 00       		.byte	0
 6140 04ed 10       		.uleb128 0x10
 6141 04ee 72060000 		.4byte	.LBB21
 6142 04f2 5A000000 		.4byte	.LBE21-.LBB21
 6143 04f6 07050000 		.4byte	0x507
 6144 04fa 11       		.uleb128 0x11
ARM GAS  C:\Users\THERMA~1\AppData\Local\Temp\ccXswU2c.s 			page 131


 6145 04fb 7800     		.ascii	"x\000"
 6146 04fd 01       		.byte	0x1
 6147 04fe C3       		.byte	0xc3
 6148 04ff 81000000 		.4byte	0x81
 6149 0503 02       		.uleb128 0x2
 6150 0504 91       		.byte	0x91
 6151 0505 5B       		.sleb128 -37
 6152 0506 00       		.byte	0
 6153 0507 10       		.uleb128 0x10
 6154 0508 CC060000 		.4byte	.LBB22
 6155 050c 2C000000 		.4byte	.LBE22-.LBB22
 6156 0510 21050000 		.4byte	0x521
 6157 0514 11       		.uleb128 0x11
 6158 0515 7800     		.ascii	"x\000"
 6159 0517 01       		.byte	0x1
 6160 0518 C6       		.byte	0xc6
 6161 0519 81000000 		.4byte	0x81
 6162 051d 02       		.uleb128 0x2
 6163 051e 91       		.byte	0x91
 6164 051f 5A       		.sleb128 -38
 6165 0520 00       		.byte	0
 6166 0521 10       		.uleb128 0x10
 6167 0522 02070000 		.4byte	.LBB23
 6168 0526 28000000 		.4byte	.LBE23-.LBB23
 6169 052a 3B050000 		.4byte	0x53b
 6170 052e 11       		.uleb128 0x11
 6171 052f 7800     		.ascii	"x\000"
 6172 0531 01       		.byte	0x1
 6173 0532 CA       		.byte	0xca
 6174 0533 81000000 		.4byte	0x81
 6175 0537 02       		.uleb128 0x2
 6176 0538 91       		.byte	0x91
 6177 0539 59       		.sleb128 -39
 6178 053a 00       		.byte	0
 6179 053b 10       		.uleb128 0x10
 6180 053c 42070000 		.4byte	.LBB24
 6181 0540 28000000 		.4byte	.LBE24-.LBB24
 6182 0544 55050000 		.4byte	0x555
 6183 0548 11       		.uleb128 0x11
 6184 0549 7800     		.ascii	"x\000"
 6185 054b 01       		.byte	0x1
 6186 054c CF       		.byte	0xcf
 6187 054d 81000000 		.4byte	0x81
 6188 0551 02       		.uleb128 0x2
 6189 0552 91       		.byte	0x91
 6190 0553 58       		.sleb128 -40
 6191 0554 00       		.byte	0
 6192 0555 10       		.uleb128 0x10
 6193 0556 74070000 		.4byte	.LBB25
 6194 055a 2A000000 		.4byte	.LBE25-.LBB25
 6195 055e 6F050000 		.4byte	0x56f
 6196 0562 11       		.uleb128 0x11
 6197 0563 7800     		.ascii	"x\000"
 6198 0565 01       		.byte	0x1
 6199 0566 D3       		.byte	0xd3
 6200 0567 81000000 		.4byte	0x81
 6201 056b 02       		.uleb128 0x2
ARM GAS  C:\Users\THERMA~1\AppData\Local\Temp\ccXswU2c.s 			page 132


 6202 056c 91       		.byte	0x91
 6203 056d 57       		.sleb128 -41
 6204 056e 00       		.byte	0
 6205 056f 10       		.uleb128 0x10
 6206 0570 9E070000 		.4byte	.LBB26
 6207 0574 28000000 		.4byte	.LBE26-.LBB26
 6208 0578 89050000 		.4byte	0x589
 6209 057c 11       		.uleb128 0x11
 6210 057d 7800     		.ascii	"x\000"
 6211 057f 01       		.byte	0x1
 6212 0580 D7       		.byte	0xd7
 6213 0581 81000000 		.4byte	0x81
 6214 0585 02       		.uleb128 0x2
 6215 0586 91       		.byte	0x91
 6216 0587 56       		.sleb128 -42
 6217 0588 00       		.byte	0
 6218 0589 10       		.uleb128 0x10
 6219 058a D0070000 		.4byte	.LBB27
 6220 058e 28000000 		.4byte	.LBE27-.LBB27
 6221 0592 A3050000 		.4byte	0x5a3
 6222 0596 11       		.uleb128 0x11
 6223 0597 7800     		.ascii	"x\000"
 6224 0599 01       		.byte	0x1
 6225 059a DC       		.byte	0xdc
 6226 059b 81000000 		.4byte	0x81
 6227 059f 02       		.uleb128 0x2
 6228 05a0 91       		.byte	0x91
 6229 05a1 55       		.sleb128 -43
 6230 05a2 00       		.byte	0
 6231 05a3 10       		.uleb128 0x10
 6232 05a4 08080000 		.4byte	.LBB28
 6233 05a8 40000000 		.4byte	.LBE28-.LBB28
 6234 05ac BD050000 		.4byte	0x5bd
 6235 05b0 11       		.uleb128 0x11
 6236 05b1 7800     		.ascii	"x\000"
 6237 05b3 01       		.byte	0x1
 6238 05b4 E1       		.byte	0xe1
 6239 05b5 81000000 		.4byte	0x81
 6240 05b9 02       		.uleb128 0x2
 6241 05ba 91       		.byte	0x91
 6242 05bb 54       		.sleb128 -44
 6243 05bc 00       		.byte	0
 6244 05bd 10       		.uleb128 0x10
 6245 05be 52080000 		.4byte	.LBB29
 6246 05c2 28000000 		.4byte	.LBE29-.LBB29
 6247 05c6 D7050000 		.4byte	0x5d7
 6248 05ca 11       		.uleb128 0x11
 6249 05cb 7800     		.ascii	"x\000"
 6250 05cd 01       		.byte	0x1
 6251 05ce E5       		.byte	0xe5
 6252 05cf 81000000 		.4byte	0x81
 6253 05d3 02       		.uleb128 0x2
 6254 05d4 91       		.byte	0x91
 6255 05d5 53       		.sleb128 -45
 6256 05d6 00       		.byte	0
 6257 05d7 10       		.uleb128 0x10
 6258 05d8 7A080000 		.4byte	.LBB30
ARM GAS  C:\Users\THERMA~1\AppData\Local\Temp\ccXswU2c.s 			page 133


 6259 05dc 42000000 		.4byte	.LBE30-.LBB30
 6260 05e0 F1050000 		.4byte	0x5f1
 6261 05e4 11       		.uleb128 0x11
 6262 05e5 7800     		.ascii	"x\000"
 6263 05e7 01       		.byte	0x1
 6264 05e8 E8       		.byte	0xe8
 6265 05e9 81000000 		.4byte	0x81
 6266 05ed 02       		.uleb128 0x2
 6267 05ee 91       		.byte	0x91
 6268 05ef 52       		.sleb128 -46
 6269 05f0 00       		.byte	0
 6270 05f1 10       		.uleb128 0x10
 6271 05f2 D6080000 		.4byte	.LBB31
 6272 05f6 28000000 		.4byte	.LBE31-.LBB31
 6273 05fa 0B060000 		.4byte	0x60b
 6274 05fe 11       		.uleb128 0x11
 6275 05ff 7800     		.ascii	"x\000"
 6276 0601 01       		.byte	0x1
 6277 0602 F0       		.byte	0xf0
 6278 0603 81000000 		.4byte	0x81
 6279 0607 02       		.uleb128 0x2
 6280 0608 91       		.byte	0x91
 6281 0609 51       		.sleb128 -47
 6282 060a 00       		.byte	0
 6283 060b 10       		.uleb128 0x10
 6284 060c 0E090000 		.4byte	.LBB32
 6285 0610 2C000000 		.4byte	.LBE32-.LBB32
 6286 0614 25060000 		.4byte	0x625
 6287 0618 11       		.uleb128 0x11
 6288 0619 7800     		.ascii	"x\000"
 6289 061b 01       		.byte	0x1
 6290 061c F5       		.byte	0xf5
 6291 061d 81000000 		.4byte	0x81
 6292 0621 02       		.uleb128 0x2
 6293 0622 91       		.byte	0x91
 6294 0623 50       		.sleb128 -48
 6295 0624 00       		.byte	0
 6296 0625 10       		.uleb128 0x10
 6297 0626 64090000 		.4byte	.LBB33
 6298 062a 28000000 		.4byte	.LBE33-.LBB33
 6299 062e 3F060000 		.4byte	0x63f
 6300 0632 11       		.uleb128 0x11
 6301 0633 7800     		.ascii	"x\000"
 6302 0635 01       		.byte	0x1
 6303 0636 FD       		.byte	0xfd
 6304 0637 81000000 		.4byte	0x81
 6305 063b 02       		.uleb128 0x2
 6306 063c 91       		.byte	0x91
 6307 063d 4F       		.sleb128 -49
 6308 063e 00       		.byte	0
 6309 063f 10       		.uleb128 0x10
 6310 0640 96090000 		.4byte	.LBB34
 6311 0644 28000000 		.4byte	.LBE34-.LBB34
 6312 0648 5A060000 		.4byte	0x65a
 6313 064c 12       		.uleb128 0x12
 6314 064d 7800     		.ascii	"x\000"
 6315 064f 01       		.byte	0x1
ARM GAS  C:\Users\THERMA~1\AppData\Local\Temp\ccXswU2c.s 			page 134


 6316 0650 0101     		.2byte	0x101
 6317 0652 81000000 		.4byte	0x81
 6318 0656 02       		.uleb128 0x2
 6319 0657 91       		.byte	0x91
 6320 0658 4E       		.sleb128 -50
 6321 0659 00       		.byte	0
 6322 065a 10       		.uleb128 0x10
 6323 065b C8090000 		.4byte	.LBB35
 6324 065f 64000000 		.4byte	.LBE35-.LBB35
 6325 0663 75060000 		.4byte	0x675
 6326 0667 12       		.uleb128 0x12
 6327 0668 7800     		.ascii	"x\000"
 6328 066a 01       		.byte	0x1
 6329 066b 0601     		.2byte	0x106
 6330 066d 81000000 		.4byte	0x81
 6331 0671 02       		.uleb128 0x2
 6332 0672 91       		.byte	0x91
 6333 0673 4D       		.sleb128 -51
 6334 0674 00       		.byte	0
 6335 0675 10       		.uleb128 0x10
 6336 0676 360A0000 		.4byte	.LBB36
 6337 067a 2A000000 		.4byte	.LBE36-.LBB36
 6338 067e 90060000 		.4byte	0x690
 6339 0682 12       		.uleb128 0x12
 6340 0683 7800     		.ascii	"x\000"
 6341 0685 01       		.byte	0x1
 6342 0686 0A01     		.2byte	0x10a
 6343 0688 81000000 		.4byte	0x81
 6344 068c 02       		.uleb128 0x2
 6345 068d 91       		.byte	0x91
 6346 068e 4C       		.sleb128 -52
 6347 068f 00       		.byte	0
 6348 0690 10       		.uleb128 0x10
 6349 0691 600A0000 		.4byte	.LBB37
 6350 0695 28000000 		.4byte	.LBE37-.LBB37
 6351 0699 AB060000 		.4byte	0x6ab
 6352 069d 12       		.uleb128 0x12
 6353 069e 7800     		.ascii	"x\000"
 6354 06a0 01       		.byte	0x1
 6355 06a1 0E01     		.2byte	0x10e
 6356 06a3 81000000 		.4byte	0x81
 6357 06a7 02       		.uleb128 0x2
 6358 06a8 91       		.byte	0x91
 6359 06a9 4B       		.sleb128 -53
 6360 06aa 00       		.byte	0
 6361 06ab 10       		.uleb128 0x10
 6362 06ac 9E0A0000 		.4byte	.LBB38
 6363 06b0 28000000 		.4byte	.LBE38-.LBB38
 6364 06b4 C6060000 		.4byte	0x6c6
 6365 06b8 12       		.uleb128 0x12
 6366 06b9 7800     		.ascii	"x\000"
 6367 06bb 01       		.byte	0x1
 6368 06bc 1401     		.2byte	0x114
 6369 06be 81000000 		.4byte	0x81
 6370 06c2 02       		.uleb128 0x2
 6371 06c3 91       		.byte	0x91
 6372 06c4 4A       		.sleb128 -54
ARM GAS  C:\Users\THERMA~1\AppData\Local\Temp\ccXswU2c.s 			page 135


 6373 06c5 00       		.byte	0
 6374 06c6 10       		.uleb128 0x10
 6375 06c7 C60A0000 		.4byte	.LBB39
 6376 06cb 2C000000 		.4byte	.LBE39-.LBB39
 6377 06cf E1060000 		.4byte	0x6e1
 6378 06d3 12       		.uleb128 0x12
 6379 06d4 7800     		.ascii	"x\000"
 6380 06d6 01       		.byte	0x1
 6381 06d7 1701     		.2byte	0x117
 6382 06d9 81000000 		.4byte	0x81
 6383 06dd 02       		.uleb128 0x2
 6384 06de 91       		.byte	0x91
 6385 06df 49       		.sleb128 -55
 6386 06e0 00       		.byte	0
 6387 06e1 10       		.uleb128 0x10
 6388 06e2 FC0A0000 		.4byte	.LBB40
 6389 06e6 28000000 		.4byte	.LBE40-.LBB40
 6390 06ea FC060000 		.4byte	0x6fc
 6391 06ee 12       		.uleb128 0x12
 6392 06ef 7800     		.ascii	"x\000"
 6393 06f1 01       		.byte	0x1
 6394 06f2 1B01     		.2byte	0x11b
 6395 06f4 81000000 		.4byte	0x81
 6396 06f8 02       		.uleb128 0x2
 6397 06f9 91       		.byte	0x91
 6398 06fa 48       		.sleb128 -56
 6399 06fb 00       		.byte	0
 6400 06fc 10       		.uleb128 0x10
 6401 06fd 240B0000 		.4byte	.LBB41
 6402 0701 2C000000 		.4byte	.LBE41-.LBB41
 6403 0705 17070000 		.4byte	0x717
 6404 0709 12       		.uleb128 0x12
 6405 070a 7800     		.ascii	"x\000"
 6406 070c 01       		.byte	0x1
 6407 070d 1E01     		.2byte	0x11e
 6408 070f 81000000 		.4byte	0x81
 6409 0713 02       		.uleb128 0x2
 6410 0714 91       		.byte	0x91
 6411 0715 47       		.sleb128 -57
 6412 0716 00       		.byte	0
 6413 0717 10       		.uleb128 0x10
 6414 0718 5A0B0000 		.4byte	.LBB42
 6415 071c 28000000 		.4byte	.LBE42-.LBB42
 6416 0720 32070000 		.4byte	0x732
 6417 0724 12       		.uleb128 0x12
 6418 0725 7800     		.ascii	"x\000"
 6419 0727 01       		.byte	0x1
 6420 0728 2201     		.2byte	0x122
 6421 072a 81000000 		.4byte	0x81
 6422 072e 02       		.uleb128 0x2
 6423 072f 91       		.byte	0x91
 6424 0730 46       		.sleb128 -58
 6425 0731 00       		.byte	0
 6426 0732 10       		.uleb128 0x10
 6427 0733 9C0B0000 		.4byte	.LBB43
 6428 0737 28000000 		.4byte	.LBE43-.LBB43
 6429 073b 4D070000 		.4byte	0x74d
ARM GAS  C:\Users\THERMA~1\AppData\Local\Temp\ccXswU2c.s 			page 136


 6430 073f 12       		.uleb128 0x12
 6431 0740 7800     		.ascii	"x\000"
 6432 0742 01       		.byte	0x1
 6433 0743 2701     		.2byte	0x127
 6434 0745 81000000 		.4byte	0x81
 6435 0749 02       		.uleb128 0x2
 6436 074a 91       		.byte	0x91
 6437 074b 45       		.sleb128 -59
 6438 074c 00       		.byte	0
 6439 074d 10       		.uleb128 0x10
 6440 074e CE0B0000 		.4byte	.LBB44
 6441 0752 2A000000 		.4byte	.LBE44-.LBB44
 6442 0756 68070000 		.4byte	0x768
 6443 075a 12       		.uleb128 0x12
 6444 075b 7800     		.ascii	"x\000"
 6445 075d 01       		.byte	0x1
 6446 075e 2B01     		.2byte	0x12b
 6447 0760 81000000 		.4byte	0x81
 6448 0764 02       		.uleb128 0x2
 6449 0765 91       		.byte	0x91
 6450 0766 44       		.sleb128 -60
 6451 0767 00       		.byte	0
 6452 0768 10       		.uleb128 0x10
 6453 0769 F80B0000 		.4byte	.LBB45
 6454 076d 28000000 		.4byte	.LBE45-.LBB45
 6455 0771 83070000 		.4byte	0x783
 6456 0775 12       		.uleb128 0x12
 6457 0776 7800     		.ascii	"x\000"
 6458 0778 01       		.byte	0x1
 6459 0779 2F01     		.2byte	0x12f
 6460 077b 81000000 		.4byte	0x81
 6461 077f 02       		.uleb128 0x2
 6462 0780 91       		.byte	0x91
 6463 0781 43       		.sleb128 -61
 6464 0782 00       		.byte	0
 6465 0783 10       		.uleb128 0x10
 6466 0784 2A0C0000 		.4byte	.LBB46
 6467 0788 28000000 		.4byte	.LBE46-.LBB46
 6468 078c 9E070000 		.4byte	0x79e
 6469 0790 12       		.uleb128 0x12
 6470 0791 7800     		.ascii	"x\000"
 6471 0793 01       		.byte	0x1
 6472 0794 3401     		.2byte	0x134
 6473 0796 81000000 		.4byte	0x81
 6474 079a 02       		.uleb128 0x2
 6475 079b 91       		.byte	0x91
 6476 079c 42       		.sleb128 -62
 6477 079d 00       		.byte	0
 6478 079e 10       		.uleb128 0x10
 6479 079f 620C0000 		.4byte	.LBB47
 6480 07a3 40000000 		.4byte	.LBE47-.LBB47
 6481 07a7 B9070000 		.4byte	0x7b9
 6482 07ab 12       		.uleb128 0x12
 6483 07ac 7800     		.ascii	"x\000"
 6484 07ae 01       		.byte	0x1
 6485 07af 3901     		.2byte	0x139
 6486 07b1 81000000 		.4byte	0x81
ARM GAS  C:\Users\THERMA~1\AppData\Local\Temp\ccXswU2c.s 			page 137


 6487 07b5 02       		.uleb128 0x2
 6488 07b6 91       		.byte	0x91
 6489 07b7 41       		.sleb128 -63
 6490 07b8 00       		.byte	0
 6491 07b9 10       		.uleb128 0x10
 6492 07ba AC0C0000 		.4byte	.LBB48
 6493 07be 28000000 		.4byte	.LBE48-.LBB48
 6494 07c2 D4070000 		.4byte	0x7d4
 6495 07c6 12       		.uleb128 0x12
 6496 07c7 7800     		.ascii	"x\000"
 6497 07c9 01       		.byte	0x1
 6498 07ca 3D01     		.2byte	0x13d
 6499 07cc 81000000 		.4byte	0x81
 6500 07d0 02       		.uleb128 0x2
 6501 07d1 91       		.byte	0x91
 6502 07d2 40       		.sleb128 -64
 6503 07d3 00       		.byte	0
 6504 07d4 10       		.uleb128 0x10
 6505 07d5 D40C0000 		.4byte	.LBB49
 6506 07d9 42000000 		.4byte	.LBE49-.LBB49
 6507 07dd F0070000 		.4byte	0x7f0
 6508 07e1 12       		.uleb128 0x12
 6509 07e2 7800     		.ascii	"x\000"
 6510 07e4 01       		.byte	0x1
 6511 07e5 4001     		.2byte	0x140
 6512 07e7 81000000 		.4byte	0x81
 6513 07eb 03       		.uleb128 0x3
 6514 07ec 91       		.byte	0x91
 6515 07ed BF7F     		.sleb128 -65
 6516 07ef 00       		.byte	0
 6517 07f0 10       		.uleb128 0x10
 6518 07f1 300D0000 		.4byte	.LBB50
 6519 07f5 6C000000 		.4byte	.LBE50-.LBB50
 6520 07f9 0C080000 		.4byte	0x80c
 6521 07fd 12       		.uleb128 0x12
 6522 07fe 7800     		.ascii	"x\000"
 6523 0800 01       		.byte	0x1
 6524 0801 4801     		.2byte	0x148
 6525 0803 81000000 		.4byte	0x81
 6526 0807 03       		.uleb128 0x3
 6527 0808 91       		.byte	0x91
 6528 0809 BE7F     		.sleb128 -66
 6529 080b 00       		.byte	0
 6530 080c 10       		.uleb128 0x10
 6531 080d AC0D0000 		.4byte	.LBB51
 6532 0811 2C000000 		.4byte	.LBE51-.LBB51
 6533 0815 28080000 		.4byte	0x828
 6534 0819 12       		.uleb128 0x12
 6535 081a 7800     		.ascii	"x\000"
 6536 081c 01       		.byte	0x1
 6537 081d 4D01     		.2byte	0x14d
 6538 081f 81000000 		.4byte	0x81
 6539 0823 03       		.uleb128 0x3
 6540 0824 91       		.byte	0x91
 6541 0825 BD7F     		.sleb128 -67
 6542 0827 00       		.byte	0
 6543 0828 10       		.uleb128 0x10
ARM GAS  C:\Users\THERMA~1\AppData\Local\Temp\ccXswU2c.s 			page 138


 6544 0829 020E0000 		.4byte	.LBB52
 6545 082d 28000000 		.4byte	.LBE52-.LBB52
 6546 0831 44080000 		.4byte	0x844
 6547 0835 12       		.uleb128 0x12
 6548 0836 7800     		.ascii	"x\000"
 6549 0838 01       		.byte	0x1
 6550 0839 5601     		.2byte	0x156
 6551 083b 81000000 		.4byte	0x81
 6552 083f 03       		.uleb128 0x3
 6553 0840 91       		.byte	0x91
 6554 0841 BC7F     		.sleb128 -68
 6555 0843 00       		.byte	0
 6556 0844 10       		.uleb128 0x10
 6557 0845 340E0000 		.4byte	.LBB53
 6558 0849 28000000 		.4byte	.LBE53-.LBB53
 6559 084d 60080000 		.4byte	0x860
 6560 0851 12       		.uleb128 0x12
 6561 0852 7800     		.ascii	"x\000"
 6562 0854 01       		.byte	0x1
 6563 0855 5A01     		.2byte	0x15a
 6564 0857 81000000 		.4byte	0x81
 6565 085b 03       		.uleb128 0x3
 6566 085c 91       		.byte	0x91
 6567 085d BB7F     		.sleb128 -69
 6568 085f 00       		.byte	0
 6569 0860 10       		.uleb128 0x10
 6570 0861 660E0000 		.4byte	.LBB54
 6571 0865 28000000 		.4byte	.LBE54-.LBB54
 6572 0869 7C080000 		.4byte	0x87c
 6573 086d 12       		.uleb128 0x12
 6574 086e 7800     		.ascii	"x\000"
 6575 0870 01       		.byte	0x1
 6576 0871 5F01     		.2byte	0x15f
 6577 0873 81000000 		.4byte	0x81
 6578 0877 03       		.uleb128 0x3
 6579 0878 91       		.byte	0x91
 6580 0879 BA7F     		.sleb128 -70
 6581 087b 00       		.byte	0
 6582 087c 10       		.uleb128 0x10
 6583 087d 980E0000 		.4byte	.LBB55
 6584 0881 2A000000 		.4byte	.LBE55-.LBB55
 6585 0885 98080000 		.4byte	0x898
 6586 0889 12       		.uleb128 0x12
 6587 088a 7800     		.ascii	"x\000"
 6588 088c 01       		.byte	0x1
 6589 088d 6301     		.2byte	0x163
 6590 088f 81000000 		.4byte	0x81
 6591 0893 03       		.uleb128 0x3
 6592 0894 91       		.byte	0x91
 6593 0895 B97F     		.sleb128 -71
 6594 0897 00       		.byte	0
 6595 0898 10       		.uleb128 0x10
 6596 0899 C20E0000 		.4byte	.LBB56
 6597 089d 28000000 		.4byte	.LBE56-.LBB56
 6598 08a1 B4080000 		.4byte	0x8b4
 6599 08a5 12       		.uleb128 0x12
 6600 08a6 7800     		.ascii	"x\000"
ARM GAS  C:\Users\THERMA~1\AppData\Local\Temp\ccXswU2c.s 			page 139


 6601 08a8 01       		.byte	0x1
 6602 08a9 6701     		.2byte	0x167
 6603 08ab 81000000 		.4byte	0x81
 6604 08af 03       		.uleb128 0x3
 6605 08b0 91       		.byte	0x91
 6606 08b1 B87F     		.sleb128 -72
 6607 08b3 00       		.byte	0
 6608 08b4 10       		.uleb128 0x10
 6609 08b5 000F0000 		.4byte	.LBB57
 6610 08b9 28000000 		.4byte	.LBE57-.LBB57
 6611 08bd D0080000 		.4byte	0x8d0
 6612 08c1 12       		.uleb128 0x12
 6613 08c2 7800     		.ascii	"x\000"
 6614 08c4 01       		.byte	0x1
 6615 08c5 6D01     		.2byte	0x16d
 6616 08c7 81000000 		.4byte	0x81
 6617 08cb 03       		.uleb128 0x3
 6618 08cc 91       		.byte	0x91
 6619 08cd B77F     		.sleb128 -73
 6620 08cf 00       		.byte	0
 6621 08d0 10       		.uleb128 0x10
 6622 08d1 280F0000 		.4byte	.LBB58
 6623 08d5 2C000000 		.4byte	.LBE58-.LBB58
 6624 08d9 EC080000 		.4byte	0x8ec
 6625 08dd 12       		.uleb128 0x12
 6626 08de 7800     		.ascii	"x\000"
 6627 08e0 01       		.byte	0x1
 6628 08e1 7001     		.2byte	0x170
 6629 08e3 81000000 		.4byte	0x81
 6630 08e7 03       		.uleb128 0x3
 6631 08e8 91       		.byte	0x91
 6632 08e9 B67F     		.sleb128 -74
 6633 08eb 00       		.byte	0
 6634 08ec 10       		.uleb128 0x10
 6635 08ed 5E0F0000 		.4byte	.LBB59
 6636 08f1 28000000 		.4byte	.LBE59-.LBB59
 6637 08f5 08090000 		.4byte	0x908
 6638 08f9 12       		.uleb128 0x12
 6639 08fa 7800     		.ascii	"x\000"
 6640 08fc 01       		.byte	0x1
 6641 08fd 7401     		.2byte	0x174
 6642 08ff 81000000 		.4byte	0x81
 6643 0903 03       		.uleb128 0x3
 6644 0904 91       		.byte	0x91
 6645 0905 B57F     		.sleb128 -75
 6646 0907 00       		.byte	0
 6647 0908 10       		.uleb128 0x10
 6648 0909 860F0000 		.4byte	.LBB60
 6649 090d 2C000000 		.4byte	.LBE60-.LBB60
 6650 0911 24090000 		.4byte	0x924
 6651 0915 12       		.uleb128 0x12
 6652 0916 7800     		.ascii	"x\000"
 6653 0918 01       		.byte	0x1
 6654 0919 7701     		.2byte	0x177
 6655 091b 81000000 		.4byte	0x81
 6656 091f 03       		.uleb128 0x3
 6657 0920 91       		.byte	0x91
ARM GAS  C:\Users\THERMA~1\AppData\Local\Temp\ccXswU2c.s 			page 140


 6658 0921 B47F     		.sleb128 -76
 6659 0923 00       		.byte	0
 6660 0924 10       		.uleb128 0x10
 6661 0925 BC0F0000 		.4byte	.LBB61
 6662 0929 28000000 		.4byte	.LBE61-.LBB61
 6663 092d 40090000 		.4byte	0x940
 6664 0931 12       		.uleb128 0x12
 6665 0932 7800     		.ascii	"x\000"
 6666 0934 01       		.byte	0x1
 6667 0935 7B01     		.2byte	0x17b
 6668 0937 81000000 		.4byte	0x81
 6669 093b 03       		.uleb128 0x3
 6670 093c 91       		.byte	0x91
 6671 093d B37F     		.sleb128 -77
 6672 093f 00       		.byte	0
 6673 0940 10       		.uleb128 0x10
 6674 0941 FE0F0000 		.4byte	.LBB62
 6675 0945 28000000 		.4byte	.LBE62-.LBB62
 6676 0949 5C090000 		.4byte	0x95c
 6677 094d 12       		.uleb128 0x12
 6678 094e 7800     		.ascii	"x\000"
 6679 0950 01       		.byte	0x1
 6680 0951 8001     		.2byte	0x180
 6681 0953 81000000 		.4byte	0x81
 6682 0957 03       		.uleb128 0x3
 6683 0958 91       		.byte	0x91
 6684 0959 B27F     		.sleb128 -78
 6685 095b 00       		.byte	0
 6686 095c 10       		.uleb128 0x10
 6687 095d 30100000 		.4byte	.LBB63
 6688 0961 2A000000 		.4byte	.LBE63-.LBB63
 6689 0965 78090000 		.4byte	0x978
 6690 0969 12       		.uleb128 0x12
 6691 096a 7800     		.ascii	"x\000"
 6692 096c 01       		.byte	0x1
 6693 096d 8401     		.2byte	0x184
 6694 096f 81000000 		.4byte	0x81
 6695 0973 03       		.uleb128 0x3
 6696 0974 91       		.byte	0x91
 6697 0975 B17F     		.sleb128 -79
 6698 0977 00       		.byte	0
 6699 0978 10       		.uleb128 0x10
 6700 0979 5A100000 		.4byte	.LBB64
 6701 097d 28000000 		.4byte	.LBE64-.LBB64
 6702 0981 94090000 		.4byte	0x994
 6703 0985 12       		.uleb128 0x12
 6704 0986 7800     		.ascii	"x\000"
 6705 0988 01       		.byte	0x1
 6706 0989 8801     		.2byte	0x188
 6707 098b 81000000 		.4byte	0x81
 6708 098f 03       		.uleb128 0x3
 6709 0990 91       		.byte	0x91
 6710 0991 B07F     		.sleb128 -80
 6711 0993 00       		.byte	0
 6712 0994 10       		.uleb128 0x10
 6713 0995 8C100000 		.4byte	.LBB65
 6714 0999 68000000 		.4byte	.LBE65-.LBB65
ARM GAS  C:\Users\THERMA~1\AppData\Local\Temp\ccXswU2c.s 			page 141


 6715 099d B0090000 		.4byte	0x9b0
 6716 09a1 12       		.uleb128 0x12
 6717 09a2 7800     		.ascii	"x\000"
 6718 09a4 01       		.byte	0x1
 6719 09a5 8D01     		.2byte	0x18d
 6720 09a7 81000000 		.4byte	0x81
 6721 09ab 03       		.uleb128 0x3
 6722 09ac 91       		.byte	0x91
 6723 09ad AF7F     		.sleb128 -81
 6724 09af 00       		.byte	0
 6725 09b0 10       		.uleb128 0x10
 6726 09b1 04110000 		.4byte	.LBB66
 6727 09b5 40000000 		.4byte	.LBE66-.LBB66
 6728 09b9 CC090000 		.4byte	0x9cc
 6729 09bd 12       		.uleb128 0x12
 6730 09be 7800     		.ascii	"x\000"
 6731 09c0 01       		.byte	0x1
 6732 09c1 9201     		.2byte	0x192
 6733 09c3 81000000 		.4byte	0x81
 6734 09c7 03       		.uleb128 0x3
 6735 09c8 91       		.byte	0x91
 6736 09c9 AE7F     		.sleb128 -82
 6737 09cb 00       		.byte	0
 6738 09cc 10       		.uleb128 0x10
 6739 09cd 4E110000 		.4byte	.LBB67
 6740 09d1 28000000 		.4byte	.LBE67-.LBB67
 6741 09d5 E8090000 		.4byte	0x9e8
 6742 09d9 12       		.uleb128 0x12
 6743 09da 7800     		.ascii	"x\000"
 6744 09dc 01       		.byte	0x1
 6745 09dd 9601     		.2byte	0x196
 6746 09df 81000000 		.4byte	0x81
 6747 09e3 03       		.uleb128 0x3
 6748 09e4 91       		.byte	0x91
 6749 09e5 AD7F     		.sleb128 -83
 6750 09e7 00       		.byte	0
 6751 09e8 10       		.uleb128 0x10
 6752 09e9 76110000 		.4byte	.LBB68
 6753 09ed 42000000 		.4byte	.LBE68-.LBB68
 6754 09f1 040A0000 		.4byte	0xa04
 6755 09f5 12       		.uleb128 0x12
 6756 09f6 7800     		.ascii	"x\000"
 6757 09f8 01       		.byte	0x1
 6758 09f9 9901     		.2byte	0x199
 6759 09fb 81000000 		.4byte	0x81
 6760 09ff 03       		.uleb128 0x3
 6761 0a00 91       		.byte	0x91
 6762 0a01 AC7F     		.sleb128 -84
 6763 0a03 00       		.byte	0
 6764 0a04 10       		.uleb128 0x10
 6765 0a05 D2110000 		.4byte	.LBB69
 6766 0a09 28000000 		.4byte	.LBE69-.LBB69
 6767 0a0d 200A0000 		.4byte	0xa20
 6768 0a11 12       		.uleb128 0x12
 6769 0a12 7800     		.ascii	"x\000"
 6770 0a14 01       		.byte	0x1
 6771 0a15 A101     		.2byte	0x1a1
ARM GAS  C:\Users\THERMA~1\AppData\Local\Temp\ccXswU2c.s 			page 142


 6772 0a17 81000000 		.4byte	0x81
 6773 0a1b 03       		.uleb128 0x3
 6774 0a1c 91       		.byte	0x91
 6775 0a1d AB7F     		.sleb128 -85
 6776 0a1f 00       		.byte	0
 6777 0a20 10       		.uleb128 0x10
 6778 0a21 0A120000 		.4byte	.LBB70
 6779 0a25 2C000000 		.4byte	.LBE70-.LBB70
 6780 0a29 3C0A0000 		.4byte	0xa3c
 6781 0a2d 12       		.uleb128 0x12
 6782 0a2e 7800     		.ascii	"x\000"
 6783 0a30 01       		.byte	0x1
 6784 0a31 A601     		.2byte	0x1a6
 6785 0a33 81000000 		.4byte	0x81
 6786 0a37 03       		.uleb128 0x3
 6787 0a38 91       		.byte	0x91
 6788 0a39 AA7F     		.sleb128 -86
 6789 0a3b 00       		.byte	0
 6790 0a3c 10       		.uleb128 0x10
 6791 0a3d 60120000 		.4byte	.LBB71
 6792 0a41 28000000 		.4byte	.LBE71-.LBB71
 6793 0a45 580A0000 		.4byte	0xa58
 6794 0a49 12       		.uleb128 0x12
 6795 0a4a 7800     		.ascii	"x\000"
 6796 0a4c 01       		.byte	0x1
 6797 0a4d AF01     		.2byte	0x1af
 6798 0a4f 81000000 		.4byte	0x81
 6799 0a53 03       		.uleb128 0x3
 6800 0a54 91       		.byte	0x91
 6801 0a55 A97F     		.sleb128 -87
 6802 0a57 00       		.byte	0
 6803 0a58 10       		.uleb128 0x10
 6804 0a59 92120000 		.4byte	.LBB72
 6805 0a5d 28000000 		.4byte	.LBE72-.LBB72
 6806 0a61 740A0000 		.4byte	0xa74
 6807 0a65 12       		.uleb128 0x12
 6808 0a66 7800     		.ascii	"x\000"
 6809 0a68 01       		.byte	0x1
 6810 0a69 B301     		.2byte	0x1b3
 6811 0a6b 81000000 		.4byte	0x81
 6812 0a6f 03       		.uleb128 0x3
 6813 0a70 91       		.byte	0x91
 6814 0a71 A87F     		.sleb128 -88
 6815 0a73 00       		.byte	0
 6816 0a74 10       		.uleb128 0x10
 6817 0a75 C4120000 		.4byte	.LBB73
 6818 0a79 1E000000 		.4byte	.LBE73-.LBB73
 6819 0a7d 900A0000 		.4byte	0xa90
 6820 0a81 12       		.uleb128 0x12
 6821 0a82 7800     		.ascii	"x\000"
 6822 0a84 01       		.byte	0x1
 6823 0a85 B801     		.2byte	0x1b8
 6824 0a87 81000000 		.4byte	0x81
 6825 0a8b 03       		.uleb128 0x3
 6826 0a8c 91       		.byte	0x91
 6827 0a8d A77F     		.sleb128 -89
 6828 0a8f 00       		.byte	0
ARM GAS  C:\Users\THERMA~1\AppData\Local\Temp\ccXswU2c.s 			page 143


 6829 0a90 10       		.uleb128 0x10
 6830 0a91 EC120000 		.4byte	.LBB74
 6831 0a95 20000000 		.4byte	.LBE74-.LBB74
 6832 0a99 AC0A0000 		.4byte	0xaac
 6833 0a9d 12       		.uleb128 0x12
 6834 0a9e 7800     		.ascii	"x\000"
 6835 0aa0 01       		.byte	0x1
 6836 0aa1 BC01     		.2byte	0x1bc
 6837 0aa3 81000000 		.4byte	0x81
 6838 0aa7 03       		.uleb128 0x3
 6839 0aa8 91       		.byte	0x91
 6840 0aa9 A67F     		.sleb128 -90
 6841 0aab 00       		.byte	0
 6842 0aac 10       		.uleb128 0x10
 6843 0aad 0C130000 		.4byte	.LBB75
 6844 0ab1 1E000000 		.4byte	.LBE75-.LBB75
 6845 0ab5 C80A0000 		.4byte	0xac8
 6846 0ab9 12       		.uleb128 0x12
 6847 0aba 7800     		.ascii	"x\000"
 6848 0abc 01       		.byte	0x1
 6849 0abd C001     		.2byte	0x1c0
 6850 0abf 81000000 		.4byte	0x81
 6851 0ac3 03       		.uleb128 0x3
 6852 0ac4 91       		.byte	0x91
 6853 0ac5 A57F     		.sleb128 -91
 6854 0ac7 00       		.byte	0
 6855 0ac8 10       		.uleb128 0x10
 6856 0ac9 40130000 		.4byte	.LBB76
 6857 0acd 1E000000 		.4byte	.LBE76-.LBB76
 6858 0ad1 E40A0000 		.4byte	0xae4
 6859 0ad5 12       		.uleb128 0x12
 6860 0ad6 7800     		.ascii	"x\000"
 6861 0ad8 01       		.byte	0x1
 6862 0ad9 C601     		.2byte	0x1c6
 6863 0adb 81000000 		.4byte	0x81
 6864 0adf 03       		.uleb128 0x3
 6865 0ae0 91       		.byte	0x91
 6866 0ae1 A47F     		.sleb128 -92
 6867 0ae3 00       		.byte	0
 6868 0ae4 10       		.uleb128 0x10
 6869 0ae5 5E130000 		.4byte	.LBB77
 6870 0ae9 22000000 		.4byte	.LBE77-.LBB77
 6871 0aed 000B0000 		.4byte	0xb00
 6872 0af1 12       		.uleb128 0x12
 6873 0af2 7800     		.ascii	"x\000"
 6874 0af4 01       		.byte	0x1
 6875 0af5 C901     		.2byte	0x1c9
 6876 0af7 81000000 		.4byte	0x81
 6877 0afb 03       		.uleb128 0x3
 6878 0afc 91       		.byte	0x91
 6879 0afd A37F     		.sleb128 -93
 6880 0aff 00       		.byte	0
 6881 0b00 10       		.uleb128 0x10
 6882 0b01 8A130000 		.4byte	.LBB78
 6883 0b05 1E000000 		.4byte	.LBE78-.LBB78
 6884 0b09 1C0B0000 		.4byte	0xb1c
 6885 0b0d 12       		.uleb128 0x12
ARM GAS  C:\Users\THERMA~1\AppData\Local\Temp\ccXswU2c.s 			page 144


 6886 0b0e 7800     		.ascii	"x\000"
 6887 0b10 01       		.byte	0x1
 6888 0b11 CD01     		.2byte	0x1cd
 6889 0b13 81000000 		.4byte	0x81
 6890 0b17 03       		.uleb128 0x3
 6891 0b18 91       		.byte	0x91
 6892 0b19 A27F     		.sleb128 -94
 6893 0b1b 00       		.byte	0
 6894 0b1c 10       		.uleb128 0x10
 6895 0b1d A8130000 		.4byte	.LBB79
 6896 0b21 22000000 		.4byte	.LBE79-.LBB79
 6897 0b25 380B0000 		.4byte	0xb38
 6898 0b29 12       		.uleb128 0x12
 6899 0b2a 7800     		.ascii	"x\000"
 6900 0b2c 01       		.byte	0x1
 6901 0b2d D001     		.2byte	0x1d0
 6902 0b2f 81000000 		.4byte	0x81
 6903 0b33 03       		.uleb128 0x3
 6904 0b34 91       		.byte	0x91
 6905 0b35 A17F     		.sleb128 -95
 6906 0b37 00       		.byte	0
 6907 0b38 10       		.uleb128 0x10
 6908 0b39 D4130000 		.4byte	.LBB80
 6909 0b3d 60000000 		.4byte	.LBE80-.LBB80
 6910 0b41 540B0000 		.4byte	0xb54
 6911 0b45 12       		.uleb128 0x12
 6912 0b46 7800     		.ascii	"x\000"
 6913 0b48 01       		.byte	0x1
 6914 0b49 D401     		.2byte	0x1d4
 6915 0b4b 81000000 		.4byte	0x81
 6916 0b4f 03       		.uleb128 0x3
 6917 0b50 91       		.byte	0x91
 6918 0b51 A07F     		.sleb128 -96
 6919 0b53 00       		.byte	0
 6920 0b54 10       		.uleb128 0x10
 6921 0b55 4E140000 		.4byte	.LBB81
 6922 0b59 1E000000 		.4byte	.LBE81-.LBB81
 6923 0b5d 700B0000 		.4byte	0xb70
 6924 0b61 12       		.uleb128 0x12
 6925 0b62 7800     		.ascii	"x\000"
 6926 0b64 01       		.byte	0x1
 6927 0b65 D901     		.2byte	0x1d9
 6928 0b67 81000000 		.4byte	0x81
 6929 0b6b 03       		.uleb128 0x3
 6930 0b6c 91       		.byte	0x91
 6931 0b6d 9F7F     		.sleb128 -97
 6932 0b6f 00       		.byte	0
 6933 0b70 10       		.uleb128 0x10
 6934 0b71 76140000 		.4byte	.LBB82
 6935 0b75 20000000 		.4byte	.LBE82-.LBB82
 6936 0b79 8C0B0000 		.4byte	0xb8c
 6937 0b7d 12       		.uleb128 0x12
 6938 0b7e 7800     		.ascii	"x\000"
 6939 0b80 01       		.byte	0x1
 6940 0b81 DD01     		.2byte	0x1dd
 6941 0b83 81000000 		.4byte	0x81
 6942 0b87 03       		.uleb128 0x3
ARM GAS  C:\Users\THERMA~1\AppData\Local\Temp\ccXswU2c.s 			page 145


 6943 0b88 91       		.byte	0x91
 6944 0b89 9E7F     		.sleb128 -98
 6945 0b8b 00       		.byte	0
 6946 0b8c 10       		.uleb128 0x10
 6947 0b8d 96140000 		.4byte	.LBB83
 6948 0b91 1E000000 		.4byte	.LBE83-.LBB83
 6949 0b95 A80B0000 		.4byte	0xba8
 6950 0b99 12       		.uleb128 0x12
 6951 0b9a 7800     		.ascii	"x\000"
 6952 0b9c 01       		.byte	0x1
 6953 0b9d E101     		.2byte	0x1e1
 6954 0b9f 81000000 		.4byte	0x81
 6955 0ba3 03       		.uleb128 0x3
 6956 0ba4 91       		.byte	0x91
 6957 0ba5 9D7F     		.sleb128 -99
 6958 0ba7 00       		.byte	0
 6959 0ba8 10       		.uleb128 0x10
 6960 0ba9 BE140000 		.4byte	.LBB84
 6961 0bad 1E000000 		.4byte	.LBE84-.LBB84
 6962 0bb1 C40B0000 		.4byte	0xbc4
 6963 0bb5 12       		.uleb128 0x12
 6964 0bb6 7800     		.ascii	"x\000"
 6965 0bb8 01       		.byte	0x1
 6966 0bb9 E601     		.2byte	0x1e6
 6967 0bbb 81000000 		.4byte	0x81
 6968 0bbf 03       		.uleb128 0x3
 6969 0bc0 91       		.byte	0x91
 6970 0bc1 9C7F     		.sleb128 -100
 6971 0bc3 00       		.byte	0
 6972 0bc4 10       		.uleb128 0x10
 6973 0bc5 EC140000 		.4byte	.LBB85
 6974 0bc9 36000000 		.4byte	.LBE85-.LBB85
 6975 0bcd E00B0000 		.4byte	0xbe0
 6976 0bd1 12       		.uleb128 0x12
 6977 0bd2 7800     		.ascii	"x\000"
 6978 0bd4 01       		.byte	0x1
 6979 0bd5 EB01     		.2byte	0x1eb
 6980 0bd7 81000000 		.4byte	0x81
 6981 0bdb 03       		.uleb128 0x3
 6982 0bdc 91       		.byte	0x91
 6983 0bdd 9B7F     		.sleb128 -101
 6984 0bdf 00       		.byte	0
 6985 0be0 10       		.uleb128 0x10
 6986 0be1 2C150000 		.4byte	.LBB86
 6987 0be5 1E000000 		.4byte	.LBE86-.LBB86
 6988 0be9 FC0B0000 		.4byte	0xbfc
 6989 0bed 12       		.uleb128 0x12
 6990 0bee 7800     		.ascii	"x\000"
 6991 0bf0 01       		.byte	0x1
 6992 0bf1 EF01     		.2byte	0x1ef
 6993 0bf3 81000000 		.4byte	0x81
 6994 0bf7 03       		.uleb128 0x3
 6995 0bf8 91       		.byte	0x91
 6996 0bf9 9A7F     		.sleb128 -102
 6997 0bfb 00       		.byte	0
 6998 0bfc 10       		.uleb128 0x10
 6999 0bfd 4A150000 		.4byte	.LBB87
ARM GAS  C:\Users\THERMA~1\AppData\Local\Temp\ccXswU2c.s 			page 146


 7000 0c01 36000000 		.4byte	.LBE87-.LBB87
 7001 0c05 180C0000 		.4byte	0xc18
 7002 0c09 12       		.uleb128 0x12
 7003 0c0a 7800     		.ascii	"x\000"
 7004 0c0c 01       		.byte	0x1
 7005 0c0d F201     		.2byte	0x1f2
 7006 0c0f 81000000 		.4byte	0x81
 7007 0c13 03       		.uleb128 0x3
 7008 0c14 91       		.byte	0x91
 7009 0c15 997F     		.sleb128 -103
 7010 0c17 00       		.byte	0
 7011 0c18 10       		.uleb128 0x10
 7012 0c19 9A150000 		.4byte	.LBB88
 7013 0c1d 1E000000 		.4byte	.LBE88-.LBB88
 7014 0c21 340C0000 		.4byte	0xc34
 7015 0c25 12       		.uleb128 0x12
 7016 0c26 7800     		.ascii	"x\000"
 7017 0c28 01       		.byte	0x1
 7018 0c29 FA01     		.2byte	0x1fa
 7019 0c2b 81000000 		.4byte	0x81
 7020 0c2f 03       		.uleb128 0x3
 7021 0c30 91       		.byte	0x91
 7022 0c31 987F     		.sleb128 -104
 7023 0c33 00       		.byte	0
 7024 0c34 10       		.uleb128 0x10
 7025 0c35 C8150000 		.4byte	.LBB89
 7026 0c39 22000000 		.4byte	.LBE89-.LBB89
 7027 0c3d 500C0000 		.4byte	0xc50
 7028 0c41 12       		.uleb128 0x12
 7029 0c42 7800     		.ascii	"x\000"
 7030 0c44 01       		.byte	0x1
 7031 0c45 FF01     		.2byte	0x1ff
 7032 0c47 81000000 		.4byte	0x81
 7033 0c4b 03       		.uleb128 0x3
 7034 0c4c 91       		.byte	0x91
 7035 0c4d 977F     		.sleb128 -105
 7036 0c4f 00       		.byte	0
 7037 0c50 10       		.uleb128 0x10
 7038 0c51 FC150000 		.4byte	.LBB90
 7039 0c55 1E000000 		.4byte	.LBE90-.LBB90
 7040 0c59 6C0C0000 		.4byte	0xc6c
 7041 0c5d 12       		.uleb128 0x12
 7042 0c5e 7800     		.ascii	"x\000"
 7043 0c60 01       		.byte	0x1
 7044 0c61 0702     		.2byte	0x207
 7045 0c63 81000000 		.4byte	0x81
 7046 0c67 03       		.uleb128 0x3
 7047 0c68 91       		.byte	0x91
 7048 0c69 967F     		.sleb128 -106
 7049 0c6b 00       		.byte	0
 7050 0c6c 10       		.uleb128 0x10
 7051 0c6d 24160000 		.4byte	.LBB91
 7052 0c71 1E000000 		.4byte	.LBE91-.LBB91
 7053 0c75 880C0000 		.4byte	0xc88
 7054 0c79 12       		.uleb128 0x12
 7055 0c7a 7800     		.ascii	"x\000"
 7056 0c7c 01       		.byte	0x1
ARM GAS  C:\Users\THERMA~1\AppData\Local\Temp\ccXswU2c.s 			page 147


 7057 0c7d 0B02     		.2byte	0x20b
 7058 0c7f 81000000 		.4byte	0x81
 7059 0c83 03       		.uleb128 0x3
 7060 0c84 91       		.byte	0x91
 7061 0c85 957F     		.sleb128 -107
 7062 0c87 00       		.byte	0
 7063 0c88 10       		.uleb128 0x10
 7064 0c89 56160000 		.4byte	.LBB92
 7065 0c8d 1E000000 		.4byte	.LBE92-.LBB92
 7066 0c91 A40C0000 		.4byte	0xca4
 7067 0c95 12       		.uleb128 0x12
 7068 0c96 7800     		.ascii	"x\000"
 7069 0c98 01       		.byte	0x1
 7070 0c99 1002     		.2byte	0x210
 7071 0c9b 81000000 		.4byte	0x81
 7072 0c9f 03       		.uleb128 0x3
 7073 0ca0 91       		.byte	0x91
 7074 0ca1 947F     		.sleb128 -108
 7075 0ca3 00       		.byte	0
 7076 0ca4 10       		.uleb128 0x10
 7077 0ca5 7E160000 		.4byte	.LBB93
 7078 0ca9 1E000000 		.4byte	.LBE93-.LBB93
 7079 0cad C00C0000 		.4byte	0xcc0
 7080 0cb1 12       		.uleb128 0x12
 7081 0cb2 7800     		.ascii	"x\000"
 7082 0cb4 01       		.byte	0x1
 7083 0cb5 1402     		.2byte	0x214
 7084 0cb7 81000000 		.4byte	0x81
 7085 0cbb 03       		.uleb128 0x3
 7086 0cbc 91       		.byte	0x91
 7087 0cbd 937F     		.sleb128 -109
 7088 0cbf 00       		.byte	0
 7089 0cc0 10       		.uleb128 0x10
 7090 0cc1 A6160000 		.4byte	.LBB94
 7091 0cc5 1E000000 		.4byte	.LBE94-.LBB94
 7092 0cc9 DC0C0000 		.4byte	0xcdc
 7093 0ccd 12       		.uleb128 0x12
 7094 0cce 7800     		.ascii	"x\000"
 7095 0cd0 01       		.byte	0x1
 7096 0cd1 1802     		.2byte	0x218
 7097 0cd3 81000000 		.4byte	0x81
 7098 0cd7 03       		.uleb128 0x3
 7099 0cd8 91       		.byte	0x91
 7100 0cd9 927F     		.sleb128 -110
 7101 0cdb 00       		.byte	0
 7102 0cdc 10       		.uleb128 0x10
 7103 0cdd CE160000 		.4byte	.LBB95
 7104 0ce1 5E000000 		.4byte	.LBE95-.LBB95
 7105 0ce5 F80C0000 		.4byte	0xcf8
 7106 0ce9 12       		.uleb128 0x12
 7107 0cea 7800     		.ascii	"x\000"
 7108 0cec 01       		.byte	0x1
 7109 0ced 1C02     		.2byte	0x21c
 7110 0cef 81000000 		.4byte	0x81
 7111 0cf3 03       		.uleb128 0x3
 7112 0cf4 91       		.byte	0x91
 7113 0cf5 917F     		.sleb128 -111
ARM GAS  C:\Users\THERMA~1\AppData\Local\Temp\ccXswU2c.s 			page 148


 7114 0cf7 00       		.byte	0
 7115 0cf8 13       		.uleb128 0x13
 7116 0cf9 5E170000 		.4byte	.LBB96
 7117 0cfd 1E000000 		.4byte	.LBE96-.LBB96
 7118 0d01 12       		.uleb128 0x12
 7119 0d02 7800     		.ascii	"x\000"
 7120 0d04 01       		.byte	0x1
 7121 0d05 2402     		.2byte	0x224
 7122 0d07 81000000 		.4byte	0x81
 7123 0d0b 03       		.uleb128 0x3
 7124 0d0c 91       		.byte	0x91
 7125 0d0d 907F     		.sleb128 -112
 7126 0d0f 00       		.byte	0
 7127 0d10 00       		.byte	0
 7128 0d11 14       		.uleb128 0x14
 7129 0d12 1F010000 		.4byte	.LASF42
 7130 0d16 01       		.byte	0x1
 7131 0d17 2902     		.2byte	0x229
 7132 0d19 00000000 		.4byte	.LFB65
 7133 0d1d 0C0F0000 		.4byte	.LFE65-.LFB65
 7134 0d21 01       		.uleb128 0x1
 7135 0d22 9C       		.byte	0x9c
 7136 0d23 C8120000 		.4byte	0x12c8
 7137 0d27 15       		.uleb128 0x15
 7138 0d28 79040000 		.4byte	.LASF39
 7139 0d2c 01       		.byte	0x1
 7140 0d2d 2A02     		.2byte	0x22a
 7141 0d2f 81000000 		.4byte	0x81
 7142 0d33 02       		.uleb128 0x2
 7143 0d34 91       		.byte	0x91
 7144 0d35 6F       		.sleb128 -17
 7145 0d36 12       		.uleb128 0x12
 7146 0d37 706F7300 		.ascii	"pos\000"
 7147 0d3b 01       		.byte	0x1
 7148 0d3c 2A02     		.2byte	0x22a
 7149 0d3e 81000000 		.4byte	0x81
 7150 0d42 02       		.uleb128 0x2
 7151 0d43 91       		.byte	0x91
 7152 0d44 6E       		.sleb128 -18
 7153 0d45 15       		.uleb128 0x15
 7154 0d46 EE030000 		.4byte	.LASF43
 7155 0d4a 01       		.byte	0x1
 7156 0d4b 2C02     		.2byte	0x22c
 7157 0d4d C8120000 		.4byte	0x12c8
 7158 0d51 03       		.uleb128 0x3
 7159 0d52 91       		.byte	0x91
 7160 0d53 A47F     		.sleb128 -92
 7161 0d55 15       		.uleb128 0x15
 7162 0d56 20030000 		.4byte	.LASF44
 7163 0d5a 01       		.byte	0x1
 7164 0d5b 2C02     		.2byte	0x22c
 7165 0d5d C8120000 		.4byte	0x12c8
 7166 0d61 03       		.uleb128 0x3
 7167 0d62 91       		.byte	0x91
 7168 0d63 987F     		.sleb128 -104
 7169 0d65 15       		.uleb128 0x15
 7170 0d66 DA030000 		.4byte	.LASF45
ARM GAS  C:\Users\THERMA~1\AppData\Local\Temp\ccXswU2c.s 			page 149


 7171 0d6a 01       		.byte	0x1
 7172 0d6b 2C02     		.2byte	0x22c
 7173 0d6d C8120000 		.4byte	0x12c8
 7174 0d71 03       		.uleb128 0x3
 7175 0d72 91       		.byte	0x91
 7176 0d73 8C7F     		.sleb128 -116
 7177 0d75 15       		.uleb128 0x15
 7178 0d76 D1040000 		.4byte	.LASF46
 7179 0d7a 01       		.byte	0x1
 7180 0d7b 2C02     		.2byte	0x22c
 7181 0d7d C8120000 		.4byte	0x12c8
 7182 0d81 03       		.uleb128 0x3
 7183 0d82 91       		.byte	0x91
 7184 0d83 807F     		.sleb128 -128
 7185 0d85 15       		.uleb128 0x15
 7186 0d86 33030000 		.4byte	.LASF47
 7187 0d8a 01       		.byte	0x1
 7188 0d8b 2D02     		.2byte	0x22d
 7189 0d8d 99000000 		.4byte	0x99
 7190 0d91 03       		.uleb128 0x3
 7191 0d92 91       		.byte	0x91
 7192 0d93 B47F     		.sleb128 -76
 7193 0d95 15       		.uleb128 0x15
 7194 0d96 01050000 		.4byte	.LASF48
 7195 0d9a 01       		.byte	0x1
 7196 0d9b 2D02     		.2byte	0x22d
 7197 0d9d 99000000 		.4byte	0x99
 7198 0da1 03       		.uleb128 0x3
 7199 0da2 91       		.byte	0x91
 7200 0da3 B87F     		.sleb128 -72
 7201 0da5 15       		.uleb128 0x15
 7202 0da6 D4030000 		.4byte	.LASF49
 7203 0daa 01       		.byte	0x1
 7204 0dab 2D02     		.2byte	0x22d
 7205 0dad 99000000 		.4byte	0x99
 7206 0db1 03       		.uleb128 0x3
 7207 0db2 91       		.byte	0x91
 7208 0db3 B07F     		.sleb128 -80
 7209 0db5 10       		.uleb128 0x10
 7210 0db6 0E000000 		.4byte	.LBB97
 7211 0dba 28000000 		.4byte	.LBE97-.LBB97
 7212 0dbe D20D0000 		.4byte	0xdd2
 7213 0dc2 15       		.uleb128 0x15
 7214 0dc3 E5010000 		.4byte	.LASF40
 7215 0dc7 01       		.byte	0x1
 7216 0dc8 2F02     		.2byte	0x22f
 7217 0dca 81000000 		.4byte	0x81
 7218 0dce 02       		.uleb128 0x2
 7219 0dcf 91       		.byte	0x91
 7220 0dd0 6D       		.sleb128 -19
 7221 0dd1 00       		.byte	0
 7222 0dd2 10       		.uleb128 0x10
 7223 0dd3 56000000 		.4byte	.LBB98
 7224 0dd7 2E000000 		.4byte	.LBE98-.LBB98
 7225 0ddb EF0D0000 		.4byte	0xdef
 7226 0ddf 15       		.uleb128 0x15
 7227 0de0 E5010000 		.4byte	.LASF40
ARM GAS  C:\Users\THERMA~1\AppData\Local\Temp\ccXswU2c.s 			page 150


 7228 0de4 01       		.byte	0x1
 7229 0de5 3602     		.2byte	0x236
 7230 0de7 81000000 		.4byte	0x81
 7231 0deb 02       		.uleb128 0x2
 7232 0dec 91       		.byte	0x91
 7233 0ded 6C       		.sleb128 -20
 7234 0dee 00       		.byte	0
 7235 0def 10       		.uleb128 0x10
 7236 0df0 00020000 		.4byte	.LBB99
 7237 0df4 32000000 		.4byte	.LBE99-.LBB99
 7238 0df8 0A0E0000 		.4byte	0xe0a
 7239 0dfc 12       		.uleb128 0x12
 7240 0dfd 6900     		.ascii	"i\000"
 7241 0dff 01       		.byte	0x1
 7242 0e00 4502     		.2byte	0x245
 7243 0e02 81000000 		.4byte	0x81
 7244 0e06 02       		.uleb128 0x2
 7245 0e07 91       		.byte	0x91
 7246 0e08 6B       		.sleb128 -21
 7247 0e09 00       		.byte	0
 7248 0e0a 10       		.uleb128 0x10
 7249 0e0b 3C020000 		.4byte	.LBB100
 7250 0e0f 28000000 		.4byte	.LBE100-.LBB100
 7251 0e13 250E0000 		.4byte	0xe25
 7252 0e17 12       		.uleb128 0x12
 7253 0e18 7800     		.ascii	"x\000"
 7254 0e1a 01       		.byte	0x1
 7255 0e1b 4902     		.2byte	0x249
 7256 0e1d 81000000 		.4byte	0x81
 7257 0e21 02       		.uleb128 0x2
 7258 0e22 91       		.byte	0x91
 7259 0e23 6A       		.sleb128 -22
 7260 0e24 00       		.byte	0
 7261 0e25 10       		.uleb128 0x10
 7262 0e26 6E020000 		.4byte	.LBB101
 7263 0e2a 28000000 		.4byte	.LBE101-.LBB101
 7264 0e2e 400E0000 		.4byte	0xe40
 7265 0e32 12       		.uleb128 0x12
 7266 0e33 7800     		.ascii	"x\000"
 7267 0e35 01       		.byte	0x1
 7268 0e36 4D02     		.2byte	0x24d
 7269 0e38 81000000 		.4byte	0x81
 7270 0e3c 02       		.uleb128 0x2
 7271 0e3d 91       		.byte	0x91
 7272 0e3e 69       		.sleb128 -23
 7273 0e3f 00       		.byte	0
 7274 0e40 10       		.uleb128 0x10
 7275 0e41 A0020000 		.4byte	.LBB102
 7276 0e45 28000000 		.4byte	.LBE102-.LBB102
 7277 0e49 5B0E0000 		.4byte	0xe5b
 7278 0e4d 12       		.uleb128 0x12
 7279 0e4e 7800     		.ascii	"x\000"
 7280 0e50 01       		.byte	0x1
 7281 0e51 5502     		.2byte	0x255
 7282 0e53 81000000 		.4byte	0x81
 7283 0e57 02       		.uleb128 0x2
 7284 0e58 91       		.byte	0x91
ARM GAS  C:\Users\THERMA~1\AppData\Local\Temp\ccXswU2c.s 			page 151


 7285 0e59 68       		.sleb128 -24
 7286 0e5a 00       		.byte	0
 7287 0e5b 10       		.uleb128 0x10
 7288 0e5c D2020000 		.4byte	.LBB103
 7289 0e60 28000000 		.4byte	.LBE103-.LBB103
 7290 0e64 760E0000 		.4byte	0xe76
 7291 0e68 12       		.uleb128 0x12
 7292 0e69 7800     		.ascii	"x\000"
 7293 0e6b 01       		.byte	0x1
 7294 0e6c 5902     		.2byte	0x259
 7295 0e6e 81000000 		.4byte	0x81
 7296 0e72 02       		.uleb128 0x2
 7297 0e73 91       		.byte	0x91
 7298 0e74 67       		.sleb128 -25
 7299 0e75 00       		.byte	0
 7300 0e76 10       		.uleb128 0x10
 7301 0e77 04030000 		.4byte	.LBB104
 7302 0e7b 5C000000 		.4byte	.LBE104-.LBB104
 7303 0e7f 910E0000 		.4byte	0xe91
 7304 0e83 12       		.uleb128 0x12
 7305 0e84 7800     		.ascii	"x\000"
 7306 0e86 01       		.byte	0x1
 7307 0e87 5E02     		.2byte	0x25e
 7308 0e89 81000000 		.4byte	0x81
 7309 0e8d 02       		.uleb128 0x2
 7310 0e8e 91       		.byte	0x91
 7311 0e8f 66       		.sleb128 -26
 7312 0e90 00       		.byte	0
 7313 0e91 10       		.uleb128 0x10
 7314 0e92 E8030000 		.4byte	.LBB105
 7315 0e96 28000000 		.4byte	.LBE105-.LBB105
 7316 0e9a AC0E0000 		.4byte	0xeac
 7317 0e9e 12       		.uleb128 0x12
 7318 0e9f 7800     		.ascii	"x\000"
 7319 0ea1 01       		.byte	0x1
 7320 0ea2 6C02     		.2byte	0x26c
 7321 0ea4 81000000 		.4byte	0x81
 7322 0ea8 02       		.uleb128 0x2
 7323 0ea9 91       		.byte	0x91
 7324 0eaa 65       		.sleb128 -27
 7325 0eab 00       		.byte	0
 7326 0eac 10       		.uleb128 0x10
 7327 0ead 98040000 		.4byte	.LBB106
 7328 0eb1 28000000 		.4byte	.LBE106-.LBB106
 7329 0eb5 C70E0000 		.4byte	0xec7
 7330 0eb9 12       		.uleb128 0x12
 7331 0eba 7800     		.ascii	"x\000"
 7332 0ebc 01       		.byte	0x1
 7333 0ebd 7802     		.2byte	0x278
 7334 0ebf 81000000 		.4byte	0x81
 7335 0ec3 02       		.uleb128 0x2
 7336 0ec4 91       		.byte	0x91
 7337 0ec5 64       		.sleb128 -28
 7338 0ec6 00       		.byte	0
 7339 0ec7 10       		.uleb128 0x10
 7340 0ec8 CA040000 		.4byte	.LBB107
 7341 0ecc 28000000 		.4byte	.LBE107-.LBB107
ARM GAS  C:\Users\THERMA~1\AppData\Local\Temp\ccXswU2c.s 			page 152


 7342 0ed0 E20E0000 		.4byte	0xee2
 7343 0ed4 12       		.uleb128 0x12
 7344 0ed5 7800     		.ascii	"x\000"
 7345 0ed7 01       		.byte	0x1
 7346 0ed8 7D02     		.2byte	0x27d
 7347 0eda 81000000 		.4byte	0x81
 7348 0ede 02       		.uleb128 0x2
 7349 0edf 91       		.byte	0x91
 7350 0ee0 63       		.sleb128 -29
 7351 0ee1 00       		.byte	0
 7352 0ee2 10       		.uleb128 0x10
 7353 0ee3 F2040000 		.4byte	.LBB108
 7354 0ee7 28000000 		.4byte	.LBE108-.LBB108
 7355 0eeb FD0E0000 		.4byte	0xefd
 7356 0eef 12       		.uleb128 0x12
 7357 0ef0 7800     		.ascii	"x\000"
 7358 0ef2 01       		.byte	0x1
 7359 0ef3 8002     		.2byte	0x280
 7360 0ef5 81000000 		.4byte	0x81
 7361 0ef9 02       		.uleb128 0x2
 7362 0efa 91       		.byte	0x91
 7363 0efb 62       		.sleb128 -30
 7364 0efc 00       		.byte	0
 7365 0efd 10       		.uleb128 0x10
 7366 0efe 2E050000 		.4byte	.LBB109
 7367 0f02 28000000 		.4byte	.LBE109-.LBB109
 7368 0f06 180F0000 		.4byte	0xf18
 7369 0f0a 12       		.uleb128 0x12
 7370 0f0b 7800     		.ascii	"x\000"
 7371 0f0d 01       		.byte	0x1
 7372 0f0e 8502     		.2byte	0x285
 7373 0f10 81000000 		.4byte	0x81
 7374 0f14 02       		.uleb128 0x2
 7375 0f15 91       		.byte	0x91
 7376 0f16 61       		.sleb128 -31
 7377 0f17 00       		.byte	0
 7378 0f18 10       		.uleb128 0x10
 7379 0f19 6E050000 		.4byte	.LBB110
 7380 0f1d 28000000 		.4byte	.LBE110-.LBB110
 7381 0f21 330F0000 		.4byte	0xf33
 7382 0f25 12       		.uleb128 0x12
 7383 0f26 7800     		.ascii	"x\000"
 7384 0f28 01       		.byte	0x1
 7385 0f29 8A02     		.2byte	0x28a
 7386 0f2b 81000000 		.4byte	0x81
 7387 0f2f 02       		.uleb128 0x2
 7388 0f30 91       		.byte	0x91
 7389 0f31 60       		.sleb128 -32
 7390 0f32 00       		.byte	0
 7391 0f33 10       		.uleb128 0x10
 7392 0f34 A0050000 		.4byte	.LBB111
 7393 0f38 42000000 		.4byte	.LBE111-.LBB111
 7394 0f3c 4E0F0000 		.4byte	0xf4e
 7395 0f40 12       		.uleb128 0x12
 7396 0f41 7800     		.ascii	"x\000"
 7397 0f43 01       		.byte	0x1
 7398 0f44 8F02     		.2byte	0x28f
ARM GAS  C:\Users\THERMA~1\AppData\Local\Temp\ccXswU2c.s 			page 153


 7399 0f46 81000000 		.4byte	0x81
 7400 0f4a 02       		.uleb128 0x2
 7401 0f4b 91       		.byte	0x91
 7402 0f4c 5F       		.sleb128 -33
 7403 0f4d 00       		.byte	0
 7404 0f4e 10       		.uleb128 0x10
 7405 0f4f EC050000 		.4byte	.LBB112
 7406 0f53 36000000 		.4byte	.LBE112-.LBB112
 7407 0f57 690F0000 		.4byte	0xf69
 7408 0f5b 12       		.uleb128 0x12
 7409 0f5c 7800     		.ascii	"x\000"
 7410 0f5e 01       		.byte	0x1
 7411 0f5f 9502     		.2byte	0x295
 7412 0f61 81000000 		.4byte	0x81
 7413 0f65 02       		.uleb128 0x2
 7414 0f66 91       		.byte	0x91
 7415 0f67 5E       		.sleb128 -34
 7416 0f68 00       		.byte	0
 7417 0f69 10       		.uleb128 0x10
 7418 0f6a 22060000 		.4byte	.LBB113
 7419 0f6e 28000000 		.4byte	.LBE113-.LBB113
 7420 0f72 840F0000 		.4byte	0xf84
 7421 0f76 12       		.uleb128 0x12
 7422 0f77 7800     		.ascii	"x\000"
 7423 0f79 01       		.byte	0x1
 7424 0f7a 9A02     		.2byte	0x29a
 7425 0f7c 81000000 		.4byte	0x81
 7426 0f80 02       		.uleb128 0x2
 7427 0f81 91       		.byte	0x91
 7428 0f82 5D       		.sleb128 -35
 7429 0f83 00       		.byte	0
 7430 0f84 10       		.uleb128 0x10
 7431 0f85 54060000 		.4byte	.LBB114
 7432 0f89 6C000000 		.4byte	.LBE114-.LBB114
 7433 0f8d 9F0F0000 		.4byte	0xf9f
 7434 0f91 12       		.uleb128 0x12
 7435 0f92 7800     		.ascii	"x\000"
 7436 0f94 01       		.byte	0x1
 7437 0f95 9E02     		.2byte	0x29e
 7438 0f97 81000000 		.4byte	0x81
 7439 0f9b 02       		.uleb128 0x2
 7440 0f9c 91       		.byte	0x91
 7441 0f9d 5C       		.sleb128 -36
 7442 0f9e 00       		.byte	0
 7443 0f9f 10       		.uleb128 0x10
 7444 0fa0 C0060000 		.4byte	.LBB115
 7445 0fa4 44000000 		.4byte	.LBE115-.LBB115
 7446 0fa8 BA0F0000 		.4byte	0xfba
 7447 0fac 12       		.uleb128 0x12
 7448 0fad 7800     		.ascii	"x\000"
 7449 0faf 01       		.byte	0x1
 7450 0fb0 A102     		.2byte	0x2a1
 7451 0fb2 81000000 		.4byte	0x81
 7452 0fb6 02       		.uleb128 0x2
 7453 0fb7 91       		.byte	0x91
 7454 0fb8 5B       		.sleb128 -37
 7455 0fb9 00       		.byte	0
ARM GAS  C:\Users\THERMA~1\AppData\Local\Temp\ccXswU2c.s 			page 154


 7456 0fba 10       		.uleb128 0x10
 7457 0fbb 0E070000 		.4byte	.LBB116
 7458 0fbf 6E000000 		.4byte	.LBE116-.LBB116
 7459 0fc3 D50F0000 		.4byte	0xfd5
 7460 0fc7 12       		.uleb128 0x12
 7461 0fc8 7800     		.ascii	"x\000"
 7462 0fca 01       		.byte	0x1
 7463 0fcb A802     		.2byte	0x2a8
 7464 0fcd 81000000 		.4byte	0x81
 7465 0fd1 02       		.uleb128 0x2
 7466 0fd2 91       		.byte	0x91
 7467 0fd3 5A       		.sleb128 -38
 7468 0fd4 00       		.byte	0
 7469 0fd5 10       		.uleb128 0x10
 7470 0fd6 AC070000 		.4byte	.LBB117
 7471 0fda 28000000 		.4byte	.LBE117-.LBB117
 7472 0fde F00F0000 		.4byte	0xff0
 7473 0fe2 12       		.uleb128 0x12
 7474 0fe3 7800     		.ascii	"x\000"
 7475 0fe5 01       		.byte	0x1
 7476 0fe6 B302     		.2byte	0x2b3
 7477 0fe8 81000000 		.4byte	0x81
 7478 0fec 02       		.uleb128 0x2
 7479 0fed 91       		.byte	0x91
 7480 0fee 59       		.sleb128 -39
 7481 0fef 00       		.byte	0
 7482 0ff0 10       		.uleb128 0x10
 7483 0ff1 DE070000 		.4byte	.LBB118
 7484 0ff5 44000000 		.4byte	.LBE118-.LBB118
 7485 0ff9 0B100000 		.4byte	0x100b
 7486 0ffd 12       		.uleb128 0x12
 7487 0ffe 7800     		.ascii	"x\000"
 7488 1000 01       		.byte	0x1
 7489 1001 B702     		.2byte	0x2b7
 7490 1003 81000000 		.4byte	0x81
 7491 1007 02       		.uleb128 0x2
 7492 1008 91       		.byte	0x91
 7493 1009 58       		.sleb128 -40
 7494 100a 00       		.byte	0
 7495 100b 10       		.uleb128 0x10
 7496 100c 2C080000 		.4byte	.LBB119
 7497 1010 28000000 		.4byte	.LBE119-.LBB119
 7498 1014 26100000 		.4byte	0x1026
 7499 1018 12       		.uleb128 0x12
 7500 1019 7800     		.ascii	"x\000"
 7501 101b 01       		.byte	0x1
 7502 101c BD02     		.2byte	0x2bd
 7503 101e 81000000 		.4byte	0x81
 7504 1022 02       		.uleb128 0x2
 7505 1023 91       		.byte	0x91
 7506 1024 57       		.sleb128 -41
 7507 1025 00       		.byte	0
 7508 1026 10       		.uleb128 0x10
 7509 1027 5E080000 		.4byte	.LBB120
 7510 102b 28000000 		.4byte	.LBE120-.LBB120
 7511 102f 41100000 		.4byte	0x1041
 7512 1033 12       		.uleb128 0x12
ARM GAS  C:\Users\THERMA~1\AppData\Local\Temp\ccXswU2c.s 			page 155


 7513 1034 7800     		.ascii	"x\000"
 7514 1036 01       		.byte	0x1
 7515 1037 C102     		.2byte	0x2c1
 7516 1039 81000000 		.4byte	0x81
 7517 103d 02       		.uleb128 0x2
 7518 103e 91       		.byte	0x91
 7519 103f 56       		.sleb128 -42
 7520 1040 00       		.byte	0
 7521 1041 10       		.uleb128 0x10
 7522 1042 A0080000 		.4byte	.LBB121
 7523 1046 28000000 		.4byte	.LBE121-.LBB121
 7524 104a 5C100000 		.4byte	0x105c
 7525 104e 12       		.uleb128 0x12
 7526 104f 7800     		.ascii	"x\000"
 7527 1051 01       		.byte	0x1
 7528 1052 C602     		.2byte	0x2c6
 7529 1054 81000000 		.4byte	0x81
 7530 1058 02       		.uleb128 0x2
 7531 1059 91       		.byte	0x91
 7532 105a 55       		.sleb128 -43
 7533 105b 00       		.byte	0
 7534 105c 10       		.uleb128 0x10
 7535 105d D2080000 		.4byte	.LBB122
 7536 1061 42000000 		.4byte	.LBE122-.LBB122
 7537 1065 77100000 		.4byte	0x1077
 7538 1069 12       		.uleb128 0x12
 7539 106a 7800     		.ascii	"x\000"
 7540 106c 01       		.byte	0x1
 7541 106d CA02     		.2byte	0x2ca
 7542 106f 81000000 		.4byte	0x81
 7543 1073 02       		.uleb128 0x2
 7544 1074 91       		.byte	0x91
 7545 1075 54       		.sleb128 -44
 7546 1076 00       		.byte	0
 7547 1077 10       		.uleb128 0x10
 7548 1078 1E090000 		.4byte	.LBB123
 7549 107c 28000000 		.4byte	.LBE123-.LBB123
 7550 1080 92100000 		.4byte	0x1092
 7551 1084 12       		.uleb128 0x12
 7552 1085 7800     		.ascii	"x\000"
 7553 1087 01       		.byte	0x1
 7554 1088 D002     		.2byte	0x2d0
 7555 108a 81000000 		.4byte	0x81
 7556 108e 02       		.uleb128 0x2
 7557 108f 91       		.byte	0x91
 7558 1090 53       		.sleb128 -45
 7559 1091 00       		.byte	0
 7560 1092 10       		.uleb128 0x10
 7561 1093 50090000 		.4byte	.LBB124
 7562 1097 3C000000 		.4byte	.LBE124-.LBB124
 7563 109b AD100000 		.4byte	0x10ad
 7564 109f 12       		.uleb128 0x12
 7565 10a0 7800     		.ascii	"x\000"
 7566 10a2 01       		.byte	0x1
 7567 10a3 D402     		.2byte	0x2d4
 7568 10a5 81000000 		.4byte	0x81
 7569 10a9 02       		.uleb128 0x2
ARM GAS  C:\Users\THERMA~1\AppData\Local\Temp\ccXswU2c.s 			page 156


 7570 10aa 91       		.byte	0x91
 7571 10ab 52       		.sleb128 -46
 7572 10ac 00       		.byte	0
 7573 10ad 10       		.uleb128 0x10
 7574 10ae 8C090000 		.4byte	.LBB125
 7575 10b2 44000000 		.4byte	.LBE125-.LBB125
 7576 10b6 C8100000 		.4byte	0x10c8
 7577 10ba 12       		.uleb128 0x12
 7578 10bb 7800     		.ascii	"x\000"
 7579 10bd 01       		.byte	0x1
 7580 10be D702     		.2byte	0x2d7
 7581 10c0 81000000 		.4byte	0x81
 7582 10c4 02       		.uleb128 0x2
 7583 10c5 91       		.byte	0x91
 7584 10c6 51       		.sleb128 -47
 7585 10c7 00       		.byte	0
 7586 10c8 10       		.uleb128 0x10
 7587 10c9 DA090000 		.4byte	.LBB126
 7588 10cd 8E000000 		.4byte	.LBE126-.LBB126
 7589 10d1 E3100000 		.4byte	0x10e3
 7590 10d5 12       		.uleb128 0x12
 7591 10d6 7800     		.ascii	"x\000"
 7592 10d8 01       		.byte	0x1
 7593 10d9 DD02     		.2byte	0x2dd
 7594 10db 81000000 		.4byte	0x81
 7595 10df 02       		.uleb128 0x2
 7596 10e0 91       		.byte	0x91
 7597 10e1 50       		.sleb128 -48
 7598 10e2 00       		.byte	0
 7599 10e3 10       		.uleb128 0x10
 7600 10e4 980A0000 		.4byte	.LBB127
 7601 10e8 28000000 		.4byte	.LBE127-.LBB127
 7602 10ec FE100000 		.4byte	0x10fe
 7603 10f0 12       		.uleb128 0x12
 7604 10f1 7800     		.ascii	"x\000"
 7605 10f3 01       		.byte	0x1
 7606 10f4 E702     		.2byte	0x2e7
 7607 10f6 81000000 		.4byte	0x81
 7608 10fa 02       		.uleb128 0x2
 7609 10fb 91       		.byte	0x91
 7610 10fc 4F       		.sleb128 -49
 7611 10fd 00       		.byte	0
 7612 10fe 10       		.uleb128 0x10
 7613 10ff CA0A0000 		.4byte	.LBB128
 7614 1103 44000000 		.4byte	.LBE128-.LBB128
 7615 1107 19110000 		.4byte	0x1119
 7616 110b 12       		.uleb128 0x12
 7617 110c 7800     		.ascii	"x\000"
 7618 110e 01       		.byte	0x1
 7619 110f EB02     		.2byte	0x2eb
 7620 1111 81000000 		.4byte	0x81
 7621 1115 02       		.uleb128 0x2
 7622 1116 91       		.byte	0x91
 7623 1117 4E       		.sleb128 -50
 7624 1118 00       		.byte	0
 7625 1119 10       		.uleb128 0x10
 7626 111a 240B0000 		.4byte	.LBB129
ARM GAS  C:\Users\THERMA~1\AppData\Local\Temp\ccXswU2c.s 			page 157


 7627 111e 28000000 		.4byte	.LBE129-.LBB129
 7628 1122 34110000 		.4byte	0x1134
 7629 1126 12       		.uleb128 0x12
 7630 1127 7800     		.ascii	"x\000"
 7631 1129 01       		.byte	0x1
 7632 112a F302     		.2byte	0x2f3
 7633 112c 81000000 		.4byte	0x81
 7634 1130 02       		.uleb128 0x2
 7635 1131 91       		.byte	0x91
 7636 1132 4D       		.sleb128 -51
 7637 1133 00       		.byte	0
 7638 1134 10       		.uleb128 0x10
 7639 1135 560B0000 		.4byte	.LBB130
 7640 1139 28000000 		.4byte	.LBE130-.LBB130
 7641 113d 4F110000 		.4byte	0x114f
 7642 1141 12       		.uleb128 0x12
 7643 1142 7800     		.ascii	"x\000"
 7644 1144 01       		.byte	0x1
 7645 1145 F702     		.2byte	0x2f7
 7646 1147 81000000 		.4byte	0x81
 7647 114b 02       		.uleb128 0x2
 7648 114c 91       		.byte	0x91
 7649 114d 4C       		.sleb128 -52
 7650 114e 00       		.byte	0
 7651 114f 10       		.uleb128 0x10
 7652 1150 980B0000 		.4byte	.LBB131
 7653 1154 42000000 		.4byte	.LBE131-.LBB131
 7654 1158 6A110000 		.4byte	0x116a
 7655 115c 12       		.uleb128 0x12
 7656 115d 7800     		.ascii	"x\000"
 7657 115f 01       		.byte	0x1
 7658 1160 FC02     		.2byte	0x2fc
 7659 1162 81000000 		.4byte	0x81
 7660 1166 02       		.uleb128 0x2
 7661 1167 91       		.byte	0x91
 7662 1168 4B       		.sleb128 -53
 7663 1169 00       		.byte	0
 7664 116a 10       		.uleb128 0x10
 7665 116b E40B0000 		.4byte	.LBB132
 7666 116f 28000000 		.4byte	.LBE132-.LBB132
 7667 1173 85110000 		.4byte	0x1185
 7668 1177 12       		.uleb128 0x12
 7669 1178 7800     		.ascii	"x\000"
 7670 117a 01       		.byte	0x1
 7671 117b 0203     		.2byte	0x302
 7672 117d 81000000 		.4byte	0x81
 7673 1181 02       		.uleb128 0x2
 7674 1182 91       		.byte	0x91
 7675 1183 4A       		.sleb128 -54
 7676 1184 00       		.byte	0
 7677 1185 10       		.uleb128 0x10
 7678 1186 160C0000 		.4byte	.LBB133
 7679 118a 28000000 		.4byte	.LBE133-.LBB133
 7680 118e A0110000 		.4byte	0x11a0
 7681 1192 12       		.uleb128 0x12
 7682 1193 7800     		.ascii	"x\000"
 7683 1195 01       		.byte	0x1
ARM GAS  C:\Users\THERMA~1\AppData\Local\Temp\ccXswU2c.s 			page 158


 7684 1196 0603     		.2byte	0x306
 7685 1198 81000000 		.4byte	0x81
 7686 119c 02       		.uleb128 0x2
 7687 119d 91       		.byte	0x91
 7688 119e 49       		.sleb128 -55
 7689 119f 00       		.byte	0
 7690 11a0 10       		.uleb128 0x10
 7691 11a1 480C0000 		.4byte	.LBB134
 7692 11a5 28000000 		.4byte	.LBE134-.LBB134
 7693 11a9 BB110000 		.4byte	0x11bb
 7694 11ad 12       		.uleb128 0x12
 7695 11ae 7800     		.ascii	"x\000"
 7696 11b0 01       		.byte	0x1
 7697 11b1 0A03     		.2byte	0x30a
 7698 11b3 81000000 		.4byte	0x81
 7699 11b7 02       		.uleb128 0x2
 7700 11b8 91       		.byte	0x91
 7701 11b9 48       		.sleb128 -56
 7702 11ba 00       		.byte	0
 7703 11bb 10       		.uleb128 0x10
 7704 11bc 8A0C0000 		.4byte	.LBB135
 7705 11c0 42000000 		.4byte	.LBE135-.LBB135
 7706 11c4 D6110000 		.4byte	0x11d6
 7707 11c8 12       		.uleb128 0x12
 7708 11c9 7800     		.ascii	"x\000"
 7709 11cb 01       		.byte	0x1
 7710 11cc 0F03     		.2byte	0x30f
 7711 11ce 81000000 		.4byte	0x81
 7712 11d2 02       		.uleb128 0x2
 7713 11d3 91       		.byte	0x91
 7714 11d4 47       		.sleb128 -57
 7715 11d5 00       		.byte	0
 7716 11d6 10       		.uleb128 0x10
 7717 11d7 D60C0000 		.4byte	.LBB136
 7718 11db 28000000 		.4byte	.LBE136-.LBB136
 7719 11df F1110000 		.4byte	0x11f1
 7720 11e3 12       		.uleb128 0x12
 7721 11e4 7800     		.ascii	"x\000"
 7722 11e6 01       		.byte	0x1
 7723 11e7 1503     		.2byte	0x315
 7724 11e9 81000000 		.4byte	0x81
 7725 11ed 02       		.uleb128 0x2
 7726 11ee 91       		.byte	0x91
 7727 11ef 46       		.sleb128 -58
 7728 11f0 00       		.byte	0
 7729 11f1 10       		.uleb128 0x10
 7730 11f2 FE0C0000 		.4byte	.LBB137
 7731 11f6 28000000 		.4byte	.LBE137-.LBB137
 7732 11fa 0C120000 		.4byte	0x120c
 7733 11fe 12       		.uleb128 0x12
 7734 11ff 7800     		.ascii	"x\000"
 7735 1201 01       		.byte	0x1
 7736 1202 1903     		.2byte	0x319
 7737 1204 81000000 		.4byte	0x81
 7738 1208 02       		.uleb128 0x2
 7739 1209 91       		.byte	0x91
 7740 120a 45       		.sleb128 -59
ARM GAS  C:\Users\THERMA~1\AppData\Local\Temp\ccXswU2c.s 			page 159


 7741 120b 00       		.byte	0
 7742 120c 10       		.uleb128 0x10
 7743 120d 300D0000 		.4byte	.LBB138
 7744 1211 48000000 		.4byte	.LBE138-.LBB138
 7745 1215 27120000 		.4byte	0x1227
 7746 1219 12       		.uleb128 0x12
 7747 121a 7800     		.ascii	"x\000"
 7748 121c 01       		.byte	0x1
 7749 121d 1F03     		.2byte	0x31f
 7750 121f 81000000 		.4byte	0x81
 7751 1223 02       		.uleb128 0x2
 7752 1224 91       		.byte	0x91
 7753 1225 44       		.sleb128 -60
 7754 1226 00       		.byte	0
 7755 1227 10       		.uleb128 0x10
 7756 1228 820D0000 		.4byte	.LBB139
 7757 122c 28000000 		.4byte	.LBE139-.LBB139
 7758 1230 42120000 		.4byte	0x1242
 7759 1234 12       		.uleb128 0x12
 7760 1235 7800     		.ascii	"x\000"
 7761 1237 01       		.byte	0x1
 7762 1238 2303     		.2byte	0x323
 7763 123a 81000000 		.4byte	0x81
 7764 123e 02       		.uleb128 0x2
 7765 123f 91       		.byte	0x91
 7766 1240 43       		.sleb128 -61
 7767 1241 00       		.byte	0
 7768 1242 10       		.uleb128 0x10
 7769 1243 B40D0000 		.4byte	.LBB140
 7770 1247 28000000 		.4byte	.LBE140-.LBB140
 7771 124b 5D120000 		.4byte	0x125d
 7772 124f 12       		.uleb128 0x12
 7773 1250 7800     		.ascii	"x\000"
 7774 1252 01       		.byte	0x1
 7775 1253 2703     		.2byte	0x327
 7776 1255 81000000 		.4byte	0x81
 7777 1259 02       		.uleb128 0x2
 7778 125a 91       		.byte	0x91
 7779 125b 42       		.sleb128 -62
 7780 125c 00       		.byte	0
 7781 125d 10       		.uleb128 0x10
 7782 125e 0E0E0000 		.4byte	.LBB141
 7783 1262 38000000 		.4byte	.LBE141-.LBB141
 7784 1266 78120000 		.4byte	0x1278
 7785 126a 12       		.uleb128 0x12
 7786 126b 7800     		.ascii	"x\000"
 7787 126d 01       		.byte	0x1
 7788 126e 2F03     		.2byte	0x32f
 7789 1270 81000000 		.4byte	0x81
 7790 1274 02       		.uleb128 0x2
 7791 1275 91       		.byte	0x91
 7792 1276 41       		.sleb128 -63
 7793 1277 00       		.byte	0
 7794 1278 10       		.uleb128 0x10
 7795 1279 460E0000 		.4byte	.LBB142
 7796 127d 38000000 		.4byte	.LBE142-.LBB142
 7797 1281 93120000 		.4byte	0x1293
ARM GAS  C:\Users\THERMA~1\AppData\Local\Temp\ccXswU2c.s 			page 160


 7798 1285 12       		.uleb128 0x12
 7799 1286 7800     		.ascii	"x\000"
 7800 1288 01       		.byte	0x1
 7801 1289 3203     		.2byte	0x332
 7802 128b 81000000 		.4byte	0x81
 7803 128f 02       		.uleb128 0x2
 7804 1290 91       		.byte	0x91
 7805 1291 40       		.sleb128 -64
 7806 1292 00       		.byte	0
 7807 1293 10       		.uleb128 0x10
 7808 1294 7E0E0000 		.4byte	.LBB143
 7809 1298 38000000 		.4byte	.LBE143-.LBB143
 7810 129c AF120000 		.4byte	0x12af
 7811 12a0 12       		.uleb128 0x12
 7812 12a1 7800     		.ascii	"x\000"
 7813 12a3 01       		.byte	0x1
 7814 12a4 3503     		.2byte	0x335
 7815 12a6 81000000 		.4byte	0x81
 7816 12aa 03       		.uleb128 0x3
 7817 12ab 91       		.byte	0x91
 7818 12ac BF7F     		.sleb128 -65
 7819 12ae 00       		.byte	0
 7820 12af 13       		.uleb128 0x13
 7821 12b0 B60E0000 		.4byte	.LBB144
 7822 12b4 38000000 		.4byte	.LBE144-.LBB144
 7823 12b8 12       		.uleb128 0x12
 7824 12b9 7800     		.ascii	"x\000"
 7825 12bb 01       		.byte	0x1
 7826 12bc 3803     		.2byte	0x338
 7827 12be 81000000 		.4byte	0x81
 7828 12c2 03       		.uleb128 0x3
 7829 12c3 91       		.byte	0x91
 7830 12c4 BE7F     		.sleb128 -66
 7831 12c6 00       		.byte	0
 7832 12c7 00       		.byte	0
 7833 12c8 0B       		.uleb128 0xb
 7834 12c9 BF000000 		.4byte	0xbf
 7835 12cd D8120000 		.4byte	0x12d8
 7836 12d1 0C       		.uleb128 0xc
 7837 12d2 D9000000 		.4byte	0xd9
 7838 12d6 09       		.byte	0x9
 7839 12d7 00       		.byte	0
 7840 12d8 16       		.uleb128 0x16
 7841 12d9 B7030000 		.4byte	.LASF50
 7842 12dd 06       		.byte	0x6
 7843 12de 1207     		.2byte	0x712
 7844 12e0 E4120000 		.4byte	0x12e4
 7845 12e4 17       		.uleb128 0x17
 7846 12e5 76000000 		.4byte	0x76
 7847 12e9 18       		.uleb128 0x18
 7848 12ea 0A030000 		.4byte	.LASF51
 7849 12ee 05       		.byte	0x5
 7850 12ef 10       		.byte	0x10
 7851 12f0 8D000000 		.4byte	0x8d
 7852 12f4 05       		.uleb128 0x5
 7853 12f5 03       		.byte	0x3
 7854 12f6 00000000 		.4byte	PollCounter
ARM GAS  C:\Users\THERMA~1\AppData\Local\Temp\ccXswU2c.s 			page 161


 7855 12fa 18       		.uleb128 0x18
 7856 12fb 65030000 		.4byte	.LASF52
 7857 12ff 05       		.byte	0x5
 7858 1300 11       		.byte	0x11
 7859 1301 81000000 		.4byte	0x81
 7860 1305 05       		.uleb128 0x5
 7861 1306 03       		.byte	0x3
 7862 1307 00000000 		.4byte	CurrentState
 7863 130b 18       		.uleb128 0x18
 7864 130c 40010000 		.4byte	.LASF53
 7865 1310 05       		.byte	0x5
 7866 1311 12       		.byte	0x12
 7867 1312 81000000 		.4byte	0x81
 7868 1316 05       		.uleb128 0x5
 7869 1317 03       		.byte	0x3
 7870 1318 00000000 		.4byte	Receipt
 7871 131c 0B       		.uleb128 0xb
 7872 131d 81000000 		.4byte	0x81
 7873 1321 2C130000 		.4byte	0x132c
 7874 1325 0C       		.uleb128 0xc
 7875 1326 D9000000 		.4byte	0xd9
 7876 132a 05       		.byte	0x5
 7877 132b 00       		.byte	0
 7878 132c 18       		.uleb128 0x18
 7879 132d 2F000000 		.4byte	.LASF54
 7880 1331 05       		.byte	0x5
 7881 1332 13       		.byte	0x13
 7882 1333 1C130000 		.4byte	0x131c
 7883 1337 05       		.uleb128 0x5
 7884 1338 03       		.byte	0x3
 7885 1339 00000000 		.4byte	sale_number
 7886 133d 18       		.uleb128 0x18
 7887 133e 97020000 		.4byte	.LASF55
 7888 1342 05       		.byte	0x5
 7889 1343 14       		.byte	0x14
 7890 1344 1C130000 		.4byte	0x131c
 7891 1348 05       		.uleb128 0x5
 7892 1349 03       		.byte	0x3
 7893 134a 00000000 		.4byte	sale_number_copy
 7894 134e 18       		.uleb128 0x18
 7895 134f 13000000 		.4byte	.LASF56
 7896 1353 05       		.byte	0x5
 7897 1354 15       		.byte	0x15
 7898 1355 81000000 		.4byte	0x81
 7899 1359 05       		.uleb128 0x5
 7900 135a 03       		.byte	0x3
 7901 135b 00000000 		.4byte	int_salenumber
 7902 135f 18       		.uleb128 0x18
 7903 1360 AE040000 		.4byte	.LASF57
 7904 1364 05       		.byte	0x5
 7905 1365 16       		.byte	0x16
 7906 1366 1C130000 		.4byte	0x131c
 7907 136a 05       		.uleb128 0x5
 7908 136b 03       		.byte	0x3
 7909 136c 00000000 		.4byte	shift_number
 7910 1370 18       		.uleb128 0x18
 7911 1371 29020000 		.4byte	.LASF58
ARM GAS  C:\Users\THERMA~1\AppData\Local\Temp\ccXswU2c.s 			page 162


 7912 1375 05       		.byte	0x5
 7913 1376 17       		.byte	0x17
 7914 1377 81000000 		.4byte	0x81
 7915 137b 05       		.uleb128 0x5
 7916 137c 03       		.byte	0x3
 7917 137d 00000000 		.4byte	int_shiftnumber
 7918 1381 18       		.uleb128 0x18
 7919 1382 39020000 		.4byte	.LASF59
 7920 1386 05       		.byte	0x5
 7921 1387 18       		.byte	0x18
 7922 1388 81000000 		.4byte	0x81
 7923 138c 05       		.uleb128 0x5
 7924 138d 03       		.byte	0x3
 7925 138e 00000000 		.4byte	LCDhose
 7926 1392 18       		.uleb128 0x18
 7927 1393 DA000000 		.4byte	.LASF60
 7928 1397 05       		.byte	0x5
 7929 1398 3F       		.byte	0x3f
 7930 1399 90020000 		.4byte	0x290
 7931 139d 05       		.uleb128 0x5
 7932 139e 03       		.byte	0x3
 7933 139f 00000000 		.4byte	side
 7934 13a3 18       		.uleb128 0x18
 7935 13a4 1C040000 		.4byte	.LASF61
 7936 13a8 05       		.byte	0x5
 7937 13a9 48       		.byte	0x48
 7938 13aa 2E020000 		.4byte	0x22e
 7939 13ae 05       		.uleb128 0x5
 7940 13af 03       		.byte	0x3
 7941 13b0 00000000 		.4byte	MepsanResponse
 7942 13b4 18       		.uleb128 0x18
 7943 13b5 41030000 		.4byte	.LASF62
 7944 13b9 05       		.byte	0x5
 7945 13ba 49       		.byte	0x49
 7946 13bb 2E020000 		.4byte	0x22e
 7947 13bf 05       		.uleb128 0x5
 7948 13c0 03       		.byte	0x3
 7949 13c1 00000000 		.4byte	MepsanSendTo
 7950 13c5 0B       		.uleb128 0xb
 7951 13c6 81000000 		.4byte	0x81
 7952 13ca D5130000 		.4byte	0x13d5
 7953 13ce 0C       		.uleb128 0xc
 7954 13cf D9000000 		.4byte	0xd9
 7955 13d3 0E       		.byte	0xe
 7956 13d4 00       		.byte	0
 7957 13d5 18       		.uleb128 0x18
 7958 13d6 07000000 		.4byte	.LASF63
 7959 13da 05       		.byte	0x5
 7960 13db 4A       		.byte	0x4a
 7961 13dc C5130000 		.4byte	0x13c5
 7962 13e0 05       		.uleb128 0x5
 7963 13e1 03       		.byte	0x3
 7964 13e2 00000000 		.4byte	PumpAddress
 7965 13e6 19       		.uleb128 0x19
 7966 13e7 43524300 		.ascii	"CRC\000"
 7967 13eb 05       		.byte	0x5
 7968 13ec 4B       		.byte	0x4b
ARM GAS  C:\Users\THERMA~1\AppData\Local\Temp\ccXswU2c.s 			page 163


 7969 13ed 8D000000 		.4byte	0x8d
 7970 13f1 05       		.uleb128 0x5
 7971 13f2 03       		.byte	0x3
 7972 13f3 00000000 		.4byte	CRC
 7973 13f7 18       		.uleb128 0x18
 7974 13f8 08040000 		.4byte	.LASF64
 7975 13fc 05       		.byte	0x5
 7976 13fd 4C       		.byte	0x4c
 7977 13fe 81000000 		.4byte	0x81
 7978 1402 05       		.uleb128 0x5
 7979 1403 03       		.byte	0x3
 7980 1404 00000000 		.4byte	crc_lo
 7981 1408 18       		.uleb128 0x18
 7982 1409 A7030000 		.4byte	.LASF65
 7983 140d 05       		.byte	0x5
 7984 140e 4C       		.byte	0x4c
 7985 140f 81000000 		.4byte	0x81
 7986 1413 05       		.uleb128 0x5
 7987 1414 03       		.byte	0x3
 7988 1415 00000000 		.4byte	crc_hi
 7989 1419 18       		.uleb128 0x18
 7990 141a D3020000 		.4byte	.LASF66
 7991 141e 05       		.byte	0x5
 7992 141f 4D       		.byte	0x4d
 7993 1420 81000000 		.4byte	0x81
 7994 1424 05       		.uleb128 0x5
 7995 1425 03       		.byte	0x3
 7996 1426 00000000 		.4byte	Positions
 7997 142a 18       		.uleb128 0x18
 7998 142b D4010000 		.4byte	.LASF67
 7999 142f 05       		.byte	0x5
 8000 1430 4E       		.byte	0x4e
 8001 1431 81000000 		.4byte	0x81
 8002 1435 05       		.uleb128 0x5
 8003 1436 03       		.byte	0x3
 8004 1437 00000000 		.4byte	TotalRequestType
 8005 143b 18       		.uleb128 0x18
 8006 143c 45000000 		.4byte	.LASF68
 8007 1440 05       		.byte	0x5
 8008 1441 4F       		.byte	0x4f
 8009 1442 81000000 		.4byte	0x81
 8010 1446 05       		.uleb128 0x5
 8011 1447 03       		.byte	0x3
 8012 1448 00000000 		.4byte	DecVol
 8013 144c 0B       		.uleb128 0xb
 8014 144d 81000000 		.4byte	0x81
 8015 1451 5C140000 		.4byte	0x145c
 8016 1455 0C       		.uleb128 0xc
 8017 1456 D9000000 		.4byte	0xd9
 8018 145a 13       		.byte	0x13
 8019 145b 00       		.byte	0
 8020 145c 18       		.uleb128 0x18
 8021 145d E2030000 		.4byte	.LASF69
 8022 1461 05       		.byte	0x5
 8023 1462 58       		.byte	0x58
 8024 1463 4C140000 		.4byte	0x144c
 8025 1467 05       		.uleb128 0x5
ARM GAS  C:\Users\THERMA~1\AppData\Local\Temp\ccXswU2c.s 			page 164


 8026 1468 03       		.byte	0x3
 8027 1469 00000000 		.4byte	touch1
 8028 146d 18       		.uleb128 0x18
 8029 146e D9050000 		.4byte	.LASF70
 8030 1472 05       		.byte	0x5
 8031 1473 61       		.byte	0x61
 8032 1474 81000000 		.4byte	0x81
 8033 1478 05       		.uleb128 0x5
 8034 1479 03       		.byte	0x3
 8035 147a 00000000 		.4byte	dirGbr
 8036 147e 18       		.uleb128 0x18
 8037 147f BB040000 		.4byte	.LASF71
 8038 1483 01       		.byte	0x1
 8039 1484 12       		.byte	0x12
 8040 1485 81000000 		.4byte	0x81
 8041 1489 05       		.uleb128 0x5
 8042 148a 03       		.byte	0x3
 8043 148b 00000000 		.4byte	LINE_FEED
 8044 148f 0B       		.uleb128 0xb
 8045 1490 CB000000 		.4byte	0xcb
 8046 1494 9F140000 		.4byte	0x149f
 8047 1498 0C       		.uleb128 0xc
 8048 1499 D9000000 		.4byte	0xd9
 8049 149d 00       		.byte	0
 8050 149e 00       		.byte	0
 8051 149f 18       		.uleb128 0x18
 8052 14a0 ED050000 		.4byte	.LASF72
 8053 14a4 01       		.byte	0x1
 8054 14a5 13       		.byte	0x13
 8055 14a6 8F140000 		.4byte	0x148f
 8056 14aa 05       		.uleb128 0x5
 8057 14ab 03       		.byte	0x3
 8058 14ac 00000000 		.4byte	VolSimbol
 8059 14b0 0B       		.uleb128 0xb
 8060 14b1 81000000 		.4byte	0x81
 8061 14b5 C0140000 		.4byte	0x14c0
 8062 14b9 0C       		.uleb128 0xc
 8063 14ba D9000000 		.4byte	0xd9
 8064 14be 1F       		.byte	0x1f
 8065 14bf 00       		.byte	0
 8066 14c0 18       		.uleb128 0x18
 8067 14c1 AC010000 		.4byte	.LASF73
 8068 14c5 01       		.byte	0x1
 8069 14c6 17       		.byte	0x17
 8070 14c7 B0140000 		.4byte	0x14b0
 8071 14cb 05       		.uleb128 0x5
 8072 14cc 03       		.byte	0x3
 8073 14cd 00000000 		.4byte	msn_EDS
 8074 14d1 18       		.uleb128 0x18
 8075 14d2 9D050000 		.4byte	.LASF74
 8076 14d6 01       		.byte	0x1
 8077 14d7 18       		.byte	0x18
 8078 14d8 B0140000 		.4byte	0x14b0
 8079 14dc 05       		.uleb128 0x5
 8080 14dd 03       		.byte	0x3
 8081 14de 00000000 		.4byte	msn_EDS2
 8082 14e2 18       		.uleb128 0x18
ARM GAS  C:\Users\THERMA~1\AppData\Local\Temp\ccXswU2c.s 			page 165


 8083 14e3 A6050000 		.4byte	.LASF75
 8084 14e7 01       		.byte	0x1
 8085 14e8 1A       		.byte	0x1a
 8086 14e9 B0140000 		.4byte	0x14b0
 8087 14ed 05       		.uleb128 0x5
 8088 14ee 03       		.byte	0x3
 8089 14ef 00000000 		.4byte	msn_EDS4
 8090 14f3 18       		.uleb128 0x18
 8091 14f4 AF050000 		.4byte	.LASF76
 8092 14f8 01       		.byte	0x1
 8093 14f9 1B       		.byte	0x1b
 8094 14fa B0140000 		.4byte	0x14b0
 8095 14fe 05       		.uleb128 0x5
 8096 14ff 03       		.byte	0x3
 8097 1500 00000000 		.4byte	msn_EDS5
 8098 1504 18       		.uleb128 0x18
 8099 1505 B8050000 		.4byte	.LASF77
 8100 1509 01       		.byte	0x1
 8101 150a 1C       		.byte	0x1c
 8102 150b B0140000 		.4byte	0x14b0
 8103 150f 05       		.uleb128 0x5
 8104 1510 03       		.byte	0x3
 8105 1511 00000000 		.4byte	msn_EDS6
 8106 1515 18       		.uleb128 0x18
 8107 1516 A3040000 		.4byte	.LASF78
 8108 151a 01       		.byte	0x1
 8109 151b 1D       		.byte	0x1d
 8110 151c B0140000 		.4byte	0x14b0
 8111 1520 05       		.uleb128 0x5
 8112 1521 03       		.byte	0x3
 8113 1522 00000000 		.4byte	msn_footer
 8114 1526 18       		.uleb128 0x18
 8115 1527 DF000000 		.4byte	.LASF79
 8116 152b 01       		.byte	0x1
 8117 152c 1E       		.byte	0x1e
 8118 152d B0140000 		.4byte	0x14b0
 8119 1531 05       		.uleb128 0x5
 8120 1532 03       		.byte	0x3
 8121 1533 00000000 		.4byte	msn_footer2
 8122 1537 18       		.uleb128 0x18
 8123 1538 EB000000 		.4byte	.LASF80
 8124 153c 01       		.byte	0x1
 8125 153d 1F       		.byte	0x1f
 8126 153e B0140000 		.4byte	0x14b0
 8127 1542 05       		.uleb128 0x5
 8128 1543 03       		.byte	0x3
 8129 1544 00000000 		.4byte	msn_footer3
 8130 1548 18       		.uleb128 0x18
 8131 1549 F7000000 		.4byte	.LASF81
 8132 154d 01       		.byte	0x1
 8133 154e 20       		.byte	0x20
 8134 154f B0140000 		.4byte	0x14b0
 8135 1553 05       		.uleb128 0x5
 8136 1554 03       		.byte	0x3
 8137 1555 00000000 		.4byte	msn_footer4
 8138 1559 18       		.uleb128 0x18
 8139 155a CB010000 		.4byte	.LASF82
ARM GAS  C:\Users\THERMA~1\AppData\Local\Temp\ccXswU2c.s 			page 166


 8140 155e 01       		.byte	0x1
 8141 155f 21       		.byte	0x21
 8142 1560 B0140000 		.4byte	0x14b0
 8143 1564 05       		.uleb128 0x5
 8144 1565 03       		.byte	0x3
 8145 1566 00000000 		.4byte	msn_copy
 8146 156a 0B       		.uleb128 0xb
 8147 156b 81000000 		.4byte	0x81
 8148 156f 7A150000 		.4byte	0x157a
 8149 1573 0C       		.uleb128 0xc
 8150 1574 D9000000 		.4byte	0xd9
 8151 1578 08       		.byte	0x8
 8152 1579 00       		.byte	0
 8153 157a 18       		.uleb128 0x18
 8154 157b 4E030000 		.4byte	.LASF83
 8155 157f 01       		.byte	0x1
 8156 1580 22       		.byte	0x22
 8157 1581 6A150000 		.4byte	0x156a
 8158 1585 05       		.uleb128 0x5
 8159 1586 03       		.byte	0x3
 8160 1587 00000000 		.4byte	msn_diesel
 8161 158b 18       		.uleb128 0x18
 8162 158c DD020000 		.4byte	.LASF84
 8163 1590 01       		.byte	0x1
 8164 1591 23       		.byte	0x23
 8165 1592 6A150000 		.4byte	0x156a
 8166 1596 05       		.uleb128 0x5
 8167 1597 03       		.byte	0x3
 8168 1598 00000000 		.4byte	msn_gasoline
 8169 159c 0B       		.uleb128 0xb
 8170 159d 81000000 		.4byte	0x81
 8171 15a1 AC150000 		.4byte	0x15ac
 8172 15a5 0C       		.uleb128 0xc
 8173 15a6 D9000000 		.4byte	0xd9
 8174 15aa 0C       		.byte	0xc
 8175 15ab 00       		.byte	0
 8176 15ac 18       		.uleb128 0x18
 8177 15ad 62040000 		.4byte	.LASF85
 8178 15b1 01       		.byte	0x1
 8179 15b2 27       		.byte	0x27
 8180 15b3 9C150000 		.4byte	0x159c
 8181 15b7 05       		.uleb128 0x5
 8182 15b8 03       		.byte	0x3
 8183 15b9 00000000 		.4byte	msn_fecha
 8184 15bd 18       		.uleb128 0x18
 8185 15be B4010000 		.4byte	.LASF86
 8186 15c2 01       		.byte	0x1
 8187 15c3 28       		.byte	0x28
 8188 15c4 9C150000 		.4byte	0x159c
 8189 15c8 05       		.uleb128 0x5
 8190 15c9 03       		.byte	0x3
 8191 15ca 00000000 		.4byte	msn_hora
 8192 15ce 18       		.uleb128 0x18
 8193 15cf 7C010000 		.4byte	.LASF87
 8194 15d3 01       		.byte	0x1
 8195 15d4 29       		.byte	0x29
 8196 15d5 9C150000 		.4byte	0x159c
ARM GAS  C:\Users\THERMA~1\AppData\Local\Temp\ccXswU2c.s 			page 167


 8197 15d9 05       		.uleb128 0x5
 8198 15da 03       		.byte	0x3
 8199 15db 00000000 		.4byte	msn_placa
 8200 15df 18       		.uleb128 0x18
 8201 15e0 4B020000 		.4byte	.LASF88
 8202 15e4 01       		.byte	0x1
 8203 15e5 2A       		.byte	0x2a
 8204 15e6 9C150000 		.4byte	0x159c
 8205 15ea 05       		.uleb128 0x5
 8206 15eb 03       		.byte	0x3
 8207 15ec 00000000 		.4byte	PRN_MILLEAGE
 8208 15f0 18       		.uleb128 0x18
 8209 15f1 BD010000 		.4byte	.LASF89
 8210 15f5 01       		.byte	0x1
 8211 15f6 2B       		.byte	0x2b
 8212 15f7 9C150000 		.4byte	0x159c
 8213 15fb 05       		.uleb128 0x5
 8214 15fc 03       		.byte	0x3
 8215 15fd 00000000 		.4byte	PRN_TRANSTYPE
 8216 1601 18       		.uleb128 0x18
 8217 1602 17010000 		.4byte	.LASF90
 8218 1606 01       		.byte	0x1
 8219 1607 2C       		.byte	0x2c
 8220 1608 9C150000 		.4byte	0x159c
 8221 160c 05       		.uleb128 0x5
 8222 160d 03       		.byte	0x3
 8223 160e 00000000 		.4byte	msn_pos
 8224 1612 18       		.uleb128 0x18
 8225 1613 2B040000 		.4byte	.LASF91
 8226 1617 01       		.byte	0x1
 8227 1618 2D       		.byte	0x2d
 8228 1619 9C150000 		.4byte	0x159c
 8229 161d 05       		.uleb128 0x5
 8230 161e 03       		.byte	0x3
 8231 161f 00000000 		.4byte	msn_product
 8232 1623 18       		.uleb128 0x18
 8233 1624 74010000 		.4byte	.LASF92
 8234 1628 01       		.byte	0x1
 8235 1629 2E       		.byte	0x2e
 8236 162a 9C150000 		.4byte	0x159c
 8237 162e 05       		.uleb128 0x5
 8238 162f 03       		.byte	0x3
 8239 1630 00000000 		.4byte	msn_ppu
 8240 1634 18       		.uleb128 0x18
 8241 1635 2B030000 		.4byte	.LASF93
 8242 1639 01       		.byte	0x1
 8243 163a 2F       		.byte	0x2f
 8244 163b 9C150000 		.4byte	0x159c
 8245 163f 05       		.uleb128 0x5
 8246 1640 03       		.byte	0x3
 8247 1641 00000000 		.4byte	msn_vol
 8248 1645 18       		.uleb128 0x18
 8249 1646 C2020000 		.4byte	.LASF94
 8250 164a 01       		.byte	0x1
 8251 164b 30       		.byte	0x30
 8252 164c 9C150000 		.4byte	0x159c
 8253 1650 05       		.uleb128 0x5
ARM GAS  C:\Users\THERMA~1\AppData\Local\Temp\ccXswU2c.s 			page 168


 8254 1651 03       		.byte	0x3
 8255 1652 00000000 		.4byte	msn_voltot
 8256 1656 18       		.uleb128 0x18
 8257 1657 08060000 		.4byte	.LASF95
 8258 165b 01       		.byte	0x1
 8259 165c 31       		.byte	0x31
 8260 165d 9C150000 		.4byte	0x159c
 8261 1661 05       		.uleb128 0x5
 8262 1662 03       		.byte	0x3
 8263 1663 00000000 		.4byte	msn_din
 8264 1667 18       		.uleb128 0x18
 8265 1668 76020000 		.4byte	.LASF96
 8266 166c 01       		.byte	0x1
 8267 166d 32       		.byte	0x32
 8268 166e 9C150000 		.4byte	0x159c
 8269 1672 05       		.uleb128 0x5
 8270 1673 03       		.byte	0x3
 8271 1674 00000000 		.4byte	msn_cierre
 8272 1678 18       		.uleb128 0x18
 8273 1679 41020000 		.4byte	.LASF97
 8274 167d 01       		.byte	0x1
 8275 167e 33       		.byte	0x33
 8276 167f 9C150000 		.4byte	0x159c
 8277 1683 05       		.uleb128 0x5
 8278 1684 03       		.byte	0x3
 8279 1685 00000000 		.4byte	msn_venta
 8280 1689 18       		.uleb128 0x18
 8281 168a 58020000 		.4byte	.LASF98
 8282 168e 01       		.byte	0x1
 8283 168f 34       		.byte	0x34
 8284 1690 9C150000 		.4byte	0x159c
 8285 1694 05       		.uleb128 0x5
 8286 1695 03       		.byte	0x3
 8287 1696 00000000 		.4byte	msn_numero
 8288 169a 18       		.uleb128 0x18
 8289 169b EB040000 		.4byte	.LASF99
 8290 169f 01       		.byte	0x1
 8291 16a0 35       		.byte	0x35
 8292 16a1 9C150000 		.4byte	0x159c
 8293 16a5 05       		.uleb128 0x5
 8294 16a6 03       		.byte	0x3
 8295 16a7 00000000 		.4byte	PRN_BALANCE
 8296 16ab 18       		.uleb128 0x18
 8297 16ac C5040000 		.4byte	.LASF100
 8298 16b0 01       		.byte	0x1
 8299 16b1 36       		.byte	0x36
 8300 16b2 9C150000 		.4byte	0x159c
 8301 16b6 05       		.uleb128 0x5
 8302 16b7 03       		.byte	0x3
 8303 16b8 00000000 		.4byte	PRN_COMPANY
 8304 16bc 18       		.uleb128 0x18
 8305 16bd FA010000 		.4byte	.LASF101
 8306 16c1 01       		.byte	0x1
 8307 16c2 37       		.byte	0x37
 8308 16c3 9C150000 		.4byte	0x159c
 8309 16c7 05       		.uleb128 0x5
 8310 16c8 03       		.byte	0x3
ARM GAS  C:\Users\THERMA~1\AppData\Local\Temp\ccXswU2c.s 			page 169


 8311 16c9 00000000 		.4byte	PRN_ACCOUNT
 8312 16cd 18       		.uleb128 0x18
 8313 16ce CE050000 		.4byte	.LASF102
 8314 16d2 01       		.byte	0x1
 8315 16d3 38       		.byte	0x38
 8316 16d4 9C150000 		.4byte	0x159c
 8317 16d8 05       		.uleb128 0x5
 8318 16d9 03       		.byte	0x3
 8319 16da 00000000 		.4byte	PRN_SERIAL
 8320 16de 18       		.uleb128 0x18
 8321 16df 7E030000 		.4byte	.LASF103
 8322 16e3 01       		.byte	0x1
 8323 16e4 39       		.byte	0x39
 8324 16e5 9C150000 		.4byte	0x159c
 8325 16e9 05       		.uleb128 0x5
 8326 16ea 03       		.byte	0x3
 8327 16eb 00000000 		.4byte	PRN_ACCOUNTTYPE
 8328 16ef 18       		.uleb128 0x18
 8329 16f0 A8020000 		.4byte	.LASF104
 8330 16f4 01       		.byte	0x1
 8331 16f5 3A       		.byte	0x3a
 8332 16f6 9C150000 		.4byte	0x159c
 8333 16fa 05       		.uleb128 0x5
 8334 16fb 03       		.byte	0x3
 8335 16fc 00000000 		.4byte	PRN_VISITSDAY
 8336 1700 18       		.uleb128 0x18
 8337 1701 8E030000 		.4byte	.LASF105
 8338 1705 01       		.byte	0x1
 8339 1706 3B       		.byte	0x3b
 8340 1707 9C150000 		.4byte	0x159c
 8341 170b 05       		.uleb128 0x5
 8342 170c 03       		.byte	0x3
 8343 170d 00000000 		.4byte	PRN_VISITSWEEK
 8344 1711 18       		.uleb128 0x18
 8345 1712 85040000 		.4byte	.LASF106
 8346 1716 01       		.byte	0x1
 8347 1717 3C       		.byte	0x3c
 8348 1718 9C150000 		.4byte	0x159c
 8349 171c 05       		.uleb128 0x5
 8350 171d 03       		.byte	0x3
 8351 171e 00000000 		.4byte	PRN_VISITSMONTH
 8352 1722 18       		.uleb128 0x18
 8353 1723 06020000 		.4byte	.LASF107
 8354 1727 01       		.byte	0x1
 8355 1728 3D       		.byte	0x3d
 8356 1729 9C150000 		.4byte	0x159c
 8357 172d 05       		.uleb128 0x5
 8358 172e 03       		.byte	0x3
 8359 172f 00000000 		.4byte	PRN_VOLUMEDAY
 8360 1733 18       		.uleb128 0x18
 8361 1734 86010000 		.4byte	.LASF108
 8362 1738 01       		.byte	0x1
 8363 1739 3E       		.byte	0x3e
 8364 173a 9C150000 		.4byte	0x159c
 8365 173e 05       		.uleb128 0x5
 8366 173f 03       		.byte	0x3
 8367 1740 00000000 		.4byte	PRN_VOLUMEWEEK
ARM GAS  C:\Users\THERMA~1\AppData\Local\Temp\ccXswU2c.s 			page 170


 8368 1744 18       		.uleb128 0x18
 8369 1745 53010000 		.4byte	.LASF109
 8370 1749 01       		.byte	0x1
 8371 174a 3F       		.byte	0x3f
 8372 174b 9C150000 		.4byte	0x159c
 8373 174f 05       		.uleb128 0x5
 8374 1750 03       		.byte	0x3
 8375 1751 00000000 		.4byte	PRN_VOLUMEMONTH
 8376 1755 18       		.uleb128 0x18
 8377 1756 FB030000 		.4byte	.LASF110
 8378 175a 01       		.byte	0x1
 8379 175b 40       		.byte	0x40
 8380 175c 9C150000 		.4byte	0x159c
 8381 1760 05       		.uleb128 0x5
 8382 1761 03       		.byte	0x3
 8383 1762 00000000 		.4byte	PRN_MONEYDAY
 8384 1766 18       		.uleb128 0x18
 8385 1767 83050000 		.4byte	.LASF111
 8386 176b 01       		.byte	0x1
 8387 176c 41       		.byte	0x41
 8388 176d 9C150000 		.4byte	0x159c
 8389 1771 05       		.uleb128 0x5
 8390 1772 03       		.byte	0x3
 8391 1773 00000000 		.4byte	PRN_MONEYWEEK
 8392 1777 18       		.uleb128 0x18
 8393 1778 EB010000 		.4byte	.LASF112
 8394 177c 01       		.byte	0x1
 8395 177d 42       		.byte	0x42
 8396 177e 9C150000 		.4byte	0x159c
 8397 1782 05       		.uleb128 0x5
 8398 1783 03       		.byte	0x3
 8399 1784 00000000 		.4byte	PRN_MONEYMONTH
 8400 1788 18       		.uleb128 0x18
 8401 1789 48010000 		.4byte	.LASF113
 8402 178d 01       		.byte	0x1
 8403 178e 43       		.byte	0x43
 8404 178f 9C150000 		.4byte	0x159c
 8405 1793 05       		.uleb128 0x5
 8406 1794 03       		.byte	0x3
 8407 1795 00000000 		.4byte	PRN_PRESET
 8408 1799 18       		.uleb128 0x18
 8409 179a 75050000 		.4byte	.LASF114
 8410 179e 01       		.byte	0x1
 8411 179f 44       		.byte	0x44
 8412 17a0 9C150000 		.4byte	0x159c
 8413 17a4 05       		.uleb128 0x5
 8414 17a5 03       		.byte	0x3
 8415 17a6 00000000 		.4byte	PRN_SIGNATURE
 8416 17aa 18       		.uleb128 0x18
 8417 17ab 15050000 		.4byte	.LASF115
 8418 17af 01       		.byte	0x1
 8419 17b0 45       		.byte	0x45
 8420 17b1 9C150000 		.4byte	0x159c
 8421 17b5 05       		.uleb128 0x5
 8422 17b6 03       		.byte	0x3
 8423 17b7 00000000 		.4byte	PRN_ID
 8424 17bb 0B       		.uleb128 0xb
ARM GAS  C:\Users\THERMA~1\AppData\Local\Temp\ccXswU2c.s 			page 171


 8425 17bc 81000000 		.4byte	0x81
 8426 17c0 CB170000 		.4byte	0x17cb
 8427 17c4 0C       		.uleb128 0xc
 8428 17c5 D9000000 		.4byte	0xd9
 8429 17c9 00       		.byte	0
 8430 17ca 00       		.byte	0
 8431 17cb 18       		.uleb128 0x18
 8432 17cc E0050000 		.4byte	.LASF116
 8433 17d0 01       		.byte	0x1
 8434 17d1 46       		.byte	0x46
 8435 17d2 BB170000 		.4byte	0x17bb
 8436 17d6 05       		.uleb128 0x5
 8437 17d7 03       		.byte	0x3
 8438 17d8 00000000 		.4byte	PRN_CURRENCY
 8439 17dc 0B       		.uleb128 0xb
 8440 17dd 81000000 		.4byte	0x81
 8441 17e1 EC170000 		.4byte	0x17ec
 8442 17e5 0C       		.uleb128 0xc
 8443 17e6 D9000000 		.4byte	0xd9
 8444 17ea 0F       		.byte	0xf
 8445 17eb 00       		.byte	0
 8446 17ec 18       		.uleb128 0x18
 8447 17ed 1E020000 		.4byte	.LASF117
 8448 17f1 01       		.byte	0x1
 8449 17f2 47       		.byte	0x47
 8450 17f3 DC170000 		.4byte	0x17dc
 8451 17f7 05       		.uleb128 0x5
 8452 17f8 03       		.byte	0x3
 8453 17f9 00000000 		.4byte	msn_lecact
 8454 17fd 18       		.uleb128 0x18
 8455 17fe 69010000 		.4byte	.LASF118
 8456 1802 01       		.byte	0x1
 8457 1803 48       		.byte	0x48
 8458 1804 DC170000 		.4byte	0x17dc
 8459 1808 05       		.uleb128 0x5
 8460 1809 03       		.byte	0x3
 8461 180a 00000000 		.4byte	msn_lecaan
 8462 180e 0B       		.uleb128 0xb
 8463 180f 81000000 		.4byte	0x81
 8464 1813 1E180000 		.4byte	0x181e
 8465 1817 0C       		.uleb128 0xc
 8466 1818 D9000000 		.4byte	0xd9
 8467 181c 11       		.byte	0x11
 8468 181d 00       		.byte	0
 8469 181e 18       		.uleb128 0x18
 8470 181f 00060000 		.4byte	.LASF119
 8471 1823 01       		.byte	0x1
 8472 1824 49       		.byte	0x49
 8473 1825 0E180000 		.4byte	0x180e
 8474 1829 05       		.uleb128 0x5
 8475 182a 03       		.byte	0x3
 8476 182b 00000000 		.4byte	msn_dif
 8477 182f 18       		.uleb128 0x18
 8478 1830 81020000 		.4byte	.LASF120
 8479 1834 01       		.byte	0x1
 8480 1835 4A       		.byte	0x4a
 8481 1836 B0140000 		.4byte	0x14b0
ARM GAS  C:\Users\THERMA~1\AppData\Local\Temp\ccXswU2c.s 			page 172


 8482 183a 05       		.uleb128 0x5
 8483 183b 03       		.byte	0x3
 8484 183c 00000000 		.4byte	SEPARATOR
 8485 1840 18       		.uleb128 0x18
 8486 1841 2A010000 		.4byte	.LASF121
 8487 1845 01       		.byte	0x1
 8488 1846 4B       		.byte	0x4b
 8489 1847 1C130000 		.4byte	0x131c
 8490 184b 05       		.uleb128 0x5
 8491 184c 03       		.byte	0x3
 8492 184d 00000000 		.4byte	ASK_TIME
 8493 1851 00       		.byte	0
 8494              		.section	.debug_abbrev,"",%progbits
 8495              	.Ldebug_abbrev0:
 8496 0000 01       		.uleb128 0x1
 8497 0001 11       		.uleb128 0x11
 8498 0002 01       		.byte	0x1
 8499 0003 25       		.uleb128 0x25
 8500 0004 0E       		.uleb128 0xe
 8501 0005 13       		.uleb128 0x13
 8502 0006 0B       		.uleb128 0xb
 8503 0007 03       		.uleb128 0x3
 8504 0008 0E       		.uleb128 0xe
 8505 0009 1B       		.uleb128 0x1b
 8506 000a 0E       		.uleb128 0xe
 8507 000b 55       		.uleb128 0x55
 8508 000c 17       		.uleb128 0x17
 8509 000d 11       		.uleb128 0x11
 8510 000e 01       		.uleb128 0x1
 8511 000f 10       		.uleb128 0x10
 8512 0010 17       		.uleb128 0x17
 8513 0011 00       		.byte	0
 8514 0012 00       		.byte	0
 8515 0013 02       		.uleb128 0x2
 8516 0014 24       		.uleb128 0x24
 8517 0015 00       		.byte	0
 8518 0016 0B       		.uleb128 0xb
 8519 0017 0B       		.uleb128 0xb
 8520 0018 3E       		.uleb128 0x3e
 8521 0019 0B       		.uleb128 0xb
 8522 001a 03       		.uleb128 0x3
 8523 001b 0E       		.uleb128 0xe
 8524 001c 00       		.byte	0
 8525 001d 00       		.byte	0
 8526 001e 03       		.uleb128 0x3
 8527 001f 16       		.uleb128 0x16
 8528 0020 00       		.byte	0
 8529 0021 03       		.uleb128 0x3
 8530 0022 0E       		.uleb128 0xe
 8531 0023 3A       		.uleb128 0x3a
 8532 0024 0B       		.uleb128 0xb
 8533 0025 3B       		.uleb128 0x3b
 8534 0026 0B       		.uleb128 0xb
 8535 0027 49       		.uleb128 0x49
 8536 0028 13       		.uleb128 0x13
 8537 0029 00       		.byte	0
 8538 002a 00       		.byte	0
ARM GAS  C:\Users\THERMA~1\AppData\Local\Temp\ccXswU2c.s 			page 173


 8539 002b 04       		.uleb128 0x4
 8540 002c 24       		.uleb128 0x24
 8541 002d 00       		.byte	0
 8542 002e 0B       		.uleb128 0xb
 8543 002f 0B       		.uleb128 0xb
 8544 0030 3E       		.uleb128 0x3e
 8545 0031 0B       		.uleb128 0xb
 8546 0032 03       		.uleb128 0x3
 8547 0033 08       		.uleb128 0x8
 8548 0034 00       		.byte	0
 8549 0035 00       		.byte	0
 8550 0036 05       		.uleb128 0x5
 8551 0037 16       		.uleb128 0x16
 8552 0038 00       		.byte	0
 8553 0039 03       		.uleb128 0x3
 8554 003a 0E       		.uleb128 0xe
 8555 003b 3A       		.uleb128 0x3a
 8556 003c 0B       		.uleb128 0xb
 8557 003d 3B       		.uleb128 0x3b
 8558 003e 05       		.uleb128 0x5
 8559 003f 49       		.uleb128 0x49
 8560 0040 13       		.uleb128 0x13
 8561 0041 00       		.byte	0
 8562 0042 00       		.byte	0
 8563 0043 06       		.uleb128 0x6
 8564 0044 13       		.uleb128 0x13
 8565 0045 01       		.byte	0x1
 8566 0046 03       		.uleb128 0x3
 8567 0047 0E       		.uleb128 0xe
 8568 0048 0B       		.uleb128 0xb
 8569 0049 05       		.uleb128 0x5
 8570 004a 3A       		.uleb128 0x3a
 8571 004b 0B       		.uleb128 0xb
 8572 004c 3B       		.uleb128 0x3b
 8573 004d 0B       		.uleb128 0xb
 8574 004e 01       		.uleb128 0x1
 8575 004f 13       		.uleb128 0x13
 8576 0050 00       		.byte	0
 8577 0051 00       		.byte	0
 8578 0052 07       		.uleb128 0x7
 8579 0053 0D       		.uleb128 0xd
 8580 0054 00       		.byte	0
 8581 0055 03       		.uleb128 0x3
 8582 0056 08       		.uleb128 0x8
 8583 0057 3A       		.uleb128 0x3a
 8584 0058 0B       		.uleb128 0xb
 8585 0059 3B       		.uleb128 0x3b
 8586 005a 0B       		.uleb128 0xb
 8587 005b 49       		.uleb128 0x49
 8588 005c 13       		.uleb128 0x13
 8589 005d 38       		.uleb128 0x38
 8590 005e 0B       		.uleb128 0xb
 8591 005f 00       		.byte	0
 8592 0060 00       		.byte	0
 8593 0061 08       		.uleb128 0x8
 8594 0062 0D       		.uleb128 0xd
 8595 0063 00       		.byte	0
ARM GAS  C:\Users\THERMA~1\AppData\Local\Temp\ccXswU2c.s 			page 174


 8596 0064 03       		.uleb128 0x3
 8597 0065 0E       		.uleb128 0xe
 8598 0066 3A       		.uleb128 0x3a
 8599 0067 0B       		.uleb128 0xb
 8600 0068 3B       		.uleb128 0x3b
 8601 0069 0B       		.uleb128 0xb
 8602 006a 49       		.uleb128 0x49
 8603 006b 13       		.uleb128 0x13
 8604 006c 38       		.uleb128 0x38
 8605 006d 0B       		.uleb128 0xb
 8606 006e 00       		.byte	0
 8607 006f 00       		.byte	0
 8608 0070 09       		.uleb128 0x9
 8609 0071 0D       		.uleb128 0xd
 8610 0072 00       		.byte	0
 8611 0073 03       		.uleb128 0x3
 8612 0074 0E       		.uleb128 0xe
 8613 0075 3A       		.uleb128 0x3a
 8614 0076 0B       		.uleb128 0xb
 8615 0077 3B       		.uleb128 0x3b
 8616 0078 0B       		.uleb128 0xb
 8617 0079 49       		.uleb128 0x49
 8618 007a 13       		.uleb128 0x13
 8619 007b 38       		.uleb128 0x38
 8620 007c 05       		.uleb128 0x5
 8621 007d 00       		.byte	0
 8622 007e 00       		.byte	0
 8623 007f 0A       		.uleb128 0xa
 8624 0080 0D       		.uleb128 0xd
 8625 0081 00       		.byte	0
 8626 0082 03       		.uleb128 0x3
 8627 0083 08       		.uleb128 0x8
 8628 0084 3A       		.uleb128 0x3a
 8629 0085 0B       		.uleb128 0xb
 8630 0086 3B       		.uleb128 0x3b
 8631 0087 0B       		.uleb128 0xb
 8632 0088 49       		.uleb128 0x49
 8633 0089 13       		.uleb128 0x13
 8634 008a 38       		.uleb128 0x38
 8635 008b 05       		.uleb128 0x5
 8636 008c 00       		.byte	0
 8637 008d 00       		.byte	0
 8638 008e 0B       		.uleb128 0xb
 8639 008f 01       		.uleb128 0x1
 8640 0090 01       		.byte	0x1
 8641 0091 49       		.uleb128 0x49
 8642 0092 13       		.uleb128 0x13
 8643 0093 01       		.uleb128 0x1
 8644 0094 13       		.uleb128 0x13
 8645 0095 00       		.byte	0
 8646 0096 00       		.byte	0
 8647 0097 0C       		.uleb128 0xc
 8648 0098 21       		.uleb128 0x21
 8649 0099 00       		.byte	0
 8650 009a 49       		.uleb128 0x49
 8651 009b 13       		.uleb128 0x13
 8652 009c 2F       		.uleb128 0x2f
ARM GAS  C:\Users\THERMA~1\AppData\Local\Temp\ccXswU2c.s 			page 175


 8653 009d 0B       		.uleb128 0xb
 8654 009e 00       		.byte	0
 8655 009f 00       		.byte	0
 8656 00a0 0D       		.uleb128 0xd
 8657 00a1 2E       		.uleb128 0x2e
 8658 00a2 01       		.byte	0x1
 8659 00a3 3F       		.uleb128 0x3f
 8660 00a4 19       		.uleb128 0x19
 8661 00a5 03       		.uleb128 0x3
 8662 00a6 0E       		.uleb128 0xe
 8663 00a7 3A       		.uleb128 0x3a
 8664 00a8 0B       		.uleb128 0xb
 8665 00a9 3B       		.uleb128 0x3b
 8666 00aa 0B       		.uleb128 0xb
 8667 00ab 27       		.uleb128 0x27
 8668 00ac 19       		.uleb128 0x19
 8669 00ad 11       		.uleb128 0x11
 8670 00ae 01       		.uleb128 0x1
 8671 00af 12       		.uleb128 0x12
 8672 00b0 06       		.uleb128 0x6
 8673 00b1 40       		.uleb128 0x40
 8674 00b2 18       		.uleb128 0x18
 8675 00b3 9642     		.uleb128 0x2116
 8676 00b5 19       		.uleb128 0x19
 8677 00b6 01       		.uleb128 0x1
 8678 00b7 13       		.uleb128 0x13
 8679 00b8 00       		.byte	0
 8680 00b9 00       		.byte	0
 8681 00ba 0E       		.uleb128 0xe
 8682 00bb 05       		.uleb128 0x5
 8683 00bc 00       		.byte	0
 8684 00bd 03       		.uleb128 0x3
 8685 00be 0E       		.uleb128 0xe
 8686 00bf 3A       		.uleb128 0x3a
 8687 00c0 0B       		.uleb128 0xb
 8688 00c1 3B       		.uleb128 0x3b
 8689 00c2 0B       		.uleb128 0xb
 8690 00c3 49       		.uleb128 0x49
 8691 00c4 13       		.uleb128 0x13
 8692 00c5 02       		.uleb128 0x2
 8693 00c6 18       		.uleb128 0x18
 8694 00c7 00       		.byte	0
 8695 00c8 00       		.byte	0
 8696 00c9 0F       		.uleb128 0xf
 8697 00ca 34       		.uleb128 0x34
 8698 00cb 00       		.byte	0
 8699 00cc 03       		.uleb128 0x3
 8700 00cd 0E       		.uleb128 0xe
 8701 00ce 3A       		.uleb128 0x3a
 8702 00cf 0B       		.uleb128 0xb
 8703 00d0 3B       		.uleb128 0x3b
 8704 00d1 0B       		.uleb128 0xb
 8705 00d2 49       		.uleb128 0x49
 8706 00d3 13       		.uleb128 0x13
 8707 00d4 02       		.uleb128 0x2
 8708 00d5 18       		.uleb128 0x18
 8709 00d6 00       		.byte	0
ARM GAS  C:\Users\THERMA~1\AppData\Local\Temp\ccXswU2c.s 			page 176


 8710 00d7 00       		.byte	0
 8711 00d8 10       		.uleb128 0x10
 8712 00d9 0B       		.uleb128 0xb
 8713 00da 01       		.byte	0x1
 8714 00db 11       		.uleb128 0x11
 8715 00dc 01       		.uleb128 0x1
 8716 00dd 12       		.uleb128 0x12
 8717 00de 06       		.uleb128 0x6
 8718 00df 01       		.uleb128 0x1
 8719 00e0 13       		.uleb128 0x13
 8720 00e1 00       		.byte	0
 8721 00e2 00       		.byte	0
 8722 00e3 11       		.uleb128 0x11
 8723 00e4 34       		.uleb128 0x34
 8724 00e5 00       		.byte	0
 8725 00e6 03       		.uleb128 0x3
 8726 00e7 08       		.uleb128 0x8
 8727 00e8 3A       		.uleb128 0x3a
 8728 00e9 0B       		.uleb128 0xb
 8729 00ea 3B       		.uleb128 0x3b
 8730 00eb 0B       		.uleb128 0xb
 8731 00ec 49       		.uleb128 0x49
 8732 00ed 13       		.uleb128 0x13
 8733 00ee 02       		.uleb128 0x2
 8734 00ef 18       		.uleb128 0x18
 8735 00f0 00       		.byte	0
 8736 00f1 00       		.byte	0
 8737 00f2 12       		.uleb128 0x12
 8738 00f3 34       		.uleb128 0x34
 8739 00f4 00       		.byte	0
 8740 00f5 03       		.uleb128 0x3
 8741 00f6 08       		.uleb128 0x8
 8742 00f7 3A       		.uleb128 0x3a
 8743 00f8 0B       		.uleb128 0xb
 8744 00f9 3B       		.uleb128 0x3b
 8745 00fa 05       		.uleb128 0x5
 8746 00fb 49       		.uleb128 0x49
 8747 00fc 13       		.uleb128 0x13
 8748 00fd 02       		.uleb128 0x2
 8749 00fe 18       		.uleb128 0x18
 8750 00ff 00       		.byte	0
 8751 0100 00       		.byte	0
 8752 0101 13       		.uleb128 0x13
 8753 0102 0B       		.uleb128 0xb
 8754 0103 01       		.byte	0x1
 8755 0104 11       		.uleb128 0x11
 8756 0105 01       		.uleb128 0x1
 8757 0106 12       		.uleb128 0x12
 8758 0107 06       		.uleb128 0x6
 8759 0108 00       		.byte	0
 8760 0109 00       		.byte	0
 8761 010a 14       		.uleb128 0x14
 8762 010b 2E       		.uleb128 0x2e
 8763 010c 01       		.byte	0x1
 8764 010d 3F       		.uleb128 0x3f
 8765 010e 19       		.uleb128 0x19
 8766 010f 03       		.uleb128 0x3
ARM GAS  C:\Users\THERMA~1\AppData\Local\Temp\ccXswU2c.s 			page 177


 8767 0110 0E       		.uleb128 0xe
 8768 0111 3A       		.uleb128 0x3a
 8769 0112 0B       		.uleb128 0xb
 8770 0113 3B       		.uleb128 0x3b
 8771 0114 05       		.uleb128 0x5
 8772 0115 27       		.uleb128 0x27
 8773 0116 19       		.uleb128 0x19
 8774 0117 11       		.uleb128 0x11
 8775 0118 01       		.uleb128 0x1
 8776 0119 12       		.uleb128 0x12
 8777 011a 06       		.uleb128 0x6
 8778 011b 40       		.uleb128 0x40
 8779 011c 18       		.uleb128 0x18
 8780 011d 9642     		.uleb128 0x2116
 8781 011f 19       		.uleb128 0x19
 8782 0120 01       		.uleb128 0x1
 8783 0121 13       		.uleb128 0x13
 8784 0122 00       		.byte	0
 8785 0123 00       		.byte	0
 8786 0124 15       		.uleb128 0x15
 8787 0125 34       		.uleb128 0x34
 8788 0126 00       		.byte	0
 8789 0127 03       		.uleb128 0x3
 8790 0128 0E       		.uleb128 0xe
 8791 0129 3A       		.uleb128 0x3a
 8792 012a 0B       		.uleb128 0xb
 8793 012b 3B       		.uleb128 0x3b
 8794 012c 05       		.uleb128 0x5
 8795 012d 49       		.uleb128 0x49
 8796 012e 13       		.uleb128 0x13
 8797 012f 02       		.uleb128 0x2
 8798 0130 18       		.uleb128 0x18
 8799 0131 00       		.byte	0
 8800 0132 00       		.byte	0
 8801 0133 16       		.uleb128 0x16
 8802 0134 34       		.uleb128 0x34
 8803 0135 00       		.byte	0
 8804 0136 03       		.uleb128 0x3
 8805 0137 0E       		.uleb128 0xe
 8806 0138 3A       		.uleb128 0x3a
 8807 0139 0B       		.uleb128 0xb
 8808 013a 3B       		.uleb128 0x3b
 8809 013b 05       		.uleb128 0x5
 8810 013c 49       		.uleb128 0x49
 8811 013d 13       		.uleb128 0x13
 8812 013e 3F       		.uleb128 0x3f
 8813 013f 19       		.uleb128 0x19
 8814 0140 3C       		.uleb128 0x3c
 8815 0141 19       		.uleb128 0x19
 8816 0142 00       		.byte	0
 8817 0143 00       		.byte	0
 8818 0144 17       		.uleb128 0x17
 8819 0145 35       		.uleb128 0x35
 8820 0146 00       		.byte	0
 8821 0147 49       		.uleb128 0x49
 8822 0148 13       		.uleb128 0x13
 8823 0149 00       		.byte	0
ARM GAS  C:\Users\THERMA~1\AppData\Local\Temp\ccXswU2c.s 			page 178


 8824 014a 00       		.byte	0
 8825 014b 18       		.uleb128 0x18
 8826 014c 34       		.uleb128 0x34
 8827 014d 00       		.byte	0
 8828 014e 03       		.uleb128 0x3
 8829 014f 0E       		.uleb128 0xe
 8830 0150 3A       		.uleb128 0x3a
 8831 0151 0B       		.uleb128 0xb
 8832 0152 3B       		.uleb128 0x3b
 8833 0153 0B       		.uleb128 0xb
 8834 0154 49       		.uleb128 0x49
 8835 0155 13       		.uleb128 0x13
 8836 0156 3F       		.uleb128 0x3f
 8837 0157 19       		.uleb128 0x19
 8838 0158 02       		.uleb128 0x2
 8839 0159 18       		.uleb128 0x18
 8840 015a 00       		.byte	0
 8841 015b 00       		.byte	0
 8842 015c 19       		.uleb128 0x19
 8843 015d 34       		.uleb128 0x34
 8844 015e 00       		.byte	0
 8845 015f 03       		.uleb128 0x3
 8846 0160 08       		.uleb128 0x8
 8847 0161 3A       		.uleb128 0x3a
 8848 0162 0B       		.uleb128 0xb
 8849 0163 3B       		.uleb128 0x3b
 8850 0164 0B       		.uleb128 0xb
 8851 0165 49       		.uleb128 0x49
 8852 0166 13       		.uleb128 0x13
 8853 0167 3F       		.uleb128 0x3f
 8854 0168 19       		.uleb128 0x19
 8855 0169 02       		.uleb128 0x2
 8856 016a 18       		.uleb128 0x18
 8857 016b 00       		.byte	0
 8858 016c 00       		.byte	0
 8859 016d 00       		.byte	0
 8860              		.section	.debug_aranges,"",%progbits
 8861 0000 24000000 		.4byte	0x24
 8862 0004 0200     		.2byte	0x2
 8863 0006 00000000 		.4byte	.Ldebug_info0
 8864 000a 04       		.byte	0x4
 8865 000b 00       		.byte	0
 8866 000c 0000     		.2byte	0
 8867 000e 0000     		.2byte	0
 8868 0010 00000000 		.4byte	.LFB64
 8869 0014 94170000 		.4byte	.LFE64-.LFB64
 8870 0018 00000000 		.4byte	.LFB65
 8871 001c 0C0F0000 		.4byte	.LFE65-.LFB65
 8872 0020 00000000 		.4byte	0
 8873 0024 00000000 		.4byte	0
 8874              		.section	.debug_ranges,"",%progbits
 8875              	.Ldebug_ranges0:
 8876 0000 00000000 		.4byte	.LFB64
 8877 0004 94170000 		.4byte	.LFE64
 8878 0008 00000000 		.4byte	.LFB65
 8879 000c 0C0F0000 		.4byte	.LFE65
 8880 0010 00000000 		.4byte	0
ARM GAS  C:\Users\THERMA~1\AppData\Local\Temp\ccXswU2c.s 			page 179


 8881 0014 00000000 		.4byte	0
 8882              		.section	.debug_line,"",%progbits
 8883              	.Ldebug_line0:
 8884 0000 C10C0000 		.section	.debug_str,"MS",%progbits,1
 8884      02005B01 
 8884      00000201 
 8884      FB0E0D00 
 8884      01010101 
 8885              	.LASF35:
 8886 0000 4E6F7A7A 		.ascii	"Nozzle\000"
 8886      6C6500
 8887              	.LASF63:
 8888 0007 50756D70 		.ascii	"PumpAddress\000"
 8888      41646472 
 8888      65737300 
 8889              	.LASF56:
 8890 0013 696E745F 		.ascii	"int_salenumber\000"
 8890      73616C65 
 8890      6E756D62 
 8890      657200
 8891              	.LASF8:
 8892 0022 756E7369 		.ascii	"unsigned int\000"
 8892      676E6564 
 8892      20696E74 
 8892      00
 8893              	.LASF54:
 8894 002f 73616C65 		.ascii	"sale_number\000"
 8894      5F6E756D 
 8894      62657200 
 8895              	.LASF9:
 8896 003b 5F5F696E 		.ascii	"__int32_t\000"
 8896      7433325F 
 8896      7400
 8897              	.LASF68:
 8898 0045 44656356 		.ascii	"DecVol\000"
 8898      6F6C00
 8899              	.LASF122:
 8900 004c 474E5520 		.ascii	"GNU C11 5.4.1 20160609 (release) [ARM/embedded-5-br"
 8900      43313120 
 8900      352E342E 
 8900      31203230 
 8900      31363036 
 8901 007f 616E6368 		.ascii	"anch revision 237715] -mcpu=cortex-m3 -mthumb -g -O"
 8901      20726576 
 8901      6973696F 
 8901      6E203233 
 8901      37373135 
 8902 00b2 30202D66 		.ascii	"0 -ffunction-sections -ffat-lto-objects\000"
 8902      66756E63 
 8902      74696F6E 
 8902      2D736563 
 8902      74696F6E 
 8903              	.LASF60:
 8904 00da 73696465 		.ascii	"side\000"
 8904      00
 8905              	.LASF79:
 8906 00df 6D736E5F 		.ascii	"msn_footer2\000"
ARM GAS  C:\Users\THERMA~1\AppData\Local\Temp\ccXswU2c.s 			page 180


 8906      666F6F74 
 8906      65723200 
 8907              	.LASF80:
 8908 00eb 6D736E5F 		.ascii	"msn_footer3\000"
 8908      666F6F74 
 8908      65723300 
 8909              	.LASF81:
 8910 00f7 6D736E5F 		.ascii	"msn_footer4\000"
 8910      666F6F74 
 8910      65723400 
 8911              	.LASF31:
 8912 0103 50726F63 		.ascii	"ProcessedvolumeSale\000"
 8912      65737365 
 8912      64766F6C 
 8912      756D6553 
 8912      616C6500 
 8913              	.LASF90:
 8914 0117 6D736E5F 		.ascii	"msn_pos\000"
 8914      706F7300 
 8915              	.LASF42:
 8916 011f 5072696E 		.ascii	"PrintShift\000"
 8916      74536869 
 8916      667400
 8917              	.LASF121:
 8918 012a 41534B5F 		.ascii	"ASK_TIME\000"
 8918      54494D45 
 8918      00
 8919              	.LASF32:
 8920 0133 50726F63 		.ascii	"ProcessedPPU\000"
 8920      65737365 
 8920      64505055 
 8920      00
 8921              	.LASF53:
 8922 0140 52656365 		.ascii	"Receipt\000"
 8922      69707400 
 8923              	.LASF113:
 8924 0148 50524E5F 		.ascii	"PRN_PRESET\000"
 8924      50524553 
 8924      455400
 8925              	.LASF109:
 8926 0153 50524E5F 		.ascii	"PRN_VOLUMEMONTH\000"
 8926      564F4C55 
 8926      4D454D4F 
 8926      4E544800 
 8927              	.LASF15:
 8928 0163 666C6F61 		.ascii	"float\000"
 8928      7400
 8929              	.LASF118:
 8930 0169 6D736E5F 		.ascii	"msn_lecaan\000"
 8930      6C656361 
 8930      616E00
 8931              	.LASF92:
 8932 0174 6D736E5F 		.ascii	"msn_ppu\000"
 8932      70707500 
 8933              	.LASF87:
 8934 017c 6D736E5F 		.ascii	"msn_placa\000"
 8934      706C6163 
ARM GAS  C:\Users\THERMA~1\AppData\Local\Temp\ccXswU2c.s 			page 181


 8934      6100
 8935              	.LASF108:
 8936 0186 50524E5F 		.ascii	"PRN_VOLUMEWEEK\000"
 8936      564F4C55 
 8936      4D455745 
 8936      454B00
 8937              	.LASF7:
 8938 0195 6C6F6E67 		.ascii	"long long unsigned int\000"
 8938      206C6F6E 
 8938      6720756E 
 8938      7369676E 
 8938      65642069 
 8939              	.LASF73:
 8940 01ac 6D736E5F 		.ascii	"msn_EDS\000"
 8940      45445300 
 8941              	.LASF86:
 8942 01b4 6D736E5F 		.ascii	"msn_hora\000"
 8942      686F7261 
 8942      00
 8943              	.LASF89:
 8944 01bd 50524E5F 		.ascii	"PRN_TRANSTYPE\000"
 8944      5452414E 
 8944      53545950 
 8944      4500
 8945              	.LASF82:
 8946 01cb 6D736E5F 		.ascii	"msn_copy\000"
 8946      636F7079 
 8946      00
 8947              	.LASF67:
 8948 01d4 546F7461 		.ascii	"TotalRequestType\000"
 8948      6C526571 
 8948      75657374 
 8948      54797065 
 8948      00
 8949              	.LASF40:
 8950 01e5 4C434452 		.ascii	"LCDRx\000"
 8950      7800
 8951              	.LASF112:
 8952 01eb 50524E5F 		.ascii	"PRN_MONEYMONTH\000"
 8952      4D4F4E45 
 8952      594D4F4E 
 8952      544800
 8953              	.LASF101:
 8954 01fa 50524E5F 		.ascii	"PRN_ACCOUNT\000"
 8954      4143434F 
 8954      554E5400 
 8955              	.LASF107:
 8956 0206 50524E5F 		.ascii	"PRN_VOLUMEDAY\000"
 8956      564F4C55 
 8956      4D454441 
 8956      5900
 8957              	.LASF33:
 8958 0214 6D736E5F 		.ascii	"msn_plate\000"
 8958      706C6174 
 8958      6500
 8959              	.LASF117:
 8960 021e 6D736E5F 		.ascii	"msn_lecact\000"
ARM GAS  C:\Users\THERMA~1\AppData\Local\Temp\ccXswU2c.s 			page 182


 8960      6C656361 
 8960      637400
 8961              	.LASF58:
 8962 0229 696E745F 		.ascii	"int_shiftnumber\000"
 8962      73686966 
 8962      746E756D 
 8962      62657200 
 8963              	.LASF59:
 8964 0239 4C434468 		.ascii	"LCDhose\000"
 8964      6F736500 
 8965              	.LASF97:
 8966 0241 6D736E5F 		.ascii	"msn_venta\000"
 8966      76656E74 
 8966      6100
 8967              	.LASF88:
 8968 024b 50524E5F 		.ascii	"PRN_MILLEAGE\000"
 8968      4D494C4C 
 8968      45414745 
 8968      00
 8969              	.LASF98:
 8970 0258 6D736E5F 		.ascii	"msn_numero\000"
 8970      6E756D65 
 8970      726F00
 8971              	.LASF30:
 8972 0263 50726F63 		.ascii	"ProcessedmoneySale\000"
 8972      65737365 
 8972      646D6F6E 
 8972      65795361 
 8972      6C6500
 8973              	.LASF96:
 8974 0276 6D736E5F 		.ascii	"msn_cierre\000"
 8974      63696572 
 8974      726500
 8975              	.LASF120:
 8976 0281 53455041 		.ascii	"SEPARATOR\000"
 8976      5241544F 
 8976      5200
 8977              	.LASF27:
 8978 028b 73746174 		.ascii	"states\000"
 8978      657300
 8979              	.LASF18:
 8980 0292 63686172 		.ascii	"char\000"
 8980      00
 8981              	.LASF55:
 8982 0297 73616C65 		.ascii	"sale_number_copy\000"
 8982      5F6E756D 
 8982      6265725F 
 8982      636F7079 
 8982      00
 8983              	.LASF104:
 8984 02a8 50524E5F 		.ascii	"PRN_VISITSDAY\000"
 8984      56495349 
 8984      54534441 
 8984      5900
 8985              	.LASF12:
 8986 02b6 75696E74 		.ascii	"uint16\000"
 8986      313600
ARM GAS  C:\Users\THERMA~1\AppData\Local\Temp\ccXswU2c.s 			page 183


 8987              	.LASF14:
 8988 02bd 696E7438 		.ascii	"int8\000"
 8988      00
 8989              	.LASF94:
 8990 02c2 6D736E5F 		.ascii	"msn_voltot\000"
 8990      766F6C74 
 8990      6F7400
 8991              	.LASF17:
 8992 02cd 63686172 		.ascii	"char8\000"
 8992      3800
 8993              	.LASF66:
 8994 02d3 506F7369 		.ascii	"Positions\000"
 8994      74696F6E 
 8994      7300
 8995              	.LASF84:
 8996 02dd 6D736E5F 		.ascii	"msn_gasoline\000"
 8996      6761736F 
 8996      6C696E65 
 8996      00
 8997              	.LASF23:
 8998 02ea 6D6F6E65 		.ascii	"moneySale\000"
 8998      7953616C 
 8998      6500
 8999              	.LASF6:
 9000 02f4 6C6F6E67 		.ascii	"long long int\000"
 9000      206C6F6E 
 9000      6720696E 
 9000      7400
 9001              	.LASF25:
 9002 0302 70707553 		.ascii	"ppuSale\000"
 9002      616C6500 
 9003              	.LASF51:
 9004 030a 506F6C6C 		.ascii	"PollCounter\000"
 9004      436F756E 
 9004      74657200 
 9005              	.LASF22:
 9006 0316 7070754E 		.ascii	"ppuNozzle\000"
 9006      6F7A7A6C 
 9006      6500
 9007              	.LASF44:
 9008 0320 6C656374 		.ascii	"lectactual\000"
 9008      61637475 
 9008      616C00
 9009              	.LASF93:
 9010 032b 6D736E5F 		.ascii	"msn_vol\000"
 9010      766F6C00 
 9011              	.LASF47:
 9012 0333 61637475 		.ascii	"actual\000"
 9012      616C00
 9013              	.LASF13:
 9014 033a 75696E74 		.ascii	"uint32\000"
 9014      333200
 9015              	.LASF62:
 9016 0341 4D657073 		.ascii	"MepsanSendTo\000"
 9016      616E5365 
 9016      6E64546F 
 9016      00
ARM GAS  C:\Users\THERMA~1\AppData\Local\Temp\ccXswU2c.s 			page 184


 9017              	.LASF83:
 9018 034e 6D736E5F 		.ascii	"msn_diesel\000"
 9018      64696573 
 9018      656C00
 9019              	.LASF28:
 9020 0359 4D657073 		.ascii	"MepsanStore\000"
 9020      616E5374 
 9020      6F726500 
 9021              	.LASF52:
 9022 0365 43757272 		.ascii	"CurrentState\000"
 9022      656E7453 
 9022      74617465 
 9022      00
 9023              	.LASF19:
 9024 0372 6C6F6E67 		.ascii	"long double\000"
 9024      20646F75 
 9024      626C6500 
 9025              	.LASF103:
 9026 037e 50524E5F 		.ascii	"PRN_ACCOUNTTYPE\000"
 9026      4143434F 
 9026      554E5454 
 9026      59504500 
 9027              	.LASF105:
 9028 038e 50524E5F 		.ascii	"PRN_VISITSWEEK\000"
 9028      56495349 
 9028      54535745 
 9028      454B00
 9029              	.LASF2:
 9030 039d 73686F72 		.ascii	"short int\000"
 9030      7420696E 
 9030      7400
 9031              	.LASF65:
 9032 03a7 6372635F 		.ascii	"crc_hi\000"
 9032      686900
 9033              	.LASF4:
 9034 03ae 6C6F6E67 		.ascii	"long int\000"
 9034      20696E74 
 9034      00
 9035              	.LASF50:
 9036 03b7 49544D5F 		.ascii	"ITM_RxBuffer\000"
 9036      52784275 
 9036      66666572 
 9036      00
 9037              	.LASF29:
 9038 03c4 50726F63 		.ascii	"ProcessedTotals\000"
 9038      65737365 
 9038      64546F74 
 9038      616C7300 
 9039              	.LASF49:
 9040 03d4 72657374 		.ascii	"resta\000"
 9040      6100
 9041              	.LASF45:
 9042 03da 6D656D6F 		.ascii	"memoria\000"
 9042      72696100 
 9043              	.LASF69:
 9044 03e2 746F7563 		.ascii	"touch1\000"
 9044      683100
ARM GAS  C:\Users\THERMA~1\AppData\Local\Temp\ccXswU2c.s 			page 185


 9045              	.LASF36:
 9046 03e9 436F7079 		.ascii	"Copy\000"
 9046      00
 9047              	.LASF43:
 9048 03ee 6C656374 		.ascii	"lectanterior\000"
 9048      616E7465 
 9048      72696F72 
 9048      00
 9049              	.LASF110:
 9050 03fb 50524E5F 		.ascii	"PRN_MONEYDAY\000"
 9050      4D4F4E45 
 9050      59444159 
 9050      00
 9051              	.LASF64:
 9052 0408 6372635F 		.ascii	"crc_lo\000"
 9052      6C6F00
 9053              	.LASF21:
 9054 040f 746F7461 		.ascii	"totalsNozzle\000"
 9054      6C734E6F 
 9054      7A7A6C65 
 9054      00
 9055              	.LASF61:
 9056 041c 4D657073 		.ascii	"MepsanResponse\000"
 9056      616E5265 
 9056      73706F6E 
 9056      736500
 9057              	.LASF91:
 9058 042b 6D736E5F 		.ascii	"msn_product\000"
 9058      70726F64 
 9058      75637400 
 9059              	.LASF20:
 9060 0437 73697A65 		.ascii	"sizetype\000"
 9060      74797065 
 9060      00
 9061              	.LASF5:
 9062 0440 6C6F6E67 		.ascii	"long unsigned int\000"
 9062      20756E73 
 9062      69676E65 
 9062      6420696E 
 9062      7400
 9063              	.LASF125:
 9064 0452 61646472 		.ascii	"address\000"
 9064      65737300 
 9065              	.LASF10:
 9066 045a 696E7433 		.ascii	"int32_t\000"
 9066      325F7400 
 9067              	.LASF85:
 9068 0462 6D736E5F 		.ascii	"msn_fecha\000"
 9068      66656368 
 9068      6100
 9069              	.LASF41:
 9070 046c 5072696E 		.ascii	"PrintReceipt\000"
 9070      74526563 
 9070      65697074 
 9070      00
 9071              	.LASF39:
 9072 0479 73637265 		.ascii	"screen_size\000"
ARM GAS  C:\Users\THERMA~1\AppData\Local\Temp\ccXswU2c.s 			page 186


 9072      656E5F73 
 9072      697A6500 
 9073              	.LASF106:
 9074 0485 50524E5F 		.ascii	"PRN_VISITSMONTH\000"
 9074      56495349 
 9074      54534D4F 
 9074      4E544800 
 9075              	.LASF1:
 9076 0495 756E7369 		.ascii	"unsigned char\000"
 9076      676E6564 
 9076      20636861 
 9076      7200
 9077              	.LASF78:
 9078 04a3 6D736E5F 		.ascii	"msn_footer\000"
 9078      666F6F74 
 9078      657200
 9079              	.LASF57:
 9080 04ae 73686966 		.ascii	"shift_number\000"
 9080      745F6E75 
 9080      6D626572 
 9080      00
 9081              	.LASF71:
 9082 04bb 4C494E45 		.ascii	"LINE_FEED\000"
 9082      5F464545 
 9082      4400
 9083              	.LASF100:
 9084 04c5 50524E5F 		.ascii	"PRN_COMPANY\000"
 9084      434F4D50 
 9084      414E5900 
 9085              	.LASF46:
 9086 04d1 72657375 		.ascii	"resultado\000"
 9086      6C746164 
 9086      6F00
 9087              	.LASF34:
 9088 04db 4D657052 		.ascii	"MepRequest\000"
 9088      65717565 
 9088      737400
 9089              	.LASF38:
 9090 04e6 70756D70 		.ascii	"pump\000"
 9090      00
 9091              	.LASF99:
 9092 04eb 50524E5F 		.ascii	"PRN_BALANCE\000"
 9092      42414C41 
 9092      4E434500 
 9093              	.LASF123:
 9094 04f7 7072696E 		.ascii	"printer.c\000"
 9094      7465722E 
 9094      6300
 9095              	.LASF48:
 9096 0501 616E7465 		.ascii	"anterior\000"
 9096      72696F72 
 9096      00
 9097              	.LASF24:
 9098 050a 766F6C75 		.ascii	"volumeSale\000"
 9098      6D655361 
 9098      6C6500
 9099              	.LASF115:
ARM GAS  C:\Users\THERMA~1\AppData\Local\Temp\ccXswU2c.s 			page 187


 9100 0515 50524E5F 		.ascii	"PRN_ID\000"
 9100      494400
 9101              	.LASF124:
 9102 051c 433A5C55 		.ascii	"C:\\Users\\Thermaltake\\Documents\\GitHub\\Mepsan\\"
 9102      73657273 
 9102      5C546865 
 9102      726D616C 
 9102      74616B65 
 9103 0549 4D657073 		.ascii	"Mepsan.cydsn\000"
 9103      616E2E63 
 9103      7964736E 
 9103      00
 9104              	.LASF0:
 9105 0556 7369676E 		.ascii	"signed char\000"
 9105      65642063 
 9105      68617200 
 9106              	.LASF3:
 9107 0562 73686F72 		.ascii	"short unsigned int\000"
 9107      7420756E 
 9107      7369676E 
 9107      65642069 
 9107      6E7400
 9108              	.LASF114:
 9109 0575 50524E5F 		.ascii	"PRN_SIGNATURE\000"
 9109      5349474E 
 9109      41545552 
 9109      4500
 9110              	.LASF111:
 9111 0583 50524E5F 		.ascii	"PRN_MONEYWEEK\000"
 9111      4D4F4E45 
 9111      59574545 
 9111      4B00
 9112              	.LASF26:
 9113 0591 70726F64 		.ascii	"productSale\000"
 9113      75637453 
 9113      616C6500 
 9114              	.LASF74:
 9115 059d 6D736E5F 		.ascii	"msn_EDS2\000"
 9115      45445332 
 9115      00
 9116              	.LASF75:
 9117 05a6 6D736E5F 		.ascii	"msn_EDS4\000"
 9117      45445334 
 9117      00
 9118              	.LASF76:
 9119 05af 6D736E5F 		.ascii	"msn_EDS5\000"
 9119      45445335 
 9119      00
 9120              	.LASF77:
 9121 05b8 6D736E5F 		.ascii	"msn_EDS6\000"
 9121      45445336 
 9121      00
 9122              	.LASF11:
 9123 05c1 75696E74 		.ascii	"uint8\000"
 9123      3800
 9124              	.LASF16:
 9125 05c7 646F7562 		.ascii	"double\000"
ARM GAS  C:\Users\THERMA~1\AppData\Local\Temp\ccXswU2c.s 			page 188


 9125      6C6500
 9126              	.LASF102:
 9127 05ce 50524E5F 		.ascii	"PRN_SERIAL\000"
 9127      53455249 
 9127      414C00
 9128              	.LASF70:
 9129 05d9 64697247 		.ascii	"dirGbr\000"
 9129      627200
 9130              	.LASF116:
 9131 05e0 50524E5F 		.ascii	"PRN_CURRENCY\000"
 9131      43555252 
 9131      454E4359 
 9131      00
 9132              	.LASF72:
 9133 05ed 566F6C53 		.ascii	"VolSimbol\000"
 9133      696D626F 
 9133      6C00
 9134              	.LASF37:
 9135 05f7 706F7369 		.ascii	"position\000"
 9135      74696F6E 
 9135      00
 9136              	.LASF119:
 9137 0600 6D736E5F 		.ascii	"msn_dif\000"
 9137      64696600 
 9138              	.LASF95:
 9139 0608 6D736E5F 		.ascii	"msn_din\000"
 9139      64696E00 
 9140              		.ident	"GCC: (GNU Tools for ARM Embedded Processors) 5.4.1 20160609 (release) [ARM/embedded-5-bran
