ARM GAS  C:\Users\Mery\AppData\Local\Temp\ccXmhN3c.s 			page 1


   1              		.syntax unified
   2              		.cpu cortex-m3
   3              		.fpu softvfp
   4              		.eabi_attribute 20, 1
   5              		.eabi_attribute 21, 1
   6              		.eabi_attribute 23, 3
   7              		.eabi_attribute 24, 1
   8              		.eabi_attribute 25, 1
   9              		.eabi_attribute 26, 1
  10              		.eabi_attribute 30, 6
  11              		.eabi_attribute 34, 1
  12              		.eabi_attribute 18, 4
  13              		.thumb
  14              		.syntax unified
  15              		.file	"PRINTER_A.c"
  16              		.text
  17              	.Ltext0:
  18              		.cfi_sections	.debug_frame
  19              		.global	PRINTER_A_initVar
  20              		.bss
  21              		.type	PRINTER_A_initVar, %object
  22              		.size	PRINTER_A_initVar, 1
  23              	PRINTER_A_initVar:
  24 0000 00       		.space	1
  25              		.comm	PRINTER_A_txBuffer,5,4
  26              		.global	PRINTER_A_txBufferRead
  27              		.type	PRINTER_A_txBufferRead, %object
  28              		.size	PRINTER_A_txBufferRead, 1
  29              	PRINTER_A_txBufferRead:
  30 0001 00       		.space	1
  31              		.global	PRINTER_A_txBufferWrite
  32              		.type	PRINTER_A_txBufferWrite, %object
  33              		.size	PRINTER_A_txBufferWrite, 1
  34              	PRINTER_A_txBufferWrite:
  35 0002 00       		.space	1
  36              		.section	.text.PRINTER_A_Start,"ax",%progbits
  37              		.align	2
  38              		.global	PRINTER_A_Start
  39              		.thumb
  40              		.thumb_func
  41              		.type	PRINTER_A_Start, %function
  42              	PRINTER_A_Start:
  43              	.LFB0:
  44              		.file 1 "Generated_Source\\PSoC5\\PRINTER_A.c"
   1:Generated_Source\PSoC5/PRINTER_A.c **** /*******************************************************************************
   2:Generated_Source\PSoC5/PRINTER_A.c **** * File Name: PRINTER_A.c
   3:Generated_Source\PSoC5/PRINTER_A.c **** * Version 2.50
   4:Generated_Source\PSoC5/PRINTER_A.c **** *
   5:Generated_Source\PSoC5/PRINTER_A.c **** * Description:
   6:Generated_Source\PSoC5/PRINTER_A.c **** *  This file provides all API functionality of the UART component
   7:Generated_Source\PSoC5/PRINTER_A.c **** *
   8:Generated_Source\PSoC5/PRINTER_A.c **** * Note:
   9:Generated_Source\PSoC5/PRINTER_A.c **** *
  10:Generated_Source\PSoC5/PRINTER_A.c **** ********************************************************************************
  11:Generated_Source\PSoC5/PRINTER_A.c **** * Copyright 2008-2015, Cypress Semiconductor Corporation.  All rights reserved.
  12:Generated_Source\PSoC5/PRINTER_A.c **** * You may use this file only in accordance with the license, terms, conditions,
  13:Generated_Source\PSoC5/PRINTER_A.c **** * disclaimers, and limitations in the end user license agreement accompanying
ARM GAS  C:\Users\Mery\AppData\Local\Temp\ccXmhN3c.s 			page 2


  14:Generated_Source\PSoC5/PRINTER_A.c **** * the software package with which this file was provided.
  15:Generated_Source\PSoC5/PRINTER_A.c **** *******************************************************************************/
  16:Generated_Source\PSoC5/PRINTER_A.c **** 
  17:Generated_Source\PSoC5/PRINTER_A.c **** #include "PRINTER_A.h"
  18:Generated_Source\PSoC5/PRINTER_A.c **** #if (PRINTER_A_INTERNAL_CLOCK_USED)
  19:Generated_Source\PSoC5/PRINTER_A.c ****     #include "PRINTER_A_IntClock.h"
  20:Generated_Source\PSoC5/PRINTER_A.c **** #endif /* End PRINTER_A_INTERNAL_CLOCK_USED */
  21:Generated_Source\PSoC5/PRINTER_A.c **** 
  22:Generated_Source\PSoC5/PRINTER_A.c **** 
  23:Generated_Source\PSoC5/PRINTER_A.c **** /***************************************
  24:Generated_Source\PSoC5/PRINTER_A.c **** * Global data allocation
  25:Generated_Source\PSoC5/PRINTER_A.c **** ***************************************/
  26:Generated_Source\PSoC5/PRINTER_A.c **** 
  27:Generated_Source\PSoC5/PRINTER_A.c **** uint8 PRINTER_A_initVar = 0u;
  28:Generated_Source\PSoC5/PRINTER_A.c **** 
  29:Generated_Source\PSoC5/PRINTER_A.c **** #if (PRINTER_A_TX_INTERRUPT_ENABLED && PRINTER_A_TX_ENABLED)
  30:Generated_Source\PSoC5/PRINTER_A.c ****     volatile uint8 PRINTER_A_txBuffer[PRINTER_A_TX_BUFFER_SIZE];
  31:Generated_Source\PSoC5/PRINTER_A.c ****     volatile uint8 PRINTER_A_txBufferRead = 0u;
  32:Generated_Source\PSoC5/PRINTER_A.c ****     uint8 PRINTER_A_txBufferWrite = 0u;
  33:Generated_Source\PSoC5/PRINTER_A.c **** #endif /* (PRINTER_A_TX_INTERRUPT_ENABLED && PRINTER_A_TX_ENABLED) */
  34:Generated_Source\PSoC5/PRINTER_A.c **** 
  35:Generated_Source\PSoC5/PRINTER_A.c **** #if (PRINTER_A_RX_INTERRUPT_ENABLED && (PRINTER_A_RX_ENABLED || PRINTER_A_HD_ENABLED))
  36:Generated_Source\PSoC5/PRINTER_A.c ****     uint8 PRINTER_A_errorStatus = 0u;
  37:Generated_Source\PSoC5/PRINTER_A.c ****     volatile uint8 PRINTER_A_rxBuffer[PRINTER_A_RX_BUFFER_SIZE];
  38:Generated_Source\PSoC5/PRINTER_A.c ****     volatile uint8 PRINTER_A_rxBufferRead  = 0u;
  39:Generated_Source\PSoC5/PRINTER_A.c ****     volatile uint8 PRINTER_A_rxBufferWrite = 0u;
  40:Generated_Source\PSoC5/PRINTER_A.c ****     volatile uint8 PRINTER_A_rxBufferLoopDetect = 0u;
  41:Generated_Source\PSoC5/PRINTER_A.c ****     volatile uint8 PRINTER_A_rxBufferOverflow   = 0u;
  42:Generated_Source\PSoC5/PRINTER_A.c ****     #if (PRINTER_A_RXHW_ADDRESS_ENABLED)
  43:Generated_Source\PSoC5/PRINTER_A.c ****         volatile uint8 PRINTER_A_rxAddressMode = PRINTER_A_RX_ADDRESS_MODE;
  44:Generated_Source\PSoC5/PRINTER_A.c ****         volatile uint8 PRINTER_A_rxAddressDetected = 0u;
  45:Generated_Source\PSoC5/PRINTER_A.c ****     #endif /* (PRINTER_A_RXHW_ADDRESS_ENABLED) */
  46:Generated_Source\PSoC5/PRINTER_A.c **** #endif /* (PRINTER_A_RX_INTERRUPT_ENABLED && (PRINTER_A_RX_ENABLED || PRINTER_A_HD_ENABLED)) */
  47:Generated_Source\PSoC5/PRINTER_A.c **** 
  48:Generated_Source\PSoC5/PRINTER_A.c **** 
  49:Generated_Source\PSoC5/PRINTER_A.c **** /*******************************************************************************
  50:Generated_Source\PSoC5/PRINTER_A.c **** * Function Name: PRINTER_A_Start
  51:Generated_Source\PSoC5/PRINTER_A.c **** ********************************************************************************
  52:Generated_Source\PSoC5/PRINTER_A.c **** *
  53:Generated_Source\PSoC5/PRINTER_A.c **** * Summary:
  54:Generated_Source\PSoC5/PRINTER_A.c **** *  This is the preferred method to begin component operation.
  55:Generated_Source\PSoC5/PRINTER_A.c **** *  PRINTER_A_Start() sets the initVar variable, calls the
  56:Generated_Source\PSoC5/PRINTER_A.c **** *  PRINTER_A_Init() function, and then calls the
  57:Generated_Source\PSoC5/PRINTER_A.c **** *  PRINTER_A_Enable() function.
  58:Generated_Source\PSoC5/PRINTER_A.c **** *
  59:Generated_Source\PSoC5/PRINTER_A.c **** * Parameters:
  60:Generated_Source\PSoC5/PRINTER_A.c **** *  None.
  61:Generated_Source\PSoC5/PRINTER_A.c **** *
  62:Generated_Source\PSoC5/PRINTER_A.c **** * Return:
  63:Generated_Source\PSoC5/PRINTER_A.c **** *  None.
  64:Generated_Source\PSoC5/PRINTER_A.c **** *
  65:Generated_Source\PSoC5/PRINTER_A.c **** * Global variables:
  66:Generated_Source\PSoC5/PRINTER_A.c **** *  The PRINTER_A_intiVar variable is used to indicate initial
  67:Generated_Source\PSoC5/PRINTER_A.c **** *  configuration of this component. The variable is initialized to zero (0u)
  68:Generated_Source\PSoC5/PRINTER_A.c **** *  and set to one (1u) the first time PRINTER_A_Start() is called. This
  69:Generated_Source\PSoC5/PRINTER_A.c **** *  allows for component initialization without re-initialization in all
  70:Generated_Source\PSoC5/PRINTER_A.c **** *  subsequent calls to the PRINTER_A_Start() routine.
ARM GAS  C:\Users\Mery\AppData\Local\Temp\ccXmhN3c.s 			page 3


  71:Generated_Source\PSoC5/PRINTER_A.c **** *
  72:Generated_Source\PSoC5/PRINTER_A.c **** * Reentrant:
  73:Generated_Source\PSoC5/PRINTER_A.c **** *  No.
  74:Generated_Source\PSoC5/PRINTER_A.c **** *
  75:Generated_Source\PSoC5/PRINTER_A.c **** *******************************************************************************/
  76:Generated_Source\PSoC5/PRINTER_A.c **** void PRINTER_A_Start(void) 
  77:Generated_Source\PSoC5/PRINTER_A.c **** {
  45              		.loc 1 77 0
  46              		.cfi_startproc
  47              		@ args = 0, pretend = 0, frame = 0
  48              		@ frame_needed = 1, uses_anonymous_args = 0
  49 0000 80B5     		push	{r7, lr}
  50              		.cfi_def_cfa_offset 8
  51              		.cfi_offset 7, -8
  52              		.cfi_offset 14, -4
  53 0002 00AF     		add	r7, sp, #0
  54              		.cfi_def_cfa_register 7
  78:Generated_Source\PSoC5/PRINTER_A.c ****     /* If not initialized then initialize all required hardware and software */
  79:Generated_Source\PSoC5/PRINTER_A.c ****     if(PRINTER_A_initVar == 0u)
  55              		.loc 1 79 0
  56 0004 064B     		ldr	r3, .L3
  57 0006 1B78     		ldrb	r3, [r3]	@ zero_extendqisi2
  58 0008 002B     		cmp	r3, #0
  59 000a 04D1     		bne	.L2
  80:Generated_Source\PSoC5/PRINTER_A.c ****     {
  81:Generated_Source\PSoC5/PRINTER_A.c ****         PRINTER_A_Init();
  60              		.loc 1 81 0
  61 000c FFF7FEFF 		bl	PRINTER_A_Init
  82:Generated_Source\PSoC5/PRINTER_A.c ****         PRINTER_A_initVar = 1u;
  62              		.loc 1 82 0
  63 0010 034B     		ldr	r3, .L3
  64 0012 0122     		movs	r2, #1
  65 0014 1A70     		strb	r2, [r3]
  66              	.L2:
  83:Generated_Source\PSoC5/PRINTER_A.c ****     }
  84:Generated_Source\PSoC5/PRINTER_A.c **** 
  85:Generated_Source\PSoC5/PRINTER_A.c ****     PRINTER_A_Enable();
  67              		.loc 1 85 0
  68 0016 FFF7FEFF 		bl	PRINTER_A_Enable
  86:Generated_Source\PSoC5/PRINTER_A.c **** }
  69              		.loc 1 86 0
  70 001a 00BF     		nop
  71 001c 80BD     		pop	{r7, pc}
  72              	.L4:
  73 001e 00BF     		.align	2
  74              	.L3:
  75 0020 00000000 		.word	PRINTER_A_initVar
  76              		.cfi_endproc
  77              	.LFE0:
  78              		.size	PRINTER_A_Start, .-PRINTER_A_Start
  79              		.section	.text.PRINTER_A_Init,"ax",%progbits
  80              		.align	2
  81              		.global	PRINTER_A_Init
  82              		.thumb
  83              		.thumb_func
  84              		.type	PRINTER_A_Init, %function
  85              	PRINTER_A_Init:
ARM GAS  C:\Users\Mery\AppData\Local\Temp\ccXmhN3c.s 			page 4


  86              	.LFB1:
  87:Generated_Source\PSoC5/PRINTER_A.c **** 
  88:Generated_Source\PSoC5/PRINTER_A.c **** 
  89:Generated_Source\PSoC5/PRINTER_A.c **** /*******************************************************************************
  90:Generated_Source\PSoC5/PRINTER_A.c **** * Function Name: PRINTER_A_Init
  91:Generated_Source\PSoC5/PRINTER_A.c **** ********************************************************************************
  92:Generated_Source\PSoC5/PRINTER_A.c **** *
  93:Generated_Source\PSoC5/PRINTER_A.c **** * Summary:
  94:Generated_Source\PSoC5/PRINTER_A.c **** *  Initializes or restores the component according to the customizer Configure
  95:Generated_Source\PSoC5/PRINTER_A.c **** *  dialog settings. It is not necessary to call PRINTER_A_Init() because
  96:Generated_Source\PSoC5/PRINTER_A.c **** *  the PRINTER_A_Start() API calls this function and is the preferred
  97:Generated_Source\PSoC5/PRINTER_A.c **** *  method to begin component operation.
  98:Generated_Source\PSoC5/PRINTER_A.c **** *
  99:Generated_Source\PSoC5/PRINTER_A.c **** * Parameters:
 100:Generated_Source\PSoC5/PRINTER_A.c **** *  None.
 101:Generated_Source\PSoC5/PRINTER_A.c **** *
 102:Generated_Source\PSoC5/PRINTER_A.c **** * Return:
 103:Generated_Source\PSoC5/PRINTER_A.c **** *  None.
 104:Generated_Source\PSoC5/PRINTER_A.c **** *
 105:Generated_Source\PSoC5/PRINTER_A.c **** *******************************************************************************/
 106:Generated_Source\PSoC5/PRINTER_A.c **** void PRINTER_A_Init(void) 
 107:Generated_Source\PSoC5/PRINTER_A.c **** {
  87              		.loc 1 107 0
  88              		.cfi_startproc
  89              		@ args = 0, pretend = 0, frame = 0
  90              		@ frame_needed = 1, uses_anonymous_args = 0
  91 0000 80B5     		push	{r7, lr}
  92              		.cfi_def_cfa_offset 8
  93              		.cfi_offset 7, -8
  94              		.cfi_offset 14, -4
  95 0002 00AF     		add	r7, sp, #0
  96              		.cfi_def_cfa_register 7
 108:Generated_Source\PSoC5/PRINTER_A.c ****     #if(PRINTER_A_RX_ENABLED || PRINTER_A_HD_ENABLED)
 109:Generated_Source\PSoC5/PRINTER_A.c **** 
 110:Generated_Source\PSoC5/PRINTER_A.c ****         #if (PRINTER_A_RX_INTERRUPT_ENABLED)
 111:Generated_Source\PSoC5/PRINTER_A.c ****             /* Set RX interrupt vector and priority */
 112:Generated_Source\PSoC5/PRINTER_A.c ****             (void) CyIntSetVector(PRINTER_A_RX_VECT_NUM, &PRINTER_A_RXISR);
 113:Generated_Source\PSoC5/PRINTER_A.c ****             CyIntSetPriority(PRINTER_A_RX_VECT_NUM, PRINTER_A_RX_PRIOR_NUM);
 114:Generated_Source\PSoC5/PRINTER_A.c ****             PRINTER_A_errorStatus = 0u;
 115:Generated_Source\PSoC5/PRINTER_A.c ****         #endif /* (PRINTER_A_RX_INTERRUPT_ENABLED) */
 116:Generated_Source\PSoC5/PRINTER_A.c **** 
 117:Generated_Source\PSoC5/PRINTER_A.c ****         #if (PRINTER_A_RXHW_ADDRESS_ENABLED)
 118:Generated_Source\PSoC5/PRINTER_A.c ****             PRINTER_A_SetRxAddressMode(PRINTER_A_RX_ADDRESS_MODE);
 119:Generated_Source\PSoC5/PRINTER_A.c ****             PRINTER_A_SetRxAddress1(PRINTER_A_RX_HW_ADDRESS1);
 120:Generated_Source\PSoC5/PRINTER_A.c ****             PRINTER_A_SetRxAddress2(PRINTER_A_RX_HW_ADDRESS2);
 121:Generated_Source\PSoC5/PRINTER_A.c ****         #endif /* End PRINTER_A_RXHW_ADDRESS_ENABLED */
 122:Generated_Source\PSoC5/PRINTER_A.c **** 
 123:Generated_Source\PSoC5/PRINTER_A.c ****         /* Init Count7 period */
 124:Generated_Source\PSoC5/PRINTER_A.c ****         PRINTER_A_RXBITCTR_PERIOD_REG = PRINTER_A_RXBITCTR_INIT;
 125:Generated_Source\PSoC5/PRINTER_A.c ****         /* Configure the Initial RX interrupt mask */
 126:Generated_Source\PSoC5/PRINTER_A.c ****         PRINTER_A_RXSTATUS_MASK_REG  = PRINTER_A_INIT_RX_INTERRUPTS_MASK;
 127:Generated_Source\PSoC5/PRINTER_A.c ****     #endif /* End PRINTER_A_RX_ENABLED || PRINTER_A_HD_ENABLED*/
 128:Generated_Source\PSoC5/PRINTER_A.c **** 
 129:Generated_Source\PSoC5/PRINTER_A.c ****     #if(PRINTER_A_TX_ENABLED)
 130:Generated_Source\PSoC5/PRINTER_A.c ****         #if (PRINTER_A_TX_INTERRUPT_ENABLED)
 131:Generated_Source\PSoC5/PRINTER_A.c ****             /* Set TX interrupt vector and priority */
 132:Generated_Source\PSoC5/PRINTER_A.c ****             (void) CyIntSetVector(PRINTER_A_TX_VECT_NUM, &PRINTER_A_TXISR);
ARM GAS  C:\Users\Mery\AppData\Local\Temp\ccXmhN3c.s 			page 5


  97              		.loc 1 132 0
  98 0004 0949     		ldr	r1, .L6
  99 0006 0220     		movs	r0, #2
 100 0008 FFF7FEFF 		bl	CyIntSetVector
 133:Generated_Source\PSoC5/PRINTER_A.c ****             CyIntSetPriority(PRINTER_A_TX_VECT_NUM, PRINTER_A_TX_PRIOR_NUM);
 101              		.loc 1 133 0
 102 000c 0721     		movs	r1, #7
 103 000e 0220     		movs	r0, #2
 104 0010 FFF7FEFF 		bl	CyIntSetPriority
 134:Generated_Source\PSoC5/PRINTER_A.c ****         #endif /* (PRINTER_A_TX_INTERRUPT_ENABLED) */
 135:Generated_Source\PSoC5/PRINTER_A.c **** 
 136:Generated_Source\PSoC5/PRINTER_A.c ****         /* Write Counter Value for TX Bit Clk Generator*/
 137:Generated_Source\PSoC5/PRINTER_A.c ****         #if (PRINTER_A_TXCLKGEN_DP)
 138:Generated_Source\PSoC5/PRINTER_A.c ****             PRINTER_A_TXBITCLKGEN_CTR_REG = PRINTER_A_BIT_CENTER;
 105              		.loc 1 138 0
 106 0014 064B     		ldr	r3, .L6+4
 107 0016 0622     		movs	r2, #6
 108 0018 1A70     		strb	r2, [r3]
 139:Generated_Source\PSoC5/PRINTER_A.c ****             PRINTER_A_TXBITCLKTX_COMPLETE_REG = ((PRINTER_A_NUMBER_OF_DATA_BITS +
 109              		.loc 1 139 0
 110 001a 064B     		ldr	r3, .L6+8
 111 001c 4722     		movs	r2, #71
 112 001e 1A70     		strb	r2, [r3]
 140:Generated_Source\PSoC5/PRINTER_A.c ****                         PRINTER_A_NUMBER_OF_START_BIT) * PRINTER_A_OVER_SAMPLE_COUNT) - 1u;
 141:Generated_Source\PSoC5/PRINTER_A.c ****         #else
 142:Generated_Source\PSoC5/PRINTER_A.c ****             PRINTER_A_TXBITCTR_PERIOD_REG = ((PRINTER_A_NUMBER_OF_DATA_BITS +
 143:Generated_Source\PSoC5/PRINTER_A.c ****                         PRINTER_A_NUMBER_OF_START_BIT) * PRINTER_A_OVER_SAMPLE_8) - 1u;
 144:Generated_Source\PSoC5/PRINTER_A.c ****         #endif /* End PRINTER_A_TXCLKGEN_DP */
 145:Generated_Source\PSoC5/PRINTER_A.c **** 
 146:Generated_Source\PSoC5/PRINTER_A.c ****         /* Configure the Initial TX interrupt mask */
 147:Generated_Source\PSoC5/PRINTER_A.c ****         #if (PRINTER_A_TX_INTERRUPT_ENABLED)
 148:Generated_Source\PSoC5/PRINTER_A.c ****             PRINTER_A_TXSTATUS_MASK_REG = PRINTER_A_TX_STS_FIFO_EMPTY;
 113              		.loc 1 148 0
 114 0020 054B     		ldr	r3, .L6+12
 115 0022 0222     		movs	r2, #2
 116 0024 1A70     		strb	r2, [r3]
 149:Generated_Source\PSoC5/PRINTER_A.c ****         #else
 150:Generated_Source\PSoC5/PRINTER_A.c ****             PRINTER_A_TXSTATUS_MASK_REG = PRINTER_A_INIT_TX_INTERRUPTS_MASK;
 151:Generated_Source\PSoC5/PRINTER_A.c ****         #endif /*End PRINTER_A_TX_INTERRUPT_ENABLED*/
 152:Generated_Source\PSoC5/PRINTER_A.c **** 
 153:Generated_Source\PSoC5/PRINTER_A.c ****     #endif /* End PRINTER_A_TX_ENABLED */
 154:Generated_Source\PSoC5/PRINTER_A.c **** 
 155:Generated_Source\PSoC5/PRINTER_A.c ****     #if(PRINTER_A_PARITY_TYPE_SW)  /* Write Parity to Control Register */
 156:Generated_Source\PSoC5/PRINTER_A.c ****         PRINTER_A_WriteControlRegister( \
 157:Generated_Source\PSoC5/PRINTER_A.c ****             (PRINTER_A_ReadControlRegister() & (uint8)~PRINTER_A_CTRL_PARITY_TYPE_MASK) | \
 158:Generated_Source\PSoC5/PRINTER_A.c ****             (uint8)(PRINTER_A_PARITY_TYPE << PRINTER_A_CTRL_PARITY_TYPE0_SHIFT) );
 159:Generated_Source\PSoC5/PRINTER_A.c ****     #endif /* End PRINTER_A_PARITY_TYPE_SW */
 160:Generated_Source\PSoC5/PRINTER_A.c **** }
 117              		.loc 1 160 0
 118 0026 00BF     		nop
 119 0028 80BD     		pop	{r7, pc}
 120              	.L7:
 121 002a 00BF     		.align	2
 122              	.L6:
 123 002c 00000000 		.word	PRINTER_A_TXISR
 124 0030 26650040 		.word	1073767718
 125 0034 36650040 		.word	1073767734
ARM GAS  C:\Users\Mery\AppData\Local\Temp\ccXmhN3c.s 			page 6


 126 0038 86640040 		.word	1073767558
 127              		.cfi_endproc
 128              	.LFE1:
 129              		.size	PRINTER_A_Init, .-PRINTER_A_Init
 130              		.section	.text.PRINTER_A_Enable,"ax",%progbits
 131              		.align	2
 132              		.global	PRINTER_A_Enable
 133              		.thumb
 134              		.thumb_func
 135              		.type	PRINTER_A_Enable, %function
 136              	PRINTER_A_Enable:
 137              	.LFB2:
 161:Generated_Source\PSoC5/PRINTER_A.c **** 
 162:Generated_Source\PSoC5/PRINTER_A.c **** 
 163:Generated_Source\PSoC5/PRINTER_A.c **** /*******************************************************************************
 164:Generated_Source\PSoC5/PRINTER_A.c **** * Function Name: PRINTER_A_Enable
 165:Generated_Source\PSoC5/PRINTER_A.c **** ********************************************************************************
 166:Generated_Source\PSoC5/PRINTER_A.c **** *
 167:Generated_Source\PSoC5/PRINTER_A.c **** * Summary:
 168:Generated_Source\PSoC5/PRINTER_A.c **** *  Activates the hardware and begins component operation. It is not necessary
 169:Generated_Source\PSoC5/PRINTER_A.c **** *  to call PRINTER_A_Enable() because the PRINTER_A_Start() API
 170:Generated_Source\PSoC5/PRINTER_A.c **** *  calls this function, which is the preferred method to begin component
 171:Generated_Source\PSoC5/PRINTER_A.c **** *  operation.
 172:Generated_Source\PSoC5/PRINTER_A.c **** 
 173:Generated_Source\PSoC5/PRINTER_A.c **** * Parameters:
 174:Generated_Source\PSoC5/PRINTER_A.c **** *  None.
 175:Generated_Source\PSoC5/PRINTER_A.c **** *
 176:Generated_Source\PSoC5/PRINTER_A.c **** * Return:
 177:Generated_Source\PSoC5/PRINTER_A.c **** *  None.
 178:Generated_Source\PSoC5/PRINTER_A.c **** *
 179:Generated_Source\PSoC5/PRINTER_A.c **** * Global Variables:
 180:Generated_Source\PSoC5/PRINTER_A.c **** *  PRINTER_A_rxAddressDetected - set to initial state (0).
 181:Generated_Source\PSoC5/PRINTER_A.c **** *
 182:Generated_Source\PSoC5/PRINTER_A.c **** *******************************************************************************/
 183:Generated_Source\PSoC5/PRINTER_A.c **** void PRINTER_A_Enable(void) 
 184:Generated_Source\PSoC5/PRINTER_A.c **** {
 138              		.loc 1 184 0
 139              		.cfi_startproc
 140              		@ args = 0, pretend = 0, frame = 8
 141              		@ frame_needed = 1, uses_anonymous_args = 0
 142 0000 80B5     		push	{r7, lr}
 143              		.cfi_def_cfa_offset 8
 144              		.cfi_offset 7, -8
 145              		.cfi_offset 14, -4
 146 0002 82B0     		sub	sp, sp, #8
 147              		.cfi_def_cfa_offset 16
 148 0004 00AF     		add	r7, sp, #0
 149              		.cfi_def_cfa_register 7
 185:Generated_Source\PSoC5/PRINTER_A.c ****     uint8 enableInterrupts;
 186:Generated_Source\PSoC5/PRINTER_A.c ****     enableInterrupts = CyEnterCriticalSection();
 150              		.loc 1 186 0
 151 0006 FFF7FEFF 		bl	CyEnterCriticalSection
 152 000a 0346     		mov	r3, r0
 153 000c FB71     		strb	r3, [r7, #7]
 187:Generated_Source\PSoC5/PRINTER_A.c **** 
 188:Generated_Source\PSoC5/PRINTER_A.c ****     #if (PRINTER_A_RX_ENABLED || PRINTER_A_HD_ENABLED)
 189:Generated_Source\PSoC5/PRINTER_A.c ****         /* RX Counter (Count7) Enable */
ARM GAS  C:\Users\Mery\AppData\Local\Temp\ccXmhN3c.s 			page 7


 190:Generated_Source\PSoC5/PRINTER_A.c ****         PRINTER_A_RXBITCTR_CONTROL_REG |= PRINTER_A_CNTR_ENABLE;
 191:Generated_Source\PSoC5/PRINTER_A.c **** 
 192:Generated_Source\PSoC5/PRINTER_A.c ****         /* Enable the RX Interrupt */
 193:Generated_Source\PSoC5/PRINTER_A.c ****         PRINTER_A_RXSTATUS_ACTL_REG  |= PRINTER_A_INT_ENABLE;
 194:Generated_Source\PSoC5/PRINTER_A.c **** 
 195:Generated_Source\PSoC5/PRINTER_A.c ****         #if (PRINTER_A_RX_INTERRUPT_ENABLED)
 196:Generated_Source\PSoC5/PRINTER_A.c ****             PRINTER_A_EnableRxInt();
 197:Generated_Source\PSoC5/PRINTER_A.c **** 
 198:Generated_Source\PSoC5/PRINTER_A.c ****             #if (PRINTER_A_RXHW_ADDRESS_ENABLED)
 199:Generated_Source\PSoC5/PRINTER_A.c ****                 PRINTER_A_rxAddressDetected = 0u;
 200:Generated_Source\PSoC5/PRINTER_A.c ****             #endif /* (PRINTER_A_RXHW_ADDRESS_ENABLED) */
 201:Generated_Source\PSoC5/PRINTER_A.c ****         #endif /* (PRINTER_A_RX_INTERRUPT_ENABLED) */
 202:Generated_Source\PSoC5/PRINTER_A.c ****     #endif /* (PRINTER_A_RX_ENABLED || PRINTER_A_HD_ENABLED) */
 203:Generated_Source\PSoC5/PRINTER_A.c **** 
 204:Generated_Source\PSoC5/PRINTER_A.c ****     #if(PRINTER_A_TX_ENABLED)
 205:Generated_Source\PSoC5/PRINTER_A.c ****         /* TX Counter (DP/Count7) Enable */
 206:Generated_Source\PSoC5/PRINTER_A.c ****         #if(!PRINTER_A_TXCLKGEN_DP)
 207:Generated_Source\PSoC5/PRINTER_A.c ****             PRINTER_A_TXBITCTR_CONTROL_REG |= PRINTER_A_CNTR_ENABLE;
 208:Generated_Source\PSoC5/PRINTER_A.c ****         #endif /* End PRINTER_A_TXCLKGEN_DP */
 209:Generated_Source\PSoC5/PRINTER_A.c **** 
 210:Generated_Source\PSoC5/PRINTER_A.c ****         /* Enable the TX Interrupt */
 211:Generated_Source\PSoC5/PRINTER_A.c ****         PRINTER_A_TXSTATUS_ACTL_REG |= PRINTER_A_INT_ENABLE;
 154              		.loc 1 211 0
 155 000e 0C4A     		ldr	r2, .L9
 156 0010 0B4B     		ldr	r3, .L9
 157 0012 1B78     		ldrb	r3, [r3]
 158 0014 DBB2     		uxtb	r3, r3
 159 0016 43F01003 		orr	r3, r3, #16
 160 001a DBB2     		uxtb	r3, r3
 161 001c 1370     		strb	r3, [r2]
 212:Generated_Source\PSoC5/PRINTER_A.c ****         #if (PRINTER_A_TX_INTERRUPT_ENABLED)
 213:Generated_Source\PSoC5/PRINTER_A.c ****             PRINTER_A_ClearPendingTxInt(); /* Clear history of TX_NOT_EMPTY */
 162              		.loc 1 213 0
 163 001e 094B     		ldr	r3, .L9+4
 164 0020 0422     		movs	r2, #4
 165 0022 1A60     		str	r2, [r3]
 214:Generated_Source\PSoC5/PRINTER_A.c ****             PRINTER_A_EnableTxInt();
 166              		.loc 1 214 0
 167 0024 084B     		ldr	r3, .L9+8
 168 0026 0422     		movs	r2, #4
 169 0028 1A60     		str	r2, [r3]
 215:Generated_Source\PSoC5/PRINTER_A.c ****         #endif /* (PRINTER_A_TX_INTERRUPT_ENABLED) */
 216:Generated_Source\PSoC5/PRINTER_A.c ****      #endif /* (PRINTER_A_TX_INTERRUPT_ENABLED) */
 217:Generated_Source\PSoC5/PRINTER_A.c **** 
 218:Generated_Source\PSoC5/PRINTER_A.c ****     #if (PRINTER_A_INTERNAL_CLOCK_USED)
 219:Generated_Source\PSoC5/PRINTER_A.c ****         PRINTER_A_IntClock_Start();  /* Enable the clock */
 170              		.loc 1 219 0
 171 002a FFF7FEFF 		bl	PRINTER_A_IntClock_Start
 220:Generated_Source\PSoC5/PRINTER_A.c ****     #endif /* (PRINTER_A_INTERNAL_CLOCK_USED) */
 221:Generated_Source\PSoC5/PRINTER_A.c **** 
 222:Generated_Source\PSoC5/PRINTER_A.c ****     CyExitCriticalSection(enableInterrupts);
 172              		.loc 1 222 0
 173 002e FB79     		ldrb	r3, [r7, #7]	@ zero_extendqisi2
 174 0030 1846     		mov	r0, r3
 175 0032 FFF7FEFF 		bl	CyExitCriticalSection
 223:Generated_Source\PSoC5/PRINTER_A.c **** }
 176              		.loc 1 223 0
ARM GAS  C:\Users\Mery\AppData\Local\Temp\ccXmhN3c.s 			page 8


 177 0036 00BF     		nop
 178 0038 0837     		adds	r7, r7, #8
 179              		.cfi_def_cfa_offset 8
 180 003a BD46     		mov	sp, r7
 181              		.cfi_def_cfa_register 13
 182              		@ sp needed
 183 003c 80BD     		pop	{r7, pc}
 184              	.L10:
 185 003e 00BF     		.align	2
 186              	.L9:
 187 0040 96640040 		.word	1073767574
 188 0044 80E200E0 		.word	-536812928
 189 0048 00E100E0 		.word	-536813312
 190              		.cfi_endproc
 191              	.LFE2:
 192              		.size	PRINTER_A_Enable, .-PRINTER_A_Enable
 193              		.section	.text.PRINTER_A_Stop,"ax",%progbits
 194              		.align	2
 195              		.global	PRINTER_A_Stop
 196              		.thumb
 197              		.thumb_func
 198              		.type	PRINTER_A_Stop, %function
 199              	PRINTER_A_Stop:
 200              	.LFB3:
 224:Generated_Source\PSoC5/PRINTER_A.c **** 
 225:Generated_Source\PSoC5/PRINTER_A.c **** 
 226:Generated_Source\PSoC5/PRINTER_A.c **** /*******************************************************************************
 227:Generated_Source\PSoC5/PRINTER_A.c **** * Function Name: PRINTER_A_Stop
 228:Generated_Source\PSoC5/PRINTER_A.c **** ********************************************************************************
 229:Generated_Source\PSoC5/PRINTER_A.c **** *
 230:Generated_Source\PSoC5/PRINTER_A.c **** * Summary:
 231:Generated_Source\PSoC5/PRINTER_A.c **** *  Disables the UART operation.
 232:Generated_Source\PSoC5/PRINTER_A.c **** *
 233:Generated_Source\PSoC5/PRINTER_A.c **** * Parameters:
 234:Generated_Source\PSoC5/PRINTER_A.c **** *  None.
 235:Generated_Source\PSoC5/PRINTER_A.c **** *
 236:Generated_Source\PSoC5/PRINTER_A.c **** * Return:
 237:Generated_Source\PSoC5/PRINTER_A.c **** *  None.
 238:Generated_Source\PSoC5/PRINTER_A.c **** *
 239:Generated_Source\PSoC5/PRINTER_A.c **** *******************************************************************************/
 240:Generated_Source\PSoC5/PRINTER_A.c **** void PRINTER_A_Stop(void) 
 241:Generated_Source\PSoC5/PRINTER_A.c **** {
 201              		.loc 1 241 0
 202              		.cfi_startproc
 203              		@ args = 0, pretend = 0, frame = 8
 204              		@ frame_needed = 1, uses_anonymous_args = 0
 205 0000 80B5     		push	{r7, lr}
 206              		.cfi_def_cfa_offset 8
 207              		.cfi_offset 7, -8
 208              		.cfi_offset 14, -4
 209 0002 82B0     		sub	sp, sp, #8
 210              		.cfi_def_cfa_offset 16
 211 0004 00AF     		add	r7, sp, #0
 212              		.cfi_def_cfa_register 7
 242:Generated_Source\PSoC5/PRINTER_A.c ****     uint8 enableInterrupts;
 243:Generated_Source\PSoC5/PRINTER_A.c ****     enableInterrupts = CyEnterCriticalSection();
 213              		.loc 1 243 0
ARM GAS  C:\Users\Mery\AppData\Local\Temp\ccXmhN3c.s 			page 9


 214 0006 FFF7FEFF 		bl	CyEnterCriticalSection
 215 000a 0346     		mov	r3, r0
 216 000c FB71     		strb	r3, [r7, #7]
 244:Generated_Source\PSoC5/PRINTER_A.c **** 
 245:Generated_Source\PSoC5/PRINTER_A.c ****     /* Write Bit Counter Disable */
 246:Generated_Source\PSoC5/PRINTER_A.c ****     #if (PRINTER_A_RX_ENABLED || PRINTER_A_HD_ENABLED)
 247:Generated_Source\PSoC5/PRINTER_A.c ****         PRINTER_A_RXBITCTR_CONTROL_REG &= (uint8) ~PRINTER_A_CNTR_ENABLE;
 248:Generated_Source\PSoC5/PRINTER_A.c ****     #endif /* (PRINTER_A_RX_ENABLED || PRINTER_A_HD_ENABLED) */
 249:Generated_Source\PSoC5/PRINTER_A.c **** 
 250:Generated_Source\PSoC5/PRINTER_A.c ****     #if (PRINTER_A_TX_ENABLED)
 251:Generated_Source\PSoC5/PRINTER_A.c ****         #if(!PRINTER_A_TXCLKGEN_DP)
 252:Generated_Source\PSoC5/PRINTER_A.c ****             PRINTER_A_TXBITCTR_CONTROL_REG &= (uint8) ~PRINTER_A_CNTR_ENABLE;
 253:Generated_Source\PSoC5/PRINTER_A.c ****         #endif /* (!PRINTER_A_TXCLKGEN_DP) */
 254:Generated_Source\PSoC5/PRINTER_A.c ****     #endif /* (PRINTER_A_TX_ENABLED) */
 255:Generated_Source\PSoC5/PRINTER_A.c **** 
 256:Generated_Source\PSoC5/PRINTER_A.c ****     #if (PRINTER_A_INTERNAL_CLOCK_USED)
 257:Generated_Source\PSoC5/PRINTER_A.c ****         PRINTER_A_IntClock_Stop();   /* Disable the clock */
 217              		.loc 1 257 0
 218 000e FFF7FEFF 		bl	PRINTER_A_IntClock_Stop
 258:Generated_Source\PSoC5/PRINTER_A.c ****     #endif /* (PRINTER_A_INTERNAL_CLOCK_USED) */
 259:Generated_Source\PSoC5/PRINTER_A.c **** 
 260:Generated_Source\PSoC5/PRINTER_A.c ****     /* Disable internal interrupt component */
 261:Generated_Source\PSoC5/PRINTER_A.c ****     #if (PRINTER_A_RX_ENABLED || PRINTER_A_HD_ENABLED)
 262:Generated_Source\PSoC5/PRINTER_A.c ****         PRINTER_A_RXSTATUS_ACTL_REG  &= (uint8) ~PRINTER_A_INT_ENABLE;
 263:Generated_Source\PSoC5/PRINTER_A.c **** 
 264:Generated_Source\PSoC5/PRINTER_A.c ****         #if (PRINTER_A_RX_INTERRUPT_ENABLED)
 265:Generated_Source\PSoC5/PRINTER_A.c ****             PRINTER_A_DisableRxInt();
 266:Generated_Source\PSoC5/PRINTER_A.c ****         #endif /* (PRINTER_A_RX_INTERRUPT_ENABLED) */
 267:Generated_Source\PSoC5/PRINTER_A.c ****     #endif /* (PRINTER_A_RX_ENABLED || PRINTER_A_HD_ENABLED) */
 268:Generated_Source\PSoC5/PRINTER_A.c **** 
 269:Generated_Source\PSoC5/PRINTER_A.c ****     #if (PRINTER_A_TX_ENABLED)
 270:Generated_Source\PSoC5/PRINTER_A.c ****         PRINTER_A_TXSTATUS_ACTL_REG &= (uint8) ~PRINTER_A_INT_ENABLE;
 219              		.loc 1 270 0
 220 0012 094A     		ldr	r2, .L12
 221 0014 084B     		ldr	r3, .L12
 222 0016 1B78     		ldrb	r3, [r3]
 223 0018 DBB2     		uxtb	r3, r3
 224 001a 23F01003 		bic	r3, r3, #16
 225 001e DBB2     		uxtb	r3, r3
 226 0020 1370     		strb	r3, [r2]
 271:Generated_Source\PSoC5/PRINTER_A.c **** 
 272:Generated_Source\PSoC5/PRINTER_A.c ****         #if (PRINTER_A_TX_INTERRUPT_ENABLED)
 273:Generated_Source\PSoC5/PRINTER_A.c ****             PRINTER_A_DisableTxInt();
 227              		.loc 1 273 0
 228 0022 064B     		ldr	r3, .L12+4
 229 0024 0422     		movs	r2, #4
 230 0026 1A60     		str	r2, [r3]
 274:Generated_Source\PSoC5/PRINTER_A.c ****         #endif /* (PRINTER_A_TX_INTERRUPT_ENABLED) */
 275:Generated_Source\PSoC5/PRINTER_A.c ****     #endif /* (PRINTER_A_TX_ENABLED) */
 276:Generated_Source\PSoC5/PRINTER_A.c **** 
 277:Generated_Source\PSoC5/PRINTER_A.c ****     CyExitCriticalSection(enableInterrupts);
 231              		.loc 1 277 0
 232 0028 FB79     		ldrb	r3, [r7, #7]	@ zero_extendqisi2
 233 002a 1846     		mov	r0, r3
 234 002c FFF7FEFF 		bl	CyExitCriticalSection
 278:Generated_Source\PSoC5/PRINTER_A.c **** }
 235              		.loc 1 278 0
ARM GAS  C:\Users\Mery\AppData\Local\Temp\ccXmhN3c.s 			page 10


 236 0030 00BF     		nop
 237 0032 0837     		adds	r7, r7, #8
 238              		.cfi_def_cfa_offset 8
 239 0034 BD46     		mov	sp, r7
 240              		.cfi_def_cfa_register 13
 241              		@ sp needed
 242 0036 80BD     		pop	{r7, pc}
 243              	.L13:
 244              		.align	2
 245              	.L12:
 246 0038 96640040 		.word	1073767574
 247 003c 80E100E0 		.word	-536813184
 248              		.cfi_endproc
 249              	.LFE3:
 250              		.size	PRINTER_A_Stop, .-PRINTER_A_Stop
 251              		.section	.text.PRINTER_A_ReadControlRegister,"ax",%progbits
 252              		.align	2
 253              		.global	PRINTER_A_ReadControlRegister
 254              		.thumb
 255              		.thumb_func
 256              		.type	PRINTER_A_ReadControlRegister, %function
 257              	PRINTER_A_ReadControlRegister:
 258              	.LFB4:
 279:Generated_Source\PSoC5/PRINTER_A.c **** 
 280:Generated_Source\PSoC5/PRINTER_A.c **** 
 281:Generated_Source\PSoC5/PRINTER_A.c **** /*******************************************************************************
 282:Generated_Source\PSoC5/PRINTER_A.c **** * Function Name: PRINTER_A_ReadControlRegister
 283:Generated_Source\PSoC5/PRINTER_A.c **** ********************************************************************************
 284:Generated_Source\PSoC5/PRINTER_A.c **** *
 285:Generated_Source\PSoC5/PRINTER_A.c **** * Summary:
 286:Generated_Source\PSoC5/PRINTER_A.c **** *  Returns the current value of the control register.
 287:Generated_Source\PSoC5/PRINTER_A.c **** *
 288:Generated_Source\PSoC5/PRINTER_A.c **** * Parameters:
 289:Generated_Source\PSoC5/PRINTER_A.c **** *  None.
 290:Generated_Source\PSoC5/PRINTER_A.c **** *
 291:Generated_Source\PSoC5/PRINTER_A.c **** * Return:
 292:Generated_Source\PSoC5/PRINTER_A.c **** *  Contents of the control register.
 293:Generated_Source\PSoC5/PRINTER_A.c **** *
 294:Generated_Source\PSoC5/PRINTER_A.c **** *******************************************************************************/
 295:Generated_Source\PSoC5/PRINTER_A.c **** uint8 PRINTER_A_ReadControlRegister(void) 
 296:Generated_Source\PSoC5/PRINTER_A.c **** {
 259              		.loc 1 296 0
 260              		.cfi_startproc
 261              		@ args = 0, pretend = 0, frame = 0
 262              		@ frame_needed = 1, uses_anonymous_args = 0
 263              		@ link register save eliminated.
 264 0000 80B4     		push	{r7}
 265              		.cfi_def_cfa_offset 4
 266              		.cfi_offset 7, -4
 267 0002 00AF     		add	r7, sp, #0
 268              		.cfi_def_cfa_register 7
 297:Generated_Source\PSoC5/PRINTER_A.c ****     #if (PRINTER_A_CONTROL_REG_REMOVED)
 298:Generated_Source\PSoC5/PRINTER_A.c ****         return(0u);
 269              		.loc 1 298 0
 270 0004 0023     		movs	r3, #0
 299:Generated_Source\PSoC5/PRINTER_A.c ****     #else
 300:Generated_Source\PSoC5/PRINTER_A.c ****         return(PRINTER_A_CONTROL_REG);
ARM GAS  C:\Users\Mery\AppData\Local\Temp\ccXmhN3c.s 			page 11


 301:Generated_Source\PSoC5/PRINTER_A.c ****     #endif /* (PRINTER_A_CONTROL_REG_REMOVED) */
 302:Generated_Source\PSoC5/PRINTER_A.c **** }
 271              		.loc 1 302 0
 272 0006 1846     		mov	r0, r3
 273 0008 BD46     		mov	sp, r7
 274              		.cfi_def_cfa_register 13
 275              		@ sp needed
 276 000a 80BC     		pop	{r7}
 277              		.cfi_restore 7
 278              		.cfi_def_cfa_offset 0
 279 000c 7047     		bx	lr
 280              		.cfi_endproc
 281              	.LFE4:
 282              		.size	PRINTER_A_ReadControlRegister, .-PRINTER_A_ReadControlRegister
 283 000e 00BF     		.section	.text.PRINTER_A_WriteControlRegister,"ax",%progbits
 284              		.align	2
 285              		.global	PRINTER_A_WriteControlRegister
 286              		.thumb
 287              		.thumb_func
 288              		.type	PRINTER_A_WriteControlRegister, %function
 289              	PRINTER_A_WriteControlRegister:
 290              	.LFB5:
 303:Generated_Source\PSoC5/PRINTER_A.c **** 
 304:Generated_Source\PSoC5/PRINTER_A.c **** 
 305:Generated_Source\PSoC5/PRINTER_A.c **** /*******************************************************************************
 306:Generated_Source\PSoC5/PRINTER_A.c **** * Function Name: PRINTER_A_WriteControlRegister
 307:Generated_Source\PSoC5/PRINTER_A.c **** ********************************************************************************
 308:Generated_Source\PSoC5/PRINTER_A.c **** *
 309:Generated_Source\PSoC5/PRINTER_A.c **** * Summary:
 310:Generated_Source\PSoC5/PRINTER_A.c **** *  Writes an 8-bit value into the control register
 311:Generated_Source\PSoC5/PRINTER_A.c **** *
 312:Generated_Source\PSoC5/PRINTER_A.c **** * Parameters:
 313:Generated_Source\PSoC5/PRINTER_A.c **** *  control:  control register value
 314:Generated_Source\PSoC5/PRINTER_A.c **** *
 315:Generated_Source\PSoC5/PRINTER_A.c **** * Return:
 316:Generated_Source\PSoC5/PRINTER_A.c **** *  None.
 317:Generated_Source\PSoC5/PRINTER_A.c **** *
 318:Generated_Source\PSoC5/PRINTER_A.c **** *******************************************************************************/
 319:Generated_Source\PSoC5/PRINTER_A.c **** void  PRINTER_A_WriteControlRegister(uint8 control) 
 320:Generated_Source\PSoC5/PRINTER_A.c **** {
 291              		.loc 1 320 0
 292              		.cfi_startproc
 293              		@ args = 0, pretend = 0, frame = 8
 294              		@ frame_needed = 1, uses_anonymous_args = 0
 295              		@ link register save eliminated.
 296 0000 80B4     		push	{r7}
 297              		.cfi_def_cfa_offset 4
 298              		.cfi_offset 7, -4
 299 0002 83B0     		sub	sp, sp, #12
 300              		.cfi_def_cfa_offset 16
 301 0004 00AF     		add	r7, sp, #0
 302              		.cfi_def_cfa_register 7
 303 0006 0346     		mov	r3, r0
 304 0008 FB71     		strb	r3, [r7, #7]
 321:Generated_Source\PSoC5/PRINTER_A.c ****     #if (PRINTER_A_CONTROL_REG_REMOVED)
 322:Generated_Source\PSoC5/PRINTER_A.c ****         if(0u != control)
 323:Generated_Source\PSoC5/PRINTER_A.c ****         {
ARM GAS  C:\Users\Mery\AppData\Local\Temp\ccXmhN3c.s 			page 12


 324:Generated_Source\PSoC5/PRINTER_A.c ****             /* Suppress compiler warning */
 325:Generated_Source\PSoC5/PRINTER_A.c ****         }
 326:Generated_Source\PSoC5/PRINTER_A.c ****     #else
 327:Generated_Source\PSoC5/PRINTER_A.c ****        PRINTER_A_CONTROL_REG = control;
 328:Generated_Source\PSoC5/PRINTER_A.c ****     #endif /* (PRINTER_A_CONTROL_REG_REMOVED) */
 329:Generated_Source\PSoC5/PRINTER_A.c **** }
 305              		.loc 1 329 0
 306 000a 00BF     		nop
 307 000c 0C37     		adds	r7, r7, #12
 308              		.cfi_def_cfa_offset 4
 309 000e BD46     		mov	sp, r7
 310              		.cfi_def_cfa_register 13
 311              		@ sp needed
 312 0010 80BC     		pop	{r7}
 313              		.cfi_restore 7
 314              		.cfi_def_cfa_offset 0
 315 0012 7047     		bx	lr
 316              		.cfi_endproc
 317              	.LFE5:
 318              		.size	PRINTER_A_WriteControlRegister, .-PRINTER_A_WriteControlRegister
 319              		.section	.text.PRINTER_A_SetTxInterruptMode,"ax",%progbits
 320              		.align	2
 321              		.global	PRINTER_A_SetTxInterruptMode
 322              		.thumb
 323              		.thumb_func
 324              		.type	PRINTER_A_SetTxInterruptMode, %function
 325              	PRINTER_A_SetTxInterruptMode:
 326              	.LFB6:
 330:Generated_Source\PSoC5/PRINTER_A.c **** 
 331:Generated_Source\PSoC5/PRINTER_A.c **** 
 332:Generated_Source\PSoC5/PRINTER_A.c **** #if(PRINTER_A_RX_ENABLED || PRINTER_A_HD_ENABLED)
 333:Generated_Source\PSoC5/PRINTER_A.c ****     /*******************************************************************************
 334:Generated_Source\PSoC5/PRINTER_A.c ****     * Function Name: PRINTER_A_SetRxInterruptMode
 335:Generated_Source\PSoC5/PRINTER_A.c ****     ********************************************************************************
 336:Generated_Source\PSoC5/PRINTER_A.c ****     *
 337:Generated_Source\PSoC5/PRINTER_A.c ****     * Summary:
 338:Generated_Source\PSoC5/PRINTER_A.c ****     *  Configures the RX interrupt sources enabled.
 339:Generated_Source\PSoC5/PRINTER_A.c ****     *
 340:Generated_Source\PSoC5/PRINTER_A.c ****     * Parameters:
 341:Generated_Source\PSoC5/PRINTER_A.c ****     *  IntSrc:  Bit field containing the RX interrupts to enable. Based on the 
 342:Generated_Source\PSoC5/PRINTER_A.c ****     *  bit-field arrangement of the status register. This value must be a 
 343:Generated_Source\PSoC5/PRINTER_A.c ****     *  combination of status register bit-masks shown below:
 344:Generated_Source\PSoC5/PRINTER_A.c ****     *      PRINTER_A_RX_STS_FIFO_NOTEMPTY    Interrupt on byte received.
 345:Generated_Source\PSoC5/PRINTER_A.c ****     *      PRINTER_A_RX_STS_PAR_ERROR        Interrupt on parity error.
 346:Generated_Source\PSoC5/PRINTER_A.c ****     *      PRINTER_A_RX_STS_STOP_ERROR       Interrupt on stop error.
 347:Generated_Source\PSoC5/PRINTER_A.c ****     *      PRINTER_A_RX_STS_BREAK            Interrupt on break.
 348:Generated_Source\PSoC5/PRINTER_A.c ****     *      PRINTER_A_RX_STS_OVERRUN          Interrupt on overrun error.
 349:Generated_Source\PSoC5/PRINTER_A.c ****     *      PRINTER_A_RX_STS_ADDR_MATCH       Interrupt on address match.
 350:Generated_Source\PSoC5/PRINTER_A.c ****     *      PRINTER_A_RX_STS_MRKSPC           Interrupt on address detect.
 351:Generated_Source\PSoC5/PRINTER_A.c ****     *
 352:Generated_Source\PSoC5/PRINTER_A.c ****     * Return:
 353:Generated_Source\PSoC5/PRINTER_A.c ****     *  None.
 354:Generated_Source\PSoC5/PRINTER_A.c ****     *
 355:Generated_Source\PSoC5/PRINTER_A.c ****     * Theory:
 356:Generated_Source\PSoC5/PRINTER_A.c ****     *  Enables the output of specific status bits to the interrupt controller
 357:Generated_Source\PSoC5/PRINTER_A.c ****     *
 358:Generated_Source\PSoC5/PRINTER_A.c ****     *******************************************************************************/
ARM GAS  C:\Users\Mery\AppData\Local\Temp\ccXmhN3c.s 			page 13


 359:Generated_Source\PSoC5/PRINTER_A.c ****     void PRINTER_A_SetRxInterruptMode(uint8 intSrc) 
 360:Generated_Source\PSoC5/PRINTER_A.c ****     {
 361:Generated_Source\PSoC5/PRINTER_A.c ****         PRINTER_A_RXSTATUS_MASK_REG  = intSrc;
 362:Generated_Source\PSoC5/PRINTER_A.c ****     }
 363:Generated_Source\PSoC5/PRINTER_A.c **** 
 364:Generated_Source\PSoC5/PRINTER_A.c **** 
 365:Generated_Source\PSoC5/PRINTER_A.c ****     /*******************************************************************************
 366:Generated_Source\PSoC5/PRINTER_A.c ****     * Function Name: PRINTER_A_ReadRxData
 367:Generated_Source\PSoC5/PRINTER_A.c ****     ********************************************************************************
 368:Generated_Source\PSoC5/PRINTER_A.c ****     *
 369:Generated_Source\PSoC5/PRINTER_A.c ****     * Summary:
 370:Generated_Source\PSoC5/PRINTER_A.c ****     *  Returns the next byte of received data. This function returns data without
 371:Generated_Source\PSoC5/PRINTER_A.c ****     *  checking the status. You must check the status separately.
 372:Generated_Source\PSoC5/PRINTER_A.c ****     *
 373:Generated_Source\PSoC5/PRINTER_A.c ****     * Parameters:
 374:Generated_Source\PSoC5/PRINTER_A.c ****     *  None.
 375:Generated_Source\PSoC5/PRINTER_A.c ****     *
 376:Generated_Source\PSoC5/PRINTER_A.c ****     * Return:
 377:Generated_Source\PSoC5/PRINTER_A.c ****     *  Received data from RX register
 378:Generated_Source\PSoC5/PRINTER_A.c ****     *
 379:Generated_Source\PSoC5/PRINTER_A.c ****     * Global Variables:
 380:Generated_Source\PSoC5/PRINTER_A.c ****     *  PRINTER_A_rxBuffer - RAM buffer pointer for save received data.
 381:Generated_Source\PSoC5/PRINTER_A.c ****     *  PRINTER_A_rxBufferWrite - cyclic index for write to rxBuffer,
 382:Generated_Source\PSoC5/PRINTER_A.c ****     *     checked to identify new data.
 383:Generated_Source\PSoC5/PRINTER_A.c ****     *  PRINTER_A_rxBufferRead - cyclic index for read from rxBuffer,
 384:Generated_Source\PSoC5/PRINTER_A.c ****     *     incremented after each byte has been read from buffer.
 385:Generated_Source\PSoC5/PRINTER_A.c ****     *  PRINTER_A_rxBufferLoopDetect - cleared if loop condition was detected
 386:Generated_Source\PSoC5/PRINTER_A.c ****     *     in RX ISR.
 387:Generated_Source\PSoC5/PRINTER_A.c ****     *
 388:Generated_Source\PSoC5/PRINTER_A.c ****     * Reentrant:
 389:Generated_Source\PSoC5/PRINTER_A.c ****     *  No.
 390:Generated_Source\PSoC5/PRINTER_A.c ****     *
 391:Generated_Source\PSoC5/PRINTER_A.c ****     *******************************************************************************/
 392:Generated_Source\PSoC5/PRINTER_A.c ****     uint8 PRINTER_A_ReadRxData(void) 
 393:Generated_Source\PSoC5/PRINTER_A.c ****     {
 394:Generated_Source\PSoC5/PRINTER_A.c ****         uint8 rxData;
 395:Generated_Source\PSoC5/PRINTER_A.c **** 
 396:Generated_Source\PSoC5/PRINTER_A.c ****     #if (PRINTER_A_RX_INTERRUPT_ENABLED)
 397:Generated_Source\PSoC5/PRINTER_A.c **** 
 398:Generated_Source\PSoC5/PRINTER_A.c ****         uint8 locRxBufferRead;
 399:Generated_Source\PSoC5/PRINTER_A.c ****         uint8 locRxBufferWrite;
 400:Generated_Source\PSoC5/PRINTER_A.c **** 
 401:Generated_Source\PSoC5/PRINTER_A.c ****         /* Protect variables that could change on interrupt */
 402:Generated_Source\PSoC5/PRINTER_A.c ****         PRINTER_A_DisableRxInt();
 403:Generated_Source\PSoC5/PRINTER_A.c **** 
 404:Generated_Source\PSoC5/PRINTER_A.c ****         locRxBufferRead  = PRINTER_A_rxBufferRead;
 405:Generated_Source\PSoC5/PRINTER_A.c ****         locRxBufferWrite = PRINTER_A_rxBufferWrite;
 406:Generated_Source\PSoC5/PRINTER_A.c **** 
 407:Generated_Source\PSoC5/PRINTER_A.c ****         if( (PRINTER_A_rxBufferLoopDetect != 0u) || (locRxBufferRead != locRxBufferWrite) )
 408:Generated_Source\PSoC5/PRINTER_A.c ****         {
 409:Generated_Source\PSoC5/PRINTER_A.c ****             rxData = PRINTER_A_rxBuffer[locRxBufferRead];
 410:Generated_Source\PSoC5/PRINTER_A.c ****             locRxBufferRead++;
 411:Generated_Source\PSoC5/PRINTER_A.c **** 
 412:Generated_Source\PSoC5/PRINTER_A.c ****             if(locRxBufferRead >= PRINTER_A_RX_BUFFER_SIZE)
 413:Generated_Source\PSoC5/PRINTER_A.c ****             {
 414:Generated_Source\PSoC5/PRINTER_A.c ****                 locRxBufferRead = 0u;
 415:Generated_Source\PSoC5/PRINTER_A.c ****             }
ARM GAS  C:\Users\Mery\AppData\Local\Temp\ccXmhN3c.s 			page 14


 416:Generated_Source\PSoC5/PRINTER_A.c ****             /* Update the real pointer */
 417:Generated_Source\PSoC5/PRINTER_A.c ****             PRINTER_A_rxBufferRead = locRxBufferRead;
 418:Generated_Source\PSoC5/PRINTER_A.c **** 
 419:Generated_Source\PSoC5/PRINTER_A.c ****             if(PRINTER_A_rxBufferLoopDetect != 0u)
 420:Generated_Source\PSoC5/PRINTER_A.c ****             {
 421:Generated_Source\PSoC5/PRINTER_A.c ****                 PRINTER_A_rxBufferLoopDetect = 0u;
 422:Generated_Source\PSoC5/PRINTER_A.c ****                 #if ((PRINTER_A_RX_INTERRUPT_ENABLED) && (PRINTER_A_FLOW_CONTROL != 0u))
 423:Generated_Source\PSoC5/PRINTER_A.c ****                     /* When Hardware Flow Control selected - return RX mask */
 424:Generated_Source\PSoC5/PRINTER_A.c ****                     #if( PRINTER_A_HD_ENABLED )
 425:Generated_Source\PSoC5/PRINTER_A.c ****                         if((PRINTER_A_CONTROL_REG & PRINTER_A_CTRL_HD_SEND) == 0u)
 426:Generated_Source\PSoC5/PRINTER_A.c ****                         {   /* In Half duplex mode return RX mask only in RX
 427:Generated_Source\PSoC5/PRINTER_A.c ****                             *  configuration set, otherwise
 428:Generated_Source\PSoC5/PRINTER_A.c ****                             *  mask will be returned in LoadRxConfig() API.
 429:Generated_Source\PSoC5/PRINTER_A.c ****                             */
 430:Generated_Source\PSoC5/PRINTER_A.c ****                             PRINTER_A_RXSTATUS_MASK_REG  |= PRINTER_A_RX_STS_FIFO_NOTEMPTY;
 431:Generated_Source\PSoC5/PRINTER_A.c ****                         }
 432:Generated_Source\PSoC5/PRINTER_A.c ****                     #else
 433:Generated_Source\PSoC5/PRINTER_A.c ****                         PRINTER_A_RXSTATUS_MASK_REG  |= PRINTER_A_RX_STS_FIFO_NOTEMPTY;
 434:Generated_Source\PSoC5/PRINTER_A.c ****                     #endif /* end PRINTER_A_HD_ENABLED */
 435:Generated_Source\PSoC5/PRINTER_A.c ****                 #endif /* ((PRINTER_A_RX_INTERRUPT_ENABLED) && (PRINTER_A_FLOW_CONTROL != 0u)) */
 436:Generated_Source\PSoC5/PRINTER_A.c ****             }
 437:Generated_Source\PSoC5/PRINTER_A.c ****         }
 438:Generated_Source\PSoC5/PRINTER_A.c ****         else
 439:Generated_Source\PSoC5/PRINTER_A.c ****         {   /* Needs to check status for RX_STS_FIFO_NOTEMPTY bit */
 440:Generated_Source\PSoC5/PRINTER_A.c ****             rxData = PRINTER_A_RXDATA_REG;
 441:Generated_Source\PSoC5/PRINTER_A.c ****         }
 442:Generated_Source\PSoC5/PRINTER_A.c **** 
 443:Generated_Source\PSoC5/PRINTER_A.c ****         PRINTER_A_EnableRxInt();
 444:Generated_Source\PSoC5/PRINTER_A.c **** 
 445:Generated_Source\PSoC5/PRINTER_A.c ****     #else
 446:Generated_Source\PSoC5/PRINTER_A.c **** 
 447:Generated_Source\PSoC5/PRINTER_A.c ****         /* Needs to check status for RX_STS_FIFO_NOTEMPTY bit */
 448:Generated_Source\PSoC5/PRINTER_A.c ****         rxData = PRINTER_A_RXDATA_REG;
 449:Generated_Source\PSoC5/PRINTER_A.c **** 
 450:Generated_Source\PSoC5/PRINTER_A.c ****     #endif /* (PRINTER_A_RX_INTERRUPT_ENABLED) */
 451:Generated_Source\PSoC5/PRINTER_A.c **** 
 452:Generated_Source\PSoC5/PRINTER_A.c ****         return(rxData);
 453:Generated_Source\PSoC5/PRINTER_A.c ****     }
 454:Generated_Source\PSoC5/PRINTER_A.c **** 
 455:Generated_Source\PSoC5/PRINTER_A.c **** 
 456:Generated_Source\PSoC5/PRINTER_A.c ****     /*******************************************************************************
 457:Generated_Source\PSoC5/PRINTER_A.c ****     * Function Name: PRINTER_A_ReadRxStatus
 458:Generated_Source\PSoC5/PRINTER_A.c ****     ********************************************************************************
 459:Generated_Source\PSoC5/PRINTER_A.c ****     *
 460:Generated_Source\PSoC5/PRINTER_A.c ****     * Summary:
 461:Generated_Source\PSoC5/PRINTER_A.c ****     *  Returns the current state of the receiver status register and the software
 462:Generated_Source\PSoC5/PRINTER_A.c ****     *  buffer overflow status.
 463:Generated_Source\PSoC5/PRINTER_A.c ****     *
 464:Generated_Source\PSoC5/PRINTER_A.c ****     * Parameters:
 465:Generated_Source\PSoC5/PRINTER_A.c ****     *  None.
 466:Generated_Source\PSoC5/PRINTER_A.c ****     *
 467:Generated_Source\PSoC5/PRINTER_A.c ****     * Return:
 468:Generated_Source\PSoC5/PRINTER_A.c ****     *  Current state of the status register.
 469:Generated_Source\PSoC5/PRINTER_A.c ****     *
 470:Generated_Source\PSoC5/PRINTER_A.c ****     * Side Effect:
 471:Generated_Source\PSoC5/PRINTER_A.c ****     *  All status register bits are clear-on-read except
 472:Generated_Source\PSoC5/PRINTER_A.c ****     *  PRINTER_A_RX_STS_FIFO_NOTEMPTY.
ARM GAS  C:\Users\Mery\AppData\Local\Temp\ccXmhN3c.s 			page 15


 473:Generated_Source\PSoC5/PRINTER_A.c ****     *  PRINTER_A_RX_STS_FIFO_NOTEMPTY clears immediately after RX data
 474:Generated_Source\PSoC5/PRINTER_A.c ****     *  register read.
 475:Generated_Source\PSoC5/PRINTER_A.c ****     *
 476:Generated_Source\PSoC5/PRINTER_A.c ****     * Global Variables:
 477:Generated_Source\PSoC5/PRINTER_A.c ****     *  PRINTER_A_rxBufferOverflow - used to indicate overload condition.
 478:Generated_Source\PSoC5/PRINTER_A.c ****     *   It set to one in RX interrupt when there isn't free space in
 479:Generated_Source\PSoC5/PRINTER_A.c ****     *   PRINTER_A_rxBufferRead to write new data. This condition returned
 480:Generated_Source\PSoC5/PRINTER_A.c ****     *   and cleared to zero by this API as an
 481:Generated_Source\PSoC5/PRINTER_A.c ****     *   PRINTER_A_RX_STS_SOFT_BUFF_OVER bit along with RX Status register
 482:Generated_Source\PSoC5/PRINTER_A.c ****     *   bits.
 483:Generated_Source\PSoC5/PRINTER_A.c ****     *
 484:Generated_Source\PSoC5/PRINTER_A.c ****     *******************************************************************************/
 485:Generated_Source\PSoC5/PRINTER_A.c ****     uint8 PRINTER_A_ReadRxStatus(void) 
 486:Generated_Source\PSoC5/PRINTER_A.c ****     {
 487:Generated_Source\PSoC5/PRINTER_A.c ****         uint8 status;
 488:Generated_Source\PSoC5/PRINTER_A.c **** 
 489:Generated_Source\PSoC5/PRINTER_A.c ****         status = PRINTER_A_RXSTATUS_REG & PRINTER_A_RX_HW_MASK;
 490:Generated_Source\PSoC5/PRINTER_A.c **** 
 491:Generated_Source\PSoC5/PRINTER_A.c ****     #if (PRINTER_A_RX_INTERRUPT_ENABLED)
 492:Generated_Source\PSoC5/PRINTER_A.c ****         if(PRINTER_A_rxBufferOverflow != 0u)
 493:Generated_Source\PSoC5/PRINTER_A.c ****         {
 494:Generated_Source\PSoC5/PRINTER_A.c ****             status |= PRINTER_A_RX_STS_SOFT_BUFF_OVER;
 495:Generated_Source\PSoC5/PRINTER_A.c ****             PRINTER_A_rxBufferOverflow = 0u;
 496:Generated_Source\PSoC5/PRINTER_A.c ****         }
 497:Generated_Source\PSoC5/PRINTER_A.c ****     #endif /* (PRINTER_A_RX_INTERRUPT_ENABLED) */
 498:Generated_Source\PSoC5/PRINTER_A.c **** 
 499:Generated_Source\PSoC5/PRINTER_A.c ****         return(status);
 500:Generated_Source\PSoC5/PRINTER_A.c ****     }
 501:Generated_Source\PSoC5/PRINTER_A.c **** 
 502:Generated_Source\PSoC5/PRINTER_A.c **** 
 503:Generated_Source\PSoC5/PRINTER_A.c ****     /*******************************************************************************
 504:Generated_Source\PSoC5/PRINTER_A.c ****     * Function Name: PRINTER_A_GetChar
 505:Generated_Source\PSoC5/PRINTER_A.c ****     ********************************************************************************
 506:Generated_Source\PSoC5/PRINTER_A.c ****     *
 507:Generated_Source\PSoC5/PRINTER_A.c ****     * Summary:
 508:Generated_Source\PSoC5/PRINTER_A.c ****     *  Returns the last received byte of data. PRINTER_A_GetChar() is
 509:Generated_Source\PSoC5/PRINTER_A.c ****     *  designed for ASCII characters and returns a uint8 where 1 to 255 are values
 510:Generated_Source\PSoC5/PRINTER_A.c ****     *  for valid characters and 0 indicates an error occurred or no data is present.
 511:Generated_Source\PSoC5/PRINTER_A.c ****     *
 512:Generated_Source\PSoC5/PRINTER_A.c ****     * Parameters:
 513:Generated_Source\PSoC5/PRINTER_A.c ****     *  None.
 514:Generated_Source\PSoC5/PRINTER_A.c ****     *
 515:Generated_Source\PSoC5/PRINTER_A.c ****     * Return:
 516:Generated_Source\PSoC5/PRINTER_A.c ****     *  Character read from UART RX buffer. ASCII characters from 1 to 255 are valid.
 517:Generated_Source\PSoC5/PRINTER_A.c ****     *  A returned zero signifies an error condition or no data available.
 518:Generated_Source\PSoC5/PRINTER_A.c ****     *
 519:Generated_Source\PSoC5/PRINTER_A.c ****     * Global Variables:
 520:Generated_Source\PSoC5/PRINTER_A.c ****     *  PRINTER_A_rxBuffer - RAM buffer pointer for save received data.
 521:Generated_Source\PSoC5/PRINTER_A.c ****     *  PRINTER_A_rxBufferWrite - cyclic index for write to rxBuffer,
 522:Generated_Source\PSoC5/PRINTER_A.c ****     *     checked to identify new data.
 523:Generated_Source\PSoC5/PRINTER_A.c ****     *  PRINTER_A_rxBufferRead - cyclic index for read from rxBuffer,
 524:Generated_Source\PSoC5/PRINTER_A.c ****     *     incremented after each byte has been read from buffer.
 525:Generated_Source\PSoC5/PRINTER_A.c ****     *  PRINTER_A_rxBufferLoopDetect - cleared if loop condition was detected
 526:Generated_Source\PSoC5/PRINTER_A.c ****     *     in RX ISR.
 527:Generated_Source\PSoC5/PRINTER_A.c ****     *
 528:Generated_Source\PSoC5/PRINTER_A.c ****     * Reentrant:
 529:Generated_Source\PSoC5/PRINTER_A.c ****     *  No.
ARM GAS  C:\Users\Mery\AppData\Local\Temp\ccXmhN3c.s 			page 16


 530:Generated_Source\PSoC5/PRINTER_A.c ****     *
 531:Generated_Source\PSoC5/PRINTER_A.c ****     *******************************************************************************/
 532:Generated_Source\PSoC5/PRINTER_A.c ****     uint8 PRINTER_A_GetChar(void) 
 533:Generated_Source\PSoC5/PRINTER_A.c ****     {
 534:Generated_Source\PSoC5/PRINTER_A.c ****         uint8 rxData = 0u;
 535:Generated_Source\PSoC5/PRINTER_A.c ****         uint8 rxStatus;
 536:Generated_Source\PSoC5/PRINTER_A.c **** 
 537:Generated_Source\PSoC5/PRINTER_A.c ****     #if (PRINTER_A_RX_INTERRUPT_ENABLED)
 538:Generated_Source\PSoC5/PRINTER_A.c ****         uint8 locRxBufferRead;
 539:Generated_Source\PSoC5/PRINTER_A.c ****         uint8 locRxBufferWrite;
 540:Generated_Source\PSoC5/PRINTER_A.c **** 
 541:Generated_Source\PSoC5/PRINTER_A.c ****         /* Protect variables that could change on interrupt */
 542:Generated_Source\PSoC5/PRINTER_A.c ****         PRINTER_A_DisableRxInt();
 543:Generated_Source\PSoC5/PRINTER_A.c **** 
 544:Generated_Source\PSoC5/PRINTER_A.c ****         locRxBufferRead  = PRINTER_A_rxBufferRead;
 545:Generated_Source\PSoC5/PRINTER_A.c ****         locRxBufferWrite = PRINTER_A_rxBufferWrite;
 546:Generated_Source\PSoC5/PRINTER_A.c **** 
 547:Generated_Source\PSoC5/PRINTER_A.c ****         if( (PRINTER_A_rxBufferLoopDetect != 0u) || (locRxBufferRead != locRxBufferWrite) )
 548:Generated_Source\PSoC5/PRINTER_A.c ****         {
 549:Generated_Source\PSoC5/PRINTER_A.c ****             rxData = PRINTER_A_rxBuffer[locRxBufferRead];
 550:Generated_Source\PSoC5/PRINTER_A.c ****             locRxBufferRead++;
 551:Generated_Source\PSoC5/PRINTER_A.c ****             if(locRxBufferRead >= PRINTER_A_RX_BUFFER_SIZE)
 552:Generated_Source\PSoC5/PRINTER_A.c ****             {
 553:Generated_Source\PSoC5/PRINTER_A.c ****                 locRxBufferRead = 0u;
 554:Generated_Source\PSoC5/PRINTER_A.c ****             }
 555:Generated_Source\PSoC5/PRINTER_A.c ****             /* Update the real pointer */
 556:Generated_Source\PSoC5/PRINTER_A.c ****             PRINTER_A_rxBufferRead = locRxBufferRead;
 557:Generated_Source\PSoC5/PRINTER_A.c **** 
 558:Generated_Source\PSoC5/PRINTER_A.c ****             if(PRINTER_A_rxBufferLoopDetect != 0u)
 559:Generated_Source\PSoC5/PRINTER_A.c ****             {
 560:Generated_Source\PSoC5/PRINTER_A.c ****                 PRINTER_A_rxBufferLoopDetect = 0u;
 561:Generated_Source\PSoC5/PRINTER_A.c ****                 #if( (PRINTER_A_RX_INTERRUPT_ENABLED) && (PRINTER_A_FLOW_CONTROL != 0u) )
 562:Generated_Source\PSoC5/PRINTER_A.c ****                     /* When Hardware Flow Control selected - return RX mask */
 563:Generated_Source\PSoC5/PRINTER_A.c ****                     #if( PRINTER_A_HD_ENABLED )
 564:Generated_Source\PSoC5/PRINTER_A.c ****                         if((PRINTER_A_CONTROL_REG & PRINTER_A_CTRL_HD_SEND) == 0u)
 565:Generated_Source\PSoC5/PRINTER_A.c ****                         {   /* In Half duplex mode return RX mask only if
 566:Generated_Source\PSoC5/PRINTER_A.c ****                             *  RX configuration set, otherwise
 567:Generated_Source\PSoC5/PRINTER_A.c ****                             *  mask will be returned in LoadRxConfig() API.
 568:Generated_Source\PSoC5/PRINTER_A.c ****                             */
 569:Generated_Source\PSoC5/PRINTER_A.c ****                             PRINTER_A_RXSTATUS_MASK_REG |= PRINTER_A_RX_STS_FIFO_NOTEMPTY;
 570:Generated_Source\PSoC5/PRINTER_A.c ****                         }
 571:Generated_Source\PSoC5/PRINTER_A.c ****                     #else
 572:Generated_Source\PSoC5/PRINTER_A.c ****                         PRINTER_A_RXSTATUS_MASK_REG |= PRINTER_A_RX_STS_FIFO_NOTEMPTY;
 573:Generated_Source\PSoC5/PRINTER_A.c ****                     #endif /* end PRINTER_A_HD_ENABLED */
 574:Generated_Source\PSoC5/PRINTER_A.c ****                 #endif /* PRINTER_A_RX_INTERRUPT_ENABLED and Hardware flow control*/
 575:Generated_Source\PSoC5/PRINTER_A.c ****             }
 576:Generated_Source\PSoC5/PRINTER_A.c **** 
 577:Generated_Source\PSoC5/PRINTER_A.c ****         }
 578:Generated_Source\PSoC5/PRINTER_A.c ****         else
 579:Generated_Source\PSoC5/PRINTER_A.c ****         {   rxStatus = PRINTER_A_RXSTATUS_REG;
 580:Generated_Source\PSoC5/PRINTER_A.c ****             if((rxStatus & PRINTER_A_RX_STS_FIFO_NOTEMPTY) != 0u)
 581:Generated_Source\PSoC5/PRINTER_A.c ****             {   /* Read received data from FIFO */
 582:Generated_Source\PSoC5/PRINTER_A.c ****                 rxData = PRINTER_A_RXDATA_REG;
 583:Generated_Source\PSoC5/PRINTER_A.c ****                 /*Check status on error*/
 584:Generated_Source\PSoC5/PRINTER_A.c ****                 if((rxStatus & (PRINTER_A_RX_STS_BREAK | PRINTER_A_RX_STS_PAR_ERROR |
 585:Generated_Source\PSoC5/PRINTER_A.c ****                                 PRINTER_A_RX_STS_STOP_ERROR | PRINTER_A_RX_STS_OVERRUN)) != 0u)
 586:Generated_Source\PSoC5/PRINTER_A.c ****                 {
ARM GAS  C:\Users\Mery\AppData\Local\Temp\ccXmhN3c.s 			page 17


 587:Generated_Source\PSoC5/PRINTER_A.c ****                     rxData = 0u;
 588:Generated_Source\PSoC5/PRINTER_A.c ****                 }
 589:Generated_Source\PSoC5/PRINTER_A.c ****             }
 590:Generated_Source\PSoC5/PRINTER_A.c ****         }
 591:Generated_Source\PSoC5/PRINTER_A.c **** 
 592:Generated_Source\PSoC5/PRINTER_A.c ****         PRINTER_A_EnableRxInt();
 593:Generated_Source\PSoC5/PRINTER_A.c **** 
 594:Generated_Source\PSoC5/PRINTER_A.c ****     #else
 595:Generated_Source\PSoC5/PRINTER_A.c **** 
 596:Generated_Source\PSoC5/PRINTER_A.c ****         rxStatus =PRINTER_A_RXSTATUS_REG;
 597:Generated_Source\PSoC5/PRINTER_A.c ****         if((rxStatus & PRINTER_A_RX_STS_FIFO_NOTEMPTY) != 0u)
 598:Generated_Source\PSoC5/PRINTER_A.c ****         {
 599:Generated_Source\PSoC5/PRINTER_A.c ****             /* Read received data from FIFO */
 600:Generated_Source\PSoC5/PRINTER_A.c ****             rxData = PRINTER_A_RXDATA_REG;
 601:Generated_Source\PSoC5/PRINTER_A.c **** 
 602:Generated_Source\PSoC5/PRINTER_A.c ****             /*Check status on error*/
 603:Generated_Source\PSoC5/PRINTER_A.c ****             if((rxStatus & (PRINTER_A_RX_STS_BREAK | PRINTER_A_RX_STS_PAR_ERROR |
 604:Generated_Source\PSoC5/PRINTER_A.c ****                             PRINTER_A_RX_STS_STOP_ERROR | PRINTER_A_RX_STS_OVERRUN)) != 0u)
 605:Generated_Source\PSoC5/PRINTER_A.c ****             {
 606:Generated_Source\PSoC5/PRINTER_A.c ****                 rxData = 0u;
 607:Generated_Source\PSoC5/PRINTER_A.c ****             }
 608:Generated_Source\PSoC5/PRINTER_A.c ****         }
 609:Generated_Source\PSoC5/PRINTER_A.c ****     #endif /* (PRINTER_A_RX_INTERRUPT_ENABLED) */
 610:Generated_Source\PSoC5/PRINTER_A.c **** 
 611:Generated_Source\PSoC5/PRINTER_A.c ****         return(rxData);
 612:Generated_Source\PSoC5/PRINTER_A.c ****     }
 613:Generated_Source\PSoC5/PRINTER_A.c **** 
 614:Generated_Source\PSoC5/PRINTER_A.c **** 
 615:Generated_Source\PSoC5/PRINTER_A.c ****     /*******************************************************************************
 616:Generated_Source\PSoC5/PRINTER_A.c ****     * Function Name: PRINTER_A_GetByte
 617:Generated_Source\PSoC5/PRINTER_A.c ****     ********************************************************************************
 618:Generated_Source\PSoC5/PRINTER_A.c ****     *
 619:Generated_Source\PSoC5/PRINTER_A.c ****     * Summary:
 620:Generated_Source\PSoC5/PRINTER_A.c ****     *  Reads UART RX buffer immediately, returns received character and error
 621:Generated_Source\PSoC5/PRINTER_A.c ****     *  condition.
 622:Generated_Source\PSoC5/PRINTER_A.c ****     *
 623:Generated_Source\PSoC5/PRINTER_A.c ****     * Parameters:
 624:Generated_Source\PSoC5/PRINTER_A.c ****     *  None.
 625:Generated_Source\PSoC5/PRINTER_A.c ****     *
 626:Generated_Source\PSoC5/PRINTER_A.c ****     * Return:
 627:Generated_Source\PSoC5/PRINTER_A.c ****     *  MSB contains status and LSB contains UART RX data. If the MSB is nonzero,
 628:Generated_Source\PSoC5/PRINTER_A.c ****     *  an error has occurred.
 629:Generated_Source\PSoC5/PRINTER_A.c ****     *
 630:Generated_Source\PSoC5/PRINTER_A.c ****     * Reentrant:
 631:Generated_Source\PSoC5/PRINTER_A.c ****     *  No.
 632:Generated_Source\PSoC5/PRINTER_A.c ****     *
 633:Generated_Source\PSoC5/PRINTER_A.c ****     *******************************************************************************/
 634:Generated_Source\PSoC5/PRINTER_A.c ****     uint16 PRINTER_A_GetByte(void) 
 635:Generated_Source\PSoC5/PRINTER_A.c ****     {
 636:Generated_Source\PSoC5/PRINTER_A.c ****         
 637:Generated_Source\PSoC5/PRINTER_A.c ****     #if (PRINTER_A_RX_INTERRUPT_ENABLED)
 638:Generated_Source\PSoC5/PRINTER_A.c ****         uint16 locErrorStatus;
 639:Generated_Source\PSoC5/PRINTER_A.c ****         /* Protect variables that could change on interrupt */
 640:Generated_Source\PSoC5/PRINTER_A.c ****         PRINTER_A_DisableRxInt();
 641:Generated_Source\PSoC5/PRINTER_A.c ****         locErrorStatus = (uint16)PRINTER_A_errorStatus;
 642:Generated_Source\PSoC5/PRINTER_A.c ****         PRINTER_A_errorStatus = 0u;
 643:Generated_Source\PSoC5/PRINTER_A.c ****         PRINTER_A_EnableRxInt();
ARM GAS  C:\Users\Mery\AppData\Local\Temp\ccXmhN3c.s 			page 18


 644:Generated_Source\PSoC5/PRINTER_A.c ****         return ( (uint16)(locErrorStatus << 8u) | PRINTER_A_ReadRxData() );
 645:Generated_Source\PSoC5/PRINTER_A.c ****     #else
 646:Generated_Source\PSoC5/PRINTER_A.c ****         return ( ((uint16)PRINTER_A_ReadRxStatus() << 8u) | PRINTER_A_ReadRxData() );
 647:Generated_Source\PSoC5/PRINTER_A.c ****     #endif /* PRINTER_A_RX_INTERRUPT_ENABLED */
 648:Generated_Source\PSoC5/PRINTER_A.c ****         
 649:Generated_Source\PSoC5/PRINTER_A.c ****     }
 650:Generated_Source\PSoC5/PRINTER_A.c **** 
 651:Generated_Source\PSoC5/PRINTER_A.c **** 
 652:Generated_Source\PSoC5/PRINTER_A.c ****     /*******************************************************************************
 653:Generated_Source\PSoC5/PRINTER_A.c ****     * Function Name: PRINTER_A_GetRxBufferSize
 654:Generated_Source\PSoC5/PRINTER_A.c ****     ********************************************************************************
 655:Generated_Source\PSoC5/PRINTER_A.c ****     *
 656:Generated_Source\PSoC5/PRINTER_A.c ****     * Summary:
 657:Generated_Source\PSoC5/PRINTER_A.c ****     *  Returns the number of received bytes available in the RX buffer.
 658:Generated_Source\PSoC5/PRINTER_A.c ****     *  * RX software buffer is disabled (RX Buffer Size parameter is equal to 4): 
 659:Generated_Source\PSoC5/PRINTER_A.c ****     *    returns 0 for empty RX FIFO or 1 for not empty RX FIFO.
 660:Generated_Source\PSoC5/PRINTER_A.c ****     *  * RX software buffer is enabled: returns the number of bytes available in 
 661:Generated_Source\PSoC5/PRINTER_A.c ****     *    the RX software buffer. Bytes available in the RX FIFO do not take to 
 662:Generated_Source\PSoC5/PRINTER_A.c ****     *    account.
 663:Generated_Source\PSoC5/PRINTER_A.c ****     *
 664:Generated_Source\PSoC5/PRINTER_A.c ****     * Parameters:
 665:Generated_Source\PSoC5/PRINTER_A.c ****     *  None.
 666:Generated_Source\PSoC5/PRINTER_A.c ****     *
 667:Generated_Source\PSoC5/PRINTER_A.c ****     * Return:
 668:Generated_Source\PSoC5/PRINTER_A.c ****     *  uint8: Number of bytes in the RX buffer. 
 669:Generated_Source\PSoC5/PRINTER_A.c ****     *    Return value type depends on RX Buffer Size parameter.
 670:Generated_Source\PSoC5/PRINTER_A.c ****     *
 671:Generated_Source\PSoC5/PRINTER_A.c ****     * Global Variables:
 672:Generated_Source\PSoC5/PRINTER_A.c ****     *  PRINTER_A_rxBufferWrite - used to calculate left bytes.
 673:Generated_Source\PSoC5/PRINTER_A.c ****     *  PRINTER_A_rxBufferRead - used to calculate left bytes.
 674:Generated_Source\PSoC5/PRINTER_A.c ****     *  PRINTER_A_rxBufferLoopDetect - checked to decide left bytes amount.
 675:Generated_Source\PSoC5/PRINTER_A.c ****     *
 676:Generated_Source\PSoC5/PRINTER_A.c ****     * Reentrant:
 677:Generated_Source\PSoC5/PRINTER_A.c ****     *  No.
 678:Generated_Source\PSoC5/PRINTER_A.c ****     *
 679:Generated_Source\PSoC5/PRINTER_A.c ****     * Theory:
 680:Generated_Source\PSoC5/PRINTER_A.c ****     *  Allows the user to find out how full the RX Buffer is.
 681:Generated_Source\PSoC5/PRINTER_A.c ****     *
 682:Generated_Source\PSoC5/PRINTER_A.c ****     *******************************************************************************/
 683:Generated_Source\PSoC5/PRINTER_A.c ****     uint8 PRINTER_A_GetRxBufferSize(void)
 684:Generated_Source\PSoC5/PRINTER_A.c ****                                                             
 685:Generated_Source\PSoC5/PRINTER_A.c ****     {
 686:Generated_Source\PSoC5/PRINTER_A.c ****         uint8 size;
 687:Generated_Source\PSoC5/PRINTER_A.c **** 
 688:Generated_Source\PSoC5/PRINTER_A.c ****     #if (PRINTER_A_RX_INTERRUPT_ENABLED)
 689:Generated_Source\PSoC5/PRINTER_A.c **** 
 690:Generated_Source\PSoC5/PRINTER_A.c ****         /* Protect variables that could change on interrupt */
 691:Generated_Source\PSoC5/PRINTER_A.c ****         PRINTER_A_DisableRxInt();
 692:Generated_Source\PSoC5/PRINTER_A.c **** 
 693:Generated_Source\PSoC5/PRINTER_A.c ****         if(PRINTER_A_rxBufferRead == PRINTER_A_rxBufferWrite)
 694:Generated_Source\PSoC5/PRINTER_A.c ****         {
 695:Generated_Source\PSoC5/PRINTER_A.c ****             if(PRINTER_A_rxBufferLoopDetect != 0u)
 696:Generated_Source\PSoC5/PRINTER_A.c ****             {
 697:Generated_Source\PSoC5/PRINTER_A.c ****                 size = PRINTER_A_RX_BUFFER_SIZE;
 698:Generated_Source\PSoC5/PRINTER_A.c ****             }
 699:Generated_Source\PSoC5/PRINTER_A.c ****             else
 700:Generated_Source\PSoC5/PRINTER_A.c ****             {
ARM GAS  C:\Users\Mery\AppData\Local\Temp\ccXmhN3c.s 			page 19


 701:Generated_Source\PSoC5/PRINTER_A.c ****                 size = 0u;
 702:Generated_Source\PSoC5/PRINTER_A.c ****             }
 703:Generated_Source\PSoC5/PRINTER_A.c ****         }
 704:Generated_Source\PSoC5/PRINTER_A.c ****         else if(PRINTER_A_rxBufferRead < PRINTER_A_rxBufferWrite)
 705:Generated_Source\PSoC5/PRINTER_A.c ****         {
 706:Generated_Source\PSoC5/PRINTER_A.c ****             size = (PRINTER_A_rxBufferWrite - PRINTER_A_rxBufferRead);
 707:Generated_Source\PSoC5/PRINTER_A.c ****         }
 708:Generated_Source\PSoC5/PRINTER_A.c ****         else
 709:Generated_Source\PSoC5/PRINTER_A.c ****         {
 710:Generated_Source\PSoC5/PRINTER_A.c ****             size = (PRINTER_A_RX_BUFFER_SIZE - PRINTER_A_rxBufferRead) + PRINTER_A_rxBufferWrite;
 711:Generated_Source\PSoC5/PRINTER_A.c ****         }
 712:Generated_Source\PSoC5/PRINTER_A.c **** 
 713:Generated_Source\PSoC5/PRINTER_A.c ****         PRINTER_A_EnableRxInt();
 714:Generated_Source\PSoC5/PRINTER_A.c **** 
 715:Generated_Source\PSoC5/PRINTER_A.c ****     #else
 716:Generated_Source\PSoC5/PRINTER_A.c **** 
 717:Generated_Source\PSoC5/PRINTER_A.c ****         /* We can only know if there is data in the fifo. */
 718:Generated_Source\PSoC5/PRINTER_A.c ****         size = ((PRINTER_A_RXSTATUS_REG & PRINTER_A_RX_STS_FIFO_NOTEMPTY) != 0u) ? 1u : 0u;
 719:Generated_Source\PSoC5/PRINTER_A.c **** 
 720:Generated_Source\PSoC5/PRINTER_A.c ****     #endif /* (PRINTER_A_RX_INTERRUPT_ENABLED) */
 721:Generated_Source\PSoC5/PRINTER_A.c **** 
 722:Generated_Source\PSoC5/PRINTER_A.c ****         return(size);
 723:Generated_Source\PSoC5/PRINTER_A.c ****     }
 724:Generated_Source\PSoC5/PRINTER_A.c **** 
 725:Generated_Source\PSoC5/PRINTER_A.c **** 
 726:Generated_Source\PSoC5/PRINTER_A.c ****     /*******************************************************************************
 727:Generated_Source\PSoC5/PRINTER_A.c ****     * Function Name: PRINTER_A_ClearRxBuffer
 728:Generated_Source\PSoC5/PRINTER_A.c ****     ********************************************************************************
 729:Generated_Source\PSoC5/PRINTER_A.c ****     *
 730:Generated_Source\PSoC5/PRINTER_A.c ****     * Summary:
 731:Generated_Source\PSoC5/PRINTER_A.c ****     *  Clears the receiver memory buffer and hardware RX FIFO of all received data.
 732:Generated_Source\PSoC5/PRINTER_A.c ****     *
 733:Generated_Source\PSoC5/PRINTER_A.c ****     * Parameters:
 734:Generated_Source\PSoC5/PRINTER_A.c ****     *  None.
 735:Generated_Source\PSoC5/PRINTER_A.c ****     *
 736:Generated_Source\PSoC5/PRINTER_A.c ****     * Return:
 737:Generated_Source\PSoC5/PRINTER_A.c ****     *  None.
 738:Generated_Source\PSoC5/PRINTER_A.c ****     *
 739:Generated_Source\PSoC5/PRINTER_A.c ****     * Global Variables:
 740:Generated_Source\PSoC5/PRINTER_A.c ****     *  PRINTER_A_rxBufferWrite - cleared to zero.
 741:Generated_Source\PSoC5/PRINTER_A.c ****     *  PRINTER_A_rxBufferRead - cleared to zero.
 742:Generated_Source\PSoC5/PRINTER_A.c ****     *  PRINTER_A_rxBufferLoopDetect - cleared to zero.
 743:Generated_Source\PSoC5/PRINTER_A.c ****     *  PRINTER_A_rxBufferOverflow - cleared to zero.
 744:Generated_Source\PSoC5/PRINTER_A.c ****     *
 745:Generated_Source\PSoC5/PRINTER_A.c ****     * Reentrant:
 746:Generated_Source\PSoC5/PRINTER_A.c ****     *  No.
 747:Generated_Source\PSoC5/PRINTER_A.c ****     *
 748:Generated_Source\PSoC5/PRINTER_A.c ****     * Theory:
 749:Generated_Source\PSoC5/PRINTER_A.c ****     *  Setting the pointers to zero makes the system believe there is no data to
 750:Generated_Source\PSoC5/PRINTER_A.c ****     *  read and writing will resume at address 0 overwriting any data that may
 751:Generated_Source\PSoC5/PRINTER_A.c ****     *  have remained in the RAM.
 752:Generated_Source\PSoC5/PRINTER_A.c ****     *
 753:Generated_Source\PSoC5/PRINTER_A.c ****     * Side Effects:
 754:Generated_Source\PSoC5/PRINTER_A.c ****     *  Any received data not read from the RAM or FIFO buffer will be lost.
 755:Generated_Source\PSoC5/PRINTER_A.c ****     *
 756:Generated_Source\PSoC5/PRINTER_A.c ****     *******************************************************************************/
 757:Generated_Source\PSoC5/PRINTER_A.c ****     void PRINTER_A_ClearRxBuffer(void) 
ARM GAS  C:\Users\Mery\AppData\Local\Temp\ccXmhN3c.s 			page 20


 758:Generated_Source\PSoC5/PRINTER_A.c ****     {
 759:Generated_Source\PSoC5/PRINTER_A.c ****         uint8 enableInterrupts;
 760:Generated_Source\PSoC5/PRINTER_A.c **** 
 761:Generated_Source\PSoC5/PRINTER_A.c ****         /* Clear the HW FIFO */
 762:Generated_Source\PSoC5/PRINTER_A.c ****         enableInterrupts = CyEnterCriticalSection();
 763:Generated_Source\PSoC5/PRINTER_A.c ****         PRINTER_A_RXDATA_AUX_CTL_REG |= (uint8)  PRINTER_A_RX_FIFO_CLR;
 764:Generated_Source\PSoC5/PRINTER_A.c ****         PRINTER_A_RXDATA_AUX_CTL_REG &= (uint8) ~PRINTER_A_RX_FIFO_CLR;
 765:Generated_Source\PSoC5/PRINTER_A.c ****         CyExitCriticalSection(enableInterrupts);
 766:Generated_Source\PSoC5/PRINTER_A.c **** 
 767:Generated_Source\PSoC5/PRINTER_A.c ****     #if (PRINTER_A_RX_INTERRUPT_ENABLED)
 768:Generated_Source\PSoC5/PRINTER_A.c **** 
 769:Generated_Source\PSoC5/PRINTER_A.c ****         /* Protect variables that could change on interrupt. */
 770:Generated_Source\PSoC5/PRINTER_A.c ****         PRINTER_A_DisableRxInt();
 771:Generated_Source\PSoC5/PRINTER_A.c **** 
 772:Generated_Source\PSoC5/PRINTER_A.c ****         PRINTER_A_rxBufferRead = 0u;
 773:Generated_Source\PSoC5/PRINTER_A.c ****         PRINTER_A_rxBufferWrite = 0u;
 774:Generated_Source\PSoC5/PRINTER_A.c ****         PRINTER_A_rxBufferLoopDetect = 0u;
 775:Generated_Source\PSoC5/PRINTER_A.c ****         PRINTER_A_rxBufferOverflow = 0u;
 776:Generated_Source\PSoC5/PRINTER_A.c **** 
 777:Generated_Source\PSoC5/PRINTER_A.c ****         PRINTER_A_EnableRxInt();
 778:Generated_Source\PSoC5/PRINTER_A.c **** 
 779:Generated_Source\PSoC5/PRINTER_A.c ****     #endif /* (PRINTER_A_RX_INTERRUPT_ENABLED) */
 780:Generated_Source\PSoC5/PRINTER_A.c **** 
 781:Generated_Source\PSoC5/PRINTER_A.c ****     }
 782:Generated_Source\PSoC5/PRINTER_A.c **** 
 783:Generated_Source\PSoC5/PRINTER_A.c **** 
 784:Generated_Source\PSoC5/PRINTER_A.c ****     /*******************************************************************************
 785:Generated_Source\PSoC5/PRINTER_A.c ****     * Function Name: PRINTER_A_SetRxAddressMode
 786:Generated_Source\PSoC5/PRINTER_A.c ****     ********************************************************************************
 787:Generated_Source\PSoC5/PRINTER_A.c ****     *
 788:Generated_Source\PSoC5/PRINTER_A.c ****     * Summary:
 789:Generated_Source\PSoC5/PRINTER_A.c ****     *  Sets the software controlled Addressing mode used by the RX portion of the
 790:Generated_Source\PSoC5/PRINTER_A.c ****     *  UART.
 791:Generated_Source\PSoC5/PRINTER_A.c ****     *
 792:Generated_Source\PSoC5/PRINTER_A.c ****     * Parameters:
 793:Generated_Source\PSoC5/PRINTER_A.c ****     *  addressMode: Enumerated value indicating the mode of RX addressing
 794:Generated_Source\PSoC5/PRINTER_A.c ****     *  PRINTER_A__B_UART__AM_SW_BYTE_BYTE -  Software Byte-by-Byte address
 795:Generated_Source\PSoC5/PRINTER_A.c ****     *                                               detection
 796:Generated_Source\PSoC5/PRINTER_A.c ****     *  PRINTER_A__B_UART__AM_SW_DETECT_TO_BUFFER - Software Detect to Buffer
 797:Generated_Source\PSoC5/PRINTER_A.c ****     *                                               address detection
 798:Generated_Source\PSoC5/PRINTER_A.c ****     *  PRINTER_A__B_UART__AM_HW_BYTE_BY_BYTE - Hardware Byte-by-Byte address
 799:Generated_Source\PSoC5/PRINTER_A.c ****     *                                               detection
 800:Generated_Source\PSoC5/PRINTER_A.c ****     *  PRINTER_A__B_UART__AM_HW_DETECT_TO_BUFFER - Hardware Detect to Buffer
 801:Generated_Source\PSoC5/PRINTER_A.c ****     *                                               address detection
 802:Generated_Source\PSoC5/PRINTER_A.c ****     *  PRINTER_A__B_UART__AM_NONE - No address detection
 803:Generated_Source\PSoC5/PRINTER_A.c ****     *
 804:Generated_Source\PSoC5/PRINTER_A.c ****     * Return:
 805:Generated_Source\PSoC5/PRINTER_A.c ****     *  None.
 806:Generated_Source\PSoC5/PRINTER_A.c ****     *
 807:Generated_Source\PSoC5/PRINTER_A.c ****     * Global Variables:
 808:Generated_Source\PSoC5/PRINTER_A.c ****     *  PRINTER_A_rxAddressMode - the parameter stored in this variable for
 809:Generated_Source\PSoC5/PRINTER_A.c ****     *   the farther usage in RX ISR.
 810:Generated_Source\PSoC5/PRINTER_A.c ****     *  PRINTER_A_rxAddressDetected - set to initial state (0).
 811:Generated_Source\PSoC5/PRINTER_A.c ****     *
 812:Generated_Source\PSoC5/PRINTER_A.c ****     *******************************************************************************/
 813:Generated_Source\PSoC5/PRINTER_A.c ****     void PRINTER_A_SetRxAddressMode(uint8 addressMode)
 814:Generated_Source\PSoC5/PRINTER_A.c ****                                                         
ARM GAS  C:\Users\Mery\AppData\Local\Temp\ccXmhN3c.s 			page 21


 815:Generated_Source\PSoC5/PRINTER_A.c ****     {
 816:Generated_Source\PSoC5/PRINTER_A.c ****         #if(PRINTER_A_RXHW_ADDRESS_ENABLED)
 817:Generated_Source\PSoC5/PRINTER_A.c ****             #if(PRINTER_A_CONTROL_REG_REMOVED)
 818:Generated_Source\PSoC5/PRINTER_A.c ****                 if(0u != addressMode)
 819:Generated_Source\PSoC5/PRINTER_A.c ****                 {
 820:Generated_Source\PSoC5/PRINTER_A.c ****                     /* Suppress compiler warning */
 821:Generated_Source\PSoC5/PRINTER_A.c ****                 }
 822:Generated_Source\PSoC5/PRINTER_A.c ****             #else /* PRINTER_A_CONTROL_REG_REMOVED */
 823:Generated_Source\PSoC5/PRINTER_A.c ****                 uint8 tmpCtrl;
 824:Generated_Source\PSoC5/PRINTER_A.c ****                 tmpCtrl = PRINTER_A_CONTROL_REG & (uint8)~PRINTER_A_CTRL_RXADDR_MODE_MASK;
 825:Generated_Source\PSoC5/PRINTER_A.c ****                 tmpCtrl |= (uint8)(addressMode << PRINTER_A_CTRL_RXADDR_MODE0_SHIFT);
 826:Generated_Source\PSoC5/PRINTER_A.c ****                 PRINTER_A_CONTROL_REG = tmpCtrl;
 827:Generated_Source\PSoC5/PRINTER_A.c **** 
 828:Generated_Source\PSoC5/PRINTER_A.c ****                 #if(PRINTER_A_RX_INTERRUPT_ENABLED && \
 829:Generated_Source\PSoC5/PRINTER_A.c ****                    (PRINTER_A_RXBUFFERSIZE > PRINTER_A_FIFO_LENGTH) )
 830:Generated_Source\PSoC5/PRINTER_A.c ****                     PRINTER_A_rxAddressMode = addressMode;
 831:Generated_Source\PSoC5/PRINTER_A.c ****                     PRINTER_A_rxAddressDetected = 0u;
 832:Generated_Source\PSoC5/PRINTER_A.c ****                 #endif /* End PRINTER_A_RXBUFFERSIZE > PRINTER_A_FIFO_LENGTH*/
 833:Generated_Source\PSoC5/PRINTER_A.c ****             #endif /* End PRINTER_A_CONTROL_REG_REMOVED */
 834:Generated_Source\PSoC5/PRINTER_A.c ****         #else /* PRINTER_A_RXHW_ADDRESS_ENABLED */
 835:Generated_Source\PSoC5/PRINTER_A.c ****             if(0u != addressMode)
 836:Generated_Source\PSoC5/PRINTER_A.c ****             {
 837:Generated_Source\PSoC5/PRINTER_A.c ****                 /* Suppress compiler warning */
 838:Generated_Source\PSoC5/PRINTER_A.c ****             }
 839:Generated_Source\PSoC5/PRINTER_A.c ****         #endif /* End PRINTER_A_RXHW_ADDRESS_ENABLED */
 840:Generated_Source\PSoC5/PRINTER_A.c ****     }
 841:Generated_Source\PSoC5/PRINTER_A.c **** 
 842:Generated_Source\PSoC5/PRINTER_A.c **** 
 843:Generated_Source\PSoC5/PRINTER_A.c ****     /*******************************************************************************
 844:Generated_Source\PSoC5/PRINTER_A.c ****     * Function Name: PRINTER_A_SetRxAddress1
 845:Generated_Source\PSoC5/PRINTER_A.c ****     ********************************************************************************
 846:Generated_Source\PSoC5/PRINTER_A.c ****     *
 847:Generated_Source\PSoC5/PRINTER_A.c ****     * Summary:
 848:Generated_Source\PSoC5/PRINTER_A.c ****     *  Sets the first of two hardware-detectable receiver addresses.
 849:Generated_Source\PSoC5/PRINTER_A.c ****     *
 850:Generated_Source\PSoC5/PRINTER_A.c ****     * Parameters:
 851:Generated_Source\PSoC5/PRINTER_A.c ****     *  address: Address #1 for hardware address detection.
 852:Generated_Source\PSoC5/PRINTER_A.c ****     *
 853:Generated_Source\PSoC5/PRINTER_A.c ****     * Return:
 854:Generated_Source\PSoC5/PRINTER_A.c ****     *  None.
 855:Generated_Source\PSoC5/PRINTER_A.c ****     *
 856:Generated_Source\PSoC5/PRINTER_A.c ****     *******************************************************************************/
 857:Generated_Source\PSoC5/PRINTER_A.c ****     void PRINTER_A_SetRxAddress1(uint8 address) 
 858:Generated_Source\PSoC5/PRINTER_A.c ****     {
 859:Generated_Source\PSoC5/PRINTER_A.c ****         PRINTER_A_RXADDRESS1_REG = address;
 860:Generated_Source\PSoC5/PRINTER_A.c ****     }
 861:Generated_Source\PSoC5/PRINTER_A.c **** 
 862:Generated_Source\PSoC5/PRINTER_A.c **** 
 863:Generated_Source\PSoC5/PRINTER_A.c ****     /*******************************************************************************
 864:Generated_Source\PSoC5/PRINTER_A.c ****     * Function Name: PRINTER_A_SetRxAddress2
 865:Generated_Source\PSoC5/PRINTER_A.c ****     ********************************************************************************
 866:Generated_Source\PSoC5/PRINTER_A.c ****     *
 867:Generated_Source\PSoC5/PRINTER_A.c ****     * Summary:
 868:Generated_Source\PSoC5/PRINTER_A.c ****     *  Sets the second of two hardware-detectable receiver addresses.
 869:Generated_Source\PSoC5/PRINTER_A.c ****     *
 870:Generated_Source\PSoC5/PRINTER_A.c ****     * Parameters:
 871:Generated_Source\PSoC5/PRINTER_A.c ****     *  address: Address #2 for hardware address detection.
ARM GAS  C:\Users\Mery\AppData\Local\Temp\ccXmhN3c.s 			page 22


 872:Generated_Source\PSoC5/PRINTER_A.c ****     *
 873:Generated_Source\PSoC5/PRINTER_A.c ****     * Return:
 874:Generated_Source\PSoC5/PRINTER_A.c ****     *  None.
 875:Generated_Source\PSoC5/PRINTER_A.c ****     *
 876:Generated_Source\PSoC5/PRINTER_A.c ****     *******************************************************************************/
 877:Generated_Source\PSoC5/PRINTER_A.c ****     void PRINTER_A_SetRxAddress2(uint8 address) 
 878:Generated_Source\PSoC5/PRINTER_A.c ****     {
 879:Generated_Source\PSoC5/PRINTER_A.c ****         PRINTER_A_RXADDRESS2_REG = address;
 880:Generated_Source\PSoC5/PRINTER_A.c ****     }
 881:Generated_Source\PSoC5/PRINTER_A.c **** 
 882:Generated_Source\PSoC5/PRINTER_A.c **** #endif  /* PRINTER_A_RX_ENABLED || PRINTER_A_HD_ENABLED*/
 883:Generated_Source\PSoC5/PRINTER_A.c **** 
 884:Generated_Source\PSoC5/PRINTER_A.c **** 
 885:Generated_Source\PSoC5/PRINTER_A.c **** #if( (PRINTER_A_TX_ENABLED) || (PRINTER_A_HD_ENABLED) )
 886:Generated_Source\PSoC5/PRINTER_A.c ****     /*******************************************************************************
 887:Generated_Source\PSoC5/PRINTER_A.c ****     * Function Name: PRINTER_A_SetTxInterruptMode
 888:Generated_Source\PSoC5/PRINTER_A.c ****     ********************************************************************************
 889:Generated_Source\PSoC5/PRINTER_A.c ****     *
 890:Generated_Source\PSoC5/PRINTER_A.c ****     * Summary:
 891:Generated_Source\PSoC5/PRINTER_A.c ****     *  Configures the TX interrupt sources to be enabled, but does not enable the
 892:Generated_Source\PSoC5/PRINTER_A.c ****     *  interrupt.
 893:Generated_Source\PSoC5/PRINTER_A.c ****     *
 894:Generated_Source\PSoC5/PRINTER_A.c ****     * Parameters:
 895:Generated_Source\PSoC5/PRINTER_A.c ****     *  intSrc: Bit field containing the TX interrupt sources to enable
 896:Generated_Source\PSoC5/PRINTER_A.c ****     *   PRINTER_A_TX_STS_COMPLETE        Interrupt on TX byte complete
 897:Generated_Source\PSoC5/PRINTER_A.c ****     *   PRINTER_A_TX_STS_FIFO_EMPTY      Interrupt when TX FIFO is empty
 898:Generated_Source\PSoC5/PRINTER_A.c ****     *   PRINTER_A_TX_STS_FIFO_FULL       Interrupt when TX FIFO is full
 899:Generated_Source\PSoC5/PRINTER_A.c ****     *   PRINTER_A_TX_STS_FIFO_NOT_FULL   Interrupt when TX FIFO is not full
 900:Generated_Source\PSoC5/PRINTER_A.c ****     *
 901:Generated_Source\PSoC5/PRINTER_A.c ****     * Return:
 902:Generated_Source\PSoC5/PRINTER_A.c ****     *  None.
 903:Generated_Source\PSoC5/PRINTER_A.c ****     *
 904:Generated_Source\PSoC5/PRINTER_A.c ****     * Theory:
 905:Generated_Source\PSoC5/PRINTER_A.c ****     *  Enables the output of specific status bits to the interrupt controller
 906:Generated_Source\PSoC5/PRINTER_A.c ****     *
 907:Generated_Source\PSoC5/PRINTER_A.c ****     *******************************************************************************/
 908:Generated_Source\PSoC5/PRINTER_A.c ****     void PRINTER_A_SetTxInterruptMode(uint8 intSrc) 
 909:Generated_Source\PSoC5/PRINTER_A.c ****     {
 327              		.loc 1 909 0
 328              		.cfi_startproc
 329              		@ args = 0, pretend = 0, frame = 8
 330              		@ frame_needed = 1, uses_anonymous_args = 0
 331              		@ link register save eliminated.
 332 0000 80B4     		push	{r7}
 333              		.cfi_def_cfa_offset 4
 334              		.cfi_offset 7, -4
 335 0002 83B0     		sub	sp, sp, #12
 336              		.cfi_def_cfa_offset 16
 337 0004 00AF     		add	r7, sp, #0
 338              		.cfi_def_cfa_register 7
 339 0006 0346     		mov	r3, r0
 340 0008 FB71     		strb	r3, [r7, #7]
 910:Generated_Source\PSoC5/PRINTER_A.c ****         PRINTER_A_TXSTATUS_MASK_REG = intSrc;
 341              		.loc 1 910 0
 342 000a 044A     		ldr	r2, .L18
 343 000c FB79     		ldrb	r3, [r7, #7]
 344 000e 1370     		strb	r3, [r2]
ARM GAS  C:\Users\Mery\AppData\Local\Temp\ccXmhN3c.s 			page 23


 911:Generated_Source\PSoC5/PRINTER_A.c ****     }
 345              		.loc 1 911 0
 346 0010 00BF     		nop
 347 0012 0C37     		adds	r7, r7, #12
 348              		.cfi_def_cfa_offset 4
 349 0014 BD46     		mov	sp, r7
 350              		.cfi_def_cfa_register 13
 351              		@ sp needed
 352 0016 80BC     		pop	{r7}
 353              		.cfi_restore 7
 354              		.cfi_def_cfa_offset 0
 355 0018 7047     		bx	lr
 356              	.L19:
 357 001a 00BF     		.align	2
 358              	.L18:
 359 001c 86640040 		.word	1073767558
 360              		.cfi_endproc
 361              	.LFE6:
 362              		.size	PRINTER_A_SetTxInterruptMode, .-PRINTER_A_SetTxInterruptMode
 363              		.section	.text.PRINTER_A_WriteTxData,"ax",%progbits
 364              		.align	2
 365              		.global	PRINTER_A_WriteTxData
 366              		.thumb
 367              		.thumb_func
 368              		.type	PRINTER_A_WriteTxData, %function
 369              	PRINTER_A_WriteTxData:
 370              	.LFB7:
 912:Generated_Source\PSoC5/PRINTER_A.c **** 
 913:Generated_Source\PSoC5/PRINTER_A.c **** 
 914:Generated_Source\PSoC5/PRINTER_A.c ****     /*******************************************************************************
 915:Generated_Source\PSoC5/PRINTER_A.c ****     * Function Name: PRINTER_A_WriteTxData
 916:Generated_Source\PSoC5/PRINTER_A.c ****     ********************************************************************************
 917:Generated_Source\PSoC5/PRINTER_A.c ****     *
 918:Generated_Source\PSoC5/PRINTER_A.c ****     * Summary:
 919:Generated_Source\PSoC5/PRINTER_A.c ****     *  Places a byte of data into the transmit buffer to be sent when the bus is
 920:Generated_Source\PSoC5/PRINTER_A.c ****     *  available without checking the TX status register. You must check status
 921:Generated_Source\PSoC5/PRINTER_A.c ****     *  separately.
 922:Generated_Source\PSoC5/PRINTER_A.c ****     *
 923:Generated_Source\PSoC5/PRINTER_A.c ****     * Parameters:
 924:Generated_Source\PSoC5/PRINTER_A.c ****     *  txDataByte: data byte
 925:Generated_Source\PSoC5/PRINTER_A.c ****     *
 926:Generated_Source\PSoC5/PRINTER_A.c ****     * Return:
 927:Generated_Source\PSoC5/PRINTER_A.c ****     * None.
 928:Generated_Source\PSoC5/PRINTER_A.c ****     *
 929:Generated_Source\PSoC5/PRINTER_A.c ****     * Global Variables:
 930:Generated_Source\PSoC5/PRINTER_A.c ****     *  PRINTER_A_txBuffer - RAM buffer pointer for save data for transmission
 931:Generated_Source\PSoC5/PRINTER_A.c ****     *  PRINTER_A_txBufferWrite - cyclic index for write to txBuffer,
 932:Generated_Source\PSoC5/PRINTER_A.c ****     *    incremented after each byte saved to buffer.
 933:Generated_Source\PSoC5/PRINTER_A.c ****     *  PRINTER_A_txBufferRead - cyclic index for read from txBuffer,
 934:Generated_Source\PSoC5/PRINTER_A.c ****     *    checked to identify the condition to write to FIFO directly or to TX buffer
 935:Generated_Source\PSoC5/PRINTER_A.c ****     *  PRINTER_A_initVar - checked to identify that the component has been
 936:Generated_Source\PSoC5/PRINTER_A.c ****     *    initialized.
 937:Generated_Source\PSoC5/PRINTER_A.c ****     *
 938:Generated_Source\PSoC5/PRINTER_A.c ****     * Reentrant:
 939:Generated_Source\PSoC5/PRINTER_A.c ****     *  No.
 940:Generated_Source\PSoC5/PRINTER_A.c ****     *
 941:Generated_Source\PSoC5/PRINTER_A.c ****     *******************************************************************************/
ARM GAS  C:\Users\Mery\AppData\Local\Temp\ccXmhN3c.s 			page 24


 942:Generated_Source\PSoC5/PRINTER_A.c ****     void PRINTER_A_WriteTxData(uint8 txDataByte) 
 943:Generated_Source\PSoC5/PRINTER_A.c ****     {
 371              		.loc 1 943 0
 372              		.cfi_startproc
 373              		@ args = 0, pretend = 0, frame = 8
 374              		@ frame_needed = 1, uses_anonymous_args = 0
 375              		@ link register save eliminated.
 376 0000 80B4     		push	{r7}
 377              		.cfi_def_cfa_offset 4
 378              		.cfi_offset 7, -4
 379 0002 83B0     		sub	sp, sp, #12
 380              		.cfi_def_cfa_offset 16
 381 0004 00AF     		add	r7, sp, #0
 382              		.cfi_def_cfa_register 7
 383 0006 0346     		mov	r3, r0
 384 0008 FB71     		strb	r3, [r7, #7]
 944:Generated_Source\PSoC5/PRINTER_A.c ****         /* If not Initialized then skip this function*/
 945:Generated_Source\PSoC5/PRINTER_A.c ****         if(PRINTER_A_initVar != 0u)
 385              		.loc 1 945 0
 386 000a 1A4B     		ldr	r3, .L26
 387 000c 1B78     		ldrb	r3, [r3]	@ zero_extendqisi2
 388 000e 002B     		cmp	r3, #0
 389 0010 2AD0     		beq	.L25
 946:Generated_Source\PSoC5/PRINTER_A.c ****         {
 947:Generated_Source\PSoC5/PRINTER_A.c ****         #if (PRINTER_A_TX_INTERRUPT_ENABLED)
 948:Generated_Source\PSoC5/PRINTER_A.c **** 
 949:Generated_Source\PSoC5/PRINTER_A.c ****             /* Protect variables that could change on interrupt. */
 950:Generated_Source\PSoC5/PRINTER_A.c ****             PRINTER_A_DisableTxInt();
 390              		.loc 1 950 0
 391 0012 194B     		ldr	r3, .L26+4
 392 0014 0422     		movs	r2, #4
 393 0016 1A60     		str	r2, [r3]
 951:Generated_Source\PSoC5/PRINTER_A.c **** 
 952:Generated_Source\PSoC5/PRINTER_A.c ****             if( (PRINTER_A_txBufferRead == PRINTER_A_txBufferWrite) &&
 394              		.loc 1 952 0
 395 0018 184B     		ldr	r3, .L26+8
 396 001a 1B78     		ldrb	r3, [r3]
 397 001c DAB2     		uxtb	r2, r3
 398 001e 184B     		ldr	r3, .L26+12
 399 0020 1B78     		ldrb	r3, [r3]	@ zero_extendqisi2
 400 0022 9A42     		cmp	r2, r3
 401 0024 0AD1     		bne	.L22
 953:Generated_Source\PSoC5/PRINTER_A.c ****                 ((PRINTER_A_TXSTATUS_REG & PRINTER_A_TX_STS_FIFO_FULL) == 0u) )
 402              		.loc 1 953 0 discriminator 1
 403 0026 174B     		ldr	r3, .L26+16
 404 0028 1B78     		ldrb	r3, [r3]
 405 002a DBB2     		uxtb	r3, r3
 406 002c 03F00403 		and	r3, r3, #4
 952:Generated_Source\PSoC5/PRINTER_A.c ****                 ((PRINTER_A_TXSTATUS_REG & PRINTER_A_TX_STS_FIFO_FULL) == 0u) )
 407              		.loc 1 952 0 discriminator 1
 408 0030 002B     		cmp	r3, #0
 409 0032 03D1     		bne	.L22
 954:Generated_Source\PSoC5/PRINTER_A.c ****             {
 955:Generated_Source\PSoC5/PRINTER_A.c ****                 /* Add directly to the FIFO. */
 956:Generated_Source\PSoC5/PRINTER_A.c ****                 PRINTER_A_TXDATA_REG = txDataByte;
 410              		.loc 1 956 0
 411 0034 144A     		ldr	r2, .L26+20
ARM GAS  C:\Users\Mery\AppData\Local\Temp\ccXmhN3c.s 			page 25


 412 0036 FB79     		ldrb	r3, [r7, #7]
 413 0038 1370     		strb	r3, [r2]
 414 003a 12E0     		b	.L23
 415              	.L22:
 957:Generated_Source\PSoC5/PRINTER_A.c ****             }
 958:Generated_Source\PSoC5/PRINTER_A.c ****             else
 959:Generated_Source\PSoC5/PRINTER_A.c ****             {
 960:Generated_Source\PSoC5/PRINTER_A.c ****                 if(PRINTER_A_txBufferWrite >= PRINTER_A_TX_BUFFER_SIZE)
 416              		.loc 1 960 0
 417 003c 104B     		ldr	r3, .L26+12
 418 003e 1B78     		ldrb	r3, [r3]	@ zero_extendqisi2
 419 0040 042B     		cmp	r3, #4
 420 0042 02D9     		bls	.L24
 961:Generated_Source\PSoC5/PRINTER_A.c ****                 {
 962:Generated_Source\PSoC5/PRINTER_A.c ****                     PRINTER_A_txBufferWrite = 0u;
 421              		.loc 1 962 0
 422 0044 0E4B     		ldr	r3, .L26+12
 423 0046 0022     		movs	r2, #0
 424 0048 1A70     		strb	r2, [r3]
 425              	.L24:
 963:Generated_Source\PSoC5/PRINTER_A.c ****                 }
 964:Generated_Source\PSoC5/PRINTER_A.c **** 
 965:Generated_Source\PSoC5/PRINTER_A.c ****                 PRINTER_A_txBuffer[PRINTER_A_txBufferWrite] = txDataByte;
 426              		.loc 1 965 0
 427 004a 0D4B     		ldr	r3, .L26+12
 428 004c 1B78     		ldrb	r3, [r3]	@ zero_extendqisi2
 429 004e 1946     		mov	r1, r3
 430 0050 0E4A     		ldr	r2, .L26+24
 431 0052 FB79     		ldrb	r3, [r7, #7]
 432 0054 5354     		strb	r3, [r2, r1]
 966:Generated_Source\PSoC5/PRINTER_A.c **** 
 967:Generated_Source\PSoC5/PRINTER_A.c ****                 /* Add to the software buffer. */
 968:Generated_Source\PSoC5/PRINTER_A.c ****                 PRINTER_A_txBufferWrite++;
 433              		.loc 1 968 0
 434 0056 0A4B     		ldr	r3, .L26+12
 435 0058 1B78     		ldrb	r3, [r3]	@ zero_extendqisi2
 436 005a 0133     		adds	r3, r3, #1
 437 005c DAB2     		uxtb	r2, r3
 438 005e 084B     		ldr	r3, .L26+12
 439 0060 1A70     		strb	r2, [r3]
 440              	.L23:
 969:Generated_Source\PSoC5/PRINTER_A.c ****             }
 970:Generated_Source\PSoC5/PRINTER_A.c **** 
 971:Generated_Source\PSoC5/PRINTER_A.c ****             PRINTER_A_EnableTxInt();
 441              		.loc 1 971 0
 442 0062 0B4B     		ldr	r3, .L26+28
 443 0064 0422     		movs	r2, #4
 444 0066 1A60     		str	r2, [r3]
 445              	.L25:
 972:Generated_Source\PSoC5/PRINTER_A.c **** 
 973:Generated_Source\PSoC5/PRINTER_A.c ****         #else
 974:Generated_Source\PSoC5/PRINTER_A.c **** 
 975:Generated_Source\PSoC5/PRINTER_A.c ****             /* Add directly to the FIFO. */
 976:Generated_Source\PSoC5/PRINTER_A.c ****             PRINTER_A_TXDATA_REG = txDataByte;
 977:Generated_Source\PSoC5/PRINTER_A.c **** 
 978:Generated_Source\PSoC5/PRINTER_A.c ****         #endif /*(PRINTER_A_TX_INTERRUPT_ENABLED) */
 979:Generated_Source\PSoC5/PRINTER_A.c ****         }
ARM GAS  C:\Users\Mery\AppData\Local\Temp\ccXmhN3c.s 			page 26


 980:Generated_Source\PSoC5/PRINTER_A.c ****     }
 446              		.loc 1 980 0
 447 0068 00BF     		nop
 448 006a 0C37     		adds	r7, r7, #12
 449              		.cfi_def_cfa_offset 4
 450 006c BD46     		mov	sp, r7
 451              		.cfi_def_cfa_register 13
 452              		@ sp needed
 453 006e 80BC     		pop	{r7}
 454              		.cfi_restore 7
 455              		.cfi_def_cfa_offset 0
 456 0070 7047     		bx	lr
 457              	.L27:
 458 0072 00BF     		.align	2
 459              	.L26:
 460 0074 00000000 		.word	PRINTER_A_initVar
 461 0078 80E100E0 		.word	-536813184
 462 007c 00000000 		.word	PRINTER_A_txBufferRead
 463 0080 00000000 		.word	PRINTER_A_txBufferWrite
 464 0084 66640040 		.word	1073767526
 465 0088 46640040 		.word	1073767494
 466 008c 00000000 		.word	PRINTER_A_txBuffer
 467 0090 00E100E0 		.word	-536813312
 468              		.cfi_endproc
 469              	.LFE7:
 470              		.size	PRINTER_A_WriteTxData, .-PRINTER_A_WriteTxData
 471              		.section	.text.PRINTER_A_ReadTxStatus,"ax",%progbits
 472              		.align	2
 473              		.global	PRINTER_A_ReadTxStatus
 474              		.thumb
 475              		.thumb_func
 476              		.type	PRINTER_A_ReadTxStatus, %function
 477              	PRINTER_A_ReadTxStatus:
 478              	.LFB8:
 981:Generated_Source\PSoC5/PRINTER_A.c **** 
 982:Generated_Source\PSoC5/PRINTER_A.c **** 
 983:Generated_Source\PSoC5/PRINTER_A.c ****     /*******************************************************************************
 984:Generated_Source\PSoC5/PRINTER_A.c ****     * Function Name: PRINTER_A_ReadTxStatus
 985:Generated_Source\PSoC5/PRINTER_A.c ****     ********************************************************************************
 986:Generated_Source\PSoC5/PRINTER_A.c ****     *
 987:Generated_Source\PSoC5/PRINTER_A.c ****     * Summary:
 988:Generated_Source\PSoC5/PRINTER_A.c ****     *  Reads the status register for the TX portion of the UART.
 989:Generated_Source\PSoC5/PRINTER_A.c ****     *
 990:Generated_Source\PSoC5/PRINTER_A.c ****     * Parameters:
 991:Generated_Source\PSoC5/PRINTER_A.c ****     *  None.
 992:Generated_Source\PSoC5/PRINTER_A.c ****     *
 993:Generated_Source\PSoC5/PRINTER_A.c ****     * Return:
 994:Generated_Source\PSoC5/PRINTER_A.c ****     *  Contents of the status register
 995:Generated_Source\PSoC5/PRINTER_A.c ****     *
 996:Generated_Source\PSoC5/PRINTER_A.c ****     * Theory:
 997:Generated_Source\PSoC5/PRINTER_A.c ****     *  This function reads the TX status register, which is cleared on read.
 998:Generated_Source\PSoC5/PRINTER_A.c ****     *  It is up to the user to handle all bits in this return value accordingly,
 999:Generated_Source\PSoC5/PRINTER_A.c ****     *  even if the bit was not enabled as an interrupt source the event happened
1000:Generated_Source\PSoC5/PRINTER_A.c ****     *  and must be handled accordingly.
1001:Generated_Source\PSoC5/PRINTER_A.c ****     *
1002:Generated_Source\PSoC5/PRINTER_A.c ****     *******************************************************************************/
1003:Generated_Source\PSoC5/PRINTER_A.c ****     uint8 PRINTER_A_ReadTxStatus(void) 
ARM GAS  C:\Users\Mery\AppData\Local\Temp\ccXmhN3c.s 			page 27


1004:Generated_Source\PSoC5/PRINTER_A.c ****     {
 479              		.loc 1 1004 0
 480              		.cfi_startproc
 481              		@ args = 0, pretend = 0, frame = 0
 482              		@ frame_needed = 1, uses_anonymous_args = 0
 483              		@ link register save eliminated.
 484 0000 80B4     		push	{r7}
 485              		.cfi_def_cfa_offset 4
 486              		.cfi_offset 7, -4
 487 0002 00AF     		add	r7, sp, #0
 488              		.cfi_def_cfa_register 7
1005:Generated_Source\PSoC5/PRINTER_A.c ****         return(PRINTER_A_TXSTATUS_REG);
 489              		.loc 1 1005 0
 490 0004 034B     		ldr	r3, .L30
 491 0006 1B78     		ldrb	r3, [r3]
 492 0008 DBB2     		uxtb	r3, r3
1006:Generated_Source\PSoC5/PRINTER_A.c ****     }
 493              		.loc 1 1006 0
 494 000a 1846     		mov	r0, r3
 495 000c BD46     		mov	sp, r7
 496              		.cfi_def_cfa_register 13
 497              		@ sp needed
 498 000e 80BC     		pop	{r7}
 499              		.cfi_restore 7
 500              		.cfi_def_cfa_offset 0
 501 0010 7047     		bx	lr
 502              	.L31:
 503 0012 00BF     		.align	2
 504              	.L30:
 505 0014 66640040 		.word	1073767526
 506              		.cfi_endproc
 507              	.LFE8:
 508              		.size	PRINTER_A_ReadTxStatus, .-PRINTER_A_ReadTxStatus
 509              		.section	.text.PRINTER_A_PutChar,"ax",%progbits
 510              		.align	2
 511              		.global	PRINTER_A_PutChar
 512              		.thumb
 513              		.thumb_func
 514              		.type	PRINTER_A_PutChar, %function
 515              	PRINTER_A_PutChar:
 516              	.LFB9:
1007:Generated_Source\PSoC5/PRINTER_A.c **** 
1008:Generated_Source\PSoC5/PRINTER_A.c **** 
1009:Generated_Source\PSoC5/PRINTER_A.c ****     /*******************************************************************************
1010:Generated_Source\PSoC5/PRINTER_A.c ****     * Function Name: PRINTER_A_PutChar
1011:Generated_Source\PSoC5/PRINTER_A.c ****     ********************************************************************************
1012:Generated_Source\PSoC5/PRINTER_A.c ****     *
1013:Generated_Source\PSoC5/PRINTER_A.c ****     * Summary:
1014:Generated_Source\PSoC5/PRINTER_A.c ****     *  Puts a byte of data into the transmit buffer to be sent when the bus is
1015:Generated_Source\PSoC5/PRINTER_A.c ****     *  available. This is a blocking API that waits until the TX buffer has room to
1016:Generated_Source\PSoC5/PRINTER_A.c ****     *  hold the data.
1017:Generated_Source\PSoC5/PRINTER_A.c ****     *
1018:Generated_Source\PSoC5/PRINTER_A.c ****     * Parameters:
1019:Generated_Source\PSoC5/PRINTER_A.c ****     *  txDataByte: Byte containing the data to transmit
1020:Generated_Source\PSoC5/PRINTER_A.c ****     *
1021:Generated_Source\PSoC5/PRINTER_A.c ****     * Return:
1022:Generated_Source\PSoC5/PRINTER_A.c ****     *  None.
ARM GAS  C:\Users\Mery\AppData\Local\Temp\ccXmhN3c.s 			page 28


1023:Generated_Source\PSoC5/PRINTER_A.c ****     *
1024:Generated_Source\PSoC5/PRINTER_A.c ****     * Global Variables:
1025:Generated_Source\PSoC5/PRINTER_A.c ****     *  PRINTER_A_txBuffer - RAM buffer pointer for save data for transmission
1026:Generated_Source\PSoC5/PRINTER_A.c ****     *  PRINTER_A_txBufferWrite - cyclic index for write to txBuffer,
1027:Generated_Source\PSoC5/PRINTER_A.c ****     *     checked to identify free space in txBuffer and incremented after each byte
1028:Generated_Source\PSoC5/PRINTER_A.c ****     *     saved to buffer.
1029:Generated_Source\PSoC5/PRINTER_A.c ****     *  PRINTER_A_txBufferRead - cyclic index for read from txBuffer,
1030:Generated_Source\PSoC5/PRINTER_A.c ****     *     checked to identify free space in txBuffer.
1031:Generated_Source\PSoC5/PRINTER_A.c ****     *  PRINTER_A_initVar - checked to identify that the component has been
1032:Generated_Source\PSoC5/PRINTER_A.c ****     *     initialized.
1033:Generated_Source\PSoC5/PRINTER_A.c ****     *
1034:Generated_Source\PSoC5/PRINTER_A.c ****     * Reentrant:
1035:Generated_Source\PSoC5/PRINTER_A.c ****     *  No.
1036:Generated_Source\PSoC5/PRINTER_A.c ****     *
1037:Generated_Source\PSoC5/PRINTER_A.c ****     * Theory:
1038:Generated_Source\PSoC5/PRINTER_A.c ****     *  Allows the user to transmit any byte of data in a single transfer
1039:Generated_Source\PSoC5/PRINTER_A.c ****     *
1040:Generated_Source\PSoC5/PRINTER_A.c ****     *******************************************************************************/
1041:Generated_Source\PSoC5/PRINTER_A.c ****     void PRINTER_A_PutChar(uint8 txDataByte) 
1042:Generated_Source\PSoC5/PRINTER_A.c ****     {
 517              		.loc 1 1042 0
 518              		.cfi_startproc
 519              		@ args = 0, pretend = 0, frame = 16
 520              		@ frame_needed = 1, uses_anonymous_args = 0
 521              		@ link register save eliminated.
 522 0000 80B4     		push	{r7}
 523              		.cfi_def_cfa_offset 4
 524              		.cfi_offset 7, -4
 525 0002 85B0     		sub	sp, sp, #20
 526              		.cfi_def_cfa_offset 24
 527 0004 00AF     		add	r7, sp, #0
 528              		.cfi_def_cfa_register 7
 529 0006 0346     		mov	r3, r0
 530 0008 FB71     		strb	r3, [r7, #7]
 531              	.L35:
1043:Generated_Source\PSoC5/PRINTER_A.c ****     #if (PRINTER_A_TX_INTERRUPT_ENABLED)
1044:Generated_Source\PSoC5/PRINTER_A.c ****         /* The temporary output pointer is used since it takes two instructions
1045:Generated_Source\PSoC5/PRINTER_A.c ****         *  to increment with a wrap, and we can't risk doing that with the real
1046:Generated_Source\PSoC5/PRINTER_A.c ****         *  pointer and getting an interrupt in between instructions.
1047:Generated_Source\PSoC5/PRINTER_A.c ****         */
1048:Generated_Source\PSoC5/PRINTER_A.c ****         uint8 locTxBufferWrite;
1049:Generated_Source\PSoC5/PRINTER_A.c ****         uint8 locTxBufferRead;
1050:Generated_Source\PSoC5/PRINTER_A.c **** 
1051:Generated_Source\PSoC5/PRINTER_A.c ****         do
1052:Generated_Source\PSoC5/PRINTER_A.c ****         { /* Block if software buffer is full, so we don't overwrite. */
1053:Generated_Source\PSoC5/PRINTER_A.c **** 
1054:Generated_Source\PSoC5/PRINTER_A.c ****         #if ((PRINTER_A_TX_BUFFER_SIZE > PRINTER_A_MAX_BYTE_VALUE) && (CY_PSOC3))
1055:Generated_Source\PSoC5/PRINTER_A.c ****             /* Disable TX interrupt to protect variables from modification */
1056:Generated_Source\PSoC5/PRINTER_A.c ****             PRINTER_A_DisableTxInt();
1057:Generated_Source\PSoC5/PRINTER_A.c ****         #endif /* (PRINTER_A_TX_BUFFER_SIZE > PRINTER_A_MAX_BYTE_VALUE) && (CY_PSOC3) */
1058:Generated_Source\PSoC5/PRINTER_A.c **** 
1059:Generated_Source\PSoC5/PRINTER_A.c ****             locTxBufferWrite = PRINTER_A_txBufferWrite;
 532              		.loc 1 1059 0
 533 000a 254B     		ldr	r3, .L40
 534 000c 1B78     		ldrb	r3, [r3]
 535 000e FB73     		strb	r3, [r7, #15]
1060:Generated_Source\PSoC5/PRINTER_A.c ****             locTxBufferRead  = PRINTER_A_txBufferRead;
ARM GAS  C:\Users\Mery\AppData\Local\Temp\ccXmhN3c.s 			page 29


 536              		.loc 1 1060 0
 537 0010 244B     		ldr	r3, .L40+4
 538 0012 1B78     		ldrb	r3, [r3]
 539 0014 BB73     		strb	r3, [r7, #14]
1061:Generated_Source\PSoC5/PRINTER_A.c **** 
1062:Generated_Source\PSoC5/PRINTER_A.c ****         #if ((PRINTER_A_TX_BUFFER_SIZE > PRINTER_A_MAX_BYTE_VALUE) && (CY_PSOC3))
1063:Generated_Source\PSoC5/PRINTER_A.c ****             /* Enable interrupt to continue transmission */
1064:Generated_Source\PSoC5/PRINTER_A.c ****             PRINTER_A_EnableTxInt();
1065:Generated_Source\PSoC5/PRINTER_A.c ****         #endif /* (PRINTER_A_TX_BUFFER_SIZE > PRINTER_A_MAX_BYTE_VALUE) && (CY_PSOC3) */
1066:Generated_Source\PSoC5/PRINTER_A.c ****         }
1067:Generated_Source\PSoC5/PRINTER_A.c ****         while( (locTxBufferWrite < locTxBufferRead) ? (locTxBufferWrite == (locTxBufferRead - 1u)) 
 540              		.loc 1 1067 0
 541 0016 FA7B     		ldrb	r2, [r7, #15]	@ zero_extendqisi2
 542 0018 BB7B     		ldrb	r3, [r7, #14]	@ zero_extendqisi2
 543 001a 9A42     		cmp	r2, r3
 544 001c 08D2     		bcs	.L33
 545              		.loc 1 1067 0 is_stmt 0 discriminator 1
 546 001e FA7B     		ldrb	r2, [r7, #15]	@ zero_extendqisi2
 547 0020 BB7B     		ldrb	r3, [r7, #14]	@ zero_extendqisi2
 548 0022 013B     		subs	r3, r3, #1
 549 0024 9A42     		cmp	r2, r3
 550 0026 0CBF     		ite	eq
 551 0028 0123     		moveq	r3, #1
 552 002a 0023     		movne	r3, #0
 553 002c DBB2     		uxtb	r3, r3
 554 002e 07E0     		b	.L34
 555              	.L33:
1068:Generated_Source\PSoC5/PRINTER_A.c ****                                 ((locTxBufferWrite - locTxBufferRead) ==
 556              		.loc 1 1068 0 is_stmt 1 discriminator 2
 557 0030 FA7B     		ldrb	r2, [r7, #15]	@ zero_extendqisi2
 558 0032 BB7B     		ldrb	r3, [r7, #14]	@ zero_extendqisi2
 559 0034 D31A     		subs	r3, r2, r3
1067:Generated_Source\PSoC5/PRINTER_A.c ****                                 ((locTxBufferWrite - locTxBufferRead) ==
 560              		.loc 1 1067 0 discriminator 2
 561 0036 042B     		cmp	r3, #4
 562 0038 0CBF     		ite	eq
 563 003a 0123     		moveq	r3, #1
 564 003c 0023     		movne	r3, #0
 565 003e DBB2     		uxtb	r3, r3
 566              	.L34:
1069:Generated_Source\PSoC5/PRINTER_A.c ****                                 (uint8)(PRINTER_A_TX_BUFFER_SIZE - 1u)) );
 567              		.loc 1 1069 0
 568 0040 002B     		cmp	r3, #0
 569 0042 E2D1     		bne	.L35
1070:Generated_Source\PSoC5/PRINTER_A.c **** 
1071:Generated_Source\PSoC5/PRINTER_A.c ****         if( (locTxBufferRead == locTxBufferWrite) &&
 570              		.loc 1 1071 0
 571 0044 BA7B     		ldrb	r2, [r7, #14]	@ zero_extendqisi2
 572 0046 FB7B     		ldrb	r3, [r7, #15]	@ zero_extendqisi2
 573 0048 9A42     		cmp	r2, r3
 574 004a 0AD1     		bne	.L36
1072:Generated_Source\PSoC5/PRINTER_A.c ****             ((PRINTER_A_TXSTATUS_REG & PRINTER_A_TX_STS_FIFO_FULL) == 0u) )
 575              		.loc 1 1072 0 discriminator 1
 576 004c 164B     		ldr	r3, .L40+8
 577 004e 1B78     		ldrb	r3, [r3]
 578 0050 DBB2     		uxtb	r3, r3
 579 0052 03F00403 		and	r3, r3, #4
ARM GAS  C:\Users\Mery\AppData\Local\Temp\ccXmhN3c.s 			page 30


1071:Generated_Source\PSoC5/PRINTER_A.c ****             ((PRINTER_A_TXSTATUS_REG & PRINTER_A_TX_STS_FIFO_FULL) == 0u) )
 580              		.loc 1 1071 0 discriminator 1
 581 0056 002B     		cmp	r3, #0
 582 0058 03D1     		bne	.L36
1073:Generated_Source\PSoC5/PRINTER_A.c ****         {
1074:Generated_Source\PSoC5/PRINTER_A.c ****             /* Add directly to the FIFO */
1075:Generated_Source\PSoC5/PRINTER_A.c ****             PRINTER_A_TXDATA_REG = txDataByte;
 583              		.loc 1 1075 0
 584 005a 144A     		ldr	r2, .L40+12
 585 005c FB79     		ldrb	r3, [r7, #7]
 586 005e 1370     		strb	r3, [r2]
1076:Generated_Source\PSoC5/PRINTER_A.c ****         }
1077:Generated_Source\PSoC5/PRINTER_A.c ****         else
1078:Generated_Source\PSoC5/PRINTER_A.c ****         {
1079:Generated_Source\PSoC5/PRINTER_A.c ****             if(locTxBufferWrite >= PRINTER_A_TX_BUFFER_SIZE)
1080:Generated_Source\PSoC5/PRINTER_A.c ****             {
1081:Generated_Source\PSoC5/PRINTER_A.c ****                 locTxBufferWrite = 0u;
1082:Generated_Source\PSoC5/PRINTER_A.c ****             }
1083:Generated_Source\PSoC5/PRINTER_A.c ****             /* Add to the software buffer. */
1084:Generated_Source\PSoC5/PRINTER_A.c ****             PRINTER_A_txBuffer[locTxBufferWrite] = txDataByte;
1085:Generated_Source\PSoC5/PRINTER_A.c ****             locTxBufferWrite++;
1086:Generated_Source\PSoC5/PRINTER_A.c **** 
1087:Generated_Source\PSoC5/PRINTER_A.c ****             /* Finally, update the real output pointer */
1088:Generated_Source\PSoC5/PRINTER_A.c ****         #if ((PRINTER_A_TX_BUFFER_SIZE > PRINTER_A_MAX_BYTE_VALUE) && (CY_PSOC3))
1089:Generated_Source\PSoC5/PRINTER_A.c ****             PRINTER_A_DisableTxInt();
1090:Generated_Source\PSoC5/PRINTER_A.c ****         #endif /* (PRINTER_A_TX_BUFFER_SIZE > PRINTER_A_MAX_BYTE_VALUE) && (CY_PSOC3) */
1091:Generated_Source\PSoC5/PRINTER_A.c **** 
1092:Generated_Source\PSoC5/PRINTER_A.c ****             PRINTER_A_txBufferWrite = locTxBufferWrite;
1093:Generated_Source\PSoC5/PRINTER_A.c **** 
1094:Generated_Source\PSoC5/PRINTER_A.c ****         #if ((PRINTER_A_TX_BUFFER_SIZE > PRINTER_A_MAX_BYTE_VALUE) && (CY_PSOC3))
1095:Generated_Source\PSoC5/PRINTER_A.c ****             PRINTER_A_EnableTxInt();
1096:Generated_Source\PSoC5/PRINTER_A.c ****         #endif /* (PRINTER_A_TX_BUFFER_SIZE > PRINTER_A_MAX_BYTE_VALUE) && (CY_PSOC3) */
1097:Generated_Source\PSoC5/PRINTER_A.c **** 
1098:Generated_Source\PSoC5/PRINTER_A.c ****             if(0u != (PRINTER_A_TXSTATUS_REG & PRINTER_A_TX_STS_FIFO_EMPTY))
1099:Generated_Source\PSoC5/PRINTER_A.c ****             {
1100:Generated_Source\PSoC5/PRINTER_A.c ****                 /* Trigger TX interrupt to send software buffer */
1101:Generated_Source\PSoC5/PRINTER_A.c ****                 PRINTER_A_SetPendingTxInt();
1102:Generated_Source\PSoC5/PRINTER_A.c ****             }
1103:Generated_Source\PSoC5/PRINTER_A.c ****         }
1104:Generated_Source\PSoC5/PRINTER_A.c **** 
1105:Generated_Source\PSoC5/PRINTER_A.c ****     #else
1106:Generated_Source\PSoC5/PRINTER_A.c **** 
1107:Generated_Source\PSoC5/PRINTER_A.c ****         while((PRINTER_A_TXSTATUS_REG & PRINTER_A_TX_STS_FIFO_FULL) != 0u)
1108:Generated_Source\PSoC5/PRINTER_A.c ****         {
1109:Generated_Source\PSoC5/PRINTER_A.c ****             /* Wait for room in the FIFO */
1110:Generated_Source\PSoC5/PRINTER_A.c ****         }
1111:Generated_Source\PSoC5/PRINTER_A.c **** 
1112:Generated_Source\PSoC5/PRINTER_A.c ****         /* Add directly to the FIFO */
1113:Generated_Source\PSoC5/PRINTER_A.c ****         PRINTER_A_TXDATA_REG = txDataByte;
1114:Generated_Source\PSoC5/PRINTER_A.c **** 
1115:Generated_Source\PSoC5/PRINTER_A.c ****     #endif /* PRINTER_A_TX_INTERRUPT_ENABLED */
1116:Generated_Source\PSoC5/PRINTER_A.c ****     }
 587              		.loc 1 1116 0
 588 0060 18E0     		b	.L39
 589              	.L36:
1079:Generated_Source\PSoC5/PRINTER_A.c ****             {
 590              		.loc 1 1079 0
ARM GAS  C:\Users\Mery\AppData\Local\Temp\ccXmhN3c.s 			page 31


 591 0062 FB7B     		ldrb	r3, [r7, #15]	@ zero_extendqisi2
 592 0064 042B     		cmp	r3, #4
 593 0066 01D9     		bls	.L38
1081:Generated_Source\PSoC5/PRINTER_A.c ****             }
 594              		.loc 1 1081 0
 595 0068 0023     		movs	r3, #0
 596 006a FB73     		strb	r3, [r7, #15]
 597              	.L38:
1084:Generated_Source\PSoC5/PRINTER_A.c ****             locTxBufferWrite++;
 598              		.loc 1 1084 0
 599 006c FB7B     		ldrb	r3, [r7, #15]	@ zero_extendqisi2
 600 006e 1049     		ldr	r1, .L40+16
 601 0070 FA79     		ldrb	r2, [r7, #7]
 602 0072 CA54     		strb	r2, [r1, r3]
1085:Generated_Source\PSoC5/PRINTER_A.c **** 
 603              		.loc 1 1085 0
 604 0074 FB7B     		ldrb	r3, [r7, #15]	@ zero_extendqisi2
 605 0076 0133     		adds	r3, r3, #1
 606 0078 FB73     		strb	r3, [r7, #15]
1092:Generated_Source\PSoC5/PRINTER_A.c **** 
 607              		.loc 1 1092 0
 608 007a 094A     		ldr	r2, .L40
 609 007c FB7B     		ldrb	r3, [r7, #15]
 610 007e 1370     		strb	r3, [r2]
1098:Generated_Source\PSoC5/PRINTER_A.c ****             {
 611              		.loc 1 1098 0
 612 0080 094B     		ldr	r3, .L40+8
 613 0082 1B78     		ldrb	r3, [r3]
 614 0084 DBB2     		uxtb	r3, r3
 615 0086 03F00203 		and	r3, r3, #2
 616 008a 002B     		cmp	r3, #0
 617 008c 02D0     		beq	.L39
1101:Generated_Source\PSoC5/PRINTER_A.c ****             }
 618              		.loc 1 1101 0
 619 008e 094B     		ldr	r3, .L40+20
 620 0090 0422     		movs	r2, #4
 621 0092 1A60     		str	r2, [r3]
 622              	.L39:
 623              		.loc 1 1116 0
 624 0094 00BF     		nop
 625 0096 1437     		adds	r7, r7, #20
 626              		.cfi_def_cfa_offset 4
 627 0098 BD46     		mov	sp, r7
 628              		.cfi_def_cfa_register 13
 629              		@ sp needed
 630 009a 80BC     		pop	{r7}
 631              		.cfi_restore 7
 632              		.cfi_def_cfa_offset 0
 633 009c 7047     		bx	lr
 634              	.L41:
 635 009e 00BF     		.align	2
 636              	.L40:
 637 00a0 00000000 		.word	PRINTER_A_txBufferWrite
 638 00a4 00000000 		.word	PRINTER_A_txBufferRead
 639 00a8 66640040 		.word	1073767526
 640 00ac 46640040 		.word	1073767494
 641 00b0 00000000 		.word	PRINTER_A_txBuffer
ARM GAS  C:\Users\Mery\AppData\Local\Temp\ccXmhN3c.s 			page 32


 642 00b4 00E200E0 		.word	-536813056
 643              		.cfi_endproc
 644              	.LFE9:
 645              		.size	PRINTER_A_PutChar, .-PRINTER_A_PutChar
 646              		.section	.text.PRINTER_A_PutString,"ax",%progbits
 647              		.align	2
 648              		.global	PRINTER_A_PutString
 649              		.thumb
 650              		.thumb_func
 651              		.type	PRINTER_A_PutString, %function
 652              	PRINTER_A_PutString:
 653              	.LFB10:
1117:Generated_Source\PSoC5/PRINTER_A.c **** 
1118:Generated_Source\PSoC5/PRINTER_A.c **** 
1119:Generated_Source\PSoC5/PRINTER_A.c ****     /*******************************************************************************
1120:Generated_Source\PSoC5/PRINTER_A.c ****     * Function Name: PRINTER_A_PutString
1121:Generated_Source\PSoC5/PRINTER_A.c ****     ********************************************************************************
1122:Generated_Source\PSoC5/PRINTER_A.c ****     *
1123:Generated_Source\PSoC5/PRINTER_A.c ****     * Summary:
1124:Generated_Source\PSoC5/PRINTER_A.c ****     *  Sends a NULL terminated string to the TX buffer for transmission.
1125:Generated_Source\PSoC5/PRINTER_A.c ****     *
1126:Generated_Source\PSoC5/PRINTER_A.c ****     * Parameters:
1127:Generated_Source\PSoC5/PRINTER_A.c ****     *  string[]: Pointer to the null terminated string array residing in RAM or ROM
1128:Generated_Source\PSoC5/PRINTER_A.c ****     *
1129:Generated_Source\PSoC5/PRINTER_A.c ****     * Return:
1130:Generated_Source\PSoC5/PRINTER_A.c ****     *  None.
1131:Generated_Source\PSoC5/PRINTER_A.c ****     *
1132:Generated_Source\PSoC5/PRINTER_A.c ****     * Global Variables:
1133:Generated_Source\PSoC5/PRINTER_A.c ****     *  PRINTER_A_initVar - checked to identify that the component has been
1134:Generated_Source\PSoC5/PRINTER_A.c ****     *     initialized.
1135:Generated_Source\PSoC5/PRINTER_A.c ****     *
1136:Generated_Source\PSoC5/PRINTER_A.c ****     * Reentrant:
1137:Generated_Source\PSoC5/PRINTER_A.c ****     *  No.
1138:Generated_Source\PSoC5/PRINTER_A.c ****     *
1139:Generated_Source\PSoC5/PRINTER_A.c ****     * Theory:
1140:Generated_Source\PSoC5/PRINTER_A.c ****     *  If there is not enough memory in the TX buffer for the entire string, this
1141:Generated_Source\PSoC5/PRINTER_A.c ****     *  function blocks until the last character of the string is loaded into the
1142:Generated_Source\PSoC5/PRINTER_A.c ****     *  TX buffer.
1143:Generated_Source\PSoC5/PRINTER_A.c ****     *
1144:Generated_Source\PSoC5/PRINTER_A.c ****     *******************************************************************************/
1145:Generated_Source\PSoC5/PRINTER_A.c ****     void PRINTER_A_PutString(const char8 string[]) 
1146:Generated_Source\PSoC5/PRINTER_A.c ****     {
 654              		.loc 1 1146 0
 655              		.cfi_startproc
 656              		@ args = 0, pretend = 0, frame = 16
 657              		@ frame_needed = 1, uses_anonymous_args = 0
 658 0000 80B5     		push	{r7, lr}
 659              		.cfi_def_cfa_offset 8
 660              		.cfi_offset 7, -8
 661              		.cfi_offset 14, -4
 662 0002 84B0     		sub	sp, sp, #16
 663              		.cfi_def_cfa_offset 24
 664 0004 00AF     		add	r7, sp, #0
 665              		.cfi_def_cfa_register 7
 666 0006 7860     		str	r0, [r7, #4]
1147:Generated_Source\PSoC5/PRINTER_A.c ****         uint16 bufIndex = 0u;
 667              		.loc 1 1147 0
ARM GAS  C:\Users\Mery\AppData\Local\Temp\ccXmhN3c.s 			page 33


 668 0008 0023     		movs	r3, #0
 669 000a FB81     		strh	r3, [r7, #14]	@ movhi
1148:Generated_Source\PSoC5/PRINTER_A.c **** 
1149:Generated_Source\PSoC5/PRINTER_A.c ****         /* If not Initialized then skip this function */
1150:Generated_Source\PSoC5/PRINTER_A.c ****         if(PRINTER_A_initVar != 0u)
 670              		.loc 1 1150 0
 671 000c 0C4B     		ldr	r3, .L47
 672 000e 1B78     		ldrb	r3, [r3]	@ zero_extendqisi2
 673 0010 002B     		cmp	r3, #0
 674 0012 10D0     		beq	.L46
1151:Generated_Source\PSoC5/PRINTER_A.c ****         {
1152:Generated_Source\PSoC5/PRINTER_A.c ****             /* This is a blocking function, it will not exit until all data is sent */
1153:Generated_Source\PSoC5/PRINTER_A.c ****             while(string[bufIndex] != (char8) 0)
 675              		.loc 1 1153 0
 676 0014 09E0     		b	.L44
 677              	.L45:
1154:Generated_Source\PSoC5/PRINTER_A.c ****             {
1155:Generated_Source\PSoC5/PRINTER_A.c ****                 PRINTER_A_PutChar((uint8)string[bufIndex]);
 678              		.loc 1 1155 0
 679 0016 FB89     		ldrh	r3, [r7, #14]
 680 0018 7A68     		ldr	r2, [r7, #4]
 681 001a 1344     		add	r3, r3, r2
 682 001c 1B78     		ldrb	r3, [r3]	@ zero_extendqisi2
 683 001e 1846     		mov	r0, r3
 684 0020 FFF7FEFF 		bl	PRINTER_A_PutChar
1156:Generated_Source\PSoC5/PRINTER_A.c ****                 bufIndex++;
 685              		.loc 1 1156 0
 686 0024 FB89     		ldrh	r3, [r7, #14]
 687 0026 0133     		adds	r3, r3, #1
 688 0028 FB81     		strh	r3, [r7, #14]	@ movhi
 689              	.L44:
1153:Generated_Source\PSoC5/PRINTER_A.c ****             {
 690              		.loc 1 1153 0
 691 002a FB89     		ldrh	r3, [r7, #14]
 692 002c 7A68     		ldr	r2, [r7, #4]
 693 002e 1344     		add	r3, r3, r2
 694 0030 1B78     		ldrb	r3, [r3]	@ zero_extendqisi2
 695 0032 002B     		cmp	r3, #0
 696 0034 EFD1     		bne	.L45
 697              	.L46:
1157:Generated_Source\PSoC5/PRINTER_A.c ****             }
1158:Generated_Source\PSoC5/PRINTER_A.c ****         }
1159:Generated_Source\PSoC5/PRINTER_A.c ****     }
 698              		.loc 1 1159 0
 699 0036 00BF     		nop
 700 0038 1037     		adds	r7, r7, #16
 701              		.cfi_def_cfa_offset 8
 702 003a BD46     		mov	sp, r7
 703              		.cfi_def_cfa_register 13
 704              		@ sp needed
 705 003c 80BD     		pop	{r7, pc}
 706              	.L48:
 707 003e 00BF     		.align	2
 708              	.L47:
 709 0040 00000000 		.word	PRINTER_A_initVar
 710              		.cfi_endproc
 711              	.LFE10:
ARM GAS  C:\Users\Mery\AppData\Local\Temp\ccXmhN3c.s 			page 34


 712              		.size	PRINTER_A_PutString, .-PRINTER_A_PutString
 713              		.section	.text.PRINTER_A_PutArray,"ax",%progbits
 714              		.align	2
 715              		.global	PRINTER_A_PutArray
 716              		.thumb
 717              		.thumb_func
 718              		.type	PRINTER_A_PutArray, %function
 719              	PRINTER_A_PutArray:
 720              	.LFB11:
1160:Generated_Source\PSoC5/PRINTER_A.c **** 
1161:Generated_Source\PSoC5/PRINTER_A.c **** 
1162:Generated_Source\PSoC5/PRINTER_A.c ****     /*******************************************************************************
1163:Generated_Source\PSoC5/PRINTER_A.c ****     * Function Name: PRINTER_A_PutArray
1164:Generated_Source\PSoC5/PRINTER_A.c ****     ********************************************************************************
1165:Generated_Source\PSoC5/PRINTER_A.c ****     *
1166:Generated_Source\PSoC5/PRINTER_A.c ****     * Summary:
1167:Generated_Source\PSoC5/PRINTER_A.c ****     *  Places N bytes of data from a memory array into the TX buffer for
1168:Generated_Source\PSoC5/PRINTER_A.c ****     *  transmission.
1169:Generated_Source\PSoC5/PRINTER_A.c ****     *
1170:Generated_Source\PSoC5/PRINTER_A.c ****     * Parameters:
1171:Generated_Source\PSoC5/PRINTER_A.c ****     *  string[]: Address of the memory array residing in RAM or ROM.
1172:Generated_Source\PSoC5/PRINTER_A.c ****     *  byteCount: Number of bytes to be transmitted. The type depends on TX Buffer
1173:Generated_Source\PSoC5/PRINTER_A.c ****     *             Size parameter.
1174:Generated_Source\PSoC5/PRINTER_A.c ****     *
1175:Generated_Source\PSoC5/PRINTER_A.c ****     * Return:
1176:Generated_Source\PSoC5/PRINTER_A.c ****     *  None.
1177:Generated_Source\PSoC5/PRINTER_A.c ****     *
1178:Generated_Source\PSoC5/PRINTER_A.c ****     * Global Variables:
1179:Generated_Source\PSoC5/PRINTER_A.c ****     *  PRINTER_A_initVar - checked to identify that the component has been
1180:Generated_Source\PSoC5/PRINTER_A.c ****     *     initialized.
1181:Generated_Source\PSoC5/PRINTER_A.c ****     *
1182:Generated_Source\PSoC5/PRINTER_A.c ****     * Reentrant:
1183:Generated_Source\PSoC5/PRINTER_A.c ****     *  No.
1184:Generated_Source\PSoC5/PRINTER_A.c ****     *
1185:Generated_Source\PSoC5/PRINTER_A.c ****     * Theory:
1186:Generated_Source\PSoC5/PRINTER_A.c ****     *  If there is not enough memory in the TX buffer for the entire string, this
1187:Generated_Source\PSoC5/PRINTER_A.c ****     *  function blocks until the last character of the string is loaded into the
1188:Generated_Source\PSoC5/PRINTER_A.c ****     *  TX buffer.
1189:Generated_Source\PSoC5/PRINTER_A.c ****     *
1190:Generated_Source\PSoC5/PRINTER_A.c ****     *******************************************************************************/
1191:Generated_Source\PSoC5/PRINTER_A.c ****     void PRINTER_A_PutArray(const uint8 string[], uint8 byteCount)
1192:Generated_Source\PSoC5/PRINTER_A.c ****                                                                     
1193:Generated_Source\PSoC5/PRINTER_A.c ****     {
 721              		.loc 1 1193 0
 722              		.cfi_startproc
 723              		@ args = 0, pretend = 0, frame = 16
 724              		@ frame_needed = 1, uses_anonymous_args = 0
 725 0000 80B5     		push	{r7, lr}
 726              		.cfi_def_cfa_offset 8
 727              		.cfi_offset 7, -8
 728              		.cfi_offset 14, -4
 729 0002 84B0     		sub	sp, sp, #16
 730              		.cfi_def_cfa_offset 24
 731 0004 00AF     		add	r7, sp, #0
 732              		.cfi_def_cfa_register 7
 733 0006 7860     		str	r0, [r7, #4]
 734 0008 0B46     		mov	r3, r1
ARM GAS  C:\Users\Mery\AppData\Local\Temp\ccXmhN3c.s 			page 35


 735 000a FB70     		strb	r3, [r7, #3]
1194:Generated_Source\PSoC5/PRINTER_A.c ****         uint8 bufIndex = 0u;
 736              		.loc 1 1194 0
 737 000c 0023     		movs	r3, #0
 738 000e FB73     		strb	r3, [r7, #15]
1195:Generated_Source\PSoC5/PRINTER_A.c **** 
1196:Generated_Source\PSoC5/PRINTER_A.c ****         /* If not Initialized then skip this function */
1197:Generated_Source\PSoC5/PRINTER_A.c ****         if(PRINTER_A_initVar != 0u)
 739              		.loc 1 1197 0
 740 0010 0B4B     		ldr	r3, .L54
 741 0012 1B78     		ldrb	r3, [r3]	@ zero_extendqisi2
 742 0014 002B     		cmp	r3, #0
 743 0016 0ED0     		beq	.L53
1198:Generated_Source\PSoC5/PRINTER_A.c ****         {
1199:Generated_Source\PSoC5/PRINTER_A.c ****             while(bufIndex < byteCount)
 744              		.loc 1 1199 0
 745 0018 09E0     		b	.L51
 746              	.L52:
1200:Generated_Source\PSoC5/PRINTER_A.c ****             {
1201:Generated_Source\PSoC5/PRINTER_A.c ****                 PRINTER_A_PutChar(string[bufIndex]);
 747              		.loc 1 1201 0
 748 001a FB7B     		ldrb	r3, [r7, #15]	@ zero_extendqisi2
 749 001c 7A68     		ldr	r2, [r7, #4]
 750 001e 1344     		add	r3, r3, r2
 751 0020 1B78     		ldrb	r3, [r3]	@ zero_extendqisi2
 752 0022 1846     		mov	r0, r3
 753 0024 FFF7FEFF 		bl	PRINTER_A_PutChar
1202:Generated_Source\PSoC5/PRINTER_A.c ****                 bufIndex++;
 754              		.loc 1 1202 0
 755 0028 FB7B     		ldrb	r3, [r7, #15]	@ zero_extendqisi2
 756 002a 0133     		adds	r3, r3, #1
 757 002c FB73     		strb	r3, [r7, #15]
 758              	.L51:
1199:Generated_Source\PSoC5/PRINTER_A.c ****             {
 759              		.loc 1 1199 0
 760 002e FA7B     		ldrb	r2, [r7, #15]	@ zero_extendqisi2
 761 0030 FB78     		ldrb	r3, [r7, #3]	@ zero_extendqisi2
 762 0032 9A42     		cmp	r2, r3
 763 0034 F1D3     		bcc	.L52
 764              	.L53:
1203:Generated_Source\PSoC5/PRINTER_A.c ****             }
1204:Generated_Source\PSoC5/PRINTER_A.c ****         }
1205:Generated_Source\PSoC5/PRINTER_A.c ****     }
 765              		.loc 1 1205 0
 766 0036 00BF     		nop
 767 0038 1037     		adds	r7, r7, #16
 768              		.cfi_def_cfa_offset 8
 769 003a BD46     		mov	sp, r7
 770              		.cfi_def_cfa_register 13
 771              		@ sp needed
 772 003c 80BD     		pop	{r7, pc}
 773              	.L55:
 774 003e 00BF     		.align	2
 775              	.L54:
 776 0040 00000000 		.word	PRINTER_A_initVar
 777              		.cfi_endproc
 778              	.LFE11:
ARM GAS  C:\Users\Mery\AppData\Local\Temp\ccXmhN3c.s 			page 36


 779              		.size	PRINTER_A_PutArray, .-PRINTER_A_PutArray
 780              		.section	.text.PRINTER_A_PutCRLF,"ax",%progbits
 781              		.align	2
 782              		.global	PRINTER_A_PutCRLF
 783              		.thumb
 784              		.thumb_func
 785              		.type	PRINTER_A_PutCRLF, %function
 786              	PRINTER_A_PutCRLF:
 787              	.LFB12:
1206:Generated_Source\PSoC5/PRINTER_A.c **** 
1207:Generated_Source\PSoC5/PRINTER_A.c **** 
1208:Generated_Source\PSoC5/PRINTER_A.c ****     /*******************************************************************************
1209:Generated_Source\PSoC5/PRINTER_A.c ****     * Function Name: PRINTER_A_PutCRLF
1210:Generated_Source\PSoC5/PRINTER_A.c ****     ********************************************************************************
1211:Generated_Source\PSoC5/PRINTER_A.c ****     *
1212:Generated_Source\PSoC5/PRINTER_A.c ****     * Summary:
1213:Generated_Source\PSoC5/PRINTER_A.c ****     *  Writes a byte of data followed by a carriage return (0x0D) and line feed
1214:Generated_Source\PSoC5/PRINTER_A.c ****     *  (0x0A) to the transmit buffer.
1215:Generated_Source\PSoC5/PRINTER_A.c ****     *
1216:Generated_Source\PSoC5/PRINTER_A.c ****     * Parameters:
1217:Generated_Source\PSoC5/PRINTER_A.c ****     *  txDataByte: Data byte to transmit before the carriage return and line feed.
1218:Generated_Source\PSoC5/PRINTER_A.c ****     *
1219:Generated_Source\PSoC5/PRINTER_A.c ****     * Return:
1220:Generated_Source\PSoC5/PRINTER_A.c ****     *  None.
1221:Generated_Source\PSoC5/PRINTER_A.c ****     *
1222:Generated_Source\PSoC5/PRINTER_A.c ****     * Global Variables:
1223:Generated_Source\PSoC5/PRINTER_A.c ****     *  PRINTER_A_initVar - checked to identify that the component has been
1224:Generated_Source\PSoC5/PRINTER_A.c ****     *     initialized.
1225:Generated_Source\PSoC5/PRINTER_A.c ****     *
1226:Generated_Source\PSoC5/PRINTER_A.c ****     * Reentrant:
1227:Generated_Source\PSoC5/PRINTER_A.c ****     *  No.
1228:Generated_Source\PSoC5/PRINTER_A.c ****     *
1229:Generated_Source\PSoC5/PRINTER_A.c ****     *******************************************************************************/
1230:Generated_Source\PSoC5/PRINTER_A.c ****     void PRINTER_A_PutCRLF(uint8 txDataByte) 
1231:Generated_Source\PSoC5/PRINTER_A.c ****     {
 788              		.loc 1 1231 0
 789              		.cfi_startproc
 790              		@ args = 0, pretend = 0, frame = 8
 791              		@ frame_needed = 1, uses_anonymous_args = 0
 792 0000 80B5     		push	{r7, lr}
 793              		.cfi_def_cfa_offset 8
 794              		.cfi_offset 7, -8
 795              		.cfi_offset 14, -4
 796 0002 82B0     		sub	sp, sp, #8
 797              		.cfi_def_cfa_offset 16
 798 0004 00AF     		add	r7, sp, #0
 799              		.cfi_def_cfa_register 7
 800 0006 0346     		mov	r3, r0
 801 0008 FB71     		strb	r3, [r7, #7]
1232:Generated_Source\PSoC5/PRINTER_A.c ****         /* If not Initialized then skip this function */
1233:Generated_Source\PSoC5/PRINTER_A.c ****         if(PRINTER_A_initVar != 0u)
 802              		.loc 1 1233 0
 803 000a 094B     		ldr	r3, .L59
 804 000c 1B78     		ldrb	r3, [r3]	@ zero_extendqisi2
 805 000e 002B     		cmp	r3, #0
 806 0010 09D0     		beq	.L58
1234:Generated_Source\PSoC5/PRINTER_A.c ****         {
ARM GAS  C:\Users\Mery\AppData\Local\Temp\ccXmhN3c.s 			page 37


1235:Generated_Source\PSoC5/PRINTER_A.c ****             PRINTER_A_PutChar(txDataByte);
 807              		.loc 1 1235 0
 808 0012 FB79     		ldrb	r3, [r7, #7]	@ zero_extendqisi2
 809 0014 1846     		mov	r0, r3
 810 0016 FFF7FEFF 		bl	PRINTER_A_PutChar
1236:Generated_Source\PSoC5/PRINTER_A.c ****             PRINTER_A_PutChar(0x0Du);
 811              		.loc 1 1236 0
 812 001a 0D20     		movs	r0, #13
 813 001c FFF7FEFF 		bl	PRINTER_A_PutChar
1237:Generated_Source\PSoC5/PRINTER_A.c ****             PRINTER_A_PutChar(0x0Au);
 814              		.loc 1 1237 0
 815 0020 0A20     		movs	r0, #10
 816 0022 FFF7FEFF 		bl	PRINTER_A_PutChar
 817              	.L58:
1238:Generated_Source\PSoC5/PRINTER_A.c ****         }
1239:Generated_Source\PSoC5/PRINTER_A.c ****     }
 818              		.loc 1 1239 0
 819 0026 00BF     		nop
 820 0028 0837     		adds	r7, r7, #8
 821              		.cfi_def_cfa_offset 8
 822 002a BD46     		mov	sp, r7
 823              		.cfi_def_cfa_register 13
 824              		@ sp needed
 825 002c 80BD     		pop	{r7, pc}
 826              	.L60:
 827 002e 00BF     		.align	2
 828              	.L59:
 829 0030 00000000 		.word	PRINTER_A_initVar
 830              		.cfi_endproc
 831              	.LFE12:
 832              		.size	PRINTER_A_PutCRLF, .-PRINTER_A_PutCRLF
 833              		.section	.text.PRINTER_A_GetTxBufferSize,"ax",%progbits
 834              		.align	2
 835              		.global	PRINTER_A_GetTxBufferSize
 836              		.thumb
 837              		.thumb_func
 838              		.type	PRINTER_A_GetTxBufferSize, %function
 839              	PRINTER_A_GetTxBufferSize:
 840              	.LFB13:
1240:Generated_Source\PSoC5/PRINTER_A.c **** 
1241:Generated_Source\PSoC5/PRINTER_A.c **** 
1242:Generated_Source\PSoC5/PRINTER_A.c ****     /*******************************************************************************
1243:Generated_Source\PSoC5/PRINTER_A.c ****     * Function Name: PRINTER_A_GetTxBufferSize
1244:Generated_Source\PSoC5/PRINTER_A.c ****     ********************************************************************************
1245:Generated_Source\PSoC5/PRINTER_A.c ****     *
1246:Generated_Source\PSoC5/PRINTER_A.c ****     * Summary:
1247:Generated_Source\PSoC5/PRINTER_A.c ****     *  Returns the number of bytes in the TX buffer which are waiting to be 
1248:Generated_Source\PSoC5/PRINTER_A.c ****     *  transmitted.
1249:Generated_Source\PSoC5/PRINTER_A.c ****     *  * TX software buffer is disabled (TX Buffer Size parameter is equal to 4): 
1250:Generated_Source\PSoC5/PRINTER_A.c ****     *    returns 0 for empty TX FIFO, 1 for not full TX FIFO or 4 for full TX FIFO.
1251:Generated_Source\PSoC5/PRINTER_A.c ****     *  * TX software buffer is enabled: returns the number of bytes in the TX 
1252:Generated_Source\PSoC5/PRINTER_A.c ****     *    software buffer which are waiting to be transmitted. Bytes available in the
1253:Generated_Source\PSoC5/PRINTER_A.c ****     *    TX FIFO do not count.
1254:Generated_Source\PSoC5/PRINTER_A.c ****     *
1255:Generated_Source\PSoC5/PRINTER_A.c ****     * Parameters:
1256:Generated_Source\PSoC5/PRINTER_A.c ****     *  None.
1257:Generated_Source\PSoC5/PRINTER_A.c ****     *
ARM GAS  C:\Users\Mery\AppData\Local\Temp\ccXmhN3c.s 			page 38


1258:Generated_Source\PSoC5/PRINTER_A.c ****     * Return:
1259:Generated_Source\PSoC5/PRINTER_A.c ****     *  Number of bytes used in the TX buffer. Return value type depends on the TX 
1260:Generated_Source\PSoC5/PRINTER_A.c ****     *  Buffer Size parameter.
1261:Generated_Source\PSoC5/PRINTER_A.c ****     *
1262:Generated_Source\PSoC5/PRINTER_A.c ****     * Global Variables:
1263:Generated_Source\PSoC5/PRINTER_A.c ****     *  PRINTER_A_txBufferWrite - used to calculate left space.
1264:Generated_Source\PSoC5/PRINTER_A.c ****     *  PRINTER_A_txBufferRead - used to calculate left space.
1265:Generated_Source\PSoC5/PRINTER_A.c ****     *
1266:Generated_Source\PSoC5/PRINTER_A.c ****     * Reentrant:
1267:Generated_Source\PSoC5/PRINTER_A.c ****     *  No.
1268:Generated_Source\PSoC5/PRINTER_A.c ****     *
1269:Generated_Source\PSoC5/PRINTER_A.c ****     * Theory:
1270:Generated_Source\PSoC5/PRINTER_A.c ****     *  Allows the user to find out how full the TX Buffer is.
1271:Generated_Source\PSoC5/PRINTER_A.c ****     *
1272:Generated_Source\PSoC5/PRINTER_A.c ****     *******************************************************************************/
1273:Generated_Source\PSoC5/PRINTER_A.c ****     uint8 PRINTER_A_GetTxBufferSize(void)
1274:Generated_Source\PSoC5/PRINTER_A.c ****                                                             
1275:Generated_Source\PSoC5/PRINTER_A.c ****     {
 841              		.loc 1 1275 0
 842              		.cfi_startproc
 843              		@ args = 0, pretend = 0, frame = 8
 844              		@ frame_needed = 1, uses_anonymous_args = 0
 845              		@ link register save eliminated.
 846 0000 80B4     		push	{r7}
 847              		.cfi_def_cfa_offset 4
 848              		.cfi_offset 7, -4
 849 0002 83B0     		sub	sp, sp, #12
 850              		.cfi_def_cfa_offset 16
 851 0004 00AF     		add	r7, sp, #0
 852              		.cfi_def_cfa_register 7
1276:Generated_Source\PSoC5/PRINTER_A.c ****         uint8 size;
1277:Generated_Source\PSoC5/PRINTER_A.c **** 
1278:Generated_Source\PSoC5/PRINTER_A.c ****     #if (PRINTER_A_TX_INTERRUPT_ENABLED)
1279:Generated_Source\PSoC5/PRINTER_A.c **** 
1280:Generated_Source\PSoC5/PRINTER_A.c ****         /* Protect variables that could change on interrupt. */
1281:Generated_Source\PSoC5/PRINTER_A.c ****         PRINTER_A_DisableTxInt();
 853              		.loc 1 1281 0
 854 0006 174B     		ldr	r3, .L66
 855 0008 0422     		movs	r2, #4
 856 000a 1A60     		str	r2, [r3]
1282:Generated_Source\PSoC5/PRINTER_A.c **** 
1283:Generated_Source\PSoC5/PRINTER_A.c ****         if(PRINTER_A_txBufferRead == PRINTER_A_txBufferWrite)
 857              		.loc 1 1283 0
 858 000c 164B     		ldr	r3, .L66+4
 859 000e 1B78     		ldrb	r3, [r3]
 860 0010 DAB2     		uxtb	r2, r3
 861 0012 164B     		ldr	r3, .L66+8
 862 0014 1B78     		ldrb	r3, [r3]	@ zero_extendqisi2
 863 0016 9A42     		cmp	r2, r3
 864 0018 02D1     		bne	.L62
1284:Generated_Source\PSoC5/PRINTER_A.c ****         {
1285:Generated_Source\PSoC5/PRINTER_A.c ****             size = 0u;
 865              		.loc 1 1285 0
 866 001a 0023     		movs	r3, #0
 867 001c FB71     		strb	r3, [r7, #7]
 868 001e 17E0     		b	.L63
 869              	.L62:
ARM GAS  C:\Users\Mery\AppData\Local\Temp\ccXmhN3c.s 			page 39


1286:Generated_Source\PSoC5/PRINTER_A.c ****         }
1287:Generated_Source\PSoC5/PRINTER_A.c ****         else if(PRINTER_A_txBufferRead < PRINTER_A_txBufferWrite)
 870              		.loc 1 1287 0
 871 0020 114B     		ldr	r3, .L66+4
 872 0022 1B78     		ldrb	r3, [r3]
 873 0024 DAB2     		uxtb	r2, r3
 874 0026 114B     		ldr	r3, .L66+8
 875 0028 1B78     		ldrb	r3, [r3]	@ zero_extendqisi2
 876 002a 9A42     		cmp	r2, r3
 877 002c 07D2     		bcs	.L64
1288:Generated_Source\PSoC5/PRINTER_A.c ****         {
1289:Generated_Source\PSoC5/PRINTER_A.c ****             size = (PRINTER_A_txBufferWrite - PRINTER_A_txBufferRead);
 878              		.loc 1 1289 0
 879 002e 0F4B     		ldr	r3, .L66+8
 880 0030 1A78     		ldrb	r2, [r3]	@ zero_extendqisi2
 881 0032 0D4B     		ldr	r3, .L66+4
 882 0034 1B78     		ldrb	r3, [r3]
 883 0036 DBB2     		uxtb	r3, r3
 884 0038 D31A     		subs	r3, r2, r3
 885 003a FB71     		strb	r3, [r7, #7]
 886 003c 08E0     		b	.L63
 887              	.L64:
1290:Generated_Source\PSoC5/PRINTER_A.c ****         }
1291:Generated_Source\PSoC5/PRINTER_A.c ****         else
1292:Generated_Source\PSoC5/PRINTER_A.c ****         {
1293:Generated_Source\PSoC5/PRINTER_A.c ****             size = (PRINTER_A_TX_BUFFER_SIZE - PRINTER_A_txBufferRead) +
 888              		.loc 1 1293 0
 889 003e 0B4B     		ldr	r3, .L66+8
 890 0040 1A78     		ldrb	r2, [r3]	@ zero_extendqisi2
 891 0042 094B     		ldr	r3, .L66+4
 892 0044 1B78     		ldrb	r3, [r3]
 893 0046 DBB2     		uxtb	r3, r3
 894 0048 D31A     		subs	r3, r2, r3
 895 004a DBB2     		uxtb	r3, r3
 896 004c 0533     		adds	r3, r3, #5
 897 004e FB71     		strb	r3, [r7, #7]
 898              	.L63:
1294:Generated_Source\PSoC5/PRINTER_A.c ****                     PRINTER_A_txBufferWrite;
1295:Generated_Source\PSoC5/PRINTER_A.c ****         }
1296:Generated_Source\PSoC5/PRINTER_A.c **** 
1297:Generated_Source\PSoC5/PRINTER_A.c ****         PRINTER_A_EnableTxInt();
 899              		.loc 1 1297 0
 900 0050 074B     		ldr	r3, .L66+12
 901 0052 0422     		movs	r2, #4
 902 0054 1A60     		str	r2, [r3]
1298:Generated_Source\PSoC5/PRINTER_A.c **** 
1299:Generated_Source\PSoC5/PRINTER_A.c ****     #else
1300:Generated_Source\PSoC5/PRINTER_A.c **** 
1301:Generated_Source\PSoC5/PRINTER_A.c ****         size = PRINTER_A_TXSTATUS_REG;
1302:Generated_Source\PSoC5/PRINTER_A.c **** 
1303:Generated_Source\PSoC5/PRINTER_A.c ****         /* Is the fifo is full. */
1304:Generated_Source\PSoC5/PRINTER_A.c ****         if((size & PRINTER_A_TX_STS_FIFO_FULL) != 0u)
1305:Generated_Source\PSoC5/PRINTER_A.c ****         {
1306:Generated_Source\PSoC5/PRINTER_A.c ****             size = PRINTER_A_FIFO_LENGTH;
1307:Generated_Source\PSoC5/PRINTER_A.c ****         }
1308:Generated_Source\PSoC5/PRINTER_A.c ****         else if((size & PRINTER_A_TX_STS_FIFO_EMPTY) != 0u)
1309:Generated_Source\PSoC5/PRINTER_A.c ****         {
ARM GAS  C:\Users\Mery\AppData\Local\Temp\ccXmhN3c.s 			page 40


1310:Generated_Source\PSoC5/PRINTER_A.c ****             size = 0u;
1311:Generated_Source\PSoC5/PRINTER_A.c ****         }
1312:Generated_Source\PSoC5/PRINTER_A.c ****         else
1313:Generated_Source\PSoC5/PRINTER_A.c ****         {
1314:Generated_Source\PSoC5/PRINTER_A.c ****             /* We only know there is data in the fifo. */
1315:Generated_Source\PSoC5/PRINTER_A.c ****             size = 1u;
1316:Generated_Source\PSoC5/PRINTER_A.c ****         }
1317:Generated_Source\PSoC5/PRINTER_A.c **** 
1318:Generated_Source\PSoC5/PRINTER_A.c ****     #endif /* (PRINTER_A_TX_INTERRUPT_ENABLED) */
1319:Generated_Source\PSoC5/PRINTER_A.c **** 
1320:Generated_Source\PSoC5/PRINTER_A.c ****     return(size);
 903              		.loc 1 1320 0
 904 0056 FB79     		ldrb	r3, [r7, #7]	@ zero_extendqisi2
1321:Generated_Source\PSoC5/PRINTER_A.c ****     }
 905              		.loc 1 1321 0
 906 0058 1846     		mov	r0, r3
 907 005a 0C37     		adds	r7, r7, #12
 908              		.cfi_def_cfa_offset 4
 909 005c BD46     		mov	sp, r7
 910              		.cfi_def_cfa_register 13
 911              		@ sp needed
 912 005e 80BC     		pop	{r7}
 913              		.cfi_restore 7
 914              		.cfi_def_cfa_offset 0
 915 0060 7047     		bx	lr
 916              	.L67:
 917 0062 00BF     		.align	2
 918              	.L66:
 919 0064 80E100E0 		.word	-536813184
 920 0068 00000000 		.word	PRINTER_A_txBufferRead
 921 006c 00000000 		.word	PRINTER_A_txBufferWrite
 922 0070 00E100E0 		.word	-536813312
 923              		.cfi_endproc
 924              	.LFE13:
 925              		.size	PRINTER_A_GetTxBufferSize, .-PRINTER_A_GetTxBufferSize
 926              		.section	.text.PRINTER_A_ClearTxBuffer,"ax",%progbits
 927              		.align	2
 928              		.global	PRINTER_A_ClearTxBuffer
 929              		.thumb
 930              		.thumb_func
 931              		.type	PRINTER_A_ClearTxBuffer, %function
 932              	PRINTER_A_ClearTxBuffer:
 933              	.LFB14:
1322:Generated_Source\PSoC5/PRINTER_A.c **** 
1323:Generated_Source\PSoC5/PRINTER_A.c **** 
1324:Generated_Source\PSoC5/PRINTER_A.c ****     /*******************************************************************************
1325:Generated_Source\PSoC5/PRINTER_A.c ****     * Function Name: PRINTER_A_ClearTxBuffer
1326:Generated_Source\PSoC5/PRINTER_A.c ****     ********************************************************************************
1327:Generated_Source\PSoC5/PRINTER_A.c ****     *
1328:Generated_Source\PSoC5/PRINTER_A.c ****     * Summary:
1329:Generated_Source\PSoC5/PRINTER_A.c ****     *  Clears all data from the TX buffer and hardware TX FIFO.
1330:Generated_Source\PSoC5/PRINTER_A.c ****     *
1331:Generated_Source\PSoC5/PRINTER_A.c ****     * Parameters:
1332:Generated_Source\PSoC5/PRINTER_A.c ****     *  None.
1333:Generated_Source\PSoC5/PRINTER_A.c ****     *
1334:Generated_Source\PSoC5/PRINTER_A.c ****     * Return:
1335:Generated_Source\PSoC5/PRINTER_A.c ****     *  None.
ARM GAS  C:\Users\Mery\AppData\Local\Temp\ccXmhN3c.s 			page 41


1336:Generated_Source\PSoC5/PRINTER_A.c ****     *
1337:Generated_Source\PSoC5/PRINTER_A.c ****     * Global Variables:
1338:Generated_Source\PSoC5/PRINTER_A.c ****     *  PRINTER_A_txBufferWrite - cleared to zero.
1339:Generated_Source\PSoC5/PRINTER_A.c ****     *  PRINTER_A_txBufferRead - cleared to zero.
1340:Generated_Source\PSoC5/PRINTER_A.c ****     *
1341:Generated_Source\PSoC5/PRINTER_A.c ****     * Reentrant:
1342:Generated_Source\PSoC5/PRINTER_A.c ****     *  No.
1343:Generated_Source\PSoC5/PRINTER_A.c ****     *
1344:Generated_Source\PSoC5/PRINTER_A.c ****     * Theory:
1345:Generated_Source\PSoC5/PRINTER_A.c ****     *  Setting the pointers to zero makes the system believe there is no data to
1346:Generated_Source\PSoC5/PRINTER_A.c ****     *  read and writing will resume at address 0 overwriting any data that may have
1347:Generated_Source\PSoC5/PRINTER_A.c ****     *  remained in the RAM.
1348:Generated_Source\PSoC5/PRINTER_A.c ****     *
1349:Generated_Source\PSoC5/PRINTER_A.c ****     * Side Effects:
1350:Generated_Source\PSoC5/PRINTER_A.c ****     *  Data waiting in the transmit buffer is not sent; a byte that is currently
1351:Generated_Source\PSoC5/PRINTER_A.c ****     *  transmitting finishes transmitting.
1352:Generated_Source\PSoC5/PRINTER_A.c ****     *
1353:Generated_Source\PSoC5/PRINTER_A.c ****     *******************************************************************************/
1354:Generated_Source\PSoC5/PRINTER_A.c ****     void PRINTER_A_ClearTxBuffer(void) 
1355:Generated_Source\PSoC5/PRINTER_A.c ****     {
 934              		.loc 1 1355 0
 935              		.cfi_startproc
 936              		@ args = 0, pretend = 0, frame = 8
 937              		@ frame_needed = 1, uses_anonymous_args = 0
 938 0000 80B5     		push	{r7, lr}
 939              		.cfi_def_cfa_offset 8
 940              		.cfi_offset 7, -8
 941              		.cfi_offset 14, -4
 942 0002 82B0     		sub	sp, sp, #8
 943              		.cfi_def_cfa_offset 16
 944 0004 00AF     		add	r7, sp, #0
 945              		.cfi_def_cfa_register 7
1356:Generated_Source\PSoC5/PRINTER_A.c ****         uint8 enableInterrupts;
1357:Generated_Source\PSoC5/PRINTER_A.c **** 
1358:Generated_Source\PSoC5/PRINTER_A.c ****         enableInterrupts = CyEnterCriticalSection();
 946              		.loc 1 1358 0
 947 0006 FFF7FEFF 		bl	CyEnterCriticalSection
 948 000a 0346     		mov	r3, r0
 949 000c FB71     		strb	r3, [r7, #7]
1359:Generated_Source\PSoC5/PRINTER_A.c ****         /* Clear the HW FIFO */
1360:Generated_Source\PSoC5/PRINTER_A.c ****         PRINTER_A_TXDATA_AUX_CTL_REG |= (uint8)  PRINTER_A_TX_FIFO_CLR;
 950              		.loc 1 1360 0
 951 000e 124A     		ldr	r2, .L69
 952 0010 114B     		ldr	r3, .L69
 953 0012 1B78     		ldrb	r3, [r3]
 954 0014 DBB2     		uxtb	r3, r3
 955 0016 43F00103 		orr	r3, r3, #1
 956 001a DBB2     		uxtb	r3, r3
 957 001c 1370     		strb	r3, [r2]
1361:Generated_Source\PSoC5/PRINTER_A.c ****         PRINTER_A_TXDATA_AUX_CTL_REG &= (uint8) ~PRINTER_A_TX_FIFO_CLR;
 958              		.loc 1 1361 0
 959 001e 0E4A     		ldr	r2, .L69
 960 0020 0D4B     		ldr	r3, .L69
 961 0022 1B78     		ldrb	r3, [r3]
 962 0024 DBB2     		uxtb	r3, r3
 963 0026 23F00103 		bic	r3, r3, #1
 964 002a DBB2     		uxtb	r3, r3
ARM GAS  C:\Users\Mery\AppData\Local\Temp\ccXmhN3c.s 			page 42


 965 002c 1370     		strb	r3, [r2]
1362:Generated_Source\PSoC5/PRINTER_A.c ****         CyExitCriticalSection(enableInterrupts);
 966              		.loc 1 1362 0
 967 002e FB79     		ldrb	r3, [r7, #7]	@ zero_extendqisi2
 968 0030 1846     		mov	r0, r3
 969 0032 FFF7FEFF 		bl	CyExitCriticalSection
1363:Generated_Source\PSoC5/PRINTER_A.c **** 
1364:Generated_Source\PSoC5/PRINTER_A.c ****     #if (PRINTER_A_TX_INTERRUPT_ENABLED)
1365:Generated_Source\PSoC5/PRINTER_A.c **** 
1366:Generated_Source\PSoC5/PRINTER_A.c ****         /* Protect variables that could change on interrupt. */
1367:Generated_Source\PSoC5/PRINTER_A.c ****         PRINTER_A_DisableTxInt();
 970              		.loc 1 1367 0
 971 0036 094B     		ldr	r3, .L69+4
 972 0038 0422     		movs	r2, #4
 973 003a 1A60     		str	r2, [r3]
1368:Generated_Source\PSoC5/PRINTER_A.c **** 
1369:Generated_Source\PSoC5/PRINTER_A.c ****         PRINTER_A_txBufferRead = 0u;
 974              		.loc 1 1369 0
 975 003c 084B     		ldr	r3, .L69+8
 976 003e 0022     		movs	r2, #0
 977 0040 1A70     		strb	r2, [r3]
1370:Generated_Source\PSoC5/PRINTER_A.c ****         PRINTER_A_txBufferWrite = 0u;
 978              		.loc 1 1370 0
 979 0042 084B     		ldr	r3, .L69+12
 980 0044 0022     		movs	r2, #0
 981 0046 1A70     		strb	r2, [r3]
1371:Generated_Source\PSoC5/PRINTER_A.c **** 
1372:Generated_Source\PSoC5/PRINTER_A.c ****         /* Enable Tx interrupt. */
1373:Generated_Source\PSoC5/PRINTER_A.c ****         PRINTER_A_EnableTxInt();
 982              		.loc 1 1373 0
 983 0048 074B     		ldr	r3, .L69+16
 984 004a 0422     		movs	r2, #4
 985 004c 1A60     		str	r2, [r3]
1374:Generated_Source\PSoC5/PRINTER_A.c **** 
1375:Generated_Source\PSoC5/PRINTER_A.c ****     #endif /* (PRINTER_A_TX_INTERRUPT_ENABLED) */
1376:Generated_Source\PSoC5/PRINTER_A.c ****     }
 986              		.loc 1 1376 0
 987 004e 00BF     		nop
 988 0050 0837     		adds	r7, r7, #8
 989              		.cfi_def_cfa_offset 8
 990 0052 BD46     		mov	sp, r7
 991              		.cfi_def_cfa_register 13
 992              		@ sp needed
 993 0054 80BD     		pop	{r7, pc}
 994              	.L70:
 995 0056 00BF     		.align	2
 996              	.L69:
 997 0058 96640040 		.word	1073767574
 998 005c 80E100E0 		.word	-536813184
 999 0060 00000000 		.word	PRINTER_A_txBufferRead
 1000 0064 00000000 		.word	PRINTER_A_txBufferWrite
 1001 0068 00E100E0 		.word	-536813312
 1002              		.cfi_endproc
 1003              	.LFE14:
 1004              		.size	PRINTER_A_ClearTxBuffer, .-PRINTER_A_ClearTxBuffer
 1005              		.section	.text.PRINTER_A_SendBreak,"ax",%progbits
 1006              		.align	2
ARM GAS  C:\Users\Mery\AppData\Local\Temp\ccXmhN3c.s 			page 43


 1007              		.global	PRINTER_A_SendBreak
 1008              		.thumb
 1009              		.thumb_func
 1010              		.type	PRINTER_A_SendBreak, %function
 1011              	PRINTER_A_SendBreak:
 1012              	.LFB15:
1377:Generated_Source\PSoC5/PRINTER_A.c **** 
1378:Generated_Source\PSoC5/PRINTER_A.c **** 
1379:Generated_Source\PSoC5/PRINTER_A.c ****     /*******************************************************************************
1380:Generated_Source\PSoC5/PRINTER_A.c ****     * Function Name: PRINTER_A_SendBreak
1381:Generated_Source\PSoC5/PRINTER_A.c ****     ********************************************************************************
1382:Generated_Source\PSoC5/PRINTER_A.c ****     *
1383:Generated_Source\PSoC5/PRINTER_A.c ****     * Summary:
1384:Generated_Source\PSoC5/PRINTER_A.c ****     *  Transmits a break signal on the bus.
1385:Generated_Source\PSoC5/PRINTER_A.c ****     *
1386:Generated_Source\PSoC5/PRINTER_A.c ****     * Parameters:
1387:Generated_Source\PSoC5/PRINTER_A.c ****     *  uint8 retMode:  Send Break return mode. See the following table for options.
1388:Generated_Source\PSoC5/PRINTER_A.c ****     *   PRINTER_A_SEND_BREAK - Initialize registers for break, send the Break
1389:Generated_Source\PSoC5/PRINTER_A.c ****     *       signal and return immediately.
1390:Generated_Source\PSoC5/PRINTER_A.c ****     *   PRINTER_A_WAIT_FOR_COMPLETE_REINIT - Wait until break transmission is
1391:Generated_Source\PSoC5/PRINTER_A.c ****     *       complete, reinitialize registers to normal transmission mode then return
1392:Generated_Source\PSoC5/PRINTER_A.c ****     *   PRINTER_A_REINIT - Reinitialize registers to normal transmission mode
1393:Generated_Source\PSoC5/PRINTER_A.c ****     *       then return.
1394:Generated_Source\PSoC5/PRINTER_A.c ****     *   PRINTER_A_SEND_WAIT_REINIT - Performs both options: 
1395:Generated_Source\PSoC5/PRINTER_A.c ****     *      PRINTER_A_SEND_BREAK and PRINTER_A_WAIT_FOR_COMPLETE_REINIT.
1396:Generated_Source\PSoC5/PRINTER_A.c ****     *      This option is recommended for most cases.
1397:Generated_Source\PSoC5/PRINTER_A.c ****     *
1398:Generated_Source\PSoC5/PRINTER_A.c ****     * Return:
1399:Generated_Source\PSoC5/PRINTER_A.c ****     *  None.
1400:Generated_Source\PSoC5/PRINTER_A.c ****     *
1401:Generated_Source\PSoC5/PRINTER_A.c ****     * Global Variables:
1402:Generated_Source\PSoC5/PRINTER_A.c ****     *  PRINTER_A_initVar - checked to identify that the component has been
1403:Generated_Source\PSoC5/PRINTER_A.c ****     *     initialized.
1404:Generated_Source\PSoC5/PRINTER_A.c ****     *  txPeriod - static variable, used for keeping TX period configuration.
1405:Generated_Source\PSoC5/PRINTER_A.c ****     *
1406:Generated_Source\PSoC5/PRINTER_A.c ****     * Reentrant:
1407:Generated_Source\PSoC5/PRINTER_A.c ****     *  No.
1408:Generated_Source\PSoC5/PRINTER_A.c ****     *
1409:Generated_Source\PSoC5/PRINTER_A.c ****     * Theory:
1410:Generated_Source\PSoC5/PRINTER_A.c ****     *  SendBreak function initializes registers to send 13-bit break signal. It is
1411:Generated_Source\PSoC5/PRINTER_A.c ****     *  important to return the registers configuration to normal for continue 8-bit
1412:Generated_Source\PSoC5/PRINTER_A.c ****     *  operation.
1413:Generated_Source\PSoC5/PRINTER_A.c ****     *  There are 3 variants for this API usage:
1414:Generated_Source\PSoC5/PRINTER_A.c ****     *  1) SendBreak(3) - function will send the Break signal and take care on the
1415:Generated_Source\PSoC5/PRINTER_A.c ****     *     configuration returning. Function will block CPU until transmission
1416:Generated_Source\PSoC5/PRINTER_A.c ****     *     complete.
1417:Generated_Source\PSoC5/PRINTER_A.c ****     *  2) User may want to use blocking time if UART configured to the low speed
1418:Generated_Source\PSoC5/PRINTER_A.c ****     *     operation
1419:Generated_Source\PSoC5/PRINTER_A.c ****     *     Example for this case:
1420:Generated_Source\PSoC5/PRINTER_A.c ****     *     SendBreak(0);     - initialize Break signal transmission
1421:Generated_Source\PSoC5/PRINTER_A.c ****     *         Add your code here to use CPU time
1422:Generated_Source\PSoC5/PRINTER_A.c ****     *     SendBreak(1);     - complete Break operation
1423:Generated_Source\PSoC5/PRINTER_A.c ****     *  3) Same to 2) but user may want to initialize and use the interrupt to
1424:Generated_Source\PSoC5/PRINTER_A.c ****     *     complete break operation.
1425:Generated_Source\PSoC5/PRINTER_A.c ****     *     Example for this case:
1426:Generated_Source\PSoC5/PRINTER_A.c ****     *     Initialize TX interrupt with "TX - On TX Complete" parameter
1427:Generated_Source\PSoC5/PRINTER_A.c ****     *     SendBreak(0);     - initialize Break signal transmission
ARM GAS  C:\Users\Mery\AppData\Local\Temp\ccXmhN3c.s 			page 44


1428:Generated_Source\PSoC5/PRINTER_A.c ****     *         Add your code here to use CPU time
1429:Generated_Source\PSoC5/PRINTER_A.c ****     *     When interrupt appear with PRINTER_A_TX_STS_COMPLETE status:
1430:Generated_Source\PSoC5/PRINTER_A.c ****     *     SendBreak(2);     - complete Break operation
1431:Generated_Source\PSoC5/PRINTER_A.c ****     *
1432:Generated_Source\PSoC5/PRINTER_A.c ****     * Side Effects:
1433:Generated_Source\PSoC5/PRINTER_A.c ****     *  The PRINTER_A_SendBreak() function initializes registers to send a
1434:Generated_Source\PSoC5/PRINTER_A.c ****     *  break signal.
1435:Generated_Source\PSoC5/PRINTER_A.c ****     *  Break signal length depends on the break signal bits configuration.
1436:Generated_Source\PSoC5/PRINTER_A.c ****     *  The register configuration should be reinitialized before normal 8-bit
1437:Generated_Source\PSoC5/PRINTER_A.c ****     *  communication can continue.
1438:Generated_Source\PSoC5/PRINTER_A.c ****     *
1439:Generated_Source\PSoC5/PRINTER_A.c ****     *******************************************************************************/
1440:Generated_Source\PSoC5/PRINTER_A.c ****     void PRINTER_A_SendBreak(uint8 retMode) 
1441:Generated_Source\PSoC5/PRINTER_A.c ****     {
 1013              		.loc 1 1441 0
 1014              		.cfi_startproc
 1015              		@ args = 0, pretend = 0, frame = 16
 1016              		@ frame_needed = 1, uses_anonymous_args = 0
 1017              		@ link register save eliminated.
 1018 0000 80B4     		push	{r7}
 1019              		.cfi_def_cfa_offset 4
 1020              		.cfi_offset 7, -4
 1021 0002 85B0     		sub	sp, sp, #20
 1022              		.cfi_def_cfa_offset 24
 1023 0004 00AF     		add	r7, sp, #0
 1024              		.cfi_def_cfa_register 7
 1025 0006 0346     		mov	r3, r0
 1026 0008 FB71     		strb	r3, [r7, #7]
1442:Generated_Source\PSoC5/PRINTER_A.c **** 
1443:Generated_Source\PSoC5/PRINTER_A.c ****         /* If not Initialized then skip this function*/
1444:Generated_Source\PSoC5/PRINTER_A.c ****         if(PRINTER_A_initVar != 0u)
 1027              		.loc 1 1444 0
 1028 000a 1F4B     		ldr	r3, .L80
 1029 000c 1B78     		ldrb	r3, [r3]	@ zero_extendqisi2
 1030 000e 002B     		cmp	r3, #0
 1031 0010 35D0     		beq	.L79
 1032              	.LBB2:
1445:Generated_Source\PSoC5/PRINTER_A.c ****         {
1446:Generated_Source\PSoC5/PRINTER_A.c ****             /* Set the Counter to 13-bits and transmit a 00 byte */
1447:Generated_Source\PSoC5/PRINTER_A.c ****             /* When that is done then reset the counter value back */
1448:Generated_Source\PSoC5/PRINTER_A.c ****             uint8 tmpStat;
1449:Generated_Source\PSoC5/PRINTER_A.c **** 
1450:Generated_Source\PSoC5/PRINTER_A.c ****         #if(PRINTER_A_HD_ENABLED) /* Half Duplex mode*/
1451:Generated_Source\PSoC5/PRINTER_A.c **** 
1452:Generated_Source\PSoC5/PRINTER_A.c ****             if( (retMode == PRINTER_A_SEND_BREAK) ||
1453:Generated_Source\PSoC5/PRINTER_A.c ****                 (retMode == PRINTER_A_SEND_WAIT_REINIT ) )
1454:Generated_Source\PSoC5/PRINTER_A.c ****             {
1455:Generated_Source\PSoC5/PRINTER_A.c ****                 /* CTRL_HD_SEND_BREAK - sends break bits in HD mode */
1456:Generated_Source\PSoC5/PRINTER_A.c ****                 PRINTER_A_WriteControlRegister(PRINTER_A_ReadControlRegister() |
1457:Generated_Source\PSoC5/PRINTER_A.c ****                                                       PRINTER_A_CTRL_HD_SEND_BREAK);
1458:Generated_Source\PSoC5/PRINTER_A.c ****                 /* Send zeros */
1459:Generated_Source\PSoC5/PRINTER_A.c ****                 PRINTER_A_TXDATA_REG = 0u;
1460:Generated_Source\PSoC5/PRINTER_A.c **** 
1461:Generated_Source\PSoC5/PRINTER_A.c ****                 do /* Wait until transmit starts */
1462:Generated_Source\PSoC5/PRINTER_A.c ****                 {
1463:Generated_Source\PSoC5/PRINTER_A.c ****                     tmpStat = PRINTER_A_TXSTATUS_REG;
1464:Generated_Source\PSoC5/PRINTER_A.c ****                 }
ARM GAS  C:\Users\Mery\AppData\Local\Temp\ccXmhN3c.s 			page 45


1465:Generated_Source\PSoC5/PRINTER_A.c ****                 while((tmpStat & PRINTER_A_TX_STS_FIFO_EMPTY) != 0u);
1466:Generated_Source\PSoC5/PRINTER_A.c ****             }
1467:Generated_Source\PSoC5/PRINTER_A.c **** 
1468:Generated_Source\PSoC5/PRINTER_A.c ****             if( (retMode == PRINTER_A_WAIT_FOR_COMPLETE_REINIT) ||
1469:Generated_Source\PSoC5/PRINTER_A.c ****                 (retMode == PRINTER_A_SEND_WAIT_REINIT) )
1470:Generated_Source\PSoC5/PRINTER_A.c ****             {
1471:Generated_Source\PSoC5/PRINTER_A.c ****                 do /* Wait until transmit complete */
1472:Generated_Source\PSoC5/PRINTER_A.c ****                 {
1473:Generated_Source\PSoC5/PRINTER_A.c ****                     tmpStat = PRINTER_A_TXSTATUS_REG;
1474:Generated_Source\PSoC5/PRINTER_A.c ****                 }
1475:Generated_Source\PSoC5/PRINTER_A.c ****                 while(((uint8)~tmpStat & PRINTER_A_TX_STS_COMPLETE) != 0u);
1476:Generated_Source\PSoC5/PRINTER_A.c ****             }
1477:Generated_Source\PSoC5/PRINTER_A.c **** 
1478:Generated_Source\PSoC5/PRINTER_A.c ****             if( (retMode == PRINTER_A_WAIT_FOR_COMPLETE_REINIT) ||
1479:Generated_Source\PSoC5/PRINTER_A.c ****                 (retMode == PRINTER_A_REINIT) ||
1480:Generated_Source\PSoC5/PRINTER_A.c ****                 (retMode == PRINTER_A_SEND_WAIT_REINIT) )
1481:Generated_Source\PSoC5/PRINTER_A.c ****             {
1482:Generated_Source\PSoC5/PRINTER_A.c ****                 PRINTER_A_WriteControlRegister(PRINTER_A_ReadControlRegister() &
1483:Generated_Source\PSoC5/PRINTER_A.c ****                                               (uint8)~PRINTER_A_CTRL_HD_SEND_BREAK);
1484:Generated_Source\PSoC5/PRINTER_A.c ****             }
1485:Generated_Source\PSoC5/PRINTER_A.c **** 
1486:Generated_Source\PSoC5/PRINTER_A.c ****         #else /* PRINTER_A_HD_ENABLED Full Duplex mode */
1487:Generated_Source\PSoC5/PRINTER_A.c **** 
1488:Generated_Source\PSoC5/PRINTER_A.c ****             static uint8 txPeriod;
1489:Generated_Source\PSoC5/PRINTER_A.c **** 
1490:Generated_Source\PSoC5/PRINTER_A.c ****             if( (retMode == PRINTER_A_SEND_BREAK) ||
 1033              		.loc 1 1490 0
 1034 0012 FB79     		ldrb	r3, [r7, #7]	@ zero_extendqisi2
 1035 0014 002B     		cmp	r3, #0
 1036 0016 02D0     		beq	.L73
 1037              		.loc 1 1490 0 is_stmt 0 discriminator 1
 1038 0018 FB79     		ldrb	r3, [r7, #7]	@ zero_extendqisi2
 1039 001a 032B     		cmp	r3, #3
 1040 001c 12D1     		bne	.L74
 1041              	.L73:
1491:Generated_Source\PSoC5/PRINTER_A.c ****                 (retMode == PRINTER_A_SEND_WAIT_REINIT) )
1492:Generated_Source\PSoC5/PRINTER_A.c ****             {
1493:Generated_Source\PSoC5/PRINTER_A.c ****                 /* CTRL_HD_SEND_BREAK - skip to send parity bit at Break signal in Full Duplex mode
1494:Generated_Source\PSoC5/PRINTER_A.c ****                 #if( (PRINTER_A_PARITY_TYPE != PRINTER_A__B_UART__NONE_REVB) || \
1495:Generated_Source\PSoC5/PRINTER_A.c ****                                     (PRINTER_A_PARITY_TYPE_SW != 0u) )
1496:Generated_Source\PSoC5/PRINTER_A.c ****                     PRINTER_A_WriteControlRegister(PRINTER_A_ReadControlRegister() |
1497:Generated_Source\PSoC5/PRINTER_A.c ****                                                           PRINTER_A_CTRL_HD_SEND_BREAK);
1498:Generated_Source\PSoC5/PRINTER_A.c ****                 #endif /* End PRINTER_A_PARITY_TYPE != PRINTER_A__B_UART__NONE_REVB  */
1499:Generated_Source\PSoC5/PRINTER_A.c **** 
1500:Generated_Source\PSoC5/PRINTER_A.c ****                 #if(PRINTER_A_TXCLKGEN_DP)
1501:Generated_Source\PSoC5/PRINTER_A.c ****                     txPeriod = PRINTER_A_TXBITCLKTX_COMPLETE_REG;
 1042              		.loc 1 1501 0 is_stmt 1
 1043 001e 1B4B     		ldr	r3, .L80+4
 1044 0020 1B78     		ldrb	r3, [r3]
 1045 0022 DAB2     		uxtb	r2, r3
 1046 0024 1A4B     		ldr	r3, .L80+8
 1047 0026 1A70     		strb	r2, [r3]
1502:Generated_Source\PSoC5/PRINTER_A.c ****                     PRINTER_A_TXBITCLKTX_COMPLETE_REG = PRINTER_A_TXBITCTR_BREAKBITS;
 1048              		.loc 1 1502 0
 1049 0028 184B     		ldr	r3, .L80+4
 1050 002a 6722     		movs	r2, #103
 1051 002c 1A70     		strb	r2, [r3]
ARM GAS  C:\Users\Mery\AppData\Local\Temp\ccXmhN3c.s 			page 46


1503:Generated_Source\PSoC5/PRINTER_A.c ****                 #else
1504:Generated_Source\PSoC5/PRINTER_A.c ****                     txPeriod = PRINTER_A_TXBITCTR_PERIOD_REG;
1505:Generated_Source\PSoC5/PRINTER_A.c ****                     PRINTER_A_TXBITCTR_PERIOD_REG = PRINTER_A_TXBITCTR_BREAKBITS8X;
1506:Generated_Source\PSoC5/PRINTER_A.c ****                 #endif /* End PRINTER_A_TXCLKGEN_DP */
1507:Generated_Source\PSoC5/PRINTER_A.c **** 
1508:Generated_Source\PSoC5/PRINTER_A.c ****                 /* Send zeros */
1509:Generated_Source\PSoC5/PRINTER_A.c ****                 PRINTER_A_TXDATA_REG = 0u;
 1052              		.loc 1 1509 0
 1053 002e 194B     		ldr	r3, .L80+12
 1054 0030 0022     		movs	r2, #0
 1055 0032 1A70     		strb	r2, [r3]
 1056              	.L75:
1510:Generated_Source\PSoC5/PRINTER_A.c **** 
1511:Generated_Source\PSoC5/PRINTER_A.c ****                 do /* Wait until transmit starts */
1512:Generated_Source\PSoC5/PRINTER_A.c ****                 {
1513:Generated_Source\PSoC5/PRINTER_A.c ****                     tmpStat = PRINTER_A_TXSTATUS_REG;
 1057              		.loc 1 1513 0 discriminator 1
 1058 0034 184B     		ldr	r3, .L80+16
 1059 0036 1B78     		ldrb	r3, [r3]
 1060 0038 FB73     		strb	r3, [r7, #15]
1514:Generated_Source\PSoC5/PRINTER_A.c ****                 }
1515:Generated_Source\PSoC5/PRINTER_A.c ****                 while((tmpStat & PRINTER_A_TX_STS_FIFO_EMPTY) != 0u);
 1061              		.loc 1 1515 0 discriminator 1
 1062 003a FB7B     		ldrb	r3, [r7, #15]	@ zero_extendqisi2
 1063 003c 03F00203 		and	r3, r3, #2
 1064 0040 002B     		cmp	r3, #0
 1065 0042 F7D1     		bne	.L75
 1066              	.L74:
1516:Generated_Source\PSoC5/PRINTER_A.c ****             }
1517:Generated_Source\PSoC5/PRINTER_A.c **** 
1518:Generated_Source\PSoC5/PRINTER_A.c ****             if( (retMode == PRINTER_A_WAIT_FOR_COMPLETE_REINIT) ||
 1067              		.loc 1 1518 0
 1068 0044 FB79     		ldrb	r3, [r7, #7]	@ zero_extendqisi2
 1069 0046 012B     		cmp	r3, #1
 1070 0048 02D0     		beq	.L76
 1071              		.loc 1 1518 0 is_stmt 0 discriminator 1
 1072 004a FB79     		ldrb	r3, [r7, #7]	@ zero_extendqisi2
 1073 004c 032B     		cmp	r3, #3
 1074 004e 09D1     		bne	.L77
 1075              	.L76:
1519:Generated_Source\PSoC5/PRINTER_A.c ****                 (retMode == PRINTER_A_SEND_WAIT_REINIT) )
1520:Generated_Source\PSoC5/PRINTER_A.c ****             {
1521:Generated_Source\PSoC5/PRINTER_A.c ****                 do /* Wait until transmit complete */
1522:Generated_Source\PSoC5/PRINTER_A.c ****                 {
1523:Generated_Source\PSoC5/PRINTER_A.c ****                     tmpStat = PRINTER_A_TXSTATUS_REG;
 1076              		.loc 1 1523 0 is_stmt 1 discriminator 1
 1077 0050 114B     		ldr	r3, .L80+16
 1078 0052 1B78     		ldrb	r3, [r3]
 1079 0054 FB73     		strb	r3, [r7, #15]
1524:Generated_Source\PSoC5/PRINTER_A.c ****                 }
1525:Generated_Source\PSoC5/PRINTER_A.c ****                 while(((uint8)~tmpStat & PRINTER_A_TX_STS_COMPLETE) != 0u);
 1080              		.loc 1 1525 0 discriminator 1
 1081 0056 FB7B     		ldrb	r3, [r7, #15]
 1082 0058 DB43     		mvns	r3, r3
 1083 005a DBB2     		uxtb	r3, r3
 1084 005c 03F00103 		and	r3, r3, #1
 1085 0060 002B     		cmp	r3, #0
ARM GAS  C:\Users\Mery\AppData\Local\Temp\ccXmhN3c.s 			page 47


 1086 0062 F5D1     		bne	.L76
 1087              	.L77:
1526:Generated_Source\PSoC5/PRINTER_A.c ****             }
1527:Generated_Source\PSoC5/PRINTER_A.c **** 
1528:Generated_Source\PSoC5/PRINTER_A.c ****             if( (retMode == PRINTER_A_WAIT_FOR_COMPLETE_REINIT) ||
 1088              		.loc 1 1528 0
 1089 0064 FB79     		ldrb	r3, [r7, #7]	@ zero_extendqisi2
 1090 0066 012B     		cmp	r3, #1
 1091 0068 05D0     		beq	.L78
 1092              		.loc 1 1528 0 is_stmt 0 discriminator 1
 1093 006a FB79     		ldrb	r3, [r7, #7]	@ zero_extendqisi2
 1094 006c 022B     		cmp	r3, #2
 1095 006e 02D0     		beq	.L78
1529:Generated_Source\PSoC5/PRINTER_A.c ****                 (retMode == PRINTER_A_REINIT) ||
 1096              		.loc 1 1529 0 is_stmt 1
 1097 0070 FB79     		ldrb	r3, [r7, #7]	@ zero_extendqisi2
 1098 0072 032B     		cmp	r3, #3
 1099 0074 03D1     		bne	.L79
 1100              	.L78:
1530:Generated_Source\PSoC5/PRINTER_A.c ****                 (retMode == PRINTER_A_SEND_WAIT_REINIT) )
1531:Generated_Source\PSoC5/PRINTER_A.c ****             {
1532:Generated_Source\PSoC5/PRINTER_A.c **** 
1533:Generated_Source\PSoC5/PRINTER_A.c ****             #if(PRINTER_A_TXCLKGEN_DP)
1534:Generated_Source\PSoC5/PRINTER_A.c ****                 PRINTER_A_TXBITCLKTX_COMPLETE_REG = txPeriod;
 1101              		.loc 1 1534 0
 1102 0076 054B     		ldr	r3, .L80+4
 1103 0078 054A     		ldr	r2, .L80+8
 1104 007a 1278     		ldrb	r2, [r2]	@ zero_extendqisi2
 1105 007c 1A70     		strb	r2, [r3]
 1106              	.L79:
 1107              	.LBE2:
1535:Generated_Source\PSoC5/PRINTER_A.c ****             #else
1536:Generated_Source\PSoC5/PRINTER_A.c ****                 PRINTER_A_TXBITCTR_PERIOD_REG = txPeriod;
1537:Generated_Source\PSoC5/PRINTER_A.c ****             #endif /* End PRINTER_A_TXCLKGEN_DP */
1538:Generated_Source\PSoC5/PRINTER_A.c **** 
1539:Generated_Source\PSoC5/PRINTER_A.c ****             #if( (PRINTER_A_PARITY_TYPE != PRINTER_A__B_UART__NONE_REVB) || \
1540:Generated_Source\PSoC5/PRINTER_A.c ****                  (PRINTER_A_PARITY_TYPE_SW != 0u) )
1541:Generated_Source\PSoC5/PRINTER_A.c ****                 PRINTER_A_WriteControlRegister(PRINTER_A_ReadControlRegister() &
1542:Generated_Source\PSoC5/PRINTER_A.c ****                                                       (uint8) ~PRINTER_A_CTRL_HD_SEND_BREAK);
1543:Generated_Source\PSoC5/PRINTER_A.c ****             #endif /* End PRINTER_A_PARITY_TYPE != NONE */
1544:Generated_Source\PSoC5/PRINTER_A.c ****             }
1545:Generated_Source\PSoC5/PRINTER_A.c ****         #endif    /* End PRINTER_A_HD_ENABLED */
1546:Generated_Source\PSoC5/PRINTER_A.c ****         }
1547:Generated_Source\PSoC5/PRINTER_A.c ****     }
 1108              		.loc 1 1547 0
 1109 007e 00BF     		nop
 1110 0080 1437     		adds	r7, r7, #20
 1111              		.cfi_def_cfa_offset 4
 1112 0082 BD46     		mov	sp, r7
 1113              		.cfi_def_cfa_register 13
 1114              		@ sp needed
 1115 0084 80BC     		pop	{r7}
 1116              		.cfi_restore 7
 1117              		.cfi_def_cfa_offset 0
 1118 0086 7047     		bx	lr
 1119              	.L81:
 1120              		.align	2
ARM GAS  C:\Users\Mery\AppData\Local\Temp\ccXmhN3c.s 			page 48


 1121              	.L80:
 1122 0088 00000000 		.word	PRINTER_A_initVar
 1123 008c 36650040 		.word	1073767734
 1124 0090 03000000 		.word	txPeriod.5075
 1125 0094 46640040 		.word	1073767494
 1126 0098 66640040 		.word	1073767526
 1127              		.cfi_endproc
 1128              	.LFE15:
 1129              		.size	PRINTER_A_SendBreak, .-PRINTER_A_SendBreak
 1130              		.section	.text.PRINTER_A_SetTxAddressMode,"ax",%progbits
 1131              		.align	2
 1132              		.global	PRINTER_A_SetTxAddressMode
 1133              		.thumb
 1134              		.thumb_func
 1135              		.type	PRINTER_A_SetTxAddressMode, %function
 1136              	PRINTER_A_SetTxAddressMode:
 1137              	.LFB16:
1548:Generated_Source\PSoC5/PRINTER_A.c **** 
1549:Generated_Source\PSoC5/PRINTER_A.c **** 
1550:Generated_Source\PSoC5/PRINTER_A.c ****     /*******************************************************************************
1551:Generated_Source\PSoC5/PRINTER_A.c ****     * Function Name: PRINTER_A_SetTxAddressMode
1552:Generated_Source\PSoC5/PRINTER_A.c ****     ********************************************************************************
1553:Generated_Source\PSoC5/PRINTER_A.c ****     *
1554:Generated_Source\PSoC5/PRINTER_A.c ****     * Summary:
1555:Generated_Source\PSoC5/PRINTER_A.c ****     *  Configures the transmitter to signal the next bytes is address or data.
1556:Generated_Source\PSoC5/PRINTER_A.c ****     *
1557:Generated_Source\PSoC5/PRINTER_A.c ****     * Parameters:
1558:Generated_Source\PSoC5/PRINTER_A.c ****     *  addressMode: 
1559:Generated_Source\PSoC5/PRINTER_A.c ****     *       PRINTER_A_SET_SPACE - Configure the transmitter to send the next
1560:Generated_Source\PSoC5/PRINTER_A.c ****     *                                    byte as a data.
1561:Generated_Source\PSoC5/PRINTER_A.c ****     *       PRINTER_A_SET_MARK  - Configure the transmitter to send the next
1562:Generated_Source\PSoC5/PRINTER_A.c ****     *                                    byte as an address.
1563:Generated_Source\PSoC5/PRINTER_A.c ****     *
1564:Generated_Source\PSoC5/PRINTER_A.c ****     * Return:
1565:Generated_Source\PSoC5/PRINTER_A.c ****     *  None.
1566:Generated_Source\PSoC5/PRINTER_A.c ****     *
1567:Generated_Source\PSoC5/PRINTER_A.c ****     * Side Effects:
1568:Generated_Source\PSoC5/PRINTER_A.c ****     *  This function sets and clears PRINTER_A_CTRL_MARK bit in the Control
1569:Generated_Source\PSoC5/PRINTER_A.c ****     *  register.
1570:Generated_Source\PSoC5/PRINTER_A.c ****     *
1571:Generated_Source\PSoC5/PRINTER_A.c ****     *******************************************************************************/
1572:Generated_Source\PSoC5/PRINTER_A.c ****     void PRINTER_A_SetTxAddressMode(uint8 addressMode) 
1573:Generated_Source\PSoC5/PRINTER_A.c ****     {
 1138              		.loc 1 1573 0
 1139              		.cfi_startproc
 1140              		@ args = 0, pretend = 0, frame = 8
 1141              		@ frame_needed = 1, uses_anonymous_args = 0
 1142              		@ link register save eliminated.
 1143 0000 80B4     		push	{r7}
 1144              		.cfi_def_cfa_offset 4
 1145              		.cfi_offset 7, -4
 1146 0002 83B0     		sub	sp, sp, #12
 1147              		.cfi_def_cfa_offset 16
 1148 0004 00AF     		add	r7, sp, #0
 1149              		.cfi_def_cfa_register 7
 1150 0006 0346     		mov	r3, r0
 1151 0008 FB71     		strb	r3, [r7, #7]
ARM GAS  C:\Users\Mery\AppData\Local\Temp\ccXmhN3c.s 			page 49


1574:Generated_Source\PSoC5/PRINTER_A.c ****         /* Mark/Space sending enable */
1575:Generated_Source\PSoC5/PRINTER_A.c ****         if(addressMode != 0u)
1576:Generated_Source\PSoC5/PRINTER_A.c ****         {
1577:Generated_Source\PSoC5/PRINTER_A.c ****         #if( PRINTER_A_CONTROL_REG_REMOVED == 0u )
1578:Generated_Source\PSoC5/PRINTER_A.c ****             PRINTER_A_WriteControlRegister(PRINTER_A_ReadControlRegister() |
1579:Generated_Source\PSoC5/PRINTER_A.c ****                                                   PRINTER_A_CTRL_MARK);
1580:Generated_Source\PSoC5/PRINTER_A.c ****         #endif /* End PRINTER_A_CONTROL_REG_REMOVED == 0u */
1581:Generated_Source\PSoC5/PRINTER_A.c ****         }
1582:Generated_Source\PSoC5/PRINTER_A.c ****         else
1583:Generated_Source\PSoC5/PRINTER_A.c ****         {
1584:Generated_Source\PSoC5/PRINTER_A.c ****         #if( PRINTER_A_CONTROL_REG_REMOVED == 0u )
1585:Generated_Source\PSoC5/PRINTER_A.c ****             PRINTER_A_WriteControlRegister(PRINTER_A_ReadControlRegister() &
1586:Generated_Source\PSoC5/PRINTER_A.c ****                                                   (uint8) ~PRINTER_A_CTRL_MARK);
1587:Generated_Source\PSoC5/PRINTER_A.c ****         #endif /* End PRINTER_A_CONTROL_REG_REMOVED == 0u */
1588:Generated_Source\PSoC5/PRINTER_A.c ****         }
1589:Generated_Source\PSoC5/PRINTER_A.c ****     }
 1152              		.loc 1 1589 0
 1153 000a 00BF     		nop
 1154 000c 0C37     		adds	r7, r7, #12
 1155              		.cfi_def_cfa_offset 4
 1156 000e BD46     		mov	sp, r7
 1157              		.cfi_def_cfa_register 13
 1158              		@ sp needed
 1159 0010 80BC     		pop	{r7}
 1160              		.cfi_restore 7
 1161              		.cfi_def_cfa_offset 0
 1162 0012 7047     		bx	lr
 1163              		.cfi_endproc
 1164              	.LFE16:
 1165              		.size	PRINTER_A_SetTxAddressMode, .-PRINTER_A_SetTxAddressMode
 1166              		.bss
 1167              	txPeriod.5075:
 1168 0003 00       		.space	1
 1169              		.text
 1170              	.Letext0:
 1171              		.file 2 "Generated_Source\\PSoC5\\cytypes.h"