ARM GAS  C:\Users\Diego\AppData\Local\Temp\ccnYGT0M.s 			page 1


   1              		.syntax unified
   2              		.cpu cortex-m3
   3              		.fpu softvfp
   4              		.eabi_attribute 20, 1
   5              		.eabi_attribute 21, 1
   6              		.eabi_attribute 23, 3
   7              		.eabi_attribute 24, 1
   8              		.eabi_attribute 25, 1
   9              		.eabi_attribute 26, 1
  10              		.eabi_attribute 30, 6
  11              		.eabi_attribute 34, 1
  12              		.eabi_attribute 18, 4
  13              		.thumb
  14              		.syntax unified
  15              		.file	"printer.c"
  16              		.text
  17              	.Ltext0:
  18              		.cfi_sections	.debug_frame
  19              		.comm	PollCounter,2,2
  20              		.comm	CurrentState,1,1
  21              		.comm	Receipt,1,1
  22              		.comm	sale_number,6,4
  23              		.comm	sale_number_copy,6,4
  24              		.comm	int_salenumber,1,1
  25              		.comm	shift_number,6,4
  26              		.comm	int_shiftnumber,1,1
  27              		.comm	LCDhose,1,1
  28              		.comm	side,1236,4
  29              		.comm	MepsanResponse,50,4
  30              		.comm	MepsanSendTo,50,4
  31              		.comm	PumpAddress,15,4
  32              		.comm	GBResponse,50,4
  33              		.comm	CRC,2,2
  34              		.comm	crc_lo,1,1
  35              		.comm	crc_hi,1,1
  36              		.comm	Positions,1,1
  37              		.comm	TotalRequestType,1,1
  38              		.comm	DecVol,1,1
  39              		.comm	touch1,20,4
  40              		.comm	dirGbr,1,1
  41              		.global	LINE_FEED
  42              		.data
  43              		.type	LINE_FEED, %object
  44              		.size	LINE_FEED, 1
  45              	LINE_FEED:
  46 0000 0A       		.byte	10
  47              		.global	VolSimbol
  48 0001 000000   		.align	2
  49              		.type	VolSimbol, %object
  50              		.size	VolSimbol, 1
  51              	VolSimbol:
  52 0004 47       		.ascii	"G"
  53              		.global	msn_EDS
  54 0005 000000   		.align	2
  55              		.type	msn_EDS, %object
  56              		.size	msn_EDS, 32
  57              	msn_EDS:
ARM GAS  C:\Users\Diego\AppData\Local\Temp\ccnYGT0M.s 			page 2


  58 0008 20202020 		.ascii	"      SISPETROL INGENIERIA      "
  58      20205349 
  58      53504554 
  58      524F4C20 
  58      494E4745 
  59              		.global	msn_EDS2
  60              		.align	2
  61              		.type	msn_EDS2, %object
  62              		.size	msn_EDS2, 32
  63              	msn_EDS2:
  64 0028 20202020 		.ascii	"      Soluciones y Equipos      "
  64      2020536F 
  64      6C756369 
  64      6F6E6573 
  64      20792045 
  65              		.global	msn_EDS3
  66              		.align	2
  67              		.type	msn_EDS3, %object
  68              		.size	msn_EDS3, 32
  69              	msn_EDS3:
  70 0048 20202070 		.ascii	"   para Estaciones de Servicio  "
  70      61726120 
  70      45737461 
  70      63696F6E 
  70      65732064 
  71              		.global	msn_EDS4
  72              		.align	2
  73              		.type	msn_EDS4, %object
  74              		.size	msn_EDS4, 32
  75              	msn_EDS4:
  76 0068 2054656C 		.ascii	" Tel: 571 3975916 - 310 5612276 "
  76      3A203537 
  76      31203339 
  76      37353931 
  76      36202D20 
  77              		.global	msn_EDS5
  78              		.align	2
  79              		.type	msn_EDS5, %object
  80              		.size	msn_EDS5, 32
  81              	msn_EDS5:
  82 0088 20202020 		.ascii	"      CRA 82 Bis No 71 - 78     "
  82      20204352 
  82      41203832 
  82      20426973 
  82      204E6F20 
  83              		.global	msn_EDS6
  84              		.align	2
  85              		.type	msn_EDS6, %object
  86              		.size	msn_EDS6, 32
  87              	msn_EDS6:
  88 00a8 20202020 		.ascii	"          BOGOTA D.C.\000"
  88      20202020 
  88      2020424F 
  88      474F5441 
  88      20442E43 
  89 00be 00000000 		.space	10
  89      00000000 
ARM GAS  C:\Users\Diego\AppData\Local\Temp\ccnYGT0M.s 			page 3


  89      0000
  90              		.global	msn_footer
  91              		.align	2
  92              		.type	msn_footer, %object
  93              		.size	msn_footer, 32
  94              	msn_footer:
  95 00c8 20202020 		.ascii	"     GRACIAS POR SU COMPRA      "
  95      20475241 
  95      43494153 
  95      20504F52 
  95      20535520 
  96              		.global	msn_footer2
  97              		.align	2
  98              		.type	msn_footer2, %object
  99              		.size	msn_footer2, 32
 100              	msn_footer2:
 101 00e8 20202020 		.ascii	"          VUELVA PRONTO         "
 101      20202020 
 101      20205655 
 101      454C5641 
 101      2050524F 
 102              		.global	msn_footer3
 103              		.align	2
 104              		.type	msn_footer3, %object
 105              		.size	msn_footer3, 32
 106              	msn_footer3:
 107 0108 4669726D 		.ascii	"Firma:                          "
 107      613A2020 
 107      20202020 
 107      20202020 
 107      20202020 
 108              		.global	msn_footer4
 109              		.align	2
 110              		.type	msn_footer4, %object
 111              		.size	msn_footer4, 32
 112              	msn_footer4:
 113 0128 5F5F5F5F 		.ascii	"________________________________"
 113      5F5F5F5F 
 113      5F5F5F5F 
 113      5F5F5F5F 
 113      5F5F5F5F 
 114              		.global	msn_copy
 115              		.align	2
 116              		.type	msn_copy, %object
 117              		.size	msn_copy, 32
 118              	msn_copy:
 119 0148 20202020 		.ascii	"             COPIA              "
 119      20202020 
 119      20202020 
 119      20434F50 
 119      49412020 
 120              		.global	msn_diesel
 121              		.align	2
 122              		.type	msn_diesel, %object
 123              		.size	msn_diesel, 9
 124              	msn_diesel:
 125 0168 44696573 		.ascii	"Diesel   "
ARM GAS  C:\Users\Diego\AppData\Local\Temp\ccnYGT0M.s 			page 4


 125      656C2020 
 125      20
 126              		.global	msn_gasoline
 127 0171 000000   		.align	2
 128              		.type	msn_gasoline, %object
 129              		.size	msn_gasoline, 9
 130              	msn_gasoline:
 131 0174 436F7272 		.ascii	"Corriente"
 131      69656E74 
 131      65
 132              		.global	msn_fecha
 133 017d 000000   		.align	2
 134              		.type	msn_fecha, %object
 135              		.size	msn_fecha, 13
 136              	msn_fecha:
 137 0180 46656368 		.ascii	"Fecha      : "
 137      61202020 
 137      2020203A 
 137      20
 138              		.global	msn_hora
 139 018d 000000   		.align	2
 140              		.type	msn_hora, %object
 141              		.size	msn_hora, 13
 142              	msn_hora:
 143 0190 486F7261 		.ascii	"Hora       : "
 143      20202020 
 143      2020203A 
 143      20
 144              		.global	msn_placa
 145 019d 000000   		.align	2
 146              		.type	msn_placa, %object
 147              		.size	msn_placa, 13
 148              	msn_placa:
 149 01a0 506C6163 		.ascii	"Placa      : "
 149      61202020 
 149      2020203A 
 149      20
 150              		.global	PRN_MILLEAGE
 151 01ad 000000   		.align	2
 152              		.type	PRN_MILLEAGE, %object
 153              		.size	PRN_MILLEAGE, 13
 154              	PRN_MILLEAGE:
 155 01b0 4B696C6F 		.ascii	"Kilometraje: "
 155      6D657472 
 155      616A653A 
 155      20
 156              		.global	PRN_TRANSTYPE
 157 01bd 000000   		.align	2
 158              		.type	PRN_TRANSTYPE, %object
 159              		.size	PRN_TRANSTYPE, 13
 160              	PRN_TRANSTYPE:
 161 01c0 5469706F 		.ascii	"Tipo       : "
 161      20202020 
 161      2020203A 
 161      20
 162              		.global	msn_pos
 163 01cd 000000   		.align	2
ARM GAS  C:\Users\Diego\AppData\Local\Temp\ccnYGT0M.s 			page 5


 164              		.type	msn_pos, %object
 165              		.size	msn_pos, 13
 166              	msn_pos:
 167 01d0 506F7369 		.ascii	"Posicion   : "
 167      63696F6E 
 167      2020203A 
 167      20
 168              		.global	msn_product
 169 01dd 000000   		.align	2
 170              		.type	msn_product, %object
 171              		.size	msn_product, 13
 172              	msn_product:
 173 01e0 50726F64 		.ascii	"Producto   : "
 173      7563746F 
 173      2020203A 
 173      20
 174              		.global	msn_ppu
 175 01ed 000000   		.align	2
 176              		.type	msn_ppu, %object
 177              		.size	msn_ppu, 13
 178              	msn_ppu:
 179 01f0 50707520 		.ascii	"Ppu        : "
 179      20202020 
 179      2020203A 
 179      20
 180              		.global	msn_vol
 181 01fd 000000   		.align	2
 182              		.type	msn_vol, %object
 183              		.size	msn_vol, 13
 184              	msn_vol:
 185 0200 566F6C75 		.ascii	"Volumen    : "
 185      6D656E20 
 185      2020203A 
 185      20
 186              		.global	msn_voltot
 187 020d 000000   		.align	2
 188              		.type	msn_voltot, %object
 189              		.size	msn_voltot, 13
 190              	msn_voltot:
 191 0210 546F742E 		.ascii	"Tot.Vol    : "
 191      566F6C20 
 191      2020203A 
 191      20
 192              		.global	msn_din
 193 021d 000000   		.align	2
 194              		.type	msn_din, %object
 195              		.size	msn_din, 13
 196              	msn_din:
 197 0220 496D706F 		.ascii	"Importe    : "
 197      72746520 
 197      2020203A 
 197      20
 198              		.global	msn_cierre
 199 022d 000000   		.align	2
 200              		.type	msn_cierre, %object
 201              		.size	msn_cierre, 13
 202              	msn_cierre:
ARM GAS  C:\Users\Diego\AppData\Local\Temp\ccnYGT0M.s 			page 6


 203 0230 43696572 		.ascii	"Cierre No  : "
 203      7265204E 
 203      6F20203A 
 203      20
 204              		.global	msn_venta
 205 023d 000000   		.align	2
 206              		.type	msn_venta, %object
 207              		.size	msn_venta, 13
 208              	msn_venta:
 209 0240 56656E74 		.ascii	"Venta No   : "
 209      61204E6F 
 209      2020203A 
 209      20
 210              		.global	msn_numero
 211 024d 000000   		.align	2
 212              		.type	msn_numero, %object
 213              		.size	msn_numero, 13
 214              	msn_numero:
 215 0250 436F6E73 		.ascii	"Consecutivo: "
 215      65637574 
 215      69766F3A 
 215      20
 216              		.global	PRN_BALANCE
 217 025d 000000   		.align	2
 218              		.type	PRN_BALANCE, %object
 219              		.size	PRN_BALANCE, 13
 220              	PRN_BALANCE:
 221 0260 53616C64 		.ascii	"Saldo      : "
 221      6F202020 
 221      2020203A 
 221      20
 222              		.global	PRN_COMPANY
 223 026d 000000   		.align	2
 224              		.type	PRN_COMPANY, %object
 225              		.size	PRN_COMPANY, 13
 226              	PRN_COMPANY:
 227 0270 456D7072 		.ascii	"Empresa    : "
 227      65736120 
 227      2020203A 
 227      20
 228              		.global	PRN_ACCOUNT
 229 027d 000000   		.align	2
 230              		.type	PRN_ACCOUNT, %object
 231              		.size	PRN_ACCOUNT, 13
 232              	PRN_ACCOUNT:
 233 0280 4375656E 		.ascii	"Cuenta     : "
 233      74612020 
 233      2020203A 
 233      20
 234              		.global	PRN_SERIAL
 235 028d 000000   		.align	2
 236              		.type	PRN_SERIAL, %object
 237              		.size	PRN_SERIAL, 13
 238              	PRN_SERIAL:
 239 0290 53657269 		.ascii	"Serial     : "
 239      616C2020 
 239      2020203A 
ARM GAS  C:\Users\Diego\AppData\Local\Temp\ccnYGT0M.s 			page 7


 239      20
 240              		.global	PRN_ACCOUNTTYPE
 241 029d 000000   		.align	2
 242              		.type	PRN_ACCOUNTTYPE, %object
 243              		.size	PRN_ACCOUNTTYPE, 13
 244              	PRN_ACCOUNTTYPE:
 245 02a0 5469706F 		.ascii	"Tipo Cuenta: "
 245      20437565 
 245      6E74613A 
 245      20
 246              		.global	PRN_VISITSDAY
 247 02ad 000000   		.align	2
 248              		.type	PRN_VISITSDAY, %object
 249              		.size	PRN_VISITSDAY, 13
 250              	PRN_VISITSDAY:
 251 02b0 56697369 		.ascii	"Visitas Dia: "
 251      74617320 
 251      4469613A 
 251      20
 252              		.global	PRN_VISITSWEEK
 253 02bd 000000   		.align	2
 254              		.type	PRN_VISITSWEEK, %object
 255              		.size	PRN_VISITSWEEK, 13
 256              	PRN_VISITSWEEK:
 257 02c0 56697369 		.ascii	"Visitas Sem: "
 257      74617320 
 257      53656D3A 
 257      20
 258              		.global	PRN_VISITSMONTH
 259 02cd 000000   		.align	2
 260              		.type	PRN_VISITSMONTH, %object
 261              		.size	PRN_VISITSMONTH, 13
 262              	PRN_VISITSMONTH:
 263 02d0 56697369 		.ascii	"Visitas Mes: "
 263      74617320 
 263      4D65733A 
 263      20
 264              		.global	PRN_VOLUMEDAY
 265 02dd 000000   		.align	2
 266              		.type	PRN_VOLUMEDAY, %object
 267              		.size	PRN_VOLUMEDAY, 13
 268              	PRN_VOLUMEDAY:
 269 02e0 566F6C75 		.ascii	"Volumen Dia: "
 269      6D656E20 
 269      4469613A 
 269      20
 270              		.global	PRN_VOLUMEWEEK
 271 02ed 000000   		.align	2
 272              		.type	PRN_VOLUMEWEEK, %object
 273              		.size	PRN_VOLUMEWEEK, 13
 274              	PRN_VOLUMEWEEK:
 275 02f0 566F6C75 		.ascii	"Volumen Sem: "
 275      6D656E20 
 275      53656D3A 
 275      20
 276              		.global	PRN_VOLUMEMONTH
 277 02fd 000000   		.align	2
ARM GAS  C:\Users\Diego\AppData\Local\Temp\ccnYGT0M.s 			page 8


 278              		.type	PRN_VOLUMEMONTH, %object
 279              		.size	PRN_VOLUMEMONTH, 13
 280              	PRN_VOLUMEMONTH:
 281 0300 566F6C75 		.ascii	"Volumen Mes: "
 281      6D656E20 
 281      4D65733A 
 281      20
 282              		.global	PRN_MONEYDAY
 283 030d 000000   		.align	2
 284              		.type	PRN_MONEYDAY, %object
 285              		.size	PRN_MONEYDAY, 13
 286              	PRN_MONEYDAY:
 287 0310 44696E65 		.ascii	"Dinero Dia : "
 287      726F2044 
 287      6961203A 
 287      20
 288              		.global	PRN_MONEYWEEK
 289 031d 000000   		.align	2
 290              		.type	PRN_MONEYWEEK, %object
 291              		.size	PRN_MONEYWEEK, 13
 292              	PRN_MONEYWEEK:
 293 0320 44696E65 		.ascii	"Dinero Sem : "
 293      726F2053 
 293      656D203A 
 293      20
 294              		.global	PRN_MONEYMONTH
 295 032d 000000   		.align	2
 296              		.type	PRN_MONEYMONTH, %object
 297              		.size	PRN_MONEYMONTH, 13
 298              	PRN_MONEYMONTH:
 299 0330 44696E65 		.ascii	"Dinero Mes : "
 299      726F204D 
 299      6573203A 
 299      20
 300              		.global	PRN_PRESET
 301 033d 000000   		.align	2
 302              		.type	PRN_PRESET, %object
 303              		.size	PRN_PRESET, 13
 304              	PRN_PRESET:
 305 0340 56616C6F 		.ascii	"Valor Prog.: "
 305      72205072 
 305      6F672E3A 
 305      20
 306              		.global	PRN_SIGNATURE
 307 034d 000000   		.align	2
 308              		.type	PRN_SIGNATURE, %object
 309              		.size	PRN_SIGNATURE, 13
 310              	PRN_SIGNATURE:
 311 0350 4669726D 		.ascii	"Firma      : "
 311      61202020 
 311      2020203A 
 311      20
 312              		.global	PRN_ID
 313 035d 000000   		.align	2
 314              		.type	PRN_ID, %object
 315              		.size	PRN_ID, 13
 316              	PRN_ID:
ARM GAS  C:\Users\Diego\AppData\Local\Temp\ccnYGT0M.s 			page 9


 317 0360 43656475 		.ascii	"Cedula     : "
 317      6C612020 
 317      2020203A 
 317      20
 318              		.global	PRN_CURRENCY
 319 036d 000000   		.align	2
 320              		.type	PRN_CURRENCY, %object
 321              		.size	PRN_CURRENCY, 1
 322              	PRN_CURRENCY:
 323 0370 24       		.ascii	"$"
 324              		.global	msn_lecact
 325 0371 000000   		.align	2
 326              		.type	msn_lecact, %object
 327              		.size	msn_lecact, 16
 328              	msn_lecact:
 329 0374 566F6C75 		.ascii	"Volumen actual: "
 329      6D656E20 
 329      61637475 
 329      616C3A20 
 330              		.global	msn_lecaan
 331              		.align	2
 332              		.type	msn_lecaan, %object
 333              		.size	msn_lecaan, 16
 334              	msn_lecaan:
 335 0384 566F6C2E 		.ascii	"Vol. anterior:  "
 335      20616E74 
 335      6572696F 
 335      723A2020 
 336              		.global	msn_dif
 337              		.align	2
 338              		.type	msn_dif, %object
 339              		.size	msn_dif, 18
 340              	msn_dif:
 341 0394 566F6C2E 		.ascii	"Vol. dispensado:  "
 341      20646973 
 341      70656E73 
 341      61646F3A 
 341      2020
 342              		.global	SEPARATOR
 343 03a6 0000     		.align	2
 344              		.type	SEPARATOR, %object
 345              		.size	SEPARATOR, 32
 346              	SEPARATOR:
 347 03a8 2A2A2A2A 		.ascii	"********************************"
 347      2A2A2A2A 
 347      2A2A2A2A 
 347      2A2A2A2A 
 347      2A2A2A2A 
 348              		.global	ASK_TIME
 349              		.align	2
 350              		.type	ASK_TIME, %object
 351              		.size	ASK_TIME, 6
 352              	ASK_TIME:
 353 03c8 5A       		.byte	90
 354 03c9 A5       		.byte	-91
 355 03ca 03       		.byte	3
 356 03cb 81       		.byte	-127
ARM GAS  C:\Users\Diego\AppData\Local\Temp\ccnYGT0M.s 			page 10


 357 03cc 20       		.byte	32
 358 03cd 07       		.byte	7
 359              		.section	.text.PrintReceipt,"ax",%progbits
 360              		.align	2
 361              		.global	PrintReceipt
 362              		.thumb
 363              		.thumb_func
 364              		.type	PrintReceipt, %function
 365              	PrintReceipt:
 366              	.LFB64:
 367              		.file 1 "printer.c"
   1:printer.c     **** /* ========================================
   2:printer.c     ****  *
   3:printer.c     ****  * Copyright YOUR COMPANY, THE YEAR
   4:printer.c     ****  * All Rights Reserved
   5:printer.c     ****  * UNPUBLISHED, LICENSED SOFTWARE.
   6:printer.c     ****  *
   7:printer.c     ****  * CONFIDENTIAL AND PROPRIETARY INFORMATION
   8:printer.c     ****  * WHICH IS THE PROPERTY OF your company.
   9:printer.c     ****  *
  10:printer.c     ****  * ========================================
  11:printer.c     **** */
  12:printer.c     **** #include <project.h>
  13:printer.c     **** #include <GVar.h>
  14:printer.c     **** #include <stdio.h>
  15:printer.c     **** #include <stdlib.h>
  16:printer.c     **** #include <string.h>
  17:printer.c     **** 
  18:printer.c     **** uint8 LINE_FEED = 0x0A;
  19:printer.c     **** char VolSimbol[1] = "G";
  20:printer.c     **** 
  21:printer.c     **** 
  22:printer.c     **** /***********  Temporal messages ******************/
  23:printer.c     **** uint8 msn_EDS[32]       = "      SISPETROL INGENIERIA      ";
  24:printer.c     **** uint8 msn_EDS2[32]      = "      Soluciones y Equipos      ";
  25:printer.c     **** uint8 msn_EDS3[32]      = "   para Estaciones de Servicio  ";
  26:printer.c     **** uint8 msn_EDS4[32]      = " Tel: 571 3975916 - 310 5612276 ";
  27:printer.c     **** uint8 msn_EDS5[32]      = "      CRA 82 Bis No 71 - 78     ";
  28:printer.c     **** uint8 msn_EDS6[32]      = "          BOGOTA D.C.";
  29:printer.c     **** uint8 msn_footer[32]    = "     GRACIAS POR SU COMPRA      ";
  30:printer.c     **** uint8 msn_footer2[32]   = "          VUELVA PRONTO         ";
  31:printer.c     **** uint8 msn_footer3[32]   = "Firma:                          ";
  32:printer.c     **** uint8 msn_footer4[32]   = "________________________________";
  33:printer.c     **** uint8 msn_copy[32]      = "             COPIA              ";
  34:printer.c     **** uint8 msn_diesel[9]     = "Diesel   ";
  35:printer.c     **** uint8 msn_gasoline[9]   = "Corriente";
  36:printer.c     **** 
  37:printer.c     **** /*********** informative messages ****************/
  38:printer.c     **** 
  39:printer.c     **** uint8 msn_fecha[13]       = "Fecha      : ";
  40:printer.c     **** uint8 msn_hora[13]        = "Hora       : ";
  41:printer.c     **** uint8 msn_placa[13]       = "Placa      : ";
  42:printer.c     **** uint8 PRN_MILLEAGE[13]    = "Kilometraje: ";
  43:printer.c     **** uint8 PRN_TRANSTYPE[13]   = "Tipo       : ";
  44:printer.c     **** uint8 msn_pos[13]         = "Posicion   : ";
  45:printer.c     **** uint8 msn_product[13]     = "Producto   : ";
  46:printer.c     **** uint8 msn_ppu[13]         = "Ppu        : ";
ARM GAS  C:\Users\Diego\AppData\Local\Temp\ccnYGT0M.s 			page 11


  47:printer.c     **** uint8 msn_vol[13]         = "Volumen    : ";
  48:printer.c     **** uint8 msn_voltot[13]      = "Tot.Vol    : ";
  49:printer.c     **** uint8 msn_din[13]         = "Importe    : ";
  50:printer.c     **** uint8 msn_cierre[13]      = "Cierre No  : ";
  51:printer.c     **** uint8 msn_venta[13]       = "Venta No   : ";
  52:printer.c     **** uint8 msn_numero[13]      = "Consecutivo: ";
  53:printer.c     **** uint8 PRN_BALANCE[13]     = "Saldo      : ";
  54:printer.c     **** uint8 PRN_COMPANY[13]     = "Empresa    : ";
  55:printer.c     **** uint8 PRN_ACCOUNT[13]     = "Cuenta     : ";
  56:printer.c     **** uint8 PRN_SERIAL[13]      = "Serial     : ";
  57:printer.c     **** uint8 PRN_ACCOUNTTYPE[13] = "Tipo Cuenta: ";
  58:printer.c     **** uint8 PRN_VISITSDAY[13]   = "Visitas Dia: ";
  59:printer.c     **** uint8 PRN_VISITSWEEK[13]  = "Visitas Sem: ";
  60:printer.c     **** uint8 PRN_VISITSMONTH[13] = "Visitas Mes: ";
  61:printer.c     **** uint8 PRN_VOLUMEDAY[13]   = "Volumen Dia: ";
  62:printer.c     **** uint8 PRN_VOLUMEWEEK[13]  = "Volumen Sem: ";
  63:printer.c     **** uint8 PRN_VOLUMEMONTH[13] = "Volumen Mes: ";
  64:printer.c     **** uint8 PRN_MONEYDAY[13]    = "Dinero Dia : ";
  65:printer.c     **** uint8 PRN_MONEYWEEK[13]   = "Dinero Sem : ";
  66:printer.c     **** uint8 PRN_MONEYMONTH[13]  = "Dinero Mes : ";
  67:printer.c     **** uint8 PRN_PRESET[13]      = "Valor Prog.: ";
  68:printer.c     **** uint8 PRN_SIGNATURE[13]   = "Firma      : ";
  69:printer.c     **** uint8 PRN_ID[13]          = "Cedula     : ";
  70:printer.c     **** uint8 PRN_CURRENCY[1]     = "$";
  71:printer.c     **** uint8 msn_lecact[16]      ="Volumen actual: ";
  72:printer.c     **** uint8 msn_lecaan[16]      ="Vol. anterior:  ";
  73:printer.c     **** uint8 msn_dif[18]         ="Vol. dispensado:  ";
  74:printer.c     **** uint8 SEPARATOR[32]       = "********************************";
  75:printer.c     **** uint8 ASK_TIME[]={0x5A, 0xA5, 0x03, 0x81, 0x20, 0x07};
  76:printer.c     **** 
  77:printer.c     **** 
  78:printer.c     **** 
  79:printer.c     **** void PrintReceipt(uint8 address){
 368              		.loc 1 79 0
 369              		.cfi_startproc
 370              		@ args = 0, pretend = 0, frame = 72
 371              		@ frame_needed = 1, uses_anonymous_args = 0
 372 0000 90B5     		push	{r4, r7, lr}
 373              		.cfi_def_cfa_offset 12
 374              		.cfi_offset 4, -12
 375              		.cfi_offset 7, -8
 376              		.cfi_offset 14, -4
 377 0002 93B0     		sub	sp, sp, #76
 378              		.cfi_def_cfa_offset 88
 379 0004 00AF     		add	r7, sp, #0
 380              		.cfi_def_cfa_register 7
 381 0006 0346     		mov	r3, r0
 382 0008 FB71     		strb	r3, [r7, #7]
  80:printer.c     ****     int8 screen_size;  
  81:printer.c     ****     screen_size = 0;
 383              		.loc 1 81 0
 384 000a 0023     		movs	r3, #0
 385 000c 87F84730 		strb	r3, [r7, #71]
  82:printer.c     ****     sale_number[5]=(int_salenumber/10000)+48;
 386              		.loc 1 82 0
 387 0010 CC4B     		ldr	r3, .L135
 388 0012 1B78     		ldrb	r3, [r3]	@ zero_extendqisi2
ARM GAS  C:\Users\Diego\AppData\Local\Temp\ccnYGT0M.s 			page 12


 389 0014 CC4A     		ldr	r2, .L135+4
 390 0016 82FB0312 		smull	r1, r2, r2, r3
 391 001a 1213     		asrs	r2, r2, #12
 392 001c DB17     		asrs	r3, r3, #31
 393 001e D31A     		subs	r3, r2, r3
 394 0020 DBB2     		uxtb	r3, r3
 395 0022 3033     		adds	r3, r3, #48
 396 0024 DAB2     		uxtb	r2, r3
 397 0026 C94B     		ldr	r3, .L135+8
 398 0028 5A71     		strb	r2, [r3, #5]
  83:printer.c     **** 	sale_number[4]=((int_salenumber%10000)/1000)+48;
 399              		.loc 1 83 0
 400 002a C64B     		ldr	r3, .L135
 401 002c 1B78     		ldrb	r3, [r3]	@ zero_extendqisi2
 402 002e 1A46     		mov	r2, r3
 403 0030 C54B     		ldr	r3, .L135+4
 404 0032 83FB0213 		smull	r1, r3, r3, r2
 405 0036 1913     		asrs	r1, r3, #12
 406 0038 D317     		asrs	r3, r2, #31
 407 003a CB1A     		subs	r3, r1, r3
 408 003c 42F21071 		movw	r1, #10000
 409 0040 01FB03F3 		mul	r3, r1, r3
 410 0044 D31A     		subs	r3, r2, r3
 411 0046 C24A     		ldr	r2, .L135+12
 412 0048 82FB0312 		smull	r1, r2, r2, r3
 413 004c 9211     		asrs	r2, r2, #6
 414 004e DB17     		asrs	r3, r3, #31
 415 0050 D31A     		subs	r3, r2, r3
 416 0052 DBB2     		uxtb	r3, r3
 417 0054 3033     		adds	r3, r3, #48
 418 0056 DAB2     		uxtb	r2, r3
 419 0058 BC4B     		ldr	r3, .L135+8
 420 005a 1A71     		strb	r2, [r3, #4]
  84:printer.c     **** 	sale_number[3]=(((int_salenumber%10000)%1000)/100)+48;
 421              		.loc 1 84 0
 422 005c B94B     		ldr	r3, .L135
 423 005e 1B78     		ldrb	r3, [r3]	@ zero_extendqisi2
 424 0060 1A46     		mov	r2, r3
 425 0062 B94B     		ldr	r3, .L135+4
 426 0064 83FB0213 		smull	r1, r3, r3, r2
 427 0068 1913     		asrs	r1, r3, #12
 428 006a D317     		asrs	r3, r2, #31
 429 006c CB1A     		subs	r3, r1, r3
 430 006e 42F21071 		movw	r1, #10000
 431 0072 01FB03F3 		mul	r3, r1, r3
 432 0076 D31A     		subs	r3, r2, r3
 433 0078 B54A     		ldr	r2, .L135+12
 434 007a 82FB0312 		smull	r1, r2, r2, r3
 435 007e 9111     		asrs	r1, r2, #6
 436 0080 DA17     		asrs	r2, r3, #31
 437 0082 8A1A     		subs	r2, r1, r2
 438 0084 4FF47A71 		mov	r1, #1000
 439 0088 01FB02F2 		mul	r2, r1, r2
 440 008c 9A1A     		subs	r2, r3, r2
 441 008e B14B     		ldr	r3, .L135+16
 442 0090 83FB0213 		smull	r1, r3, r3, r2
 443 0094 5911     		asrs	r1, r3, #5
ARM GAS  C:\Users\Diego\AppData\Local\Temp\ccnYGT0M.s 			page 13


 444 0096 D317     		asrs	r3, r2, #31
 445 0098 CB1A     		subs	r3, r1, r3
 446 009a DBB2     		uxtb	r3, r3
 447 009c 3033     		adds	r3, r3, #48
 448 009e DAB2     		uxtb	r2, r3
 449 00a0 AA4B     		ldr	r3, .L135+8
 450 00a2 DA70     		strb	r2, [r3, #3]
  85:printer.c     **** 	sale_number[2]=((((int_salenumber%10000)%1000)%100)/10)+48;	
 451              		.loc 1 85 0
 452 00a4 A74B     		ldr	r3, .L135
 453 00a6 1B78     		ldrb	r3, [r3]	@ zero_extendqisi2
 454 00a8 A74A     		ldr	r2, .L135+4
 455 00aa 82FB0312 		smull	r1, r2, r2, r3
 456 00ae 1113     		asrs	r1, r2, #12
 457 00b0 DA17     		asrs	r2, r3, #31
 458 00b2 8A1A     		subs	r2, r1, r2
 459 00b4 42F21071 		movw	r1, #10000
 460 00b8 01FB02F2 		mul	r2, r1, r2
 461 00bc 9A1A     		subs	r2, r3, r2
 462 00be A44B     		ldr	r3, .L135+12
 463 00c0 83FB0213 		smull	r1, r3, r3, r2
 464 00c4 9911     		asrs	r1, r3, #6
 465 00c6 D317     		asrs	r3, r2, #31
 466 00c8 CB1A     		subs	r3, r1, r3
 467 00ca 4FF47A71 		mov	r1, #1000
 468 00ce 01FB03F3 		mul	r3, r1, r3
 469 00d2 D31A     		subs	r3, r2, r3
 470 00d4 9F4A     		ldr	r2, .L135+16
 471 00d6 82FB0312 		smull	r1, r2, r2, r3
 472 00da 5111     		asrs	r1, r2, #5
 473 00dc DA17     		asrs	r2, r3, #31
 474 00de 8A1A     		subs	r2, r1, r2
 475 00e0 6421     		movs	r1, #100
 476 00e2 01FB02F2 		mul	r2, r1, r2
 477 00e6 9A1A     		subs	r2, r3, r2
 478 00e8 9B4B     		ldr	r3, .L135+20
 479 00ea 83FB0213 		smull	r1, r3, r3, r2
 480 00ee 9910     		asrs	r1, r3, #2
 481 00f0 D317     		asrs	r3, r2, #31
 482 00f2 CB1A     		subs	r3, r1, r3
 483 00f4 DBB2     		uxtb	r3, r3
 484 00f6 3033     		adds	r3, r3, #48
 485 00f8 DAB2     		uxtb	r2, r3
 486 00fa 944B     		ldr	r3, .L135+8
 487 00fc 9A70     		strb	r2, [r3, #2]
  86:printer.c     **** 	sale_number[1]=((((int_salenumber%10000)%1000)%100)%10)+48;
 488              		.loc 1 86 0
 489 00fe 914B     		ldr	r3, .L135
 490 0100 1B78     		ldrb	r3, [r3]	@ zero_extendqisi2
 491 0102 914A     		ldr	r2, .L135+4
 492 0104 82FB0312 		smull	r1, r2, r2, r3
 493 0108 1113     		asrs	r1, r2, #12
 494 010a DA17     		asrs	r2, r3, #31
 495 010c 8A1A     		subs	r2, r1, r2
 496 010e 42F21071 		movw	r1, #10000
 497 0112 01FB02F2 		mul	r2, r1, r2
 498 0116 9A1A     		subs	r2, r3, r2
ARM GAS  C:\Users\Diego\AppData\Local\Temp\ccnYGT0M.s 			page 14


 499 0118 8D4B     		ldr	r3, .L135+12
 500 011a 83FB0213 		smull	r1, r3, r3, r2
 501 011e 9911     		asrs	r1, r3, #6
 502 0120 D317     		asrs	r3, r2, #31
 503 0122 CB1A     		subs	r3, r1, r3
 504 0124 4FF47A71 		mov	r1, #1000
 505 0128 01FB03F3 		mul	r3, r1, r3
 506 012c D31A     		subs	r3, r2, r3
 507 012e 894A     		ldr	r2, .L135+16
 508 0130 82FB0312 		smull	r1, r2, r2, r3
 509 0134 5111     		asrs	r1, r2, #5
 510 0136 DA17     		asrs	r2, r3, #31
 511 0138 8A1A     		subs	r2, r1, r2
 512 013a 6421     		movs	r1, #100
 513 013c 01FB02F2 		mul	r2, r1, r2
 514 0140 9A1A     		subs	r2, r3, r2
 515 0142 854B     		ldr	r3, .L135+20
 516 0144 83FB0213 		smull	r1, r3, r3, r2
 517 0148 9910     		asrs	r1, r3, #2
 518 014a D317     		asrs	r3, r2, #31
 519 014c C91A     		subs	r1, r1, r3
 520 014e 0B46     		mov	r3, r1
 521 0150 9B00     		lsls	r3, r3, #2
 522 0152 0B44     		add	r3, r3, r1
 523 0154 5B00     		lsls	r3, r3, #1
 524 0156 D11A     		subs	r1, r2, r3
 525 0158 CBB2     		uxtb	r3, r1
 526 015a 3033     		adds	r3, r3, #48
 527 015c DAB2     		uxtb	r2, r3
 528 015e 7B4B     		ldr	r3, .L135+8
 529 0160 5A70     		strb	r2, [r3, #1]
 530              	.LBB2:
  87:printer.c     ****     for(uint8 i = 1; i<6; i++){
 531              		.loc 1 87 0
 532 0162 0123     		movs	r3, #1
 533 0164 87F84630 		strb	r3, [r7, #70]
 534 0168 0FE0     		b	.L2
 535              	.L3:
  88:printer.c     ****         EEPROM_1_WriteByte(sale_number[i],i);
 536              		.loc 1 88 0 discriminator 3
 537 016a 97F84630 		ldrb	r3, [r7, #70]	@ zero_extendqisi2
 538 016e 774A     		ldr	r2, .L135+8
 539 0170 D35C     		ldrb	r3, [r2, r3]	@ zero_extendqisi2
 540 0172 97F84620 		ldrb	r2, [r7, #70]	@ zero_extendqisi2
 541 0176 92B2     		uxth	r2, r2
 542 0178 1146     		mov	r1, r2
 543 017a 1846     		mov	r0, r3
 544 017c FFF7FEFF 		bl	EEPROM_1_WriteByte
  87:printer.c     ****     for(uint8 i = 1; i<6; i++){
 545              		.loc 1 87 0 discriminator 3
 546 0180 97F84630 		ldrb	r3, [r7, #70]	@ zero_extendqisi2
 547 0184 0133     		adds	r3, r3, #1
 548 0186 87F84630 		strb	r3, [r7, #70]
 549              	.L2:
  87:printer.c     ****     for(uint8 i = 1; i<6; i++){
 550              		.loc 1 87 0 is_stmt 0 discriminator 1
 551 018a 97F84630 		ldrb	r3, [r7, #70]	@ zero_extendqisi2
ARM GAS  C:\Users\Diego\AppData\Local\Temp\ccnYGT0M.s 			page 15


 552 018e 052B     		cmp	r3, #5
 553 0190 EBD9     		bls	.L3
 554              	.LBE2:
  89:printer.c     ****     }
  90:printer.c     ****     while(screen_size == 0){
 555              		.loc 1 90 0 is_stmt 1
 556 0192 1BE0     		b	.L4
 557              	.L7:
 558              	.LBB3:
  91:printer.c     ****         for(uint8 LCDRx = 0; LCDRx < 6; LCDRx++){
 559              		.loc 1 91 0
 560 0194 0023     		movs	r3, #0
 561 0196 87F84530 		strb	r3, [r7, #69]
 562 019a 0BE0     		b	.L5
 563              	.L6:
  92:printer.c     ****             screen_PutChar(ASK_TIME[LCDRx]);
 564              		.loc 1 92 0 discriminator 3
 565 019c 97F84530 		ldrb	r3, [r7, #69]	@ zero_extendqisi2
 566 01a0 6E4A     		ldr	r2, .L135+24
 567 01a2 D35C     		ldrb	r3, [r2, r3]	@ zero_extendqisi2
 568 01a4 1846     		mov	r0, r3
 569 01a6 FFF7FEFF 		bl	screen_PutChar
  91:printer.c     ****         for(uint8 LCDRx = 0; LCDRx < 6; LCDRx++){
 570              		.loc 1 91 0 discriminator 3
 571 01aa 97F84530 		ldrb	r3, [r7, #69]	@ zero_extendqisi2
 572 01ae 0133     		adds	r3, r3, #1
 573 01b0 87F84530 		strb	r3, [r7, #69]
 574              	.L5:
  91:printer.c     ****         for(uint8 LCDRx = 0; LCDRx < 6; LCDRx++){
 575              		.loc 1 91 0 is_stmt 0 discriminator 1
 576 01b4 97F84530 		ldrb	r3, [r7, #69]	@ zero_extendqisi2
 577 01b8 052B     		cmp	r3, #5
 578 01ba EFD9     		bls	.L6
 579              	.LBE3:
  93:printer.c     ****         }
  94:printer.c     ****         CyDelay(5);
 580              		.loc 1 94 0 is_stmt 1
 581 01bc 0520     		movs	r0, #5
 582 01be FFF7FEFF 		bl	CyDelay
  95:printer.c     ****         screen_size = screen_GetRxBufferSize();
 583              		.loc 1 95 0
 584 01c2 FFF7FEFF 		bl	screen_GetRxBufferSize
 585 01c6 0346     		mov	r3, r0
 586 01c8 87F84730 		strb	r3, [r7, #71]
 587              	.L4:
  90:printer.c     ****         for(uint8 LCDRx = 0; LCDRx < 6; LCDRx++){
 588              		.loc 1 90 0
 589 01cc 97F94730 		ldrsb	r3, [r7, #71]
 590 01d0 002B     		cmp	r3, #0
 591 01d2 DFD0     		beq	.L7
  96:printer.c     ****     }
  97:printer.c     ****     if(screen_size >= 13 ){
 592              		.loc 1 97 0
 593 01d4 97F94730 		ldrsb	r3, [r7, #71]
 594 01d8 0C2B     		cmp	r3, #12
 595 01da 19DD     		ble	.L8
 596              	.LBB4:
ARM GAS  C:\Users\Diego\AppData\Local\Temp\ccnYGT0M.s 			page 16


  98:printer.c     ****         for(uint8 LCDRx = 0; LCDRx < screen_size; LCDRx++){
 597              		.loc 1 98 0
 598 01dc 0023     		movs	r3, #0
 599 01de 87F84430 		strb	r3, [r7, #68]
 600 01e2 0CE0     		b	.L9
 601              	.L10:
  99:printer.c     ****             touch1[LCDRx] = screen_ReadRxData();
 602              		.loc 1 99 0 discriminator 3
 603 01e4 97F84440 		ldrb	r4, [r7, #68]	@ zero_extendqisi2
 604 01e8 FFF7FEFF 		bl	screen_ReadRxData
 605 01ec 0346     		mov	r3, r0
 606 01ee 1A46     		mov	r2, r3
 607 01f0 5B4B     		ldr	r3, .L135+28
 608 01f2 1A55     		strb	r2, [r3, r4]
  98:printer.c     ****         for(uint8 LCDRx = 0; LCDRx < screen_size; LCDRx++){
 609              		.loc 1 98 0 discriminator 3
 610 01f4 97F84430 		ldrb	r3, [r7, #68]	@ zero_extendqisi2
 611 01f8 0133     		adds	r3, r3, #1
 612 01fa 87F84430 		strb	r3, [r7, #68]
 613              	.L9:
  98:printer.c     ****         for(uint8 LCDRx = 0; LCDRx < screen_size; LCDRx++){
 614              		.loc 1 98 0 is_stmt 0 discriminator 1
 615 01fe 97F84420 		ldrb	r2, [r7, #68]	@ zero_extendqisi2
 616 0202 97F94730 		ldrsb	r3, [r7, #71]
 617 0206 9A42     		cmp	r2, r3
 618 0208 ECDB     		blt	.L10
 619              	.LBE4:
 100:printer.c     ****         }
 101:printer.c     ****         screen_size = 0;
 620              		.loc 1 101 0 is_stmt 1
 621 020a 0023     		movs	r3, #0
 622 020c 87F84730 		strb	r3, [r7, #71]
 623              	.L8:
 624              	.LBB5:
 102:printer.c     ****     }
 103:printer.c     **** 	for(uint8 x = 0; x < 32; x ++){
 625              		.loc 1 103 0
 626 0210 0023     		movs	r3, #0
 627 0212 87F84330 		strb	r3, [r7, #67]
 628 0216 0BE0     		b	.L11
 629              	.L12:
 104:printer.c     **** 		PRINTER_A_PutChar(msn_EDS[x]);
 630              		.loc 1 104 0 discriminator 3
 631 0218 97F84330 		ldrb	r3, [r7, #67]	@ zero_extendqisi2
 632 021c 514A     		ldr	r2, .L135+32
 633 021e D35C     		ldrb	r3, [r2, r3]	@ zero_extendqisi2
 634 0220 1846     		mov	r0, r3
 635 0222 FFF7FEFF 		bl	PRINTER_A_PutChar
 103:printer.c     **** 		PRINTER_A_PutChar(msn_EDS[x]);
 636              		.loc 1 103 0 discriminator 3
 637 0226 97F84330 		ldrb	r3, [r7, #67]	@ zero_extendqisi2
 638 022a 0133     		adds	r3, r3, #1
 639 022c 87F84330 		strb	r3, [r7, #67]
 640              	.L11:
 103:printer.c     **** 		PRINTER_A_PutChar(msn_EDS[x]);
 641              		.loc 1 103 0 is_stmt 0 discriminator 1
 642 0230 97F84330 		ldrb	r3, [r7, #67]	@ zero_extendqisi2
ARM GAS  C:\Users\Diego\AppData\Local\Temp\ccnYGT0M.s 			page 17


 643 0234 1F2B     		cmp	r3, #31
 644 0236 EFD9     		bls	.L12
 645              	.LBE5:
 105:printer.c     **** 	}
 106:printer.c     ****     PRINTER_A_PutChar(LINE_FEED);
 646              		.loc 1 106 0 is_stmt 1
 647 0238 4B4B     		ldr	r3, .L135+36
 648 023a 1B78     		ldrb	r3, [r3]	@ zero_extendqisi2
 649 023c 1846     		mov	r0, r3
 650 023e FFF7FEFF 		bl	PRINTER_A_PutChar
 651              	.LBB6:
 107:printer.c     **** 	for(uint8 x = 0; x < 32; x ++){
 652              		.loc 1 107 0
 653 0242 0023     		movs	r3, #0
 654 0244 87F84230 		strb	r3, [r7, #66]
 655 0248 0BE0     		b	.L13
 656              	.L14:
 108:printer.c     **** 		PRINTER_A_PutChar(msn_EDS2[x]);
 657              		.loc 1 108 0 discriminator 3
 658 024a 97F84230 		ldrb	r3, [r7, #66]	@ zero_extendqisi2
 659 024e 474A     		ldr	r2, .L135+40
 660 0250 D35C     		ldrb	r3, [r2, r3]	@ zero_extendqisi2
 661 0252 1846     		mov	r0, r3
 662 0254 FFF7FEFF 		bl	PRINTER_A_PutChar
 107:printer.c     **** 	for(uint8 x = 0; x < 32; x ++){
 663              		.loc 1 107 0 discriminator 3
 664 0258 97F84230 		ldrb	r3, [r7, #66]	@ zero_extendqisi2
 665 025c 0133     		adds	r3, r3, #1
 666 025e 87F84230 		strb	r3, [r7, #66]
 667              	.L13:
 107:printer.c     **** 	for(uint8 x = 0; x < 32; x ++){
 668              		.loc 1 107 0 is_stmt 0 discriminator 1
 669 0262 97F84230 		ldrb	r3, [r7, #66]	@ zero_extendqisi2
 670 0266 1F2B     		cmp	r3, #31
 671 0268 EFD9     		bls	.L14
 672              	.LBE6:
 109:printer.c     **** 	}
 110:printer.c     **** 	PRINTER_A_PutChar(LINE_FEED);
 673              		.loc 1 110 0 is_stmt 1
 674 026a 3F4B     		ldr	r3, .L135+36
 675 026c 1B78     		ldrb	r3, [r3]	@ zero_extendqisi2
 676 026e 1846     		mov	r0, r3
 677 0270 FFF7FEFF 		bl	PRINTER_A_PutChar
 678              	.LBB7:
 111:printer.c     **** 	for(uint8 x = 0; x < 32; x ++){
 679              		.loc 1 111 0
 680 0274 0023     		movs	r3, #0
 681 0276 87F84130 		strb	r3, [r7, #65]
 682 027a 0BE0     		b	.L15
 683              	.L16:
 112:printer.c     **** 		PRINTER_A_PutChar(msn_EDS3[x]);
 684              		.loc 1 112 0 discriminator 3
 685 027c 97F84130 		ldrb	r3, [r7, #65]	@ zero_extendqisi2
 686 0280 3B4A     		ldr	r2, .L135+44
 687 0282 D35C     		ldrb	r3, [r2, r3]	@ zero_extendqisi2
 688 0284 1846     		mov	r0, r3
 689 0286 FFF7FEFF 		bl	PRINTER_A_PutChar
ARM GAS  C:\Users\Diego\AppData\Local\Temp\ccnYGT0M.s 			page 18


 111:printer.c     **** 	for(uint8 x = 0; x < 32; x ++){
 690              		.loc 1 111 0 discriminator 3
 691 028a 97F84130 		ldrb	r3, [r7, #65]	@ zero_extendqisi2
 692 028e 0133     		adds	r3, r3, #1
 693 0290 87F84130 		strb	r3, [r7, #65]
 694              	.L15:
 111:printer.c     **** 	for(uint8 x = 0; x < 32; x ++){
 695              		.loc 1 111 0 is_stmt 0 discriminator 1
 696 0294 97F84130 		ldrb	r3, [r7, #65]	@ zero_extendqisi2
 697 0298 1F2B     		cmp	r3, #31
 698 029a EFD9     		bls	.L16
 699              	.LBE7:
 113:printer.c     **** 	}
 114:printer.c     **** 	PRINTER_A_PutChar(LINE_FEED);
 700              		.loc 1 114 0 is_stmt 1
 701 029c 324B     		ldr	r3, .L135+36
 702 029e 1B78     		ldrb	r3, [r3]	@ zero_extendqisi2
 703 02a0 1846     		mov	r0, r3
 704 02a2 FFF7FEFF 		bl	PRINTER_A_PutChar
 705              	.LBB8:
 115:printer.c     **** 	for(uint8 x = 0; x < 32; x ++){
 706              		.loc 1 115 0
 707 02a6 0023     		movs	r3, #0
 708 02a8 87F84030 		strb	r3, [r7, #64]
 709 02ac 0BE0     		b	.L17
 710              	.L18:
 116:printer.c     **** 		PRINTER_A_PutChar(msn_EDS4[x]);
 711              		.loc 1 116 0 discriminator 3
 712 02ae 97F84030 		ldrb	r3, [r7, #64]	@ zero_extendqisi2
 713 02b2 304A     		ldr	r2, .L135+48
 714 02b4 D35C     		ldrb	r3, [r2, r3]	@ zero_extendqisi2
 715 02b6 1846     		mov	r0, r3
 716 02b8 FFF7FEFF 		bl	PRINTER_A_PutChar
 115:printer.c     **** 	for(uint8 x = 0; x < 32; x ++){
 717              		.loc 1 115 0 discriminator 3
 718 02bc 97F84030 		ldrb	r3, [r7, #64]	@ zero_extendqisi2
 719 02c0 0133     		adds	r3, r3, #1
 720 02c2 87F84030 		strb	r3, [r7, #64]
 721              	.L17:
 115:printer.c     **** 	for(uint8 x = 0; x < 32; x ++){
 722              		.loc 1 115 0 is_stmt 0 discriminator 1
 723 02c6 97F84030 		ldrb	r3, [r7, #64]	@ zero_extendqisi2
 724 02ca 1F2B     		cmp	r3, #31
 725 02cc EFD9     		bls	.L18
 726              	.LBE8:
 117:printer.c     **** 	}
 118:printer.c     ****     PRINTER_A_PutChar(LINE_FEED);
 727              		.loc 1 118 0 is_stmt 1
 728 02ce 264B     		ldr	r3, .L135+36
 729 02d0 1B78     		ldrb	r3, [r3]	@ zero_extendqisi2
 730 02d2 1846     		mov	r0, r3
 731 02d4 FFF7FEFF 		bl	PRINTER_A_PutChar
 732              	.LBB9:
 119:printer.c     ****     for(uint8 x = 0; x < 32; x ++){
 733              		.loc 1 119 0
 734 02d8 0023     		movs	r3, #0
 735 02da 87F83F30 		strb	r3, [r7, #63]
ARM GAS  C:\Users\Diego\AppData\Local\Temp\ccnYGT0M.s 			page 19


 736 02de 0BE0     		b	.L19
 737              	.L20:
 120:printer.c     **** 		PRINTER_A_PutChar(msn_EDS5[x]);
 738              		.loc 1 120 0 discriminator 3
 739 02e0 97F83F30 		ldrb	r3, [r7, #63]	@ zero_extendqisi2
 740 02e4 244A     		ldr	r2, .L135+52
 741 02e6 D35C     		ldrb	r3, [r2, r3]	@ zero_extendqisi2
 742 02e8 1846     		mov	r0, r3
 743 02ea FFF7FEFF 		bl	PRINTER_A_PutChar
 119:printer.c     ****     for(uint8 x = 0; x < 32; x ++){
 744              		.loc 1 119 0 discriminator 3
 745 02ee 97F83F30 		ldrb	r3, [r7, #63]	@ zero_extendqisi2
 746 02f2 0133     		adds	r3, r3, #1
 747 02f4 87F83F30 		strb	r3, [r7, #63]
 748              	.L19:
 119:printer.c     ****     for(uint8 x = 0; x < 32; x ++){
 749              		.loc 1 119 0 is_stmt 0 discriminator 1
 750 02f8 97F83F30 		ldrb	r3, [r7, #63]	@ zero_extendqisi2
 751 02fc 1F2B     		cmp	r3, #31
 752 02fe EFD9     		bls	.L20
 753              	.LBE9:
 121:printer.c     **** 	}
 122:printer.c     ****     PRINTER_A_PutChar(LINE_FEED);
 754              		.loc 1 122 0 is_stmt 1
 755 0300 194B     		ldr	r3, .L135+36
 756 0302 1B78     		ldrb	r3, [r3]	@ zero_extendqisi2
 757 0304 1846     		mov	r0, r3
 758 0306 FFF7FEFF 		bl	PRINTER_A_PutChar
 759              	.LBB10:
 123:printer.c     ****     for(uint8 x = 0; x < 32; x ++){
 760              		.loc 1 123 0
 761 030a 0023     		movs	r3, #0
 762 030c 87F83E30 		strb	r3, [r7, #62]
 763 0310 0BE0     		b	.L21
 764              	.L22:
 124:printer.c     **** 		PRINTER_A_PutChar(msn_EDS6[x]);
 765              		.loc 1 124 0 discriminator 3
 766 0312 97F83E30 		ldrb	r3, [r7, #62]	@ zero_extendqisi2
 767 0316 194A     		ldr	r2, .L135+56
 768 0318 D35C     		ldrb	r3, [r2, r3]	@ zero_extendqisi2
 769 031a 1846     		mov	r0, r3
 770 031c FFF7FEFF 		bl	PRINTER_A_PutChar
 123:printer.c     ****     for(uint8 x = 0; x < 32; x ++){
 771              		.loc 1 123 0 discriminator 3
 772 0320 97F83E30 		ldrb	r3, [r7, #62]	@ zero_extendqisi2
 773 0324 0133     		adds	r3, r3, #1
 774 0326 87F83E30 		strb	r3, [r7, #62]
 775              	.L21:
 123:printer.c     ****     for(uint8 x = 0; x < 32; x ++){
 776              		.loc 1 123 0 is_stmt 0 discriminator 1
 777 032a 97F83E30 		ldrb	r3, [r7, #62]	@ zero_extendqisi2
 778 032e 1F2B     		cmp	r3, #31
 779 0330 EFD9     		bls	.L22
 780              	.LBE10:
 125:printer.c     **** 	}    
 126:printer.c     ****     PRINTER_A_PutChar(LINE_FEED);
 781              		.loc 1 126 0 is_stmt 1
ARM GAS  C:\Users\Diego\AppData\Local\Temp\ccnYGT0M.s 			page 20


 782 0332 0D4B     		ldr	r3, .L135+36
 783 0334 1B78     		ldrb	r3, [r3]	@ zero_extendqisi2
 784 0336 1846     		mov	r0, r3
 785 0338 FFF7FEFF 		bl	PRINTER_A_PutChar
 786              	.LBB11:
 127:printer.c     **** 	for(uint8 x = 0; x < 32; x ++){
 787              		.loc 1 127 0
 788 033c 0023     		movs	r3, #0
 789 033e 87F83D30 		strb	r3, [r7, #61]
 790 0342 29E0     		b	.L23
 791              	.L136:
 792              		.align	2
 793              	.L135:
 794 0344 00000000 		.word	int_salenumber
 795 0348 AD8BDB68 		.word	1759218605
 796 034c 00000000 		.word	sale_number
 797 0350 D34D6210 		.word	274877907
 798 0354 1F85EB51 		.word	1374389535
 799 0358 67666666 		.word	1717986919
 800 035c 00000000 		.word	ASK_TIME
 801 0360 00000000 		.word	touch1
 802 0364 00000000 		.word	msn_EDS
 803 0368 00000000 		.word	LINE_FEED
 804 036c 00000000 		.word	msn_EDS2
 805 0370 00000000 		.word	msn_EDS3
 806 0374 00000000 		.word	msn_EDS4
 807 0378 00000000 		.word	msn_EDS5
 808 037c 00000000 		.word	msn_EDS6
 809              	.L24:
 128:printer.c     **** 		PRINTER_A_PutChar(SEPARATOR[x]);
 810              		.loc 1 128 0 discriminator 3
 811 0380 97F83D30 		ldrb	r3, [r7, #61]	@ zero_extendqisi2
 812 0384 BC4A     		ldr	r2, .L137
 813 0386 D35C     		ldrb	r3, [r2, r3]	@ zero_extendqisi2
 814 0388 1846     		mov	r0, r3
 815 038a FFF7FEFF 		bl	PRINTER_A_PutChar
 127:printer.c     **** 	for(uint8 x = 0; x < 32; x ++){
 816              		.loc 1 127 0 discriminator 3
 817 038e 97F83D30 		ldrb	r3, [r7, #61]	@ zero_extendqisi2
 818 0392 0133     		adds	r3, r3, #1
 819 0394 87F83D30 		strb	r3, [r7, #61]
 820              	.L23:
 127:printer.c     **** 	for(uint8 x = 0; x < 32; x ++){
 821              		.loc 1 127 0 is_stmt 0 discriminator 1
 822 0398 97F83D30 		ldrb	r3, [r7, #61]	@ zero_extendqisi2
 823 039c 1F2B     		cmp	r3, #31
 824 039e EFD9     		bls	.L24
 825              	.LBE11:
 129:printer.c     **** 	}
 130:printer.c     ****     PRINTER_A_PutChar(LINE_FEED);
 826              		.loc 1 130 0 is_stmt 1
 827 03a0 B64B     		ldr	r3, .L137+4
 828 03a2 1B78     		ldrb	r3, [r3]	@ zero_extendqisi2
 829 03a4 1846     		mov	r0, r3
 830 03a6 FFF7FEFF 		bl	PRINTER_A_PutChar
 831              	.LBB12:
 131:printer.c     ****     /********** FECHA ***************/
ARM GAS  C:\Users\Diego\AppData\Local\Temp\ccnYGT0M.s 			page 21


 132:printer.c     **** 	for(uint8 x = 0; x < 13; x ++){
 832              		.loc 1 132 0
 833 03aa 0023     		movs	r3, #0
 834 03ac 87F83C30 		strb	r3, [r7, #60]
 835 03b0 0BE0     		b	.L25
 836              	.L26:
 133:printer.c     **** 		PRINTER_A_PutChar(msn_fecha[x]);
 837              		.loc 1 133 0 discriminator 3
 838 03b2 97F83C30 		ldrb	r3, [r7, #60]	@ zero_extendqisi2
 839 03b6 B24A     		ldr	r2, .L137+8
 840 03b8 D35C     		ldrb	r3, [r2, r3]	@ zero_extendqisi2
 841 03ba 1846     		mov	r0, r3
 842 03bc FFF7FEFF 		bl	PRINTER_A_PutChar
 132:printer.c     **** 		PRINTER_A_PutChar(msn_fecha[x]);
 843              		.loc 1 132 0 discriminator 3
 844 03c0 97F83C30 		ldrb	r3, [r7, #60]	@ zero_extendqisi2
 845 03c4 0133     		adds	r3, r3, #1
 846 03c6 87F83C30 		strb	r3, [r7, #60]
 847              	.L25:
 132:printer.c     **** 		PRINTER_A_PutChar(msn_fecha[x]);
 848              		.loc 1 132 0 is_stmt 0 discriminator 1
 849 03ca 97F83C30 		ldrb	r3, [r7, #60]	@ zero_extendqisi2
 850 03ce 0C2B     		cmp	r3, #12
 851 03d0 EFD9     		bls	.L26
 852              	.LBE12:
 134:printer.c     **** 	}
 135:printer.c     ****     PRINTER_A_PutChar(((touch1[8] >> 4) + 0x30)) ;
 853              		.loc 1 135 0 is_stmt 1
 854 03d2 AC4B     		ldr	r3, .L137+12
 855 03d4 1B7A     		ldrb	r3, [r3, #8]	@ zero_extendqisi2
 856 03d6 1B09     		lsrs	r3, r3, #4
 857 03d8 DBB2     		uxtb	r3, r3
 858 03da 3033     		adds	r3, r3, #48
 859 03dc DBB2     		uxtb	r3, r3
 860 03de 1846     		mov	r0, r3
 861 03e0 FFF7FEFF 		bl	PRINTER_A_PutChar
 136:printer.c     **** 	PRINTER_A_PutChar(((touch1[8] & 0x0F) + 0x30));
 862              		.loc 1 136 0
 863 03e4 A74B     		ldr	r3, .L137+12
 864 03e6 1B7A     		ldrb	r3, [r3, #8]	@ zero_extendqisi2
 865 03e8 03F00F03 		and	r3, r3, #15
 866 03ec DBB2     		uxtb	r3, r3
 867 03ee 3033     		adds	r3, r3, #48
 868 03f0 DBB2     		uxtb	r3, r3
 869 03f2 1846     		mov	r0, r3
 870 03f4 FFF7FEFF 		bl	PRINTER_A_PutChar
 137:printer.c     ****     PRINTER_A_PutChar('/');
 871              		.loc 1 137 0
 872 03f8 2F20     		movs	r0, #47
 873 03fa FFF7FEFF 		bl	PRINTER_A_PutChar
 138:printer.c     ****     PRINTER_A_PutChar(((touch1[7] >> 4) + 0x30)) ;
 874              		.loc 1 138 0
 875 03fe A14B     		ldr	r3, .L137+12
 876 0400 DB79     		ldrb	r3, [r3, #7]	@ zero_extendqisi2
 877 0402 1B09     		lsrs	r3, r3, #4
 878 0404 DBB2     		uxtb	r3, r3
 879 0406 3033     		adds	r3, r3, #48
ARM GAS  C:\Users\Diego\AppData\Local\Temp\ccnYGT0M.s 			page 22


 880 0408 DBB2     		uxtb	r3, r3
 881 040a 1846     		mov	r0, r3
 882 040c FFF7FEFF 		bl	PRINTER_A_PutChar
 139:printer.c     ****     PRINTER_A_PutChar(((touch1[7] & 0x0F) + 0x30));
 883              		.loc 1 139 0
 884 0410 9C4B     		ldr	r3, .L137+12
 885 0412 DB79     		ldrb	r3, [r3, #7]	@ zero_extendqisi2
 886 0414 03F00F03 		and	r3, r3, #15
 887 0418 DBB2     		uxtb	r3, r3
 888 041a 3033     		adds	r3, r3, #48
 889 041c DBB2     		uxtb	r3, r3
 890 041e 1846     		mov	r0, r3
 891 0420 FFF7FEFF 		bl	PRINTER_A_PutChar
 140:printer.c     ****     PRINTER_A_PutChar('/');    
 892              		.loc 1 140 0
 893 0424 2F20     		movs	r0, #47
 894 0426 FFF7FEFF 		bl	PRINTER_A_PutChar
 141:printer.c     ****     PRINTER_A_PutChar(((touch1[6] >> 4) + 0x30));
 895              		.loc 1 141 0
 896 042a 964B     		ldr	r3, .L137+12
 897 042c 9B79     		ldrb	r3, [r3, #6]	@ zero_extendqisi2
 898 042e 1B09     		lsrs	r3, r3, #4
 899 0430 DBB2     		uxtb	r3, r3
 900 0432 3033     		adds	r3, r3, #48
 901 0434 DBB2     		uxtb	r3, r3
 902 0436 1846     		mov	r0, r3
 903 0438 FFF7FEFF 		bl	PRINTER_A_PutChar
 142:printer.c     ****     PRINTER_A_PutChar(((touch1[6] & 0x0F) + 0x30));
 904              		.loc 1 142 0
 905 043c 914B     		ldr	r3, .L137+12
 906 043e 9B79     		ldrb	r3, [r3, #6]	@ zero_extendqisi2
 907 0440 03F00F03 		and	r3, r3, #15
 908 0444 DBB2     		uxtb	r3, r3
 909 0446 3033     		adds	r3, r3, #48
 910 0448 DBB2     		uxtb	r3, r3
 911 044a 1846     		mov	r0, r3
 912 044c FFF7FEFF 		bl	PRINTER_A_PutChar
 143:printer.c     **** 	PRINTER_A_PutChar(LINE_FEED);
 913              		.loc 1 143 0
 914 0450 8A4B     		ldr	r3, .L137+4
 915 0452 1B78     		ldrb	r3, [r3]	@ zero_extendqisi2
 916 0454 1846     		mov	r0, r3
 917 0456 FFF7FEFF 		bl	PRINTER_A_PutChar
 918              	.LBB13:
 144:printer.c     ****     /********** HORA ***************/
 145:printer.c     **** 	for(uint8 x = 0; x < 13; x ++){
 919              		.loc 1 145 0
 920 045a 0023     		movs	r3, #0
 921 045c 87F83B30 		strb	r3, [r7, #59]
 922 0460 0BE0     		b	.L27
 923              	.L28:
 146:printer.c     **** 		PRINTER_A_PutChar(msn_hora[x]);
 924              		.loc 1 146 0 discriminator 3
 925 0462 97F83B30 		ldrb	r3, [r7, #59]	@ zero_extendqisi2
 926 0466 884A     		ldr	r2, .L137+16
 927 0468 D35C     		ldrb	r3, [r2, r3]	@ zero_extendqisi2
 928 046a 1846     		mov	r0, r3
ARM GAS  C:\Users\Diego\AppData\Local\Temp\ccnYGT0M.s 			page 23


 929 046c FFF7FEFF 		bl	PRINTER_A_PutChar
 145:printer.c     **** 		PRINTER_A_PutChar(msn_hora[x]);
 930              		.loc 1 145 0 discriminator 3
 931 0470 97F83B30 		ldrb	r3, [r7, #59]	@ zero_extendqisi2
 932 0474 0133     		adds	r3, r3, #1
 933 0476 87F83B30 		strb	r3, [r7, #59]
 934              	.L27:
 145:printer.c     **** 		PRINTER_A_PutChar(msn_hora[x]);
 935              		.loc 1 145 0 is_stmt 0 discriminator 1
 936 047a 97F83B30 		ldrb	r3, [r7, #59]	@ zero_extendqisi2
 937 047e 0C2B     		cmp	r3, #12
 938 0480 EFD9     		bls	.L28
 939              	.LBE13:
 147:printer.c     **** 	}
 148:printer.c     ****     PRINTER_A_PutChar(((touch1[10] >> 4) + 0x30)) ;
 940              		.loc 1 148 0 is_stmt 1
 941 0482 804B     		ldr	r3, .L137+12
 942 0484 9B7A     		ldrb	r3, [r3, #10]	@ zero_extendqisi2
 943 0486 1B09     		lsrs	r3, r3, #4
 944 0488 DBB2     		uxtb	r3, r3
 945 048a 3033     		adds	r3, r3, #48
 946 048c DBB2     		uxtb	r3, r3
 947 048e 1846     		mov	r0, r3
 948 0490 FFF7FEFF 		bl	PRINTER_A_PutChar
 149:printer.c     ****     PRINTER_A_PutChar(((touch1[10] & 0x0F) + 0x30));
 949              		.loc 1 149 0
 950 0494 7B4B     		ldr	r3, .L137+12
 951 0496 9B7A     		ldrb	r3, [r3, #10]	@ zero_extendqisi2
 952 0498 03F00F03 		and	r3, r3, #15
 953 049c DBB2     		uxtb	r3, r3
 954 049e 3033     		adds	r3, r3, #48
 955 04a0 DBB2     		uxtb	r3, r3
 956 04a2 1846     		mov	r0, r3
 957 04a4 FFF7FEFF 		bl	PRINTER_A_PutChar
 150:printer.c     ****     PRINTER_A_PutChar(':');
 958              		.loc 1 150 0
 959 04a8 3A20     		movs	r0, #58
 960 04aa FFF7FEFF 		bl	PRINTER_A_PutChar
 151:printer.c     ****     PRINTER_A_PutChar(((touch1[11] >> 4) + 0x30)) ;
 961              		.loc 1 151 0
 962 04ae 754B     		ldr	r3, .L137+12
 963 04b0 DB7A     		ldrb	r3, [r3, #11]	@ zero_extendqisi2
 964 04b2 1B09     		lsrs	r3, r3, #4
 965 04b4 DBB2     		uxtb	r3, r3
 966 04b6 3033     		adds	r3, r3, #48
 967 04b8 DBB2     		uxtb	r3, r3
 968 04ba 1846     		mov	r0, r3
 969 04bc FFF7FEFF 		bl	PRINTER_A_PutChar
 152:printer.c     ****     PRINTER_A_PutChar(((touch1[11] & 0x0F) + 0x30));
 970              		.loc 1 152 0
 971 04c0 704B     		ldr	r3, .L137+12
 972 04c2 DB7A     		ldrb	r3, [r3, #11]	@ zero_extendqisi2
 973 04c4 03F00F03 		and	r3, r3, #15
 974 04c8 DBB2     		uxtb	r3, r3
 975 04ca 3033     		adds	r3, r3, #48
 976 04cc DBB2     		uxtb	r3, r3
 977 04ce 1846     		mov	r0, r3
ARM GAS  C:\Users\Diego\AppData\Local\Temp\ccnYGT0M.s 			page 24


 978 04d0 FFF7FEFF 		bl	PRINTER_A_PutChar
 153:printer.c     ****     PRINTER_A_PutChar(':');
 979              		.loc 1 153 0
 980 04d4 3A20     		movs	r0, #58
 981 04d6 FFF7FEFF 		bl	PRINTER_A_PutChar
 154:printer.c     ****     PRINTER_A_PutChar(((touch1[12] >> 4) + 0x30));
 982              		.loc 1 154 0
 983 04da 6A4B     		ldr	r3, .L137+12
 984 04dc 1B7B     		ldrb	r3, [r3, #12]	@ zero_extendqisi2
 985 04de 1B09     		lsrs	r3, r3, #4
 986 04e0 DBB2     		uxtb	r3, r3
 987 04e2 3033     		adds	r3, r3, #48
 988 04e4 DBB2     		uxtb	r3, r3
 989 04e6 1846     		mov	r0, r3
 990 04e8 FFF7FEFF 		bl	PRINTER_A_PutChar
 155:printer.c     **** 	PRINTER_A_PutChar(((touch1[12] & 0x0F) + 0x30));
 991              		.loc 1 155 0
 992 04ec 654B     		ldr	r3, .L137+12
 993 04ee 1B7B     		ldrb	r3, [r3, #12]	@ zero_extendqisi2
 994 04f0 03F00F03 		and	r3, r3, #15
 995 04f4 DBB2     		uxtb	r3, r3
 996 04f6 3033     		adds	r3, r3, #48
 997 04f8 DBB2     		uxtb	r3, r3
 998 04fa 1846     		mov	r0, r3
 999 04fc FFF7FEFF 		bl	PRINTER_A_PutChar
 156:printer.c     **** 	
 157:printer.c     ****     PRINTER_A_PutChar(LINE_FEED);
 1000              		.loc 1 157 0
 1001 0500 5E4B     		ldr	r3, .L137+4
 1002 0502 1B78     		ldrb	r3, [r3]	@ zero_extendqisi2
 1003 0504 1846     		mov	r0, r3
 1004 0506 FFF7FEFF 		bl	PRINTER_A_PutChar
 1005              	.LBB14:
 158:printer.c     ****     for(uint8 x = 0; x < 32; x ++){
 1006              		.loc 1 158 0
 1007 050a 0023     		movs	r3, #0
 1008 050c 87F83A30 		strb	r3, [r7, #58]
 1009 0510 0BE0     		b	.L29
 1010              	.L30:
 159:printer.c     **** 		PRINTER_A_PutChar(SEPARATOR[x]);
 1011              		.loc 1 159 0 discriminator 3
 1012 0512 97F83A30 		ldrb	r3, [r7, #58]	@ zero_extendqisi2
 1013 0516 584A     		ldr	r2, .L137
 1014 0518 D35C     		ldrb	r3, [r2, r3]	@ zero_extendqisi2
 1015 051a 1846     		mov	r0, r3
 1016 051c FFF7FEFF 		bl	PRINTER_A_PutChar
 158:printer.c     ****     for(uint8 x = 0; x < 32; x ++){
 1017              		.loc 1 158 0 discriminator 3
 1018 0520 97F83A30 		ldrb	r3, [r7, #58]	@ zero_extendqisi2
 1019 0524 0133     		adds	r3, r3, #1
 1020 0526 87F83A30 		strb	r3, [r7, #58]
 1021              	.L29:
 158:printer.c     ****     for(uint8 x = 0; x < 32; x ++){
 1022              		.loc 1 158 0 is_stmt 0 discriminator 1
 1023 052a 97F83A30 		ldrb	r3, [r7, #58]	@ zero_extendqisi2
 1024 052e 1F2B     		cmp	r3, #31
 1025 0530 EFD9     		bls	.L30
ARM GAS  C:\Users\Diego\AppData\Local\Temp\ccnYGT0M.s 			page 25


 1026              	.LBE14:
 160:printer.c     **** 	}
 161:printer.c     ****             
 162:printer.c     **** 	/***** body ******/
 163:printer.c     **** 	if(address == side.a.dir){
 1027              		.loc 1 163 0 is_stmt 1
 1028 0532 564B     		ldr	r3, .L137+20
 1029 0534 1B78     		ldrb	r3, [r3]	@ zero_extendqisi2
 1030 0536 FA79     		ldrb	r2, [r7, #7]	@ zero_extendqisi2
 1031 0538 9A42     		cmp	r2, r3
 1032 053a 40F02082 		bne	.L31
 164:printer.c     ****         if(side.a.Copy == 1){
 1033              		.loc 1 164 0
 1034 053e 534B     		ldr	r3, .L137+20
 1035 0540 93F83431 		ldrb	r3, [r3, #308]	@ zero_extendqisi2
 1036 0544 012B     		cmp	r3, #1
 1037 0546 2CD1     		bne	.L32
 1038              	.LBB15:
 165:printer.c     ****             for(uint8 x = 0; x < 32; x ++){
 1039              		.loc 1 165 0
 1040 0548 0023     		movs	r3, #0
 1041 054a 87F83930 		strb	r3, [r7, #57]
 1042 054e 0BE0     		b	.L33
 1043              	.L34:
 166:printer.c     ****         		PRINTER_A_PutChar(msn_copy[x]);
 1044              		.loc 1 166 0 discriminator 3
 1045 0550 97F83930 		ldrb	r3, [r7, #57]	@ zero_extendqisi2
 1046 0554 4E4A     		ldr	r2, .L137+24
 1047 0556 D35C     		ldrb	r3, [r2, r3]	@ zero_extendqisi2
 1048 0558 1846     		mov	r0, r3
 1049 055a FFF7FEFF 		bl	PRINTER_A_PutChar
 165:printer.c     ****             for(uint8 x = 0; x < 32; x ++){
 1050              		.loc 1 165 0 discriminator 3
 1051 055e 97F83930 		ldrb	r3, [r7, #57]	@ zero_extendqisi2
 1052 0562 0133     		adds	r3, r3, #1
 1053 0564 87F83930 		strb	r3, [r7, #57]
 1054              	.L33:
 165:printer.c     ****             for(uint8 x = 0; x < 32; x ++){
 1055              		.loc 1 165 0 is_stmt 0 discriminator 1
 1056 0568 97F83930 		ldrb	r3, [r7, #57]	@ zero_extendqisi2
 1057 056c 1F2B     		cmp	r3, #31
 1058 056e EFD9     		bls	.L34
 1059              	.LBE15:
 167:printer.c     ****         	}
 168:printer.c     ****             PRINTER_A_PutChar(LINE_FEED);
 1060              		.loc 1 168 0 is_stmt 1
 1061 0570 424B     		ldr	r3, .L137+4
 1062 0572 1B78     		ldrb	r3, [r3]	@ zero_extendqisi2
 1063 0574 1846     		mov	r0, r3
 1064 0576 FFF7FEFF 		bl	PRINTER_A_PutChar
 1065              	.LBB16:
 169:printer.c     ****             for(uint8 x = 0; x < 32; x ++){
 1066              		.loc 1 169 0
 1067 057a 0023     		movs	r3, #0
 1068 057c 87F83830 		strb	r3, [r7, #56]
 1069 0580 0BE0     		b	.L35
 1070              	.L36:
ARM GAS  C:\Users\Diego\AppData\Local\Temp\ccnYGT0M.s 			page 26


 170:printer.c     ****         		PRINTER_A_PutChar(SEPARATOR[x]);
 1071              		.loc 1 170 0 discriminator 3
 1072 0582 97F83830 		ldrb	r3, [r7, #56]	@ zero_extendqisi2
 1073 0586 3C4A     		ldr	r2, .L137
 1074 0588 D35C     		ldrb	r3, [r2, r3]	@ zero_extendqisi2
 1075 058a 1846     		mov	r0, r3
 1076 058c FFF7FEFF 		bl	PRINTER_A_PutChar
 169:printer.c     ****             for(uint8 x = 0; x < 32; x ++){
 1077              		.loc 1 169 0 discriminator 3
 1078 0590 97F83830 		ldrb	r3, [r7, #56]	@ zero_extendqisi2
 1079 0594 0133     		adds	r3, r3, #1
 1080 0596 87F83830 		strb	r3, [r7, #56]
 1081              	.L35:
 169:printer.c     ****             for(uint8 x = 0; x < 32; x ++){
 1082              		.loc 1 169 0 is_stmt 0 discriminator 1
 1083 059a 97F83830 		ldrb	r3, [r7, #56]	@ zero_extendqisi2
 1084 059e 1F2B     		cmp	r3, #31
 1085 05a0 EFD9     		bls	.L36
 1086              	.L32:
 1087              	.LBE16:
 171:printer.c     ****         	}            
 172:printer.c     ****         }
 173:printer.c     ****         PRINTER_A_PutChar(LINE_FEED);
 1088              		.loc 1 173 0 is_stmt 1
 1089 05a2 364B     		ldr	r3, .L137+4
 1090 05a4 1B78     		ldrb	r3, [r3]	@ zero_extendqisi2
 1091 05a6 1846     		mov	r0, r3
 1092 05a8 FFF7FEFF 		bl	PRINTER_A_PutChar
 1093              	.LBB17:
 174:printer.c     ****         for(uint8 x = 0; x < 13; x ++){
 1094              		.loc 1 174 0
 1095 05ac 0023     		movs	r3, #0
 1096 05ae 87F83730 		strb	r3, [r7, #55]
 1097 05b2 0BE0     		b	.L37
 1098              	.L38:
 175:printer.c     ****     		PRINTER_A_PutChar(msn_venta[x]);
 1099              		.loc 1 175 0 discriminator 3
 1100 05b4 97F83730 		ldrb	r3, [r7, #55]	@ zero_extendqisi2
 1101 05b8 364A     		ldr	r2, .L137+28
 1102 05ba D35C     		ldrb	r3, [r2, r3]	@ zero_extendqisi2
 1103 05bc 1846     		mov	r0, r3
 1104 05be FFF7FEFF 		bl	PRINTER_A_PutChar
 174:printer.c     ****         for(uint8 x = 0; x < 13; x ++){
 1105              		.loc 1 174 0 discriminator 3
 1106 05c2 97F83730 		ldrb	r3, [r7, #55]	@ zero_extendqisi2
 1107 05c6 0133     		adds	r3, r3, #1
 1108 05c8 87F83730 		strb	r3, [r7, #55]
 1109              	.L37:
 174:printer.c     ****         for(uint8 x = 0; x < 13; x ++){
 1110              		.loc 1 174 0 is_stmt 0 discriminator 1
 1111 05cc 97F83730 		ldrb	r3, [r7, #55]	@ zero_extendqisi2
 1112 05d0 0C2B     		cmp	r3, #12
 1113 05d2 EFD9     		bls	.L38
 1114              	.LBE17:
 176:printer.c     ****     	}
 177:printer.c     ****         if(side.a.Copy == 1){
 1115              		.loc 1 177 0 is_stmt 1
ARM GAS  C:\Users\Diego\AppData\Local\Temp\ccnYGT0M.s 			page 27


 1116 05d4 2D4B     		ldr	r3, .L137+20
 1117 05d6 93F83431 		ldrb	r3, [r3, #308]	@ zero_extendqisi2
 1118 05da 012B     		cmp	r3, #1
 1119 05dc 14D1     		bne	.L39
 1120              	.LBB18:
 178:printer.c     ****            for(uint8 x = 5; x > 0; x --){
 1121              		.loc 1 178 0
 1122 05de 0523     		movs	r3, #5
 1123 05e0 87F83630 		strb	r3, [r7, #54]
 1124 05e4 0BE0     		b	.L40
 1125              	.L41:
 179:printer.c     ****         		PRINTER_A_PutChar(sale_number_copy[x]);
 1126              		.loc 1 179 0 discriminator 3
 1127 05e6 97F83630 		ldrb	r3, [r7, #54]	@ zero_extendqisi2
 1128 05ea 2B4A     		ldr	r2, .L137+32
 1129 05ec D35C     		ldrb	r3, [r2, r3]	@ zero_extendqisi2
 1130 05ee 1846     		mov	r0, r3
 1131 05f0 FFF7FEFF 		bl	PRINTER_A_PutChar
 178:printer.c     ****            for(uint8 x = 5; x > 0; x --){
 1132              		.loc 1 178 0 discriminator 3
 1133 05f4 97F83630 		ldrb	r3, [r7, #54]	@ zero_extendqisi2
 1134 05f8 013B     		subs	r3, r3, #1
 1135 05fa 87F83630 		strb	r3, [r7, #54]
 1136              	.L40:
 178:printer.c     ****            for(uint8 x = 5; x > 0; x --){
 1137              		.loc 1 178 0 is_stmt 0 discriminator 1
 1138 05fe 97F83630 		ldrb	r3, [r7, #54]	@ zero_extendqisi2
 1139 0602 002B     		cmp	r3, #0
 1140 0604 EFD1     		bne	.L41
 1141 0606 19E0     		b	.L42
 1142              	.L39:
 1143              	.LBE18:
 1144              	.LBB19:
 180:printer.c     ****         	} 
 181:printer.c     ****         }else{
 182:printer.c     ****             for(uint8 x = 5; x > 0; x --){
 1145              		.loc 1 182 0 is_stmt 1
 1146 0608 0523     		movs	r3, #5
 1147 060a 87F83530 		strb	r3, [r7, #53]
 1148 060e 0BE0     		b	.L43
 1149              	.L44:
 183:printer.c     ****         		PRINTER_A_PutChar(sale_number[x]);
 1150              		.loc 1 183 0 discriminator 3
 1151 0610 97F83530 		ldrb	r3, [r7, #53]	@ zero_extendqisi2
 1152 0614 214A     		ldr	r2, .L137+36
 1153 0616 D35C     		ldrb	r3, [r2, r3]	@ zero_extendqisi2
 1154 0618 1846     		mov	r0, r3
 1155 061a FFF7FEFF 		bl	PRINTER_A_PutChar
 182:printer.c     ****         		PRINTER_A_PutChar(sale_number[x]);
 1156              		.loc 1 182 0 discriminator 3
 1157 061e 97F83530 		ldrb	r3, [r7, #53]	@ zero_extendqisi2
 1158 0622 013B     		subs	r3, r3, #1
 1159 0624 87F83530 		strb	r3, [r7, #53]
 1160              	.L43:
 182:printer.c     ****         		PRINTER_A_PutChar(sale_number[x]);
 1161              		.loc 1 182 0 is_stmt 0 discriminator 1
 1162 0628 97F83530 		ldrb	r3, [r7, #53]	@ zero_extendqisi2
ARM GAS  C:\Users\Diego\AppData\Local\Temp\ccnYGT0M.s 			page 28


 1163 062c 002B     		cmp	r3, #0
 1164 062e EFD1     		bne	.L44
 1165              	.LBE19:
 184:printer.c     ****         	}
 185:printer.c     ****             int_salenumber++;
 1166              		.loc 1 185 0 is_stmt 1
 1167 0630 1B4B     		ldr	r3, .L137+40
 1168 0632 1B78     		ldrb	r3, [r3]	@ zero_extendqisi2
 1169 0634 0133     		adds	r3, r3, #1
 1170 0636 DAB2     		uxtb	r2, r3
 1171 0638 194B     		ldr	r3, .L137+40
 1172 063a 1A70     		strb	r2, [r3]
 1173              	.L42:
 186:printer.c     ****         }
 187:printer.c     ****         PRINTER_A_PutChar(LINE_FEED);
 1174              		.loc 1 187 0
 1175 063c 0F4B     		ldr	r3, .L137+4
 1176 063e 1B78     		ldrb	r3, [r3]	@ zero_extendqisi2
 1177 0640 1846     		mov	r0, r3
 1178 0642 FFF7FEFF 		bl	PRINTER_A_PutChar
 1179              	.LBB20:
 188:printer.c     ****     	for(uint8 x = 0; x < 13; x ++){
 1180              		.loc 1 188 0
 1181 0646 0023     		movs	r3, #0
 1182 0648 87F83430 		strb	r3, [r7, #52]
 1183 064c 0BE0     		b	.L45
 1184              	.L46:
 189:printer.c     ****     		PRINTER_A_PutChar(msn_placa[x]);
 1185              		.loc 1 189 0 discriminator 3
 1186 064e 97F83430 		ldrb	r3, [r7, #52]	@ zero_extendqisi2
 1187 0652 144A     		ldr	r2, .L137+44
 1188 0654 D35C     		ldrb	r3, [r2, r3]	@ zero_extendqisi2
 1189 0656 1846     		mov	r0, r3
 1190 0658 FFF7FEFF 		bl	PRINTER_A_PutChar
 188:printer.c     ****     	for(uint8 x = 0; x < 13; x ++){
 1191              		.loc 1 188 0 discriminator 3
 1192 065c 97F83430 		ldrb	r3, [r7, #52]	@ zero_extendqisi2
 1193 0660 0133     		adds	r3, r3, #1
 1194 0662 87F83430 		strb	r3, [r7, #52]
 1195              	.L45:
 188:printer.c     ****     	for(uint8 x = 0; x < 13; x ++){
 1196              		.loc 1 188 0 is_stmt 0 discriminator 1
 1197 0666 97F83430 		ldrb	r3, [r7, #52]	@ zero_extendqisi2
 1198 066a 0C2B     		cmp	r3, #12
 1199 066c EFD9     		bls	.L46
 1200              	.LBE20:
 1201              	.LBB21:
 190:printer.c     ****     	}
 191:printer.c     **** 		for(uint8 x = 0; x < 8; x ++){
 1202              		.loc 1 191 0 is_stmt 1
 1203 066e 0023     		movs	r3, #0
 1204 0670 87F83330 		strb	r3, [r7, #51]
 1205 0674 26E0     		b	.L47
 1206              	.L138:
 1207 0676 00BF     		.align	2
 1208              	.L137:
 1209 0678 00000000 		.word	SEPARATOR
ARM GAS  C:\Users\Diego\AppData\Local\Temp\ccnYGT0M.s 			page 29


 1210 067c 00000000 		.word	LINE_FEED
 1211 0680 00000000 		.word	msn_fecha
 1212 0684 00000000 		.word	touch1
 1213 0688 00000000 		.word	msn_hora
 1214 068c 00000000 		.word	side
 1215 0690 00000000 		.word	msn_copy
 1216 0694 00000000 		.word	msn_venta
 1217 0698 00000000 		.word	sale_number_copy
 1218 069c 00000000 		.word	sale_number
 1219 06a0 00000000 		.word	int_salenumber
 1220 06a4 00000000 		.word	msn_placa
 1221              	.L48:
 192:printer.c     **** 			PRINTER_A_PutChar(side.a.msn_plate[x]);
 1222              		.loc 1 192 0 discriminator 3
 1223 06a8 97F83330 		ldrb	r3, [r7, #51]	@ zero_extendqisi2
 1224 06ac C84A     		ldr	r2, .L139
 1225 06ae 1344     		add	r3, r3, r2
 1226 06b0 93F82331 		ldrb	r3, [r3, #291]	@ zero_extendqisi2
 1227 06b4 1846     		mov	r0, r3
 1228 06b6 FFF7FEFF 		bl	PRINTER_A_PutChar
 191:printer.c     **** 			PRINTER_A_PutChar(side.a.msn_plate[x]);
 1229              		.loc 1 191 0 discriminator 3
 1230 06ba 97F83330 		ldrb	r3, [r7, #51]	@ zero_extendqisi2
 1231 06be 0133     		adds	r3, r3, #1
 1232 06c0 87F83330 		strb	r3, [r7, #51]
 1233              	.L47:
 191:printer.c     **** 			PRINTER_A_PutChar(side.a.msn_plate[x]);
 1234              		.loc 1 191 0 is_stmt 0 discriminator 1
 1235 06c4 97F83330 		ldrb	r3, [r7, #51]	@ zero_extendqisi2
 1236 06c8 072B     		cmp	r3, #7
 1237 06ca EDD9     		bls	.L48
 1238              	.LBE21:
 193:printer.c     **** 		}  
 194:printer.c     ****         PRINTER_A_PutChar(LINE_FEED);
 1239              		.loc 1 194 0 is_stmt 1
 1240 06cc C14B     		ldr	r3, .L139+4
 1241 06ce 1B78     		ldrb	r3, [r3]	@ zero_extendqisi2
 1242 06d0 1846     		mov	r0, r3
 1243 06d2 FFF7FEFF 		bl	PRINTER_A_PutChar
 1244              	.LBB22:
 195:printer.c     ****         for(uint8 x = 0; x < 13; x ++){
 1245              		.loc 1 195 0
 1246 06d6 0023     		movs	r3, #0
 1247 06d8 87F83230 		strb	r3, [r7, #50]
 1248 06dc 0BE0     		b	.L49
 1249              	.L50:
 196:printer.c     **** 			PRINTER_A_PutChar(PRN_MILLEAGE[x]);
 1250              		.loc 1 196 0 discriminator 3
 1251 06de 97F83230 		ldrb	r3, [r7, #50]	@ zero_extendqisi2
 1252 06e2 BD4A     		ldr	r2, .L139+8
 1253 06e4 D35C     		ldrb	r3, [r2, r3]	@ zero_extendqisi2
 1254 06e6 1846     		mov	r0, r3
 1255 06e8 FFF7FEFF 		bl	PRINTER_A_PutChar
 195:printer.c     ****         for(uint8 x = 0; x < 13; x ++){
 1256              		.loc 1 195 0 discriminator 3
 1257 06ec 97F83230 		ldrb	r3, [r7, #50]	@ zero_extendqisi2
 1258 06f0 0133     		adds	r3, r3, #1
ARM GAS  C:\Users\Diego\AppData\Local\Temp\ccnYGT0M.s 			page 30


 1259 06f2 87F83230 		strb	r3, [r7, #50]
 1260              	.L49:
 195:printer.c     ****         for(uint8 x = 0; x < 13; x ++){
 1261              		.loc 1 195 0 is_stmt 0 discriminator 1
 1262 06f6 97F83230 		ldrb	r3, [r7, #50]	@ zero_extendqisi2
 1263 06fa 0C2B     		cmp	r3, #12
 1264 06fc EFD9     		bls	.L50
 1265              	.LBE22:
 1266              	.LBB23:
 197:printer.c     **** 		}          
 198:printer.c     ****         for(uint8 x = 0; x <6; x ++){
 1267              		.loc 1 198 0 is_stmt 1
 1268 06fe 0023     		movs	r3, #0
 1269 0700 87F83130 		strb	r3, [r7, #49]
 1270 0704 0DE0     		b	.L51
 1271              	.L52:
 199:printer.c     **** 			PRINTER_A_PutChar(side.a.km[x]);
 1272              		.loc 1 199 0 discriminator 3
 1273 0706 97F83130 		ldrb	r3, [r7, #49]	@ zero_extendqisi2
 1274 070a B14A     		ldr	r2, .L139
 1275 070c 1344     		add	r3, r3, r2
 1276 070e 93F82D31 		ldrb	r3, [r3, #301]	@ zero_extendqisi2
 1277 0712 1846     		mov	r0, r3
 1278 0714 FFF7FEFF 		bl	PRINTER_A_PutChar
 198:printer.c     **** 			PRINTER_A_PutChar(side.a.km[x]);
 1279              		.loc 1 198 0 discriminator 3
 1280 0718 97F83130 		ldrb	r3, [r7, #49]	@ zero_extendqisi2
 1281 071c 0133     		adds	r3, r3, #1
 1282 071e 87F83130 		strb	r3, [r7, #49]
 1283              	.L51:
 198:printer.c     **** 			PRINTER_A_PutChar(side.a.km[x]);
 1284              		.loc 1 198 0 is_stmt 0 discriminator 1
 1285 0722 97F83130 		ldrb	r3, [r7, #49]	@ zero_extendqisi2
 1286 0726 052B     		cmp	r3, #5
 1287 0728 EDD9     		bls	.L52
 1288              	.LBE23:
 200:printer.c     **** 		}  
 201:printer.c     ****         PRINTER_A_PutChar(LINE_FEED);
 1289              		.loc 1 201 0 is_stmt 1
 1290 072a AA4B     		ldr	r3, .L139+4
 1291 072c 1B78     		ldrb	r3, [r3]	@ zero_extendqisi2
 1292 072e 1846     		mov	r0, r3
 1293 0730 FFF7FEFF 		bl	PRINTER_A_PutChar
 1294              	.LBB24:
 202:printer.c     **** 		for(uint8 x = 0; x < 13; x ++){
 1295              		.loc 1 202 0
 1296 0734 0023     		movs	r3, #0
 1297 0736 87F83030 		strb	r3, [r7, #48]
 1298 073a 0BE0     		b	.L53
 1299              	.L54:
 203:printer.c     **** 			PRINTER_A_PutChar(msn_pos[x]);
 1300              		.loc 1 203 0 discriminator 3
 1301 073c 97F83030 		ldrb	r3, [r7, #48]	@ zero_extendqisi2
 1302 0740 A64A     		ldr	r2, .L139+12
 1303 0742 D35C     		ldrb	r3, [r2, r3]	@ zero_extendqisi2
 1304 0744 1846     		mov	r0, r3
 1305 0746 FFF7FEFF 		bl	PRINTER_A_PutChar
ARM GAS  C:\Users\Diego\AppData\Local\Temp\ccnYGT0M.s 			page 31


 202:printer.c     **** 		for(uint8 x = 0; x < 13; x ++){
 1306              		.loc 1 202 0 discriminator 3
 1307 074a 97F83030 		ldrb	r3, [r7, #48]	@ zero_extendqisi2
 1308 074e 0133     		adds	r3, r3, #1
 1309 0750 87F83030 		strb	r3, [r7, #48]
 1310              	.L53:
 202:printer.c     **** 		for(uint8 x = 0; x < 13; x ++){
 1311              		.loc 1 202 0 is_stmt 0 discriminator 1
 1312 0754 97F83030 		ldrb	r3, [r7, #48]	@ zero_extendqisi2
 1313 0758 0C2B     		cmp	r3, #12
 1314 075a EFD9     		bls	.L54
 1315              	.LBE24:
 204:printer.c     **** 		}
 205:printer.c     **** 		PRINTER_A_PutChar((side.a.dir)+ 0x31);
 1316              		.loc 1 205 0 is_stmt 1
 1317 075c 9C4B     		ldr	r3, .L139
 1318 075e 1B78     		ldrb	r3, [r3]	@ zero_extendqisi2
 1319 0760 3133     		adds	r3, r3, #49
 1320 0762 DBB2     		uxtb	r3, r3
 1321 0764 1846     		mov	r0, r3
 1322 0766 FFF7FEFF 		bl	PRINTER_A_PutChar
 206:printer.c     **** 		PRINTER_A_PutChar(LINE_FEED);
 1323              		.loc 1 206 0
 1324 076a 9A4B     		ldr	r3, .L139+4
 1325 076c 1B78     		ldrb	r3, [r3]	@ zero_extendqisi2
 1326 076e 1846     		mov	r0, r3
 1327 0770 FFF7FEFF 		bl	PRINTER_A_PutChar
 1328              	.LBB25:
 207:printer.c     **** 		for(uint8 x = 0; x < 13; x ++){
 1329              		.loc 1 207 0
 1330 0774 0023     		movs	r3, #0
 1331 0776 87F82F30 		strb	r3, [r7, #47]
 1332 077a 0BE0     		b	.L55
 1333              	.L56:
 208:printer.c     **** 			PRINTER_A_PutChar(msn_product[x]);
 1334              		.loc 1 208 0 discriminator 3
 1335 077c 97F82F30 		ldrb	r3, [r7, #47]	@ zero_extendqisi2
 1336 0780 974A     		ldr	r2, .L139+16
 1337 0782 D35C     		ldrb	r3, [r2, r3]	@ zero_extendqisi2
 1338 0784 1846     		mov	r0, r3
 1339 0786 FFF7FEFF 		bl	PRINTER_A_PutChar
 207:printer.c     **** 		for(uint8 x = 0; x < 13; x ++){
 1340              		.loc 1 207 0 discriminator 3
 1341 078a 97F82F30 		ldrb	r3, [r7, #47]	@ zero_extendqisi2
 1342 078e 0133     		adds	r3, r3, #1
 1343 0790 87F82F30 		strb	r3, [r7, #47]
 1344              	.L55:
 207:printer.c     **** 		for(uint8 x = 0; x < 13; x ++){
 1345              		.loc 1 207 0 is_stmt 0 discriminator 1
 1346 0794 97F82F30 		ldrb	r3, [r7, #47]	@ zero_extendqisi2
 1347 0798 0C2B     		cmp	r3, #12
 1348 079a EFD9     		bls	.L56
 1349              	.LBE25:
 209:printer.c     **** 		}
 210:printer.c     ****         if(side.a.Nozzle == 0x01){
 1350              		.loc 1 210 0 is_stmt 1
 1351 079c 8C4B     		ldr	r3, .L139
ARM GAS  C:\Users\Diego\AppData\Local\Temp\ccnYGT0M.s 			page 32


 1352 079e 93F82C31 		ldrb	r3, [r3, #300]	@ zero_extendqisi2
 1353 07a2 012B     		cmp	r3, #1
 1354 07a4 14D1     		bne	.L57
 1355              	.LBB26:
 211:printer.c     ****     		for(uint8 x = 0; x < 9; x ++){
 1356              		.loc 1 211 0
 1357 07a6 0023     		movs	r3, #0
 1358 07a8 87F82E30 		strb	r3, [r7, #46]
 1359 07ac 0BE0     		b	.L58
 1360              	.L59:
 212:printer.c     ****     			PRINTER_A_PutChar(msn_diesel[x]);
 1361              		.loc 1 212 0 discriminator 3
 1362 07ae 97F82E30 		ldrb	r3, [r7, #46]	@ zero_extendqisi2
 1363 07b2 8C4A     		ldr	r2, .L139+20
 1364 07b4 D35C     		ldrb	r3, [r2, r3]	@ zero_extendqisi2
 1365 07b6 1846     		mov	r0, r3
 1366 07b8 FFF7FEFF 		bl	PRINTER_A_PutChar
 211:printer.c     ****     		for(uint8 x = 0; x < 9; x ++){
 1367              		.loc 1 211 0 discriminator 3
 1368 07bc 97F82E30 		ldrb	r3, [r7, #46]	@ zero_extendqisi2
 1369 07c0 0133     		adds	r3, r3, #1
 1370 07c2 87F82E30 		strb	r3, [r7, #46]
 1371              	.L58:
 211:printer.c     ****     		for(uint8 x = 0; x < 9; x ++){
 1372              		.loc 1 211 0 is_stmt 0 discriminator 1
 1373 07c6 97F82E30 		ldrb	r3, [r7, #46]	@ zero_extendqisi2
 1374 07ca 082B     		cmp	r3, #8
 1375 07cc EFD9     		bls	.L59
 1376 07ce 13E0     		b	.L60
 1377              	.L57:
 1378              	.LBE26:
 1379              	.LBB27:
 213:printer.c     ****     		}
 214:printer.c     ****         }else{
 215:printer.c     ****             for(uint8 x = 0; x < 9; x ++){
 1380              		.loc 1 215 0 is_stmt 1
 1381 07d0 0023     		movs	r3, #0
 1382 07d2 87F82D30 		strb	r3, [r7, #45]
 1383 07d6 0BE0     		b	.L61
 1384              	.L62:
 216:printer.c     ****     			PRINTER_A_PutChar(msn_gasoline[x]);
 1385              		.loc 1 216 0 discriminator 3
 1386 07d8 97F82D30 		ldrb	r3, [r7, #45]	@ zero_extendqisi2
 1387 07dc 824A     		ldr	r2, .L139+24
 1388 07de D35C     		ldrb	r3, [r2, r3]	@ zero_extendqisi2
 1389 07e0 1846     		mov	r0, r3
 1390 07e2 FFF7FEFF 		bl	PRINTER_A_PutChar
 215:printer.c     ****     			PRINTER_A_PutChar(msn_gasoline[x]);
 1391              		.loc 1 215 0 discriminator 3
 1392 07e6 97F82D30 		ldrb	r3, [r7, #45]	@ zero_extendqisi2
 1393 07ea 0133     		adds	r3, r3, #1
 1394 07ec 87F82D30 		strb	r3, [r7, #45]
 1395              	.L61:
 215:printer.c     ****     			PRINTER_A_PutChar(msn_gasoline[x]);
 1396              		.loc 1 215 0 is_stmt 0 discriminator 1
 1397 07f0 97F82D30 		ldrb	r3, [r7, #45]	@ zero_extendqisi2
 1398 07f4 082B     		cmp	r3, #8
ARM GAS  C:\Users\Diego\AppData\Local\Temp\ccnYGT0M.s 			page 33


 1399 07f6 EFD9     		bls	.L62
 1400              	.L60:
 1401              	.LBE27:
 217:printer.c     ****     		}
 218:printer.c     ****         } 
 219:printer.c     ****         PRINTER_A_PutChar(LINE_FEED); 	
 1402              		.loc 1 219 0 is_stmt 1
 1403 07f8 764B     		ldr	r3, .L139+4
 1404 07fa 1B78     		ldrb	r3, [r3]	@ zero_extendqisi2
 1405 07fc 1846     		mov	r0, r3
 1406 07fe FFF7FEFF 		bl	PRINTER_A_PutChar
 1407              	.LBB28:
 220:printer.c     **** 		for(uint8 x = 0; x < 13; x ++){
 1408              		.loc 1 220 0
 1409 0802 0023     		movs	r3, #0
 1410 0804 87F82C30 		strb	r3, [r7, #44]
 1411 0808 0BE0     		b	.L63
 1412              	.L64:
 221:printer.c     **** 			PRINTER_A_PutChar(msn_ppu[x]);
 1413              		.loc 1 221 0 discriminator 3
 1414 080a 97F82C30 		ldrb	r3, [r7, #44]	@ zero_extendqisi2
 1415 080e 774A     		ldr	r2, .L139+28
 1416 0810 D35C     		ldrb	r3, [r2, r3]	@ zero_extendqisi2
 1417 0812 1846     		mov	r0, r3
 1418 0814 FFF7FEFF 		bl	PRINTER_A_PutChar
 220:printer.c     **** 		for(uint8 x = 0; x < 13; x ++){
 1419              		.loc 1 220 0 discriminator 3
 1420 0818 97F82C30 		ldrb	r3, [r7, #44]	@ zero_extendqisi2
 1421 081c 0133     		adds	r3, r3, #1
 1422 081e 87F82C30 		strb	r3, [r7, #44]
 1423              	.L63:
 220:printer.c     **** 		for(uint8 x = 0; x < 13; x ++){
 1424              		.loc 1 220 0 is_stmt 0 discriminator 1
 1425 0822 97F82C30 		ldrb	r3, [r7, #44]	@ zero_extendqisi2
 1426 0826 0C2B     		cmp	r3, #12
 1427 0828 EFD9     		bls	.L64
 1428              	.LBE28:
 222:printer.c     **** 		}
 223:printer.c     **** 		PRINTER_A_PutChar(PRN_CURRENCY[0]);  
 1429              		.loc 1 223 0 is_stmt 1
 1430 082a 714B     		ldr	r3, .L139+32
 1431 082c 1B78     		ldrb	r3, [r3]	@ zero_extendqisi2
 1432 082e 1846     		mov	r0, r3
 1433 0830 FFF7FEFF 		bl	PRINTER_A_PutChar
 224:printer.c     **** 		PRINTER_A_PutChar(' ');
 1434              		.loc 1 224 0
 1435 0834 2020     		movs	r0, #32
 1436 0836 FFF7FEFF 		bl	PRINTER_A_PutChar
 1437              	.LBB29:
 225:printer.c     **** 		for(uint8 x = 1; x < 6; x ++){
 1438              		.loc 1 225 0
 1439 083a 0123     		movs	r3, #1
 1440 083c 87F82B30 		strb	r3, [r7, #43]
 1441 0840 17E0     		b	.L65
 1442              	.L66:
 226:printer.c     **** 			PRINTER_A_PutChar(side.a.ProcessedPPU[side.a.Nozzle-1][x]);
 1443              		.loc 1 226 0 discriminator 3
ARM GAS  C:\Users\Diego\AppData\Local\Temp\ccnYGT0M.s 			page 34


 1444 0842 634B     		ldr	r3, .L139
 1445 0844 93F82C31 		ldrb	r3, [r3, #300]	@ zero_extendqisi2
 1446 0848 5A1E     		subs	r2, r3, #1
 1447 084a 97F82B10 		ldrb	r1, [r7, #43]	@ zero_extendqisi2
 1448 084e 6048     		ldr	r0, .L139
 1449 0850 1346     		mov	r3, r2
 1450 0852 5B00     		lsls	r3, r3, #1
 1451 0854 1344     		add	r3, r3, r2
 1452 0856 5B00     		lsls	r3, r3, #1
 1453 0858 0344     		add	r3, r3, r0
 1454 085a 0B44     		add	r3, r3, r1
 1455 085c 03F20B13 		addw	r3, r3, #267
 1456 0860 1B78     		ldrb	r3, [r3]	@ zero_extendqisi2
 1457 0862 1846     		mov	r0, r3
 1458 0864 FFF7FEFF 		bl	PRINTER_A_PutChar
 225:printer.c     **** 		for(uint8 x = 1; x < 6; x ++){
 1459              		.loc 1 225 0 discriminator 3
 1460 0868 97F82B30 		ldrb	r3, [r7, #43]	@ zero_extendqisi2
 1461 086c 0133     		adds	r3, r3, #1
 1462 086e 87F82B30 		strb	r3, [r7, #43]
 1463              	.L65:
 225:printer.c     **** 		for(uint8 x = 1; x < 6; x ++){
 1464              		.loc 1 225 0 is_stmt 0 discriminator 1
 1465 0872 97F82B30 		ldrb	r3, [r7, #43]	@ zero_extendqisi2
 1466 0876 052B     		cmp	r3, #5
 1467 0878 E3D9     		bls	.L66
 1468              	.LBE29:
 227:printer.c     **** 		}
 228:printer.c     ****         PRINTER_A_PutChar(LINE_FEED);
 1469              		.loc 1 228 0 is_stmt 1
 1470 087a 564B     		ldr	r3, .L139+4
 1471 087c 1B78     		ldrb	r3, [r3]	@ zero_extendqisi2
 1472 087e 1846     		mov	r0, r3
 1473 0880 FFF7FEFF 		bl	PRINTER_A_PutChar
 1474              	.LBB30:
 229:printer.c     **** 		for(uint8 x = 0; x < 13; x ++){
 1475              		.loc 1 229 0
 1476 0884 0023     		movs	r3, #0
 1477 0886 87F82A30 		strb	r3, [r7, #42]
 1478 088a 0BE0     		b	.L67
 1479              	.L68:
 230:printer.c     **** 			PRINTER_A_PutChar(msn_vol[x]);
 1480              		.loc 1 230 0 discriminator 3
 1481 088c 97F82A30 		ldrb	r3, [r7, #42]	@ zero_extendqisi2
 1482 0890 584A     		ldr	r2, .L139+36
 1483 0892 D35C     		ldrb	r3, [r2, r3]	@ zero_extendqisi2
 1484 0894 1846     		mov	r0, r3
 1485 0896 FFF7FEFF 		bl	PRINTER_A_PutChar
 229:printer.c     **** 		for(uint8 x = 0; x < 13; x ++){
 1486              		.loc 1 229 0 discriminator 3
 1487 089a 97F82A30 		ldrb	r3, [r7, #42]	@ zero_extendqisi2
 1488 089e 0133     		adds	r3, r3, #1
 1489 08a0 87F82A30 		strb	r3, [r7, #42]
 1490              	.L67:
 229:printer.c     **** 		for(uint8 x = 0; x < 13; x ++){
 1491              		.loc 1 229 0 is_stmt 0 discriminator 1
 1492 08a4 97F82A30 		ldrb	r3, [r7, #42]	@ zero_extendqisi2
ARM GAS  C:\Users\Diego\AppData\Local\Temp\ccnYGT0M.s 			page 35


 1493 08a8 0C2B     		cmp	r3, #12
 1494 08aa EFD9     		bls	.L68
 1495              	.LBE30:
 1496              	.LBB31:
 231:printer.c     **** 		}
 232:printer.c     **** 		for(uint8 x = 0; x < 8; x ++){
 1497              		.loc 1 232 0 is_stmt 1
 1498 08ac 0023     		movs	r3, #0
 1499 08ae 87F82930 		strb	r3, [r7, #41]
 1500 08b2 18E0     		b	.L69
 1501              	.L71:
 233:printer.c     **** 			if((8-x) == DecVol)
 1502              		.loc 1 233 0
 1503 08b4 97F82930 		ldrb	r3, [r7, #41]	@ zero_extendqisi2
 1504 08b8 C3F10803 		rsb	r3, r3, #8
 1505 08bc 4E4A     		ldr	r2, .L139+40
 1506 08be 1278     		ldrb	r2, [r2]	@ zero_extendqisi2
 1507 08c0 9342     		cmp	r3, r2
 1508 08c2 02D1     		bne	.L70
 234:printer.c     **** 				PRINTER_A_PutChar('.');
 1509              		.loc 1 234 0
 1510 08c4 2E20     		movs	r0, #46
 1511 08c6 FFF7FEFF 		bl	PRINTER_A_PutChar
 1512              	.L70:
 235:printer.c     **** 			PRINTER_A_PutChar(side.a.ProcessedvolumeSale[x]);        
 1513              		.loc 1 235 0 discriminator 2
 1514 08ca 97F82930 		ldrb	r3, [r7, #41]	@ zero_extendqisi2
 1515 08ce 404A     		ldr	r2, .L139
 1516 08d0 1344     		add	r3, r3, r2
 1517 08d2 93F80331 		ldrb	r3, [r3, #259]	@ zero_extendqisi2
 1518 08d6 1846     		mov	r0, r3
 1519 08d8 FFF7FEFF 		bl	PRINTER_A_PutChar
 232:printer.c     **** 			if((8-x) == DecVol)
 1520              		.loc 1 232 0 discriminator 2
 1521 08dc 97F82930 		ldrb	r3, [r7, #41]	@ zero_extendqisi2
 1522 08e0 0133     		adds	r3, r3, #1
 1523 08e2 87F82930 		strb	r3, [r7, #41]
 1524              	.L69:
 232:printer.c     **** 			if((8-x) == DecVol)
 1525              		.loc 1 232 0 is_stmt 0 discriminator 1
 1526 08e6 97F82930 		ldrb	r3, [r7, #41]	@ zero_extendqisi2
 1527 08ea 072B     		cmp	r3, #7
 1528 08ec E2D9     		bls	.L71
 1529              	.LBE31:
 236:printer.c     **** 		}
 237:printer.c     **** 		PRINTER_A_PutChar(' ');
 1530              		.loc 1 237 0 is_stmt 1
 1531 08ee 2020     		movs	r0, #32
 1532 08f0 FFF7FEFF 		bl	PRINTER_A_PutChar
 238:printer.c     **** 		PRINTER_A_PutChar(VolSimbol[0]);
 1533              		.loc 1 238 0
 1534 08f4 414B     		ldr	r3, .L139+44
 1535 08f6 1B78     		ldrb	r3, [r3]	@ zero_extendqisi2
 1536 08f8 1846     		mov	r0, r3
 1537 08fa FFF7FEFF 		bl	PRINTER_A_PutChar
 239:printer.c     **** 		PRINTER_A_PutChar(LINE_FEED); 
 1538              		.loc 1 239 0
ARM GAS  C:\Users\Diego\AppData\Local\Temp\ccnYGT0M.s 			page 36


 1539 08fe 354B     		ldr	r3, .L139+4
 1540 0900 1B78     		ldrb	r3, [r3]	@ zero_extendqisi2
 1541 0902 1846     		mov	r0, r3
 1542 0904 FFF7FEFF 		bl	PRINTER_A_PutChar
 1543              	.LBB32:
 240:printer.c     **** 		for(uint8 x = 0; x < 13; x ++){
 1544              		.loc 1 240 0
 1545 0908 0023     		movs	r3, #0
 1546 090a 87F82830 		strb	r3, [r7, #40]
 1547 090e 0BE0     		b	.L72
 1548              	.L73:
 241:printer.c     **** 			PRINTER_A_PutChar(msn_din[x]);
 1549              		.loc 1 241 0 discriminator 3
 1550 0910 97F82830 		ldrb	r3, [r7, #40]	@ zero_extendqisi2
 1551 0914 3A4A     		ldr	r2, .L139+48
 1552 0916 D35C     		ldrb	r3, [r2, r3]	@ zero_extendqisi2
 1553 0918 1846     		mov	r0, r3
 1554 091a FFF7FEFF 		bl	PRINTER_A_PutChar
 240:printer.c     **** 		for(uint8 x = 0; x < 13; x ++){
 1555              		.loc 1 240 0 discriminator 3
 1556 091e 97F82830 		ldrb	r3, [r7, #40]	@ zero_extendqisi2
 1557 0922 0133     		adds	r3, r3, #1
 1558 0924 87F82830 		strb	r3, [r7, #40]
 1559              	.L72:
 240:printer.c     **** 		for(uint8 x = 0; x < 13; x ++){
 1560              		.loc 1 240 0 is_stmt 0 discriminator 1
 1561 0928 97F82830 		ldrb	r3, [r7, #40]	@ zero_extendqisi2
 1562 092c 0C2B     		cmp	r3, #12
 1563 092e EFD9     		bls	.L73
 1564              	.LBE32:
 242:printer.c     **** 		}     
 243:printer.c     **** 		PRINTER_A_PutChar(PRN_CURRENCY[0]);  
 1565              		.loc 1 243 0 is_stmt 1
 1566 0930 2F4B     		ldr	r3, .L139+32
 1567 0932 1B78     		ldrb	r3, [r3]	@ zero_extendqisi2
 1568 0934 1846     		mov	r0, r3
 1569 0936 FFF7FEFF 		bl	PRINTER_A_PutChar
 244:printer.c     **** 		PRINTER_A_PutChar(' ');
 1570              		.loc 1 244 0
 1571 093a 2020     		movs	r0, #32
 1572 093c FFF7FEFF 		bl	PRINTER_A_PutChar
 1573              	.LBB33:
 245:printer.c     **** 		for(uint8 x = 0; x < 8; x ++){
 1574              		.loc 1 245 0
 1575 0940 0023     		movs	r3, #0
 1576 0942 87F82730 		strb	r3, [r7, #39]
 1577 0946 0DE0     		b	.L74
 1578              	.L75:
 246:printer.c     **** 			PRINTER_A_PutChar(side.a.ProcessedmoneySale[x]);
 1579              		.loc 1 246 0 discriminator 3
 1580 0948 97F82730 		ldrb	r3, [r7, #39]	@ zero_extendqisi2
 1581 094c 204A     		ldr	r2, .L139
 1582 094e 1344     		add	r3, r3, r2
 1583 0950 93F8FB30 		ldrb	r3, [r3, #251]	@ zero_extendqisi2
 1584 0954 1846     		mov	r0, r3
 1585 0956 FFF7FEFF 		bl	PRINTER_A_PutChar
 245:printer.c     **** 		for(uint8 x = 0; x < 8; x ++){
ARM GAS  C:\Users\Diego\AppData\Local\Temp\ccnYGT0M.s 			page 37


 1586              		.loc 1 245 0 discriminator 3
 1587 095a 97F82730 		ldrb	r3, [r7, #39]	@ zero_extendqisi2
 1588 095e 0133     		adds	r3, r3, #1
 1589 0960 87F82730 		strb	r3, [r7, #39]
 1590              	.L74:
 245:printer.c     **** 		for(uint8 x = 0; x < 8; x ++){
 1591              		.loc 1 245 0 is_stmt 0 discriminator 1
 1592 0964 97F82730 		ldrb	r3, [r7, #39]	@ zero_extendqisi2
 1593 0968 072B     		cmp	r3, #7
 1594 096a EDD9     		bls	.L75
 1595              	.LBE33:
 247:printer.c     **** 		}		
 248:printer.c     **** 		PRINTER_A_PutChar(LINE_FEED);
 1596              		.loc 1 248 0 is_stmt 1
 1597 096c 194B     		ldr	r3, .L139+4
 1598 096e 1B78     		ldrb	r3, [r3]	@ zero_extendqisi2
 1599 0970 1846     		mov	r0, r3
 1600 0972 FFF7FEFF 		bl	PRINTER_A_PutChar
 249:printer.c     ****         side.a.Copy = 1;
 1601              		.loc 1 249 0
 1602 0976 164B     		ldr	r3, .L139
 1603 0978 0122     		movs	r2, #1
 1604 097a 83F83421 		strb	r2, [r3, #308]
 1605              	.L31:
 250:printer.c     **** 	}	
 251:printer.c     **** 	if(address == side.b.dir){
 1606              		.loc 1 251 0
 1607 097e 144B     		ldr	r3, .L139
 1608 0980 93F83531 		ldrb	r3, [r3, #309]	@ zero_extendqisi2
 1609 0984 FA79     		ldrb	r2, [r7, #7]	@ zero_extendqisi2
 1610 0986 9A42     		cmp	r2, r3
 1611 0988 40F00C82 		bne	.L76
 252:printer.c     **** 		if(side.b.Copy == 1){
 1612              		.loc 1 252 0
 1613 098c 104B     		ldr	r3, .L139
 1614 098e 93F86932 		ldrb	r3, [r3, #617]	@ zero_extendqisi2
 1615 0992 012B     		cmp	r3, #1
 1616 0994 48D1     		bne	.L77
 1617              	.LBB34:
 253:printer.c     ****             for(uint8 x = 0; x < 32; x ++){
 1618              		.loc 1 253 0
 1619 0996 0023     		movs	r3, #0
 1620 0998 87F82630 		strb	r3, [r7, #38]
 1621 099c 0BE0     		b	.L78
 1622              	.L79:
 254:printer.c     ****         		PRINTER_A_PutChar(msn_copy[x]);
 1623              		.loc 1 254 0 discriminator 3
 1624 099e 97F82630 		ldrb	r3, [r7, #38]	@ zero_extendqisi2
 1625 09a2 184A     		ldr	r2, .L139+52
 1626 09a4 D35C     		ldrb	r3, [r2, r3]	@ zero_extendqisi2
 1627 09a6 1846     		mov	r0, r3
 1628 09a8 FFF7FEFF 		bl	PRINTER_A_PutChar
 253:printer.c     ****             for(uint8 x = 0; x < 32; x ++){
 1629              		.loc 1 253 0 discriminator 3
 1630 09ac 97F82630 		ldrb	r3, [r7, #38]	@ zero_extendqisi2
 1631 09b0 0133     		adds	r3, r3, #1
 1632 09b2 87F82630 		strb	r3, [r7, #38]
ARM GAS  C:\Users\Diego\AppData\Local\Temp\ccnYGT0M.s 			page 38


 1633              	.L78:
 253:printer.c     ****             for(uint8 x = 0; x < 32; x ++){
 1634              		.loc 1 253 0 is_stmt 0 discriminator 1
 1635 09b6 97F82630 		ldrb	r3, [r7, #38]	@ zero_extendqisi2
 1636 09ba 1F2B     		cmp	r3, #31
 1637 09bc EFD9     		bls	.L79
 1638              	.LBE34:
 255:printer.c     ****         	}
 256:printer.c     ****             PRINTER_A_PutChar(LINE_FEED);
 1639              		.loc 1 256 0 is_stmt 1
 1640 09be 054B     		ldr	r3, .L139+4
 1641 09c0 1B78     		ldrb	r3, [r3]	@ zero_extendqisi2
 1642 09c2 1846     		mov	r0, r3
 1643 09c4 FFF7FEFF 		bl	PRINTER_A_PutChar
 1644              	.LBB35:
 257:printer.c     ****             for(uint8 x = 0; x < 32; x ++){
 1645              		.loc 1 257 0
 1646 09c8 0023     		movs	r3, #0
 1647 09ca 87F82530 		strb	r3, [r7, #37]
 1648 09ce 27E0     		b	.L80
 1649              	.L140:
 1650              		.align	2
 1651              	.L139:
 1652 09d0 00000000 		.word	side
 1653 09d4 00000000 		.word	LINE_FEED
 1654 09d8 00000000 		.word	PRN_MILLEAGE
 1655 09dc 00000000 		.word	msn_pos
 1656 09e0 00000000 		.word	msn_product
 1657 09e4 00000000 		.word	msn_diesel
 1658 09e8 00000000 		.word	msn_gasoline
 1659 09ec 00000000 		.word	msn_ppu
 1660 09f0 00000000 		.word	PRN_CURRENCY
 1661 09f4 00000000 		.word	msn_vol
 1662 09f8 00000000 		.word	DecVol
 1663 09fc 00000000 		.word	VolSimbol
 1664 0a00 00000000 		.word	msn_din
 1665 0a04 00000000 		.word	msn_copy
 1666              	.L81:
 258:printer.c     ****         		PRINTER_A_PutChar(SEPARATOR[x]);
 1667              		.loc 1 258 0 discriminator 3
 1668 0a08 97F82530 		ldrb	r3, [r7, #37]	@ zero_extendqisi2
 1669 0a0c BC4A     		ldr	r2, .L141
 1670 0a0e D35C     		ldrb	r3, [r2, r3]	@ zero_extendqisi2
 1671 0a10 1846     		mov	r0, r3
 1672 0a12 FFF7FEFF 		bl	PRINTER_A_PutChar
 257:printer.c     ****             for(uint8 x = 0; x < 32; x ++){
 1673              		.loc 1 257 0 discriminator 3
 1674 0a16 97F82530 		ldrb	r3, [r7, #37]	@ zero_extendqisi2
 1675 0a1a 0133     		adds	r3, r3, #1
 1676 0a1c 87F82530 		strb	r3, [r7, #37]
 1677              	.L80:
 257:printer.c     ****             for(uint8 x = 0; x < 32; x ++){
 1678              		.loc 1 257 0 is_stmt 0 discriminator 1
 1679 0a20 97F82530 		ldrb	r3, [r7, #37]	@ zero_extendqisi2
 1680 0a24 1F2B     		cmp	r3, #31
 1681 0a26 EFD9     		bls	.L81
 1682              	.L77:
ARM GAS  C:\Users\Diego\AppData\Local\Temp\ccnYGT0M.s 			page 39


 1683              	.LBE35:
 259:printer.c     ****         	}            
 260:printer.c     ****         }    
 261:printer.c     ****         PRINTER_A_PutChar(LINE_FEED);
 1684              		.loc 1 261 0 is_stmt 1
 1685 0a28 B64B     		ldr	r3, .L141+4
 1686 0a2a 1B78     		ldrb	r3, [r3]	@ zero_extendqisi2
 1687 0a2c 1846     		mov	r0, r3
 1688 0a2e FFF7FEFF 		bl	PRINTER_A_PutChar
 1689              	.LBB36:
 262:printer.c     ****         for(uint8 x = 0; x < 13; x ++){
 1690              		.loc 1 262 0
 1691 0a32 0023     		movs	r3, #0
 1692 0a34 87F82430 		strb	r3, [r7, #36]
 1693 0a38 0BE0     		b	.L82
 1694              	.L83:
 263:printer.c     ****     		PRINTER_A_PutChar(msn_venta[x]);
 1695              		.loc 1 263 0 discriminator 3
 1696 0a3a 97F82430 		ldrb	r3, [r7, #36]	@ zero_extendqisi2
 1697 0a3e B24A     		ldr	r2, .L141+8
 1698 0a40 D35C     		ldrb	r3, [r2, r3]	@ zero_extendqisi2
 1699 0a42 1846     		mov	r0, r3
 1700 0a44 FFF7FEFF 		bl	PRINTER_A_PutChar
 262:printer.c     ****         for(uint8 x = 0; x < 13; x ++){
 1701              		.loc 1 262 0 discriminator 3
 1702 0a48 97F82430 		ldrb	r3, [r7, #36]	@ zero_extendqisi2
 1703 0a4c 0133     		adds	r3, r3, #1
 1704 0a4e 87F82430 		strb	r3, [r7, #36]
 1705              	.L82:
 262:printer.c     ****         for(uint8 x = 0; x < 13; x ++){
 1706              		.loc 1 262 0 is_stmt 0 discriminator 1
 1707 0a52 97F82430 		ldrb	r3, [r7, #36]	@ zero_extendqisi2
 1708 0a56 0C2B     		cmp	r3, #12
 1709 0a58 EFD9     		bls	.L83
 1710              	.LBE36:
 264:printer.c     ****     	}
 265:printer.c     ****         if(side.b.Copy == 1){
 1711              		.loc 1 265 0 is_stmt 1
 1712 0a5a AC4B     		ldr	r3, .L141+12
 1713 0a5c 93F86932 		ldrb	r3, [r3, #617]	@ zero_extendqisi2
 1714 0a60 012B     		cmp	r3, #1
 1715 0a62 14D1     		bne	.L84
 1716              	.LBB37:
 266:printer.c     ****            for(uint8 x = 5; x > 0; x --){
 1717              		.loc 1 266 0
 1718 0a64 0523     		movs	r3, #5
 1719 0a66 87F82330 		strb	r3, [r7, #35]
 1720 0a6a 0BE0     		b	.L85
 1721              	.L86:
 267:printer.c     ****         		PRINTER_A_PutChar(sale_number_copy[x]);
 1722              		.loc 1 267 0 discriminator 3
 1723 0a6c 97F82330 		ldrb	r3, [r7, #35]	@ zero_extendqisi2
 1724 0a70 A74A     		ldr	r2, .L141+16
 1725 0a72 D35C     		ldrb	r3, [r2, r3]	@ zero_extendqisi2
 1726 0a74 1846     		mov	r0, r3
 1727 0a76 FFF7FEFF 		bl	PRINTER_A_PutChar
 266:printer.c     ****            for(uint8 x = 5; x > 0; x --){
ARM GAS  C:\Users\Diego\AppData\Local\Temp\ccnYGT0M.s 			page 40


 1728              		.loc 1 266 0 discriminator 3
 1729 0a7a 97F82330 		ldrb	r3, [r7, #35]	@ zero_extendqisi2
 1730 0a7e 013B     		subs	r3, r3, #1
 1731 0a80 87F82330 		strb	r3, [r7, #35]
 1732              	.L85:
 266:printer.c     ****            for(uint8 x = 5; x > 0; x --){
 1733              		.loc 1 266 0 is_stmt 0 discriminator 1
 1734 0a84 97F82330 		ldrb	r3, [r7, #35]	@ zero_extendqisi2
 1735 0a88 002B     		cmp	r3, #0
 1736 0a8a EFD1     		bne	.L86
 1737 0a8c 19E0     		b	.L87
 1738              	.L84:
 1739              	.LBE37:
 1740              	.LBB38:
 268:printer.c     ****         	} 
 269:printer.c     ****         }else{
 270:printer.c     ****             for(uint8 x = 5; x > 0; x --){
 1741              		.loc 1 270 0 is_stmt 1
 1742 0a8e 0523     		movs	r3, #5
 1743 0a90 87F82230 		strb	r3, [r7, #34]
 1744 0a94 0BE0     		b	.L88
 1745              	.L89:
 271:printer.c     ****         		PRINTER_A_PutChar(sale_number[x]);
 1746              		.loc 1 271 0 discriminator 3
 1747 0a96 97F82230 		ldrb	r3, [r7, #34]	@ zero_extendqisi2
 1748 0a9a 9E4A     		ldr	r2, .L141+20
 1749 0a9c D35C     		ldrb	r3, [r2, r3]	@ zero_extendqisi2
 1750 0a9e 1846     		mov	r0, r3
 1751 0aa0 FFF7FEFF 		bl	PRINTER_A_PutChar
 270:printer.c     ****         		PRINTER_A_PutChar(sale_number[x]);
 1752              		.loc 1 270 0 discriminator 3
 1753 0aa4 97F82230 		ldrb	r3, [r7, #34]	@ zero_extendqisi2
 1754 0aa8 013B     		subs	r3, r3, #1
 1755 0aaa 87F82230 		strb	r3, [r7, #34]
 1756              	.L88:
 270:printer.c     ****         		PRINTER_A_PutChar(sale_number[x]);
 1757              		.loc 1 270 0 is_stmt 0 discriminator 1
 1758 0aae 97F82230 		ldrb	r3, [r7, #34]	@ zero_extendqisi2
 1759 0ab2 002B     		cmp	r3, #0
 1760 0ab4 EFD1     		bne	.L89
 1761              	.LBE38:
 272:printer.c     ****         	}
 273:printer.c     ****             int_salenumber++;
 1762              		.loc 1 273 0 is_stmt 1
 1763 0ab6 984B     		ldr	r3, .L141+24
 1764 0ab8 1B78     		ldrb	r3, [r3]	@ zero_extendqisi2
 1765 0aba 0133     		adds	r3, r3, #1
 1766 0abc DAB2     		uxtb	r2, r3
 1767 0abe 964B     		ldr	r3, .L141+24
 1768 0ac0 1A70     		strb	r2, [r3]
 1769              	.L87:
 274:printer.c     ****         }
 275:printer.c     ****         PRINTER_A_PutChar(LINE_FEED);
 1770              		.loc 1 275 0
 1771 0ac2 904B     		ldr	r3, .L141+4
 1772 0ac4 1B78     		ldrb	r3, [r3]	@ zero_extendqisi2
 1773 0ac6 1846     		mov	r0, r3
ARM GAS  C:\Users\Diego\AppData\Local\Temp\ccnYGT0M.s 			page 41


 1774 0ac8 FFF7FEFF 		bl	PRINTER_A_PutChar
 1775              	.LBB39:
 276:printer.c     ****     	for(uint8 x = 0; x < 13; x ++){
 1776              		.loc 1 276 0
 1777 0acc 0023     		movs	r3, #0
 1778 0ace 87F82130 		strb	r3, [r7, #33]
 1779 0ad2 0BE0     		b	.L90
 1780              	.L91:
 277:printer.c     ****     		PRINTER_A_PutChar(msn_placa[x]);
 1781              		.loc 1 277 0 discriminator 3
 1782 0ad4 97F82130 		ldrb	r3, [r7, #33]	@ zero_extendqisi2
 1783 0ad8 904A     		ldr	r2, .L141+28
 1784 0ada D35C     		ldrb	r3, [r2, r3]	@ zero_extendqisi2
 1785 0adc 1846     		mov	r0, r3
 1786 0ade FFF7FEFF 		bl	PRINTER_A_PutChar
 276:printer.c     ****     	for(uint8 x = 0; x < 13; x ++){
 1787              		.loc 1 276 0 discriminator 3
 1788 0ae2 97F82130 		ldrb	r3, [r7, #33]	@ zero_extendqisi2
 1789 0ae6 0133     		adds	r3, r3, #1
 1790 0ae8 87F82130 		strb	r3, [r7, #33]
 1791              	.L90:
 276:printer.c     ****     	for(uint8 x = 0; x < 13; x ++){
 1792              		.loc 1 276 0 is_stmt 0 discriminator 1
 1793 0aec 97F82130 		ldrb	r3, [r7, #33]	@ zero_extendqisi2
 1794 0af0 0C2B     		cmp	r3, #12
 1795 0af2 EFD9     		bls	.L91
 1796              	.LBE39:
 1797              	.LBB40:
 278:printer.c     ****     	}
 279:printer.c     **** 		for(uint8 x = 0; x < 8; x ++){
 1798              		.loc 1 279 0 is_stmt 1
 1799 0af4 0023     		movs	r3, #0
 1800 0af6 87F82030 		strb	r3, [r7, #32]
 1801 0afa 0DE0     		b	.L92
 1802              	.L93:
 280:printer.c     **** 			PRINTER_A_PutChar(side.b.msn_plate[x]);
 1803              		.loc 1 280 0 discriminator 3
 1804 0afc 97F82030 		ldrb	r3, [r7, #32]	@ zero_extendqisi2
 1805 0b00 824A     		ldr	r2, .L141+12
 1806 0b02 1344     		add	r3, r3, r2
 1807 0b04 93F85832 		ldrb	r3, [r3, #600]	@ zero_extendqisi2
 1808 0b08 1846     		mov	r0, r3
 1809 0b0a FFF7FEFF 		bl	PRINTER_A_PutChar
 279:printer.c     **** 			PRINTER_A_PutChar(side.b.msn_plate[x]);
 1810              		.loc 1 279 0 discriminator 3
 1811 0b0e 97F82030 		ldrb	r3, [r7, #32]	@ zero_extendqisi2
 1812 0b12 0133     		adds	r3, r3, #1
 1813 0b14 87F82030 		strb	r3, [r7, #32]
 1814              	.L92:
 279:printer.c     **** 			PRINTER_A_PutChar(side.b.msn_plate[x]);
 1815              		.loc 1 279 0 is_stmt 0 discriminator 1
 1816 0b18 97F82030 		ldrb	r3, [r7, #32]	@ zero_extendqisi2
 1817 0b1c 072B     		cmp	r3, #7
 1818 0b1e EDD9     		bls	.L93
 1819              	.LBE40:
 281:printer.c     **** 		}  
 282:printer.c     ****         PRINTER_A_PutChar(LINE_FEED);
ARM GAS  C:\Users\Diego\AppData\Local\Temp\ccnYGT0M.s 			page 42


 1820              		.loc 1 282 0 is_stmt 1
 1821 0b20 784B     		ldr	r3, .L141+4
 1822 0b22 1B78     		ldrb	r3, [r3]	@ zero_extendqisi2
 1823 0b24 1846     		mov	r0, r3
 1824 0b26 FFF7FEFF 		bl	PRINTER_A_PutChar
 1825              	.LBB41:
 283:printer.c     ****         for(uint8 x = 0; x < 13; x ++){
 1826              		.loc 1 283 0
 1827 0b2a 0023     		movs	r3, #0
 1828 0b2c FB77     		strb	r3, [r7, #31]
 1829 0b2e 08E0     		b	.L94
 1830              	.L95:
 284:printer.c     **** 			PRINTER_A_PutChar(PRN_MILLEAGE[x]);
 1831              		.loc 1 284 0 discriminator 3
 1832 0b30 FB7F     		ldrb	r3, [r7, #31]	@ zero_extendqisi2
 1833 0b32 7B4A     		ldr	r2, .L141+32
 1834 0b34 D35C     		ldrb	r3, [r2, r3]	@ zero_extendqisi2
 1835 0b36 1846     		mov	r0, r3
 1836 0b38 FFF7FEFF 		bl	PRINTER_A_PutChar
 283:printer.c     ****         for(uint8 x = 0; x < 13; x ++){
 1837              		.loc 1 283 0 discriminator 3
 1838 0b3c FB7F     		ldrb	r3, [r7, #31]	@ zero_extendqisi2
 1839 0b3e 0133     		adds	r3, r3, #1
 1840 0b40 FB77     		strb	r3, [r7, #31]
 1841              	.L94:
 283:printer.c     ****         for(uint8 x = 0; x < 13; x ++){
 1842              		.loc 1 283 0 is_stmt 0 discriminator 1
 1843 0b42 FB7F     		ldrb	r3, [r7, #31]	@ zero_extendqisi2
 1844 0b44 0C2B     		cmp	r3, #12
 1845 0b46 F3D9     		bls	.L95
 1846              	.LBE41:
 1847              	.LBB42:
 285:printer.c     **** 		}          
 286:printer.c     ****         for(uint8 x = 0; x <6; x ++){
 1848              		.loc 1 286 0 is_stmt 1
 1849 0b48 0023     		movs	r3, #0
 1850 0b4a BB77     		strb	r3, [r7, #30]
 1851 0b4c 0AE0     		b	.L96
 1852              	.L97:
 287:printer.c     **** 			PRINTER_A_PutChar(side.b.km[x]);
 1853              		.loc 1 287 0 discriminator 3
 1854 0b4e BB7F     		ldrb	r3, [r7, #30]	@ zero_extendqisi2
 1855 0b50 6E4A     		ldr	r2, .L141+12
 1856 0b52 1344     		add	r3, r3, r2
 1857 0b54 93F86232 		ldrb	r3, [r3, #610]	@ zero_extendqisi2
 1858 0b58 1846     		mov	r0, r3
 1859 0b5a FFF7FEFF 		bl	PRINTER_A_PutChar
 286:printer.c     **** 			PRINTER_A_PutChar(side.b.km[x]);
 1860              		.loc 1 286 0 discriminator 3
 1861 0b5e BB7F     		ldrb	r3, [r7, #30]	@ zero_extendqisi2
 1862 0b60 0133     		adds	r3, r3, #1
 1863 0b62 BB77     		strb	r3, [r7, #30]
 1864              	.L96:
 286:printer.c     **** 			PRINTER_A_PutChar(side.b.km[x]);
 1865              		.loc 1 286 0 is_stmt 0 discriminator 1
 1866 0b64 BB7F     		ldrb	r3, [r7, #30]	@ zero_extendqisi2
 1867 0b66 052B     		cmp	r3, #5
ARM GAS  C:\Users\Diego\AppData\Local\Temp\ccnYGT0M.s 			page 43


 1868 0b68 F1D9     		bls	.L97
 1869              	.LBE42:
 288:printer.c     **** 		}          
 289:printer.c     ****         PRINTER_A_PutChar(LINE_FEED);
 1870              		.loc 1 289 0 is_stmt 1
 1871 0b6a 664B     		ldr	r3, .L141+4
 1872 0b6c 1B78     		ldrb	r3, [r3]	@ zero_extendqisi2
 1873 0b6e 1846     		mov	r0, r3
 1874 0b70 FFF7FEFF 		bl	PRINTER_A_PutChar
 1875              	.LBB43:
 290:printer.c     **** 		for(uint8 x = 0; x < 13; x ++){
 1876              		.loc 1 290 0
 1877 0b74 0023     		movs	r3, #0
 1878 0b76 7B77     		strb	r3, [r7, #29]
 1879 0b78 08E0     		b	.L98
 1880              	.L99:
 291:printer.c     **** 			PRINTER_A_PutChar(msn_pos[x]);
 1881              		.loc 1 291 0 discriminator 3
 1882 0b7a 7B7F     		ldrb	r3, [r7, #29]	@ zero_extendqisi2
 1883 0b7c 694A     		ldr	r2, .L141+36
 1884 0b7e D35C     		ldrb	r3, [r2, r3]	@ zero_extendqisi2
 1885 0b80 1846     		mov	r0, r3
 1886 0b82 FFF7FEFF 		bl	PRINTER_A_PutChar
 290:printer.c     **** 		for(uint8 x = 0; x < 13; x ++){
 1887              		.loc 1 290 0 discriminator 3
 1888 0b86 7B7F     		ldrb	r3, [r7, #29]	@ zero_extendqisi2
 1889 0b88 0133     		adds	r3, r3, #1
 1890 0b8a 7B77     		strb	r3, [r7, #29]
 1891              	.L98:
 290:printer.c     **** 		for(uint8 x = 0; x < 13; x ++){
 1892              		.loc 1 290 0 is_stmt 0 discriminator 1
 1893 0b8c 7B7F     		ldrb	r3, [r7, #29]	@ zero_extendqisi2
 1894 0b8e 0C2B     		cmp	r3, #12
 1895 0b90 F3D9     		bls	.L99
 1896              	.LBE43:
 292:printer.c     **** 		}
 293:printer.c     **** 		PRINTER_A_PutChar((side.b.dir)+ 0x31);
 1897              		.loc 1 293 0 is_stmt 1
 1898 0b92 5E4B     		ldr	r3, .L141+12
 1899 0b94 93F83531 		ldrb	r3, [r3, #309]	@ zero_extendqisi2
 1900 0b98 3133     		adds	r3, r3, #49
 1901 0b9a DBB2     		uxtb	r3, r3
 1902 0b9c 1846     		mov	r0, r3
 1903 0b9e FFF7FEFF 		bl	PRINTER_A_PutChar
 294:printer.c     **** 		PRINTER_A_PutChar(LINE_FEED);
 1904              		.loc 1 294 0
 1905 0ba2 584B     		ldr	r3, .L141+4
 1906 0ba4 1B78     		ldrb	r3, [r3]	@ zero_extendqisi2
 1907 0ba6 1846     		mov	r0, r3
 1908 0ba8 FFF7FEFF 		bl	PRINTER_A_PutChar
 1909              	.LBB44:
 295:printer.c     **** 		for(uint8 x = 0; x < 13; x ++){
 1910              		.loc 1 295 0
 1911 0bac 0023     		movs	r3, #0
 1912 0bae 3B77     		strb	r3, [r7, #28]
 1913 0bb0 08E0     		b	.L100
 1914              	.L101:
ARM GAS  C:\Users\Diego\AppData\Local\Temp\ccnYGT0M.s 			page 44


 296:printer.c     **** 			PRINTER_A_PutChar(msn_product[x]);
 1915              		.loc 1 296 0 discriminator 3
 1916 0bb2 3B7F     		ldrb	r3, [r7, #28]	@ zero_extendqisi2
 1917 0bb4 5C4A     		ldr	r2, .L141+40
 1918 0bb6 D35C     		ldrb	r3, [r2, r3]	@ zero_extendqisi2
 1919 0bb8 1846     		mov	r0, r3
 1920 0bba FFF7FEFF 		bl	PRINTER_A_PutChar
 295:printer.c     **** 		for(uint8 x = 0; x < 13; x ++){
 1921              		.loc 1 295 0 discriminator 3
 1922 0bbe 3B7F     		ldrb	r3, [r7, #28]	@ zero_extendqisi2
 1923 0bc0 0133     		adds	r3, r3, #1
 1924 0bc2 3B77     		strb	r3, [r7, #28]
 1925              	.L100:
 295:printer.c     **** 		for(uint8 x = 0; x < 13; x ++){
 1926              		.loc 1 295 0 is_stmt 0 discriminator 1
 1927 0bc4 3B7F     		ldrb	r3, [r7, #28]	@ zero_extendqisi2
 1928 0bc6 0C2B     		cmp	r3, #12
 1929 0bc8 F3D9     		bls	.L101
 1930              	.LBE44:
 297:printer.c     **** 		}
 298:printer.c     **** 		if(side.b.Nozzle == 0x02){
 1931              		.loc 1 298 0 is_stmt 1
 1932 0bca 504B     		ldr	r3, .L141+12
 1933 0bcc 93F86132 		ldrb	r3, [r3, #609]	@ zero_extendqisi2
 1934 0bd0 022B     		cmp	r3, #2
 1935 0bd2 0FD1     		bne	.L102
 1936              	.LBB45:
 299:printer.c     ****     		for(uint8 x = 0; x < 9; x ++){
 1937              		.loc 1 299 0
 1938 0bd4 0023     		movs	r3, #0
 1939 0bd6 FB76     		strb	r3, [r7, #27]
 1940 0bd8 08E0     		b	.L103
 1941              	.L104:
 300:printer.c     ****     			PRINTER_A_PutChar(msn_diesel[x]);
 1942              		.loc 1 300 0 discriminator 3
 1943 0bda FB7E     		ldrb	r3, [r7, #27]	@ zero_extendqisi2
 1944 0bdc 534A     		ldr	r2, .L141+44
 1945 0bde D35C     		ldrb	r3, [r2, r3]	@ zero_extendqisi2
 1946 0be0 1846     		mov	r0, r3
 1947 0be2 FFF7FEFF 		bl	PRINTER_A_PutChar
 299:printer.c     ****     		for(uint8 x = 0; x < 9; x ++){
 1948              		.loc 1 299 0 discriminator 3
 1949 0be6 FB7E     		ldrb	r3, [r7, #27]	@ zero_extendqisi2
 1950 0be8 0133     		adds	r3, r3, #1
 1951 0bea FB76     		strb	r3, [r7, #27]
 1952              	.L103:
 299:printer.c     ****     		for(uint8 x = 0; x < 9; x ++){
 1953              		.loc 1 299 0 is_stmt 0 discriminator 1
 1954 0bec FB7E     		ldrb	r3, [r7, #27]	@ zero_extendqisi2
 1955 0bee 082B     		cmp	r3, #8
 1956 0bf0 F3D9     		bls	.L104
 1957 0bf2 0EE0     		b	.L105
 1958              	.L102:
 1959              	.LBE45:
 1960              	.LBB46:
 301:printer.c     ****     		}
 302:printer.c     ****         }else{
ARM GAS  C:\Users\Diego\AppData\Local\Temp\ccnYGT0M.s 			page 45


 303:printer.c     ****             for(uint8 x = 0; x < 9; x ++){
 1961              		.loc 1 303 0 is_stmt 1
 1962 0bf4 0023     		movs	r3, #0
 1963 0bf6 BB76     		strb	r3, [r7, #26]
 1964 0bf8 08E0     		b	.L106
 1965              	.L107:
 304:printer.c     ****     			PRINTER_A_PutChar(msn_gasoline[x]);
 1966              		.loc 1 304 0 discriminator 3
 1967 0bfa BB7E     		ldrb	r3, [r7, #26]	@ zero_extendqisi2
 1968 0bfc 4C4A     		ldr	r2, .L141+48
 1969 0bfe D35C     		ldrb	r3, [r2, r3]	@ zero_extendqisi2
 1970 0c00 1846     		mov	r0, r3
 1971 0c02 FFF7FEFF 		bl	PRINTER_A_PutChar
 303:printer.c     ****     			PRINTER_A_PutChar(msn_gasoline[x]);
 1972              		.loc 1 303 0 discriminator 3
 1973 0c06 BB7E     		ldrb	r3, [r7, #26]	@ zero_extendqisi2
 1974 0c08 0133     		adds	r3, r3, #1
 1975 0c0a BB76     		strb	r3, [r7, #26]
 1976              	.L106:
 303:printer.c     ****     			PRINTER_A_PutChar(msn_gasoline[x]);
 1977              		.loc 1 303 0 is_stmt 0 discriminator 1
 1978 0c0c BB7E     		ldrb	r3, [r7, #26]	@ zero_extendqisi2
 1979 0c0e 082B     		cmp	r3, #8
 1980 0c10 F3D9     		bls	.L107
 1981              	.L105:
 1982              	.LBE46:
 305:printer.c     ****     		}
 306:printer.c     ****         }
 307:printer.c     ****         PRINTER_A_PutChar(LINE_FEED); 	
 1983              		.loc 1 307 0 is_stmt 1
 1984 0c12 3C4B     		ldr	r3, .L141+4
 1985 0c14 1B78     		ldrb	r3, [r3]	@ zero_extendqisi2
 1986 0c16 1846     		mov	r0, r3
 1987 0c18 FFF7FEFF 		bl	PRINTER_A_PutChar
 1988              	.LBB47:
 308:printer.c     **** 		for(uint8 x = 0; x < 13; x ++){
 1989              		.loc 1 308 0
 1990 0c1c 0023     		movs	r3, #0
 1991 0c1e 7B76     		strb	r3, [r7, #25]
 1992 0c20 08E0     		b	.L108
 1993              	.L109:
 309:printer.c     **** 			PRINTER_A_PutChar(msn_ppu[x]);
 1994              		.loc 1 309 0 discriminator 3
 1995 0c22 7B7E     		ldrb	r3, [r7, #25]	@ zero_extendqisi2
 1996 0c24 434A     		ldr	r2, .L141+52
 1997 0c26 D35C     		ldrb	r3, [r2, r3]	@ zero_extendqisi2
 1998 0c28 1846     		mov	r0, r3
 1999 0c2a FFF7FEFF 		bl	PRINTER_A_PutChar
 308:printer.c     **** 		for(uint8 x = 0; x < 13; x ++){
 2000              		.loc 1 308 0 discriminator 3
 2001 0c2e 7B7E     		ldrb	r3, [r7, #25]	@ zero_extendqisi2
 2002 0c30 0133     		adds	r3, r3, #1
 2003 0c32 7B76     		strb	r3, [r7, #25]
 2004              	.L108:
 308:printer.c     **** 		for(uint8 x = 0; x < 13; x ++){
 2005              		.loc 1 308 0 is_stmt 0 discriminator 1
 2006 0c34 7B7E     		ldrb	r3, [r7, #25]	@ zero_extendqisi2
ARM GAS  C:\Users\Diego\AppData\Local\Temp\ccnYGT0M.s 			page 46


 2007 0c36 0C2B     		cmp	r3, #12
 2008 0c38 F3D9     		bls	.L109
 2009              	.LBE47:
 310:printer.c     **** 		}
 311:printer.c     **** 		PRINTER_A_PutChar(PRN_CURRENCY[0]);  
 2010              		.loc 1 311 0 is_stmt 1
 2011 0c3a 3F4B     		ldr	r3, .L141+56
 2012 0c3c 1B78     		ldrb	r3, [r3]	@ zero_extendqisi2
 2013 0c3e 1846     		mov	r0, r3
 2014 0c40 FFF7FEFF 		bl	PRINTER_A_PutChar
 312:printer.c     **** 		PRINTER_A_PutChar(' ');
 2015              		.loc 1 312 0
 2016 0c44 2020     		movs	r0, #32
 2017 0c46 FFF7FEFF 		bl	PRINTER_A_PutChar
 2018              	.LBB48:
 313:printer.c     **** 		for(uint8 x = 1; x < 6; x ++){
 2019              		.loc 1 313 0
 2020 0c4a 0123     		movs	r3, #1
 2021 0c4c 3B76     		strb	r3, [r7, #24]
 2022 0c4e 14E0     		b	.L110
 2023              	.L111:
 314:printer.c     **** 			PRINTER_A_PutChar(side.b.ProcessedPPU[side.b.Nozzle - 1][x]);
 2024              		.loc 1 314 0 discriminator 3
 2025 0c50 2E4B     		ldr	r3, .L141+12
 2026 0c52 93F86132 		ldrb	r3, [r3, #609]	@ zero_extendqisi2
 2027 0c56 5A1E     		subs	r2, r3, #1
 2028 0c58 397E     		ldrb	r1, [r7, #24]	@ zero_extendqisi2
 2029 0c5a 2C48     		ldr	r0, .L141+12
 2030 0c5c 1346     		mov	r3, r2
 2031 0c5e 5B00     		lsls	r3, r3, #1
 2032 0c60 1344     		add	r3, r3, r2
 2033 0c62 5B00     		lsls	r3, r3, #1
 2034 0c64 0344     		add	r3, r3, r0
 2035 0c66 0B44     		add	r3, r3, r1
 2036 0c68 03F51073 		add	r3, r3, #576
 2037 0c6c 1B78     		ldrb	r3, [r3]	@ zero_extendqisi2
 2038 0c6e 1846     		mov	r0, r3
 2039 0c70 FFF7FEFF 		bl	PRINTER_A_PutChar
 313:printer.c     **** 		for(uint8 x = 1; x < 6; x ++){
 2040              		.loc 1 313 0 discriminator 3
 2041 0c74 3B7E     		ldrb	r3, [r7, #24]	@ zero_extendqisi2
 2042 0c76 0133     		adds	r3, r3, #1
 2043 0c78 3B76     		strb	r3, [r7, #24]
 2044              	.L110:
 313:printer.c     **** 		for(uint8 x = 1; x < 6; x ++){
 2045              		.loc 1 313 0 is_stmt 0 discriminator 1
 2046 0c7a 3B7E     		ldrb	r3, [r7, #24]	@ zero_extendqisi2
 2047 0c7c 052B     		cmp	r3, #5
 2048 0c7e E7D9     		bls	.L111
 2049              	.LBE48:
 315:printer.c     **** 		}
 316:printer.c     ****         PRINTER_A_PutChar(LINE_FEED);
 2050              		.loc 1 316 0 is_stmt 1
 2051 0c80 204B     		ldr	r3, .L141+4
 2052 0c82 1B78     		ldrb	r3, [r3]	@ zero_extendqisi2
 2053 0c84 1846     		mov	r0, r3
 2054 0c86 FFF7FEFF 		bl	PRINTER_A_PutChar
ARM GAS  C:\Users\Diego\AppData\Local\Temp\ccnYGT0M.s 			page 47


 2055              	.LBB49:
 317:printer.c     **** 		for(uint8 x = 0; x < 13; x ++){
 2056              		.loc 1 317 0
 2057 0c8a 0023     		movs	r3, #0
 2058 0c8c FB75     		strb	r3, [r7, #23]
 2059 0c8e 08E0     		b	.L112
 2060              	.L113:
 318:printer.c     **** 			PRINTER_A_PutChar(msn_vol[x]);
 2061              		.loc 1 318 0 discriminator 3
 2062 0c90 FB7D     		ldrb	r3, [r7, #23]	@ zero_extendqisi2
 2063 0c92 2A4A     		ldr	r2, .L141+60
 2064 0c94 D35C     		ldrb	r3, [r2, r3]	@ zero_extendqisi2
 2065 0c96 1846     		mov	r0, r3
 2066 0c98 FFF7FEFF 		bl	PRINTER_A_PutChar
 317:printer.c     **** 		for(uint8 x = 0; x < 13; x ++){
 2067              		.loc 1 317 0 discriminator 3
 2068 0c9c FB7D     		ldrb	r3, [r7, #23]	@ zero_extendqisi2
 2069 0c9e 0133     		adds	r3, r3, #1
 2070 0ca0 FB75     		strb	r3, [r7, #23]
 2071              	.L112:
 317:printer.c     **** 		for(uint8 x = 0; x < 13; x ++){
 2072              		.loc 1 317 0 is_stmt 0 discriminator 1
 2073 0ca2 FB7D     		ldrb	r3, [r7, #23]	@ zero_extendqisi2
 2074 0ca4 0C2B     		cmp	r3, #12
 2075 0ca6 F3D9     		bls	.L113
 2076              	.LBE49:
 2077              	.LBB50:
 319:printer.c     **** 		}
 320:printer.c     **** 		for(uint8 x = 0; x < 8; x ++){
 2078              		.loc 1 320 0 is_stmt 1
 2079 0ca8 0023     		movs	r3, #0
 2080 0caa BB75     		strb	r3, [r7, #22]
 2081 0cac 14E0     		b	.L114
 2082              	.L116:
 321:printer.c     **** 			if((8-x) == DecVol)
 2083              		.loc 1 321 0
 2084 0cae BB7D     		ldrb	r3, [r7, #22]	@ zero_extendqisi2
 2085 0cb0 C3F10803 		rsb	r3, r3, #8
 2086 0cb4 224A     		ldr	r2, .L141+64
 2087 0cb6 1278     		ldrb	r2, [r2]	@ zero_extendqisi2
 2088 0cb8 9342     		cmp	r3, r2
 2089 0cba 02D1     		bne	.L115
 322:printer.c     **** 				PRINTER_A_PutChar('.');
 2090              		.loc 1 322 0
 2091 0cbc 2E20     		movs	r0, #46
 2092 0cbe FFF7FEFF 		bl	PRINTER_A_PutChar
 2093              	.L115:
 323:printer.c     **** 			PRINTER_A_PutChar(side.b.ProcessedvolumeSale[x]);        
 2094              		.loc 1 323 0 discriminator 2
 2095 0cc2 BB7D     		ldrb	r3, [r7, #22]	@ zero_extendqisi2
 2096 0cc4 114A     		ldr	r2, .L141+12
 2097 0cc6 1344     		add	r3, r3, r2
 2098 0cc8 93F83832 		ldrb	r3, [r3, #568]	@ zero_extendqisi2
 2099 0ccc 1846     		mov	r0, r3
 2100 0cce FFF7FEFF 		bl	PRINTER_A_PutChar
 320:printer.c     **** 			if((8-x) == DecVol)
 2101              		.loc 1 320 0 discriminator 2
ARM GAS  C:\Users\Diego\AppData\Local\Temp\ccnYGT0M.s 			page 48


 2102 0cd2 BB7D     		ldrb	r3, [r7, #22]	@ zero_extendqisi2
 2103 0cd4 0133     		adds	r3, r3, #1
 2104 0cd6 BB75     		strb	r3, [r7, #22]
 2105              	.L114:
 320:printer.c     **** 			if((8-x) == DecVol)
 2106              		.loc 1 320 0 is_stmt 0 discriminator 1
 2107 0cd8 BB7D     		ldrb	r3, [r7, #22]	@ zero_extendqisi2
 2108 0cda 072B     		cmp	r3, #7
 2109 0cdc E7D9     		bls	.L116
 2110              	.LBE50:
 324:printer.c     **** 		}
 325:printer.c     **** 		PRINTER_A_PutChar(' ');
 2111              		.loc 1 325 0 is_stmt 1
 2112 0cde 2020     		movs	r0, #32
 2113 0ce0 FFF7FEFF 		bl	PRINTER_A_PutChar
 326:printer.c     **** 		PRINTER_A_PutChar(VolSimbol[0]);
 2114              		.loc 1 326 0
 2115 0ce4 174B     		ldr	r3, .L141+68
 2116 0ce6 1B78     		ldrb	r3, [r3]	@ zero_extendqisi2
 2117 0ce8 1846     		mov	r0, r3
 2118 0cea FFF7FEFF 		bl	PRINTER_A_PutChar
 327:printer.c     **** 		PRINTER_A_PutChar(LINE_FEED); 
 2119              		.loc 1 327 0
 2120 0cee 054B     		ldr	r3, .L141+4
 2121 0cf0 1B78     		ldrb	r3, [r3]	@ zero_extendqisi2
 2122 0cf2 1846     		mov	r0, r3
 2123 0cf4 FFF7FEFF 		bl	PRINTER_A_PutChar
 2124              	.LBB51:
 328:printer.c     **** 		for(uint8 x = 0; x < 13; x ++){
 2125              		.loc 1 328 0
 2126 0cf8 0023     		movs	r3, #0
 2127 0cfa 7B75     		strb	r3, [r7, #21]
 2128 0cfc 2DE0     		b	.L117
 2129              	.L142:
 2130 0cfe 00BF     		.align	2
 2131              	.L141:
 2132 0d00 00000000 		.word	SEPARATOR
 2133 0d04 00000000 		.word	LINE_FEED
 2134 0d08 00000000 		.word	msn_venta
 2135 0d0c 00000000 		.word	side
 2136 0d10 00000000 		.word	sale_number_copy
 2137 0d14 00000000 		.word	sale_number
 2138 0d18 00000000 		.word	int_salenumber
 2139 0d1c 00000000 		.word	msn_placa
 2140 0d20 00000000 		.word	PRN_MILLEAGE
 2141 0d24 00000000 		.word	msn_pos
 2142 0d28 00000000 		.word	msn_product
 2143 0d2c 00000000 		.word	msn_diesel
 2144 0d30 00000000 		.word	msn_gasoline
 2145 0d34 00000000 		.word	msn_ppu
 2146 0d38 00000000 		.word	PRN_CURRENCY
 2147 0d3c 00000000 		.word	msn_vol
 2148 0d40 00000000 		.word	DecVol
 2149 0d44 00000000 		.word	VolSimbol
 2150              	.L118:
 329:printer.c     **** 			PRINTER_A_PutChar(msn_din[x]);
 2151              		.loc 1 329 0 discriminator 3
ARM GAS  C:\Users\Diego\AppData\Local\Temp\ccnYGT0M.s 			page 49


 2152 0d48 7B7D     		ldrb	r3, [r7, #21]	@ zero_extendqisi2
 2153 0d4a 684A     		ldr	r2, .L143
 2154 0d4c D35C     		ldrb	r3, [r2, r3]	@ zero_extendqisi2
 2155 0d4e 1846     		mov	r0, r3
 2156 0d50 FFF7FEFF 		bl	PRINTER_A_PutChar
 328:printer.c     **** 		for(uint8 x = 0; x < 13; x ++){
 2157              		.loc 1 328 0 discriminator 3
 2158 0d54 7B7D     		ldrb	r3, [r7, #21]	@ zero_extendqisi2
 2159 0d56 0133     		adds	r3, r3, #1
 2160 0d58 7B75     		strb	r3, [r7, #21]
 2161              	.L117:
 328:printer.c     **** 		for(uint8 x = 0; x < 13; x ++){
 2162              		.loc 1 328 0 is_stmt 0 discriminator 1
 2163 0d5a 7B7D     		ldrb	r3, [r7, #21]	@ zero_extendqisi2
 2164 0d5c 0C2B     		cmp	r3, #12
 2165 0d5e F3D9     		bls	.L118
 2166              	.LBE51:
 330:printer.c     **** 		}     
 331:printer.c     **** 		PRINTER_A_PutChar(PRN_CURRENCY[0]);  
 2167              		.loc 1 331 0 is_stmt 1
 2168 0d60 634B     		ldr	r3, .L143+4
 2169 0d62 1B78     		ldrb	r3, [r3]	@ zero_extendqisi2
 2170 0d64 1846     		mov	r0, r3
 2171 0d66 FFF7FEFF 		bl	PRINTER_A_PutChar
 332:printer.c     **** 		PRINTER_A_PutChar(' ');
 2172              		.loc 1 332 0
 2173 0d6a 2020     		movs	r0, #32
 2174 0d6c FFF7FEFF 		bl	PRINTER_A_PutChar
 2175              	.LBB52:
 333:printer.c     **** 		for(uint8 x = 0; x < 8; x ++){
 2176              		.loc 1 333 0
 2177 0d70 0023     		movs	r3, #0
 2178 0d72 3B75     		strb	r3, [r7, #20]
 2179 0d74 0AE0     		b	.L119
 2180              	.L120:
 334:printer.c     **** 			PRINTER_A_PutChar(side.b.ProcessedmoneySale[x]);
 2181              		.loc 1 334 0 discriminator 3
 2182 0d76 3B7D     		ldrb	r3, [r7, #20]	@ zero_extendqisi2
 2183 0d78 5E4A     		ldr	r2, .L143+8
 2184 0d7a 1344     		add	r3, r3, r2
 2185 0d7c 93F83032 		ldrb	r3, [r3, #560]	@ zero_extendqisi2
 2186 0d80 1846     		mov	r0, r3
 2187 0d82 FFF7FEFF 		bl	PRINTER_A_PutChar
 333:printer.c     **** 		for(uint8 x = 0; x < 8; x ++){
 2188              		.loc 1 333 0 discriminator 3
 2189 0d86 3B7D     		ldrb	r3, [r7, #20]	@ zero_extendqisi2
 2190 0d88 0133     		adds	r3, r3, #1
 2191 0d8a 3B75     		strb	r3, [r7, #20]
 2192              	.L119:
 333:printer.c     **** 		for(uint8 x = 0; x < 8; x ++){
 2193              		.loc 1 333 0 is_stmt 0 discriminator 1
 2194 0d8c 3B7D     		ldrb	r3, [r7, #20]	@ zero_extendqisi2
 2195 0d8e 072B     		cmp	r3, #7
 2196 0d90 F1D9     		bls	.L120
 2197              	.LBE52:
 335:printer.c     **** 		}		
 336:printer.c     **** 		PRINTER_A_PutChar(LINE_FEED);
ARM GAS  C:\Users\Diego\AppData\Local\Temp\ccnYGT0M.s 			page 50


 2198              		.loc 1 336 0 is_stmt 1
 2199 0d92 594B     		ldr	r3, .L143+12
 2200 0d94 1B78     		ldrb	r3, [r3]	@ zero_extendqisi2
 2201 0d96 1846     		mov	r0, r3
 2202 0d98 FFF7FEFF 		bl	PRINTER_A_PutChar
 337:printer.c     ****         side.b.Copy = 1;
 2203              		.loc 1 337 0
 2204 0d9c 554B     		ldr	r3, .L143+8
 2205 0d9e 0122     		movs	r2, #1
 2206 0da0 83F86922 		strb	r2, [r3, #617]
 2207              	.L76:
 2208              	.LBB53:
 338:printer.c     **** 	}
 339:printer.c     **** 	
 340:printer.c     **** 	
 341:printer.c     **** 	
 342:printer.c     **** 	/******FOOTER*****/
 343:printer.c     **** 	for(uint8 x = 0; x < 32; x ++){
 2209              		.loc 1 343 0
 2210 0da4 0023     		movs	r3, #0
 2211 0da6 FB74     		strb	r3, [r7, #19]
 2212 0da8 08E0     		b	.L121
 2213              	.L122:
 344:printer.c     **** 		PRINTER_A_PutChar(SEPARATOR[x]);
 2214              		.loc 1 344 0 discriminator 3
 2215 0daa FB7C     		ldrb	r3, [r7, #19]	@ zero_extendqisi2
 2216 0dac 534A     		ldr	r2, .L143+16
 2217 0dae D35C     		ldrb	r3, [r2, r3]	@ zero_extendqisi2
 2218 0db0 1846     		mov	r0, r3
 2219 0db2 FFF7FEFF 		bl	PRINTER_A_PutChar
 343:printer.c     **** 		PRINTER_A_PutChar(SEPARATOR[x]);
 2220              		.loc 1 343 0 discriminator 3
 2221 0db6 FB7C     		ldrb	r3, [r7, #19]	@ zero_extendqisi2
 2222 0db8 0133     		adds	r3, r3, #1
 2223 0dba FB74     		strb	r3, [r7, #19]
 2224              	.L121:
 343:printer.c     **** 		PRINTER_A_PutChar(SEPARATOR[x]);
 2225              		.loc 1 343 0 is_stmt 0 discriminator 1
 2226 0dbc FB7C     		ldrb	r3, [r7, #19]	@ zero_extendqisi2
 2227 0dbe 1F2B     		cmp	r3, #31
 2228 0dc0 F3D9     		bls	.L122
 2229              	.LBE53:
 345:printer.c     **** 	}
 346:printer.c     ****     PRINTER_A_PutChar(LINE_FEED);    
 2230              		.loc 1 346 0 is_stmt 1
 2231 0dc2 4D4B     		ldr	r3, .L143+12
 2232 0dc4 1B78     		ldrb	r3, [r3]	@ zero_extendqisi2
 2233 0dc6 1846     		mov	r0, r3
 2234 0dc8 FFF7FEFF 		bl	PRINTER_A_PutChar
 2235              	.LBB54:
 347:printer.c     **** 	for(uint8 x = 0; x < 32; x ++){
 2236              		.loc 1 347 0
 2237 0dcc 0023     		movs	r3, #0
 2238 0dce BB74     		strb	r3, [r7, #18]
 2239 0dd0 08E0     		b	.L123
 2240              	.L124:
 348:printer.c     **** 		PRINTER_A_PutChar(msn_footer3[x]);
ARM GAS  C:\Users\Diego\AppData\Local\Temp\ccnYGT0M.s 			page 51


 2241              		.loc 1 348 0 discriminator 3
 2242 0dd2 BB7C     		ldrb	r3, [r7, #18]	@ zero_extendqisi2
 2243 0dd4 4A4A     		ldr	r2, .L143+20
 2244 0dd6 D35C     		ldrb	r3, [r2, r3]	@ zero_extendqisi2
 2245 0dd8 1846     		mov	r0, r3
 2246 0dda FFF7FEFF 		bl	PRINTER_A_PutChar
 347:printer.c     **** 	for(uint8 x = 0; x < 32; x ++){
 2247              		.loc 1 347 0 discriminator 3
 2248 0dde BB7C     		ldrb	r3, [r7, #18]	@ zero_extendqisi2
 2249 0de0 0133     		adds	r3, r3, #1
 2250 0de2 BB74     		strb	r3, [r7, #18]
 2251              	.L123:
 347:printer.c     **** 	for(uint8 x = 0; x < 32; x ++){
 2252              		.loc 1 347 0 is_stmt 0 discriminator 1
 2253 0de4 BB7C     		ldrb	r3, [r7, #18]	@ zero_extendqisi2
 2254 0de6 1F2B     		cmp	r3, #31
 2255 0de8 F3D9     		bls	.L124
 2256              	.LBE54:
 349:printer.c     **** 	}
 350:printer.c     ****     PRINTER_A_PutChar(LINE_FEED);
 2257              		.loc 1 350 0 is_stmt 1
 2258 0dea 434B     		ldr	r3, .L143+12
 2259 0dec 1B78     		ldrb	r3, [r3]	@ zero_extendqisi2
 2260 0dee 1846     		mov	r0, r3
 2261 0df0 FFF7FEFF 		bl	PRINTER_A_PutChar
 351:printer.c     ****     PRINTER_A_PutChar(LINE_FEED);
 2262              		.loc 1 351 0
 2263 0df4 404B     		ldr	r3, .L143+12
 2264 0df6 1B78     		ldrb	r3, [r3]	@ zero_extendqisi2
 2265 0df8 1846     		mov	r0, r3
 2266 0dfa FFF7FEFF 		bl	PRINTER_A_PutChar
 2267              	.LBB55:
 352:printer.c     **** 	for(uint8 x = 0; x < 32; x ++){
 2268              		.loc 1 352 0
 2269 0dfe 0023     		movs	r3, #0
 2270 0e00 7B74     		strb	r3, [r7, #17]
 2271 0e02 08E0     		b	.L125
 2272              	.L126:
 353:printer.c     **** 		PRINTER_A_PutChar(msn_footer4[x]);
 2273              		.loc 1 353 0 discriminator 3
 2274 0e04 7B7C     		ldrb	r3, [r7, #17]	@ zero_extendqisi2
 2275 0e06 3F4A     		ldr	r2, .L143+24
 2276 0e08 D35C     		ldrb	r3, [r2, r3]	@ zero_extendqisi2
 2277 0e0a 1846     		mov	r0, r3
 2278 0e0c FFF7FEFF 		bl	PRINTER_A_PutChar
 352:printer.c     **** 	for(uint8 x = 0; x < 32; x ++){
 2279              		.loc 1 352 0 discriminator 3
 2280 0e10 7B7C     		ldrb	r3, [r7, #17]	@ zero_extendqisi2
 2281 0e12 0133     		adds	r3, r3, #1
 2282 0e14 7B74     		strb	r3, [r7, #17]
 2283              	.L125:
 352:printer.c     **** 	for(uint8 x = 0; x < 32; x ++){
 2284              		.loc 1 352 0 is_stmt 0 discriminator 1
 2285 0e16 7B7C     		ldrb	r3, [r7, #17]	@ zero_extendqisi2
 2286 0e18 1F2B     		cmp	r3, #31
 2287 0e1a F3D9     		bls	.L126
 2288              	.LBE55:
ARM GAS  C:\Users\Diego\AppData\Local\Temp\ccnYGT0M.s 			page 52


 354:printer.c     **** 	}
 355:printer.c     **** 	PRINTER_A_PutChar(LINE_FEED);    
 2289              		.loc 1 355 0 is_stmt 1
 2290 0e1c 364B     		ldr	r3, .L143+12
 2291 0e1e 1B78     		ldrb	r3, [r3]	@ zero_extendqisi2
 2292 0e20 1846     		mov	r0, r3
 2293 0e22 FFF7FEFF 		bl	PRINTER_A_PutChar
 2294              	.LBB56:
 356:printer.c     ****     for(uint8 x = 0; x < 32; x ++){
 2295              		.loc 1 356 0
 2296 0e26 0023     		movs	r3, #0
 2297 0e28 3B74     		strb	r3, [r7, #16]
 2298 0e2a 08E0     		b	.L127
 2299              	.L128:
 357:printer.c     **** 		PRINTER_A_PutChar(SEPARATOR[x]);
 2300              		.loc 1 357 0 discriminator 3
 2301 0e2c 3B7C     		ldrb	r3, [r7, #16]	@ zero_extendqisi2
 2302 0e2e 334A     		ldr	r2, .L143+16
 2303 0e30 D35C     		ldrb	r3, [r2, r3]	@ zero_extendqisi2
 2304 0e32 1846     		mov	r0, r3
 2305 0e34 FFF7FEFF 		bl	PRINTER_A_PutChar
 356:printer.c     ****     for(uint8 x = 0; x < 32; x ++){
 2306              		.loc 1 356 0 discriminator 3
 2307 0e38 3B7C     		ldrb	r3, [r7, #16]	@ zero_extendqisi2
 2308 0e3a 0133     		adds	r3, r3, #1
 2309 0e3c 3B74     		strb	r3, [r7, #16]
 2310              	.L127:
 356:printer.c     ****     for(uint8 x = 0; x < 32; x ++){
 2311              		.loc 1 356 0 is_stmt 0 discriminator 1
 2312 0e3e 3B7C     		ldrb	r3, [r7, #16]	@ zero_extendqisi2
 2313 0e40 1F2B     		cmp	r3, #31
 2314 0e42 F3D9     		bls	.L128
 2315              	.LBE56:
 358:printer.c     **** 	}
 359:printer.c     ****     PRINTER_A_PutChar(LINE_FEED);
 2316              		.loc 1 359 0 is_stmt 1
 2317 0e44 2C4B     		ldr	r3, .L143+12
 2318 0e46 1B78     		ldrb	r3, [r3]	@ zero_extendqisi2
 2319 0e48 1846     		mov	r0, r3
 2320 0e4a FFF7FEFF 		bl	PRINTER_A_PutChar
 2321              	.LBB57:
 360:printer.c     **** 	for(uint8 x = 0; x < 32; x ++){
 2322              		.loc 1 360 0
 2323 0e4e 0023     		movs	r3, #0
 2324 0e50 FB73     		strb	r3, [r7, #15]
 2325 0e52 08E0     		b	.L129
 2326              	.L130:
 361:printer.c     **** 		PRINTER_A_PutChar(msn_footer[x]);
 2327              		.loc 1 361 0 discriminator 3
 2328 0e54 FB7B     		ldrb	r3, [r7, #15]	@ zero_extendqisi2
 2329 0e56 2C4A     		ldr	r2, .L143+28
 2330 0e58 D35C     		ldrb	r3, [r2, r3]	@ zero_extendqisi2
 2331 0e5a 1846     		mov	r0, r3
 2332 0e5c FFF7FEFF 		bl	PRINTER_A_PutChar
 360:printer.c     **** 	for(uint8 x = 0; x < 32; x ++){
 2333              		.loc 1 360 0 discriminator 3
 2334 0e60 FB7B     		ldrb	r3, [r7, #15]	@ zero_extendqisi2
ARM GAS  C:\Users\Diego\AppData\Local\Temp\ccnYGT0M.s 			page 53


 2335 0e62 0133     		adds	r3, r3, #1
 2336 0e64 FB73     		strb	r3, [r7, #15]
 2337              	.L129:
 360:printer.c     **** 	for(uint8 x = 0; x < 32; x ++){
 2338              		.loc 1 360 0 is_stmt 0 discriminator 1
 2339 0e66 FB7B     		ldrb	r3, [r7, #15]	@ zero_extendqisi2
 2340 0e68 1F2B     		cmp	r3, #31
 2341 0e6a F3D9     		bls	.L130
 2342              	.LBE57:
 362:printer.c     **** 	}
 363:printer.c     **** 	PRINTER_A_PutChar(LINE_FEED);
 2343              		.loc 1 363 0 is_stmt 1
 2344 0e6c 224B     		ldr	r3, .L143+12
 2345 0e6e 1B78     		ldrb	r3, [r3]	@ zero_extendqisi2
 2346 0e70 1846     		mov	r0, r3
 2347 0e72 FFF7FEFF 		bl	PRINTER_A_PutChar
 2348              	.LBB58:
 364:printer.c     **** 	for(uint8 x = 0; x < 32; x ++){
 2349              		.loc 1 364 0
 2350 0e76 0023     		movs	r3, #0
 2351 0e78 BB73     		strb	r3, [r7, #14]
 2352 0e7a 08E0     		b	.L131
 2353              	.L132:
 365:printer.c     **** 		PRINTER_A_PutChar(msn_footer2[x]);
 2354              		.loc 1 365 0 discriminator 3
 2355 0e7c BB7B     		ldrb	r3, [r7, #14]	@ zero_extendqisi2
 2356 0e7e 234A     		ldr	r2, .L143+32
 2357 0e80 D35C     		ldrb	r3, [r2, r3]	@ zero_extendqisi2
 2358 0e82 1846     		mov	r0, r3
 2359 0e84 FFF7FEFF 		bl	PRINTER_A_PutChar
 364:printer.c     **** 	for(uint8 x = 0; x < 32; x ++){
 2360              		.loc 1 364 0 discriminator 3
 2361 0e88 BB7B     		ldrb	r3, [r7, #14]	@ zero_extendqisi2
 2362 0e8a 0133     		adds	r3, r3, #1
 2363 0e8c BB73     		strb	r3, [r7, #14]
 2364              	.L131:
 364:printer.c     **** 	for(uint8 x = 0; x < 32; x ++){
 2365              		.loc 1 364 0 is_stmt 0 discriminator 1
 2366 0e8e BB7B     		ldrb	r3, [r7, #14]	@ zero_extendqisi2
 2367 0e90 1F2B     		cmp	r3, #31
 2368 0e92 F3D9     		bls	.L132
 2369              	.LBE58:
 366:printer.c     **** 	}    
 367:printer.c     ****     PRINTER_A_PutChar(LINE_FEED);
 2370              		.loc 1 367 0 is_stmt 1
 2371 0e94 184B     		ldr	r3, .L143+12
 2372 0e96 1B78     		ldrb	r3, [r3]	@ zero_extendqisi2
 2373 0e98 1846     		mov	r0, r3
 2374 0e9a FFF7FEFF 		bl	PRINTER_A_PutChar
 368:printer.c     ****     PRINTER_A_PutChar(LINE_FEED);
 2375              		.loc 1 368 0
 2376 0e9e 164B     		ldr	r3, .L143+12
 2377 0ea0 1B78     		ldrb	r3, [r3]	@ zero_extendqisi2
 2378 0ea2 1846     		mov	r0, r3
 2379 0ea4 FFF7FEFF 		bl	PRINTER_A_PutChar
 369:printer.c     ****     PRINTER_A_PutChar(LINE_FEED);
 2380              		.loc 1 369 0
ARM GAS  C:\Users\Diego\AppData\Local\Temp\ccnYGT0M.s 			page 54


 2381 0ea8 134B     		ldr	r3, .L143+12
 2382 0eaa 1B78     		ldrb	r3, [r3]	@ zero_extendqisi2
 2383 0eac 1846     		mov	r0, r3
 2384 0eae FFF7FEFF 		bl	PRINTER_A_PutChar
 370:printer.c     ****     PRINTER_A_PutChar(LINE_FEED);
 2385              		.loc 1 370 0
 2386 0eb2 114B     		ldr	r3, .L143+12
 2387 0eb4 1B78     		ldrb	r3, [r3]	@ zero_extendqisi2
 2388 0eb6 1846     		mov	r0, r3
 2389 0eb8 FFF7FEFF 		bl	PRINTER_A_PutChar
 371:printer.c     ****     PRINTER_A_PutChar(LINE_FEED);
 2390              		.loc 1 371 0
 2391 0ebc 0E4B     		ldr	r3, .L143+12
 2392 0ebe 1B78     		ldrb	r3, [r3]	@ zero_extendqisi2
 2393 0ec0 1846     		mov	r0, r3
 2394 0ec2 FFF7FEFF 		bl	PRINTER_A_PutChar
 2395              	.LBB59:
 372:printer.c     ****     for(uint8 x = 0; x < 6; x ++){
 2396              		.loc 1 372 0
 2397 0ec6 0023     		movs	r3, #0
 2398 0ec8 7B73     		strb	r3, [r7, #13]
 2399 0eca 08E0     		b	.L133
 2400              	.L134:
 373:printer.c     ****         sale_number_copy[x] = sale_number[x];
 2401              		.loc 1 373 0 discriminator 3
 2402 0ecc 7B7B     		ldrb	r3, [r7, #13]	@ zero_extendqisi2
 2403 0ece 7A7B     		ldrb	r2, [r7, #13]	@ zero_extendqisi2
 2404 0ed0 0F49     		ldr	r1, .L143+36
 2405 0ed2 895C     		ldrb	r1, [r1, r2]	@ zero_extendqisi2
 2406 0ed4 0F4A     		ldr	r2, .L143+40
 2407 0ed6 D154     		strb	r1, [r2, r3]
 372:printer.c     ****     for(uint8 x = 0; x < 6; x ++){
 2408              		.loc 1 372 0 discriminator 3
 2409 0ed8 7B7B     		ldrb	r3, [r7, #13]	@ zero_extendqisi2
 2410 0eda 0133     		adds	r3, r3, #1
 2411 0edc 7B73     		strb	r3, [r7, #13]
 2412              	.L133:
 372:printer.c     ****     for(uint8 x = 0; x < 6; x ++){
 2413              		.loc 1 372 0 is_stmt 0 discriminator 1
 2414 0ede 7B7B     		ldrb	r3, [r7, #13]	@ zero_extendqisi2
 2415 0ee0 052B     		cmp	r3, #5
 2416 0ee2 F3D9     		bls	.L134
 2417              	.LBE59:
 374:printer.c     ****     }
 375:printer.c     **** }
 2418              		.loc 1 375 0 is_stmt 1
 2419 0ee4 00BF     		nop
 2420 0ee6 4C37     		adds	r7, r7, #76
 2421              		.cfi_def_cfa_offset 12
 2422 0ee8 BD46     		mov	sp, r7
 2423              		.cfi_def_cfa_register 13
 2424              		@ sp needed
 2425 0eea 90BD     		pop	{r4, r7, pc}
 2426              	.L144:
 2427              		.align	2
 2428              	.L143:
 2429 0eec 00000000 		.word	msn_din
ARM GAS  C:\Users\Diego\AppData\Local\Temp\ccnYGT0M.s 			page 55


 2430 0ef0 00000000 		.word	PRN_CURRENCY
 2431 0ef4 00000000 		.word	side
 2432 0ef8 00000000 		.word	LINE_FEED
 2433 0efc 00000000 		.word	SEPARATOR
 2434 0f00 00000000 		.word	msn_footer3
 2435 0f04 00000000 		.word	msn_footer4
 2436 0f08 00000000 		.word	msn_footer
 2437 0f0c 00000000 		.word	msn_footer2
 2438 0f10 00000000 		.word	sale_number
 2439 0f14 00000000 		.word	sale_number_copy
 2440              		.cfi_endproc
 2441              	.LFE64:
 2442              		.size	PrintReceipt, .-PrintReceipt
 2443              		.section	.text.PrintShift,"ax",%progbits
 2444              		.align	2
 2445              		.global	PrintShift
 2446              		.thumb
 2447              		.thumb_func
 2448              		.type	PrintShift, %function
 2449              	PrintShift:
 2450              	.LFB65:
 376:printer.c     **** 
 377:printer.c     **** void PrintShift(void){
 2451              		.loc 1 377 0
 2452              		.cfi_startproc
 2453              		@ args = 0, pretend = 0, frame = 112
 2454              		@ frame_needed = 1, uses_anonymous_args = 0
 2455 0000 90B5     		push	{r4, r7, lr}
 2456              		.cfi_def_cfa_offset 12
 2457              		.cfi_offset 4, -12
 2458              		.cfi_offset 7, -8
 2459              		.cfi_offset 14, -4
 2460 0002 9DB0     		sub	sp, sp, #116
 2461              		.cfi_def_cfa_offset 128
 2462 0004 00AF     		add	r7, sp, #0
 2463              		.cfi_def_cfa_register 7
 378:printer.c     ****     uint8 screen_size,pos;
 379:printer.c     ****     screen_size = 0;
 2464              		.loc 1 379 0
 2465 0006 0023     		movs	r3, #0
 2466 0008 87F86F30 		strb	r3, [r7, #111]
 380:printer.c     ****     char8 lectanterior[10],lectactual[10],memoria[10],resultado[10];
 381:printer.c     ****     uint32 actual,anterior,resta;
 382:printer.c     ****     while(screen_size == 0){
 2467              		.loc 1 382 0
 2468 000c 1BE0     		b	.L146
 2469              	.L149:
 2470              	.LBB60:
 383:printer.c     ****         for(uint8 LCDRx = 0; LCDRx < 6; LCDRx++){
 2471              		.loc 1 383 0
 2472 000e 0023     		movs	r3, #0
 2473 0010 87F86D30 		strb	r3, [r7, #109]
 2474 0014 0BE0     		b	.L147
 2475              	.L148:
 384:printer.c     ****             screen_PutChar(ASK_TIME[LCDRx]);
 2476              		.loc 1 384 0 discriminator 3
 2477 0016 97F86D30 		ldrb	r3, [r7, #109]	@ zero_extendqisi2
ARM GAS  C:\Users\Diego\AppData\Local\Temp\ccnYGT0M.s 			page 56


 2478 001a C94A     		ldr	r2, .L255
 2479 001c D35C     		ldrb	r3, [r2, r3]	@ zero_extendqisi2
 2480 001e 1846     		mov	r0, r3
 2481 0020 FFF7FEFF 		bl	screen_PutChar
 383:printer.c     ****         for(uint8 LCDRx = 0; LCDRx < 6; LCDRx++){
 2482              		.loc 1 383 0 discriminator 3
 2483 0024 97F86D30 		ldrb	r3, [r7, #109]	@ zero_extendqisi2
 2484 0028 0133     		adds	r3, r3, #1
 2485 002a 87F86D30 		strb	r3, [r7, #109]
 2486              	.L147:
 383:printer.c     ****         for(uint8 LCDRx = 0; LCDRx < 6; LCDRx++){
 2487              		.loc 1 383 0 is_stmt 0 discriminator 1
 2488 002e 97F86D30 		ldrb	r3, [r7, #109]	@ zero_extendqisi2
 2489 0032 052B     		cmp	r3, #5
 2490 0034 EFD9     		bls	.L148
 2491              	.LBE60:
 385:printer.c     ****         }
 386:printer.c     ****         CyDelay(5);
 2492              		.loc 1 386 0 is_stmt 1
 2493 0036 0520     		movs	r0, #5
 2494 0038 FFF7FEFF 		bl	CyDelay
 387:printer.c     ****         screen_size = screen_GetRxBufferSize();
 2495              		.loc 1 387 0
 2496 003c FFF7FEFF 		bl	screen_GetRxBufferSize
 2497 0040 0346     		mov	r3, r0
 2498 0042 87F86F30 		strb	r3, [r7, #111]
 2499              	.L146:
 382:printer.c     ****         for(uint8 LCDRx = 0; LCDRx < 6; LCDRx++){
 2500              		.loc 1 382 0
 2501 0046 97F86F30 		ldrb	r3, [r7, #111]	@ zero_extendqisi2
 2502 004a 002B     		cmp	r3, #0
 2503 004c DFD0     		beq	.L149
 388:printer.c     ****     }
 389:printer.c     ****     if(screen_size >= 13 ){
 2504              		.loc 1 389 0
 2505 004e 97F86F30 		ldrb	r3, [r7, #111]	@ zero_extendqisi2
 2506 0052 0C2B     		cmp	r3, #12
 2507 0054 19D9     		bls	.L150
 2508              	.LBB61:
 390:printer.c     ****         for(uint8 LCDRx = 0; LCDRx < screen_size; LCDRx++){
 2509              		.loc 1 390 0
 2510 0056 0023     		movs	r3, #0
 2511 0058 87F86C30 		strb	r3, [r7, #108]
 2512 005c 0CE0     		b	.L151
 2513              	.L152:
 391:printer.c     ****             touch1[LCDRx] = screen_ReadRxData();
 2514              		.loc 1 391 0 discriminator 3
 2515 005e 97F86C40 		ldrb	r4, [r7, #108]	@ zero_extendqisi2
 2516 0062 FFF7FEFF 		bl	screen_ReadRxData
 2517 0066 0346     		mov	r3, r0
 2518 0068 1A46     		mov	r2, r3
 2519 006a B64B     		ldr	r3, .L255+4
 2520 006c 1A55     		strb	r2, [r3, r4]
 390:printer.c     ****         for(uint8 LCDRx = 0; LCDRx < screen_size; LCDRx++){
 2521              		.loc 1 390 0 discriminator 3
 2522 006e 97F86C30 		ldrb	r3, [r7, #108]	@ zero_extendqisi2
 2523 0072 0133     		adds	r3, r3, #1
ARM GAS  C:\Users\Diego\AppData\Local\Temp\ccnYGT0M.s 			page 57


 2524 0074 87F86C30 		strb	r3, [r7, #108]
 2525              	.L151:
 390:printer.c     ****         for(uint8 LCDRx = 0; LCDRx < screen_size; LCDRx++){
 2526              		.loc 1 390 0 is_stmt 0 discriminator 1
 2527 0078 97F86C20 		ldrb	r2, [r7, #108]	@ zero_extendqisi2
 2528 007c 97F86F30 		ldrb	r3, [r7, #111]	@ zero_extendqisi2
 2529 0080 9A42     		cmp	r2, r3
 2530 0082 ECD3     		bcc	.L152
 2531              	.LBE61:
 392:printer.c     ****         }
 393:printer.c     ****         screen_size = 0;
 2532              		.loc 1 393 0 is_stmt 1
 2533 0084 0023     		movs	r3, #0
 2534 0086 87F86F30 		strb	r3, [r7, #111]
 2535              	.L150:
 394:printer.c     ****     }
 395:printer.c     ****     PRINTER_A_PutChar(0x1D);
 2536              		.loc 1 395 0
 2537 008a 1D20     		movs	r0, #29
 2538 008c FFF7FEFF 		bl	PRINTER_A_PutChar
 396:printer.c     ****     PRINTER_A_PutChar(0x70);
 2539              		.loc 1 396 0
 2540 0090 7020     		movs	r0, #112
 2541 0092 FFF7FEFF 		bl	PRINTER_A_PutChar
 397:printer.c     ****     PRINTER_A_PutChar(0x01);
 2542              		.loc 1 397 0
 2543 0096 0120     		movs	r0, #1
 2544 0098 FFF7FEFF 		bl	PRINTER_A_PutChar
 398:printer.c     ****     PRINTER_A_PutChar(0x00);
 2545              		.loc 1 398 0
 2546 009c 0020     		movs	r0, #0
 2547 009e FFF7FEFF 		bl	PRINTER_A_PutChar
 399:printer.c     ****     int_shiftnumber++;
 2548              		.loc 1 399 0
 2549 00a2 A94B     		ldr	r3, .L255+8
 2550 00a4 1B78     		ldrb	r3, [r3]	@ zero_extendqisi2
 2551 00a6 0133     		adds	r3, r3, #1
 2552 00a8 DAB2     		uxtb	r2, r3
 2553 00aa A74B     		ldr	r3, .L255+8
 2554 00ac 1A70     		strb	r2, [r3]
 400:printer.c     ****     shift_number[5]=(int_shiftnumber/10000)+48;
 2555              		.loc 1 400 0
 2556 00ae A64B     		ldr	r3, .L255+8
 2557 00b0 1B78     		ldrb	r3, [r3]	@ zero_extendqisi2
 2558 00b2 A64A     		ldr	r2, .L255+12
 2559 00b4 82FB0312 		smull	r1, r2, r2, r3
 2560 00b8 1213     		asrs	r2, r2, #12
 2561 00ba DB17     		asrs	r3, r3, #31
 2562 00bc D31A     		subs	r3, r2, r3
 2563 00be DBB2     		uxtb	r3, r3
 2564 00c0 3033     		adds	r3, r3, #48
 2565 00c2 DAB2     		uxtb	r2, r3
 2566 00c4 A24B     		ldr	r3, .L255+16
 2567 00c6 5A71     		strb	r2, [r3, #5]
 401:printer.c     **** 	shift_number[4]=((int_shiftnumber%10000)/1000)+48;
 2568              		.loc 1 401 0
 2569 00c8 9F4B     		ldr	r3, .L255+8
ARM GAS  C:\Users\Diego\AppData\Local\Temp\ccnYGT0M.s 			page 58


 2570 00ca 1B78     		ldrb	r3, [r3]	@ zero_extendqisi2
 2571 00cc 1A46     		mov	r2, r3
 2572 00ce 9F4B     		ldr	r3, .L255+12
 2573 00d0 83FB0213 		smull	r1, r3, r3, r2
 2574 00d4 1913     		asrs	r1, r3, #12
 2575 00d6 D317     		asrs	r3, r2, #31
 2576 00d8 CB1A     		subs	r3, r1, r3
 2577 00da 42F21071 		movw	r1, #10000
 2578 00de 01FB03F3 		mul	r3, r1, r3
 2579 00e2 D31A     		subs	r3, r2, r3
 2580 00e4 9B4A     		ldr	r2, .L255+20
 2581 00e6 82FB0312 		smull	r1, r2, r2, r3
 2582 00ea 9211     		asrs	r2, r2, #6
 2583 00ec DB17     		asrs	r3, r3, #31
 2584 00ee D31A     		subs	r3, r2, r3
 2585 00f0 DBB2     		uxtb	r3, r3
 2586 00f2 3033     		adds	r3, r3, #48
 2587 00f4 DAB2     		uxtb	r2, r3
 2588 00f6 964B     		ldr	r3, .L255+16
 2589 00f8 1A71     		strb	r2, [r3, #4]
 402:printer.c     **** 	shift_number[3]=(((int_shiftnumber%10000)%1000)/100)+48;
 2590              		.loc 1 402 0
 2591 00fa 934B     		ldr	r3, .L255+8
 2592 00fc 1B78     		ldrb	r3, [r3]	@ zero_extendqisi2
 2593 00fe 1A46     		mov	r2, r3
 2594 0100 924B     		ldr	r3, .L255+12
 2595 0102 83FB0213 		smull	r1, r3, r3, r2
 2596 0106 1913     		asrs	r1, r3, #12
 2597 0108 D317     		asrs	r3, r2, #31
 2598 010a CB1A     		subs	r3, r1, r3
 2599 010c 42F21071 		movw	r1, #10000
 2600 0110 01FB03F3 		mul	r3, r1, r3
 2601 0114 D31A     		subs	r3, r2, r3
 2602 0116 8F4A     		ldr	r2, .L255+20
 2603 0118 82FB0312 		smull	r1, r2, r2, r3
 2604 011c 9111     		asrs	r1, r2, #6
 2605 011e DA17     		asrs	r2, r3, #31
 2606 0120 8A1A     		subs	r2, r1, r2
 2607 0122 4FF47A71 		mov	r1, #1000
 2608 0126 01FB02F2 		mul	r2, r1, r2
 2609 012a 9A1A     		subs	r2, r3, r2
 2610 012c 8A4B     		ldr	r3, .L255+24
 2611 012e 83FB0213 		smull	r1, r3, r3, r2
 2612 0132 5911     		asrs	r1, r3, #5
 2613 0134 D317     		asrs	r3, r2, #31
 2614 0136 CB1A     		subs	r3, r1, r3
 2615 0138 DBB2     		uxtb	r3, r3
 2616 013a 3033     		adds	r3, r3, #48
 2617 013c DAB2     		uxtb	r2, r3
 2618 013e 844B     		ldr	r3, .L255+16
 2619 0140 DA70     		strb	r2, [r3, #3]
 403:printer.c     **** 	shift_number[2]=((((int_shiftnumber%10000)%1000)%100)/10)+48;	
 2620              		.loc 1 403 0
 2621 0142 814B     		ldr	r3, .L255+8
 2622 0144 1B78     		ldrb	r3, [r3]	@ zero_extendqisi2
 2623 0146 814A     		ldr	r2, .L255+12
 2624 0148 82FB0312 		smull	r1, r2, r2, r3
ARM GAS  C:\Users\Diego\AppData\Local\Temp\ccnYGT0M.s 			page 59


 2625 014c 1113     		asrs	r1, r2, #12
 2626 014e DA17     		asrs	r2, r3, #31
 2627 0150 8A1A     		subs	r2, r1, r2
 2628 0152 42F21071 		movw	r1, #10000
 2629 0156 01FB02F2 		mul	r2, r1, r2
 2630 015a 9A1A     		subs	r2, r3, r2
 2631 015c 7D4B     		ldr	r3, .L255+20
 2632 015e 83FB0213 		smull	r1, r3, r3, r2
 2633 0162 9911     		asrs	r1, r3, #6
 2634 0164 D317     		asrs	r3, r2, #31
 2635 0166 CB1A     		subs	r3, r1, r3
 2636 0168 4FF47A71 		mov	r1, #1000
 2637 016c 01FB03F3 		mul	r3, r1, r3
 2638 0170 D31A     		subs	r3, r2, r3
 2639 0172 794A     		ldr	r2, .L255+24
 2640 0174 82FB0312 		smull	r1, r2, r2, r3
 2641 0178 5111     		asrs	r1, r2, #5
 2642 017a DA17     		asrs	r2, r3, #31
 2643 017c 8A1A     		subs	r2, r1, r2
 2644 017e 6421     		movs	r1, #100
 2645 0180 01FB02F2 		mul	r2, r1, r2
 2646 0184 9A1A     		subs	r2, r3, r2
 2647 0186 754B     		ldr	r3, .L255+28
 2648 0188 83FB0213 		smull	r1, r3, r3, r2
 2649 018c 9910     		asrs	r1, r3, #2
 2650 018e D317     		asrs	r3, r2, #31
 2651 0190 CB1A     		subs	r3, r1, r3
 2652 0192 DBB2     		uxtb	r3, r3
 2653 0194 3033     		adds	r3, r3, #48
 2654 0196 DAB2     		uxtb	r2, r3
 2655 0198 6D4B     		ldr	r3, .L255+16
 2656 019a 9A70     		strb	r2, [r3, #2]
 404:printer.c     **** 	shift_number[1]=((((int_shiftnumber%10000)%1000)%100)%10)+48;
 2657              		.loc 1 404 0
 2658 019c 6A4B     		ldr	r3, .L255+8
 2659 019e 1B78     		ldrb	r3, [r3]	@ zero_extendqisi2
 2660 01a0 6A4A     		ldr	r2, .L255+12
 2661 01a2 82FB0312 		smull	r1, r2, r2, r3
 2662 01a6 1113     		asrs	r1, r2, #12
 2663 01a8 DA17     		asrs	r2, r3, #31
 2664 01aa 8A1A     		subs	r2, r1, r2
 2665 01ac 42F21071 		movw	r1, #10000
 2666 01b0 01FB02F2 		mul	r2, r1, r2
 2667 01b4 9A1A     		subs	r2, r3, r2
 2668 01b6 674B     		ldr	r3, .L255+20
 2669 01b8 83FB0213 		smull	r1, r3, r3, r2
 2670 01bc 9911     		asrs	r1, r3, #6
 2671 01be D317     		asrs	r3, r2, #31
 2672 01c0 CB1A     		subs	r3, r1, r3
 2673 01c2 4FF47A71 		mov	r1, #1000
 2674 01c6 01FB03F3 		mul	r3, r1, r3
 2675 01ca D31A     		subs	r3, r2, r3
 2676 01cc 624A     		ldr	r2, .L255+24
 2677 01ce 82FB0312 		smull	r1, r2, r2, r3
 2678 01d2 5111     		asrs	r1, r2, #5
 2679 01d4 DA17     		asrs	r2, r3, #31
 2680 01d6 8A1A     		subs	r2, r1, r2
ARM GAS  C:\Users\Diego\AppData\Local\Temp\ccnYGT0M.s 			page 60


 2681 01d8 6421     		movs	r1, #100
 2682 01da 01FB02F2 		mul	r2, r1, r2
 2683 01de 9A1A     		subs	r2, r3, r2
 2684 01e0 5E4B     		ldr	r3, .L255+28
 2685 01e2 83FB0213 		smull	r1, r3, r3, r2
 2686 01e6 9910     		asrs	r1, r3, #2
 2687 01e8 D317     		asrs	r3, r2, #31
 2688 01ea C91A     		subs	r1, r1, r3
 2689 01ec 0B46     		mov	r3, r1
 2690 01ee 9B00     		lsls	r3, r3, #2
 2691 01f0 0B44     		add	r3, r3, r1
 2692 01f2 5B00     		lsls	r3, r3, #1
 2693 01f4 D11A     		subs	r1, r2, r3
 2694 01f6 CBB2     		uxtb	r3, r1
 2695 01f8 3033     		adds	r3, r3, #48
 2696 01fa DAB2     		uxtb	r2, r3
 2697 01fc 544B     		ldr	r3, .L255+16
 2698 01fe 5A70     		strb	r2, [r3, #1]
 2699              	.LBB62:
 405:printer.c     ****     for(uint8 i = 7; i<13; i++){
 2700              		.loc 1 405 0
 2701 0200 0723     		movs	r3, #7
 2702 0202 87F86B30 		strb	r3, [r7, #107]
 2703 0206 10E0     		b	.L153
 2704              	.L154:
 406:printer.c     ****         EEPROM_1_WriteByte(shift_number[i-6],i);
 2705              		.loc 1 406 0 discriminator 3
 2706 0208 97F86B30 		ldrb	r3, [r7, #107]	@ zero_extendqisi2
 2707 020c 063B     		subs	r3, r3, #6
 2708 020e 504A     		ldr	r2, .L255+16
 2709 0210 D35C     		ldrb	r3, [r2, r3]	@ zero_extendqisi2
 2710 0212 97F86B20 		ldrb	r2, [r7, #107]	@ zero_extendqisi2
 2711 0216 92B2     		uxth	r2, r2
 2712 0218 1146     		mov	r1, r2
 2713 021a 1846     		mov	r0, r3
 2714 021c FFF7FEFF 		bl	EEPROM_1_WriteByte
 405:printer.c     ****     for(uint8 i = 7; i<13; i++){
 2715              		.loc 1 405 0 discriminator 3
 2716 0220 97F86B30 		ldrb	r3, [r7, #107]	@ zero_extendqisi2
 2717 0224 0133     		adds	r3, r3, #1
 2718 0226 87F86B30 		strb	r3, [r7, #107]
 2719              	.L153:
 405:printer.c     ****     for(uint8 i = 7; i<13; i++){
 2720              		.loc 1 405 0 is_stmt 0 discriminator 1
 2721 022a 97F86B30 		ldrb	r3, [r7, #107]	@ zero_extendqisi2
 2722 022e 0C2B     		cmp	r3, #12
 2723 0230 EAD9     		bls	.L154
 2724              	.LBE62:
 407:printer.c     ****     }
 408:printer.c     ****     PRINTER_A_PutChar(LINE_FEED);
 2725              		.loc 1 408 0 is_stmt 1
 2726 0232 4B4B     		ldr	r3, .L255+32
 2727 0234 1B78     		ldrb	r3, [r3]	@ zero_extendqisi2
 2728 0236 1846     		mov	r0, r3
 2729 0238 FFF7FEFF 		bl	PRINTER_A_PutChar
 2730              	.LBB63:
 409:printer.c     **** 	for(uint8 x = 0; x < 32; x ++){
ARM GAS  C:\Users\Diego\AppData\Local\Temp\ccnYGT0M.s 			page 61


 2731              		.loc 1 409 0
 2732 023c 0023     		movs	r3, #0
 2733 023e 87F86A30 		strb	r3, [r7, #106]
 2734 0242 0BE0     		b	.L155
 2735              	.L156:
 410:printer.c     **** 		PRINTER_A_PutChar(msn_EDS[x]);   // Encabezado de estacin
 2736              		.loc 1 410 0 discriminator 3
 2737 0244 97F86A30 		ldrb	r3, [r7, #106]	@ zero_extendqisi2
 2738 0248 464A     		ldr	r2, .L255+36
 2739 024a D35C     		ldrb	r3, [r2, r3]	@ zero_extendqisi2
 2740 024c 1846     		mov	r0, r3
 2741 024e FFF7FEFF 		bl	PRINTER_A_PutChar
 409:printer.c     **** 	for(uint8 x = 0; x < 32; x ++){
 2742              		.loc 1 409 0 discriminator 3
 2743 0252 97F86A30 		ldrb	r3, [r7, #106]	@ zero_extendqisi2
 2744 0256 0133     		adds	r3, r3, #1
 2745 0258 87F86A30 		strb	r3, [r7, #106]
 2746              	.L155:
 409:printer.c     **** 	for(uint8 x = 0; x < 32; x ++){
 2747              		.loc 1 409 0 is_stmt 0 discriminator 1
 2748 025c 97F86A30 		ldrb	r3, [r7, #106]	@ zero_extendqisi2
 2749 0260 1F2B     		cmp	r3, #31
 2750 0262 EFD9     		bls	.L156
 2751              	.LBE63:
 411:printer.c     **** 	}
 412:printer.c     **** 	PRINTER_A_PutChar(LINE_FEED);
 2752              		.loc 1 412 0 is_stmt 1
 2753 0264 3E4B     		ldr	r3, .L255+32
 2754 0266 1B78     		ldrb	r3, [r3]	@ zero_extendqisi2
 2755 0268 1846     		mov	r0, r3
 2756 026a FFF7FEFF 		bl	PRINTER_A_PutChar
 2757              	.LBB64:
 413:printer.c     **** 	for(uint8 x = 0; x < 32; x ++){
 2758              		.loc 1 413 0
 2759 026e 0023     		movs	r3, #0
 2760 0270 87F86930 		strb	r3, [r7, #105]
 2761 0274 0BE0     		b	.L157
 2762              	.L158:
 414:printer.c     **** 		PRINTER_A_PutChar(msn_EDS2[x]);
 2763              		.loc 1 414 0 discriminator 3
 2764 0276 97F86930 		ldrb	r3, [r7, #105]	@ zero_extendqisi2
 2765 027a 3B4A     		ldr	r2, .L255+40
 2766 027c D35C     		ldrb	r3, [r2, r3]	@ zero_extendqisi2
 2767 027e 1846     		mov	r0, r3
 2768 0280 FFF7FEFF 		bl	PRINTER_A_PutChar
 413:printer.c     **** 	for(uint8 x = 0; x < 32; x ++){
 2769              		.loc 1 413 0 discriminator 3
 2770 0284 97F86930 		ldrb	r3, [r7, #105]	@ zero_extendqisi2
 2771 0288 0133     		adds	r3, r3, #1
 2772 028a 87F86930 		strb	r3, [r7, #105]
 2773              	.L157:
 413:printer.c     **** 	for(uint8 x = 0; x < 32; x ++){
 2774              		.loc 1 413 0 is_stmt 0 discriminator 1
 2775 028e 97F86930 		ldrb	r3, [r7, #105]	@ zero_extendqisi2
 2776 0292 1F2B     		cmp	r3, #31
 2777 0294 EFD9     		bls	.L158
 2778              	.LBE64:
ARM GAS  C:\Users\Diego\AppData\Local\Temp\ccnYGT0M.s 			page 62


 415:printer.c     **** 	}
 416:printer.c     **** 	PRINTER_A_PutChar(LINE_FEED);
 2779              		.loc 1 416 0 is_stmt 1
 2780 0296 324B     		ldr	r3, .L255+32
 2781 0298 1B78     		ldrb	r3, [r3]	@ zero_extendqisi2
 2782 029a 1846     		mov	r0, r3
 2783 029c FFF7FEFF 		bl	PRINTER_A_PutChar
 2784              	.LBB65:
 417:printer.c     **** 	for(uint8 x = 0; x < 32; x ++){
 2785              		.loc 1 417 0
 2786 02a0 0023     		movs	r3, #0
 2787 02a2 87F86830 		strb	r3, [r7, #104]
 2788 02a6 0BE0     		b	.L159
 2789              	.L160:
 418:printer.c     **** 		PRINTER_A_PutChar(msn_EDS3[x]);
 2790              		.loc 1 418 0 discriminator 3
 2791 02a8 97F86830 		ldrb	r3, [r7, #104]	@ zero_extendqisi2
 2792 02ac 2F4A     		ldr	r2, .L255+44
 2793 02ae D35C     		ldrb	r3, [r2, r3]	@ zero_extendqisi2
 2794 02b0 1846     		mov	r0, r3
 2795 02b2 FFF7FEFF 		bl	PRINTER_A_PutChar
 417:printer.c     **** 	for(uint8 x = 0; x < 32; x ++){
 2796              		.loc 1 417 0 discriminator 3
 2797 02b6 97F86830 		ldrb	r3, [r7, #104]	@ zero_extendqisi2
 2798 02ba 0133     		adds	r3, r3, #1
 2799 02bc 87F86830 		strb	r3, [r7, #104]
 2800              	.L159:
 417:printer.c     **** 	for(uint8 x = 0; x < 32; x ++){
 2801              		.loc 1 417 0 is_stmt 0 discriminator 1
 2802 02c0 97F86830 		ldrb	r3, [r7, #104]	@ zero_extendqisi2
 2803 02c4 1F2B     		cmp	r3, #31
 2804 02c6 EFD9     		bls	.L160
 2805              	.LBE65:
 419:printer.c     **** 	}
 420:printer.c     **** 	PRINTER_A_PutChar(LINE_FEED);
 2806              		.loc 1 420 0 is_stmt 1
 2807 02c8 254B     		ldr	r3, .L255+32
 2808 02ca 1B78     		ldrb	r3, [r3]	@ zero_extendqisi2
 2809 02cc 1846     		mov	r0, r3
 2810 02ce FFF7FEFF 		bl	PRINTER_A_PutChar
 2811              	.LBB66:
 421:printer.c     **** 	for(uint8 x = 0; x < 32; x ++){
 2812              		.loc 1 421 0
 2813 02d2 0023     		movs	r3, #0
 2814 02d4 87F86730 		strb	r3, [r7, #103]
 2815 02d8 0BE0     		b	.L161
 2816              	.L162:
 422:printer.c     **** 		PRINTER_A_PutChar(msn_EDS4[x]);
 2817              		.loc 1 422 0 discriminator 3
 2818 02da 97F86730 		ldrb	r3, [r7, #103]	@ zero_extendqisi2
 2819 02de 244A     		ldr	r2, .L255+48
 2820 02e0 D35C     		ldrb	r3, [r2, r3]	@ zero_extendqisi2
 2821 02e2 1846     		mov	r0, r3
 2822 02e4 FFF7FEFF 		bl	PRINTER_A_PutChar
 421:printer.c     **** 	for(uint8 x = 0; x < 32; x ++){
 2823              		.loc 1 421 0 discriminator 3
 2824 02e8 97F86730 		ldrb	r3, [r7, #103]	@ zero_extendqisi2
ARM GAS  C:\Users\Diego\AppData\Local\Temp\ccnYGT0M.s 			page 63


 2825 02ec 0133     		adds	r3, r3, #1
 2826 02ee 87F86730 		strb	r3, [r7, #103]
 2827              	.L161:
 421:printer.c     **** 	for(uint8 x = 0; x < 32; x ++){
 2828              		.loc 1 421 0 is_stmt 0 discriminator 1
 2829 02f2 97F86730 		ldrb	r3, [r7, #103]	@ zero_extendqisi2
 2830 02f6 1F2B     		cmp	r3, #31
 2831 02f8 EFD9     		bls	.L162
 2832              	.LBE66:
 423:printer.c     **** 	}
 424:printer.c     **** 	PRINTER_A_PutChar(LINE_FEED);  
 2833              		.loc 1 424 0 is_stmt 1
 2834 02fa 194B     		ldr	r3, .L255+32
 2835 02fc 1B78     		ldrb	r3, [r3]	@ zero_extendqisi2
 2836 02fe 1846     		mov	r0, r3
 2837 0300 FFF7FEFF 		bl	PRINTER_A_PutChar
 2838              	.LBB67:
 425:printer.c     **** 	for(uint8 x = 0; x < 32; x ++){
 2839              		.loc 1 425 0
 2840 0304 0023     		movs	r3, #0
 2841 0306 87F86630 		strb	r3, [r7, #102]
 2842 030a 0BE0     		b	.L163
 2843              	.L164:
 426:printer.c     **** 		PRINTER_A_PutChar(SEPARATOR[x]); //Separador de seccin
 2844              		.loc 1 426 0 discriminator 3
 2845 030c 97F86630 		ldrb	r3, [r7, #102]	@ zero_extendqisi2
 2846 0310 184A     		ldr	r2, .L255+52
 2847 0312 D35C     		ldrb	r3, [r2, r3]	@ zero_extendqisi2
 2848 0314 1846     		mov	r0, r3
 2849 0316 FFF7FEFF 		bl	PRINTER_A_PutChar
 425:printer.c     **** 	for(uint8 x = 0; x < 32; x ++){
 2850              		.loc 1 425 0 discriminator 3
 2851 031a 97F86630 		ldrb	r3, [r7, #102]	@ zero_extendqisi2
 2852 031e 0133     		adds	r3, r3, #1
 2853 0320 87F86630 		strb	r3, [r7, #102]
 2854              	.L163:
 425:printer.c     **** 	for(uint8 x = 0; x < 32; x ++){
 2855              		.loc 1 425 0 is_stmt 0 discriminator 1
 2856 0324 97F86630 		ldrb	r3, [r7, #102]	@ zero_extendqisi2
 2857 0328 1F2B     		cmp	r3, #31
 2858 032a EFD9     		bls	.L164
 2859              	.LBE67:
 427:printer.c     **** 	}
 428:printer.c     ****     PRINTER_A_PutChar(LINE_FEED);
 2860              		.loc 1 428 0 is_stmt 1
 2861 032c 0C4B     		ldr	r3, .L255+32
 2862 032e 1B78     		ldrb	r3, [r3]	@ zero_extendqisi2
 2863 0330 1846     		mov	r0, r3
 2864 0332 FFF7FEFF 		bl	PRINTER_A_PutChar
 2865              	.LBB68:
 429:printer.c     ****     /********** FECHA ***************/
 430:printer.c     **** 	for(uint8 x = 0; x < 13; x ++){
 2866              		.loc 1 430 0
 2867 0336 0023     		movs	r3, #0
 2868 0338 87F86530 		strb	r3, [r7, #101]
 2869 033c 28E0     		b	.L165
 2870              	.L256:
ARM GAS  C:\Users\Diego\AppData\Local\Temp\ccnYGT0M.s 			page 64


 2871 033e 00BF     		.align	2
 2872              	.L255:
 2873 0340 00000000 		.word	ASK_TIME
 2874 0344 00000000 		.word	touch1
 2875 0348 00000000 		.word	int_shiftnumber
 2876 034c AD8BDB68 		.word	1759218605
 2877 0350 00000000 		.word	shift_number
 2878 0354 D34D6210 		.word	274877907
 2879 0358 1F85EB51 		.word	1374389535
 2880 035c 67666666 		.word	1717986919
 2881 0360 00000000 		.word	LINE_FEED
 2882 0364 00000000 		.word	msn_EDS
 2883 0368 00000000 		.word	msn_EDS2
 2884 036c 00000000 		.word	msn_EDS3
 2885 0370 00000000 		.word	msn_EDS4
 2886 0374 00000000 		.word	SEPARATOR
 2887              	.L166:
 431:printer.c     **** 		PRINTER_A_PutChar(msn_fecha[x]);
 2888              		.loc 1 431 0 discriminator 3
 2889 0378 97F86530 		ldrb	r3, [r7, #101]	@ zero_extendqisi2
 2890 037c C54A     		ldr	r2, .L257
 2891 037e D35C     		ldrb	r3, [r2, r3]	@ zero_extendqisi2
 2892 0380 1846     		mov	r0, r3
 2893 0382 FFF7FEFF 		bl	PRINTER_A_PutChar
 430:printer.c     **** 		PRINTER_A_PutChar(msn_fecha[x]);
 2894              		.loc 1 430 0 discriminator 3
 2895 0386 97F86530 		ldrb	r3, [r7, #101]	@ zero_extendqisi2
 2896 038a 0133     		adds	r3, r3, #1
 2897 038c 87F86530 		strb	r3, [r7, #101]
 2898              	.L165:
 430:printer.c     **** 		PRINTER_A_PutChar(msn_fecha[x]);
 2899              		.loc 1 430 0 is_stmt 0 discriminator 1
 2900 0390 97F86530 		ldrb	r3, [r7, #101]	@ zero_extendqisi2
 2901 0394 0C2B     		cmp	r3, #12
 2902 0396 EFD9     		bls	.L166
 2903              	.LBE68:
 432:printer.c     **** 	}
 433:printer.c     ****     PRINTER_A_PutChar(((touch1[6] >> 4) + 0x30));
 2904              		.loc 1 433 0 is_stmt 1
 2905 0398 BF4B     		ldr	r3, .L257+4
 2906 039a 9B79     		ldrb	r3, [r3, #6]	@ zero_extendqisi2
 2907 039c 1B09     		lsrs	r3, r3, #4
 2908 039e DBB2     		uxtb	r3, r3
 2909 03a0 3033     		adds	r3, r3, #48
 2910 03a2 DBB2     		uxtb	r3, r3
 2911 03a4 1846     		mov	r0, r3
 2912 03a6 FFF7FEFF 		bl	PRINTER_A_PutChar
 434:printer.c     ****     PRINTER_A_PutChar(((touch1[6] & 0x0F) + 0x30));
 2913              		.loc 1 434 0
 2914 03aa BB4B     		ldr	r3, .L257+4
 2915 03ac 9B79     		ldrb	r3, [r3, #6]	@ zero_extendqisi2
 2916 03ae 03F00F03 		and	r3, r3, #15
 2917 03b2 DBB2     		uxtb	r3, r3
 2918 03b4 3033     		adds	r3, r3, #48
 2919 03b6 DBB2     		uxtb	r3, r3
 2920 03b8 1846     		mov	r0, r3
 2921 03ba FFF7FEFF 		bl	PRINTER_A_PutChar
ARM GAS  C:\Users\Diego\AppData\Local\Temp\ccnYGT0M.s 			page 65


 435:printer.c     ****     PRINTER_A_PutChar('/');
 2922              		.loc 1 435 0
 2923 03be 2F20     		movs	r0, #47
 2924 03c0 FFF7FEFF 		bl	PRINTER_A_PutChar
 436:printer.c     ****     PRINTER_A_PutChar(((touch1[7] >> 4) + 0x30)) ;
 2925              		.loc 1 436 0
 2926 03c4 B44B     		ldr	r3, .L257+4
 2927 03c6 DB79     		ldrb	r3, [r3, #7]	@ zero_extendqisi2
 2928 03c8 1B09     		lsrs	r3, r3, #4
 2929 03ca DBB2     		uxtb	r3, r3
 2930 03cc 3033     		adds	r3, r3, #48
 2931 03ce DBB2     		uxtb	r3, r3
 2932 03d0 1846     		mov	r0, r3
 2933 03d2 FFF7FEFF 		bl	PRINTER_A_PutChar
 437:printer.c     ****     PRINTER_A_PutChar(((touch1[7] & 0x0F) + 0x30));
 2934              		.loc 1 437 0
 2935 03d6 B04B     		ldr	r3, .L257+4
 2936 03d8 DB79     		ldrb	r3, [r3, #7]	@ zero_extendqisi2
 2937 03da 03F00F03 		and	r3, r3, #15
 2938 03de DBB2     		uxtb	r3, r3
 2939 03e0 3033     		adds	r3, r3, #48
 2940 03e2 DBB2     		uxtb	r3, r3
 2941 03e4 1846     		mov	r0, r3
 2942 03e6 FFF7FEFF 		bl	PRINTER_A_PutChar
 438:printer.c     ****     PRINTER_A_PutChar('/');
 2943              		.loc 1 438 0
 2944 03ea 2F20     		movs	r0, #47
 2945 03ec FFF7FEFF 		bl	PRINTER_A_PutChar
 439:printer.c     ****     PRINTER_A_PutChar(((touch1[8] >> 4) + 0x30)) ;
 2946              		.loc 1 439 0
 2947 03f0 A94B     		ldr	r3, .L257+4
 2948 03f2 1B7A     		ldrb	r3, [r3, #8]	@ zero_extendqisi2
 2949 03f4 1B09     		lsrs	r3, r3, #4
 2950 03f6 DBB2     		uxtb	r3, r3
 2951 03f8 3033     		adds	r3, r3, #48
 2952 03fa DBB2     		uxtb	r3, r3
 2953 03fc 1846     		mov	r0, r3
 2954 03fe FFF7FEFF 		bl	PRINTER_A_PutChar
 440:printer.c     **** 	PRINTER_A_PutChar(((touch1[8] & 0x0F) + 0x30));
 2955              		.loc 1 440 0
 2956 0402 A54B     		ldr	r3, .L257+4
 2957 0404 1B7A     		ldrb	r3, [r3, #8]	@ zero_extendqisi2
 2958 0406 03F00F03 		and	r3, r3, #15
 2959 040a DBB2     		uxtb	r3, r3
 2960 040c 3033     		adds	r3, r3, #48
 2961 040e DBB2     		uxtb	r3, r3
 2962 0410 1846     		mov	r0, r3
 2963 0412 FFF7FEFF 		bl	PRINTER_A_PutChar
 441:printer.c     **** 
 442:printer.c     **** 	PRINTER_A_PutChar(LINE_FEED);
 2964              		.loc 1 442 0
 2965 0416 A14B     		ldr	r3, .L257+8
 2966 0418 1B78     		ldrb	r3, [r3]	@ zero_extendqisi2
 2967 041a 1846     		mov	r0, r3
 2968 041c FFF7FEFF 		bl	PRINTER_A_PutChar
 2969              	.LBB69:
 443:printer.c     ****     /********** HORA ***************/
ARM GAS  C:\Users\Diego\AppData\Local\Temp\ccnYGT0M.s 			page 66


 444:printer.c     **** 	for(uint8 x = 0; x < 13; x ++){
 2970              		.loc 1 444 0
 2971 0420 0023     		movs	r3, #0
 2972 0422 87F86430 		strb	r3, [r7, #100]
 2973 0426 0BE0     		b	.L167
 2974              	.L168:
 445:printer.c     **** 		PRINTER_A_PutChar(msn_hora[x]);
 2975              		.loc 1 445 0 discriminator 3
 2976 0428 97F86430 		ldrb	r3, [r7, #100]	@ zero_extendqisi2
 2977 042c 9C4A     		ldr	r2, .L257+12
 2978 042e D35C     		ldrb	r3, [r2, r3]	@ zero_extendqisi2
 2979 0430 1846     		mov	r0, r3
 2980 0432 FFF7FEFF 		bl	PRINTER_A_PutChar
 444:printer.c     **** 		PRINTER_A_PutChar(msn_hora[x]);
 2981              		.loc 1 444 0 discriminator 3
 2982 0436 97F86430 		ldrb	r3, [r7, #100]	@ zero_extendqisi2
 2983 043a 0133     		adds	r3, r3, #1
 2984 043c 87F86430 		strb	r3, [r7, #100]
 2985              	.L167:
 444:printer.c     **** 		PRINTER_A_PutChar(msn_hora[x]);
 2986              		.loc 1 444 0 is_stmt 0 discriminator 1
 2987 0440 97F86430 		ldrb	r3, [r7, #100]	@ zero_extendqisi2
 2988 0444 0C2B     		cmp	r3, #12
 2989 0446 EFD9     		bls	.L168
 2990              	.LBE69:
 446:printer.c     **** 	}
 447:printer.c     ****     PRINTER_A_PutChar(((touch1[10] >> 4) + 0x30)) ;
 2991              		.loc 1 447 0 is_stmt 1
 2992 0448 934B     		ldr	r3, .L257+4
 2993 044a 9B7A     		ldrb	r3, [r3, #10]	@ zero_extendqisi2
 2994 044c 1B09     		lsrs	r3, r3, #4
 2995 044e DBB2     		uxtb	r3, r3
 2996 0450 3033     		adds	r3, r3, #48
 2997 0452 DBB2     		uxtb	r3, r3
 2998 0454 1846     		mov	r0, r3
 2999 0456 FFF7FEFF 		bl	PRINTER_A_PutChar
 448:printer.c     ****     PRINTER_A_PutChar(((touch1[10] & 0x0F) + 0x30));
 3000              		.loc 1 448 0
 3001 045a 8F4B     		ldr	r3, .L257+4
 3002 045c 9B7A     		ldrb	r3, [r3, #10]	@ zero_extendqisi2
 3003 045e 03F00F03 		and	r3, r3, #15
 3004 0462 DBB2     		uxtb	r3, r3
 3005 0464 3033     		adds	r3, r3, #48
 3006 0466 DBB2     		uxtb	r3, r3
 3007 0468 1846     		mov	r0, r3
 3008 046a FFF7FEFF 		bl	PRINTER_A_PutChar
 449:printer.c     ****     PRINTER_A_PutChar(':');
 3009              		.loc 1 449 0
 3010 046e 3A20     		movs	r0, #58
 3011 0470 FFF7FEFF 		bl	PRINTER_A_PutChar
 450:printer.c     ****     PRINTER_A_PutChar(((touch1[11] >> 4) + 0x30)) ;
 3012              		.loc 1 450 0
 3013 0474 884B     		ldr	r3, .L257+4
 3014 0476 DB7A     		ldrb	r3, [r3, #11]	@ zero_extendqisi2
 3015 0478 1B09     		lsrs	r3, r3, #4
 3016 047a DBB2     		uxtb	r3, r3
 3017 047c 3033     		adds	r3, r3, #48
ARM GAS  C:\Users\Diego\AppData\Local\Temp\ccnYGT0M.s 			page 67


 3018 047e DBB2     		uxtb	r3, r3
 3019 0480 1846     		mov	r0, r3
 3020 0482 FFF7FEFF 		bl	PRINTER_A_PutChar
 451:printer.c     ****     PRINTER_A_PutChar(((touch1[11] & 0x0F) + 0x30));
 3021              		.loc 1 451 0
 3022 0486 844B     		ldr	r3, .L257+4
 3023 0488 DB7A     		ldrb	r3, [r3, #11]	@ zero_extendqisi2
 3024 048a 03F00F03 		and	r3, r3, #15
 3025 048e DBB2     		uxtb	r3, r3
 3026 0490 3033     		adds	r3, r3, #48
 3027 0492 DBB2     		uxtb	r3, r3
 3028 0494 1846     		mov	r0, r3
 3029 0496 FFF7FEFF 		bl	PRINTER_A_PutChar
 452:printer.c     ****     PRINTER_A_PutChar(':');
 3030              		.loc 1 452 0
 3031 049a 3A20     		movs	r0, #58
 3032 049c FFF7FEFF 		bl	PRINTER_A_PutChar
 453:printer.c     ****     PRINTER_A_PutChar(((touch1[12] >> 4) + 0x30));
 3033              		.loc 1 453 0
 3034 04a0 7D4B     		ldr	r3, .L257+4
 3035 04a2 1B7B     		ldrb	r3, [r3, #12]	@ zero_extendqisi2
 3036 04a4 1B09     		lsrs	r3, r3, #4
 3037 04a6 DBB2     		uxtb	r3, r3
 3038 04a8 3033     		adds	r3, r3, #48
 3039 04aa DBB2     		uxtb	r3, r3
 3040 04ac 1846     		mov	r0, r3
 3041 04ae FFF7FEFF 		bl	PRINTER_A_PutChar
 454:printer.c     **** 	PRINTER_A_PutChar(((touch1[12] & 0x0F) + 0x30));
 3042              		.loc 1 454 0
 3043 04b2 794B     		ldr	r3, .L257+4
 3044 04b4 1B7B     		ldrb	r3, [r3, #12]	@ zero_extendqisi2
 3045 04b6 03F00F03 		and	r3, r3, #15
 3046 04ba DBB2     		uxtb	r3, r3
 3047 04bc 3033     		adds	r3, r3, #48
 3048 04be DBB2     		uxtb	r3, r3
 3049 04c0 1846     		mov	r0, r3
 3050 04c2 FFF7FEFF 		bl	PRINTER_A_PutChar
 455:printer.c     ****     PRINTER_A_PutChar(LINE_FEED);
 3051              		.loc 1 455 0
 3052 04c6 754B     		ldr	r3, .L257+8
 3053 04c8 1B78     		ldrb	r3, [r3]	@ zero_extendqisi2
 3054 04ca 1846     		mov	r0, r3
 3055 04cc FFF7FEFF 		bl	PRINTER_A_PutChar
 3056              	.LBB70:
 456:printer.c     ****     for(uint8 x = 0; x < 32; x ++){
 3057              		.loc 1 456 0
 3058 04d0 0023     		movs	r3, #0
 3059 04d2 87F86330 		strb	r3, [r7, #99]
 3060 04d6 0BE0     		b	.L169
 3061              	.L170:
 457:printer.c     **** 		PRINTER_A_PutChar(SEPARATOR[x]);
 3062              		.loc 1 457 0 discriminator 3
 3063 04d8 97F86330 		ldrb	r3, [r7, #99]	@ zero_extendqisi2
 3064 04dc 714A     		ldr	r2, .L257+16
 3065 04de D35C     		ldrb	r3, [r2, r3]	@ zero_extendqisi2
 3066 04e0 1846     		mov	r0, r3
 3067 04e2 FFF7FEFF 		bl	PRINTER_A_PutChar
ARM GAS  C:\Users\Diego\AppData\Local\Temp\ccnYGT0M.s 			page 68


 456:printer.c     ****     for(uint8 x = 0; x < 32; x ++){
 3068              		.loc 1 456 0 discriminator 3
 3069 04e6 97F86330 		ldrb	r3, [r7, #99]	@ zero_extendqisi2
 3070 04ea 0133     		adds	r3, r3, #1
 3071 04ec 87F86330 		strb	r3, [r7, #99]
 3072              	.L169:
 456:printer.c     ****     for(uint8 x = 0; x < 32; x ++){
 3073              		.loc 1 456 0 is_stmt 0 discriminator 1
 3074 04f0 97F86330 		ldrb	r3, [r7, #99]	@ zero_extendqisi2
 3075 04f4 1F2B     		cmp	r3, #31
 3076 04f6 EFD9     		bls	.L170
 3077              	.LBE70:
 458:printer.c     **** 	} 
 459:printer.c     ****     PRINTER_A_PutChar(LINE_FEED);
 3078              		.loc 1 459 0 is_stmt 1
 3079 04f8 684B     		ldr	r3, .L257+8
 3080 04fa 1B78     		ldrb	r3, [r3]	@ zero_extendqisi2
 3081 04fc 1846     		mov	r0, r3
 3082 04fe FFF7FEFF 		bl	PRINTER_A_PutChar
 3083              	.LBB71:
 460:printer.c     ****     ////////////////////////////////////////
 461:printer.c     **** 	for(uint8 x = 0; x < 13; x ++){
 3084              		.loc 1 461 0
 3085 0502 0023     		movs	r3, #0
 3086 0504 87F86230 		strb	r3, [r7, #98]
 3087 0508 0BE0     		b	.L171
 3088              	.L172:
 462:printer.c     **** 		PRINTER_A_PutChar(msn_cierre[x]);
 3089              		.loc 1 462 0 discriminator 3
 3090 050a 97F86230 		ldrb	r3, [r7, #98]	@ zero_extendqisi2
 3091 050e 664A     		ldr	r2, .L257+20
 3092 0510 D35C     		ldrb	r3, [r2, r3]	@ zero_extendqisi2
 3093 0512 1846     		mov	r0, r3
 3094 0514 FFF7FEFF 		bl	PRINTER_A_PutChar
 461:printer.c     **** 		PRINTER_A_PutChar(msn_cierre[x]);
 3095              		.loc 1 461 0 discriminator 3
 3096 0518 97F86230 		ldrb	r3, [r7, #98]	@ zero_extendqisi2
 3097 051c 0133     		adds	r3, r3, #1
 3098 051e 87F86230 		strb	r3, [r7, #98]
 3099              	.L171:
 461:printer.c     **** 		PRINTER_A_PutChar(msn_cierre[x]);
 3100              		.loc 1 461 0 is_stmt 0 discriminator 1
 3101 0522 97F86230 		ldrb	r3, [r7, #98]	@ zero_extendqisi2
 3102 0526 0C2B     		cmp	r3, #12
 3103 0528 EFD9     		bls	.L172
 3104              	.LBE71:
 3105              	.LBB72:
 463:printer.c     **** 	}     
 464:printer.c     **** 	for(uint8 x = 5; x > 0; x --){
 3106              		.loc 1 464 0 is_stmt 1
 3107 052a 0523     		movs	r3, #5
 3108 052c 87F86130 		strb	r3, [r7, #97]
 3109 0530 0BE0     		b	.L173
 3110              	.L174:
 465:printer.c     **** 		PRINTER_A_PutChar(shift_number[x]);   //Nmero de cierre
 3111              		.loc 1 465 0 discriminator 3
 3112 0532 97F86130 		ldrb	r3, [r7, #97]	@ zero_extendqisi2
ARM GAS  C:\Users\Diego\AppData\Local\Temp\ccnYGT0M.s 			page 69


 3113 0536 5D4A     		ldr	r2, .L257+24
 3114 0538 D35C     		ldrb	r3, [r2, r3]	@ zero_extendqisi2
 3115 053a 1846     		mov	r0, r3
 3116 053c FFF7FEFF 		bl	PRINTER_A_PutChar
 464:printer.c     **** 		PRINTER_A_PutChar(shift_number[x]);   //Nmero de cierre
 3117              		.loc 1 464 0 discriminator 3
 3118 0540 97F86130 		ldrb	r3, [r7, #97]	@ zero_extendqisi2
 3119 0544 013B     		subs	r3, r3, #1
 3120 0546 87F86130 		strb	r3, [r7, #97]
 3121              	.L173:
 464:printer.c     **** 		PRINTER_A_PutChar(shift_number[x]);   //Nmero de cierre
 3122              		.loc 1 464 0 is_stmt 0 discriminator 1
 3123 054a 97F86130 		ldrb	r3, [r7, #97]	@ zero_extendqisi2
 3124 054e 002B     		cmp	r3, #0
 3125 0550 EFD1     		bne	.L174
 3126              	.LBE72:
 466:printer.c     **** 	}
 467:printer.c     **** 	PRINTER_A_PutChar(LINE_FEED);
 3127              		.loc 1 467 0 is_stmt 1
 3128 0552 524B     		ldr	r3, .L257+8
 3129 0554 1B78     		ldrb	r3, [r3]	@ zero_extendqisi2
 3130 0556 1846     		mov	r0, r3
 3131 0558 FFF7FEFF 		bl	PRINTER_A_PutChar
 468:printer.c     ****     PRINTER_A_PutChar(LINE_FEED);
 3132              		.loc 1 468 0
 3133 055c 4F4B     		ldr	r3, .L257+8
 3134 055e 1B78     		ldrb	r3, [r3]	@ zero_extendqisi2
 3135 0560 1846     		mov	r0, r3
 3136 0562 FFF7FEFF 		bl	PRINTER_A_PutChar
 3137              	.LBB73:
 469:printer.c     ****     for(uint8 x = 0; x < 13; x ++){
 3138              		.loc 1 469 0
 3139 0566 0023     		movs	r3, #0
 3140 0568 87F86030 		strb	r3, [r7, #96]
 3141 056c 0BE0     		b	.L175
 3142              	.L176:
 470:printer.c     ****         PRINTER_A_PutChar(msn_pos[x]);
 3143              		.loc 1 470 0 discriminator 3
 3144 056e 97F86030 		ldrb	r3, [r7, #96]	@ zero_extendqisi2
 3145 0572 4F4A     		ldr	r2, .L257+28
 3146 0574 D35C     		ldrb	r3, [r2, r3]	@ zero_extendqisi2
 3147 0576 1846     		mov	r0, r3
 3148 0578 FFF7FEFF 		bl	PRINTER_A_PutChar
 469:printer.c     ****     for(uint8 x = 0; x < 13; x ++){
 3149              		.loc 1 469 0 discriminator 3
 3150 057c 97F86030 		ldrb	r3, [r7, #96]	@ zero_extendqisi2
 3151 0580 0133     		adds	r3, r3, #1
 3152 0582 87F86030 		strb	r3, [r7, #96]
 3153              	.L175:
 469:printer.c     ****     for(uint8 x = 0; x < 13; x ++){
 3154              		.loc 1 469 0 is_stmt 0 discriminator 1
 3155 0586 97F86030 		ldrb	r3, [r7, #96]	@ zero_extendqisi2
 3156 058a 0C2B     		cmp	r3, #12
 3157 058c EFD9     		bls	.L176
 3158              	.LBE73:
 471:printer.c     ****     }
 472:printer.c     ****     PRINTER_A_PutChar(side.a.dir + 0x31);
ARM GAS  C:\Users\Diego\AppData\Local\Temp\ccnYGT0M.s 			page 70


 3159              		.loc 1 472 0 is_stmt 1
 3160 058e 494B     		ldr	r3, .L257+32
 3161 0590 1B78     		ldrb	r3, [r3]	@ zero_extendqisi2
 3162 0592 3133     		adds	r3, r3, #49
 3163 0594 DBB2     		uxtb	r3, r3
 3164 0596 1846     		mov	r0, r3
 3165 0598 FFF7FEFF 		bl	PRINTER_A_PutChar
 473:printer.c     ****     PRINTER_A_PutChar(LINE_FEED);
 3166              		.loc 1 473 0
 3167 059c 3F4B     		ldr	r3, .L257+8
 3168 059e 1B78     		ldrb	r3, [r3]	@ zero_extendqisi2
 3169 05a0 1846     		mov	r0, r3
 3170 05a2 FFF7FEFF 		bl	PRINTER_A_PutChar
 3171              	.LBB74:
 474:printer.c     **** 	for(uint8 x = 0; x < 16; x ++){
 3172              		.loc 1 474 0
 3173 05a6 0023     		movs	r3, #0
 3174 05a8 87F85F30 		strb	r3, [r7, #95]
 3175 05ac 0BE0     		b	.L177
 3176              	.L178:
 475:printer.c     **** 		PRINTER_A_PutChar(msn_lecact[x]);
 3177              		.loc 1 475 0 discriminator 3
 3178 05ae 97F85F30 		ldrb	r3, [r7, #95]	@ zero_extendqisi2
 3179 05b2 414A     		ldr	r2, .L257+36
 3180 05b4 D35C     		ldrb	r3, [r2, r3]	@ zero_extendqisi2
 3181 05b6 1846     		mov	r0, r3
 3182 05b8 FFF7FEFF 		bl	PRINTER_A_PutChar
 474:printer.c     **** 	for(uint8 x = 0; x < 16; x ++){
 3183              		.loc 1 474 0 discriminator 3
 3184 05bc 97F85F30 		ldrb	r3, [r7, #95]	@ zero_extendqisi2
 3185 05c0 0133     		adds	r3, r3, #1
 3186 05c2 87F85F30 		strb	r3, [r7, #95]
 3187              	.L177:
 474:printer.c     **** 	for(uint8 x = 0; x < 16; x ++){
 3188              		.loc 1 474 0 is_stmt 0 discriminator 1
 3189 05c6 97F85F30 		ldrb	r3, [r7, #95]	@ zero_extendqisi2
 3190 05ca 0F2B     		cmp	r3, #15
 3191 05cc EFD9     		bls	.L178
 3192              	.LBE74:
 476:printer.c     **** 	}
 477:printer.c     **** 	PRINTER_A_PutChar(LINE_FEED);	
 3193              		.loc 1 477 0 is_stmt 1
 3194 05ce 334B     		ldr	r3, .L257+8
 3195 05d0 1B78     		ldrb	r3, [r3]	@ zero_extendqisi2
 3196 05d2 1846     		mov	r0, r3
 3197 05d4 FFF7FEFF 		bl	PRINTER_A_PutChar
 3198              	.LBB75:
 478:printer.c     ****                           
 479:printer.c     ****     for(uint8 x = 0; x < 10; x ++){ 
 3199              		.loc 1 479 0
 3200 05d8 0023     		movs	r3, #0
 3201 05da 87F85E30 		strb	r3, [r7, #94]
 3202 05de 18E0     		b	.L179
 3203              	.L181:
 480:printer.c     ****         if((10-x) == DecVol)
 3204              		.loc 1 480 0
 3205 05e0 97F85E30 		ldrb	r3, [r7, #94]	@ zero_extendqisi2
ARM GAS  C:\Users\Diego\AppData\Local\Temp\ccnYGT0M.s 			page 71


 3206 05e4 C3F10A03 		rsb	r3, r3, #10
 3207 05e8 344A     		ldr	r2, .L257+40
 3208 05ea 1278     		ldrb	r2, [r2]	@ zero_extendqisi2
 3209 05ec 9342     		cmp	r3, r2
 3210 05ee 02D1     		bne	.L180
 481:printer.c     ****             PRINTER_A_PutChar('.');
 3211              		.loc 1 481 0
 3212 05f0 2E20     		movs	r0, #46
 3213 05f2 FFF7FEFF 		bl	PRINTER_A_PutChar
 3214              	.L180:
 482:printer.c     ****         PRINTER_A_PutChar(side.a.ProcessedTotals[0][0][x]);
 3215              		.loc 1 482 0 discriminator 2
 3216 05f6 97F85E30 		ldrb	r3, [r7, #94]	@ zero_extendqisi2
 3217 05fa 2E4A     		ldr	r2, .L257+32
 3218 05fc 1344     		add	r3, r3, r2
 3219 05fe 93F88330 		ldrb	r3, [r3, #131]	@ zero_extendqisi2
 3220 0602 1846     		mov	r0, r3
 3221 0604 FFF7FEFF 		bl	PRINTER_A_PutChar
 479:printer.c     ****         if((10-x) == DecVol)
 3222              		.loc 1 479 0 discriminator 2
 3223 0608 97F85E30 		ldrb	r3, [r7, #94]	@ zero_extendqisi2
 3224 060c 0133     		adds	r3, r3, #1
 3225 060e 87F85E30 		strb	r3, [r7, #94]
 3226              	.L179:
 479:printer.c     ****         if((10-x) == DecVol)
 3227              		.loc 1 479 0 is_stmt 0 discriminator 1
 3228 0612 97F85E30 		ldrb	r3, [r7, #94]	@ zero_extendqisi2
 3229 0616 092B     		cmp	r3, #9
 3230 0618 E2D9     		bls	.L181
 3231              	.LBE75:
 483:printer.c     ****     }
 484:printer.c     ****     PRINTER_A_PutChar(LINE_FEED);
 3232              		.loc 1 484 0 is_stmt 1
 3233 061a 204B     		ldr	r3, .L257+8
 3234 061c 1B78     		ldrb	r3, [r3]	@ zero_extendqisi2
 3235 061e 1846     		mov	r0, r3
 3236 0620 FFF7FEFF 		bl	PRINTER_A_PutChar
 3237              	.LBB76:
 485:printer.c     ****     for(uint8 x = 0; x < 10; x++){
 3238              		.loc 1 485 0
 3239 0624 0023     		movs	r3, #0
 3240 0626 87F85D30 		strb	r3, [r7, #93]
 3241 062a 10E0     		b	.L182
 3242              	.L185:
 486:printer.c     ****         pos = x;
 3243              		.loc 1 486 0
 3244 062c 97F85D30 		ldrb	r3, [r7, #93]
 3245 0630 87F86E30 		strb	r3, [r7, #110]
 487:printer.c     ****         if(side.a.ProcessedTotals[0][0][x] != 0x00 )
 3246              		.loc 1 487 0
 3247 0634 97F85D30 		ldrb	r3, [r7, #93]	@ zero_extendqisi2
 3248 0638 1E4A     		ldr	r2, .L257+32
 3249 063a 1344     		add	r3, r3, r2
 3250 063c 93F88330 		ldrb	r3, [r3, #131]	@ zero_extendqisi2
 3251 0640 002B     		cmp	r3, #0
 3252 0642 09D1     		bne	.L254
 485:printer.c     ****     for(uint8 x = 0; x < 10; x++){
ARM GAS  C:\Users\Diego\AppData\Local\Temp\ccnYGT0M.s 			page 72


 3253              		.loc 1 485 0 discriminator 2
 3254 0644 97F85D30 		ldrb	r3, [r7, #93]	@ zero_extendqisi2
 3255 0648 0133     		adds	r3, r3, #1
 3256 064a 87F85D30 		strb	r3, [r7, #93]
 3257              	.L182:
 485:printer.c     ****     for(uint8 x = 0; x < 10; x++){
 3258              		.loc 1 485 0 is_stmt 0 discriminator 1
 3259 064e 97F85D30 		ldrb	r3, [r7, #93]	@ zero_extendqisi2
 3260 0652 092B     		cmp	r3, #9
 3261 0654 EAD9     		bls	.L185
 3262 0656 00E0     		b	.L184
 3263              	.L254:
 488:printer.c     ****             break;
 3264              		.loc 1 488 0 is_stmt 1
 3265 0658 00BF     		nop
 3266              	.L184:
 3267              	.LBE76:
 3268              	.LBB77:
 489:printer.c     ****     }
 490:printer.c     **** 	for(uint8 x = 0; x < 16; x ++){
 3269              		.loc 1 490 0
 3270 065a 0023     		movs	r3, #0
 3271 065c 87F85C30 		strb	r3, [r7, #92]
 3272 0660 0BE0     		b	.L186
 3273              	.L187:
 491:printer.c     **** 		PRINTER_A_PutChar(msn_lecaan[x]);
 3274              		.loc 1 491 0 discriminator 3
 3275 0662 97F85C30 		ldrb	r3, [r7, #92]	@ zero_extendqisi2
 3276 0666 164A     		ldr	r2, .L257+44
 3277 0668 D35C     		ldrb	r3, [r2, r3]	@ zero_extendqisi2
 3278 066a 1846     		mov	r0, r3
 3279 066c FFF7FEFF 		bl	PRINTER_A_PutChar
 490:printer.c     **** 		PRINTER_A_PutChar(msn_lecaan[x]);
 3280              		.loc 1 490 0 discriminator 3
 3281 0670 97F85C30 		ldrb	r3, [r7, #92]	@ zero_extendqisi2
 3282 0674 0133     		adds	r3, r3, #1
 3283 0676 87F85C30 		strb	r3, [r7, #92]
 3284              	.L186:
 490:printer.c     **** 		PRINTER_A_PutChar(msn_lecaan[x]);
 3285              		.loc 1 490 0 is_stmt 0 discriminator 1
 3286 067a 97F85C30 		ldrb	r3, [r7, #92]	@ zero_extendqisi2
 3287 067e 0F2B     		cmp	r3, #15
 3288 0680 EFD9     		bls	.L187
 3289              	.LBE77:
 492:printer.c     **** 	}
 493:printer.c     ****     PRINTER_A_PutChar(LINE_FEED);
 3290              		.loc 1 493 0 is_stmt 1
 3291 0682 064B     		ldr	r3, .L257+8
 3292 0684 1B78     		ldrb	r3, [r3]	@ zero_extendqisi2
 3293 0686 1846     		mov	r0, r3
 3294 0688 FFF7FEFF 		bl	PRINTER_A_PutChar
 3295              	.LBB78:
 494:printer.c     ****     for(uint8 x = 0; x < 10; x ++){
 3296              		.loc 1 494 0
 3297 068c 0023     		movs	r3, #0
 3298 068e 87F85B30 		strb	r3, [r7, #91]
 3299 0692 2DE0     		b	.L188
ARM GAS  C:\Users\Diego\AppData\Local\Temp\ccnYGT0M.s 			page 73


 3300              	.L258:
 3301              		.align	2
 3302              	.L257:
 3303 0694 00000000 		.word	msn_fecha
 3304 0698 00000000 		.word	touch1
 3305 069c 00000000 		.word	LINE_FEED
 3306 06a0 00000000 		.word	msn_hora
 3307 06a4 00000000 		.word	SEPARATOR
 3308 06a8 00000000 		.word	msn_cierre
 3309 06ac 00000000 		.word	shift_number
 3310 06b0 00000000 		.word	msn_pos
 3311 06b4 00000000 		.word	side
 3312 06b8 00000000 		.word	msn_lecact
 3313 06bc 00000000 		.word	DecVol
 3314 06c0 00000000 		.word	msn_lecaan
 3315              	.L189:
 495:printer.c     ****         memoria[x] = EEPROM_1_ReadByte(36+x);
 3316              		.loc 1 495 0 discriminator 3
 3317 06c4 97F85B40 		ldrb	r4, [r7, #91]	@ zero_extendqisi2
 3318 06c8 97F85B30 		ldrb	r3, [r7, #91]	@ zero_extendqisi2
 3319 06cc 9BB2     		uxth	r3, r3
 3320 06ce 2433     		adds	r3, r3, #36
 3321 06d0 9BB2     		uxth	r3, r3
 3322 06d2 1846     		mov	r0, r3
 3323 06d4 FFF7FEFF 		bl	EEPROM_1_ReadByte
 3324 06d8 0346     		mov	r3, r0
 3325 06da 1A46     		mov	r2, r3
 3326 06dc 07F17003 		add	r3, r7, #112
 3327 06e0 2344     		add	r3, r3, r4
 3328 06e2 03F8642C 		strb	r2, [r3, #-100]
 494:printer.c     ****     for(uint8 x = 0; x < 10; x ++){
 3329              		.loc 1 494 0 discriminator 3
 3330 06e6 97F85B30 		ldrb	r3, [r7, #91]	@ zero_extendqisi2
 3331 06ea 0133     		adds	r3, r3, #1
 3332 06ec 87F85B30 		strb	r3, [r7, #91]
 3333              	.L188:
 494:printer.c     ****     for(uint8 x = 0; x < 10; x ++){
 3334              		.loc 1 494 0 is_stmt 0 discriminator 1
 3335 06f0 97F85B30 		ldrb	r3, [r7, #91]	@ zero_extendqisi2
 3336 06f4 092B     		cmp	r3, #9
 3337 06f6 E5D9     		bls	.L189
 3338              	.LBE78:
 3339              	.LBB79:
 496:printer.c     ****     }
 497:printer.c     ****     for(uint8 x = 0; x < 10; x ++){ 
 3340              		.loc 1 497 0 is_stmt 1
 3341 06f8 0023     		movs	r3, #0
 3342 06fa 87F85A30 		strb	r3, [r7, #90]
 3343 06fe 19E0     		b	.L190
 3344              	.L192:
 498:printer.c     ****         if((10-x) == DecVol)
 3345              		.loc 1 498 0
 3346 0700 97F85A30 		ldrb	r3, [r7, #90]	@ zero_extendqisi2
 3347 0704 C3F10A03 		rsb	r3, r3, #10
 3348 0708 C44A     		ldr	r2, .L259
 3349 070a 1278     		ldrb	r2, [r2]	@ zero_extendqisi2
 3350 070c 9342     		cmp	r3, r2
ARM GAS  C:\Users\Diego\AppData\Local\Temp\ccnYGT0M.s 			page 74


 3351 070e 02D1     		bne	.L191
 499:printer.c     ****             PRINTER_A_PutChar('.');
 3352              		.loc 1 499 0
 3353 0710 2E20     		movs	r0, #46
 3354 0712 FFF7FEFF 		bl	PRINTER_A_PutChar
 3355              	.L191:
 500:printer.c     ****         PRINTER_A_PutChar(memoria[x]);
 3356              		.loc 1 500 0 discriminator 2
 3357 0716 97F85A30 		ldrb	r3, [r7, #90]	@ zero_extendqisi2
 3358 071a 07F17002 		add	r2, r7, #112
 3359 071e 1344     		add	r3, r3, r2
 3360 0720 13F8643C 		ldrb	r3, [r3, #-100]	@ zero_extendqisi2
 3361 0724 1846     		mov	r0, r3
 3362 0726 FFF7FEFF 		bl	PRINTER_A_PutChar
 497:printer.c     ****         if((10-x) == DecVol)
 3363              		.loc 1 497 0 discriminator 2
 3364 072a 97F85A30 		ldrb	r3, [r7, #90]	@ zero_extendqisi2
 3365 072e 0133     		adds	r3, r3, #1
 3366 0730 87F85A30 		strb	r3, [r7, #90]
 3367              	.L190:
 497:printer.c     ****         if((10-x) == DecVol)
 3368              		.loc 1 497 0 is_stmt 0 discriminator 1
 3369 0734 97F85A30 		ldrb	r3, [r7, #90]	@ zero_extendqisi2
 3370 0738 092B     		cmp	r3, #9
 3371 073a E1D9     		bls	.L192
 3372              	.LBE79:
 501:printer.c     ****     }
 502:printer.c     ****     PRINTER_A_PutChar(LINE_FEED);
 3373              		.loc 1 502 0 is_stmt 1
 3374 073c B84B     		ldr	r3, .L259+4
 3375 073e 1B78     		ldrb	r3, [r3]	@ zero_extendqisi2
 3376 0740 1846     		mov	r0, r3
 3377 0742 FFF7FEFF 		bl	PRINTER_A_PutChar
 3378              	.LBB80:
 503:printer.c     ****     
 504:printer.c     ****     for(uint8 x = pos; x < 10; x++ ){
 3379              		.loc 1 504 0
 3380 0746 97F86E30 		ldrb	r3, [r7, #110]
 3381 074a 87F85930 		strb	r3, [r7, #89]
 3382 074e 2DE0     		b	.L193
 3383              	.L194:
 505:printer.c     ****         lectactual[x-pos] = side.a.ProcessedTotals[0][0][x];
 3384              		.loc 1 505 0 discriminator 3
 3385 0750 97F85920 		ldrb	r2, [r7, #89]	@ zero_extendqisi2
 3386 0754 97F86E30 		ldrb	r3, [r7, #110]	@ zero_extendqisi2
 3387 0758 D31A     		subs	r3, r2, r3
 3388 075a 97F85920 		ldrb	r2, [r7, #89]	@ zero_extendqisi2
 3389 075e B149     		ldr	r1, .L259+8
 3390 0760 0A44     		add	r2, r2, r1
 3391 0762 92F88320 		ldrb	r2, [r2, #131]	@ zero_extendqisi2
 3392 0766 07F17001 		add	r1, r7, #112
 3393 076a 0B44     		add	r3, r3, r1
 3394 076c 03F8582C 		strb	r2, [r3, #-88]
 506:printer.c     ****         lectanterior[x-pos] = memoria[x];
 3395              		.loc 1 506 0 discriminator 3
 3396 0770 97F85920 		ldrb	r2, [r7, #89]	@ zero_extendqisi2
 3397 0774 97F86E30 		ldrb	r3, [r7, #110]	@ zero_extendqisi2
ARM GAS  C:\Users\Diego\AppData\Local\Temp\ccnYGT0M.s 			page 75


 3398 0778 D31A     		subs	r3, r2, r3
 3399 077a 97F85920 		ldrb	r2, [r7, #89]	@ zero_extendqisi2
 3400 077e 07F17001 		add	r1, r7, #112
 3401 0782 0A44     		add	r2, r2, r1
 3402 0784 12F8642C 		ldrb	r2, [r2, #-100]	@ zero_extendqisi2
 3403 0788 07F17001 		add	r1, r7, #112
 3404 078c 0B44     		add	r3, r3, r1
 3405 078e 03F84C2C 		strb	r2, [r3, #-76]
 507:printer.c     ****         resultado[x] = 0x00;
 3406              		.loc 1 507 0 discriminator 3
 3407 0792 97F85930 		ldrb	r3, [r7, #89]	@ zero_extendqisi2
 3408 0796 07F17002 		add	r2, r7, #112
 3409 079a 1344     		add	r3, r3, r2
 3410 079c 0022     		movs	r2, #0
 3411 079e 03F8702C 		strb	r2, [r3, #-112]
 504:printer.c     ****         lectactual[x-pos] = side.a.ProcessedTotals[0][0][x];
 3412              		.loc 1 504 0 discriminator 3
 3413 07a2 97F85930 		ldrb	r3, [r7, #89]	@ zero_extendqisi2
 3414 07a6 0133     		adds	r3, r3, #1
 3415 07a8 87F85930 		strb	r3, [r7, #89]
 3416              	.L193:
 504:printer.c     ****         lectactual[x-pos] = side.a.ProcessedTotals[0][0][x];
 3417              		.loc 1 504 0 is_stmt 0 discriminator 1
 3418 07ac 97F85930 		ldrb	r3, [r7, #89]	@ zero_extendqisi2
 3419 07b0 092B     		cmp	r3, #9
 3420 07b2 CDD9     		bls	.L194
 3421              	.LBE80:
 508:printer.c     ****     }
 509:printer.c     ****     
 510:printer.c     ****     anterior = atoi(lectanterior);
 3422              		.loc 1 510 0 is_stmt 1
 3423 07b4 07F12403 		add	r3, r7, #36
 3424 07b8 1846     		mov	r0, r3
 3425 07ba FFF7FEFF 		bl	atoi
 3426 07be 0346     		mov	r3, r0
 3427 07c0 BB63     		str	r3, [r7, #56]
 511:printer.c     ****     actual = atoi(lectactual);
 3428              		.loc 1 511 0
 3429 07c2 07F11803 		add	r3, r7, #24
 3430 07c6 1846     		mov	r0, r3
 3431 07c8 FFF7FEFF 		bl	atoi
 3432 07cc 0346     		mov	r3, r0
 3433 07ce 7B63     		str	r3, [r7, #52]
 512:printer.c     ****     resta =  actual - anterior;
 3434              		.loc 1 512 0
 3435 07d0 7A6B     		ldr	r2, [r7, #52]
 3436 07d2 BB6B     		ldr	r3, [r7, #56]
 3437 07d4 D31A     		subs	r3, r2, r3
 3438 07d6 3B63     		str	r3, [r7, #48]
 513:printer.c     ****     itoa(resta,resultado,10);
 3439              		.loc 1 513 0
 3440 07d8 3B6B     		ldr	r3, [r7, #48]
 3441 07da 3946     		mov	r1, r7
 3442 07dc 0A22     		movs	r2, #10
 3443 07de 1846     		mov	r0, r3
 3444 07e0 FFF7FEFF 		bl	itoa
 3445              	.LBB81:
ARM GAS  C:\Users\Diego\AppData\Local\Temp\ccnYGT0M.s 			page 76


 514:printer.c     ****     
 515:printer.c     ****     for(uint8 x = 0; x < 18; x ++){
 3446              		.loc 1 515 0
 3447 07e4 0023     		movs	r3, #0
 3448 07e6 87F85830 		strb	r3, [r7, #88]
 3449 07ea 0BE0     		b	.L195
 3450              	.L196:
 516:printer.c     ****         PRINTER_A_PutChar(msn_dif[x]);
 3451              		.loc 1 516 0 discriminator 3
 3452 07ec 97F85830 		ldrb	r3, [r7, #88]	@ zero_extendqisi2
 3453 07f0 8D4A     		ldr	r2, .L259+12
 3454 07f2 D35C     		ldrb	r3, [r2, r3]	@ zero_extendqisi2
 3455 07f4 1846     		mov	r0, r3
 3456 07f6 FFF7FEFF 		bl	PRINTER_A_PutChar
 515:printer.c     ****         PRINTER_A_PutChar(msn_dif[x]);
 3457              		.loc 1 515 0 discriminator 3
 3458 07fa 97F85830 		ldrb	r3, [r7, #88]	@ zero_extendqisi2
 3459 07fe 0133     		adds	r3, r3, #1
 3460 0800 87F85830 		strb	r3, [r7, #88]
 3461              	.L195:
 515:printer.c     ****         PRINTER_A_PutChar(msn_dif[x]);
 3462              		.loc 1 515 0 is_stmt 0 discriminator 1
 3463 0804 97F85830 		ldrb	r3, [r7, #88]	@ zero_extendqisi2
 3464 0808 112B     		cmp	r3, #17
 3465 080a EFD9     		bls	.L196
 3466              	.LBE81:
 517:printer.c     ****     }
 518:printer.c     ****     PRINTER_A_PutChar(LINE_FEED);
 3467              		.loc 1 518 0 is_stmt 1
 3468 080c 844B     		ldr	r3, .L259+4
 3469 080e 1B78     		ldrb	r3, [r3]	@ zero_extendqisi2
 3470 0810 1846     		mov	r0, r3
 3471 0812 FFF7FEFF 		bl	PRINTER_A_PutChar
 3472              	.LBB82:
 519:printer.c     ****     for(uint8 x = 0; x < 10; x ++){
 3473              		.loc 1 519 0
 3474 0816 0023     		movs	r3, #0
 3475 0818 87F85730 		strb	r3, [r7, #87]
 3476 081c 19E0     		b	.L197
 3477              	.L199:
 520:printer.c     ****         if((10-x) == DecVol)
 3478              		.loc 1 520 0
 3479 081e 97F85730 		ldrb	r3, [r7, #87]	@ zero_extendqisi2
 3480 0822 C3F10A03 		rsb	r3, r3, #10
 3481 0826 7D4A     		ldr	r2, .L259
 3482 0828 1278     		ldrb	r2, [r2]	@ zero_extendqisi2
 3483 082a 9342     		cmp	r3, r2
 3484 082c 02D1     		bne	.L198
 521:printer.c     ****             PRINTER_A_PutChar('.');
 3485              		.loc 1 521 0
 3486 082e 2E20     		movs	r0, #46
 3487 0830 FFF7FEFF 		bl	PRINTER_A_PutChar
 3488              	.L198:
 522:printer.c     ****         PRINTER_A_PutChar(resultado[x]);
 3489              		.loc 1 522 0 discriminator 2
 3490 0834 97F85730 		ldrb	r3, [r7, #87]	@ zero_extendqisi2
 3491 0838 07F17002 		add	r2, r7, #112
ARM GAS  C:\Users\Diego\AppData\Local\Temp\ccnYGT0M.s 			page 77


 3492 083c 1344     		add	r3, r3, r2
 3493 083e 13F8703C 		ldrb	r3, [r3, #-112]	@ zero_extendqisi2
 3494 0842 1846     		mov	r0, r3
 3495 0844 FFF7FEFF 		bl	PRINTER_A_PutChar
 519:printer.c     ****         if((10-x) == DecVol)
 3496              		.loc 1 519 0 discriminator 2
 3497 0848 97F85730 		ldrb	r3, [r7, #87]	@ zero_extendqisi2
 3498 084c 0133     		adds	r3, r3, #1
 3499 084e 87F85730 		strb	r3, [r7, #87]
 3500              	.L197:
 519:printer.c     ****         if((10-x) == DecVol)
 3501              		.loc 1 519 0 is_stmt 0 discriminator 1
 3502 0852 97F85730 		ldrb	r3, [r7, #87]	@ zero_extendqisi2
 3503 0856 092B     		cmp	r3, #9
 3504 0858 E1D9     		bls	.L199
 3505              	.LBE82:
 523:printer.c     ****     }
 524:printer.c     ****     PRINTER_A_PutChar(LINE_FEED);
 3506              		.loc 1 524 0 is_stmt 1
 3507 085a 714B     		ldr	r3, .L259+4
 3508 085c 1B78     		ldrb	r3, [r3]	@ zero_extendqisi2
 3509 085e 1846     		mov	r0, r3
 3510 0860 FFF7FEFF 		bl	PRINTER_A_PutChar
 3511              	.LBB83:
 525:printer.c     ****     for(uint8 x = 0; x < 32; x ++){
 3512              		.loc 1 525 0
 3513 0864 0023     		movs	r3, #0
 3514 0866 87F85630 		strb	r3, [r7, #86]
 3515 086a 0BE0     		b	.L200
 3516              	.L201:
 526:printer.c     ****         PRINTER_A_PutChar(SEPARATOR[x]);
 3517              		.loc 1 526 0 discriminator 3
 3518 086c 97F85630 		ldrb	r3, [r7, #86]	@ zero_extendqisi2
 3519 0870 6E4A     		ldr	r2, .L259+16
 3520 0872 D35C     		ldrb	r3, [r2, r3]	@ zero_extendqisi2
 3521 0874 1846     		mov	r0, r3
 3522 0876 FFF7FEFF 		bl	PRINTER_A_PutChar
 525:printer.c     ****     for(uint8 x = 0; x < 32; x ++){
 3523              		.loc 1 525 0 discriminator 3
 3524 087a 97F85630 		ldrb	r3, [r7, #86]	@ zero_extendqisi2
 3525 087e 0133     		adds	r3, r3, #1
 3526 0880 87F85630 		strb	r3, [r7, #86]
 3527              	.L200:
 525:printer.c     ****     for(uint8 x = 0; x < 32; x ++){
 3528              		.loc 1 525 0 is_stmt 0 discriminator 1
 3529 0884 97F85630 		ldrb	r3, [r7, #86]	@ zero_extendqisi2
 3530 0888 1F2B     		cmp	r3, #31
 3531 088a EFD9     		bls	.L201
 3532              	.LBE83:
 527:printer.c     ****     }  
 528:printer.c     ****     PRINTER_A_PutChar(LINE_FEED);
 3533              		.loc 1 528 0 is_stmt 1
 3534 088c 644B     		ldr	r3, .L259+4
 3535 088e 1B78     		ldrb	r3, [r3]	@ zero_extendqisi2
 3536 0890 1846     		mov	r0, r3
 3537 0892 FFF7FEFF 		bl	PRINTER_A_PutChar
 3538              	.LBB84:
ARM GAS  C:\Users\Diego\AppData\Local\Temp\ccnYGT0M.s 			page 78


 529:printer.c     ****     for(uint8 x = 0; x < 13; x ++){
 3539              		.loc 1 529 0
 3540 0896 0023     		movs	r3, #0
 3541 0898 87F85530 		strb	r3, [r7, #85]
 3542 089c 0BE0     		b	.L202
 3543              	.L203:
 530:printer.c     ****         PRINTER_A_PutChar(msn_pos[x]);
 3544              		.loc 1 530 0 discriminator 3
 3545 089e 97F85530 		ldrb	r3, [r7, #85]	@ zero_extendqisi2
 3546 08a2 634A     		ldr	r2, .L259+20
 3547 08a4 D35C     		ldrb	r3, [r2, r3]	@ zero_extendqisi2
 3548 08a6 1846     		mov	r0, r3
 3549 08a8 FFF7FEFF 		bl	PRINTER_A_PutChar
 529:printer.c     ****     for(uint8 x = 0; x < 13; x ++){
 3550              		.loc 1 529 0 discriminator 3
 3551 08ac 97F85530 		ldrb	r3, [r7, #85]	@ zero_extendqisi2
 3552 08b0 0133     		adds	r3, r3, #1
 3553 08b2 87F85530 		strb	r3, [r7, #85]
 3554              	.L202:
 529:printer.c     ****     for(uint8 x = 0; x < 13; x ++){
 3555              		.loc 1 529 0 is_stmt 0 discriminator 1
 3556 08b6 97F85530 		ldrb	r3, [r7, #85]	@ zero_extendqisi2
 3557 08ba 0C2B     		cmp	r3, #12
 3558 08bc EFD9     		bls	.L203
 3559              	.LBE84:
 531:printer.c     ****     }
 532:printer.c     ****     PRINTER_A_PutChar(side.b.dir + 0x31);
 3560              		.loc 1 532 0 is_stmt 1
 3561 08be 594B     		ldr	r3, .L259+8
 3562 08c0 93F83531 		ldrb	r3, [r3, #309]	@ zero_extendqisi2
 3563 08c4 3133     		adds	r3, r3, #49
 3564 08c6 DBB2     		uxtb	r3, r3
 3565 08c8 1846     		mov	r0, r3
 3566 08ca FFF7FEFF 		bl	PRINTER_A_PutChar
 533:printer.c     ****     PRINTER_A_PutChar(LINE_FEED);
 3567              		.loc 1 533 0
 3568 08ce 544B     		ldr	r3, .L259+4
 3569 08d0 1B78     		ldrb	r3, [r3]	@ zero_extendqisi2
 3570 08d2 1846     		mov	r0, r3
 3571 08d4 FFF7FEFF 		bl	PRINTER_A_PutChar
 3572              	.LBB85:
 534:printer.c     ****     for(uint8 x = 0; x < 16; x ++){
 3573              		.loc 1 534 0
 3574 08d8 0023     		movs	r3, #0
 3575 08da 87F85430 		strb	r3, [r7, #84]
 3576 08de 0BE0     		b	.L204
 3577              	.L205:
 535:printer.c     **** 		PRINTER_A_PutChar(msn_lecact[x]);
 3578              		.loc 1 535 0 discriminator 3
 3579 08e0 97F85430 		ldrb	r3, [r7, #84]	@ zero_extendqisi2
 3580 08e4 534A     		ldr	r2, .L259+24
 3581 08e6 D35C     		ldrb	r3, [r2, r3]	@ zero_extendqisi2
 3582 08e8 1846     		mov	r0, r3
 3583 08ea FFF7FEFF 		bl	PRINTER_A_PutChar
 534:printer.c     ****     for(uint8 x = 0; x < 16; x ++){
 3584              		.loc 1 534 0 discriminator 3
 3585 08ee 97F85430 		ldrb	r3, [r7, #84]	@ zero_extendqisi2
ARM GAS  C:\Users\Diego\AppData\Local\Temp\ccnYGT0M.s 			page 79


 3586 08f2 0133     		adds	r3, r3, #1
 3587 08f4 87F85430 		strb	r3, [r7, #84]
 3588              	.L204:
 534:printer.c     ****     for(uint8 x = 0; x < 16; x ++){
 3589              		.loc 1 534 0 is_stmt 0 discriminator 1
 3590 08f8 97F85430 		ldrb	r3, [r7, #84]	@ zero_extendqisi2
 3591 08fc 0F2B     		cmp	r3, #15
 3592 08fe EFD9     		bls	.L205
 3593              	.LBE85:
 536:printer.c     **** 	}
 537:printer.c     **** 	PRINTER_A_PutChar(LINE_FEED);
 3594              		.loc 1 537 0 is_stmt 1
 3595 0900 474B     		ldr	r3, .L259+4
 3596 0902 1B78     		ldrb	r3, [r3]	@ zero_extendqisi2
 3597 0904 1846     		mov	r0, r3
 3598 0906 FFF7FEFF 		bl	PRINTER_A_PutChar
 3599              	.LBB86:
 538:printer.c     ****     for(uint8 x = 0; x < 10; x ++){ 
 3600              		.loc 1 538 0
 3601 090a 0023     		movs	r3, #0
 3602 090c 87F85330 		strb	r3, [r7, #83]
 3603 0910 18E0     		b	.L206
 3604              	.L208:
 539:printer.c     ****         if((10-x) == DecVol)
 3605              		.loc 1 539 0
 3606 0912 97F85330 		ldrb	r3, [r7, #83]	@ zero_extendqisi2
 3607 0916 C3F10A03 		rsb	r3, r3, #10
 3608 091a 404A     		ldr	r2, .L259
 3609 091c 1278     		ldrb	r2, [r2]	@ zero_extendqisi2
 3610 091e 9342     		cmp	r3, r2
 3611 0920 02D1     		bne	.L207
 540:printer.c     ****             PRINTER_A_PutChar('.');
 3612              		.loc 1 540 0
 3613 0922 2E20     		movs	r0, #46
 3614 0924 FFF7FEFF 		bl	PRINTER_A_PutChar
 3615              	.L207:
 541:printer.c     ****         PRINTER_A_PutChar(side.b.ProcessedTotals[0][0][x]);
 3616              		.loc 1 541 0 discriminator 2
 3617 0928 97F85330 		ldrb	r3, [r7, #83]	@ zero_extendqisi2
 3618 092c 3D4A     		ldr	r2, .L259+8
 3619 092e 1344     		add	r3, r3, r2
 3620 0930 93F8B831 		ldrb	r3, [r3, #440]	@ zero_extendqisi2
 3621 0934 1846     		mov	r0, r3
 3622 0936 FFF7FEFF 		bl	PRINTER_A_PutChar
 538:printer.c     ****         if((10-x) == DecVol)
 3623              		.loc 1 538 0 discriminator 2
 3624 093a 97F85330 		ldrb	r3, [r7, #83]	@ zero_extendqisi2
 3625 093e 0133     		adds	r3, r3, #1
 3626 0940 87F85330 		strb	r3, [r7, #83]
 3627              	.L206:
 538:printer.c     ****         if((10-x) == DecVol)
 3628              		.loc 1 538 0 is_stmt 0 discriminator 1
 3629 0944 97F85330 		ldrb	r3, [r7, #83]	@ zero_extendqisi2
 3630 0948 092B     		cmp	r3, #9
 3631 094a E2D9     		bls	.L208
 3632              	.LBE86:
 542:printer.c     ****     }
ARM GAS  C:\Users\Diego\AppData\Local\Temp\ccnYGT0M.s 			page 80


 543:printer.c     ****     PRINTER_A_PutChar(LINE_FEED);
 3633              		.loc 1 543 0 is_stmt 1
 3634 094c 344B     		ldr	r3, .L259+4
 3635 094e 1B78     		ldrb	r3, [r3]	@ zero_extendqisi2
 3636 0950 1846     		mov	r0, r3
 3637 0952 FFF7FEFF 		bl	PRINTER_A_PutChar
 3638              	.LBB87:
 544:printer.c     **** 	for(uint8 x = 0; x < 16; x ++){
 3639              		.loc 1 544 0
 3640 0956 0023     		movs	r3, #0
 3641 0958 87F85230 		strb	r3, [r7, #82]
 3642 095c 0BE0     		b	.L209
 3643              	.L210:
 545:printer.c     **** 		PRINTER_A_PutChar(msn_lecaan[x]);
 3644              		.loc 1 545 0 discriminator 3
 3645 095e 97F85230 		ldrb	r3, [r7, #82]	@ zero_extendqisi2
 3646 0962 354A     		ldr	r2, .L259+28
 3647 0964 D35C     		ldrb	r3, [r2, r3]	@ zero_extendqisi2
 3648 0966 1846     		mov	r0, r3
 3649 0968 FFF7FEFF 		bl	PRINTER_A_PutChar
 544:printer.c     **** 	for(uint8 x = 0; x < 16; x ++){
 3650              		.loc 1 544 0 discriminator 3
 3651 096c 97F85230 		ldrb	r3, [r7, #82]	@ zero_extendqisi2
 3652 0970 0133     		adds	r3, r3, #1
 3653 0972 87F85230 		strb	r3, [r7, #82]
 3654              	.L209:
 544:printer.c     **** 	for(uint8 x = 0; x < 16; x ++){
 3655              		.loc 1 544 0 is_stmt 0 discriminator 1
 3656 0976 97F85230 		ldrb	r3, [r7, #82]	@ zero_extendqisi2
 3657 097a 0F2B     		cmp	r3, #15
 3658 097c EFD9     		bls	.L210
 3659              	.LBE87:
 546:printer.c     **** 	}
 547:printer.c     ****     PRINTER_A_PutChar(LINE_FEED);
 3660              		.loc 1 547 0 is_stmt 1
 3661 097e 284B     		ldr	r3, .L259+4
 3662 0980 1B78     		ldrb	r3, [r3]	@ zero_extendqisi2
 3663 0982 1846     		mov	r0, r3
 3664 0984 FFF7FEFF 		bl	PRINTER_A_PutChar
 3665              	.LBB88:
 548:printer.c     ****     for(uint8 x = 0; x < 10; x ++){
 3666              		.loc 1 548 0
 3667 0988 0023     		movs	r3, #0
 3668 098a 87F85130 		strb	r3, [r7, #81]
 3669 098e 15E0     		b	.L211
 3670              	.L212:
 549:printer.c     ****         memoria[x] = EEPROM_1_ReadByte(46+x);
 3671              		.loc 1 549 0 discriminator 3
 3672 0990 97F85140 		ldrb	r4, [r7, #81]	@ zero_extendqisi2
 3673 0994 97F85130 		ldrb	r3, [r7, #81]	@ zero_extendqisi2
 3674 0998 9BB2     		uxth	r3, r3
 3675 099a 2E33     		adds	r3, r3, #46
 3676 099c 9BB2     		uxth	r3, r3
 3677 099e 1846     		mov	r0, r3
 3678 09a0 FFF7FEFF 		bl	EEPROM_1_ReadByte
 3679 09a4 0346     		mov	r3, r0
 3680 09a6 1A46     		mov	r2, r3
ARM GAS  C:\Users\Diego\AppData\Local\Temp\ccnYGT0M.s 			page 81


 3681 09a8 07F17003 		add	r3, r7, #112
 3682 09ac 2344     		add	r3, r3, r4
 3683 09ae 03F8642C 		strb	r2, [r3, #-100]
 548:printer.c     ****     for(uint8 x = 0; x < 10; x ++){
 3684              		.loc 1 548 0 discriminator 3
 3685 09b2 97F85130 		ldrb	r3, [r7, #81]	@ zero_extendqisi2
 3686 09b6 0133     		adds	r3, r3, #1
 3687 09b8 87F85130 		strb	r3, [r7, #81]
 3688              	.L211:
 548:printer.c     ****     for(uint8 x = 0; x < 10; x ++){
 3689              		.loc 1 548 0 is_stmt 0 discriminator 1
 3690 09bc 97F85130 		ldrb	r3, [r7, #81]	@ zero_extendqisi2
 3691 09c0 092B     		cmp	r3, #9
 3692 09c2 E5D9     		bls	.L212
 3693              	.LBE88:
 3694              	.LBB89:
 550:printer.c     ****     }
 551:printer.c     ****     for(uint8 x = 0; x < 10; x ++){ 
 3695              		.loc 1 551 0 is_stmt 1
 3696 09c4 0023     		movs	r3, #0
 3697 09c6 87F85030 		strb	r3, [r7, #80]
 3698 09ca 19E0     		b	.L213
 3699              	.L215:
 552:printer.c     ****         if((10-x) == DecVol)
 3700              		.loc 1 552 0
 3701 09cc 97F85030 		ldrb	r3, [r7, #80]	@ zero_extendqisi2
 3702 09d0 C3F10A03 		rsb	r3, r3, #10
 3703 09d4 114A     		ldr	r2, .L259
 3704 09d6 1278     		ldrb	r2, [r2]	@ zero_extendqisi2
 3705 09d8 9342     		cmp	r3, r2
 3706 09da 02D1     		bne	.L214
 553:printer.c     ****             PRINTER_A_PutChar('.');
 3707              		.loc 1 553 0
 3708 09dc 2E20     		movs	r0, #46
 3709 09de FFF7FEFF 		bl	PRINTER_A_PutChar
 3710              	.L214:
 554:printer.c     ****         PRINTER_A_PutChar(memoria[x]);
 3711              		.loc 1 554 0 discriminator 2
 3712 09e2 97F85030 		ldrb	r3, [r7, #80]	@ zero_extendqisi2
 3713 09e6 07F17002 		add	r2, r7, #112
 3714 09ea 1344     		add	r3, r3, r2
 3715 09ec 13F8643C 		ldrb	r3, [r3, #-100]	@ zero_extendqisi2
 3716 09f0 1846     		mov	r0, r3
 3717 09f2 FFF7FEFF 		bl	PRINTER_A_PutChar
 551:printer.c     ****         if((10-x) == DecVol)
 3718              		.loc 1 551 0 discriminator 2
 3719 09f6 97F85030 		ldrb	r3, [r7, #80]	@ zero_extendqisi2
 3720 09fa 0133     		adds	r3, r3, #1
 3721 09fc 87F85030 		strb	r3, [r7, #80]
 3722              	.L213:
 551:printer.c     ****         if((10-x) == DecVol)
 3723              		.loc 1 551 0 is_stmt 0 discriminator 1
 3724 0a00 97F85030 		ldrb	r3, [r7, #80]	@ zero_extendqisi2
 3725 0a04 092B     		cmp	r3, #9
 3726 0a06 E1D9     		bls	.L215
 3727              	.LBE89:
 555:printer.c     ****     }
ARM GAS  C:\Users\Diego\AppData\Local\Temp\ccnYGT0M.s 			page 82


 556:printer.c     ****     PRINTER_A_PutChar(LINE_FEED);
 3728              		.loc 1 556 0 is_stmt 1
 3729 0a08 054B     		ldr	r3, .L259+4
 3730 0a0a 1B78     		ldrb	r3, [r3]	@ zero_extendqisi2
 3731 0a0c 1846     		mov	r0, r3
 3732 0a0e FFF7FEFF 		bl	PRINTER_A_PutChar
 3733              	.LBB90:
 557:printer.c     ****     for(uint8 x = pos; x < 10; x++ ){
 3734              		.loc 1 557 0
 3735 0a12 97F86E30 		ldrb	r3, [r7, #110]
 3736 0a16 87F84F30 		strb	r3, [r7, #79]
 3737 0a1a 3DE0     		b	.L216
 3738              	.L260:
 3739              		.align	2
 3740              	.L259:
 3741 0a1c 00000000 		.word	DecVol
 3742 0a20 00000000 		.word	LINE_FEED
 3743 0a24 00000000 		.word	side
 3744 0a28 00000000 		.word	msn_dif
 3745 0a2c 00000000 		.word	SEPARATOR
 3746 0a30 00000000 		.word	msn_pos
 3747 0a34 00000000 		.word	msn_lecact
 3748 0a38 00000000 		.word	msn_lecaan
 3749              	.L217:
 558:printer.c     ****         lectactual[x-pos] = side.b.ProcessedTotals[0][0][x];
 3750              		.loc 1 558 0 discriminator 3
 3751 0a3c 97F84F20 		ldrb	r2, [r7, #79]	@ zero_extendqisi2
 3752 0a40 97F86E30 		ldrb	r3, [r7, #110]	@ zero_extendqisi2
 3753 0a44 D31A     		subs	r3, r2, r3
 3754 0a46 97F84F20 		ldrb	r2, [r7, #79]	@ zero_extendqisi2
 3755 0a4a C949     		ldr	r1, .L261
 3756 0a4c 0A44     		add	r2, r2, r1
 3757 0a4e 92F8B821 		ldrb	r2, [r2, #440]	@ zero_extendqisi2
 3758 0a52 07F17001 		add	r1, r7, #112
 3759 0a56 0B44     		add	r3, r3, r1
 3760 0a58 03F8582C 		strb	r2, [r3, #-88]
 559:printer.c     ****         lectanterior[x-pos] = memoria[x];
 3761              		.loc 1 559 0 discriminator 3
 3762 0a5c 97F84F20 		ldrb	r2, [r7, #79]	@ zero_extendqisi2
 3763 0a60 97F86E30 		ldrb	r3, [r7, #110]	@ zero_extendqisi2
 3764 0a64 D31A     		subs	r3, r2, r3
 3765 0a66 97F84F20 		ldrb	r2, [r7, #79]	@ zero_extendqisi2
 3766 0a6a 07F17001 		add	r1, r7, #112
 3767 0a6e 0A44     		add	r2, r2, r1
 3768 0a70 12F8642C 		ldrb	r2, [r2, #-100]	@ zero_extendqisi2
 3769 0a74 07F17001 		add	r1, r7, #112
 3770 0a78 0B44     		add	r3, r3, r1
 3771 0a7a 03F84C2C 		strb	r2, [r3, #-76]
 560:printer.c     ****         resultado[x] = 0x00;
 3772              		.loc 1 560 0 discriminator 3
 3773 0a7e 97F84F30 		ldrb	r3, [r7, #79]	@ zero_extendqisi2
 3774 0a82 07F17002 		add	r2, r7, #112
 3775 0a86 1344     		add	r3, r3, r2
 3776 0a88 0022     		movs	r2, #0
 3777 0a8a 03F8702C 		strb	r2, [r3, #-112]
 557:printer.c     ****         lectactual[x-pos] = side.b.ProcessedTotals[0][0][x];
 3778              		.loc 1 557 0 discriminator 3
ARM GAS  C:\Users\Diego\AppData\Local\Temp\ccnYGT0M.s 			page 83


 3779 0a8e 97F84F30 		ldrb	r3, [r7, #79]	@ zero_extendqisi2
 3780 0a92 0133     		adds	r3, r3, #1
 3781 0a94 87F84F30 		strb	r3, [r7, #79]
 3782              	.L216:
 557:printer.c     ****         lectactual[x-pos] = side.b.ProcessedTotals[0][0][x];
 3783              		.loc 1 557 0 is_stmt 0 discriminator 1
 3784 0a98 97F84F30 		ldrb	r3, [r7, #79]	@ zero_extendqisi2
 3785 0a9c 092B     		cmp	r3, #9
 3786 0a9e CDD9     		bls	.L217
 3787              	.LBE90:
 561:printer.c     ****     }
 562:printer.c     ****     
 563:printer.c     ****     anterior = atoi(lectanterior);
 3788              		.loc 1 563 0 is_stmt 1
 3789 0aa0 07F12403 		add	r3, r7, #36
 3790 0aa4 1846     		mov	r0, r3
 3791 0aa6 FFF7FEFF 		bl	atoi
 3792 0aaa 0346     		mov	r3, r0
 3793 0aac BB63     		str	r3, [r7, #56]
 564:printer.c     ****     actual = atoi(lectactual);
 3794              		.loc 1 564 0
 3795 0aae 07F11803 		add	r3, r7, #24
 3796 0ab2 1846     		mov	r0, r3
 3797 0ab4 FFF7FEFF 		bl	atoi
 3798 0ab8 0346     		mov	r3, r0
 3799 0aba 7B63     		str	r3, [r7, #52]
 565:printer.c     ****     resta =  actual - anterior;
 3800              		.loc 1 565 0
 3801 0abc 7A6B     		ldr	r2, [r7, #52]
 3802 0abe BB6B     		ldr	r3, [r7, #56]
 3803 0ac0 D31A     		subs	r3, r2, r3
 3804 0ac2 3B63     		str	r3, [r7, #48]
 566:printer.c     ****     itoa(resta,resultado,10);
 3805              		.loc 1 566 0
 3806 0ac4 3B6B     		ldr	r3, [r7, #48]
 3807 0ac6 3946     		mov	r1, r7
 3808 0ac8 0A22     		movs	r2, #10
 3809 0aca 1846     		mov	r0, r3
 3810 0acc FFF7FEFF 		bl	itoa
 3811              	.LBB91:
 567:printer.c     ****     for(uint8 x = 0; x < 18; x ++){
 3812              		.loc 1 567 0
 3813 0ad0 0023     		movs	r3, #0
 3814 0ad2 87F84E30 		strb	r3, [r7, #78]
 3815 0ad6 0BE0     		b	.L218
 3816              	.L219:
 568:printer.c     ****         PRINTER_A_PutChar(msn_dif[x]);
 3817              		.loc 1 568 0 discriminator 3
 3818 0ad8 97F84E30 		ldrb	r3, [r7, #78]	@ zero_extendqisi2
 3819 0adc A54A     		ldr	r2, .L261+4
 3820 0ade D35C     		ldrb	r3, [r2, r3]	@ zero_extendqisi2
 3821 0ae0 1846     		mov	r0, r3
 3822 0ae2 FFF7FEFF 		bl	PRINTER_A_PutChar
 567:printer.c     ****     for(uint8 x = 0; x < 18; x ++){
 3823              		.loc 1 567 0 discriminator 3
 3824 0ae6 97F84E30 		ldrb	r3, [r7, #78]	@ zero_extendqisi2
 3825 0aea 0133     		adds	r3, r3, #1
ARM GAS  C:\Users\Diego\AppData\Local\Temp\ccnYGT0M.s 			page 84


 3826 0aec 87F84E30 		strb	r3, [r7, #78]
 3827              	.L218:
 567:printer.c     ****     for(uint8 x = 0; x < 18; x ++){
 3828              		.loc 1 567 0 is_stmt 0 discriminator 1
 3829 0af0 97F84E30 		ldrb	r3, [r7, #78]	@ zero_extendqisi2
 3830 0af4 112B     		cmp	r3, #17
 3831 0af6 EFD9     		bls	.L219
 3832              	.LBE91:
 569:printer.c     ****     }
 570:printer.c     ****     PRINTER_A_PutChar(LINE_FEED);
 3833              		.loc 1 570 0 is_stmt 1
 3834 0af8 9F4B     		ldr	r3, .L261+8
 3835 0afa 1B78     		ldrb	r3, [r3]	@ zero_extendqisi2
 3836 0afc 1846     		mov	r0, r3
 3837 0afe FFF7FEFF 		bl	PRINTER_A_PutChar
 3838              	.LBB92:
 571:printer.c     ****     for(uint8 x = 0; x < 10; x ++){
 3839              		.loc 1 571 0
 3840 0b02 0023     		movs	r3, #0
 3841 0b04 87F84D30 		strb	r3, [r7, #77]
 3842 0b08 19E0     		b	.L220
 3843              	.L222:
 572:printer.c     ****         if((10-x) == DecVol)
 3844              		.loc 1 572 0
 3845 0b0a 97F84D30 		ldrb	r3, [r7, #77]	@ zero_extendqisi2
 3846 0b0e C3F10A03 		rsb	r3, r3, #10
 3847 0b12 9A4A     		ldr	r2, .L261+12
 3848 0b14 1278     		ldrb	r2, [r2]	@ zero_extendqisi2
 3849 0b16 9342     		cmp	r3, r2
 3850 0b18 02D1     		bne	.L221
 573:printer.c     ****             PRINTER_A_PutChar('.');
 3851              		.loc 1 573 0
 3852 0b1a 2E20     		movs	r0, #46
 3853 0b1c FFF7FEFF 		bl	PRINTER_A_PutChar
 3854              	.L221:
 574:printer.c     ****         PRINTER_A_PutChar(resultado[x]);
 3855              		.loc 1 574 0 discriminator 2
 3856 0b20 97F84D30 		ldrb	r3, [r7, #77]	@ zero_extendqisi2
 3857 0b24 07F17002 		add	r2, r7, #112
 3858 0b28 1344     		add	r3, r3, r2
 3859 0b2a 13F8703C 		ldrb	r3, [r3, #-112]	@ zero_extendqisi2
 3860 0b2e 1846     		mov	r0, r3
 3861 0b30 FFF7FEFF 		bl	PRINTER_A_PutChar
 571:printer.c     ****         if((10-x) == DecVol)
 3862              		.loc 1 571 0 discriminator 2
 3863 0b34 97F84D30 		ldrb	r3, [r7, #77]	@ zero_extendqisi2
 3864 0b38 0133     		adds	r3, r3, #1
 3865 0b3a 87F84D30 		strb	r3, [r7, #77]
 3866              	.L220:
 571:printer.c     ****         if((10-x) == DecVol)
 3867              		.loc 1 571 0 is_stmt 0 discriminator 1
 3868 0b3e 97F84D30 		ldrb	r3, [r7, #77]	@ zero_extendqisi2
 3869 0b42 092B     		cmp	r3, #9
 3870 0b44 E1D9     		bls	.L222
 3871              	.LBE92:
 575:printer.c     ****     }
 576:printer.c     ****     PRINTER_A_PutChar(LINE_FEED);
ARM GAS  C:\Users\Diego\AppData\Local\Temp\ccnYGT0M.s 			page 85


 3872              		.loc 1 576 0 is_stmt 1
 3873 0b46 8C4B     		ldr	r3, .L261+8
 3874 0b48 1B78     		ldrb	r3, [r3]	@ zero_extendqisi2
 3875 0b4a 1846     		mov	r0, r3
 3876 0b4c FFF7FEFF 		bl	PRINTER_A_PutChar
 577:printer.c     ****     
 578:printer.c     ****     if((Positions-1)>= 3){
 3877              		.loc 1 578 0
 3878 0b50 8B4B     		ldr	r3, .L261+16
 3879 0b52 1B78     		ldrb	r3, [r3]	@ zero_extendqisi2
 3880 0b54 013B     		subs	r3, r3, #1
 3881 0b56 022B     		cmp	r3, #2
 3882 0b58 40F30681 		ble	.L223
 3883              	.LBB93:
 579:printer.c     ****         for(uint8 x = 0; x < 32; x ++){
 3884              		.loc 1 579 0
 3885 0b5c 0023     		movs	r3, #0
 3886 0b5e 87F84C30 		strb	r3, [r7, #76]
 3887 0b62 0BE0     		b	.L224
 3888              	.L225:
 580:printer.c     ****             PRINTER_A_PutChar(SEPARATOR[x]);
 3889              		.loc 1 580 0 discriminator 3
 3890 0b64 97F84C30 		ldrb	r3, [r7, #76]	@ zero_extendqisi2
 3891 0b68 864A     		ldr	r2, .L261+20
 3892 0b6a D35C     		ldrb	r3, [r2, r3]	@ zero_extendqisi2
 3893 0b6c 1846     		mov	r0, r3
 3894 0b6e FFF7FEFF 		bl	PRINTER_A_PutChar
 579:printer.c     ****         for(uint8 x = 0; x < 32; x ++){
 3895              		.loc 1 579 0 discriminator 3
 3896 0b72 97F84C30 		ldrb	r3, [r7, #76]	@ zero_extendqisi2
 3897 0b76 0133     		adds	r3, r3, #1
 3898 0b78 87F84C30 		strb	r3, [r7, #76]
 3899              	.L224:
 579:printer.c     ****         for(uint8 x = 0; x < 32; x ++){
 3900              		.loc 1 579 0 is_stmt 0 discriminator 1
 3901 0b7c 97F84C30 		ldrb	r3, [r7, #76]	@ zero_extendqisi2
 3902 0b80 1F2B     		cmp	r3, #31
 3903 0b82 EFD9     		bls	.L225
 3904              	.LBE93:
 581:printer.c     ****         }           
 582:printer.c     ****         PRINTER_A_PutChar(LINE_FEED);
 3905              		.loc 1 582 0 is_stmt 1
 3906 0b84 7C4B     		ldr	r3, .L261+8
 3907 0b86 1B78     		ldrb	r3, [r3]	@ zero_extendqisi2
 3908 0b88 1846     		mov	r0, r3
 3909 0b8a FFF7FEFF 		bl	PRINTER_A_PutChar
 3910              	.LBB94:
 583:printer.c     ****         for(uint8 x = 0; x < 13; x ++){
 3911              		.loc 1 583 0
 3912 0b8e 0023     		movs	r3, #0
 3913 0b90 87F84B30 		strb	r3, [r7, #75]
 3914 0b94 0BE0     		b	.L226
 3915              	.L227:
 584:printer.c     ****             PRINTER_A_PutChar(msn_pos[x]);
 3916              		.loc 1 584 0 discriminator 3
 3917 0b96 97F84B30 		ldrb	r3, [r7, #75]	@ zero_extendqisi2
 3918 0b9a 7B4A     		ldr	r2, .L261+24
ARM GAS  C:\Users\Diego\AppData\Local\Temp\ccnYGT0M.s 			page 86


 3919 0b9c D35C     		ldrb	r3, [r2, r3]	@ zero_extendqisi2
 3920 0b9e 1846     		mov	r0, r3
 3921 0ba0 FFF7FEFF 		bl	PRINTER_A_PutChar
 583:printer.c     ****         for(uint8 x = 0; x < 13; x ++){
 3922              		.loc 1 583 0 discriminator 3
 3923 0ba4 97F84B30 		ldrb	r3, [r7, #75]	@ zero_extendqisi2
 3924 0ba8 0133     		adds	r3, r3, #1
 3925 0baa 87F84B30 		strb	r3, [r7, #75]
 3926              	.L226:
 583:printer.c     ****         for(uint8 x = 0; x < 13; x ++){
 3927              		.loc 1 583 0 is_stmt 0 discriminator 1
 3928 0bae 97F84B30 		ldrb	r3, [r7, #75]	@ zero_extendqisi2
 3929 0bb2 0C2B     		cmp	r3, #12
 3930 0bb4 EFD9     		bls	.L227
 3931              	.LBE94:
 585:printer.c     ****         }
 586:printer.c     ****         PRINTER_A_PutChar(side.c.dir + 0x31);
 3932              		.loc 1 586 0 is_stmt 1
 3933 0bb6 6E4B     		ldr	r3, .L261
 3934 0bb8 93F86A32 		ldrb	r3, [r3, #618]	@ zero_extendqisi2
 3935 0bbc 3133     		adds	r3, r3, #49
 3936 0bbe DBB2     		uxtb	r3, r3
 3937 0bc0 1846     		mov	r0, r3
 3938 0bc2 FFF7FEFF 		bl	PRINTER_A_PutChar
 587:printer.c     ****         PRINTER_A_PutChar(LINE_FEED);              
 3939              		.loc 1 587 0
 3940 0bc6 6C4B     		ldr	r3, .L261+8
 3941 0bc8 1B78     		ldrb	r3, [r3]	@ zero_extendqisi2
 3942 0bca 1846     		mov	r0, r3
 3943 0bcc FFF7FEFF 		bl	PRINTER_A_PutChar
 3944              	.LBB95:
 588:printer.c     ****         for(uint8 x = 0; x < 10; x ++){ 
 3945              		.loc 1 588 0
 3946 0bd0 0023     		movs	r3, #0
 3947 0bd2 87F84A30 		strb	r3, [r7, #74]
 3948 0bd6 18E0     		b	.L228
 3949              	.L230:
 589:printer.c     ****             if((10-x) == DecVol)
 3950              		.loc 1 589 0
 3951 0bd8 97F84A30 		ldrb	r3, [r7, #74]	@ zero_extendqisi2
 3952 0bdc C3F10A03 		rsb	r3, r3, #10
 3953 0be0 664A     		ldr	r2, .L261+12
 3954 0be2 1278     		ldrb	r2, [r2]	@ zero_extendqisi2
 3955 0be4 9342     		cmp	r3, r2
 3956 0be6 02D1     		bne	.L229
 590:printer.c     ****                 PRINTER_A_PutChar('.');
 3957              		.loc 1 590 0
 3958 0be8 2E20     		movs	r0, #46
 3959 0bea FFF7FEFF 		bl	PRINTER_A_PutChar
 3960              	.L229:
 591:printer.c     ****             PRINTER_A_PutChar(side.c.ProcessedTotals[0][0][x]);
 3961              		.loc 1 591 0 discriminator 2
 3962 0bee 97F84A30 		ldrb	r3, [r7, #74]	@ zero_extendqisi2
 3963 0bf2 5F4A     		ldr	r2, .L261
 3964 0bf4 1344     		add	r3, r3, r2
 3965 0bf6 93F8ED32 		ldrb	r3, [r3, #749]	@ zero_extendqisi2
 3966 0bfa 1846     		mov	r0, r3
ARM GAS  C:\Users\Diego\AppData\Local\Temp\ccnYGT0M.s 			page 87


 3967 0bfc FFF7FEFF 		bl	PRINTER_A_PutChar
 588:printer.c     ****             if((10-x) == DecVol)
 3968              		.loc 1 588 0 discriminator 2
 3969 0c00 97F84A30 		ldrb	r3, [r7, #74]	@ zero_extendqisi2
 3970 0c04 0133     		adds	r3, r3, #1
 3971 0c06 87F84A30 		strb	r3, [r7, #74]
 3972              	.L228:
 588:printer.c     ****             if((10-x) == DecVol)
 3973              		.loc 1 588 0 is_stmt 0 discriminator 1
 3974 0c0a 97F84A30 		ldrb	r3, [r7, #74]	@ zero_extendqisi2
 3975 0c0e 092B     		cmp	r3, #9
 3976 0c10 E2D9     		bls	.L230
 3977              	.LBE95:
 592:printer.c     ****         }
 593:printer.c     ****         PRINTER_A_PutChar(LINE_FEED);
 3978              		.loc 1 593 0 is_stmt 1
 3979 0c12 594B     		ldr	r3, .L261+8
 3980 0c14 1B78     		ldrb	r3, [r3]	@ zero_extendqisi2
 3981 0c16 1846     		mov	r0, r3
 3982 0c18 FFF7FEFF 		bl	PRINTER_A_PutChar
 3983              	.LBB96:
 594:printer.c     ****     	for(uint8 x = 0; x < 16; x ++){
 3984              		.loc 1 594 0
 3985 0c1c 0023     		movs	r3, #0
 3986 0c1e 87F84930 		strb	r3, [r7, #73]
 3987 0c22 0BE0     		b	.L231
 3988              	.L232:
 595:printer.c     ****     		PRINTER_A_PutChar(msn_lecaan[x]);
 3989              		.loc 1 595 0 discriminator 3
 3990 0c24 97F84930 		ldrb	r3, [r7, #73]	@ zero_extendqisi2
 3991 0c28 584A     		ldr	r2, .L261+28
 3992 0c2a D35C     		ldrb	r3, [r2, r3]	@ zero_extendqisi2
 3993 0c2c 1846     		mov	r0, r3
 3994 0c2e FFF7FEFF 		bl	PRINTER_A_PutChar
 594:printer.c     ****     	for(uint8 x = 0; x < 16; x ++){
 3995              		.loc 1 594 0 discriminator 3
 3996 0c32 97F84930 		ldrb	r3, [r7, #73]	@ zero_extendqisi2
 3997 0c36 0133     		adds	r3, r3, #1
 3998 0c38 87F84930 		strb	r3, [r7, #73]
 3999              	.L231:
 594:printer.c     ****     	for(uint8 x = 0; x < 16; x ++){
 4000              		.loc 1 594 0 is_stmt 0 discriminator 1
 4001 0c3c 97F84930 		ldrb	r3, [r7, #73]	@ zero_extendqisi2
 4002 0c40 0F2B     		cmp	r3, #15
 4003 0c42 EFD9     		bls	.L232
 4004              	.LBE96:
 596:printer.c     ****     	}
 597:printer.c     ****         PRINTER_A_PutChar(LINE_FEED);
 4005              		.loc 1 597 0 is_stmt 1
 4006 0c44 4C4B     		ldr	r3, .L261+8
 4007 0c46 1B78     		ldrb	r3, [r3]	@ zero_extendqisi2
 4008 0c48 1846     		mov	r0, r3
 4009 0c4a FFF7FEFF 		bl	PRINTER_A_PutChar
 4010              	.LBB97:
 598:printer.c     ****         for(uint8 x = 0; x < 32; x ++){
 4011              		.loc 1 598 0
 4012 0c4e 0023     		movs	r3, #0
ARM GAS  C:\Users\Diego\AppData\Local\Temp\ccnYGT0M.s 			page 88


 4013 0c50 87F84830 		strb	r3, [r7, #72]
 4014 0c54 0BE0     		b	.L233
 4015              	.L234:
 599:printer.c     ****             PRINTER_A_PutChar(SEPARATOR[x]);
 4016              		.loc 1 599 0 discriminator 3
 4017 0c56 97F84830 		ldrb	r3, [r7, #72]	@ zero_extendqisi2
 4018 0c5a 4A4A     		ldr	r2, .L261+20
 4019 0c5c D35C     		ldrb	r3, [r2, r3]	@ zero_extendqisi2
 4020 0c5e 1846     		mov	r0, r3
 4021 0c60 FFF7FEFF 		bl	PRINTER_A_PutChar
 598:printer.c     ****         for(uint8 x = 0; x < 32; x ++){
 4022              		.loc 1 598 0 discriminator 3
 4023 0c64 97F84830 		ldrb	r3, [r7, #72]	@ zero_extendqisi2
 4024 0c68 0133     		adds	r3, r3, #1
 4025 0c6a 87F84830 		strb	r3, [r7, #72]
 4026              	.L233:
 598:printer.c     ****         for(uint8 x = 0; x < 32; x ++){
 4027              		.loc 1 598 0 is_stmt 0 discriminator 1
 4028 0c6e 97F84830 		ldrb	r3, [r7, #72]	@ zero_extendqisi2
 4029 0c72 1F2B     		cmp	r3, #31
 4030 0c74 EFD9     		bls	.L234
 4031              	.LBE97:
 600:printer.c     ****         }   
 601:printer.c     ****         PRINTER_A_PutChar(LINE_FEED);
 4032              		.loc 1 601 0 is_stmt 1
 4033 0c76 404B     		ldr	r3, .L261+8
 4034 0c78 1B78     		ldrb	r3, [r3]	@ zero_extendqisi2
 4035 0c7a 1846     		mov	r0, r3
 4036 0c7c FFF7FEFF 		bl	PRINTER_A_PutChar
 4037              	.LBB98:
 602:printer.c     ****     	for(uint8 x = 0; x < 13; x ++){
 4038              		.loc 1 602 0
 4039 0c80 0023     		movs	r3, #0
 4040 0c82 87F84730 		strb	r3, [r7, #71]
 4041 0c86 0BE0     		b	.L235
 4042              	.L236:
 603:printer.c     ****             PRINTER_A_PutChar(msn_pos[x]);
 4043              		.loc 1 603 0 discriminator 3
 4044 0c88 97F84730 		ldrb	r3, [r7, #71]	@ zero_extendqisi2
 4045 0c8c 3E4A     		ldr	r2, .L261+24
 4046 0c8e D35C     		ldrb	r3, [r2, r3]	@ zero_extendqisi2
 4047 0c90 1846     		mov	r0, r3
 4048 0c92 FFF7FEFF 		bl	PRINTER_A_PutChar
 602:printer.c     ****     	for(uint8 x = 0; x < 13; x ++){
 4049              		.loc 1 602 0 discriminator 3
 4050 0c96 97F84730 		ldrb	r3, [r7, #71]	@ zero_extendqisi2
 4051 0c9a 0133     		adds	r3, r3, #1
 4052 0c9c 87F84730 		strb	r3, [r7, #71]
 4053              	.L235:
 602:printer.c     ****     	for(uint8 x = 0; x < 13; x ++){
 4054              		.loc 1 602 0 is_stmt 0 discriminator 1
 4055 0ca0 97F84730 		ldrb	r3, [r7, #71]	@ zero_extendqisi2
 4056 0ca4 0C2B     		cmp	r3, #12
 4057 0ca6 EFD9     		bls	.L236
 4058              	.LBE98:
 604:printer.c     ****         }
 605:printer.c     ****         PRINTER_A_PutChar(side.d.dir + 0x31);
ARM GAS  C:\Users\Diego\AppData\Local\Temp\ccnYGT0M.s 			page 89


 4059              		.loc 1 605 0 is_stmt 1
 4060 0ca8 314B     		ldr	r3, .L261
 4061 0caa 93F89F33 		ldrb	r3, [r3, #927]	@ zero_extendqisi2
 4062 0cae 3133     		adds	r3, r3, #49
 4063 0cb0 DBB2     		uxtb	r3, r3
 4064 0cb2 1846     		mov	r0, r3
 4065 0cb4 FFF7FEFF 		bl	PRINTER_A_PutChar
 606:printer.c     ****         PRINTER_A_PutChar(LINE_FEED);                      
 4066              		.loc 1 606 0
 4067 0cb8 2F4B     		ldr	r3, .L261+8
 4068 0cba 1B78     		ldrb	r3, [r3]	@ zero_extendqisi2
 4069 0cbc 1846     		mov	r0, r3
 4070 0cbe FFF7FEFF 		bl	PRINTER_A_PutChar
 4071              	.LBB99:
 607:printer.c     ****         for(uint8 x = 0; x < 10; x ++){ 
 4072              		.loc 1 607 0
 4073 0cc2 0023     		movs	r3, #0
 4074 0cc4 87F84630 		strb	r3, [r7, #70]
 4075 0cc8 18E0     		b	.L237
 4076              	.L239:
 608:printer.c     ****             if((10-x) == DecVol)
 4077              		.loc 1 608 0
 4078 0cca 97F84630 		ldrb	r3, [r7, #70]	@ zero_extendqisi2
 4079 0cce C3F10A03 		rsb	r3, r3, #10
 4080 0cd2 2A4A     		ldr	r2, .L261+12
 4081 0cd4 1278     		ldrb	r2, [r2]	@ zero_extendqisi2
 4082 0cd6 9342     		cmp	r3, r2
 4083 0cd8 02D1     		bne	.L238
 609:printer.c     ****                 PRINTER_A_PutChar('.');
 4084              		.loc 1 609 0
 4085 0cda 2E20     		movs	r0, #46
 4086 0cdc FFF7FEFF 		bl	PRINTER_A_PutChar
 4087              	.L238:
 610:printer.c     ****             PRINTER_A_PutChar(side.d.ProcessedTotals[0][0][x]);
 4088              		.loc 1 610 0 discriminator 2
 4089 0ce0 97F84630 		ldrb	r3, [r7, #70]	@ zero_extendqisi2
 4090 0ce4 224A     		ldr	r2, .L261
 4091 0ce6 1344     		add	r3, r3, r2
 4092 0ce8 93F82234 		ldrb	r3, [r3, #1058]	@ zero_extendqisi2
 4093 0cec 1846     		mov	r0, r3
 4094 0cee FFF7FEFF 		bl	PRINTER_A_PutChar
 607:printer.c     ****             if((10-x) == DecVol)
 4095              		.loc 1 607 0 discriminator 2
 4096 0cf2 97F84630 		ldrb	r3, [r7, #70]	@ zero_extendqisi2
 4097 0cf6 0133     		adds	r3, r3, #1
 4098 0cf8 87F84630 		strb	r3, [r7, #70]
 4099              	.L237:
 607:printer.c     ****             if((10-x) == DecVol)
 4100              		.loc 1 607 0 is_stmt 0 discriminator 1
 4101 0cfc 97F84630 		ldrb	r3, [r7, #70]	@ zero_extendqisi2
 4102 0d00 092B     		cmp	r3, #9
 4103 0d02 E2D9     		bls	.L239
 4104              	.LBE99:
 611:printer.c     ****         }
 612:printer.c     ****         PRINTER_A_PutChar(LINE_FEED);
 4105              		.loc 1 612 0 is_stmt 1
 4106 0d04 1C4B     		ldr	r3, .L261+8
ARM GAS  C:\Users\Diego\AppData\Local\Temp\ccnYGT0M.s 			page 90


 4107 0d06 1B78     		ldrb	r3, [r3]	@ zero_extendqisi2
 4108 0d08 1846     		mov	r0, r3
 4109 0d0a FFF7FEFF 		bl	PRINTER_A_PutChar
 4110              	.LBB100:
 613:printer.c     ****     	for(uint8 x = 0; x < 16; x ++){
 4111              		.loc 1 613 0
 4112 0d0e 0023     		movs	r3, #0
 4113 0d10 87F84530 		strb	r3, [r7, #69]
 4114 0d14 0BE0     		b	.L240
 4115              	.L241:
 614:printer.c     ****     		PRINTER_A_PutChar(msn_lecaan[x]);
 4116              		.loc 1 614 0 discriminator 3
 4117 0d16 97F84530 		ldrb	r3, [r7, #69]	@ zero_extendqisi2
 4118 0d1a 1C4A     		ldr	r2, .L261+28
 4119 0d1c D35C     		ldrb	r3, [r2, r3]	@ zero_extendqisi2
 4120 0d1e 1846     		mov	r0, r3
 4121 0d20 FFF7FEFF 		bl	PRINTER_A_PutChar
 613:printer.c     ****     	for(uint8 x = 0; x < 16; x ++){
 4122              		.loc 1 613 0 discriminator 3
 4123 0d24 97F84530 		ldrb	r3, [r7, #69]	@ zero_extendqisi2
 4124 0d28 0133     		adds	r3, r3, #1
 4125 0d2a 87F84530 		strb	r3, [r7, #69]
 4126              	.L240:
 613:printer.c     ****     	for(uint8 x = 0; x < 16; x ++){
 4127              		.loc 1 613 0 is_stmt 0 discriminator 1
 4128 0d2e 97F84530 		ldrb	r3, [r7, #69]	@ zero_extendqisi2
 4129 0d32 0F2B     		cmp	r3, #15
 4130 0d34 EFD9     		bls	.L241
 4131              	.LBE100:
 4132              	.LBB101:
 615:printer.c     ****     	}
 616:printer.c     ****         
 617:printer.c     ****         for(uint8 x = 0; x < 24; x ++){
 4133              		.loc 1 617 0 is_stmt 1
 4134 0d36 0023     		movs	r3, #0
 4135 0d38 87F84430 		strb	r3, [r7, #68]
 4136 0d3c 0BE0     		b	.L242
 4137              	.L243:
 618:printer.c     ****             PRINTER_A_PutChar(SEPARATOR[x]);
 4138              		.loc 1 618 0 discriminator 3
 4139 0d3e 97F84430 		ldrb	r3, [r7, #68]	@ zero_extendqisi2
 4140 0d42 104A     		ldr	r2, .L261+20
 4141 0d44 D35C     		ldrb	r3, [r2, r3]	@ zero_extendqisi2
 4142 0d46 1846     		mov	r0, r3
 4143 0d48 FFF7FEFF 		bl	PRINTER_A_PutChar
 617:printer.c     ****             PRINTER_A_PutChar(SEPARATOR[x]);
 4144              		.loc 1 617 0 discriminator 3
 4145 0d4c 97F84430 		ldrb	r3, [r7, #68]	@ zero_extendqisi2
 4146 0d50 0133     		adds	r3, r3, #1
 4147 0d52 87F84430 		strb	r3, [r7, #68]
 4148              	.L242:
 617:printer.c     ****             PRINTER_A_PutChar(SEPARATOR[x]);
 4149              		.loc 1 617 0 is_stmt 0 discriminator 1
 4150 0d56 97F84430 		ldrb	r3, [r7, #68]	@ zero_extendqisi2
 4151 0d5a 172B     		cmp	r3, #23
 4152 0d5c EFD9     		bls	.L243
 4153              	.LBE101:
ARM GAS  C:\Users\Diego\AppData\Local\Temp\ccnYGT0M.s 			page 91


 619:printer.c     ****         }            
 620:printer.c     **** 	    PRINTER_A_PutChar(LINE_FEED);
 4154              		.loc 1 620 0 is_stmt 1
 4155 0d5e 064B     		ldr	r3, .L261+8
 4156 0d60 1B78     		ldrb	r3, [r3]	@ zero_extendqisi2
 4157 0d62 1846     		mov	r0, r3
 4158 0d64 FFF7FEFF 		bl	PRINTER_A_PutChar
 4159              	.L223:
 4160              	.LBB102:
 621:printer.c     ****     } 
 622:printer.c     ****     /******FOOTER*****/
 623:printer.c     **** 	for(uint8 x = 0; x < 32; x ++){
 4161              		.loc 1 623 0
 4162 0d68 0023     		movs	r3, #0
 4163 0d6a 87F84330 		strb	r3, [r7, #67]
 4164 0d6e 1BE0     		b	.L244
 4165              	.L262:
 4166              		.align	2
 4167              	.L261:
 4168 0d70 00000000 		.word	side
 4169 0d74 00000000 		.word	msn_dif
 4170 0d78 00000000 		.word	LINE_FEED
 4171 0d7c 00000000 		.word	DecVol
 4172 0d80 00000000 		.word	Positions
 4173 0d84 00000000 		.word	SEPARATOR
 4174 0d88 00000000 		.word	msn_pos
 4175 0d8c 00000000 		.word	msn_lecaan
 4176              	.L245:
 624:printer.c     **** 		PRINTER_A_PutChar(SEPARATOR[x]);
 4177              		.loc 1 624 0 discriminator 3
 4178 0d90 97F84330 		ldrb	r3, [r7, #67]	@ zero_extendqisi2
 4179 0d94 4A4A     		ldr	r2, .L263
 4180 0d96 D35C     		ldrb	r3, [r2, r3]	@ zero_extendqisi2
 4181 0d98 1846     		mov	r0, r3
 4182 0d9a FFF7FEFF 		bl	PRINTER_A_PutChar
 623:printer.c     **** 		PRINTER_A_PutChar(SEPARATOR[x]);
 4183              		.loc 1 623 0 discriminator 3
 4184 0d9e 97F84330 		ldrb	r3, [r7, #67]	@ zero_extendqisi2
 4185 0da2 0133     		adds	r3, r3, #1
 4186 0da4 87F84330 		strb	r3, [r7, #67]
 4187              	.L244:
 623:printer.c     **** 		PRINTER_A_PutChar(SEPARATOR[x]);
 4188              		.loc 1 623 0 is_stmt 0 discriminator 1
 4189 0da8 97F84330 		ldrb	r3, [r7, #67]	@ zero_extendqisi2
 4190 0dac 1F2B     		cmp	r3, #31
 4191 0dae EFD9     		bls	.L245
 4192              	.LBE102:
 625:printer.c     **** 	}
 626:printer.c     **** 	PRINTER_A_PutChar(LINE_FEED);
 4193              		.loc 1 626 0 is_stmt 1
 4194 0db0 444B     		ldr	r3, .L263+4
 4195 0db2 1B78     		ldrb	r3, [r3]	@ zero_extendqisi2
 4196 0db4 1846     		mov	r0, r3
 4197 0db6 FFF7FEFF 		bl	PRINTER_A_PutChar
 4198              	.LBB103:
 627:printer.c     **** 	for(uint8 x = 0; x < 32; x ++){
 4199              		.loc 1 627 0
ARM GAS  C:\Users\Diego\AppData\Local\Temp\ccnYGT0M.s 			page 92


 4200 0dba 0023     		movs	r3, #0
 4201 0dbc 87F84230 		strb	r3, [r7, #66]
 4202 0dc0 0BE0     		b	.L246
 4203              	.L247:
 628:printer.c     **** 		PRINTER_A_PutChar(msn_footer[x]);
 4204              		.loc 1 628 0 discriminator 3
 4205 0dc2 97F84230 		ldrb	r3, [r7, #66]	@ zero_extendqisi2
 4206 0dc6 404A     		ldr	r2, .L263+8
 4207 0dc8 D35C     		ldrb	r3, [r2, r3]	@ zero_extendqisi2
 4208 0dca 1846     		mov	r0, r3
 4209 0dcc FFF7FEFF 		bl	PRINTER_A_PutChar
 627:printer.c     **** 	for(uint8 x = 0; x < 32; x ++){
 4210              		.loc 1 627 0 discriminator 3
 4211 0dd0 97F84230 		ldrb	r3, [r7, #66]	@ zero_extendqisi2
 4212 0dd4 0133     		adds	r3, r3, #1
 4213 0dd6 87F84230 		strb	r3, [r7, #66]
 4214              	.L246:
 627:printer.c     **** 	for(uint8 x = 0; x < 32; x ++){
 4215              		.loc 1 627 0 is_stmt 0 discriminator 1
 4216 0dda 97F84230 		ldrb	r3, [r7, #66]	@ zero_extendqisi2
 4217 0dde 1F2B     		cmp	r3, #31
 4218 0de0 EFD9     		bls	.L247
 4219              	.LBE103:
 629:printer.c     **** 	}
 630:printer.c     **** 	PRINTER_A_PutChar(LINE_FEED);
 4220              		.loc 1 630 0 is_stmt 1
 4221 0de2 384B     		ldr	r3, .L263+4
 4222 0de4 1B78     		ldrb	r3, [r3]	@ zero_extendqisi2
 4223 0de6 1846     		mov	r0, r3
 4224 0de8 FFF7FEFF 		bl	PRINTER_A_PutChar
 4225              	.LBB104:
 631:printer.c     **** 	for(uint8 x = 0; x < 32; x ++){
 4226              		.loc 1 631 0
 4227 0dec 0023     		movs	r3, #0
 4228 0dee 87F84130 		strb	r3, [r7, #65]
 4229 0df2 0BE0     		b	.L248
 4230              	.L249:
 632:printer.c     **** 		PRINTER_A_PutChar(msn_footer2[x]);
 4231              		.loc 1 632 0 discriminator 3
 4232 0df4 97F84130 		ldrb	r3, [r7, #65]	@ zero_extendqisi2
 4233 0df8 344A     		ldr	r2, .L263+12
 4234 0dfa D35C     		ldrb	r3, [r2, r3]	@ zero_extendqisi2
 4235 0dfc 1846     		mov	r0, r3
 4236 0dfe FFF7FEFF 		bl	PRINTER_A_PutChar
 631:printer.c     **** 	for(uint8 x = 0; x < 32; x ++){
 4237              		.loc 1 631 0 discriminator 3
 4238 0e02 97F84130 		ldrb	r3, [r7, #65]	@ zero_extendqisi2
 4239 0e06 0133     		adds	r3, r3, #1
 4240 0e08 87F84130 		strb	r3, [r7, #65]
 4241              	.L248:
 631:printer.c     **** 	for(uint8 x = 0; x < 32; x ++){
 4242              		.loc 1 631 0 is_stmt 0 discriminator 1
 4243 0e0c 97F84130 		ldrb	r3, [r7, #65]	@ zero_extendqisi2
 4244 0e10 1F2B     		cmp	r3, #31
 4245 0e12 EFD9     		bls	.L249
 4246              	.LBE104:
 633:printer.c     **** 	}           
ARM GAS  C:\Users\Diego\AppData\Local\Temp\ccnYGT0M.s 			page 93


 634:printer.c     ****     PRINTER_A_PutChar(LINE_FEED);
 4247              		.loc 1 634 0 is_stmt 1
 4248 0e14 2B4B     		ldr	r3, .L263+4
 4249 0e16 1B78     		ldrb	r3, [r3]	@ zero_extendqisi2
 4250 0e18 1846     		mov	r0, r3
 4251 0e1a FFF7FEFF 		bl	PRINTER_A_PutChar
 635:printer.c     ****     PRINTER_A_PutChar(LINE_FEED);
 4252              		.loc 1 635 0
 4253 0e1e 294B     		ldr	r3, .L263+4
 4254 0e20 1B78     		ldrb	r3, [r3]	@ zero_extendqisi2
 4255 0e22 1846     		mov	r0, r3
 4256 0e24 FFF7FEFF 		bl	PRINTER_A_PutChar
 636:printer.c     ****     PRINTER_A_PutChar(LINE_FEED);
 4257              		.loc 1 636 0
 4258 0e28 264B     		ldr	r3, .L263+4
 4259 0e2a 1B78     		ldrb	r3, [r3]	@ zero_extendqisi2
 4260 0e2c 1846     		mov	r0, r3
 4261 0e2e FFF7FEFF 		bl	PRINTER_A_PutChar
 637:printer.c     ****     PRINTER_A_PutChar(LINE_FEED);
 4262              		.loc 1 637 0
 4263 0e32 244B     		ldr	r3, .L263+4
 4264 0e34 1B78     		ldrb	r3, [r3]	@ zero_extendqisi2
 4265 0e36 1846     		mov	r0, r3
 4266 0e38 FFF7FEFF 		bl	PRINTER_A_PutChar
 638:printer.c     ****     PRINTER_A_PutChar(LINE_FEED);
 4267              		.loc 1 638 0
 4268 0e3c 214B     		ldr	r3, .L263+4
 4269 0e3e 1B78     		ldrb	r3, [r3]	@ zero_extendqisi2
 4270 0e40 1846     		mov	r0, r3
 4271 0e42 FFF7FEFF 		bl	PRINTER_A_PutChar
 4272              	.LBB105:
 639:printer.c     ****     for(uint8 x = 0; x < 10; x++){
 4273              		.loc 1 639 0
 4274 0e46 0023     		movs	r3, #0
 4275 0e48 87F84030 		strb	r3, [r7, #64]
 4276 0e4c 13E0     		b	.L250
 4277              	.L251:
 640:printer.c     ****         EEPROM_1_WriteByte(side.a.ProcessedTotals[0][0][x],36+x);        
 4278              		.loc 1 640 0 discriminator 3
 4279 0e4e 97F84030 		ldrb	r3, [r7, #64]	@ zero_extendqisi2
 4280 0e52 1F4A     		ldr	r2, .L263+16
 4281 0e54 1344     		add	r3, r3, r2
 4282 0e56 93F88320 		ldrb	r2, [r3, #131]	@ zero_extendqisi2
 4283 0e5a 97F84030 		ldrb	r3, [r7, #64]	@ zero_extendqisi2
 4284 0e5e 9BB2     		uxth	r3, r3
 4285 0e60 2433     		adds	r3, r3, #36
 4286 0e62 9BB2     		uxth	r3, r3
 4287 0e64 1946     		mov	r1, r3
 4288 0e66 1046     		mov	r0, r2
 4289 0e68 FFF7FEFF 		bl	EEPROM_1_WriteByte
 639:printer.c     ****     for(uint8 x = 0; x < 10; x++){
 4290              		.loc 1 639 0 discriminator 3
 4291 0e6c 97F84030 		ldrb	r3, [r7, #64]	@ zero_extendqisi2
 4292 0e70 0133     		adds	r3, r3, #1
 4293 0e72 87F84030 		strb	r3, [r7, #64]
 4294              	.L250:
 639:printer.c     ****     for(uint8 x = 0; x < 10; x++){
ARM GAS  C:\Users\Diego\AppData\Local\Temp\ccnYGT0M.s 			page 94


 4295              		.loc 1 639 0 is_stmt 0 discriminator 1
 4296 0e76 97F84030 		ldrb	r3, [r7, #64]	@ zero_extendqisi2
 4297 0e7a 092B     		cmp	r3, #9
 4298 0e7c E7D9     		bls	.L251
 4299              	.LBE105:
 4300              	.LBB106:
 641:printer.c     ****     }
 642:printer.c     ****     for(uint8 x = 0; x < 10; x++){
 4301              		.loc 1 642 0 is_stmt 1
 4302 0e7e 0023     		movs	r3, #0
 4303 0e80 87F83F30 		strb	r3, [r7, #63]
 4304 0e84 13E0     		b	.L252
 4305              	.L253:
 643:printer.c     ****         EEPROM_1_WriteByte(side.b.ProcessedTotals[0][0][x],46+x);
 4306              		.loc 1 643 0 discriminator 3
 4307 0e86 97F83F30 		ldrb	r3, [r7, #63]	@ zero_extendqisi2
 4308 0e8a 114A     		ldr	r2, .L263+16
 4309 0e8c 1344     		add	r3, r3, r2
 4310 0e8e 93F8B821 		ldrb	r2, [r3, #440]	@ zero_extendqisi2
 4311 0e92 97F83F30 		ldrb	r3, [r7, #63]	@ zero_extendqisi2
 4312 0e96 9BB2     		uxth	r3, r3
 4313 0e98 2E33     		adds	r3, r3, #46
 4314 0e9a 9BB2     		uxth	r3, r3
 4315 0e9c 1946     		mov	r1, r3
 4316 0e9e 1046     		mov	r0, r2
 4317 0ea0 FFF7FEFF 		bl	EEPROM_1_WriteByte
 642:printer.c     ****         EEPROM_1_WriteByte(side.b.ProcessedTotals[0][0][x],46+x);
 4318              		.loc 1 642 0 discriminator 3
 4319 0ea4 97F83F30 		ldrb	r3, [r7, #63]	@ zero_extendqisi2
 4320 0ea8 0133     		adds	r3, r3, #1
 4321 0eaa 87F83F30 		strb	r3, [r7, #63]
 4322              	.L252:
 642:printer.c     ****         EEPROM_1_WriteByte(side.b.ProcessedTotals[0][0][x],46+x);
 4323              		.loc 1 642 0 is_stmt 0 discriminator 1
 4324 0eae 97F83F30 		ldrb	r3, [r7, #63]	@ zero_extendqisi2
 4325 0eb2 092B     		cmp	r3, #9
 4326 0eb4 E7D9     		bls	.L253
 4327              	.LBE106:
 644:printer.c     ****     }
 645:printer.c     ****     
 646:printer.c     **** }
 4328              		.loc 1 646 0 is_stmt 1
 4329 0eb6 00BF     		nop
 4330 0eb8 7437     		adds	r7, r7, #116
 4331              		.cfi_def_cfa_offset 12
 4332 0eba BD46     		mov	sp, r7
 4333              		.cfi_def_cfa_register 13
 4334              		@ sp needed
 4335 0ebc 90BD     		pop	{r4, r7, pc}
 4336              	.L264:
 4337 0ebe 00BF     		.align	2
 4338              	.L263:
 4339 0ec0 00000000 		.word	SEPARATOR
 4340 0ec4 00000000 		.word	LINE_FEED
 4341 0ec8 00000000 		.word	msn_footer
 4342 0ecc 00000000 		.word	msn_footer2
 4343 0ed0 00000000 		.word	side
ARM GAS  C:\Users\Diego\AppData\Local\Temp\ccnYGT0M.s 			page 95


 4344              		.cfi_endproc
 4345              	.LFE65:
 4346              		.size	PrintShift, .-PrintShift
 4347              		.text
 4348              	.Letext0:
 4349              		.file 2 "c:\\program files (x86)\\cypress\\psoc creator\\4.2\\psoc creator\\import\\gnu\\arm\\5.4.
 4350              		.file 3 "c:\\program files (x86)\\cypress\\psoc creator\\4.2\\psoc creator\\import\\gnu\\arm\\5.4.
 4351              		.file 4 "Generated_Source\\PSoC5/cytypes.h"
 4352              		.file 5 "./GVar.h"
 4353              		.file 6 "Generated_Source\\PSoC5/core_cm3.h"
 4354              		.section	.debug_info,"",%progbits
 4355              	.Ldebug_info0:
 4356 0000 47140000 		.4byte	0x1447
 4357 0004 0400     		.2byte	0x4
 4358 0006 00000000 		.4byte	.Ldebug_abbrev0
 4359 000a 04       		.byte	0x4
 4360 000b 01       		.uleb128 0x1
 4361 000c 57000000 		.4byte	.LASF124
 4362 0010 0C       		.byte	0xc
 4363 0011 36050000 		.4byte	.LASF125
 4364 0015 29020000 		.4byte	.LASF126
 4365 0019 00000000 		.4byte	.Ldebug_ranges0+0
 4366 001d 00000000 		.4byte	0
 4367 0021 00000000 		.4byte	.Ldebug_line0
 4368 0025 02       		.uleb128 0x2
 4369 0026 01       		.byte	0x1
 4370 0027 06       		.byte	0x6
 4371 0028 5B050000 		.4byte	.LASF0
 4372 002c 02       		.uleb128 0x2
 4373 002d 01       		.byte	0x1
 4374 002e 08       		.byte	0x8
 4375 002f D4040000 		.4byte	.LASF1
 4376 0033 02       		.uleb128 0x2
 4377 0034 02       		.byte	0x2
 4378 0035 05       		.byte	0x5
 4379 0036 DC030000 		.4byte	.LASF2
 4380 003a 02       		.uleb128 0x2
 4381 003b 02       		.byte	0x2
 4382 003c 07       		.byte	0x7
 4383 003d 67050000 		.4byte	.LASF3
 4384 0041 03       		.uleb128 0x3
 4385 0042 46000000 		.4byte	.LASF9
 4386 0046 02       		.byte	0x2
 4387 0047 3F       		.byte	0x3f
 4388 0048 4C000000 		.4byte	0x4c
 4389 004c 02       		.uleb128 0x2
 4390 004d 04       		.byte	0x4
 4391 004e 05       		.byte	0x5
 4392 004f ED030000 		.4byte	.LASF4
 4393 0053 02       		.uleb128 0x2
 4394 0054 04       		.byte	0x4
 4395 0055 07       		.byte	0x7
 4396 0056 7F040000 		.4byte	.LASF5
 4397 005a 02       		.uleb128 0x2
 4398 005b 08       		.byte	0x8
 4399 005c 05       		.byte	0x5
 4400 005d 28030000 		.4byte	.LASF6
ARM GAS  C:\Users\Diego\AppData\Local\Temp\ccnYGT0M.s 			page 96


 4401 0061 02       		.uleb128 0x2
 4402 0062 08       		.byte	0x8
 4403 0063 07       		.byte	0x7
 4404 0064 A0010000 		.4byte	.LASF7
 4405 0068 04       		.uleb128 0x4
 4406 0069 04       		.byte	0x4
 4407 006a 05       		.byte	0x5
 4408 006b 696E7400 		.ascii	"int\000"
 4409 006f 02       		.uleb128 0x2
 4410 0070 04       		.byte	0x4
 4411 0071 07       		.byte	0x7
 4412 0072 22000000 		.4byte	.LASF8
 4413 0076 03       		.uleb128 0x3
 4414 0077 99040000 		.4byte	.LASF10
 4415 007b 03       		.byte	0x3
 4416 007c 2C       		.byte	0x2c
 4417 007d 41000000 		.4byte	0x41
 4418 0081 05       		.uleb128 0x5
 4419 0082 CF050000 		.4byte	.LASF11
 4420 0086 04       		.byte	0x4
 4421 0087 E401     		.2byte	0x1e4
 4422 0089 2C000000 		.4byte	0x2c
 4423 008d 05       		.uleb128 0x5
 4424 008e EA020000 		.4byte	.LASF12
 4425 0092 04       		.byte	0x4
 4426 0093 E501     		.2byte	0x1e5
 4427 0095 3A000000 		.4byte	0x3a
 4428 0099 05       		.uleb128 0x5
 4429 009a 6E030000 		.4byte	.LASF13
 4430 009e 04       		.byte	0x4
 4431 009f E601     		.2byte	0x1e6
 4432 00a1 53000000 		.4byte	0x53
 4433 00a5 05       		.uleb128 0x5
 4434 00a6 F1020000 		.4byte	.LASF14
 4435 00aa 04       		.byte	0x4
 4436 00ab E701     		.2byte	0x1e7
 4437 00ad 25000000 		.4byte	0x25
 4438 00b1 02       		.uleb128 0x2
 4439 00b2 04       		.byte	0x4
 4440 00b3 04       		.byte	0x4
 4441 00b4 6E010000 		.4byte	.LASF15
 4442 00b8 02       		.uleb128 0x2
 4443 00b9 08       		.byte	0x8
 4444 00ba 04       		.byte	0x4
 4445 00bb D5050000 		.4byte	.LASF16
 4446 00bf 05       		.uleb128 0x5
 4447 00c0 01030000 		.4byte	.LASF17
 4448 00c4 04       		.byte	0x4
 4449 00c5 F501     		.2byte	0x1f5
 4450 00c7 CB000000 		.4byte	0xcb
 4451 00cb 02       		.uleb128 0x2
 4452 00cc 01       		.byte	0x1
 4453 00cd 08       		.byte	0x8
 4454 00ce C6020000 		.4byte	.LASF18
 4455 00d2 02       		.uleb128 0x2
 4456 00d3 08       		.byte	0x8
 4457 00d4 04       		.byte	0x4
ARM GAS  C:\Users\Diego\AppData\Local\Temp\ccnYGT0M.s 			page 97


 4458 00d5 B1030000 		.4byte	.LASF19
 4459 00d9 02       		.uleb128 0x2
 4460 00da 04       		.byte	0x4
 4461 00db 07       		.byte	0x7
 4462 00dc 76040000 		.4byte	.LASF20
 4463 00e0 06       		.uleb128 0x6
 4464 00e1 05060000 		.4byte	.LASF37
 4465 00e5 3501     		.2byte	0x135
 4466 00e7 05       		.byte	0x5
 4467 00e8 23       		.byte	0x23
 4468 00e9 CC010000 		.4byte	0x1cc
 4469 00ed 07       		.uleb128 0x7
 4470 00ee 64697200 		.ascii	"dir\000"
 4471 00f2 05       		.byte	0x5
 4472 00f3 24       		.byte	0x24
 4473 00f4 81000000 		.4byte	0x81
 4474 00f8 00       		.byte	0
 4475 00f9 08       		.uleb128 0x8
 4476 00fa 4E040000 		.4byte	.LASF21
 4477 00fe 05       		.byte	0x5
 4478 00ff 25       		.byte	0x25
 4479 0100 CC010000 		.4byte	0x1cc
 4480 0104 01       		.byte	0x1
 4481 0105 08       		.uleb128 0x8
 4482 0106 4A030000 		.4byte	.LASF22
 4483 010a 05       		.byte	0x5
 4484 010b 26       		.byte	0x26
 4485 010c E8010000 		.4byte	0x1e8
 4486 0110 29       		.byte	0x29
 4487 0111 08       		.uleb128 0x8
 4488 0112 1E030000 		.4byte	.LASF23
 4489 0116 05       		.byte	0x5
 4490 0117 27       		.byte	0x27
 4491 0118 FE010000 		.4byte	0x1fe
 4492 011c 35       		.byte	0x35
 4493 011d 08       		.uleb128 0x8
 4494 011e 49050000 		.4byte	.LASF24
 4495 0122 05       		.byte	0x5
 4496 0123 28       		.byte	0x28
 4497 0124 FE010000 		.4byte	0x1fe
 4498 0128 39       		.byte	0x39
 4499 0129 08       		.uleb128 0x8
 4500 012a 36030000 		.4byte	.LASF25
 4501 012e 05       		.byte	0x5
 4502 012f 29       		.byte	0x29
 4503 0130 0E020000 		.4byte	0x20e
 4504 0134 3D       		.byte	0x3d
 4505 0135 08       		.uleb128 0x8
 4506 0136 96050000 		.4byte	.LASF26
 4507 013a 05       		.byte	0x5
 4508 013b 2A       		.byte	0x2a
 4509 013c 81000000 		.4byte	0x81
 4510 0140 4B       		.byte	0x4b
 4511 0141 08       		.uleb128 0x8
 4512 0142 BF020000 		.4byte	.LASF27
 4513 0146 05       		.byte	0x5
 4514 0147 2B       		.byte	0x2b
ARM GAS  C:\Users\Diego\AppData\Local\Temp\ccnYGT0M.s 			page 98


 4515 0148 1E020000 		.4byte	0x21e
 4516 014c 4C       		.byte	0x4c
 4517 014d 08       		.uleb128 0x8
 4518 014e 8D030000 		.4byte	.LASF28
 4519 0152 05       		.byte	0x5
 4520 0153 2C       		.byte	0x2c
 4521 0154 2E020000 		.4byte	0x22e
 4522 0158 51       		.byte	0x51
 4523 0159 08       		.uleb128 0x8
 4524 015a 03040000 		.4byte	.LASF29
 4525 015e 05       		.byte	0x5
 4526 015f 2D       		.byte	0x2d
 4527 0160 3E020000 		.4byte	0x23e
 4528 0164 83       		.byte	0x83
 4529 0165 08       		.uleb128 0x8
 4530 0166 97020000 		.4byte	.LASF30
 4531 016a 05       		.byte	0x5
 4532 016b 2E       		.byte	0x2e
 4533 016c 5A020000 		.4byte	0x25a
 4534 0170 FB       		.byte	0xfb
 4535 0171 09       		.uleb128 0x9
 4536 0172 0E010000 		.4byte	.LASF31
 4537 0176 05       		.byte	0x5
 4538 0177 2F       		.byte	0x2f
 4539 0178 5A020000 		.4byte	0x25a
 4540 017c 0301     		.2byte	0x103
 4541 017e 09       		.uleb128 0x9
 4542 017f 3E010000 		.4byte	.LASF32
 4543 0183 05       		.byte	0x5
 4544 0184 30       		.byte	0x30
 4545 0185 6A020000 		.4byte	0x26a
 4546 0189 0B01     		.2byte	0x10b
 4547 018b 09       		.uleb128 0x9
 4548 018c 1F020000 		.4byte	.LASF33
 4549 0190 05       		.byte	0x5
 4550 0191 31       		.byte	0x31
 4551 0192 5A020000 		.4byte	0x25a
 4552 0196 2301     		.2byte	0x123
 4553 0198 09       		.uleb128 0x9
 4554 0199 1A050000 		.4byte	.LASF34
 4555 019d 05       		.byte	0x5
 4556 019e 32       		.byte	0x32
 4557 019f 81000000 		.4byte	0x81
 4558 01a3 2B01     		.2byte	0x12b
 4559 01a5 09       		.uleb128 0x9
 4560 01a6 00000000 		.4byte	.LASF35
 4561 01aa 05       		.byte	0x5
 4562 01ab 33       		.byte	0x33
 4563 01ac 81000000 		.4byte	0x81
 4564 01b0 2C01     		.2byte	0x12c
 4565 01b2 0A       		.uleb128 0xa
 4566 01b3 6B6D00   		.ascii	"km\000"
 4567 01b6 05       		.byte	0x5
 4568 01b7 34       		.byte	0x34
 4569 01b8 80020000 		.4byte	0x280
 4570 01bc 2D01     		.2byte	0x12d
 4571 01be 09       		.uleb128 0x9
ARM GAS  C:\Users\Diego\AppData\Local\Temp\ccnYGT0M.s 			page 99


 4572 01bf 28040000 		.4byte	.LASF36
 4573 01c3 05       		.byte	0x5
 4574 01c4 35       		.byte	0x35
 4575 01c5 81000000 		.4byte	0x81
 4576 01c9 3401     		.2byte	0x134
 4577 01cb 00       		.byte	0
 4578 01cc 0B       		.uleb128 0xb
 4579 01cd 81000000 		.4byte	0x81
 4580 01d1 E8010000 		.4byte	0x1e8
 4581 01d5 0C       		.uleb128 0xc
 4582 01d6 D9000000 		.4byte	0xd9
 4583 01da 03       		.byte	0x3
 4584 01db 0C       		.uleb128 0xc
 4585 01dc D9000000 		.4byte	0xd9
 4586 01e0 01       		.byte	0x1
 4587 01e1 0C       		.uleb128 0xc
 4588 01e2 D9000000 		.4byte	0xd9
 4589 01e6 04       		.byte	0x4
 4590 01e7 00       		.byte	0
 4591 01e8 0B       		.uleb128 0xb
 4592 01e9 81000000 		.4byte	0x81
 4593 01ed FE010000 		.4byte	0x1fe
 4594 01f1 0C       		.uleb128 0xc
 4595 01f2 D9000000 		.4byte	0xd9
 4596 01f6 03       		.byte	0x3
 4597 01f7 0C       		.uleb128 0xc
 4598 01f8 D9000000 		.4byte	0xd9
 4599 01fc 02       		.byte	0x2
 4600 01fd 00       		.byte	0
 4601 01fe 0B       		.uleb128 0xb
 4602 01ff 81000000 		.4byte	0x81
 4603 0203 0E020000 		.4byte	0x20e
 4604 0207 0C       		.uleb128 0xc
 4605 0208 D9000000 		.4byte	0xd9
 4606 020c 03       		.byte	0x3
 4607 020d 00       		.byte	0
 4608 020e 0B       		.uleb128 0xb
 4609 020f 81000000 		.4byte	0x81
 4610 0213 1E020000 		.4byte	0x21e
 4611 0217 0C       		.uleb128 0xc
 4612 0218 D9000000 		.4byte	0xd9
 4613 021c 0D       		.byte	0xd
 4614 021d 00       		.byte	0
 4615 021e 0B       		.uleb128 0xb
 4616 021f 81000000 		.4byte	0x81
 4617 0223 2E020000 		.4byte	0x22e
 4618 0227 0C       		.uleb128 0xc
 4619 0228 D9000000 		.4byte	0xd9
 4620 022c 04       		.byte	0x4
 4621 022d 00       		.byte	0
 4622 022e 0B       		.uleb128 0xb
 4623 022f 81000000 		.4byte	0x81
 4624 0233 3E020000 		.4byte	0x23e
 4625 0237 0C       		.uleb128 0xc
 4626 0238 D9000000 		.4byte	0xd9
 4627 023c 31       		.byte	0x31
 4628 023d 00       		.byte	0
ARM GAS  C:\Users\Diego\AppData\Local\Temp\ccnYGT0M.s 			page 100


 4629 023e 0B       		.uleb128 0xb
 4630 023f BF000000 		.4byte	0xbf
 4631 0243 5A020000 		.4byte	0x25a
 4632 0247 0C       		.uleb128 0xc
 4633 0248 D9000000 		.4byte	0xd9
 4634 024c 03       		.byte	0x3
 4635 024d 0C       		.uleb128 0xc
 4636 024e D9000000 		.4byte	0xd9
 4637 0252 02       		.byte	0x2
 4638 0253 0C       		.uleb128 0xc
 4639 0254 D9000000 		.4byte	0xd9
 4640 0258 09       		.byte	0x9
 4641 0259 00       		.byte	0
 4642 025a 0B       		.uleb128 0xb
 4643 025b 81000000 		.4byte	0x81
 4644 025f 6A020000 		.4byte	0x26a
 4645 0263 0C       		.uleb128 0xc
 4646 0264 D9000000 		.4byte	0xd9
 4647 0268 07       		.byte	0x7
 4648 0269 00       		.byte	0
 4649 026a 0B       		.uleb128 0xb
 4650 026b 81000000 		.4byte	0x81
 4651 026f 80020000 		.4byte	0x280
 4652 0273 0C       		.uleb128 0xc
 4653 0274 D9000000 		.4byte	0xd9
 4654 0278 03       		.byte	0x3
 4655 0279 0C       		.uleb128 0xc
 4656 027a D9000000 		.4byte	0xd9
 4657 027e 05       		.byte	0x5
 4658 027f 00       		.byte	0
 4659 0280 0B       		.uleb128 0xb
 4660 0281 81000000 		.4byte	0x81
 4661 0285 90020000 		.4byte	0x290
 4662 0289 0C       		.uleb128 0xc
 4663 028a D9000000 		.4byte	0xd9
 4664 028e 06       		.byte	0x6
 4665 028f 00       		.byte	0
 4666 0290 06       		.uleb128 0x6
 4667 0291 25050000 		.4byte	.LASF38
 4668 0295 D404     		.2byte	0x4d4
 4669 0297 05       		.byte	0x5
 4670 0298 38       		.byte	0x38
 4671 0299 C9020000 		.4byte	0x2c9
 4672 029d 07       		.uleb128 0x7
 4673 029e 6100     		.ascii	"a\000"
 4674 02a0 05       		.byte	0x5
 4675 02a1 39       		.byte	0x39
 4676 02a2 E0000000 		.4byte	0xe0
 4677 02a6 00       		.byte	0
 4678 02a7 0A       		.uleb128 0xa
 4679 02a8 6200     		.ascii	"b\000"
 4680 02aa 05       		.byte	0x5
 4681 02ab 3A       		.byte	0x3a
 4682 02ac E0000000 		.4byte	0xe0
 4683 02b0 3501     		.2byte	0x135
 4684 02b2 0A       		.uleb128 0xa
 4685 02b3 6300     		.ascii	"c\000"
ARM GAS  C:\Users\Diego\AppData\Local\Temp\ccnYGT0M.s 			page 101


 4686 02b5 05       		.byte	0x5
 4687 02b6 3B       		.byte	0x3b
 4688 02b7 E0000000 		.4byte	0xe0
 4689 02bb 6A02     		.2byte	0x26a
 4690 02bd 0A       		.uleb128 0xa
 4691 02be 6400     		.ascii	"d\000"
 4692 02c0 05       		.byte	0x5
 4693 02c1 3C       		.byte	0x3c
 4694 02c2 E0000000 		.4byte	0xe0
 4695 02c6 9F03     		.2byte	0x39f
 4696 02c8 00       		.byte	0
 4697 02c9 0D       		.uleb128 0xd
 4698 02ca AB040000 		.4byte	.LASF41
 4699 02ce 01       		.byte	0x1
 4700 02cf 4F       		.byte	0x4f
 4701 02d0 00000000 		.4byte	.LFB64
 4702 02d4 180F0000 		.4byte	.LFE64-.LFB64
 4703 02d8 01       		.uleb128 0x1
 4704 02d9 9C       		.byte	0x9c
 4705 02da 04090000 		.4byte	0x904
 4706 02de 0E       		.uleb128 0xe
 4707 02df 91040000 		.4byte	.LASF127
 4708 02e3 01       		.byte	0x1
 4709 02e4 4F       		.byte	0x4f
 4710 02e5 81000000 		.4byte	0x81
 4711 02e9 03       		.uleb128 0x3
 4712 02ea 91       		.byte	0x91
 4713 02eb AF7F     		.sleb128 -81
 4714 02ed 0F       		.uleb128 0xf
 4715 02ee B8040000 		.4byte	.LASF39
 4716 02f2 01       		.byte	0x1
 4717 02f3 50       		.byte	0x50
 4718 02f4 A5000000 		.4byte	0xa5
 4719 02f8 02       		.uleb128 0x2
 4720 02f9 91       		.byte	0x91
 4721 02fa 6F       		.sleb128 -17
 4722 02fb 10       		.uleb128 0x10
 4723 02fc 62010000 		.4byte	.LBB2
 4724 0300 30000000 		.4byte	.LBE2-.LBB2
 4725 0304 15030000 		.4byte	0x315
 4726 0308 11       		.uleb128 0x11
 4727 0309 6900     		.ascii	"i\000"
 4728 030b 01       		.byte	0x1
 4729 030c 57       		.byte	0x57
 4730 030d 81000000 		.4byte	0x81
 4731 0311 02       		.uleb128 0x2
 4732 0312 91       		.byte	0x91
 4733 0313 6E       		.sleb128 -18
 4734 0314 00       		.byte	0
 4735 0315 10       		.uleb128 0x10
 4736 0316 94010000 		.4byte	.LBB3
 4737 031a 28000000 		.4byte	.LBE3-.LBB3
 4738 031e 31030000 		.4byte	0x331
 4739 0322 0F       		.uleb128 0xf
 4740 0323 F0010000 		.4byte	.LASF40
 4741 0327 01       		.byte	0x1
 4742 0328 5B       		.byte	0x5b
ARM GAS  C:\Users\Diego\AppData\Local\Temp\ccnYGT0M.s 			page 102


 4743 0329 81000000 		.4byte	0x81
 4744 032d 02       		.uleb128 0x2
 4745 032e 91       		.byte	0x91
 4746 032f 6D       		.sleb128 -19
 4747 0330 00       		.byte	0
 4748 0331 10       		.uleb128 0x10
 4749 0332 DC010000 		.4byte	.LBB4
 4750 0336 2E000000 		.4byte	.LBE4-.LBB4
 4751 033a 4D030000 		.4byte	0x34d
 4752 033e 0F       		.uleb128 0xf
 4753 033f F0010000 		.4byte	.LASF40
 4754 0343 01       		.byte	0x1
 4755 0344 62       		.byte	0x62
 4756 0345 81000000 		.4byte	0x81
 4757 0349 02       		.uleb128 0x2
 4758 034a 91       		.byte	0x91
 4759 034b 6C       		.sleb128 -20
 4760 034c 00       		.byte	0
 4761 034d 10       		.uleb128 0x10
 4762 034e 10020000 		.4byte	.LBB5
 4763 0352 28000000 		.4byte	.LBE5-.LBB5
 4764 0356 67030000 		.4byte	0x367
 4765 035a 11       		.uleb128 0x11
 4766 035b 7800     		.ascii	"x\000"
 4767 035d 01       		.byte	0x1
 4768 035e 67       		.byte	0x67
 4769 035f 81000000 		.4byte	0x81
 4770 0363 02       		.uleb128 0x2
 4771 0364 91       		.byte	0x91
 4772 0365 6B       		.sleb128 -21
 4773 0366 00       		.byte	0
 4774 0367 10       		.uleb128 0x10
 4775 0368 42020000 		.4byte	.LBB6
 4776 036c 28000000 		.4byte	.LBE6-.LBB6
 4777 0370 81030000 		.4byte	0x381
 4778 0374 11       		.uleb128 0x11
 4779 0375 7800     		.ascii	"x\000"
 4780 0377 01       		.byte	0x1
 4781 0378 6B       		.byte	0x6b
 4782 0379 81000000 		.4byte	0x81
 4783 037d 02       		.uleb128 0x2
 4784 037e 91       		.byte	0x91
 4785 037f 6A       		.sleb128 -22
 4786 0380 00       		.byte	0
 4787 0381 10       		.uleb128 0x10
 4788 0382 74020000 		.4byte	.LBB7
 4789 0386 28000000 		.4byte	.LBE7-.LBB7
 4790 038a 9B030000 		.4byte	0x39b
 4791 038e 11       		.uleb128 0x11
 4792 038f 7800     		.ascii	"x\000"
 4793 0391 01       		.byte	0x1
 4794 0392 6F       		.byte	0x6f
 4795 0393 81000000 		.4byte	0x81
 4796 0397 02       		.uleb128 0x2
 4797 0398 91       		.byte	0x91
 4798 0399 69       		.sleb128 -23
 4799 039a 00       		.byte	0
ARM GAS  C:\Users\Diego\AppData\Local\Temp\ccnYGT0M.s 			page 103


 4800 039b 10       		.uleb128 0x10
 4801 039c A6020000 		.4byte	.LBB8
 4802 03a0 28000000 		.4byte	.LBE8-.LBB8
 4803 03a4 B5030000 		.4byte	0x3b5
 4804 03a8 11       		.uleb128 0x11
 4805 03a9 7800     		.ascii	"x\000"
 4806 03ab 01       		.byte	0x1
 4807 03ac 73       		.byte	0x73
 4808 03ad 81000000 		.4byte	0x81
 4809 03b1 02       		.uleb128 0x2
 4810 03b2 91       		.byte	0x91
 4811 03b3 68       		.sleb128 -24
 4812 03b4 00       		.byte	0
 4813 03b5 10       		.uleb128 0x10
 4814 03b6 D8020000 		.4byte	.LBB9
 4815 03ba 28000000 		.4byte	.LBE9-.LBB9
 4816 03be CF030000 		.4byte	0x3cf
 4817 03c2 11       		.uleb128 0x11
 4818 03c3 7800     		.ascii	"x\000"
 4819 03c5 01       		.byte	0x1
 4820 03c6 77       		.byte	0x77
 4821 03c7 81000000 		.4byte	0x81
 4822 03cb 02       		.uleb128 0x2
 4823 03cc 91       		.byte	0x91
 4824 03cd 67       		.sleb128 -25
 4825 03ce 00       		.byte	0
 4826 03cf 10       		.uleb128 0x10
 4827 03d0 0A030000 		.4byte	.LBB10
 4828 03d4 28000000 		.4byte	.LBE10-.LBB10
 4829 03d8 E9030000 		.4byte	0x3e9
 4830 03dc 11       		.uleb128 0x11
 4831 03dd 7800     		.ascii	"x\000"
 4832 03df 01       		.byte	0x1
 4833 03e0 7B       		.byte	0x7b
 4834 03e1 81000000 		.4byte	0x81
 4835 03e5 02       		.uleb128 0x2
 4836 03e6 91       		.byte	0x91
 4837 03e7 66       		.sleb128 -26
 4838 03e8 00       		.byte	0
 4839 03e9 10       		.uleb128 0x10
 4840 03ea 3C030000 		.4byte	.LBB11
 4841 03ee 64000000 		.4byte	.LBE11-.LBB11
 4842 03f2 03040000 		.4byte	0x403
 4843 03f6 11       		.uleb128 0x11
 4844 03f7 7800     		.ascii	"x\000"
 4845 03f9 01       		.byte	0x1
 4846 03fa 7F       		.byte	0x7f
 4847 03fb 81000000 		.4byte	0x81
 4848 03ff 02       		.uleb128 0x2
 4849 0400 91       		.byte	0x91
 4850 0401 65       		.sleb128 -27
 4851 0402 00       		.byte	0
 4852 0403 10       		.uleb128 0x10
 4853 0404 AA030000 		.4byte	.LBB12
 4854 0408 28000000 		.4byte	.LBE12-.LBB12
 4855 040c 1D040000 		.4byte	0x41d
 4856 0410 11       		.uleb128 0x11
ARM GAS  C:\Users\Diego\AppData\Local\Temp\ccnYGT0M.s 			page 104


 4857 0411 7800     		.ascii	"x\000"
 4858 0413 01       		.byte	0x1
 4859 0414 84       		.byte	0x84
 4860 0415 81000000 		.4byte	0x81
 4861 0419 02       		.uleb128 0x2
 4862 041a 91       		.byte	0x91
 4863 041b 64       		.sleb128 -28
 4864 041c 00       		.byte	0
 4865 041d 10       		.uleb128 0x10
 4866 041e 5A040000 		.4byte	.LBB13
 4867 0422 28000000 		.4byte	.LBE13-.LBB13
 4868 0426 37040000 		.4byte	0x437
 4869 042a 11       		.uleb128 0x11
 4870 042b 7800     		.ascii	"x\000"
 4871 042d 01       		.byte	0x1
 4872 042e 91       		.byte	0x91
 4873 042f 81000000 		.4byte	0x81
 4874 0433 02       		.uleb128 0x2
 4875 0434 91       		.byte	0x91
 4876 0435 63       		.sleb128 -29
 4877 0436 00       		.byte	0
 4878 0437 10       		.uleb128 0x10
 4879 0438 0A050000 		.4byte	.LBB14
 4880 043c 28000000 		.4byte	.LBE14-.LBB14
 4881 0440 51040000 		.4byte	0x451
 4882 0444 11       		.uleb128 0x11
 4883 0445 7800     		.ascii	"x\000"
 4884 0447 01       		.byte	0x1
 4885 0448 9E       		.byte	0x9e
 4886 0449 81000000 		.4byte	0x81
 4887 044d 02       		.uleb128 0x2
 4888 044e 91       		.byte	0x91
 4889 044f 62       		.sleb128 -30
 4890 0450 00       		.byte	0
 4891 0451 10       		.uleb128 0x10
 4892 0452 48050000 		.4byte	.LBB15
 4893 0456 28000000 		.4byte	.LBE15-.LBB15
 4894 045a 6B040000 		.4byte	0x46b
 4895 045e 11       		.uleb128 0x11
 4896 045f 7800     		.ascii	"x\000"
 4897 0461 01       		.byte	0x1
 4898 0462 A5       		.byte	0xa5
 4899 0463 81000000 		.4byte	0x81
 4900 0467 02       		.uleb128 0x2
 4901 0468 91       		.byte	0x91
 4902 0469 61       		.sleb128 -31
 4903 046a 00       		.byte	0
 4904 046b 10       		.uleb128 0x10
 4905 046c 7A050000 		.4byte	.LBB16
 4906 0470 28000000 		.4byte	.LBE16-.LBB16
 4907 0474 85040000 		.4byte	0x485
 4908 0478 11       		.uleb128 0x11
 4909 0479 7800     		.ascii	"x\000"
 4910 047b 01       		.byte	0x1
 4911 047c A9       		.byte	0xa9
 4912 047d 81000000 		.4byte	0x81
 4913 0481 02       		.uleb128 0x2
ARM GAS  C:\Users\Diego\AppData\Local\Temp\ccnYGT0M.s 			page 105


 4914 0482 91       		.byte	0x91
 4915 0483 60       		.sleb128 -32
 4916 0484 00       		.byte	0
 4917 0485 10       		.uleb128 0x10
 4918 0486 AC050000 		.4byte	.LBB17
 4919 048a 28000000 		.4byte	.LBE17-.LBB17
 4920 048e 9F040000 		.4byte	0x49f
 4921 0492 11       		.uleb128 0x11
 4922 0493 7800     		.ascii	"x\000"
 4923 0495 01       		.byte	0x1
 4924 0496 AE       		.byte	0xae
 4925 0497 81000000 		.4byte	0x81
 4926 049b 02       		.uleb128 0x2
 4927 049c 91       		.byte	0x91
 4928 049d 5F       		.sleb128 -33
 4929 049e 00       		.byte	0
 4930 049f 10       		.uleb128 0x10
 4931 04a0 DE050000 		.4byte	.LBB18
 4932 04a4 2A000000 		.4byte	.LBE18-.LBB18
 4933 04a8 B9040000 		.4byte	0x4b9
 4934 04ac 11       		.uleb128 0x11
 4935 04ad 7800     		.ascii	"x\000"
 4936 04af 01       		.byte	0x1
 4937 04b0 B2       		.byte	0xb2
 4938 04b1 81000000 		.4byte	0x81
 4939 04b5 02       		.uleb128 0x2
 4940 04b6 91       		.byte	0x91
 4941 04b7 5E       		.sleb128 -34
 4942 04b8 00       		.byte	0
 4943 04b9 10       		.uleb128 0x10
 4944 04ba 08060000 		.4byte	.LBB19
 4945 04be 28000000 		.4byte	.LBE19-.LBB19
 4946 04c2 D3040000 		.4byte	0x4d3
 4947 04c6 11       		.uleb128 0x11
 4948 04c7 7800     		.ascii	"x\000"
 4949 04c9 01       		.byte	0x1
 4950 04ca B6       		.byte	0xb6
 4951 04cb 81000000 		.4byte	0x81
 4952 04cf 02       		.uleb128 0x2
 4953 04d0 91       		.byte	0x91
 4954 04d1 5D       		.sleb128 -35
 4955 04d2 00       		.byte	0
 4956 04d3 10       		.uleb128 0x10
 4957 04d4 46060000 		.4byte	.LBB20
 4958 04d8 28000000 		.4byte	.LBE20-.LBB20
 4959 04dc ED040000 		.4byte	0x4ed
 4960 04e0 11       		.uleb128 0x11
 4961 04e1 7800     		.ascii	"x\000"
 4962 04e3 01       		.byte	0x1
 4963 04e4 BC       		.byte	0xbc
 4964 04e5 81000000 		.4byte	0x81
 4965 04e9 02       		.uleb128 0x2
 4966 04ea 91       		.byte	0x91
 4967 04eb 5C       		.sleb128 -36
 4968 04ec 00       		.byte	0
 4969 04ed 10       		.uleb128 0x10
 4970 04ee 6E060000 		.4byte	.LBB21
ARM GAS  C:\Users\Diego\AppData\Local\Temp\ccnYGT0M.s 			page 106


 4971 04f2 5E000000 		.4byte	.LBE21-.LBB21
 4972 04f6 07050000 		.4byte	0x507
 4973 04fa 11       		.uleb128 0x11
 4974 04fb 7800     		.ascii	"x\000"
 4975 04fd 01       		.byte	0x1
 4976 04fe BF       		.byte	0xbf
 4977 04ff 81000000 		.4byte	0x81
 4978 0503 02       		.uleb128 0x2
 4979 0504 91       		.byte	0x91
 4980 0505 5B       		.sleb128 -37
 4981 0506 00       		.byte	0
 4982 0507 10       		.uleb128 0x10
 4983 0508 D6060000 		.4byte	.LBB22
 4984 050c 28000000 		.4byte	.LBE22-.LBB22
 4985 0510 21050000 		.4byte	0x521
 4986 0514 11       		.uleb128 0x11
 4987 0515 7800     		.ascii	"x\000"
 4988 0517 01       		.byte	0x1
 4989 0518 C3       		.byte	0xc3
 4990 0519 81000000 		.4byte	0x81
 4991 051d 02       		.uleb128 0x2
 4992 051e 91       		.byte	0x91
 4993 051f 5A       		.sleb128 -38
 4994 0520 00       		.byte	0
 4995 0521 10       		.uleb128 0x10
 4996 0522 FE060000 		.4byte	.LBB23
 4997 0526 2C000000 		.4byte	.LBE23-.LBB23
 4998 052a 3B050000 		.4byte	0x53b
 4999 052e 11       		.uleb128 0x11
 5000 052f 7800     		.ascii	"x\000"
 5001 0531 01       		.byte	0x1
 5002 0532 C6       		.byte	0xc6
 5003 0533 81000000 		.4byte	0x81
 5004 0537 02       		.uleb128 0x2
 5005 0538 91       		.byte	0x91
 5006 0539 59       		.sleb128 -39
 5007 053a 00       		.byte	0
 5008 053b 10       		.uleb128 0x10
 5009 053c 34070000 		.4byte	.LBB24
 5010 0540 28000000 		.4byte	.LBE24-.LBB24
 5011 0544 55050000 		.4byte	0x555
 5012 0548 11       		.uleb128 0x11
 5013 0549 7800     		.ascii	"x\000"
 5014 054b 01       		.byte	0x1
 5015 054c CA       		.byte	0xca
 5016 054d 81000000 		.4byte	0x81
 5017 0551 02       		.uleb128 0x2
 5018 0552 91       		.byte	0x91
 5019 0553 58       		.sleb128 -40
 5020 0554 00       		.byte	0
 5021 0555 10       		.uleb128 0x10
 5022 0556 74070000 		.4byte	.LBB25
 5023 055a 28000000 		.4byte	.LBE25-.LBB25
 5024 055e 6F050000 		.4byte	0x56f
 5025 0562 11       		.uleb128 0x11
 5026 0563 7800     		.ascii	"x\000"
 5027 0565 01       		.byte	0x1
ARM GAS  C:\Users\Diego\AppData\Local\Temp\ccnYGT0M.s 			page 107


 5028 0566 CF       		.byte	0xcf
 5029 0567 81000000 		.4byte	0x81
 5030 056b 02       		.uleb128 0x2
 5031 056c 91       		.byte	0x91
 5032 056d 57       		.sleb128 -41
 5033 056e 00       		.byte	0
 5034 056f 10       		.uleb128 0x10
 5035 0570 A6070000 		.4byte	.LBB26
 5036 0574 2A000000 		.4byte	.LBE26-.LBB26
 5037 0578 89050000 		.4byte	0x589
 5038 057c 11       		.uleb128 0x11
 5039 057d 7800     		.ascii	"x\000"
 5040 057f 01       		.byte	0x1
 5041 0580 D3       		.byte	0xd3
 5042 0581 81000000 		.4byte	0x81
 5043 0585 02       		.uleb128 0x2
 5044 0586 91       		.byte	0x91
 5045 0587 56       		.sleb128 -42
 5046 0588 00       		.byte	0
 5047 0589 10       		.uleb128 0x10
 5048 058a D0070000 		.4byte	.LBB27
 5049 058e 28000000 		.4byte	.LBE27-.LBB27
 5050 0592 A3050000 		.4byte	0x5a3
 5051 0596 11       		.uleb128 0x11
 5052 0597 7800     		.ascii	"x\000"
 5053 0599 01       		.byte	0x1
 5054 059a D7       		.byte	0xd7
 5055 059b 81000000 		.4byte	0x81
 5056 059f 02       		.uleb128 0x2
 5057 05a0 91       		.byte	0x91
 5058 05a1 55       		.sleb128 -43
 5059 05a2 00       		.byte	0
 5060 05a3 10       		.uleb128 0x10
 5061 05a4 02080000 		.4byte	.LBB28
 5062 05a8 28000000 		.4byte	.LBE28-.LBB28
 5063 05ac BD050000 		.4byte	0x5bd
 5064 05b0 11       		.uleb128 0x11
 5065 05b1 7800     		.ascii	"x\000"
 5066 05b3 01       		.byte	0x1
 5067 05b4 DC       		.byte	0xdc
 5068 05b5 81000000 		.4byte	0x81
 5069 05b9 02       		.uleb128 0x2
 5070 05ba 91       		.byte	0x91
 5071 05bb 54       		.sleb128 -44
 5072 05bc 00       		.byte	0
 5073 05bd 10       		.uleb128 0x10
 5074 05be 3A080000 		.4byte	.LBB29
 5075 05c2 40000000 		.4byte	.LBE29-.LBB29
 5076 05c6 D7050000 		.4byte	0x5d7
 5077 05ca 11       		.uleb128 0x11
 5078 05cb 7800     		.ascii	"x\000"
 5079 05cd 01       		.byte	0x1
 5080 05ce E1       		.byte	0xe1
 5081 05cf 81000000 		.4byte	0x81
 5082 05d3 02       		.uleb128 0x2
 5083 05d4 91       		.byte	0x91
 5084 05d5 53       		.sleb128 -45
ARM GAS  C:\Users\Diego\AppData\Local\Temp\ccnYGT0M.s 			page 108


 5085 05d6 00       		.byte	0
 5086 05d7 10       		.uleb128 0x10
 5087 05d8 84080000 		.4byte	.LBB30
 5088 05dc 28000000 		.4byte	.LBE30-.LBB30
 5089 05e0 F1050000 		.4byte	0x5f1
 5090 05e4 11       		.uleb128 0x11
 5091 05e5 7800     		.ascii	"x\000"
 5092 05e7 01       		.byte	0x1
 5093 05e8 E5       		.byte	0xe5
 5094 05e9 81000000 		.4byte	0x81
 5095 05ed 02       		.uleb128 0x2
 5096 05ee 91       		.byte	0x91
 5097 05ef 52       		.sleb128 -46
 5098 05f0 00       		.byte	0
 5099 05f1 10       		.uleb128 0x10
 5100 05f2 AC080000 		.4byte	.LBB31
 5101 05f6 42000000 		.4byte	.LBE31-.LBB31
 5102 05fa 0B060000 		.4byte	0x60b
 5103 05fe 11       		.uleb128 0x11
 5104 05ff 7800     		.ascii	"x\000"
 5105 0601 01       		.byte	0x1
 5106 0602 E8       		.byte	0xe8
 5107 0603 81000000 		.4byte	0x81
 5108 0607 02       		.uleb128 0x2
 5109 0608 91       		.byte	0x91
 5110 0609 51       		.sleb128 -47
 5111 060a 00       		.byte	0
 5112 060b 10       		.uleb128 0x10
 5113 060c 08090000 		.4byte	.LBB32
 5114 0610 28000000 		.4byte	.LBE32-.LBB32
 5115 0614 25060000 		.4byte	0x625
 5116 0618 11       		.uleb128 0x11
 5117 0619 7800     		.ascii	"x\000"
 5118 061b 01       		.byte	0x1
 5119 061c F0       		.byte	0xf0
 5120 061d 81000000 		.4byte	0x81
 5121 0621 02       		.uleb128 0x2
 5122 0622 91       		.byte	0x91
 5123 0623 50       		.sleb128 -48
 5124 0624 00       		.byte	0
 5125 0625 10       		.uleb128 0x10
 5126 0626 40090000 		.4byte	.LBB33
 5127 062a 2C000000 		.4byte	.LBE33-.LBB33
 5128 062e 3F060000 		.4byte	0x63f
 5129 0632 11       		.uleb128 0x11
 5130 0633 7800     		.ascii	"x\000"
 5131 0635 01       		.byte	0x1
 5132 0636 F5       		.byte	0xf5
 5133 0637 81000000 		.4byte	0x81
 5134 063b 02       		.uleb128 0x2
 5135 063c 91       		.byte	0x91
 5136 063d 4F       		.sleb128 -49
 5137 063e 00       		.byte	0
 5138 063f 10       		.uleb128 0x10
 5139 0640 96090000 		.4byte	.LBB34
 5140 0644 28000000 		.4byte	.LBE34-.LBB34
 5141 0648 59060000 		.4byte	0x659
ARM GAS  C:\Users\Diego\AppData\Local\Temp\ccnYGT0M.s 			page 109


 5142 064c 11       		.uleb128 0x11
 5143 064d 7800     		.ascii	"x\000"
 5144 064f 01       		.byte	0x1
 5145 0650 FD       		.byte	0xfd
 5146 0651 81000000 		.4byte	0x81
 5147 0655 02       		.uleb128 0x2
 5148 0656 91       		.byte	0x91
 5149 0657 4E       		.sleb128 -50
 5150 0658 00       		.byte	0
 5151 0659 10       		.uleb128 0x10
 5152 065a C8090000 		.4byte	.LBB35
 5153 065e 60000000 		.4byte	.LBE35-.LBB35
 5154 0662 74060000 		.4byte	0x674
 5155 0666 12       		.uleb128 0x12
 5156 0667 7800     		.ascii	"x\000"
 5157 0669 01       		.byte	0x1
 5158 066a 0101     		.2byte	0x101
 5159 066c 81000000 		.4byte	0x81
 5160 0670 02       		.uleb128 0x2
 5161 0671 91       		.byte	0x91
 5162 0672 4D       		.sleb128 -51
 5163 0673 00       		.byte	0
 5164 0674 10       		.uleb128 0x10
 5165 0675 320A0000 		.4byte	.LBB36
 5166 0679 28000000 		.4byte	.LBE36-.LBB36
 5167 067d 8F060000 		.4byte	0x68f
 5168 0681 12       		.uleb128 0x12
 5169 0682 7800     		.ascii	"x\000"
 5170 0684 01       		.byte	0x1
 5171 0685 0601     		.2byte	0x106
 5172 0687 81000000 		.4byte	0x81
 5173 068b 02       		.uleb128 0x2
 5174 068c 91       		.byte	0x91
 5175 068d 4C       		.sleb128 -52
 5176 068e 00       		.byte	0
 5177 068f 10       		.uleb128 0x10
 5178 0690 640A0000 		.4byte	.LBB37
 5179 0694 2A000000 		.4byte	.LBE37-.LBB37
 5180 0698 AA060000 		.4byte	0x6aa
 5181 069c 12       		.uleb128 0x12
 5182 069d 7800     		.ascii	"x\000"
 5183 069f 01       		.byte	0x1
 5184 06a0 0A01     		.2byte	0x10a
 5185 06a2 81000000 		.4byte	0x81
 5186 06a6 02       		.uleb128 0x2
 5187 06a7 91       		.byte	0x91
 5188 06a8 4B       		.sleb128 -53
 5189 06a9 00       		.byte	0
 5190 06aa 10       		.uleb128 0x10
 5191 06ab 8E0A0000 		.4byte	.LBB38
 5192 06af 28000000 		.4byte	.LBE38-.LBB38
 5193 06b3 C5060000 		.4byte	0x6c5
 5194 06b7 12       		.uleb128 0x12
 5195 06b8 7800     		.ascii	"x\000"
 5196 06ba 01       		.byte	0x1
 5197 06bb 0E01     		.2byte	0x10e
 5198 06bd 81000000 		.4byte	0x81
ARM GAS  C:\Users\Diego\AppData\Local\Temp\ccnYGT0M.s 			page 110


 5199 06c1 02       		.uleb128 0x2
 5200 06c2 91       		.byte	0x91
 5201 06c3 4A       		.sleb128 -54
 5202 06c4 00       		.byte	0
 5203 06c5 10       		.uleb128 0x10
 5204 06c6 CC0A0000 		.4byte	.LBB39
 5205 06ca 28000000 		.4byte	.LBE39-.LBB39
 5206 06ce E0060000 		.4byte	0x6e0
 5207 06d2 12       		.uleb128 0x12
 5208 06d3 7800     		.ascii	"x\000"
 5209 06d5 01       		.byte	0x1
 5210 06d6 1401     		.2byte	0x114
 5211 06d8 81000000 		.4byte	0x81
 5212 06dc 02       		.uleb128 0x2
 5213 06dd 91       		.byte	0x91
 5214 06de 49       		.sleb128 -55
 5215 06df 00       		.byte	0
 5216 06e0 10       		.uleb128 0x10
 5217 06e1 F40A0000 		.4byte	.LBB40
 5218 06e5 2C000000 		.4byte	.LBE40-.LBB40
 5219 06e9 FB060000 		.4byte	0x6fb
 5220 06ed 12       		.uleb128 0x12
 5221 06ee 7800     		.ascii	"x\000"
 5222 06f0 01       		.byte	0x1
 5223 06f1 1701     		.2byte	0x117
 5224 06f3 81000000 		.4byte	0x81
 5225 06f7 02       		.uleb128 0x2
 5226 06f8 91       		.byte	0x91
 5227 06f9 48       		.sleb128 -56
 5228 06fa 00       		.byte	0
 5229 06fb 10       		.uleb128 0x10
 5230 06fc 2A0B0000 		.4byte	.LBB41
 5231 0700 1E000000 		.4byte	.LBE41-.LBB41
 5232 0704 16070000 		.4byte	0x716
 5233 0708 12       		.uleb128 0x12
 5234 0709 7800     		.ascii	"x\000"
 5235 070b 01       		.byte	0x1
 5236 070c 1B01     		.2byte	0x11b
 5237 070e 81000000 		.4byte	0x81
 5238 0712 02       		.uleb128 0x2
 5239 0713 91       		.byte	0x91
 5240 0714 47       		.sleb128 -57
 5241 0715 00       		.byte	0
 5242 0716 10       		.uleb128 0x10
 5243 0717 480B0000 		.4byte	.LBB42
 5244 071b 22000000 		.4byte	.LBE42-.LBB42
 5245 071f 31070000 		.4byte	0x731
 5246 0723 12       		.uleb128 0x12
 5247 0724 7800     		.ascii	"x\000"
 5248 0726 01       		.byte	0x1
 5249 0727 1E01     		.2byte	0x11e
 5250 0729 81000000 		.4byte	0x81
 5251 072d 02       		.uleb128 0x2
 5252 072e 91       		.byte	0x91
 5253 072f 46       		.sleb128 -58
 5254 0730 00       		.byte	0
 5255 0731 10       		.uleb128 0x10
ARM GAS  C:\Users\Diego\AppData\Local\Temp\ccnYGT0M.s 			page 111


 5256 0732 740B0000 		.4byte	.LBB43
 5257 0736 1E000000 		.4byte	.LBE43-.LBB43
 5258 073a 4C070000 		.4byte	0x74c
 5259 073e 12       		.uleb128 0x12
 5260 073f 7800     		.ascii	"x\000"
 5261 0741 01       		.byte	0x1
 5262 0742 2201     		.2byte	0x122
 5263 0744 81000000 		.4byte	0x81
 5264 0748 02       		.uleb128 0x2
 5265 0749 91       		.byte	0x91
 5266 074a 45       		.sleb128 -59
 5267 074b 00       		.byte	0
 5268 074c 10       		.uleb128 0x10
 5269 074d AC0B0000 		.4byte	.LBB44
 5270 0751 1E000000 		.4byte	.LBE44-.LBB44
 5271 0755 67070000 		.4byte	0x767
 5272 0759 12       		.uleb128 0x12
 5273 075a 7800     		.ascii	"x\000"
 5274 075c 01       		.byte	0x1
 5275 075d 2701     		.2byte	0x127
 5276 075f 81000000 		.4byte	0x81
 5277 0763 02       		.uleb128 0x2
 5278 0764 91       		.byte	0x91
 5279 0765 44       		.sleb128 -60
 5280 0766 00       		.byte	0
 5281 0767 10       		.uleb128 0x10
 5282 0768 D40B0000 		.4byte	.LBB45
 5283 076c 20000000 		.4byte	.LBE45-.LBB45
 5284 0770 82070000 		.4byte	0x782
 5285 0774 12       		.uleb128 0x12
 5286 0775 7800     		.ascii	"x\000"
 5287 0777 01       		.byte	0x1
 5288 0778 2B01     		.2byte	0x12b
 5289 077a 81000000 		.4byte	0x81
 5290 077e 02       		.uleb128 0x2
 5291 077f 91       		.byte	0x91
 5292 0780 43       		.sleb128 -61
 5293 0781 00       		.byte	0
 5294 0782 10       		.uleb128 0x10
 5295 0783 F40B0000 		.4byte	.LBB46
 5296 0787 1E000000 		.4byte	.LBE46-.LBB46
 5297 078b 9D070000 		.4byte	0x79d
 5298 078f 12       		.uleb128 0x12
 5299 0790 7800     		.ascii	"x\000"
 5300 0792 01       		.byte	0x1
 5301 0793 2F01     		.2byte	0x12f
 5302 0795 81000000 		.4byte	0x81
 5303 0799 02       		.uleb128 0x2
 5304 079a 91       		.byte	0x91
 5305 079b 42       		.sleb128 -62
 5306 079c 00       		.byte	0
 5307 079d 10       		.uleb128 0x10
 5308 079e 1C0C0000 		.4byte	.LBB47
 5309 07a2 1E000000 		.4byte	.LBE47-.LBB47
 5310 07a6 B8070000 		.4byte	0x7b8
 5311 07aa 12       		.uleb128 0x12
 5312 07ab 7800     		.ascii	"x\000"
ARM GAS  C:\Users\Diego\AppData\Local\Temp\ccnYGT0M.s 			page 112


 5313 07ad 01       		.byte	0x1
 5314 07ae 3401     		.2byte	0x134
 5315 07b0 81000000 		.4byte	0x81
 5316 07b4 02       		.uleb128 0x2
 5317 07b5 91       		.byte	0x91
 5318 07b6 41       		.sleb128 -63
 5319 07b7 00       		.byte	0
 5320 07b8 10       		.uleb128 0x10
 5321 07b9 4A0C0000 		.4byte	.LBB48
 5322 07bd 36000000 		.4byte	.LBE48-.LBB48
 5323 07c1 D3070000 		.4byte	0x7d3
 5324 07c5 12       		.uleb128 0x12
 5325 07c6 7800     		.ascii	"x\000"
 5326 07c8 01       		.byte	0x1
 5327 07c9 3901     		.2byte	0x139
 5328 07cb 81000000 		.4byte	0x81
 5329 07cf 02       		.uleb128 0x2
 5330 07d0 91       		.byte	0x91
 5331 07d1 40       		.sleb128 -64
 5332 07d2 00       		.byte	0
 5333 07d3 10       		.uleb128 0x10
 5334 07d4 8A0C0000 		.4byte	.LBB49
 5335 07d8 1E000000 		.4byte	.LBE49-.LBB49
 5336 07dc EF070000 		.4byte	0x7ef
 5337 07e0 12       		.uleb128 0x12
 5338 07e1 7800     		.ascii	"x\000"
 5339 07e3 01       		.byte	0x1
 5340 07e4 3D01     		.2byte	0x13d
 5341 07e6 81000000 		.4byte	0x81
 5342 07ea 03       		.uleb128 0x3
 5343 07eb 91       		.byte	0x91
 5344 07ec BF7F     		.sleb128 -65
 5345 07ee 00       		.byte	0
 5346 07ef 10       		.uleb128 0x10
 5347 07f0 A80C0000 		.4byte	.LBB50
 5348 07f4 36000000 		.4byte	.LBE50-.LBB50
 5349 07f8 0B080000 		.4byte	0x80b
 5350 07fc 12       		.uleb128 0x12
 5351 07fd 7800     		.ascii	"x\000"
 5352 07ff 01       		.byte	0x1
 5353 0800 4001     		.2byte	0x140
 5354 0802 81000000 		.4byte	0x81
 5355 0806 03       		.uleb128 0x3
 5356 0807 91       		.byte	0x91
 5357 0808 BE7F     		.sleb128 -66
 5358 080a 00       		.byte	0
 5359 080b 10       		.uleb128 0x10
 5360 080c F80C0000 		.4byte	.LBB51
 5361 0810 68000000 		.4byte	.LBE51-.LBB51
 5362 0814 27080000 		.4byte	0x827
 5363 0818 12       		.uleb128 0x12
 5364 0819 7800     		.ascii	"x\000"
 5365 081b 01       		.byte	0x1
 5366 081c 4801     		.2byte	0x148
 5367 081e 81000000 		.4byte	0x81
 5368 0822 03       		.uleb128 0x3
 5369 0823 91       		.byte	0x91
ARM GAS  C:\Users\Diego\AppData\Local\Temp\ccnYGT0M.s 			page 113


 5370 0824 BD7F     		.sleb128 -67
 5371 0826 00       		.byte	0
 5372 0827 10       		.uleb128 0x10
 5373 0828 700D0000 		.4byte	.LBB52
 5374 082c 22000000 		.4byte	.LBE52-.LBB52
 5375 0830 43080000 		.4byte	0x843
 5376 0834 12       		.uleb128 0x12
 5377 0835 7800     		.ascii	"x\000"
 5378 0837 01       		.byte	0x1
 5379 0838 4D01     		.2byte	0x14d
 5380 083a 81000000 		.4byte	0x81
 5381 083e 03       		.uleb128 0x3
 5382 083f 91       		.byte	0x91
 5383 0840 BC7F     		.sleb128 -68
 5384 0842 00       		.byte	0
 5385 0843 10       		.uleb128 0x10
 5386 0844 A40D0000 		.4byte	.LBB53
 5387 0848 1E000000 		.4byte	.LBE53-.LBB53
 5388 084c 5F080000 		.4byte	0x85f
 5389 0850 12       		.uleb128 0x12
 5390 0851 7800     		.ascii	"x\000"
 5391 0853 01       		.byte	0x1
 5392 0854 5701     		.2byte	0x157
 5393 0856 81000000 		.4byte	0x81
 5394 085a 03       		.uleb128 0x3
 5395 085b 91       		.byte	0x91
 5396 085c BB7F     		.sleb128 -69
 5397 085e 00       		.byte	0
 5398 085f 10       		.uleb128 0x10
 5399 0860 CC0D0000 		.4byte	.LBB54
 5400 0864 1E000000 		.4byte	.LBE54-.LBB54
 5401 0868 7B080000 		.4byte	0x87b
 5402 086c 12       		.uleb128 0x12
 5403 086d 7800     		.ascii	"x\000"
 5404 086f 01       		.byte	0x1
 5405 0870 5B01     		.2byte	0x15b
 5406 0872 81000000 		.4byte	0x81
 5407 0876 03       		.uleb128 0x3
 5408 0877 91       		.byte	0x91
 5409 0878 BA7F     		.sleb128 -70
 5410 087a 00       		.byte	0
 5411 087b 10       		.uleb128 0x10
 5412 087c FE0D0000 		.4byte	.LBB55
 5413 0880 1E000000 		.4byte	.LBE55-.LBB55
 5414 0884 97080000 		.4byte	0x897
 5415 0888 12       		.uleb128 0x12
 5416 0889 7800     		.ascii	"x\000"
 5417 088b 01       		.byte	0x1
 5418 088c 6001     		.2byte	0x160
 5419 088e 81000000 		.4byte	0x81
 5420 0892 03       		.uleb128 0x3
 5421 0893 91       		.byte	0x91
 5422 0894 B97F     		.sleb128 -71
 5423 0896 00       		.byte	0
 5424 0897 10       		.uleb128 0x10
 5425 0898 260E0000 		.4byte	.LBB56
 5426 089c 1E000000 		.4byte	.LBE56-.LBB56
ARM GAS  C:\Users\Diego\AppData\Local\Temp\ccnYGT0M.s 			page 114


 5427 08a0 B3080000 		.4byte	0x8b3
 5428 08a4 12       		.uleb128 0x12
 5429 08a5 7800     		.ascii	"x\000"
 5430 08a7 01       		.byte	0x1
 5431 08a8 6401     		.2byte	0x164
 5432 08aa 81000000 		.4byte	0x81
 5433 08ae 03       		.uleb128 0x3
 5434 08af 91       		.byte	0x91
 5435 08b0 B87F     		.sleb128 -72
 5436 08b2 00       		.byte	0
 5437 08b3 10       		.uleb128 0x10
 5438 08b4 4E0E0000 		.4byte	.LBB57
 5439 08b8 1E000000 		.4byte	.LBE57-.LBB57
 5440 08bc CF080000 		.4byte	0x8cf
 5441 08c0 12       		.uleb128 0x12
 5442 08c1 7800     		.ascii	"x\000"
 5443 08c3 01       		.byte	0x1
 5444 08c4 6801     		.2byte	0x168
 5445 08c6 81000000 		.4byte	0x81
 5446 08ca 03       		.uleb128 0x3
 5447 08cb 91       		.byte	0x91
 5448 08cc B77F     		.sleb128 -73
 5449 08ce 00       		.byte	0
 5450 08cf 10       		.uleb128 0x10
 5451 08d0 760E0000 		.4byte	.LBB58
 5452 08d4 1E000000 		.4byte	.LBE58-.LBB58
 5453 08d8 EB080000 		.4byte	0x8eb
 5454 08dc 12       		.uleb128 0x12
 5455 08dd 7800     		.ascii	"x\000"
 5456 08df 01       		.byte	0x1
 5457 08e0 6C01     		.2byte	0x16c
 5458 08e2 81000000 		.4byte	0x81
 5459 08e6 03       		.uleb128 0x3
 5460 08e7 91       		.byte	0x91
 5461 08e8 B67F     		.sleb128 -74
 5462 08ea 00       		.byte	0
 5463 08eb 13       		.uleb128 0x13
 5464 08ec C60E0000 		.4byte	.LBB59
 5465 08f0 1E000000 		.4byte	.LBE59-.LBB59
 5466 08f4 12       		.uleb128 0x12
 5467 08f5 7800     		.ascii	"x\000"
 5468 08f7 01       		.byte	0x1
 5469 08f8 7401     		.2byte	0x174
 5470 08fa 81000000 		.4byte	0x81
 5471 08fe 03       		.uleb128 0x3
 5472 08ff 91       		.byte	0x91
 5473 0900 B57F     		.sleb128 -75
 5474 0902 00       		.byte	0
 5475 0903 00       		.byte	0
 5476 0904 14       		.uleb128 0x14
 5477 0905 2A010000 		.4byte	.LASF42
 5478 0909 01       		.byte	0x1
 5479 090a 7901     		.2byte	0x179
 5480 090c 00000000 		.4byte	.LFB65
 5481 0910 D40E0000 		.4byte	.LFE65-.LFB65
 5482 0914 01       		.uleb128 0x1
 5483 0915 9C       		.byte	0x9c
ARM GAS  C:\Users\Diego\AppData\Local\Temp\ccnYGT0M.s 			page 115


 5484 0916 9F0E0000 		.4byte	0xe9f
 5485 091a 15       		.uleb128 0x15
 5486 091b B8040000 		.4byte	.LASF39
 5487 091f 01       		.byte	0x1
 5488 0920 7A01     		.2byte	0x17a
 5489 0922 81000000 		.4byte	0x81
 5490 0926 02       		.uleb128 0x2
 5491 0927 91       		.byte	0x91
 5492 0928 6F       		.sleb128 -17
 5493 0929 12       		.uleb128 0x12
 5494 092a 706F7300 		.ascii	"pos\000"
 5495 092e 01       		.byte	0x1
 5496 092f 7A01     		.2byte	0x17a
 5497 0931 81000000 		.4byte	0x81
 5498 0935 02       		.uleb128 0x2
 5499 0936 91       		.byte	0x91
 5500 0937 6E       		.sleb128 -18
 5501 0938 15       		.uleb128 0x15
 5502 0939 2D040000 		.4byte	.LASF43
 5503 093d 01       		.byte	0x1
 5504 093e 7C01     		.2byte	0x17c
 5505 0940 9F0E0000 		.4byte	0xe9f
 5506 0944 03       		.uleb128 0x3
 5507 0945 91       		.byte	0x91
 5508 0946 A47F     		.sleb128 -92
 5509 0948 15       		.uleb128 0x15
 5510 0949 54030000 		.4byte	.LASF44
 5511 094d 01       		.byte	0x1
 5512 094e 7C01     		.2byte	0x17c
 5513 0950 9F0E0000 		.4byte	0xe9f
 5514 0954 03       		.uleb128 0x3
 5515 0955 91       		.byte	0x91
 5516 0956 987F     		.sleb128 -104
 5517 0958 15       		.uleb128 0x15
 5518 0959 19040000 		.4byte	.LASF45
 5519 095d 01       		.byte	0x1
 5520 095e 7C01     		.2byte	0x17c
 5521 0960 9F0E0000 		.4byte	0xe9f
 5522 0964 03       		.uleb128 0x3
 5523 0965 91       		.byte	0x91
 5524 0966 8C7F     		.sleb128 -116
 5525 0968 15       		.uleb128 0x15
 5526 0969 10050000 		.4byte	.LASF46
 5527 096d 01       		.byte	0x1
 5528 096e 7C01     		.2byte	0x17c
 5529 0970 9F0E0000 		.4byte	0xe9f
 5530 0974 03       		.uleb128 0x3
 5531 0975 91       		.byte	0x91
 5532 0976 807F     		.sleb128 -128
 5533 0978 15       		.uleb128 0x15
 5534 0979 67030000 		.4byte	.LASF47
 5535 097d 01       		.byte	0x1
 5536 097e 7D01     		.2byte	0x17d
 5537 0980 99000000 		.4byte	0x99
 5538 0984 03       		.uleb128 0x3
 5539 0985 91       		.byte	0x91
 5540 0986 B47F     		.sleb128 -76
ARM GAS  C:\Users\Diego\AppData\Local\Temp\ccnYGT0M.s 			page 116


 5541 0988 15       		.uleb128 0x15
 5542 0989 40050000 		.4byte	.LASF48
 5543 098d 01       		.byte	0x1
 5544 098e 7D01     		.2byte	0x17d
 5545 0990 99000000 		.4byte	0x99
 5546 0994 03       		.uleb128 0x3
 5547 0995 91       		.byte	0x91
 5548 0996 B87F     		.sleb128 -72
 5549 0998 15       		.uleb128 0x15
 5550 0999 13040000 		.4byte	.LASF49
 5551 099d 01       		.byte	0x1
 5552 099e 7D01     		.2byte	0x17d
 5553 09a0 99000000 		.4byte	0x99
 5554 09a4 03       		.uleb128 0x3
 5555 09a5 91       		.byte	0x91
 5556 09a6 B07F     		.sleb128 -80
 5557 09a8 10       		.uleb128 0x10
 5558 09a9 0E000000 		.4byte	.LBB60
 5559 09ad 28000000 		.4byte	.LBE60-.LBB60
 5560 09b1 C5090000 		.4byte	0x9c5
 5561 09b5 15       		.uleb128 0x15
 5562 09b6 F0010000 		.4byte	.LASF40
 5563 09ba 01       		.byte	0x1
 5564 09bb 7F01     		.2byte	0x17f
 5565 09bd 81000000 		.4byte	0x81
 5566 09c1 02       		.uleb128 0x2
 5567 09c2 91       		.byte	0x91
 5568 09c3 6D       		.sleb128 -19
 5569 09c4 00       		.byte	0
 5570 09c5 10       		.uleb128 0x10
 5571 09c6 56000000 		.4byte	.LBB61
 5572 09ca 2E000000 		.4byte	.LBE61-.LBB61
 5573 09ce E2090000 		.4byte	0x9e2
 5574 09d2 15       		.uleb128 0x15
 5575 09d3 F0010000 		.4byte	.LASF40
 5576 09d7 01       		.byte	0x1
 5577 09d8 8601     		.2byte	0x186
 5578 09da 81000000 		.4byte	0x81
 5579 09de 02       		.uleb128 0x2
 5580 09df 91       		.byte	0x91
 5581 09e0 6C       		.sleb128 -20
 5582 09e1 00       		.byte	0
 5583 09e2 10       		.uleb128 0x10
 5584 09e3 00020000 		.4byte	.LBB62
 5585 09e7 32000000 		.4byte	.LBE62-.LBB62
 5586 09eb FD090000 		.4byte	0x9fd
 5587 09ef 12       		.uleb128 0x12
 5588 09f0 6900     		.ascii	"i\000"
 5589 09f2 01       		.byte	0x1
 5590 09f3 9501     		.2byte	0x195
 5591 09f5 81000000 		.4byte	0x81
 5592 09f9 02       		.uleb128 0x2
 5593 09fa 91       		.byte	0x91
 5594 09fb 6B       		.sleb128 -21
 5595 09fc 00       		.byte	0
 5596 09fd 10       		.uleb128 0x10
 5597 09fe 3C020000 		.4byte	.LBB63
ARM GAS  C:\Users\Diego\AppData\Local\Temp\ccnYGT0M.s 			page 117


 5598 0a02 28000000 		.4byte	.LBE63-.LBB63
 5599 0a06 180A0000 		.4byte	0xa18
 5600 0a0a 12       		.uleb128 0x12
 5601 0a0b 7800     		.ascii	"x\000"
 5602 0a0d 01       		.byte	0x1
 5603 0a0e 9901     		.2byte	0x199
 5604 0a10 81000000 		.4byte	0x81
 5605 0a14 02       		.uleb128 0x2
 5606 0a15 91       		.byte	0x91
 5607 0a16 6A       		.sleb128 -22
 5608 0a17 00       		.byte	0
 5609 0a18 10       		.uleb128 0x10
 5610 0a19 6E020000 		.4byte	.LBB64
 5611 0a1d 28000000 		.4byte	.LBE64-.LBB64
 5612 0a21 330A0000 		.4byte	0xa33
 5613 0a25 12       		.uleb128 0x12
 5614 0a26 7800     		.ascii	"x\000"
 5615 0a28 01       		.byte	0x1
 5616 0a29 9D01     		.2byte	0x19d
 5617 0a2b 81000000 		.4byte	0x81
 5618 0a2f 02       		.uleb128 0x2
 5619 0a30 91       		.byte	0x91
 5620 0a31 69       		.sleb128 -23
 5621 0a32 00       		.byte	0
 5622 0a33 10       		.uleb128 0x10
 5623 0a34 A0020000 		.4byte	.LBB65
 5624 0a38 28000000 		.4byte	.LBE65-.LBB65
 5625 0a3c 4E0A0000 		.4byte	0xa4e
 5626 0a40 12       		.uleb128 0x12
 5627 0a41 7800     		.ascii	"x\000"
 5628 0a43 01       		.byte	0x1
 5629 0a44 A101     		.2byte	0x1a1
 5630 0a46 81000000 		.4byte	0x81
 5631 0a4a 02       		.uleb128 0x2
 5632 0a4b 91       		.byte	0x91
 5633 0a4c 68       		.sleb128 -24
 5634 0a4d 00       		.byte	0
 5635 0a4e 10       		.uleb128 0x10
 5636 0a4f D2020000 		.4byte	.LBB66
 5637 0a53 28000000 		.4byte	.LBE66-.LBB66
 5638 0a57 690A0000 		.4byte	0xa69
 5639 0a5b 12       		.uleb128 0x12
 5640 0a5c 7800     		.ascii	"x\000"
 5641 0a5e 01       		.byte	0x1
 5642 0a5f A501     		.2byte	0x1a5
 5643 0a61 81000000 		.4byte	0x81
 5644 0a65 02       		.uleb128 0x2
 5645 0a66 91       		.byte	0x91
 5646 0a67 67       		.sleb128 -25
 5647 0a68 00       		.byte	0
 5648 0a69 10       		.uleb128 0x10
 5649 0a6a 04030000 		.4byte	.LBB67
 5650 0a6e 28000000 		.4byte	.LBE67-.LBB67
 5651 0a72 840A0000 		.4byte	0xa84
 5652 0a76 12       		.uleb128 0x12
 5653 0a77 7800     		.ascii	"x\000"
 5654 0a79 01       		.byte	0x1
ARM GAS  C:\Users\Diego\AppData\Local\Temp\ccnYGT0M.s 			page 118


 5655 0a7a A901     		.2byte	0x1a9
 5656 0a7c 81000000 		.4byte	0x81
 5657 0a80 02       		.uleb128 0x2
 5658 0a81 91       		.byte	0x91
 5659 0a82 66       		.sleb128 -26
 5660 0a83 00       		.byte	0
 5661 0a84 10       		.uleb128 0x10
 5662 0a85 36030000 		.4byte	.LBB68
 5663 0a89 62000000 		.4byte	.LBE68-.LBB68
 5664 0a8d 9F0A0000 		.4byte	0xa9f
 5665 0a91 12       		.uleb128 0x12
 5666 0a92 7800     		.ascii	"x\000"
 5667 0a94 01       		.byte	0x1
 5668 0a95 AE01     		.2byte	0x1ae
 5669 0a97 81000000 		.4byte	0x81
 5670 0a9b 02       		.uleb128 0x2
 5671 0a9c 91       		.byte	0x91
 5672 0a9d 65       		.sleb128 -27
 5673 0a9e 00       		.byte	0
 5674 0a9f 10       		.uleb128 0x10
 5675 0aa0 20040000 		.4byte	.LBB69
 5676 0aa4 28000000 		.4byte	.LBE69-.LBB69
 5677 0aa8 BA0A0000 		.4byte	0xaba
 5678 0aac 12       		.uleb128 0x12
 5679 0aad 7800     		.ascii	"x\000"
 5680 0aaf 01       		.byte	0x1
 5681 0ab0 BC01     		.2byte	0x1bc
 5682 0ab2 81000000 		.4byte	0x81
 5683 0ab6 02       		.uleb128 0x2
 5684 0ab7 91       		.byte	0x91
 5685 0ab8 64       		.sleb128 -28
 5686 0ab9 00       		.byte	0
 5687 0aba 10       		.uleb128 0x10
 5688 0abb D0040000 		.4byte	.LBB70
 5689 0abf 28000000 		.4byte	.LBE70-.LBB70
 5690 0ac3 D50A0000 		.4byte	0xad5
 5691 0ac7 12       		.uleb128 0x12
 5692 0ac8 7800     		.ascii	"x\000"
 5693 0aca 01       		.byte	0x1
 5694 0acb C801     		.2byte	0x1c8
 5695 0acd 81000000 		.4byte	0x81
 5696 0ad1 02       		.uleb128 0x2
 5697 0ad2 91       		.byte	0x91
 5698 0ad3 63       		.sleb128 -29
 5699 0ad4 00       		.byte	0
 5700 0ad5 10       		.uleb128 0x10
 5701 0ad6 02050000 		.4byte	.LBB71
 5702 0ada 28000000 		.4byte	.LBE71-.LBB71
 5703 0ade F00A0000 		.4byte	0xaf0
 5704 0ae2 12       		.uleb128 0x12
 5705 0ae3 7800     		.ascii	"x\000"
 5706 0ae5 01       		.byte	0x1
 5707 0ae6 CD01     		.2byte	0x1cd
 5708 0ae8 81000000 		.4byte	0x81
 5709 0aec 02       		.uleb128 0x2
 5710 0aed 91       		.byte	0x91
 5711 0aee 62       		.sleb128 -30
ARM GAS  C:\Users\Diego\AppData\Local\Temp\ccnYGT0M.s 			page 119


 5712 0aef 00       		.byte	0
 5713 0af0 10       		.uleb128 0x10
 5714 0af1 2A050000 		.4byte	.LBB72
 5715 0af5 28000000 		.4byte	.LBE72-.LBB72
 5716 0af9 0B0B0000 		.4byte	0xb0b
 5717 0afd 12       		.uleb128 0x12
 5718 0afe 7800     		.ascii	"x\000"
 5719 0b00 01       		.byte	0x1
 5720 0b01 D001     		.2byte	0x1d0
 5721 0b03 81000000 		.4byte	0x81
 5722 0b07 02       		.uleb128 0x2
 5723 0b08 91       		.byte	0x91
 5724 0b09 61       		.sleb128 -31
 5725 0b0a 00       		.byte	0
 5726 0b0b 10       		.uleb128 0x10
 5727 0b0c 66050000 		.4byte	.LBB73
 5728 0b10 28000000 		.4byte	.LBE73-.LBB73
 5729 0b14 260B0000 		.4byte	0xb26
 5730 0b18 12       		.uleb128 0x12
 5731 0b19 7800     		.ascii	"x\000"
 5732 0b1b 01       		.byte	0x1
 5733 0b1c D501     		.2byte	0x1d5
 5734 0b1e 81000000 		.4byte	0x81
 5735 0b22 02       		.uleb128 0x2
 5736 0b23 91       		.byte	0x91
 5737 0b24 60       		.sleb128 -32
 5738 0b25 00       		.byte	0
 5739 0b26 10       		.uleb128 0x10
 5740 0b27 A6050000 		.4byte	.LBB74
 5741 0b2b 28000000 		.4byte	.LBE74-.LBB74
 5742 0b2f 410B0000 		.4byte	0xb41
 5743 0b33 12       		.uleb128 0x12
 5744 0b34 7800     		.ascii	"x\000"
 5745 0b36 01       		.byte	0x1
 5746 0b37 DA01     		.2byte	0x1da
 5747 0b39 81000000 		.4byte	0x81
 5748 0b3d 02       		.uleb128 0x2
 5749 0b3e 91       		.byte	0x91
 5750 0b3f 5F       		.sleb128 -33
 5751 0b40 00       		.byte	0
 5752 0b41 10       		.uleb128 0x10
 5753 0b42 D8050000 		.4byte	.LBB75
 5754 0b46 42000000 		.4byte	.LBE75-.LBB75
 5755 0b4a 5C0B0000 		.4byte	0xb5c
 5756 0b4e 12       		.uleb128 0x12
 5757 0b4f 7800     		.ascii	"x\000"
 5758 0b51 01       		.byte	0x1
 5759 0b52 DF01     		.2byte	0x1df
 5760 0b54 81000000 		.4byte	0x81
 5761 0b58 02       		.uleb128 0x2
 5762 0b59 91       		.byte	0x91
 5763 0b5a 5E       		.sleb128 -34
 5764 0b5b 00       		.byte	0
 5765 0b5c 10       		.uleb128 0x10
 5766 0b5d 24060000 		.4byte	.LBB76
 5767 0b61 36000000 		.4byte	.LBE76-.LBB76
 5768 0b65 770B0000 		.4byte	0xb77
ARM GAS  C:\Users\Diego\AppData\Local\Temp\ccnYGT0M.s 			page 120


 5769 0b69 12       		.uleb128 0x12
 5770 0b6a 7800     		.ascii	"x\000"
 5771 0b6c 01       		.byte	0x1
 5772 0b6d E501     		.2byte	0x1e5
 5773 0b6f 81000000 		.4byte	0x81
 5774 0b73 02       		.uleb128 0x2
 5775 0b74 91       		.byte	0x91
 5776 0b75 5D       		.sleb128 -35
 5777 0b76 00       		.byte	0
 5778 0b77 10       		.uleb128 0x10
 5779 0b78 5A060000 		.4byte	.LBB77
 5780 0b7c 28000000 		.4byte	.LBE77-.LBB77
 5781 0b80 920B0000 		.4byte	0xb92
 5782 0b84 12       		.uleb128 0x12
 5783 0b85 7800     		.ascii	"x\000"
 5784 0b87 01       		.byte	0x1
 5785 0b88 EA01     		.2byte	0x1ea
 5786 0b8a 81000000 		.4byte	0x81
 5787 0b8e 02       		.uleb128 0x2
 5788 0b8f 91       		.byte	0x91
 5789 0b90 5C       		.sleb128 -36
 5790 0b91 00       		.byte	0
 5791 0b92 10       		.uleb128 0x10
 5792 0b93 8C060000 		.4byte	.LBB78
 5793 0b97 6C000000 		.4byte	.LBE78-.LBB78
 5794 0b9b AD0B0000 		.4byte	0xbad
 5795 0b9f 12       		.uleb128 0x12
 5796 0ba0 7800     		.ascii	"x\000"
 5797 0ba2 01       		.byte	0x1
 5798 0ba3 EE01     		.2byte	0x1ee
 5799 0ba5 81000000 		.4byte	0x81
 5800 0ba9 02       		.uleb128 0x2
 5801 0baa 91       		.byte	0x91
 5802 0bab 5B       		.sleb128 -37
 5803 0bac 00       		.byte	0
 5804 0bad 10       		.uleb128 0x10
 5805 0bae F8060000 		.4byte	.LBB79
 5806 0bb2 44000000 		.4byte	.LBE79-.LBB79
 5807 0bb6 C80B0000 		.4byte	0xbc8
 5808 0bba 12       		.uleb128 0x12
 5809 0bbb 7800     		.ascii	"x\000"
 5810 0bbd 01       		.byte	0x1
 5811 0bbe F101     		.2byte	0x1f1
 5812 0bc0 81000000 		.4byte	0x81
 5813 0bc4 02       		.uleb128 0x2
 5814 0bc5 91       		.byte	0x91
 5815 0bc6 5A       		.sleb128 -38
 5816 0bc7 00       		.byte	0
 5817 0bc8 10       		.uleb128 0x10
 5818 0bc9 46070000 		.4byte	.LBB80
 5819 0bcd 6E000000 		.4byte	.LBE80-.LBB80
 5820 0bd1 E30B0000 		.4byte	0xbe3
 5821 0bd5 12       		.uleb128 0x12
 5822 0bd6 7800     		.ascii	"x\000"
 5823 0bd8 01       		.byte	0x1
 5824 0bd9 F801     		.2byte	0x1f8
 5825 0bdb 81000000 		.4byte	0x81
ARM GAS  C:\Users\Diego\AppData\Local\Temp\ccnYGT0M.s 			page 121


 5826 0bdf 02       		.uleb128 0x2
 5827 0be0 91       		.byte	0x91
 5828 0be1 59       		.sleb128 -39
 5829 0be2 00       		.byte	0
 5830 0be3 10       		.uleb128 0x10
 5831 0be4 E4070000 		.4byte	.LBB81
 5832 0be8 28000000 		.4byte	.LBE81-.LBB81
 5833 0bec FE0B0000 		.4byte	0xbfe
 5834 0bf0 12       		.uleb128 0x12
 5835 0bf1 7800     		.ascii	"x\000"
 5836 0bf3 01       		.byte	0x1
 5837 0bf4 0302     		.2byte	0x203
 5838 0bf6 81000000 		.4byte	0x81
 5839 0bfa 02       		.uleb128 0x2
 5840 0bfb 91       		.byte	0x91
 5841 0bfc 58       		.sleb128 -40
 5842 0bfd 00       		.byte	0
 5843 0bfe 10       		.uleb128 0x10
 5844 0bff 16080000 		.4byte	.LBB82
 5845 0c03 44000000 		.4byte	.LBE82-.LBB82
 5846 0c07 190C0000 		.4byte	0xc19
 5847 0c0b 12       		.uleb128 0x12
 5848 0c0c 7800     		.ascii	"x\000"
 5849 0c0e 01       		.byte	0x1
 5850 0c0f 0702     		.2byte	0x207
 5851 0c11 81000000 		.4byte	0x81
 5852 0c15 02       		.uleb128 0x2
 5853 0c16 91       		.byte	0x91
 5854 0c17 57       		.sleb128 -41
 5855 0c18 00       		.byte	0
 5856 0c19 10       		.uleb128 0x10
 5857 0c1a 64080000 		.4byte	.LBB83
 5858 0c1e 28000000 		.4byte	.LBE83-.LBB83
 5859 0c22 340C0000 		.4byte	0xc34
 5860 0c26 12       		.uleb128 0x12
 5861 0c27 7800     		.ascii	"x\000"
 5862 0c29 01       		.byte	0x1
 5863 0c2a 0D02     		.2byte	0x20d
 5864 0c2c 81000000 		.4byte	0x81
 5865 0c30 02       		.uleb128 0x2
 5866 0c31 91       		.byte	0x91
 5867 0c32 56       		.sleb128 -42
 5868 0c33 00       		.byte	0
 5869 0c34 10       		.uleb128 0x10
 5870 0c35 96080000 		.4byte	.LBB84
 5871 0c39 28000000 		.4byte	.LBE84-.LBB84
 5872 0c3d 4F0C0000 		.4byte	0xc4f
 5873 0c41 12       		.uleb128 0x12
 5874 0c42 7800     		.ascii	"x\000"
 5875 0c44 01       		.byte	0x1
 5876 0c45 1102     		.2byte	0x211
 5877 0c47 81000000 		.4byte	0x81
 5878 0c4b 02       		.uleb128 0x2
 5879 0c4c 91       		.byte	0x91
 5880 0c4d 55       		.sleb128 -43
 5881 0c4e 00       		.byte	0
 5882 0c4f 10       		.uleb128 0x10
ARM GAS  C:\Users\Diego\AppData\Local\Temp\ccnYGT0M.s 			page 122


 5883 0c50 D8080000 		.4byte	.LBB85
 5884 0c54 28000000 		.4byte	.LBE85-.LBB85
 5885 0c58 6A0C0000 		.4byte	0xc6a
 5886 0c5c 12       		.uleb128 0x12
 5887 0c5d 7800     		.ascii	"x\000"
 5888 0c5f 01       		.byte	0x1
 5889 0c60 1602     		.2byte	0x216
 5890 0c62 81000000 		.4byte	0x81
 5891 0c66 02       		.uleb128 0x2
 5892 0c67 91       		.byte	0x91
 5893 0c68 54       		.sleb128 -44
 5894 0c69 00       		.byte	0
 5895 0c6a 10       		.uleb128 0x10
 5896 0c6b 0A090000 		.4byte	.LBB86
 5897 0c6f 42000000 		.4byte	.LBE86-.LBB86
 5898 0c73 850C0000 		.4byte	0xc85
 5899 0c77 12       		.uleb128 0x12
 5900 0c78 7800     		.ascii	"x\000"
 5901 0c7a 01       		.byte	0x1
 5902 0c7b 1A02     		.2byte	0x21a
 5903 0c7d 81000000 		.4byte	0x81
 5904 0c81 02       		.uleb128 0x2
 5905 0c82 91       		.byte	0x91
 5906 0c83 53       		.sleb128 -45
 5907 0c84 00       		.byte	0
 5908 0c85 10       		.uleb128 0x10
 5909 0c86 56090000 		.4byte	.LBB87
 5910 0c8a 28000000 		.4byte	.LBE87-.LBB87
 5911 0c8e A00C0000 		.4byte	0xca0
 5912 0c92 12       		.uleb128 0x12
 5913 0c93 7800     		.ascii	"x\000"
 5914 0c95 01       		.byte	0x1
 5915 0c96 2002     		.2byte	0x220
 5916 0c98 81000000 		.4byte	0x81
 5917 0c9c 02       		.uleb128 0x2
 5918 0c9d 91       		.byte	0x91
 5919 0c9e 52       		.sleb128 -46
 5920 0c9f 00       		.byte	0
 5921 0ca0 10       		.uleb128 0x10
 5922 0ca1 88090000 		.4byte	.LBB88
 5923 0ca5 3C000000 		.4byte	.LBE88-.LBB88
 5924 0ca9 BB0C0000 		.4byte	0xcbb
 5925 0cad 12       		.uleb128 0x12
 5926 0cae 7800     		.ascii	"x\000"
 5927 0cb0 01       		.byte	0x1
 5928 0cb1 2402     		.2byte	0x224
 5929 0cb3 81000000 		.4byte	0x81
 5930 0cb7 02       		.uleb128 0x2
 5931 0cb8 91       		.byte	0x91
 5932 0cb9 51       		.sleb128 -47
 5933 0cba 00       		.byte	0
 5934 0cbb 10       		.uleb128 0x10
 5935 0cbc C4090000 		.4byte	.LBB89
 5936 0cc0 44000000 		.4byte	.LBE89-.LBB89
 5937 0cc4 D60C0000 		.4byte	0xcd6
 5938 0cc8 12       		.uleb128 0x12
 5939 0cc9 7800     		.ascii	"x\000"
ARM GAS  C:\Users\Diego\AppData\Local\Temp\ccnYGT0M.s 			page 123


 5940 0ccb 01       		.byte	0x1
 5941 0ccc 2702     		.2byte	0x227
 5942 0cce 81000000 		.4byte	0x81
 5943 0cd2 02       		.uleb128 0x2
 5944 0cd3 91       		.byte	0x91
 5945 0cd4 50       		.sleb128 -48
 5946 0cd5 00       		.byte	0
 5947 0cd6 10       		.uleb128 0x10
 5948 0cd7 120A0000 		.4byte	.LBB90
 5949 0cdb 8E000000 		.4byte	.LBE90-.LBB90
 5950 0cdf F10C0000 		.4byte	0xcf1
 5951 0ce3 12       		.uleb128 0x12
 5952 0ce4 7800     		.ascii	"x\000"
 5953 0ce6 01       		.byte	0x1
 5954 0ce7 2D02     		.2byte	0x22d
 5955 0ce9 81000000 		.4byte	0x81
 5956 0ced 02       		.uleb128 0x2
 5957 0cee 91       		.byte	0x91
 5958 0cef 4F       		.sleb128 -49
 5959 0cf0 00       		.byte	0
 5960 0cf1 10       		.uleb128 0x10
 5961 0cf2 D00A0000 		.4byte	.LBB91
 5962 0cf6 28000000 		.4byte	.LBE91-.LBB91
 5963 0cfa 0C0D0000 		.4byte	0xd0c
 5964 0cfe 12       		.uleb128 0x12
 5965 0cff 7800     		.ascii	"x\000"
 5966 0d01 01       		.byte	0x1
 5967 0d02 3702     		.2byte	0x237
 5968 0d04 81000000 		.4byte	0x81
 5969 0d08 02       		.uleb128 0x2
 5970 0d09 91       		.byte	0x91
 5971 0d0a 4E       		.sleb128 -50
 5972 0d0b 00       		.byte	0
 5973 0d0c 10       		.uleb128 0x10
 5974 0d0d 020B0000 		.4byte	.LBB92
 5975 0d11 44000000 		.4byte	.LBE92-.LBB92
 5976 0d15 270D0000 		.4byte	0xd27
 5977 0d19 12       		.uleb128 0x12
 5978 0d1a 7800     		.ascii	"x\000"
 5979 0d1c 01       		.byte	0x1
 5980 0d1d 3B02     		.2byte	0x23b
 5981 0d1f 81000000 		.4byte	0x81
 5982 0d23 02       		.uleb128 0x2
 5983 0d24 91       		.byte	0x91
 5984 0d25 4D       		.sleb128 -51
 5985 0d26 00       		.byte	0
 5986 0d27 10       		.uleb128 0x10
 5987 0d28 5C0B0000 		.4byte	.LBB93
 5988 0d2c 28000000 		.4byte	.LBE93-.LBB93
 5989 0d30 420D0000 		.4byte	0xd42
 5990 0d34 12       		.uleb128 0x12
 5991 0d35 7800     		.ascii	"x\000"
 5992 0d37 01       		.byte	0x1
 5993 0d38 4302     		.2byte	0x243
 5994 0d3a 81000000 		.4byte	0x81
 5995 0d3e 02       		.uleb128 0x2
 5996 0d3f 91       		.byte	0x91
ARM GAS  C:\Users\Diego\AppData\Local\Temp\ccnYGT0M.s 			page 124


 5997 0d40 4C       		.sleb128 -52
 5998 0d41 00       		.byte	0
 5999 0d42 10       		.uleb128 0x10
 6000 0d43 8E0B0000 		.4byte	.LBB94
 6001 0d47 28000000 		.4byte	.LBE94-.LBB94
 6002 0d4b 5D0D0000 		.4byte	0xd5d
 6003 0d4f 12       		.uleb128 0x12
 6004 0d50 7800     		.ascii	"x\000"
 6005 0d52 01       		.byte	0x1
 6006 0d53 4702     		.2byte	0x247
 6007 0d55 81000000 		.4byte	0x81
 6008 0d59 02       		.uleb128 0x2
 6009 0d5a 91       		.byte	0x91
 6010 0d5b 4B       		.sleb128 -53
 6011 0d5c 00       		.byte	0
 6012 0d5d 10       		.uleb128 0x10
 6013 0d5e D00B0000 		.4byte	.LBB95
 6014 0d62 42000000 		.4byte	.LBE95-.LBB95
 6015 0d66 780D0000 		.4byte	0xd78
 6016 0d6a 12       		.uleb128 0x12
 6017 0d6b 7800     		.ascii	"x\000"
 6018 0d6d 01       		.byte	0x1
 6019 0d6e 4C02     		.2byte	0x24c
 6020 0d70 81000000 		.4byte	0x81
 6021 0d74 02       		.uleb128 0x2
 6022 0d75 91       		.byte	0x91
 6023 0d76 4A       		.sleb128 -54
 6024 0d77 00       		.byte	0
 6025 0d78 10       		.uleb128 0x10
 6026 0d79 1C0C0000 		.4byte	.LBB96
 6027 0d7d 28000000 		.4byte	.LBE96-.LBB96
 6028 0d81 930D0000 		.4byte	0xd93
 6029 0d85 12       		.uleb128 0x12
 6030 0d86 7800     		.ascii	"x\000"
 6031 0d88 01       		.byte	0x1
 6032 0d89 5202     		.2byte	0x252
 6033 0d8b 81000000 		.4byte	0x81
 6034 0d8f 02       		.uleb128 0x2
 6035 0d90 91       		.byte	0x91
 6036 0d91 49       		.sleb128 -55
 6037 0d92 00       		.byte	0
 6038 0d93 10       		.uleb128 0x10
 6039 0d94 4E0C0000 		.4byte	.LBB97
 6040 0d98 28000000 		.4byte	.LBE97-.LBB97
 6041 0d9c AE0D0000 		.4byte	0xdae
 6042 0da0 12       		.uleb128 0x12
 6043 0da1 7800     		.ascii	"x\000"
 6044 0da3 01       		.byte	0x1
 6045 0da4 5602     		.2byte	0x256
 6046 0da6 81000000 		.4byte	0x81
 6047 0daa 02       		.uleb128 0x2
 6048 0dab 91       		.byte	0x91
 6049 0dac 48       		.sleb128 -56
 6050 0dad 00       		.byte	0
 6051 0dae 10       		.uleb128 0x10
 6052 0daf 800C0000 		.4byte	.LBB98
 6053 0db3 28000000 		.4byte	.LBE98-.LBB98
ARM GAS  C:\Users\Diego\AppData\Local\Temp\ccnYGT0M.s 			page 125


 6054 0db7 C90D0000 		.4byte	0xdc9
 6055 0dbb 12       		.uleb128 0x12
 6056 0dbc 7800     		.ascii	"x\000"
 6057 0dbe 01       		.byte	0x1
 6058 0dbf 5A02     		.2byte	0x25a
 6059 0dc1 81000000 		.4byte	0x81
 6060 0dc5 02       		.uleb128 0x2
 6061 0dc6 91       		.byte	0x91
 6062 0dc7 47       		.sleb128 -57
 6063 0dc8 00       		.byte	0
 6064 0dc9 10       		.uleb128 0x10
 6065 0dca C20C0000 		.4byte	.LBB99
 6066 0dce 42000000 		.4byte	.LBE99-.LBB99
 6067 0dd2 E40D0000 		.4byte	0xde4
 6068 0dd6 12       		.uleb128 0x12
 6069 0dd7 7800     		.ascii	"x\000"
 6070 0dd9 01       		.byte	0x1
 6071 0dda 5F02     		.2byte	0x25f
 6072 0ddc 81000000 		.4byte	0x81
 6073 0de0 02       		.uleb128 0x2
 6074 0de1 91       		.byte	0x91
 6075 0de2 46       		.sleb128 -58
 6076 0de3 00       		.byte	0
 6077 0de4 10       		.uleb128 0x10
 6078 0de5 0E0D0000 		.4byte	.LBB100
 6079 0de9 28000000 		.4byte	.LBE100-.LBB100
 6080 0ded FF0D0000 		.4byte	0xdff
 6081 0df1 12       		.uleb128 0x12
 6082 0df2 7800     		.ascii	"x\000"
 6083 0df4 01       		.byte	0x1
 6084 0df5 6502     		.2byte	0x265
 6085 0df7 81000000 		.4byte	0x81
 6086 0dfb 02       		.uleb128 0x2
 6087 0dfc 91       		.byte	0x91
 6088 0dfd 45       		.sleb128 -59
 6089 0dfe 00       		.byte	0
 6090 0dff 10       		.uleb128 0x10
 6091 0e00 360D0000 		.4byte	.LBB101
 6092 0e04 28000000 		.4byte	.LBE101-.LBB101
 6093 0e08 1A0E0000 		.4byte	0xe1a
 6094 0e0c 12       		.uleb128 0x12
 6095 0e0d 7800     		.ascii	"x\000"
 6096 0e0f 01       		.byte	0x1
 6097 0e10 6902     		.2byte	0x269
 6098 0e12 81000000 		.4byte	0x81
 6099 0e16 02       		.uleb128 0x2
 6100 0e17 91       		.byte	0x91
 6101 0e18 44       		.sleb128 -60
 6102 0e19 00       		.byte	0
 6103 0e1a 10       		.uleb128 0x10
 6104 0e1b 680D0000 		.4byte	.LBB102
 6105 0e1f 48000000 		.4byte	.LBE102-.LBB102
 6106 0e23 350E0000 		.4byte	0xe35
 6107 0e27 12       		.uleb128 0x12
 6108 0e28 7800     		.ascii	"x\000"
 6109 0e2a 01       		.byte	0x1
 6110 0e2b 6F02     		.2byte	0x26f
ARM GAS  C:\Users\Diego\AppData\Local\Temp\ccnYGT0M.s 			page 126


 6111 0e2d 81000000 		.4byte	0x81
 6112 0e31 02       		.uleb128 0x2
 6113 0e32 91       		.byte	0x91
 6114 0e33 43       		.sleb128 -61
 6115 0e34 00       		.byte	0
 6116 0e35 10       		.uleb128 0x10
 6117 0e36 BA0D0000 		.4byte	.LBB103
 6118 0e3a 28000000 		.4byte	.LBE103-.LBB103
 6119 0e3e 500E0000 		.4byte	0xe50
 6120 0e42 12       		.uleb128 0x12
 6121 0e43 7800     		.ascii	"x\000"
 6122 0e45 01       		.byte	0x1
 6123 0e46 7302     		.2byte	0x273
 6124 0e48 81000000 		.4byte	0x81
 6125 0e4c 02       		.uleb128 0x2
 6126 0e4d 91       		.byte	0x91
 6127 0e4e 42       		.sleb128 -62
 6128 0e4f 00       		.byte	0
 6129 0e50 10       		.uleb128 0x10
 6130 0e51 EC0D0000 		.4byte	.LBB104
 6131 0e55 28000000 		.4byte	.LBE104-.LBB104
 6132 0e59 6B0E0000 		.4byte	0xe6b
 6133 0e5d 12       		.uleb128 0x12
 6134 0e5e 7800     		.ascii	"x\000"
 6135 0e60 01       		.byte	0x1
 6136 0e61 7702     		.2byte	0x277
 6137 0e63 81000000 		.4byte	0x81
 6138 0e67 02       		.uleb128 0x2
 6139 0e68 91       		.byte	0x91
 6140 0e69 41       		.sleb128 -63
 6141 0e6a 00       		.byte	0
 6142 0e6b 10       		.uleb128 0x10
 6143 0e6c 460E0000 		.4byte	.LBB105
 6144 0e70 38000000 		.4byte	.LBE105-.LBB105
 6145 0e74 860E0000 		.4byte	0xe86
 6146 0e78 12       		.uleb128 0x12
 6147 0e79 7800     		.ascii	"x\000"
 6148 0e7b 01       		.byte	0x1
 6149 0e7c 7F02     		.2byte	0x27f
 6150 0e7e 81000000 		.4byte	0x81
 6151 0e82 02       		.uleb128 0x2
 6152 0e83 91       		.byte	0x91
 6153 0e84 40       		.sleb128 -64
 6154 0e85 00       		.byte	0
 6155 0e86 13       		.uleb128 0x13
 6156 0e87 7E0E0000 		.4byte	.LBB106
 6157 0e8b 38000000 		.4byte	.LBE106-.LBB106
 6158 0e8f 12       		.uleb128 0x12
 6159 0e90 7800     		.ascii	"x\000"
 6160 0e92 01       		.byte	0x1
 6161 0e93 8202     		.2byte	0x282
 6162 0e95 81000000 		.4byte	0x81
 6163 0e99 03       		.uleb128 0x3
 6164 0e9a 91       		.byte	0x91
 6165 0e9b BF7F     		.sleb128 -65
 6166 0e9d 00       		.byte	0
 6167 0e9e 00       		.byte	0
ARM GAS  C:\Users\Diego\AppData\Local\Temp\ccnYGT0M.s 			page 127


 6168 0e9f 0B       		.uleb128 0xb
 6169 0ea0 BF000000 		.4byte	0xbf
 6170 0ea4 AF0E0000 		.4byte	0xeaf
 6171 0ea8 0C       		.uleb128 0xc
 6172 0ea9 D9000000 		.4byte	0xd9
 6173 0ead 09       		.byte	0x9
 6174 0eae 00       		.byte	0
 6175 0eaf 16       		.uleb128 0x16
 6176 0eb0 F6030000 		.4byte	.LASF50
 6177 0eb4 06       		.byte	0x6
 6178 0eb5 1207     		.2byte	0x712
 6179 0eb7 BB0E0000 		.4byte	0xebb
 6180 0ebb 17       		.uleb128 0x17
 6181 0ebc 76000000 		.4byte	0x76
 6182 0ec0 18       		.uleb128 0x18
 6183 0ec1 3E030000 		.4byte	.LASF51
 6184 0ec5 05       		.byte	0x5
 6185 0ec6 10       		.byte	0x10
 6186 0ec7 8D000000 		.4byte	0x8d
 6187 0ecb 05       		.uleb128 0x5
 6188 0ecc 03       		.byte	0x3
 6189 0ecd 00000000 		.4byte	PollCounter
 6190 0ed1 18       		.uleb128 0x18
 6191 0ed2 99030000 		.4byte	.LASF52
 6192 0ed6 05       		.byte	0x5
 6193 0ed7 11       		.byte	0x11
 6194 0ed8 81000000 		.4byte	0x81
 6195 0edc 05       		.uleb128 0x5
 6196 0edd 03       		.byte	0x3
 6197 0ede 00000000 		.4byte	CurrentState
 6198 0ee2 18       		.uleb128 0x18
 6199 0ee3 4B010000 		.4byte	.LASF53
 6200 0ee7 05       		.byte	0x5
 6201 0ee8 12       		.byte	0x12
 6202 0ee9 81000000 		.4byte	0x81
 6203 0eed 05       		.uleb128 0x5
 6204 0eee 03       		.byte	0x3
 6205 0eef 00000000 		.4byte	Receipt
 6206 0ef3 0B       		.uleb128 0xb
 6207 0ef4 81000000 		.4byte	0x81
 6208 0ef8 030F0000 		.4byte	0xf03
 6209 0efc 0C       		.uleb128 0xc
 6210 0efd D9000000 		.4byte	0xd9
 6211 0f01 05       		.byte	0x5
 6212 0f02 00       		.byte	0
 6213 0f03 18       		.uleb128 0x18
 6214 0f04 3A000000 		.4byte	.LASF54
 6215 0f08 05       		.byte	0x5
 6216 0f09 13       		.byte	0x13
 6217 0f0a F30E0000 		.4byte	0xef3
 6218 0f0e 05       		.uleb128 0x5
 6219 0f0f 03       		.byte	0x3
 6220 0f10 00000000 		.4byte	sale_number
 6221 0f14 18       		.uleb128 0x18
 6222 0f15 CB020000 		.4byte	.LASF55
 6223 0f19 05       		.byte	0x5
 6224 0f1a 14       		.byte	0x14
ARM GAS  C:\Users\Diego\AppData\Local\Temp\ccnYGT0M.s 			page 128


 6225 0f1b F30E0000 		.4byte	0xef3
 6226 0f1f 05       		.uleb128 0x5
 6227 0f20 03       		.byte	0x3
 6228 0f21 00000000 		.4byte	sale_number_copy
 6229 0f25 18       		.uleb128 0x18
 6230 0f26 13000000 		.4byte	.LASF56
 6231 0f2a 05       		.byte	0x5
 6232 0f2b 15       		.byte	0x15
 6233 0f2c 81000000 		.4byte	0x81
 6234 0f30 05       		.uleb128 0x5
 6235 0f31 03       		.byte	0x3
 6236 0f32 00000000 		.4byte	int_salenumber
 6237 0f36 18       		.uleb128 0x18
 6238 0f37 ED040000 		.4byte	.LASF57
 6239 0f3b 05       		.byte	0x5
 6240 0f3c 16       		.byte	0x16
 6241 0f3d F30E0000 		.4byte	0xef3
 6242 0f41 05       		.uleb128 0x5
 6243 0f42 03       		.byte	0x3
 6244 0f43 00000000 		.4byte	shift_number
 6245 0f47 18       		.uleb128 0x18
 6246 0f48 5D020000 		.4byte	.LASF58
 6247 0f4c 05       		.byte	0x5
 6248 0f4d 17       		.byte	0x17
 6249 0f4e 81000000 		.4byte	0x81
 6250 0f52 05       		.uleb128 0x5
 6251 0f53 03       		.byte	0x3
 6252 0f54 00000000 		.4byte	int_shiftnumber
 6253 0f58 18       		.uleb128 0x18
 6254 0f59 6D020000 		.4byte	.LASF59
 6255 0f5d 05       		.byte	0x5
 6256 0f5e 18       		.byte	0x18
 6257 0f5f 81000000 		.4byte	0x81
 6258 0f63 05       		.uleb128 0x5
 6259 0f64 03       		.byte	0x3
 6260 0f65 00000000 		.4byte	LCDhose
 6261 0f69 18       		.uleb128 0x18
 6262 0f6a E5000000 		.4byte	.LASF60
 6263 0f6e 05       		.byte	0x5
 6264 0f6f 3F       		.byte	0x3f
 6265 0f70 90020000 		.4byte	0x290
 6266 0f74 05       		.uleb128 0x5
 6267 0f75 03       		.byte	0x3
 6268 0f76 00000000 		.4byte	side
 6269 0f7a 18       		.uleb128 0x18
 6270 0f7b 5B040000 		.4byte	.LASF61
 6271 0f7f 05       		.byte	0x5
 6272 0f80 48       		.byte	0x48
 6273 0f81 2E020000 		.4byte	0x22e
 6274 0f85 05       		.uleb128 0x5
 6275 0f86 03       		.byte	0x3
 6276 0f87 00000000 		.4byte	MepsanResponse
 6277 0f8b 18       		.uleb128 0x18
 6278 0f8c 75030000 		.4byte	.LASF62
 6279 0f90 05       		.byte	0x5
 6280 0f91 49       		.byte	0x49
 6281 0f92 2E020000 		.4byte	0x22e
ARM GAS  C:\Users\Diego\AppData\Local\Temp\ccnYGT0M.s 			page 129


 6282 0f96 05       		.uleb128 0x5
 6283 0f97 03       		.byte	0x3
 6284 0f98 00000000 		.4byte	MepsanSendTo
 6285 0f9c 0B       		.uleb128 0xb
 6286 0f9d 81000000 		.4byte	0x81
 6287 0fa1 AC0F0000 		.4byte	0xfac
 6288 0fa5 0C       		.uleb128 0xc
 6289 0fa6 D9000000 		.4byte	0xd9
 6290 0faa 0E       		.byte	0xe
 6291 0fab 00       		.byte	0
 6292 0fac 18       		.uleb128 0x18
 6293 0fad 07000000 		.4byte	.LASF63
 6294 0fb1 05       		.byte	0x5
 6295 0fb2 4A       		.byte	0x4a
 6296 0fb3 9C0F0000 		.4byte	0xf9c
 6297 0fb7 05       		.uleb128 0x5
 6298 0fb8 03       		.byte	0x3
 6299 0fb9 00000000 		.4byte	PumpAddress
 6300 0fbd 18       		.uleb128 0x18
 6301 0fbe 2F000000 		.4byte	.LASF64
 6302 0fc2 05       		.byte	0x5
 6303 0fc3 4B       		.byte	0x4b
 6304 0fc4 2E020000 		.4byte	0x22e
 6305 0fc8 05       		.uleb128 0x5
 6306 0fc9 03       		.byte	0x3
 6307 0fca 00000000 		.4byte	GBResponse
 6308 0fce 19       		.uleb128 0x19
 6309 0fcf 43524300 		.ascii	"CRC\000"
 6310 0fd3 05       		.byte	0x5
 6311 0fd4 4C       		.byte	0x4c
 6312 0fd5 8D000000 		.4byte	0x8d
 6313 0fd9 05       		.uleb128 0x5
 6314 0fda 03       		.byte	0x3
 6315 0fdb 00000000 		.4byte	CRC
 6316 0fdf 18       		.uleb128 0x18
 6317 0fe0 47040000 		.4byte	.LASF65
 6318 0fe4 05       		.byte	0x5
 6319 0fe5 4D       		.byte	0x4d
 6320 0fe6 81000000 		.4byte	0x81
 6321 0fea 05       		.uleb128 0x5
 6322 0feb 03       		.byte	0x3
 6323 0fec 00000000 		.4byte	crc_lo
 6324 0ff0 18       		.uleb128 0x18
 6325 0ff1 E6030000 		.4byte	.LASF66
 6326 0ff5 05       		.byte	0x5
 6327 0ff6 4D       		.byte	0x4d
 6328 0ff7 81000000 		.4byte	0x81
 6329 0ffb 05       		.uleb128 0x5
 6330 0ffc 03       		.byte	0x3
 6331 0ffd 00000000 		.4byte	crc_hi
 6332 1001 18       		.uleb128 0x18
 6333 1002 07030000 		.4byte	.LASF67
 6334 1006 05       		.byte	0x5
 6335 1007 4E       		.byte	0x4e
 6336 1008 81000000 		.4byte	0x81
 6337 100c 05       		.uleb128 0x5
 6338 100d 03       		.byte	0x3
ARM GAS  C:\Users\Diego\AppData\Local\Temp\ccnYGT0M.s 			page 130


 6339 100e 00000000 		.4byte	Positions
 6340 1012 18       		.uleb128 0x18
 6341 1013 DF010000 		.4byte	.LASF68
 6342 1017 05       		.byte	0x5
 6343 1018 4F       		.byte	0x4f
 6344 1019 81000000 		.4byte	0x81
 6345 101d 05       		.uleb128 0x5
 6346 101e 03       		.byte	0x3
 6347 101f 00000000 		.4byte	TotalRequestType
 6348 1023 18       		.uleb128 0x18
 6349 1024 50000000 		.4byte	.LASF69
 6350 1028 05       		.byte	0x5
 6351 1029 50       		.byte	0x50
 6352 102a 81000000 		.4byte	0x81
 6353 102e 05       		.uleb128 0x5
 6354 102f 03       		.byte	0x3
 6355 1030 00000000 		.4byte	DecVol
 6356 1034 0B       		.uleb128 0xb
 6357 1035 81000000 		.4byte	0x81
 6358 1039 44100000 		.4byte	0x1044
 6359 103d 0C       		.uleb128 0xc
 6360 103e D9000000 		.4byte	0xd9
 6361 1042 13       		.byte	0x13
 6362 1043 00       		.byte	0
 6363 1044 18       		.uleb128 0x18
 6364 1045 21040000 		.4byte	.LASF70
 6365 1049 05       		.byte	0x5
 6366 104a 59       		.byte	0x59
 6367 104b 34100000 		.4byte	0x1034
 6368 104f 05       		.uleb128 0x5
 6369 1050 03       		.byte	0x3
 6370 1051 00000000 		.4byte	touch1
 6371 1055 18       		.uleb128 0x18
 6372 1056 E7050000 		.4byte	.LASF71
 6373 105a 05       		.byte	0x5
 6374 105b 62       		.byte	0x62
 6375 105c 81000000 		.4byte	0x81
 6376 1060 05       		.uleb128 0x5
 6377 1061 03       		.byte	0x3
 6378 1062 00000000 		.4byte	dirGbr
 6379 1066 18       		.uleb128 0x18
 6380 1067 FA040000 		.4byte	.LASF72
 6381 106b 01       		.byte	0x1
 6382 106c 12       		.byte	0x12
 6383 106d 81000000 		.4byte	0x81
 6384 1071 05       		.uleb128 0x5
 6385 1072 03       		.byte	0x3
 6386 1073 00000000 		.4byte	LINE_FEED
 6387 1077 0B       		.uleb128 0xb
 6388 1078 CB000000 		.4byte	0xcb
 6389 107c 87100000 		.4byte	0x1087
 6390 1080 0C       		.uleb128 0xc
 6391 1081 D9000000 		.4byte	0xd9
 6392 1085 00       		.byte	0
 6393 1086 00       		.byte	0
 6394 1087 18       		.uleb128 0x18
 6395 1088 FB050000 		.4byte	.LASF73
ARM GAS  C:\Users\Diego\AppData\Local\Temp\ccnYGT0M.s 			page 131


 6396 108c 01       		.byte	0x1
 6397 108d 13       		.byte	0x13
 6398 108e 77100000 		.4byte	0x1077
 6399 1092 05       		.uleb128 0x5
 6400 1093 03       		.byte	0x3
 6401 1094 00000000 		.4byte	VolSimbol
 6402 1098 0B       		.uleb128 0xb
 6403 1099 81000000 		.4byte	0x81
 6404 109d A8100000 		.4byte	0x10a8
 6405 10a1 0C       		.uleb128 0xc
 6406 10a2 D9000000 		.4byte	0xd9
 6407 10a6 1F       		.byte	0x1f
 6408 10a7 00       		.byte	0
 6409 10a8 18       		.uleb128 0x18
 6410 10a9 B7010000 		.4byte	.LASF74
 6411 10ad 01       		.byte	0x1
 6412 10ae 17       		.byte	0x17
 6413 10af 98100000 		.4byte	0x1098
 6414 10b3 05       		.uleb128 0x5
 6415 10b4 03       		.byte	0x3
 6416 10b5 00000000 		.4byte	msn_EDS
 6417 10b9 18       		.uleb128 0x18
 6418 10ba A2050000 		.4byte	.LASF75
 6419 10be 01       		.byte	0x1
 6420 10bf 18       		.byte	0x18
 6421 10c0 98100000 		.4byte	0x1098
 6422 10c4 05       		.uleb128 0x5
 6423 10c5 03       		.byte	0x3
 6424 10c6 00000000 		.4byte	msn_EDS2
 6425 10ca 18       		.uleb128 0x18
 6426 10cb AB050000 		.4byte	.LASF76
 6427 10cf 01       		.byte	0x1
 6428 10d0 19       		.byte	0x19
 6429 10d1 98100000 		.4byte	0x1098
 6430 10d5 05       		.uleb128 0x5
 6431 10d6 03       		.byte	0x3
 6432 10d7 00000000 		.4byte	msn_EDS3
 6433 10db 18       		.uleb128 0x18
 6434 10dc B4050000 		.4byte	.LASF77
 6435 10e0 01       		.byte	0x1
 6436 10e1 1A       		.byte	0x1a
 6437 10e2 98100000 		.4byte	0x1098
 6438 10e6 05       		.uleb128 0x5
 6439 10e7 03       		.byte	0x3
 6440 10e8 00000000 		.4byte	msn_EDS4
 6441 10ec 18       		.uleb128 0x18
 6442 10ed BD050000 		.4byte	.LASF78
 6443 10f1 01       		.byte	0x1
 6444 10f2 1B       		.byte	0x1b
 6445 10f3 98100000 		.4byte	0x1098
 6446 10f7 05       		.uleb128 0x5
 6447 10f8 03       		.byte	0x3
 6448 10f9 00000000 		.4byte	msn_EDS5
 6449 10fd 18       		.uleb128 0x18
 6450 10fe C6050000 		.4byte	.LASF79
 6451 1102 01       		.byte	0x1
 6452 1103 1C       		.byte	0x1c
ARM GAS  C:\Users\Diego\AppData\Local\Temp\ccnYGT0M.s 			page 132


 6453 1104 98100000 		.4byte	0x1098
 6454 1108 05       		.uleb128 0x5
 6455 1109 03       		.byte	0x3
 6456 110a 00000000 		.4byte	msn_EDS6
 6457 110e 18       		.uleb128 0x18
 6458 110f E2040000 		.4byte	.LASF80
 6459 1113 01       		.byte	0x1
 6460 1114 1D       		.byte	0x1d
 6461 1115 98100000 		.4byte	0x1098
 6462 1119 05       		.uleb128 0x5
 6463 111a 03       		.byte	0x3
 6464 111b 00000000 		.4byte	msn_footer
 6465 111f 18       		.uleb128 0x18
 6466 1120 EA000000 		.4byte	.LASF81
 6467 1124 01       		.byte	0x1
 6468 1125 1E       		.byte	0x1e
 6469 1126 98100000 		.4byte	0x1098
 6470 112a 05       		.uleb128 0x5
 6471 112b 03       		.byte	0x3
 6472 112c 00000000 		.4byte	msn_footer2
 6473 1130 18       		.uleb128 0x18
 6474 1131 F6000000 		.4byte	.LASF82
 6475 1135 01       		.byte	0x1
 6476 1136 1F       		.byte	0x1f
 6477 1137 98100000 		.4byte	0x1098
 6478 113b 05       		.uleb128 0x5
 6479 113c 03       		.byte	0x3
 6480 113d 00000000 		.4byte	msn_footer3
 6481 1141 18       		.uleb128 0x18
 6482 1142 02010000 		.4byte	.LASF83
 6483 1146 01       		.byte	0x1
 6484 1147 20       		.byte	0x20
 6485 1148 98100000 		.4byte	0x1098
 6486 114c 05       		.uleb128 0x5
 6487 114d 03       		.byte	0x3
 6488 114e 00000000 		.4byte	msn_footer4
 6489 1152 18       		.uleb128 0x18
 6490 1153 D6010000 		.4byte	.LASF84
 6491 1157 01       		.byte	0x1
 6492 1158 21       		.byte	0x21
 6493 1159 98100000 		.4byte	0x1098
 6494 115d 05       		.uleb128 0x5
 6495 115e 03       		.byte	0x3
 6496 115f 00000000 		.4byte	msn_copy
 6497 1163 0B       		.uleb128 0xb
 6498 1164 81000000 		.4byte	0x81
 6499 1168 73110000 		.4byte	0x1173
 6500 116c 0C       		.uleb128 0xc
 6501 116d D9000000 		.4byte	0xd9
 6502 1171 08       		.byte	0x8
 6503 1172 00       		.byte	0
 6504 1173 18       		.uleb128 0x18
 6505 1174 82030000 		.4byte	.LASF85
 6506 1178 01       		.byte	0x1
 6507 1179 22       		.byte	0x22
 6508 117a 63110000 		.4byte	0x1163
 6509 117e 05       		.uleb128 0x5
ARM GAS  C:\Users\Diego\AppData\Local\Temp\ccnYGT0M.s 			page 133


 6510 117f 03       		.byte	0x3
 6511 1180 00000000 		.4byte	msn_diesel
 6512 1184 18       		.uleb128 0x18
 6513 1185 11030000 		.4byte	.LASF86
 6514 1189 01       		.byte	0x1
 6515 118a 23       		.byte	0x23
 6516 118b 63110000 		.4byte	0x1163
 6517 118f 05       		.uleb128 0x5
 6518 1190 03       		.byte	0x3
 6519 1191 00000000 		.4byte	msn_gasoline
 6520 1195 0B       		.uleb128 0xb
 6521 1196 81000000 		.4byte	0x81
 6522 119a A5110000 		.4byte	0x11a5
 6523 119e 0C       		.uleb128 0xc
 6524 119f D9000000 		.4byte	0xd9
 6525 11a3 0C       		.byte	0xc
 6526 11a4 00       		.byte	0
 6527 11a5 18       		.uleb128 0x18
 6528 11a6 A1040000 		.4byte	.LASF87
 6529 11aa 01       		.byte	0x1
 6530 11ab 27       		.byte	0x27
 6531 11ac 95110000 		.4byte	0x1195
 6532 11b0 05       		.uleb128 0x5
 6533 11b1 03       		.byte	0x3
 6534 11b2 00000000 		.4byte	msn_fecha
 6535 11b6 18       		.uleb128 0x18
 6536 11b7 BF010000 		.4byte	.LASF88
 6537 11bb 01       		.byte	0x1
 6538 11bc 28       		.byte	0x28
 6539 11bd 95110000 		.4byte	0x1195
 6540 11c1 05       		.uleb128 0x5
 6541 11c2 03       		.byte	0x3
 6542 11c3 00000000 		.4byte	msn_hora
 6543 11c7 18       		.uleb128 0x18
 6544 11c8 87010000 		.4byte	.LASF89
 6545 11cc 01       		.byte	0x1
 6546 11cd 29       		.byte	0x29
 6547 11ce 95110000 		.4byte	0x1195
 6548 11d2 05       		.uleb128 0x5
 6549 11d3 03       		.byte	0x3
 6550 11d4 00000000 		.4byte	msn_placa
 6551 11d8 18       		.uleb128 0x18
 6552 11d9 7F020000 		.4byte	.LASF90
 6553 11dd 01       		.byte	0x1
 6554 11de 2A       		.byte	0x2a
 6555 11df 95110000 		.4byte	0x1195
 6556 11e3 05       		.uleb128 0x5
 6557 11e4 03       		.byte	0x3
 6558 11e5 00000000 		.4byte	PRN_MILLEAGE
 6559 11e9 18       		.uleb128 0x18
 6560 11ea C8010000 		.4byte	.LASF91
 6561 11ee 01       		.byte	0x1
 6562 11ef 2B       		.byte	0x2b
 6563 11f0 95110000 		.4byte	0x1195
 6564 11f4 05       		.uleb128 0x5
 6565 11f5 03       		.byte	0x3
 6566 11f6 00000000 		.4byte	PRN_TRANSTYPE
ARM GAS  C:\Users\Diego\AppData\Local\Temp\ccnYGT0M.s 			page 134


 6567 11fa 18       		.uleb128 0x18
 6568 11fb 22010000 		.4byte	.LASF92
 6569 11ff 01       		.byte	0x1
 6570 1200 2C       		.byte	0x2c
 6571 1201 95110000 		.4byte	0x1195
 6572 1205 05       		.uleb128 0x5
 6573 1206 03       		.byte	0x3
 6574 1207 00000000 		.4byte	msn_pos
 6575 120b 18       		.uleb128 0x18
 6576 120c 6A040000 		.4byte	.LASF93
 6577 1210 01       		.byte	0x1
 6578 1211 2D       		.byte	0x2d
 6579 1212 95110000 		.4byte	0x1195
 6580 1216 05       		.uleb128 0x5
 6581 1217 03       		.byte	0x3
 6582 1218 00000000 		.4byte	msn_product
 6583 121c 18       		.uleb128 0x18
 6584 121d 7F010000 		.4byte	.LASF94
 6585 1221 01       		.byte	0x1
 6586 1222 2E       		.byte	0x2e
 6587 1223 95110000 		.4byte	0x1195
 6588 1227 05       		.uleb128 0x5
 6589 1228 03       		.byte	0x3
 6590 1229 00000000 		.4byte	msn_ppu
 6591 122d 18       		.uleb128 0x18
 6592 122e 5F030000 		.4byte	.LASF95
 6593 1232 01       		.byte	0x1
 6594 1233 2F       		.byte	0x2f
 6595 1234 95110000 		.4byte	0x1195
 6596 1238 05       		.uleb128 0x5
 6597 1239 03       		.byte	0x3
 6598 123a 00000000 		.4byte	msn_vol
 6599 123e 18       		.uleb128 0x18
 6600 123f F6020000 		.4byte	.LASF96
 6601 1243 01       		.byte	0x1
 6602 1244 30       		.byte	0x30
 6603 1245 95110000 		.4byte	0x1195
 6604 1249 05       		.uleb128 0x5
 6605 124a 03       		.byte	0x3
 6606 124b 00000000 		.4byte	msn_voltot
 6607 124f 18       		.uleb128 0x18
 6608 1250 16060000 		.4byte	.LASF97
 6609 1254 01       		.byte	0x1
 6610 1255 31       		.byte	0x31
 6611 1256 95110000 		.4byte	0x1195
 6612 125a 05       		.uleb128 0x5
 6613 125b 03       		.byte	0x3
 6614 125c 00000000 		.4byte	msn_din
 6615 1260 18       		.uleb128 0x18
 6616 1261 AA020000 		.4byte	.LASF98
 6617 1265 01       		.byte	0x1
 6618 1266 32       		.byte	0x32
 6619 1267 95110000 		.4byte	0x1195
 6620 126b 05       		.uleb128 0x5
 6621 126c 03       		.byte	0x3
 6622 126d 00000000 		.4byte	msn_cierre
 6623 1271 18       		.uleb128 0x18
ARM GAS  C:\Users\Diego\AppData\Local\Temp\ccnYGT0M.s 			page 135


 6624 1272 75020000 		.4byte	.LASF99
 6625 1276 01       		.byte	0x1
 6626 1277 33       		.byte	0x33
 6627 1278 95110000 		.4byte	0x1195
 6628 127c 05       		.uleb128 0x5
 6629 127d 03       		.byte	0x3
 6630 127e 00000000 		.4byte	msn_venta
 6631 1282 18       		.uleb128 0x18
 6632 1283 8C020000 		.4byte	.LASF100
 6633 1287 01       		.byte	0x1
 6634 1288 34       		.byte	0x34
 6635 1289 95110000 		.4byte	0x1195
 6636 128d 05       		.uleb128 0x5
 6637 128e 03       		.byte	0x3
 6638 128f 00000000 		.4byte	msn_numero
 6639 1293 18       		.uleb128 0x18
 6640 1294 2A050000 		.4byte	.LASF101
 6641 1298 01       		.byte	0x1
 6642 1299 35       		.byte	0x35
 6643 129a 95110000 		.4byte	0x1195
 6644 129e 05       		.uleb128 0x5
 6645 129f 03       		.byte	0x3
 6646 12a0 00000000 		.4byte	PRN_BALANCE
 6647 12a4 18       		.uleb128 0x18
 6648 12a5 04050000 		.4byte	.LASF102
 6649 12a9 01       		.byte	0x1
 6650 12aa 36       		.byte	0x36
 6651 12ab 95110000 		.4byte	0x1195
 6652 12af 05       		.uleb128 0x5
 6653 12b0 03       		.byte	0x3
 6654 12b1 00000000 		.4byte	PRN_COMPANY
 6655 12b5 18       		.uleb128 0x18
 6656 12b6 05020000 		.4byte	.LASF103
 6657 12ba 01       		.byte	0x1
 6658 12bb 37       		.byte	0x37
 6659 12bc 95110000 		.4byte	0x1195
 6660 12c0 05       		.uleb128 0x5
 6661 12c1 03       		.byte	0x3
 6662 12c2 00000000 		.4byte	PRN_ACCOUNT
 6663 12c6 18       		.uleb128 0x18
 6664 12c7 DC050000 		.4byte	.LASF104
 6665 12cb 01       		.byte	0x1
 6666 12cc 38       		.byte	0x38
 6667 12cd 95110000 		.4byte	0x1195
 6668 12d1 05       		.uleb128 0x5
 6669 12d2 03       		.byte	0x3
 6670 12d3 00000000 		.4byte	PRN_SERIAL
 6671 12d7 18       		.uleb128 0x18
 6672 12d8 BD030000 		.4byte	.LASF105
 6673 12dc 01       		.byte	0x1
 6674 12dd 39       		.byte	0x39
 6675 12de 95110000 		.4byte	0x1195
 6676 12e2 05       		.uleb128 0x5
 6677 12e3 03       		.byte	0x3
 6678 12e4 00000000 		.4byte	PRN_ACCOUNTTYPE
 6679 12e8 18       		.uleb128 0x18
 6680 12e9 DC020000 		.4byte	.LASF106
ARM GAS  C:\Users\Diego\AppData\Local\Temp\ccnYGT0M.s 			page 136


 6681 12ed 01       		.byte	0x1
 6682 12ee 3A       		.byte	0x3a
 6683 12ef 95110000 		.4byte	0x1195
 6684 12f3 05       		.uleb128 0x5
 6685 12f4 03       		.byte	0x3
 6686 12f5 00000000 		.4byte	PRN_VISITSDAY
 6687 12f9 18       		.uleb128 0x18
 6688 12fa CD030000 		.4byte	.LASF107
 6689 12fe 01       		.byte	0x1
 6690 12ff 3B       		.byte	0x3b
 6691 1300 95110000 		.4byte	0x1195
 6692 1304 05       		.uleb128 0x5
 6693 1305 03       		.byte	0x3
 6694 1306 00000000 		.4byte	PRN_VISITSWEEK
 6695 130a 18       		.uleb128 0x18
 6696 130b C4040000 		.4byte	.LASF108
 6697 130f 01       		.byte	0x1
 6698 1310 3C       		.byte	0x3c
 6699 1311 95110000 		.4byte	0x1195
 6700 1315 05       		.uleb128 0x5
 6701 1316 03       		.byte	0x3
 6702 1317 00000000 		.4byte	PRN_VISITSMONTH
 6703 131b 18       		.uleb128 0x18
 6704 131c 11020000 		.4byte	.LASF109
 6705 1320 01       		.byte	0x1
 6706 1321 3D       		.byte	0x3d
 6707 1322 95110000 		.4byte	0x1195
 6708 1326 05       		.uleb128 0x5
 6709 1327 03       		.byte	0x3
 6710 1328 00000000 		.4byte	PRN_VOLUMEDAY
 6711 132c 18       		.uleb128 0x18
 6712 132d 91010000 		.4byte	.LASF110
 6713 1331 01       		.byte	0x1
 6714 1332 3E       		.byte	0x3e
 6715 1333 95110000 		.4byte	0x1195
 6716 1337 05       		.uleb128 0x5
 6717 1338 03       		.byte	0x3
 6718 1339 00000000 		.4byte	PRN_VOLUMEWEEK
 6719 133d 18       		.uleb128 0x18
 6720 133e 5E010000 		.4byte	.LASF111
 6721 1342 01       		.byte	0x1
 6722 1343 3F       		.byte	0x3f
 6723 1344 95110000 		.4byte	0x1195
 6724 1348 05       		.uleb128 0x5
 6725 1349 03       		.byte	0x3
 6726 134a 00000000 		.4byte	PRN_VOLUMEMONTH
 6727 134e 18       		.uleb128 0x18
 6728 134f 3A040000 		.4byte	.LASF112
 6729 1353 01       		.byte	0x1
 6730 1354 40       		.byte	0x40
 6731 1355 95110000 		.4byte	0x1195
 6732 1359 05       		.uleb128 0x5
 6733 135a 03       		.byte	0x3
 6734 135b 00000000 		.4byte	PRN_MONEYDAY
 6735 135f 18       		.uleb128 0x18
 6736 1360 88050000 		.4byte	.LASF113
 6737 1364 01       		.byte	0x1
ARM GAS  C:\Users\Diego\AppData\Local\Temp\ccnYGT0M.s 			page 137


 6738 1365 41       		.byte	0x41
 6739 1366 95110000 		.4byte	0x1195
 6740 136a 05       		.uleb128 0x5
 6741 136b 03       		.byte	0x3
 6742 136c 00000000 		.4byte	PRN_MONEYWEEK
 6743 1370 18       		.uleb128 0x18
 6744 1371 F6010000 		.4byte	.LASF114
 6745 1375 01       		.byte	0x1
 6746 1376 42       		.byte	0x42
 6747 1377 95110000 		.4byte	0x1195
 6748 137b 05       		.uleb128 0x5
 6749 137c 03       		.byte	0x3
 6750 137d 00000000 		.4byte	PRN_MONEYMONTH
 6751 1381 18       		.uleb128 0x18
 6752 1382 53010000 		.4byte	.LASF115
 6753 1386 01       		.byte	0x1
 6754 1387 43       		.byte	0x43
 6755 1388 95110000 		.4byte	0x1195
 6756 138c 05       		.uleb128 0x5
 6757 138d 03       		.byte	0x3
 6758 138e 00000000 		.4byte	PRN_PRESET
 6759 1392 18       		.uleb128 0x18
 6760 1393 7A050000 		.4byte	.LASF116
 6761 1397 01       		.byte	0x1
 6762 1398 44       		.byte	0x44
 6763 1399 95110000 		.4byte	0x1195
 6764 139d 05       		.uleb128 0x5
 6765 139e 03       		.byte	0x3
 6766 139f 00000000 		.4byte	PRN_SIGNATURE
 6767 13a3 18       		.uleb128 0x18
 6768 13a4 54050000 		.4byte	.LASF117
 6769 13a8 01       		.byte	0x1
 6770 13a9 45       		.byte	0x45
 6771 13aa 95110000 		.4byte	0x1195
 6772 13ae 05       		.uleb128 0x5
 6773 13af 03       		.byte	0x3
 6774 13b0 00000000 		.4byte	PRN_ID
 6775 13b4 0B       		.uleb128 0xb
 6776 13b5 81000000 		.4byte	0x81
 6777 13b9 C4130000 		.4byte	0x13c4
 6778 13bd 0C       		.uleb128 0xc
 6779 13be D9000000 		.4byte	0xd9
 6780 13c2 00       		.byte	0
 6781 13c3 00       		.byte	0
 6782 13c4 18       		.uleb128 0x18
 6783 13c5 EE050000 		.4byte	.LASF118
 6784 13c9 01       		.byte	0x1
 6785 13ca 46       		.byte	0x46
 6786 13cb B4130000 		.4byte	0x13b4
 6787 13cf 05       		.uleb128 0x5
 6788 13d0 03       		.byte	0x3
 6789 13d1 00000000 		.4byte	PRN_CURRENCY
 6790 13d5 0B       		.uleb128 0xb
 6791 13d6 81000000 		.4byte	0x81
 6792 13da E5130000 		.4byte	0x13e5
 6793 13de 0C       		.uleb128 0xc
 6794 13df D9000000 		.4byte	0xd9
ARM GAS  C:\Users\Diego\AppData\Local\Temp\ccnYGT0M.s 			page 138


 6795 13e3 0F       		.byte	0xf
 6796 13e4 00       		.byte	0
 6797 13e5 18       		.uleb128 0x18
 6798 13e6 A6030000 		.4byte	.LASF119
 6799 13ea 01       		.byte	0x1
 6800 13eb 47       		.byte	0x47
 6801 13ec D5130000 		.4byte	0x13d5
 6802 13f0 05       		.uleb128 0x5
 6803 13f1 03       		.byte	0x3
 6804 13f2 00000000 		.4byte	msn_lecact
 6805 13f6 18       		.uleb128 0x18
 6806 13f7 74010000 		.4byte	.LASF120
 6807 13fb 01       		.byte	0x1
 6808 13fc 48       		.byte	0x48
 6809 13fd D5130000 		.4byte	0x13d5
 6810 1401 05       		.uleb128 0x5
 6811 1402 03       		.byte	0x3
 6812 1403 00000000 		.4byte	msn_lecaan
 6813 1407 0B       		.uleb128 0xb
 6814 1408 81000000 		.4byte	0x81
 6815 140c 17140000 		.4byte	0x1417
 6816 1410 0C       		.uleb128 0xc
 6817 1411 D9000000 		.4byte	0xd9
 6818 1415 11       		.byte	0x11
 6819 1416 00       		.byte	0
 6820 1417 18       		.uleb128 0x18
 6821 1418 0E060000 		.4byte	.LASF121
 6822 141c 01       		.byte	0x1
 6823 141d 49       		.byte	0x49
 6824 141e 07140000 		.4byte	0x1407
 6825 1422 05       		.uleb128 0x5
 6826 1423 03       		.byte	0x3
 6827 1424 00000000 		.4byte	msn_dif
 6828 1428 18       		.uleb128 0x18
 6829 1429 B5020000 		.4byte	.LASF122
 6830 142d 01       		.byte	0x1
 6831 142e 4A       		.byte	0x4a
 6832 142f 98100000 		.4byte	0x1098
 6833 1433 05       		.uleb128 0x5
 6834 1434 03       		.byte	0x3
 6835 1435 00000000 		.4byte	SEPARATOR
 6836 1439 18       		.uleb128 0x18
 6837 143a 35010000 		.4byte	.LASF123
 6838 143e 01       		.byte	0x1
 6839 143f 4B       		.byte	0x4b
 6840 1440 F30E0000 		.4byte	0xef3
 6841 1444 05       		.uleb128 0x5
 6842 1445 03       		.byte	0x3
 6843 1446 00000000 		.4byte	ASK_TIME
 6844 144a 00       		.byte	0
 6845              		.section	.debug_abbrev,"",%progbits
 6846              	.Ldebug_abbrev0:
 6847 0000 01       		.uleb128 0x1
 6848 0001 11       		.uleb128 0x11
 6849 0002 01       		.byte	0x1
 6850 0003 25       		.uleb128 0x25
 6851 0004 0E       		.uleb128 0xe
ARM GAS  C:\Users\Diego\AppData\Local\Temp\ccnYGT0M.s 			page 139


 6852 0005 13       		.uleb128 0x13
 6853 0006 0B       		.uleb128 0xb
 6854 0007 03       		.uleb128 0x3
 6855 0008 0E       		.uleb128 0xe
 6856 0009 1B       		.uleb128 0x1b
 6857 000a 0E       		.uleb128 0xe
 6858 000b 55       		.uleb128 0x55
 6859 000c 17       		.uleb128 0x17
 6860 000d 11       		.uleb128 0x11
 6861 000e 01       		.uleb128 0x1
 6862 000f 10       		.uleb128 0x10
 6863 0010 17       		.uleb128 0x17
 6864 0011 00       		.byte	0
 6865 0012 00       		.byte	0
 6866 0013 02       		.uleb128 0x2
 6867 0014 24       		.uleb128 0x24
 6868 0015 00       		.byte	0
 6869 0016 0B       		.uleb128 0xb
 6870 0017 0B       		.uleb128 0xb
 6871 0018 3E       		.uleb128 0x3e
 6872 0019 0B       		.uleb128 0xb
 6873 001a 03       		.uleb128 0x3
 6874 001b 0E       		.uleb128 0xe
 6875 001c 00       		.byte	0
 6876 001d 00       		.byte	0
 6877 001e 03       		.uleb128 0x3
 6878 001f 16       		.uleb128 0x16
 6879 0020 00       		.byte	0
 6880 0021 03       		.uleb128 0x3
 6881 0022 0E       		.uleb128 0xe
 6882 0023 3A       		.uleb128 0x3a
 6883 0024 0B       		.uleb128 0xb
 6884 0025 3B       		.uleb128 0x3b
 6885 0026 0B       		.uleb128 0xb
 6886 0027 49       		.uleb128 0x49
 6887 0028 13       		.uleb128 0x13
 6888 0029 00       		.byte	0
 6889 002a 00       		.byte	0
 6890 002b 04       		.uleb128 0x4
 6891 002c 24       		.uleb128 0x24
 6892 002d 00       		.byte	0
 6893 002e 0B       		.uleb128 0xb
 6894 002f 0B       		.uleb128 0xb
 6895 0030 3E       		.uleb128 0x3e
 6896 0031 0B       		.uleb128 0xb
 6897 0032 03       		.uleb128 0x3
 6898 0033 08       		.uleb128 0x8
 6899 0034 00       		.byte	0
 6900 0035 00       		.byte	0
 6901 0036 05       		.uleb128 0x5
 6902 0037 16       		.uleb128 0x16
 6903 0038 00       		.byte	0
 6904 0039 03       		.uleb128 0x3
 6905 003a 0E       		.uleb128 0xe
 6906 003b 3A       		.uleb128 0x3a
 6907 003c 0B       		.uleb128 0xb
 6908 003d 3B       		.uleb128 0x3b
ARM GAS  C:\Users\Diego\AppData\Local\Temp\ccnYGT0M.s 			page 140


 6909 003e 05       		.uleb128 0x5
 6910 003f 49       		.uleb128 0x49
 6911 0040 13       		.uleb128 0x13
 6912 0041 00       		.byte	0
 6913 0042 00       		.byte	0
 6914 0043 06       		.uleb128 0x6
 6915 0044 13       		.uleb128 0x13
 6916 0045 01       		.byte	0x1
 6917 0046 03       		.uleb128 0x3
 6918 0047 0E       		.uleb128 0xe
 6919 0048 0B       		.uleb128 0xb
 6920 0049 05       		.uleb128 0x5
 6921 004a 3A       		.uleb128 0x3a
 6922 004b 0B       		.uleb128 0xb
 6923 004c 3B       		.uleb128 0x3b
 6924 004d 0B       		.uleb128 0xb
 6925 004e 01       		.uleb128 0x1
 6926 004f 13       		.uleb128 0x13
 6927 0050 00       		.byte	0
 6928 0051 00       		.byte	0
 6929 0052 07       		.uleb128 0x7
 6930 0053 0D       		.uleb128 0xd
 6931 0054 00       		.byte	0
 6932 0055 03       		.uleb128 0x3
 6933 0056 08       		.uleb128 0x8
 6934 0057 3A       		.uleb128 0x3a
 6935 0058 0B       		.uleb128 0xb
 6936 0059 3B       		.uleb128 0x3b
 6937 005a 0B       		.uleb128 0xb
 6938 005b 49       		.uleb128 0x49
 6939 005c 13       		.uleb128 0x13
 6940 005d 38       		.uleb128 0x38
 6941 005e 0B       		.uleb128 0xb
 6942 005f 00       		.byte	0
 6943 0060 00       		.byte	0
 6944 0061 08       		.uleb128 0x8
 6945 0062 0D       		.uleb128 0xd
 6946 0063 00       		.byte	0
 6947 0064 03       		.uleb128 0x3
 6948 0065 0E       		.uleb128 0xe
 6949 0066 3A       		.uleb128 0x3a
 6950 0067 0B       		.uleb128 0xb
 6951 0068 3B       		.uleb128 0x3b
 6952 0069 0B       		.uleb128 0xb
 6953 006a 49       		.uleb128 0x49
 6954 006b 13       		.uleb128 0x13
 6955 006c 38       		.uleb128 0x38
 6956 006d 0B       		.uleb128 0xb
 6957 006e 00       		.byte	0
 6958 006f 00       		.byte	0
 6959 0070 09       		.uleb128 0x9
 6960 0071 0D       		.uleb128 0xd
 6961 0072 00       		.byte	0
 6962 0073 03       		.uleb128 0x3
 6963 0074 0E       		.uleb128 0xe
 6964 0075 3A       		.uleb128 0x3a
 6965 0076 0B       		.uleb128 0xb
ARM GAS  C:\Users\Diego\AppData\Local\Temp\ccnYGT0M.s 			page 141


 6966 0077 3B       		.uleb128 0x3b
 6967 0078 0B       		.uleb128 0xb
 6968 0079 49       		.uleb128 0x49
 6969 007a 13       		.uleb128 0x13
 6970 007b 38       		.uleb128 0x38
 6971 007c 05       		.uleb128 0x5
 6972 007d 00       		.byte	0
 6973 007e 00       		.byte	0
 6974 007f 0A       		.uleb128 0xa
 6975 0080 0D       		.uleb128 0xd
 6976 0081 00       		.byte	0
 6977 0082 03       		.uleb128 0x3
 6978 0083 08       		.uleb128 0x8
 6979 0084 3A       		.uleb128 0x3a
 6980 0085 0B       		.uleb128 0xb
 6981 0086 3B       		.uleb128 0x3b
 6982 0087 0B       		.uleb128 0xb
 6983 0088 49       		.uleb128 0x49
 6984 0089 13       		.uleb128 0x13
 6985 008a 38       		.uleb128 0x38
 6986 008b 05       		.uleb128 0x5
 6987 008c 00       		.byte	0
 6988 008d 00       		.byte	0
 6989 008e 0B       		.uleb128 0xb
 6990 008f 01       		.uleb128 0x1
 6991 0090 01       		.byte	0x1
 6992 0091 49       		.uleb128 0x49
 6993 0092 13       		.uleb128 0x13
 6994 0093 01       		.uleb128 0x1
 6995 0094 13       		.uleb128 0x13
 6996 0095 00       		.byte	0
 6997 0096 00       		.byte	0
 6998 0097 0C       		.uleb128 0xc
 6999 0098 21       		.uleb128 0x21
 7000 0099 00       		.byte	0
 7001 009a 49       		.uleb128 0x49
 7002 009b 13       		.uleb128 0x13
 7003 009c 2F       		.uleb128 0x2f
 7004 009d 0B       		.uleb128 0xb
 7005 009e 00       		.byte	0
 7006 009f 00       		.byte	0
 7007 00a0 0D       		.uleb128 0xd
 7008 00a1 2E       		.uleb128 0x2e
 7009 00a2 01       		.byte	0x1
 7010 00a3 3F       		.uleb128 0x3f
 7011 00a4 19       		.uleb128 0x19
 7012 00a5 03       		.uleb128 0x3
 7013 00a6 0E       		.uleb128 0xe
 7014 00a7 3A       		.uleb128 0x3a
 7015 00a8 0B       		.uleb128 0xb
 7016 00a9 3B       		.uleb128 0x3b
 7017 00aa 0B       		.uleb128 0xb
 7018 00ab 27       		.uleb128 0x27
 7019 00ac 19       		.uleb128 0x19
 7020 00ad 11       		.uleb128 0x11
 7021 00ae 01       		.uleb128 0x1
 7022 00af 12       		.uleb128 0x12
ARM GAS  C:\Users\Diego\AppData\Local\Temp\ccnYGT0M.s 			page 142


 7023 00b0 06       		.uleb128 0x6
 7024 00b1 40       		.uleb128 0x40
 7025 00b2 18       		.uleb128 0x18
 7026 00b3 9642     		.uleb128 0x2116
 7027 00b5 19       		.uleb128 0x19
 7028 00b6 01       		.uleb128 0x1
 7029 00b7 13       		.uleb128 0x13
 7030 00b8 00       		.byte	0
 7031 00b9 00       		.byte	0
 7032 00ba 0E       		.uleb128 0xe
 7033 00bb 05       		.uleb128 0x5
 7034 00bc 00       		.byte	0
 7035 00bd 03       		.uleb128 0x3
 7036 00be 0E       		.uleb128 0xe
 7037 00bf 3A       		.uleb128 0x3a
 7038 00c0 0B       		.uleb128 0xb
 7039 00c1 3B       		.uleb128 0x3b
 7040 00c2 0B       		.uleb128 0xb
 7041 00c3 49       		.uleb128 0x49
 7042 00c4 13       		.uleb128 0x13
 7043 00c5 02       		.uleb128 0x2
 7044 00c6 18       		.uleb128 0x18
 7045 00c7 00       		.byte	0
 7046 00c8 00       		.byte	0
 7047 00c9 0F       		.uleb128 0xf
 7048 00ca 34       		.uleb128 0x34
 7049 00cb 00       		.byte	0
 7050 00cc 03       		.uleb128 0x3
 7051 00cd 0E       		.uleb128 0xe
 7052 00ce 3A       		.uleb128 0x3a
 7053 00cf 0B       		.uleb128 0xb
 7054 00d0 3B       		.uleb128 0x3b
 7055 00d1 0B       		.uleb128 0xb
 7056 00d2 49       		.uleb128 0x49
 7057 00d3 13       		.uleb128 0x13
 7058 00d4 02       		.uleb128 0x2
 7059 00d5 18       		.uleb128 0x18
 7060 00d6 00       		.byte	0
 7061 00d7 00       		.byte	0
 7062 00d8 10       		.uleb128 0x10
 7063 00d9 0B       		.uleb128 0xb
 7064 00da 01       		.byte	0x1
 7065 00db 11       		.uleb128 0x11
 7066 00dc 01       		.uleb128 0x1
 7067 00dd 12       		.uleb128 0x12
 7068 00de 06       		.uleb128 0x6
 7069 00df 01       		.uleb128 0x1
 7070 00e0 13       		.uleb128 0x13
 7071 00e1 00       		.byte	0
 7072 00e2 00       		.byte	0
 7073 00e3 11       		.uleb128 0x11
 7074 00e4 34       		.uleb128 0x34
 7075 00e5 00       		.byte	0
 7076 00e6 03       		.uleb128 0x3
 7077 00e7 08       		.uleb128 0x8
 7078 00e8 3A       		.uleb128 0x3a
 7079 00e9 0B       		.uleb128 0xb
ARM GAS  C:\Users\Diego\AppData\Local\Temp\ccnYGT0M.s 			page 143


 7080 00ea 3B       		.uleb128 0x3b
 7081 00eb 0B       		.uleb128 0xb
 7082 00ec 49       		.uleb128 0x49
 7083 00ed 13       		.uleb128 0x13
 7084 00ee 02       		.uleb128 0x2
 7085 00ef 18       		.uleb128 0x18
 7086 00f0 00       		.byte	0
 7087 00f1 00       		.byte	0
 7088 00f2 12       		.uleb128 0x12
 7089 00f3 34       		.uleb128 0x34
 7090 00f4 00       		.byte	0
 7091 00f5 03       		.uleb128 0x3
 7092 00f6 08       		.uleb128 0x8
 7093 00f7 3A       		.uleb128 0x3a
 7094 00f8 0B       		.uleb128 0xb
 7095 00f9 3B       		.uleb128 0x3b
 7096 00fa 05       		.uleb128 0x5
 7097 00fb 49       		.uleb128 0x49
 7098 00fc 13       		.uleb128 0x13
 7099 00fd 02       		.uleb128 0x2
 7100 00fe 18       		.uleb128 0x18
 7101 00ff 00       		.byte	0
 7102 0100 00       		.byte	0
 7103 0101 13       		.uleb128 0x13
 7104 0102 0B       		.uleb128 0xb
 7105 0103 01       		.byte	0x1
 7106 0104 11       		.uleb128 0x11
 7107 0105 01       		.uleb128 0x1
 7108 0106 12       		.uleb128 0x12
 7109 0107 06       		.uleb128 0x6
 7110 0108 00       		.byte	0
 7111 0109 00       		.byte	0
 7112 010a 14       		.uleb128 0x14
 7113 010b 2E       		.uleb128 0x2e
 7114 010c 01       		.byte	0x1
 7115 010d 3F       		.uleb128 0x3f
 7116 010e 19       		.uleb128 0x19
 7117 010f 03       		.uleb128 0x3
 7118 0110 0E       		.uleb128 0xe
 7119 0111 3A       		.uleb128 0x3a
 7120 0112 0B       		.uleb128 0xb
 7121 0113 3B       		.uleb128 0x3b
 7122 0114 05       		.uleb128 0x5
 7123 0115 27       		.uleb128 0x27
 7124 0116 19       		.uleb128 0x19
 7125 0117 11       		.uleb128 0x11
 7126 0118 01       		.uleb128 0x1
 7127 0119 12       		.uleb128 0x12
 7128 011a 06       		.uleb128 0x6
 7129 011b 40       		.uleb128 0x40
 7130 011c 18       		.uleb128 0x18
 7131 011d 9642     		.uleb128 0x2116
 7132 011f 19       		.uleb128 0x19
 7133 0120 01       		.uleb128 0x1
 7134 0121 13       		.uleb128 0x13
 7135 0122 00       		.byte	0
 7136 0123 00       		.byte	0
ARM GAS  C:\Users\Diego\AppData\Local\Temp\ccnYGT0M.s 			page 144


 7137 0124 15       		.uleb128 0x15
 7138 0125 34       		.uleb128 0x34
 7139 0126 00       		.byte	0
 7140 0127 03       		.uleb128 0x3
 7141 0128 0E       		.uleb128 0xe
 7142 0129 3A       		.uleb128 0x3a
 7143 012a 0B       		.uleb128 0xb
 7144 012b 3B       		.uleb128 0x3b
 7145 012c 05       		.uleb128 0x5
 7146 012d 49       		.uleb128 0x49
 7147 012e 13       		.uleb128 0x13
 7148 012f 02       		.uleb128 0x2
 7149 0130 18       		.uleb128 0x18
 7150 0131 00       		.byte	0
 7151 0132 00       		.byte	0
 7152 0133 16       		.uleb128 0x16
 7153 0134 34       		.uleb128 0x34
 7154 0135 00       		.byte	0
 7155 0136 03       		.uleb128 0x3
 7156 0137 0E       		.uleb128 0xe
 7157 0138 3A       		.uleb128 0x3a
 7158 0139 0B       		.uleb128 0xb
 7159 013a 3B       		.uleb128 0x3b
 7160 013b 05       		.uleb128 0x5
 7161 013c 49       		.uleb128 0x49
 7162 013d 13       		.uleb128 0x13
 7163 013e 3F       		.uleb128 0x3f
 7164 013f 19       		.uleb128 0x19
 7165 0140 3C       		.uleb128 0x3c
 7166 0141 19       		.uleb128 0x19
 7167 0142 00       		.byte	0
 7168 0143 00       		.byte	0
 7169 0144 17       		.uleb128 0x17
 7170 0145 35       		.uleb128 0x35
 7171 0146 00       		.byte	0
 7172 0147 49       		.uleb128 0x49
 7173 0148 13       		.uleb128 0x13
 7174 0149 00       		.byte	0
 7175 014a 00       		.byte	0
 7176 014b 18       		.uleb128 0x18
 7177 014c 34       		.uleb128 0x34
 7178 014d 00       		.byte	0
 7179 014e 03       		.uleb128 0x3
 7180 014f 0E       		.uleb128 0xe
 7181 0150 3A       		.uleb128 0x3a
 7182 0151 0B       		.uleb128 0xb
 7183 0152 3B       		.uleb128 0x3b
 7184 0153 0B       		.uleb128 0xb
 7185 0154 49       		.uleb128 0x49
 7186 0155 13       		.uleb128 0x13
 7187 0156 3F       		.uleb128 0x3f
 7188 0157 19       		.uleb128 0x19
 7189 0158 02       		.uleb128 0x2
 7190 0159 18       		.uleb128 0x18
 7191 015a 00       		.byte	0
 7192 015b 00       		.byte	0
 7193 015c 19       		.uleb128 0x19
ARM GAS  C:\Users\Diego\AppData\Local\Temp\ccnYGT0M.s 			page 145


 7194 015d 34       		.uleb128 0x34
 7195 015e 00       		.byte	0
 7196 015f 03       		.uleb128 0x3
 7197 0160 08       		.uleb128 0x8
 7198 0161 3A       		.uleb128 0x3a
 7199 0162 0B       		.uleb128 0xb
 7200 0163 3B       		.uleb128 0x3b
 7201 0164 0B       		.uleb128 0xb
 7202 0165 49       		.uleb128 0x49
 7203 0166 13       		.uleb128 0x13
 7204 0167 3F       		.uleb128 0x3f
 7205 0168 19       		.uleb128 0x19
 7206 0169 02       		.uleb128 0x2
 7207 016a 18       		.uleb128 0x18
 7208 016b 00       		.byte	0
 7209 016c 00       		.byte	0
 7210 016d 00       		.byte	0
 7211              		.section	.debug_aranges,"",%progbits
 7212 0000 24000000 		.4byte	0x24
 7213 0004 0200     		.2byte	0x2
 7214 0006 00000000 		.4byte	.Ldebug_info0
 7215 000a 04       		.byte	0x4
 7216 000b 00       		.byte	0
 7217 000c 0000     		.2byte	0
 7218 000e 0000     		.2byte	0
 7219 0010 00000000 		.4byte	.LFB64
 7220 0014 180F0000 		.4byte	.LFE64-.LFB64
 7221 0018 00000000 		.4byte	.LFB65
 7222 001c D40E0000 		.4byte	.LFE65-.LFB65
 7223 0020 00000000 		.4byte	0
 7224 0024 00000000 		.4byte	0
 7225              		.section	.debug_ranges,"",%progbits
 7226              	.Ldebug_ranges0:
 7227 0000 00000000 		.4byte	.LFB64
 7228 0004 180F0000 		.4byte	.LFE64
 7229 0008 00000000 		.4byte	.LFB65
 7230 000c D40E0000 		.4byte	.LFE65
 7231 0010 00000000 		.4byte	0
 7232 0014 00000000 		.4byte	0
 7233              		.section	.debug_line,"",%progbits
 7234              	.Ldebug_line0:
 7235 0000 DC090000 		.section	.debug_str,"MS",%progbits,1
 7235      02005B01 
 7235      00000201 
 7235      FB0E0D00 
 7235      01010101 
 7236              	.LASF35:
 7237 0000 4E6F7A7A 		.ascii	"Nozzle\000"
 7237      6C6500
 7238              	.LASF63:
 7239 0007 50756D70 		.ascii	"PumpAddress\000"
 7239      41646472 
 7239      65737300 
 7240              	.LASF56:
 7241 0013 696E745F 		.ascii	"int_salenumber\000"
 7241      73616C65 
 7241      6E756D62 
ARM GAS  C:\Users\Diego\AppData\Local\Temp\ccnYGT0M.s 			page 146


 7241      657200
 7242              	.LASF8:
 7243 0022 756E7369 		.ascii	"unsigned int\000"
 7243      676E6564 
 7243      20696E74 
 7243      00
 7244              	.LASF64:
 7245 002f 47425265 		.ascii	"GBResponse\000"
 7245      73706F6E 
 7245      736500
 7246              	.LASF54:
 7247 003a 73616C65 		.ascii	"sale_number\000"
 7247      5F6E756D 
 7247      62657200 
 7248              	.LASF9:
 7249 0046 5F5F696E 		.ascii	"__int32_t\000"
 7249      7433325F 
 7249      7400
 7250              	.LASF69:
 7251 0050 44656356 		.ascii	"DecVol\000"
 7251      6F6C00
 7252              	.LASF124:
 7253 0057 474E5520 		.ascii	"GNU C11 5.4.1 20160609 (release) [ARM/embedded-5-br"
 7253      43313120 
 7253      352E342E 
 7253      31203230 
 7253      31363036 
 7254 008a 616E6368 		.ascii	"anch revision 237715] -mcpu=cortex-m3 -mthumb -g -O"
 7254      20726576 
 7254      6973696F 
 7254      6E203233 
 7254      37373135 
 7255 00bd 30202D66 		.ascii	"0 -ffunction-sections -ffat-lto-objects\000"
 7255      66756E63 
 7255      74696F6E 
 7255      2D736563 
 7255      74696F6E 
 7256              	.LASF60:
 7257 00e5 73696465 		.ascii	"side\000"
 7257      00
 7258              	.LASF81:
 7259 00ea 6D736E5F 		.ascii	"msn_footer2\000"
 7259      666F6F74 
 7259      65723200 
 7260              	.LASF82:
 7261 00f6 6D736E5F 		.ascii	"msn_footer3\000"
 7261      666F6F74 
 7261      65723300 
 7262              	.LASF83:
 7263 0102 6D736E5F 		.ascii	"msn_footer4\000"
 7263      666F6F74 
 7263      65723400 
 7264              	.LASF31:
 7265 010e 50726F63 		.ascii	"ProcessedvolumeSale\000"
 7265      65737365 
 7265      64766F6C 
 7265      756D6553 
ARM GAS  C:\Users\Diego\AppData\Local\Temp\ccnYGT0M.s 			page 147


 7265      616C6500 
 7266              	.LASF92:
 7267 0122 6D736E5F 		.ascii	"msn_pos\000"
 7267      706F7300 
 7268              	.LASF42:
 7269 012a 5072696E 		.ascii	"PrintShift\000"
 7269      74536869 
 7269      667400
 7270              	.LASF123:
 7271 0135 41534B5F 		.ascii	"ASK_TIME\000"
 7271      54494D45 
 7271      00
 7272              	.LASF32:
 7273 013e 50726F63 		.ascii	"ProcessedPPU\000"
 7273      65737365 
 7273      64505055 
 7273      00
 7274              	.LASF53:
 7275 014b 52656365 		.ascii	"Receipt\000"
 7275      69707400 
 7276              	.LASF115:
 7277 0153 50524E5F 		.ascii	"PRN_PRESET\000"
 7277      50524553 
 7277      455400
 7278              	.LASF111:
 7279 015e 50524E5F 		.ascii	"PRN_VOLUMEMONTH\000"
 7279      564F4C55 
 7279      4D454D4F 
 7279      4E544800 
 7280              	.LASF15:
 7281 016e 666C6F61 		.ascii	"float\000"
 7281      7400
 7282              	.LASF120:
 7283 0174 6D736E5F 		.ascii	"msn_lecaan\000"
 7283      6C656361 
 7283      616E00
 7284              	.LASF94:
 7285 017f 6D736E5F 		.ascii	"msn_ppu\000"
 7285      70707500 
 7286              	.LASF89:
 7287 0187 6D736E5F 		.ascii	"msn_placa\000"
 7287      706C6163 
 7287      6100
 7288              	.LASF110:
 7289 0191 50524E5F 		.ascii	"PRN_VOLUMEWEEK\000"
 7289      564F4C55 
 7289      4D455745 
 7289      454B00
 7290              	.LASF7:
 7291 01a0 6C6F6E67 		.ascii	"long long unsigned int\000"
 7291      206C6F6E 
 7291      6720756E 
 7291      7369676E 
 7291      65642069 
 7292              	.LASF74:
 7293 01b7 6D736E5F 		.ascii	"msn_EDS\000"
 7293      45445300 
ARM GAS  C:\Users\Diego\AppData\Local\Temp\ccnYGT0M.s 			page 148


 7294              	.LASF88:
 7295 01bf 6D736E5F 		.ascii	"msn_hora\000"
 7295      686F7261 
 7295      00
 7296              	.LASF91:
 7297 01c8 50524E5F 		.ascii	"PRN_TRANSTYPE\000"
 7297      5452414E 
 7297      53545950 
 7297      4500
 7298              	.LASF84:
 7299 01d6 6D736E5F 		.ascii	"msn_copy\000"
 7299      636F7079 
 7299      00
 7300              	.LASF68:
 7301 01df 546F7461 		.ascii	"TotalRequestType\000"
 7301      6C526571 
 7301      75657374 
 7301      54797065 
 7301      00
 7302              	.LASF40:
 7303 01f0 4C434452 		.ascii	"LCDRx\000"
 7303      7800
 7304              	.LASF114:
 7305 01f6 50524E5F 		.ascii	"PRN_MONEYMONTH\000"
 7305      4D4F4E45 
 7305      594D4F4E 
 7305      544800
 7306              	.LASF103:
 7307 0205 50524E5F 		.ascii	"PRN_ACCOUNT\000"
 7307      4143434F 
 7307      554E5400 
 7308              	.LASF109:
 7309 0211 50524E5F 		.ascii	"PRN_VOLUMEDAY\000"
 7309      564F4C55 
 7309      4D454441 
 7309      5900
 7310              	.LASF33:
 7311 021f 6D736E5F 		.ascii	"msn_plate\000"
 7311      706C6174 
 7311      6500
 7312              	.LASF126:
 7313 0229 433A5C55 		.ascii	"C:\\Users\\Diego\\Documents\\GitHub\\Mepsan\\Mepsan"
 7313      73657273 
 7313      5C446965 
 7313      676F5C44 
 7313      6F63756D 
 7314 0256 2E637964 		.ascii	".cydsn\000"
 7314      736E00
 7315              	.LASF58:
 7316 025d 696E745F 		.ascii	"int_shiftnumber\000"
 7316      73686966 
 7316      746E756D 
 7316      62657200 
 7317              	.LASF59:
 7318 026d 4C434468 		.ascii	"LCDhose\000"
 7318      6F736500 
 7319              	.LASF99:
ARM GAS  C:\Users\Diego\AppData\Local\Temp\ccnYGT0M.s 			page 149


 7320 0275 6D736E5F 		.ascii	"msn_venta\000"
 7320      76656E74 
 7320      6100
 7321              	.LASF90:
 7322 027f 50524E5F 		.ascii	"PRN_MILLEAGE\000"
 7322      4D494C4C 
 7322      45414745 
 7322      00
 7323              	.LASF100:
 7324 028c 6D736E5F 		.ascii	"msn_numero\000"
 7324      6E756D65 
 7324      726F00
 7325              	.LASF30:
 7326 0297 50726F63 		.ascii	"ProcessedmoneySale\000"
 7326      65737365 
 7326      646D6F6E 
 7326      65795361 
 7326      6C6500
 7327              	.LASF98:
 7328 02aa 6D736E5F 		.ascii	"msn_cierre\000"
 7328      63696572 
 7328      726500
 7329              	.LASF122:
 7330 02b5 53455041 		.ascii	"SEPARATOR\000"
 7330      5241544F 
 7330      5200
 7331              	.LASF27:
 7332 02bf 73746174 		.ascii	"states\000"
 7332      657300
 7333              	.LASF18:
 7334 02c6 63686172 		.ascii	"char\000"
 7334      00
 7335              	.LASF55:
 7336 02cb 73616C65 		.ascii	"sale_number_copy\000"
 7336      5F6E756D 
 7336      6265725F 
 7336      636F7079 
 7336      00
 7337              	.LASF106:
 7338 02dc 50524E5F 		.ascii	"PRN_VISITSDAY\000"
 7338      56495349 
 7338      54534441 
 7338      5900
 7339              	.LASF12:
 7340 02ea 75696E74 		.ascii	"uint16\000"
 7340      313600
 7341              	.LASF14:
 7342 02f1 696E7438 		.ascii	"int8\000"
 7342      00
 7343              	.LASF96:
 7344 02f6 6D736E5F 		.ascii	"msn_voltot\000"
 7344      766F6C74 
 7344      6F7400
 7345              	.LASF17:
 7346 0301 63686172 		.ascii	"char8\000"
 7346      3800
 7347              	.LASF67:
ARM GAS  C:\Users\Diego\AppData\Local\Temp\ccnYGT0M.s 			page 150


 7348 0307 506F7369 		.ascii	"Positions\000"
 7348      74696F6E 
 7348      7300
 7349              	.LASF86:
 7350 0311 6D736E5F 		.ascii	"msn_gasoline\000"
 7350      6761736F 
 7350      6C696E65 
 7350      00
 7351              	.LASF23:
 7352 031e 6D6F6E65 		.ascii	"moneySale\000"
 7352      7953616C 
 7352      6500
 7353              	.LASF6:
 7354 0328 6C6F6E67 		.ascii	"long long int\000"
 7354      206C6F6E 
 7354      6720696E 
 7354      7400
 7355              	.LASF25:
 7356 0336 70707553 		.ascii	"ppuSale\000"
 7356      616C6500 
 7357              	.LASF51:
 7358 033e 506F6C6C 		.ascii	"PollCounter\000"
 7358      436F756E 
 7358      74657200 
 7359              	.LASF22:
 7360 034a 7070754E 		.ascii	"ppuNozzle\000"
 7360      6F7A7A6C 
 7360      6500
 7361              	.LASF44:
 7362 0354 6C656374 		.ascii	"lectactual\000"
 7362      61637475 
 7362      616C00
 7363              	.LASF95:
 7364 035f 6D736E5F 		.ascii	"msn_vol\000"
 7364      766F6C00 
 7365              	.LASF47:
 7366 0367 61637475 		.ascii	"actual\000"
 7366      616C00
 7367              	.LASF13:
 7368 036e 75696E74 		.ascii	"uint32\000"
 7368      333200
 7369              	.LASF62:
 7370 0375 4D657073 		.ascii	"MepsanSendTo\000"
 7370      616E5365 
 7370      6E64546F 
 7370      00
 7371              	.LASF85:
 7372 0382 6D736E5F 		.ascii	"msn_diesel\000"
 7372      64696573 
 7372      656C00
 7373              	.LASF28:
 7374 038d 4D657073 		.ascii	"MepsanStore\000"
 7374      616E5374 
 7374      6F726500 
 7375              	.LASF52:
 7376 0399 43757272 		.ascii	"CurrentState\000"
 7376      656E7453 
ARM GAS  C:\Users\Diego\AppData\Local\Temp\ccnYGT0M.s 			page 151


 7376      74617465 
 7376      00
 7377              	.LASF119:
 7378 03a6 6D736E5F 		.ascii	"msn_lecact\000"
 7378      6C656361 
 7378      637400
 7379              	.LASF19:
 7380 03b1 6C6F6E67 		.ascii	"long double\000"
 7380      20646F75 
 7380      626C6500 
 7381              	.LASF105:
 7382 03bd 50524E5F 		.ascii	"PRN_ACCOUNTTYPE\000"
 7382      4143434F 
 7382      554E5454 
 7382      59504500 
 7383              	.LASF107:
 7384 03cd 50524E5F 		.ascii	"PRN_VISITSWEEK\000"
 7384      56495349 
 7384      54535745 
 7384      454B00
 7385              	.LASF2:
 7386 03dc 73686F72 		.ascii	"short int\000"
 7386      7420696E 
 7386      7400
 7387              	.LASF66:
 7388 03e6 6372635F 		.ascii	"crc_hi\000"
 7388      686900
 7389              	.LASF4:
 7390 03ed 6C6F6E67 		.ascii	"long int\000"
 7390      20696E74 
 7390      00
 7391              	.LASF50:
 7392 03f6 49544D5F 		.ascii	"ITM_RxBuffer\000"
 7392      52784275 
 7392      66666572 
 7392      00
 7393              	.LASF29:
 7394 0403 50726F63 		.ascii	"ProcessedTotals\000"
 7394      65737365 
 7394      64546F74 
 7394      616C7300 
 7395              	.LASF49:
 7396 0413 72657374 		.ascii	"resta\000"
 7396      6100
 7397              	.LASF45:
 7398 0419 6D656D6F 		.ascii	"memoria\000"
 7398      72696100 
 7399              	.LASF70:
 7400 0421 746F7563 		.ascii	"touch1\000"
 7400      683100
 7401              	.LASF36:
 7402 0428 436F7079 		.ascii	"Copy\000"
 7402      00
 7403              	.LASF43:
 7404 042d 6C656374 		.ascii	"lectanterior\000"
 7404      616E7465 
 7404      72696F72 
ARM GAS  C:\Users\Diego\AppData\Local\Temp\ccnYGT0M.s 			page 152


 7404      00
 7405              	.LASF112:
 7406 043a 50524E5F 		.ascii	"PRN_MONEYDAY\000"
 7406      4D4F4E45 
 7406      59444159 
 7406      00
 7407              	.LASF65:
 7408 0447 6372635F 		.ascii	"crc_lo\000"
 7408      6C6F00
 7409              	.LASF21:
 7410 044e 746F7461 		.ascii	"totalsNozzle\000"
 7410      6C734E6F 
 7410      7A7A6C65 
 7410      00
 7411              	.LASF61:
 7412 045b 4D657073 		.ascii	"MepsanResponse\000"
 7412      616E5265 
 7412      73706F6E 
 7412      736500
 7413              	.LASF93:
 7414 046a 6D736E5F 		.ascii	"msn_product\000"
 7414      70726F64 
 7414      75637400 
 7415              	.LASF20:
 7416 0476 73697A65 		.ascii	"sizetype\000"
 7416      74797065 
 7416      00
 7417              	.LASF5:
 7418 047f 6C6F6E67 		.ascii	"long unsigned int\000"
 7418      20756E73 
 7418      69676E65 
 7418      6420696E 
 7418      7400
 7419              	.LASF127:
 7420 0491 61646472 		.ascii	"address\000"
 7420      65737300 
 7421              	.LASF10:
 7422 0499 696E7433 		.ascii	"int32_t\000"
 7422      325F7400 
 7423              	.LASF87:
 7424 04a1 6D736E5F 		.ascii	"msn_fecha\000"
 7424      66656368 
 7424      6100
 7425              	.LASF41:
 7426 04ab 5072696E 		.ascii	"PrintReceipt\000"
 7426      74526563 
 7426      65697074 
 7426      00
 7427              	.LASF39:
 7428 04b8 73637265 		.ascii	"screen_size\000"
 7428      656E5F73 
 7428      697A6500 
 7429              	.LASF108:
 7430 04c4 50524E5F 		.ascii	"PRN_VISITSMONTH\000"
 7430      56495349 
 7430      54534D4F 
 7430      4E544800 
ARM GAS  C:\Users\Diego\AppData\Local\Temp\ccnYGT0M.s 			page 153


 7431              	.LASF1:
 7432 04d4 756E7369 		.ascii	"unsigned char\000"
 7432      676E6564 
 7432      20636861 
 7432      7200
 7433              	.LASF80:
 7434 04e2 6D736E5F 		.ascii	"msn_footer\000"
 7434      666F6F74 
 7434      657200
 7435              	.LASF57:
 7436 04ed 73686966 		.ascii	"shift_number\000"
 7436      745F6E75 
 7436      6D626572 
 7436      00
 7437              	.LASF72:
 7438 04fa 4C494E45 		.ascii	"LINE_FEED\000"
 7438      5F464545 
 7438      4400
 7439              	.LASF102:
 7440 0504 50524E5F 		.ascii	"PRN_COMPANY\000"
 7440      434F4D50 
 7440      414E5900 
 7441              	.LASF46:
 7442 0510 72657375 		.ascii	"resultado\000"
 7442      6C746164 
 7442      6F00
 7443              	.LASF34:
 7444 051a 4D657052 		.ascii	"MepRequest\000"
 7444      65717565 
 7444      737400
 7445              	.LASF38:
 7446 0525 70756D70 		.ascii	"pump\000"
 7446      00
 7447              	.LASF101:
 7448 052a 50524E5F 		.ascii	"PRN_BALANCE\000"
 7448      42414C41 
 7448      4E434500 
 7449              	.LASF125:
 7450 0536 7072696E 		.ascii	"printer.c\000"
 7450      7465722E 
 7450      6300
 7451              	.LASF48:
 7452 0540 616E7465 		.ascii	"anterior\000"
 7452      72696F72 
 7452      00
 7453              	.LASF24:
 7454 0549 766F6C75 		.ascii	"volumeSale\000"
 7454      6D655361 
 7454      6C6500
 7455              	.LASF117:
 7456 0554 50524E5F 		.ascii	"PRN_ID\000"
 7456      494400
 7457              	.LASF0:
 7458 055b 7369676E 		.ascii	"signed char\000"
 7458      65642063 
 7458      68617200 
 7459              	.LASF3:
ARM GAS  C:\Users\Diego\AppData\Local\Temp\ccnYGT0M.s 			page 154


 7460 0567 73686F72 		.ascii	"short unsigned int\000"
 7460      7420756E 
 7460      7369676E 
 7460      65642069 
 7460      6E7400
 7461              	.LASF116:
 7462 057a 50524E5F 		.ascii	"PRN_SIGNATURE\000"
 7462      5349474E 
 7462      41545552 
 7462      4500
 7463              	.LASF113:
 7464 0588 50524E5F 		.ascii	"PRN_MONEYWEEK\000"
 7464      4D4F4E45 
 7464      59574545 
 7464      4B00
 7465              	.LASF26:
 7466 0596 70726F64 		.ascii	"productSale\000"
 7466      75637453 
 7466      616C6500 
 7467              	.LASF75:
 7468 05a2 6D736E5F 		.ascii	"msn_EDS2\000"
 7468      45445332 
 7468      00
 7469              	.LASF76:
 7470 05ab 6D736E5F 		.ascii	"msn_EDS3\000"
 7470      45445333 
 7470      00
 7471              	.LASF77:
 7472 05b4 6D736E5F 		.ascii	"msn_EDS4\000"
 7472      45445334 
 7472      00
 7473              	.LASF78:
 7474 05bd 6D736E5F 		.ascii	"msn_EDS5\000"
 7474      45445335 
 7474      00
 7475              	.LASF79:
 7476 05c6 6D736E5F 		.ascii	"msn_EDS6\000"
 7476      45445336 
 7476      00
 7477              	.LASF11:
 7478 05cf 75696E74 		.ascii	"uint8\000"
 7478      3800
 7479              	.LASF16:
 7480 05d5 646F7562 		.ascii	"double\000"
 7480      6C6500
 7481              	.LASF104:
 7482 05dc 50524E5F 		.ascii	"PRN_SERIAL\000"
 7482      53455249 
 7482      414C00
 7483              	.LASF71:
 7484 05e7 64697247 		.ascii	"dirGbr\000"
 7484      627200
 7485              	.LASF118:
 7486 05ee 50524E5F 		.ascii	"PRN_CURRENCY\000"
 7486      43555252 
 7486      454E4359 
 7486      00
ARM GAS  C:\Users\Diego\AppData\Local\Temp\ccnYGT0M.s 			page 155


 7487              	.LASF73:
 7488 05fb 566F6C53 		.ascii	"VolSimbol\000"
 7488      696D626F 
 7488      6C00
 7489              	.LASF37:
 7490 0605 706F7369 		.ascii	"position\000"
 7490      74696F6E 
 7490      00
 7491              	.LASF121:
 7492 060e 6D736E5F 		.ascii	"msn_dif\000"
 7492      64696600 
 7493              	.LASF97:
 7494 0616 6D736E5F 		.ascii	"msn_din\000"
 7494      64696E00 
 7495              		.ident	"GCC: (GNU Tools for ARM Embedded Processors) 5.4.1 20160609 (release) [ARM/embedded-5-bran
