ARM GAS  C:\Users\Lenovo\AppData\Local\Temp\ccXim33P.s 			page 1


   1              		.syntax unified
   2              		.cpu cortex-m3
   3              		.fpu softvfp
   4              		.eabi_attribute 20, 1
   5              		.eabi_attribute 21, 1
   6              		.eabi_attribute 23, 3
   7              		.eabi_attribute 24, 1
   8              		.eabi_attribute 25, 1
   9              		.eabi_attribute 26, 1
  10              		.eabi_attribute 30, 6
  11              		.eabi_attribute 34, 1
  12              		.eabi_attribute 18, 4
  13              		.thumb
  14              		.syntax unified
  15              		.file	"printer.c"
  16              		.text
  17              	.Ltext0:
  18              		.cfi_sections	.debug_frame
  19              		.comm	PollCounter,2,2
  20              		.comm	CurrentState,1,1
  21              		.comm	Receipt,1,1
  22              		.comm	side,1164,4
  23              		.comm	MepsanResponse,50,4
  24              		.comm	MepsanSendTo,50,4
  25              		.comm	PumpAddress,15,4
  26              		.comm	CRC,2,2
  27              		.comm	crc_lo,1,1
  28              		.comm	crc_hi,1,1
  29              		.comm	Positions,1,1
  30              		.comm	TotalRequestType,1,1
  31              		.comm	DecVol,1,1
  32              		.comm	touch1,20,4
  33              		.comm	dirGbr,1,1
  34              		.global	LINE_FEED
  35              		.data
  36              		.type	LINE_FEED, %object
  37              		.size	LINE_FEED, 1
  38              	LINE_FEED:
  39 0000 0A       		.byte	10
  40              		.global	VolSimbol
  41 0001 000000   		.align	2
  42              		.type	VolSimbol, %object
  43              		.size	VolSimbol, 1
  44              	VolSimbol:
  45 0004 47       		.ascii	"G"
  46              		.global	msn_EDS
  47 0005 000000   		.align	2
  48              		.type	msn_EDS, %object
  49              		.size	msn_EDS, 22
  50              	msn_EDS:
  51 0008 20455354 		.ascii	" ESTACION DE SERVICIO "
  51      4143494F 
  51      4E204445 
  51      20534552 
  51      56494349 
  52              		.global	msn_EDS2
  53 001e 0000     		.align	2
ARM GAS  C:\Users\Lenovo\AppData\Local\Temp\ccXim33P.s 			page 2


  54              		.type	msn_EDS2, %object
  55              		.size	msn_EDS2, 22
  56              	msn_EDS2:
  57 0020 20202020 		.ascii	"    PRUEBAS MEPSAN    "
  57      50525545 
  57      42415320 
  57      4D455053 
  57      414E2020 
  58              		.global	msn_EDS3
  59 0036 0000     		.align	2
  60              		.type	msn_EDS3, %object
  61              		.size	msn_EDS3, 22
  62              	msn_EDS3:
  63 0038 20202054 		.ascii	"   Tel: (57)123456    "
  63      656C3A20 
  63      28353729 
  63      31323334 
  63      35362020 
  64              		.global	msn_EDS4
  65 004e 0000     		.align	2
  66              		.type	msn_EDS4, %object
  67              		.size	msn_EDS4, 22
  68              	msn_EDS4:
  69 0050 2020204E 		.ascii	"   NIT: 900.123.456   "
  69      49543A20 
  69      3930302E 
  69      3132332E 
  69      34353620 
  70              		.global	msn_plate
  71 0066 0000     		.align	2
  72              		.type	msn_plate, %object
  73              		.size	msn_plate, 7
  74              	msn_plate:
  75 0068 3132332D 		.ascii	"123-ABC"
  75      414243
  76              		.global	msn_footer
  77 006f 00       		.align	2
  78              		.type	msn_footer, %object
  79              		.size	msn_footer, 22
  80              	msn_footer:
  81 0070 20534953 		.ascii	" SISPETROL INGENIERIA "
  81      50455452 
  81      4F4C2049 
  81      4E47454E 
  81      49455249 
  82              		.global	msn_footer2
  83 0086 0000     		.align	2
  84              		.type	msn_footer2, %object
  85              		.size	msn_footer2, 22
  86              	msn_footer2:
  87 0088 2020534F 		.ascii	"  SOLUCIONES PARA EDS "
  87      4C554349 
  87      4F4E4553 
  87      20504152 
  87      41204544 
  88              		.global	msn_diesel
  89 009e 0000     		.align	2
ARM GAS  C:\Users\Lenovo\AppData\Local\Temp\ccXim33P.s 			page 3


  90              		.type	msn_diesel, %object
  91              		.size	msn_diesel, 8
  92              	msn_diesel:
  93 00a0 44696573 		.ascii	"Diesel  "
  93      656C2020 
  94              		.global	msn_gasoline
  95              		.align	2
  96              		.type	msn_gasoline, %object
  97              		.size	msn_gasoline, 9
  98              	msn_gasoline:
  99 00a8 436F7272 		.ascii	"Corriente"
  99      69656E74 
  99      65
 100              		.global	msn_fecha
 101 00b1 000000   		.align	2
 102              		.type	msn_fecha, %object
 103              		.size	msn_fecha, 13
 104              	msn_fecha:
 105 00b4 46656368 		.ascii	"Fecha      : "
 105      61202020 
 105      2020203A 
 105      20
 106              		.global	msn_hora
 107 00c1 000000   		.align	2
 108              		.type	msn_hora, %object
 109              		.size	msn_hora, 13
 110              	msn_hora:
 111 00c4 486F7261 		.ascii	"Hora       : "
 111      20202020 
 111      2020203A 
 111      20
 112              		.global	msn_placa
 113 00d1 000000   		.align	2
 114              		.type	msn_placa, %object
 115              		.size	msn_placa, 13
 116              	msn_placa:
 117 00d4 506C6163 		.ascii	"Placa      : "
 117      61202020 
 117      2020203A 
 117      20
 118              		.global	PRN_MILLEAGE
 119 00e1 000000   		.align	2
 120              		.type	PRN_MILLEAGE, %object
 121              		.size	PRN_MILLEAGE, 13
 122              	PRN_MILLEAGE:
 123 00e4 4B696C6F 		.ascii	"Kilometraje: "
 123      6D657472 
 123      616A653A 
 123      20
 124              		.global	PRN_TRANSTYPE
 125 00f1 000000   		.align	2
 126              		.type	PRN_TRANSTYPE, %object
 127              		.size	PRN_TRANSTYPE, 13
 128              	PRN_TRANSTYPE:
 129 00f4 5469706F 		.ascii	"Tipo       : "
 129      20202020 
 129      2020203A 
ARM GAS  C:\Users\Lenovo\AppData\Local\Temp\ccXim33P.s 			page 4


 129      20
 130              		.global	msn_pos
 131 0101 000000   		.align	2
 132              		.type	msn_pos, %object
 133              		.size	msn_pos, 13
 134              	msn_pos:
 135 0104 506F7369 		.ascii	"Posicion   : "
 135      63696F6E 
 135      2020203A 
 135      20
 136              		.global	msn_product
 137 0111 000000   		.align	2
 138              		.type	msn_product, %object
 139              		.size	msn_product, 13
 140              	msn_product:
 141 0114 50726F64 		.ascii	"Producto   : "
 141      7563746F 
 141      2020203A 
 141      20
 142              		.global	msn_ppu
 143 0121 000000   		.align	2
 144              		.type	msn_ppu, %object
 145              		.size	msn_ppu, 13
 146              	msn_ppu:
 147 0124 50707520 		.ascii	"Ppu        : "
 147      20202020 
 147      2020203A 
 147      20
 148              		.global	msn_vol
 149 0131 000000   		.align	2
 150              		.type	msn_vol, %object
 151              		.size	msn_vol, 13
 152              	msn_vol:
 153 0134 566F6C75 		.ascii	"Volumen    : "
 153      6D656E20 
 153      2020203A 
 153      20
 154              		.global	msn_voltot
 155 0141 000000   		.align	2
 156              		.type	msn_voltot, %object
 157              		.size	msn_voltot, 13
 158              	msn_voltot:
 159 0144 546F742E 		.ascii	"Tot.Vol    : "
 159      566F6C20 
 159      2020203A 
 159      20
 160              		.global	msn_din
 161 0151 000000   		.align	2
 162              		.type	msn_din, %object
 163              		.size	msn_din, 13
 164              	msn_din:
 165 0154 44696E65 		.ascii	"Dinero     : "
 165      726F2020 
 165      2020203A 
 165      20
 166              		.global	msn_cierre
 167 0161 000000   		.align	2
ARM GAS  C:\Users\Lenovo\AppData\Local\Temp\ccXim33P.s 			page 5


 168              		.type	msn_cierre, %object
 169              		.size	msn_cierre, 13
 170              	msn_cierre:
 171 0164 43696572 		.ascii	"Cierre No  : "
 171      7265204E 
 171      6F20203A 
 171      20
 172              		.global	msn_numero
 173 0171 000000   		.align	2
 174              		.type	msn_numero, %object
 175              		.size	msn_numero, 13
 176              	msn_numero:
 177 0174 436F6E73 		.ascii	"Consecutivo: "
 177      65637574 
 177      69766F3A 
 177      20
 178              		.global	PRN_BALANCE
 179 0181 000000   		.align	2
 180              		.type	PRN_BALANCE, %object
 181              		.size	PRN_BALANCE, 13
 182              	PRN_BALANCE:
 183 0184 53616C64 		.ascii	"Saldo      : "
 183      6F202020 
 183      2020203A 
 183      20
 184              		.global	PRN_COMPANY
 185 0191 000000   		.align	2
 186              		.type	PRN_COMPANY, %object
 187              		.size	PRN_COMPANY, 13
 188              	PRN_COMPANY:
 189 0194 456D7072 		.ascii	"Empresa    : "
 189      65736120 
 189      2020203A 
 189      20
 190              		.global	PRN_ACCOUNT
 191 01a1 000000   		.align	2
 192              		.type	PRN_ACCOUNT, %object
 193              		.size	PRN_ACCOUNT, 13
 194              	PRN_ACCOUNT:
 195 01a4 4375656E 		.ascii	"Cuenta     : "
 195      74612020 
 195      2020203A 
 195      20
 196              		.global	PRN_SERIAL
 197 01b1 000000   		.align	2
 198              		.type	PRN_SERIAL, %object
 199              		.size	PRN_SERIAL, 13
 200              	PRN_SERIAL:
 201 01b4 53657269 		.ascii	"Serial     : "
 201      616C2020 
 201      2020203A 
 201      20
 202              		.global	PRN_ACCOUNTTYPE
 203 01c1 000000   		.align	2
 204              		.type	PRN_ACCOUNTTYPE, %object
 205              		.size	PRN_ACCOUNTTYPE, 13
 206              	PRN_ACCOUNTTYPE:
ARM GAS  C:\Users\Lenovo\AppData\Local\Temp\ccXim33P.s 			page 6


 207 01c4 5469706F 		.ascii	"Tipo Cuenta: "
 207      20437565 
 207      6E74613A 
 207      20
 208              		.global	PRN_VISITSDAY
 209 01d1 000000   		.align	2
 210              		.type	PRN_VISITSDAY, %object
 211              		.size	PRN_VISITSDAY, 13
 212              	PRN_VISITSDAY:
 213 01d4 56697369 		.ascii	"Visitas Dia: "
 213      74617320 
 213      4469613A 
 213      20
 214              		.global	PRN_VISITSWEEK
 215 01e1 000000   		.align	2
 216              		.type	PRN_VISITSWEEK, %object
 217              		.size	PRN_VISITSWEEK, 13
 218              	PRN_VISITSWEEK:
 219 01e4 56697369 		.ascii	"Visitas Sem: "
 219      74617320 
 219      53656D3A 
 219      20
 220              		.global	PRN_VISITSMONTH
 221 01f1 000000   		.align	2
 222              		.type	PRN_VISITSMONTH, %object
 223              		.size	PRN_VISITSMONTH, 13
 224              	PRN_VISITSMONTH:
 225 01f4 56697369 		.ascii	"Visitas Mes: "
 225      74617320 
 225      4D65733A 
 225      20
 226              		.global	PRN_VOLUMEDAY
 227 0201 000000   		.align	2
 228              		.type	PRN_VOLUMEDAY, %object
 229              		.size	PRN_VOLUMEDAY, 13
 230              	PRN_VOLUMEDAY:
 231 0204 566F6C75 		.ascii	"Volumen Dia: "
 231      6D656E20 
 231      4469613A 
 231      20
 232              		.global	PRN_VOLUMEWEEK
 233 0211 000000   		.align	2
 234              		.type	PRN_VOLUMEWEEK, %object
 235              		.size	PRN_VOLUMEWEEK, 13
 236              	PRN_VOLUMEWEEK:
 237 0214 566F6C75 		.ascii	"Volumen Sem: "
 237      6D656E20 
 237      53656D3A 
 237      20
 238              		.global	PRN_VOLUMEMONTH
 239 0221 000000   		.align	2
 240              		.type	PRN_VOLUMEMONTH, %object
 241              		.size	PRN_VOLUMEMONTH, 13
 242              	PRN_VOLUMEMONTH:
 243 0224 566F6C75 		.ascii	"Volumen Mes: "
 243      6D656E20 
 243      4D65733A 
ARM GAS  C:\Users\Lenovo\AppData\Local\Temp\ccXim33P.s 			page 7


 243      20
 244              		.global	PRN_MONEYDAY
 245 0231 000000   		.align	2
 246              		.type	PRN_MONEYDAY, %object
 247              		.size	PRN_MONEYDAY, 13
 248              	PRN_MONEYDAY:
 249 0234 44696E65 		.ascii	"Dinero Dia : "
 249      726F2044 
 249      6961203A 
 249      20
 250              		.global	PRN_MONEYWEEK
 251 0241 000000   		.align	2
 252              		.type	PRN_MONEYWEEK, %object
 253              		.size	PRN_MONEYWEEK, 13
 254              	PRN_MONEYWEEK:
 255 0244 44696E65 		.ascii	"Dinero Sem : "
 255      726F2053 
 255      656D203A 
 255      20
 256              		.global	PRN_MONEYMONTH
 257 0251 000000   		.align	2
 258              		.type	PRN_MONEYMONTH, %object
 259              		.size	PRN_MONEYMONTH, 13
 260              	PRN_MONEYMONTH:
 261 0254 44696E65 		.ascii	"Dinero Mes : "
 261      726F204D 
 261      6573203A 
 261      20
 262              		.global	PRN_PRESET
 263 0261 000000   		.align	2
 264              		.type	PRN_PRESET, %object
 265              		.size	PRN_PRESET, 13
 266              	PRN_PRESET:
 267 0264 56616C6F 		.ascii	"Valor Prog.: "
 267      72205072 
 267      6F672E3A 
 267      20
 268              		.global	PRN_SIGNATURE
 269 0271 000000   		.align	2
 270              		.type	PRN_SIGNATURE, %object
 271              		.size	PRN_SIGNATURE, 13
 272              	PRN_SIGNATURE:
 273 0274 4669726D 		.ascii	"Firma      : "
 273      61202020 
 273      2020203A 
 273      20
 274              		.global	PRN_ID
 275 0281 000000   		.align	2
 276              		.type	PRN_ID, %object
 277              		.size	PRN_ID, 13
 278              	PRN_ID:
 279 0284 43656475 		.ascii	"Cedula     : "
 279      6C612020 
 279      2020203A 
 279      20
 280              		.global	PRN_CURRENCY
 281 0291 000000   		.align	2
ARM GAS  C:\Users\Lenovo\AppData\Local\Temp\ccXim33P.s 			page 8


 282              		.type	PRN_CURRENCY, %object
 283              		.size	PRN_CURRENCY, 1
 284              	PRN_CURRENCY:
 285 0294 24       		.ascii	"$"
 286              		.global	SEPARATOR
 287 0295 000000   		.align	2
 288              		.type	SEPARATOR, %object
 289              		.size	SEPARATOR, 24
 290              	SEPARATOR:
 291 0298 2A2A2A2A 		.ascii	"************************"
 291      2A2A2A2A 
 291      2A2A2A2A 
 291      2A2A2A2A 
 291      2A2A2A2A 
 292              		.global	ASK_TIME
 293              		.align	2
 294              		.type	ASK_TIME, %object
 295              		.size	ASK_TIME, 6
 296              	ASK_TIME:
 297 02b0 5A       		.byte	90
 298 02b1 A5       		.byte	-91
 299 02b2 03       		.byte	3
 300 02b3 81       		.byte	-127
 301 02b4 20       		.byte	32
 302 02b5 07       		.byte	7
 303              		.section	.text.PrintReceipt,"ax",%progbits
 304              		.align	2
 305              		.global	PrintReceipt
 306              		.thumb
 307              		.thumb_func
 308              		.type	PrintReceipt, %function
 309              	PrintReceipt:
 310              	.LFB63:
 311              		.file 1 "printer.c"
   1:printer.c     **** /* ========================================
   2:printer.c     ****  *
   3:printer.c     ****  * Copyright YOUR COMPANY, THE YEAR
   4:printer.c     ****  * All Rights Reserved
   5:printer.c     ****  * UNPUBLISHED, LICENSED SOFTWARE.
   6:printer.c     ****  *
   7:printer.c     ****  * CONFIDENTIAL AND PROPRIETARY INFORMATION
   8:printer.c     ****  * WHICH IS THE PROPERTY OF your company.
   9:printer.c     ****  *
  10:printer.c     ****  * ========================================
  11:printer.c     **** */
  12:printer.c     **** #include <project.h>
  13:printer.c     **** #include <GVar.h>
  14:printer.c     **** 
  15:printer.c     **** uint8 LINE_FEED = 0x0A;
  16:printer.c     **** char VolSimbol[1] = "G";
  17:printer.c     **** 
  18:printer.c     **** 
  19:printer.c     **** /***********  Temporal messages ******************/
  20:printer.c     **** uint8 msn_EDS[22]       = " ESTACION DE SERVICIO ";
  21:printer.c     **** uint8 msn_EDS2[22]      = "    PRUEBAS MEPSAN    ";
  22:printer.c     **** uint8 msn_EDS3[22]      = "   Tel: (57)123456    ";
  23:printer.c     **** uint8 msn_EDS4[22]      = "   NIT: 900.123.456   ";
ARM GAS  C:\Users\Lenovo\AppData\Local\Temp\ccXim33P.s 			page 9


  24:printer.c     **** uint8 msn_plate[7]      = "123-ABC";
  25:printer.c     **** uint8 msn_footer[22]    = " SISPETROL INGENIERIA ";
  26:printer.c     **** uint8 msn_footer2[22]   = "  SOLUCIONES PARA EDS ";
  27:printer.c     **** uint8 msn_diesel[8]     = "Diesel  ";
  28:printer.c     **** uint8 msn_gasoline[9]   = "Corriente";
  29:printer.c     **** 
  30:printer.c     **** /*********** informative messages ****************/
  31:printer.c     **** 
  32:printer.c     **** uint8 msn_fecha[13]       = "Fecha      : ";
  33:printer.c     **** uint8 msn_hora[13]        = "Hora       : ";
  34:printer.c     **** uint8 msn_placa[13]       = "Placa      : ";
  35:printer.c     **** uint8 PRN_MILLEAGE[13]    = "Kilometraje: ";
  36:printer.c     **** uint8 PRN_TRANSTYPE[13]   = "Tipo       : ";
  37:printer.c     **** uint8 msn_pos[13]         = "Posicion   : ";
  38:printer.c     **** uint8 msn_product[13]     = "Producto   : ";
  39:printer.c     **** uint8 msn_ppu[13]         = "Ppu        : ";
  40:printer.c     **** uint8 msn_vol[13]         = "Volumen    : ";
  41:printer.c     **** uint8 msn_voltot[13]      = "Tot.Vol    : ";
  42:printer.c     **** uint8 msn_din[13]         = "Dinero     : ";
  43:printer.c     **** uint8 msn_cierre[13]      = "Cierre No  : ";
  44:printer.c     **** uint8 msn_numero[13]      = "Consecutivo: ";
  45:printer.c     **** uint8 PRN_BALANCE[13]     = "Saldo      : ";
  46:printer.c     **** uint8 PRN_COMPANY[13]     = "Empresa    : ";
  47:printer.c     **** uint8 PRN_ACCOUNT[13]     = "Cuenta     : ";
  48:printer.c     **** uint8 PRN_SERIAL[13]      = "Serial     : ";
  49:printer.c     **** uint8 PRN_ACCOUNTTYPE[13] = "Tipo Cuenta: ";
  50:printer.c     **** uint8 PRN_VISITSDAY[13]   = "Visitas Dia: ";
  51:printer.c     **** uint8 PRN_VISITSWEEK[13]  = "Visitas Sem: ";
  52:printer.c     **** uint8 PRN_VISITSMONTH[13] = "Visitas Mes: ";
  53:printer.c     **** uint8 PRN_VOLUMEDAY[13]   = "Volumen Dia: ";
  54:printer.c     **** uint8 PRN_VOLUMEWEEK[13]  = "Volumen Sem: ";
  55:printer.c     **** uint8 PRN_VOLUMEMONTH[13] = "Volumen Mes: ";
  56:printer.c     **** uint8 PRN_MONEYDAY[13]    = "Dinero Dia : ";
  57:printer.c     **** uint8 PRN_MONEYWEEK[13]   = "Dinero Sem : ";
  58:printer.c     **** uint8 PRN_MONEYMONTH[13]  = "Dinero Mes : ";
  59:printer.c     **** uint8 PRN_PRESET[13]      = "Valor Prog.: ";
  60:printer.c     **** uint8 PRN_SIGNATURE[13]   = "Firma      : ";
  61:printer.c     **** uint8 PRN_ID[13]          = "Cedula     : ";
  62:printer.c     **** uint8 PRN_CURRENCY[1]     = "$";
  63:printer.c     **** uint8 SEPARATOR[24]       = "************************";
  64:printer.c     **** uint8 ASK_TIME[]={0x5A, 0xA5, 0x03, 0x81, 0x20, 0x07};
  65:printer.c     **** 
  66:printer.c     **** 
  67:printer.c     **** 
  68:printer.c     **** void PrintReceipt(uint8 address){
 312              		.loc 1 68 0
 313              		.cfi_startproc
 314              		@ args = 0, pretend = 0, frame = 104
 315              		@ frame_needed = 1, uses_anonymous_args = 0
 316 0000 90B5     		push	{r4, r7, lr}
 317              		.cfi_def_cfa_offset 12
 318              		.cfi_offset 4, -12
 319              		.cfi_offset 7, -8
 320              		.cfi_offset 14, -4
 321 0002 9BB0     		sub	sp, sp, #108
 322              		.cfi_def_cfa_offset 120
 323 0004 00AF     		add	r7, sp, #0
ARM GAS  C:\Users\Lenovo\AppData\Local\Temp\ccXim33P.s 			page 10


 324              		.cfi_def_cfa_register 7
 325 0006 0346     		mov	r3, r0
 326 0008 FB71     		strb	r3, [r7, #7]
 327              	.LBB2:
  69:printer.c     ****     int8 screen_size;
  70:printer.c     ****     for(uint8 LCDRx = 0; LCDRx < 6; LCDRx++){
 328              		.loc 1 70 0
 329 000a 0023     		movs	r3, #0
 330 000c 87F86730 		strb	r3, [r7, #103]
 331 0010 0BE0     		b	.L2
 332              	.L3:
  71:printer.c     ****         screen_PutChar(ASK_TIME[LCDRx]);
 333              		.loc 1 71 0 discriminator 3
 334 0012 97F86730 		ldrb	r3, [r7, #103]	@ zero_extendqisi2
 335 0016 CC4A     		ldr	r2, .L191
 336 0018 D35C     		ldrb	r3, [r2, r3]	@ zero_extendqisi2
 337 001a 1846     		mov	r0, r3
 338 001c FFF7FEFF 		bl	screen_PutChar
  70:printer.c     ****         screen_PutChar(ASK_TIME[LCDRx]);
 339              		.loc 1 70 0 discriminator 3
 340 0020 97F86730 		ldrb	r3, [r7, #103]	@ zero_extendqisi2
 341 0024 0133     		adds	r3, r3, #1
 342 0026 87F86730 		strb	r3, [r7, #103]
 343              	.L2:
  70:printer.c     ****         screen_PutChar(ASK_TIME[LCDRx]);
 344              		.loc 1 70 0 is_stmt 0 discriminator 1
 345 002a 97F86730 		ldrb	r3, [r7, #103]	@ zero_extendqisi2
 346 002e 052B     		cmp	r3, #5
 347 0030 EFD9     		bls	.L3
 348              	.LBE2:
  72:printer.c     ****     }
  73:printer.c     ****     CyDelay(4);
 349              		.loc 1 73 0 is_stmt 1
 350 0032 0420     		movs	r0, #4
 351 0034 FFF7FEFF 		bl	CyDelay
  74:printer.c     ****     screen_size = screen_GetRxBufferSize();
 352              		.loc 1 74 0
 353 0038 FFF7FEFF 		bl	screen_GetRxBufferSize
 354 003c 0346     		mov	r3, r0
 355 003e 7B73     		strb	r3, [r7, #13]
  75:printer.c     ****     if(screen_size >= 13 ){
 356              		.loc 1 75 0
 357 0040 97F90D30 		ldrsb	r3, [r7, #13]
 358 0044 0C2B     		cmp	r3, #12
 359 0046 18DD     		ble	.L4
 360              	.LBB3:
  76:printer.c     ****         for(uint8 LCDRx = 0; LCDRx < screen_size; LCDRx++){
 361              		.loc 1 76 0
 362 0048 0023     		movs	r3, #0
 363 004a 87F86630 		strb	r3, [r7, #102]
 364 004e 0CE0     		b	.L5
 365              	.L6:
  77:printer.c     ****             touch1[LCDRx] = screen_ReadRxData();
 366              		.loc 1 77 0 discriminator 3
 367 0050 97F86640 		ldrb	r4, [r7, #102]	@ zero_extendqisi2
 368 0054 FFF7FEFF 		bl	screen_ReadRxData
 369 0058 0346     		mov	r3, r0
ARM GAS  C:\Users\Lenovo\AppData\Local\Temp\ccXim33P.s 			page 11


 370 005a 1A46     		mov	r2, r3
 371 005c BB4B     		ldr	r3, .L191+4
 372 005e 1A55     		strb	r2, [r3, r4]
  76:printer.c     ****         for(uint8 LCDRx = 0; LCDRx < screen_size; LCDRx++){
 373              		.loc 1 76 0 discriminator 3
 374 0060 97F86630 		ldrb	r3, [r7, #102]	@ zero_extendqisi2
 375 0064 0133     		adds	r3, r3, #1
 376 0066 87F86630 		strb	r3, [r7, #102]
 377              	.L5:
  76:printer.c     ****         for(uint8 LCDRx = 0; LCDRx < screen_size; LCDRx++){
 378              		.loc 1 76 0 is_stmt 0 discriminator 1
 379 006a 97F86620 		ldrb	r2, [r7, #102]	@ zero_extendqisi2
 380 006e 97F90D30 		ldrsb	r3, [r7, #13]
 381 0072 9A42     		cmp	r2, r3
 382 0074 ECDB     		blt	.L6
 383              	.LBE3:
  78:printer.c     ****         }
  79:printer.c     ****         screen_size = 0;
 384              		.loc 1 79 0 is_stmt 1
 385 0076 0023     		movs	r3, #0
 386 0078 7B73     		strb	r3, [r7, #13]
 387              	.L4:
  80:printer.c     ****     }
  81:printer.c     ****     
  82:printer.c     ****     if(address == side.a.dir){
 388              		.loc 1 82 0
 389 007a B54B     		ldr	r3, .L191+8
 390 007c 1B78     		ldrb	r3, [r3]	@ zero_extendqisi2
 391 007e FA79     		ldrb	r2, [r7, #7]	@ zero_extendqisi2
 392 0080 9A42     		cmp	r2, r3
 393 0082 40F0DE82 		bne	.L7
 394              	.LBB4:
  83:printer.c     ****         for(uint8 x = 0; x < 22; x ++){
 395              		.loc 1 83 0
 396 0086 0023     		movs	r3, #0
 397 0088 87F86530 		strb	r3, [r7, #101]
 398 008c 0BE0     		b	.L8
 399              	.L9:
  84:printer.c     ****             UART_3_PutChar(msn_footer2[x]);
 400              		.loc 1 84 0 discriminator 3
 401 008e 97F86530 		ldrb	r3, [r7, #101]	@ zero_extendqisi2
 402 0092 B04A     		ldr	r2, .L191+12
 403 0094 D35C     		ldrb	r3, [r2, r3]	@ zero_extendqisi2
 404 0096 1846     		mov	r0, r3
 405 0098 FFF7FEFF 		bl	UART_3_PutChar
  83:printer.c     ****         for(uint8 x = 0; x < 22; x ++){
 406              		.loc 1 83 0 discriminator 3
 407 009c 97F86530 		ldrb	r3, [r7, #101]	@ zero_extendqisi2
 408 00a0 0133     		adds	r3, r3, #1
 409 00a2 87F86530 		strb	r3, [r7, #101]
 410              	.L8:
  83:printer.c     ****         for(uint8 x = 0; x < 22; x ++){
 411              		.loc 1 83 0 is_stmt 0 discriminator 1
 412 00a6 97F86530 		ldrb	r3, [r7, #101]	@ zero_extendqisi2
 413 00aa 152B     		cmp	r3, #21
 414 00ac EFD9     		bls	.L9
 415              	.LBE4:
ARM GAS  C:\Users\Lenovo\AppData\Local\Temp\ccXim33P.s 			page 12


  85:printer.c     ****         }
  86:printer.c     ****         UART_3_PutChar(LINE_FEED);
 416              		.loc 1 86 0 is_stmt 1
 417 00ae AA4B     		ldr	r3, .L191+16
 418 00b0 1B78     		ldrb	r3, [r3]	@ zero_extendqisi2
 419 00b2 1846     		mov	r0, r3
 420 00b4 FFF7FEFF 		bl	UART_3_PutChar
 421              	.LBB5:
  87:printer.c     ****         for(uint8 x = 0; x < 22; x ++){
 422              		.loc 1 87 0
 423 00b8 0023     		movs	r3, #0
 424 00ba 87F86430 		strb	r3, [r7, #100]
 425 00be 0BE0     		b	.L10
 426              	.L11:
  88:printer.c     ****             UART_3_PutChar(msn_footer[x]);
 427              		.loc 1 88 0 discriminator 3
 428 00c0 97F86430 		ldrb	r3, [r7, #100]	@ zero_extendqisi2
 429 00c4 A54A     		ldr	r2, .L191+20
 430 00c6 D35C     		ldrb	r3, [r2, r3]	@ zero_extendqisi2
 431 00c8 1846     		mov	r0, r3
 432 00ca FFF7FEFF 		bl	UART_3_PutChar
  87:printer.c     ****         for(uint8 x = 0; x < 22; x ++){
 433              		.loc 1 87 0 discriminator 3
 434 00ce 97F86430 		ldrb	r3, [r7, #100]	@ zero_extendqisi2
 435 00d2 0133     		adds	r3, r3, #1
 436 00d4 87F86430 		strb	r3, [r7, #100]
 437              	.L10:
  87:printer.c     ****         for(uint8 x = 0; x < 22; x ++){
 438              		.loc 1 87 0 is_stmt 0 discriminator 1
 439 00d8 97F86430 		ldrb	r3, [r7, #100]	@ zero_extendqisi2
 440 00dc 152B     		cmp	r3, #21
 441 00de EFD9     		bls	.L11
 442              	.LBE5:
  89:printer.c     ****         }
  90:printer.c     ****         UART_3_PutChar(LINE_FEED);
 443              		.loc 1 90 0 is_stmt 1
 444 00e0 9D4B     		ldr	r3, .L191+16
 445 00e2 1B78     		ldrb	r3, [r3]	@ zero_extendqisi2
 446 00e4 1846     		mov	r0, r3
 447 00e6 FFF7FEFF 		bl	UART_3_PutChar
 448              	.LBB6:
  91:printer.c     ****         for(uint8 x = 0; x < 24; x ++){
 449              		.loc 1 91 0
 450 00ea 0023     		movs	r3, #0
 451 00ec 87F86330 		strb	r3, [r7, #99]
 452 00f0 0BE0     		b	.L12
 453              	.L13:
  92:printer.c     ****             UART_3_PutChar(SEPARATOR[x]);
 454              		.loc 1 92 0 discriminator 3
 455 00f2 97F86330 		ldrb	r3, [r7, #99]	@ zero_extendqisi2
 456 00f6 9A4A     		ldr	r2, .L191+24
 457 00f8 D35C     		ldrb	r3, [r2, r3]	@ zero_extendqisi2
 458 00fa 1846     		mov	r0, r3
 459 00fc FFF7FEFF 		bl	UART_3_PutChar
  91:printer.c     ****         for(uint8 x = 0; x < 24; x ++){
 460              		.loc 1 91 0 discriminator 3
 461 0100 97F86330 		ldrb	r3, [r7, #99]	@ zero_extendqisi2
ARM GAS  C:\Users\Lenovo\AppData\Local\Temp\ccXim33P.s 			page 13


 462 0104 0133     		adds	r3, r3, #1
 463 0106 87F86330 		strb	r3, [r7, #99]
 464              	.L12:
  91:printer.c     ****         for(uint8 x = 0; x < 24; x ++){
 465              		.loc 1 91 0 is_stmt 0 discriminator 1
 466 010a 97F86330 		ldrb	r3, [r7, #99]	@ zero_extendqisi2
 467 010e 172B     		cmp	r3, #23
 468 0110 EFD9     		bls	.L13
 469              	.LBE6:
  93:printer.c     ****         }
  94:printer.c     ****         UART_3_PutChar(LINE_FEED);
 470              		.loc 1 94 0 is_stmt 1
 471 0112 914B     		ldr	r3, .L191+16
 472 0114 1B78     		ldrb	r3, [r3]	@ zero_extendqisi2
 473 0116 1846     		mov	r0, r3
 474 0118 FFF7FEFF 		bl	UART_3_PutChar
 475              	.LBB7:
  95:printer.c     ****         for(uint8 x = 0; x < 13; x ++){
 476              		.loc 1 95 0
 477 011c 0023     		movs	r3, #0
 478 011e 87F86230 		strb	r3, [r7, #98]
 479 0122 0BE0     		b	.L14
 480              	.L15:
  96:printer.c     ****             UART_3_PutChar(msn_ppu[x]);
 481              		.loc 1 96 0 discriminator 3
 482 0124 97F86230 		ldrb	r3, [r7, #98]	@ zero_extendqisi2
 483 0128 8E4A     		ldr	r2, .L191+28
 484 012a D35C     		ldrb	r3, [r2, r3]	@ zero_extendqisi2
 485 012c 1846     		mov	r0, r3
 486 012e FFF7FEFF 		bl	UART_3_PutChar
  95:printer.c     ****         for(uint8 x = 0; x < 13; x ++){
 487              		.loc 1 95 0 discriminator 3
 488 0132 97F86230 		ldrb	r3, [r7, #98]	@ zero_extendqisi2
 489 0136 0133     		adds	r3, r3, #1
 490 0138 87F86230 		strb	r3, [r7, #98]
 491              	.L14:
  95:printer.c     ****         for(uint8 x = 0; x < 13; x ++){
 492              		.loc 1 95 0 is_stmt 0 discriminator 1
 493 013c 97F86230 		ldrb	r3, [r7, #98]	@ zero_extendqisi2
 494 0140 0C2B     		cmp	r3, #12
 495 0142 EFD9     		bls	.L15
 496              	.LBE7:
  97:printer.c     ****         }
  98:printer.c     ****         UART_3_PutChar(PRN_CURRENCY[0]);  
 497              		.loc 1 98 0 is_stmt 1
 498 0144 884B     		ldr	r3, .L191+32
 499 0146 1B78     		ldrb	r3, [r3]	@ zero_extendqisi2
 500 0148 1846     		mov	r0, r3
 501 014a FFF7FEFF 		bl	UART_3_PutChar
  99:printer.c     ****         UART_3_PutChar(' ');
 502              		.loc 1 99 0
 503 014e 2020     		movs	r0, #32
 504 0150 FFF7FEFF 		bl	UART_3_PutChar
 505              	.LBB8:
 100:printer.c     ****         for(uint8 x = 1; x < 6; x ++){
 506              		.loc 1 100 0
 507 0154 0123     		movs	r3, #1
ARM GAS  C:\Users\Lenovo\AppData\Local\Temp\ccXim33P.s 			page 14


 508 0156 87F86130 		strb	r3, [r7, #97]
 509 015a 0DE0     		b	.L16
 510              	.L17:
 101:printer.c     ****             UART_3_PutChar(side.a.ProcessedPPU[0][x]);
 511              		.loc 1 101 0 discriminator 3
 512 015c 97F86130 		ldrb	r3, [r7, #97]	@ zero_extendqisi2
 513 0160 7B4A     		ldr	r2, .L191+8
 514 0162 1344     		add	r3, r3, r2
 515 0164 93F80B31 		ldrb	r3, [r3, #267]	@ zero_extendqisi2
 516 0168 1846     		mov	r0, r3
 517 016a FFF7FEFF 		bl	UART_3_PutChar
 100:printer.c     ****         for(uint8 x = 1; x < 6; x ++){
 518              		.loc 1 100 0 discriminator 3
 519 016e 97F86130 		ldrb	r3, [r7, #97]	@ zero_extendqisi2
 520 0172 0133     		adds	r3, r3, #1
 521 0174 87F86130 		strb	r3, [r7, #97]
 522              	.L16:
 100:printer.c     ****         for(uint8 x = 1; x < 6; x ++){
 523              		.loc 1 100 0 is_stmt 0 discriminator 1
 524 0178 97F86130 		ldrb	r3, [r7, #97]	@ zero_extendqisi2
 525 017c 052B     		cmp	r3, #5
 526 017e EDD9     		bls	.L17
 527              	.LBE8:
 102:printer.c     ****         }
 103:printer.c     ****         UART_3_PutChar(LINE_FEED);    
 528              		.loc 1 103 0 is_stmt 1
 529 0180 754B     		ldr	r3, .L191+16
 530 0182 1B78     		ldrb	r3, [r3]	@ zero_extendqisi2
 531 0184 1846     		mov	r0, r3
 532 0186 FFF7FEFF 		bl	UART_3_PutChar
 533              	.LBB9:
 104:printer.c     ****         for(uint8 x = 0; x < 13; x ++){
 534              		.loc 1 104 0
 535 018a 0023     		movs	r3, #0
 536 018c 87F86030 		strb	r3, [r7, #96]
 537 0190 0BE0     		b	.L18
 538              	.L19:
 105:printer.c     ****             UART_3_PutChar(msn_din[x]);
 539              		.loc 1 105 0 discriminator 3
 540 0192 97F86030 		ldrb	r3, [r7, #96]	@ zero_extendqisi2
 541 0196 754A     		ldr	r2, .L191+36
 542 0198 D35C     		ldrb	r3, [r2, r3]	@ zero_extendqisi2
 543 019a 1846     		mov	r0, r3
 544 019c FFF7FEFF 		bl	UART_3_PutChar
 104:printer.c     ****         for(uint8 x = 0; x < 13; x ++){
 545              		.loc 1 104 0 discriminator 3
 546 01a0 97F86030 		ldrb	r3, [r7, #96]	@ zero_extendqisi2
 547 01a4 0133     		adds	r3, r3, #1
 548 01a6 87F86030 		strb	r3, [r7, #96]
 549              	.L18:
 104:printer.c     ****         for(uint8 x = 0; x < 13; x ++){
 550              		.loc 1 104 0 is_stmt 0 discriminator 1
 551 01aa 97F86030 		ldrb	r3, [r7, #96]	@ zero_extendqisi2
 552 01ae 0C2B     		cmp	r3, #12
 553 01b0 EFD9     		bls	.L19
 554              	.LBE9:
 106:printer.c     ****         }     
ARM GAS  C:\Users\Lenovo\AppData\Local\Temp\ccXim33P.s 			page 15


 107:printer.c     ****         UART_3_PutChar(PRN_CURRENCY[0]);  
 555              		.loc 1 107 0 is_stmt 1
 556 01b2 6D4B     		ldr	r3, .L191+32
 557 01b4 1B78     		ldrb	r3, [r3]	@ zero_extendqisi2
 558 01b6 1846     		mov	r0, r3
 559 01b8 FFF7FEFF 		bl	UART_3_PutChar
 108:printer.c     ****         UART_3_PutChar(' ');
 560              		.loc 1 108 0
 561 01bc 2020     		movs	r0, #32
 562 01be FFF7FEFF 		bl	UART_3_PutChar
 563              	.LBB10:
 109:printer.c     ****         for(uint8 x = 0; x < 8; x ++){
 564              		.loc 1 109 0
 565 01c2 0023     		movs	r3, #0
 566 01c4 87F85F30 		strb	r3, [r7, #95]
 567 01c8 0DE0     		b	.L20
 568              	.L21:
 110:printer.c     ****             UART_3_PutChar(side.a.ProcessedmoneySale[x]);
 569              		.loc 1 110 0 discriminator 3
 570 01ca 97F85F30 		ldrb	r3, [r7, #95]	@ zero_extendqisi2
 571 01ce 604A     		ldr	r2, .L191+8
 572 01d0 1344     		add	r3, r3, r2
 573 01d2 93F8FB30 		ldrb	r3, [r3, #251]	@ zero_extendqisi2
 574 01d6 1846     		mov	r0, r3
 575 01d8 FFF7FEFF 		bl	UART_3_PutChar
 109:printer.c     ****         for(uint8 x = 0; x < 8; x ++){
 576              		.loc 1 109 0 discriminator 3
 577 01dc 97F85F30 		ldrb	r3, [r7, #95]	@ zero_extendqisi2
 578 01e0 0133     		adds	r3, r3, #1
 579 01e2 87F85F30 		strb	r3, [r7, #95]
 580              	.L20:
 109:printer.c     ****         for(uint8 x = 0; x < 8; x ++){
 581              		.loc 1 109 0 is_stmt 0 discriminator 1
 582 01e6 97F85F30 		ldrb	r3, [r7, #95]	@ zero_extendqisi2
 583 01ea 072B     		cmp	r3, #7
 584 01ec EDD9     		bls	.L21
 585              	.LBE10:
 111:printer.c     ****         } 
 112:printer.c     ****         UART_3_PutChar(LINE_FEED);    
 586              		.loc 1 112 0 is_stmt 1
 587 01ee 5A4B     		ldr	r3, .L191+16
 588 01f0 1B78     		ldrb	r3, [r3]	@ zero_extendqisi2
 589 01f2 1846     		mov	r0, r3
 590 01f4 FFF7FEFF 		bl	UART_3_PutChar
 591              	.LBB11:
 113:printer.c     ****         for(uint8 x = 0; x < 13; x ++){
 592              		.loc 1 113 0
 593 01f8 0023     		movs	r3, #0
 594 01fa 87F85E30 		strb	r3, [r7, #94]
 595 01fe 0BE0     		b	.L22
 596              	.L23:
 114:printer.c     ****             UART_3_PutChar(msn_vol[x]);
 597              		.loc 1 114 0 discriminator 3
 598 0200 97F85E30 		ldrb	r3, [r7, #94]	@ zero_extendqisi2
 599 0204 5A4A     		ldr	r2, .L191+40
 600 0206 D35C     		ldrb	r3, [r2, r3]	@ zero_extendqisi2
 601 0208 1846     		mov	r0, r3
ARM GAS  C:\Users\Lenovo\AppData\Local\Temp\ccXim33P.s 			page 16


 602 020a FFF7FEFF 		bl	UART_3_PutChar
 113:printer.c     ****         for(uint8 x = 0; x < 13; x ++){
 603              		.loc 1 113 0 discriminator 3
 604 020e 97F85E30 		ldrb	r3, [r7, #94]	@ zero_extendqisi2
 605 0212 0133     		adds	r3, r3, #1
 606 0214 87F85E30 		strb	r3, [r7, #94]
 607              	.L22:
 113:printer.c     ****         for(uint8 x = 0; x < 13; x ++){
 608              		.loc 1 113 0 is_stmt 0 discriminator 1
 609 0218 97F85E30 		ldrb	r3, [r7, #94]	@ zero_extendqisi2
 610 021c 0C2B     		cmp	r3, #12
 611 021e EFD9     		bls	.L23
 612              	.LBE11:
 613              	.LBB12:
 115:printer.c     ****         }
 116:printer.c     ****         for(uint8 x = 0; x < 8; x ++){
 614              		.loc 1 116 0 is_stmt 1
 615 0220 0023     		movs	r3, #0
 616 0222 87F85D30 		strb	r3, [r7, #93]
 617 0226 18E0     		b	.L24
 618              	.L26:
 117:printer.c     ****             if((8-x) == DecVol)
 619              		.loc 1 117 0
 620 0228 97F85D30 		ldrb	r3, [r7, #93]	@ zero_extendqisi2
 621 022c C3F10803 		rsb	r3, r3, #8
 622 0230 504A     		ldr	r2, .L191+44
 623 0232 1278     		ldrb	r2, [r2]	@ zero_extendqisi2
 624 0234 9342     		cmp	r3, r2
 625 0236 02D1     		bne	.L25
 118:printer.c     ****                 UART_3_PutChar('.');
 626              		.loc 1 118 0
 627 0238 2E20     		movs	r0, #46
 628 023a FFF7FEFF 		bl	UART_3_PutChar
 629              	.L25:
 119:printer.c     ****             UART_3_PutChar(side.a.ProcessedvolumeSale[x]);        
 630              		.loc 1 119 0 discriminator 2
 631 023e 97F85D30 		ldrb	r3, [r7, #93]	@ zero_extendqisi2
 632 0242 434A     		ldr	r2, .L191+8
 633 0244 1344     		add	r3, r3, r2
 634 0246 93F80331 		ldrb	r3, [r3, #259]	@ zero_extendqisi2
 635 024a 1846     		mov	r0, r3
 636 024c FFF7FEFF 		bl	UART_3_PutChar
 116:printer.c     ****             if((8-x) == DecVol)
 637              		.loc 1 116 0 discriminator 2
 638 0250 97F85D30 		ldrb	r3, [r7, #93]	@ zero_extendqisi2
 639 0254 0133     		adds	r3, r3, #1
 640 0256 87F85D30 		strb	r3, [r7, #93]
 641              	.L24:
 116:printer.c     ****             if((8-x) == DecVol)
 642              		.loc 1 116 0 is_stmt 0 discriminator 1
 643 025a 97F85D30 		ldrb	r3, [r7, #93]	@ zero_extendqisi2
 644 025e 072B     		cmp	r3, #7
 645 0260 E2D9     		bls	.L26
 646              	.LBE12:
 120:printer.c     ****         }
 121:printer.c     ****         UART_3_PutChar(' ');
 647              		.loc 1 121 0 is_stmt 1
ARM GAS  C:\Users\Lenovo\AppData\Local\Temp\ccXim33P.s 			page 17


 648 0262 2020     		movs	r0, #32
 649 0264 FFF7FEFF 		bl	UART_3_PutChar
 122:printer.c     ****         UART_3_PutChar(VolSimbol[0]);           
 650              		.loc 1 122 0
 651 0268 434B     		ldr	r3, .L191+48
 652 026a 1B78     		ldrb	r3, [r3]	@ zero_extendqisi2
 653 026c 1846     		mov	r0, r3
 654 026e FFF7FEFF 		bl	UART_3_PutChar
 123:printer.c     ****         UART_3_PutChar(LINE_FEED);
 655              		.loc 1 123 0
 656 0272 394B     		ldr	r3, .L191+16
 657 0274 1B78     		ldrb	r3, [r3]	@ zero_extendqisi2
 658 0276 1846     		mov	r0, r3
 659 0278 FFF7FEFF 		bl	UART_3_PutChar
 660              	.LBB13:
 124:printer.c     ****         for(uint8 x = 0; x < 13; x ++){
 661              		.loc 1 124 0
 662 027c 0023     		movs	r3, #0
 663 027e 87F85C30 		strb	r3, [r7, #92]
 664 0282 0BE0     		b	.L27
 665              	.L28:
 125:printer.c     ****             UART_3_PutChar(msn_product[x]);
 666              		.loc 1 125 0 discriminator 3
 667 0284 97F85C30 		ldrb	r3, [r7, #92]	@ zero_extendqisi2
 668 0288 3C4A     		ldr	r2, .L191+52
 669 028a D35C     		ldrb	r3, [r2, r3]	@ zero_extendqisi2
 670 028c 1846     		mov	r0, r3
 671 028e FFF7FEFF 		bl	UART_3_PutChar
 124:printer.c     ****         for(uint8 x = 0; x < 13; x ++){
 672              		.loc 1 124 0 discriminator 3
 673 0292 97F85C30 		ldrb	r3, [r7, #92]	@ zero_extendqisi2
 674 0296 0133     		adds	r3, r3, #1
 675 0298 87F85C30 		strb	r3, [r7, #92]
 676              	.L27:
 124:printer.c     ****         for(uint8 x = 0; x < 13; x ++){
 677              		.loc 1 124 0 is_stmt 0 discriminator 1
 678 029c 97F85C30 		ldrb	r3, [r7, #92]	@ zero_extendqisi2
 679 02a0 0C2B     		cmp	r3, #12
 680 02a2 EFD9     		bls	.L28
 681              	.LBE13:
 682              	.LBB14:
 126:printer.c     ****         }
 127:printer.c     ****         for(uint8 x = 0; x < 8; x ++){
 683              		.loc 1 127 0 is_stmt 1
 684 02a4 0023     		movs	r3, #0
 685 02a6 87F85B30 		strb	r3, [r7, #91]
 686 02aa 0BE0     		b	.L29
 687              	.L30:
 128:printer.c     ****             UART_3_PutChar(msn_diesel[x]);
 688              		.loc 1 128 0 discriminator 3
 689 02ac 97F85B30 		ldrb	r3, [r7, #91]	@ zero_extendqisi2
 690 02b0 334A     		ldr	r2, .L191+56
 691 02b2 D35C     		ldrb	r3, [r2, r3]	@ zero_extendqisi2
 692 02b4 1846     		mov	r0, r3
 693 02b6 FFF7FEFF 		bl	UART_3_PutChar
 127:printer.c     ****             UART_3_PutChar(msn_diesel[x]);
 694              		.loc 1 127 0 discriminator 3
ARM GAS  C:\Users\Lenovo\AppData\Local\Temp\ccXim33P.s 			page 18


 695 02ba 97F85B30 		ldrb	r3, [r7, #91]	@ zero_extendqisi2
 696 02be 0133     		adds	r3, r3, #1
 697 02c0 87F85B30 		strb	r3, [r7, #91]
 698              	.L29:
 127:printer.c     ****             UART_3_PutChar(msn_diesel[x]);
 699              		.loc 1 127 0 is_stmt 0 discriminator 1
 700 02c4 97F85B30 		ldrb	r3, [r7, #91]	@ zero_extendqisi2
 701 02c8 072B     		cmp	r3, #7
 702 02ca EFD9     		bls	.L30
 703              	.LBE14:
 129:printer.c     ****         }
 130:printer.c     ****         UART_3_PutChar(LINE_FEED);
 704              		.loc 1 130 0 is_stmt 1
 705 02cc 224B     		ldr	r3, .L191+16
 706 02ce 1B78     		ldrb	r3, [r3]	@ zero_extendqisi2
 707 02d0 1846     		mov	r0, r3
 708 02d2 FFF7FEFF 		bl	UART_3_PutChar
 709              	.LBB15:
 131:printer.c     ****         for(uint8 x = 0; x < 13; x ++){
 710              		.loc 1 131 0
 711 02d6 0023     		movs	r3, #0
 712 02d8 87F85A30 		strb	r3, [r7, #90]
 713 02dc 0BE0     		b	.L31
 714              	.L32:
 132:printer.c     ****             UART_3_PutChar(msn_pos[x]);
 715              		.loc 1 132 0 discriminator 3
 716 02de 97F85A30 		ldrb	r3, [r7, #90]	@ zero_extendqisi2
 717 02e2 284A     		ldr	r2, .L191+60
 718 02e4 D35C     		ldrb	r3, [r2, r3]	@ zero_extendqisi2
 719 02e6 1846     		mov	r0, r3
 720 02e8 FFF7FEFF 		bl	UART_3_PutChar
 131:printer.c     ****         for(uint8 x = 0; x < 13; x ++){
 721              		.loc 1 131 0 discriminator 3
 722 02ec 97F85A30 		ldrb	r3, [r7, #90]	@ zero_extendqisi2
 723 02f0 0133     		adds	r3, r3, #1
 724 02f2 87F85A30 		strb	r3, [r7, #90]
 725              	.L31:
 131:printer.c     ****         for(uint8 x = 0; x < 13; x ++){
 726              		.loc 1 131 0 is_stmt 0 discriminator 1
 727 02f6 97F85A30 		ldrb	r3, [r7, #90]	@ zero_extendqisi2
 728 02fa 0C2B     		cmp	r3, #12
 729 02fc EFD9     		bls	.L32
 730              	.LBE15:
 133:printer.c     ****         }
 134:printer.c     ****         UART_3_PutChar((side.a.dir)+ 0x31);
 731              		.loc 1 134 0 is_stmt 1
 732 02fe 144B     		ldr	r3, .L191+8
 733 0300 1B78     		ldrb	r3, [r3]	@ zero_extendqisi2
 734 0302 3133     		adds	r3, r3, #49
 735 0304 DBB2     		uxtb	r3, r3
 736 0306 1846     		mov	r0, r3
 737 0308 FFF7FEFF 		bl	UART_3_PutChar
 135:printer.c     ****         UART_3_PutChar(LINE_FEED);    
 738              		.loc 1 135 0
 739 030c 124B     		ldr	r3, .L191+16
 740 030e 1B78     		ldrb	r3, [r3]	@ zero_extendqisi2
 741 0310 1846     		mov	r0, r3
ARM GAS  C:\Users\Lenovo\AppData\Local\Temp\ccXim33P.s 			page 19


 742 0312 FFF7FEFF 		bl	UART_3_PutChar
 743              	.LBB16:
 136:printer.c     ****         for(uint8 x = 0; x < 13; x ++){
 744              		.loc 1 136 0
 745 0316 0023     		movs	r3, #0
 746 0318 87F85930 		strb	r3, [r7, #89]
 747 031c 0BE0     		b	.L33
 748              	.L34:
 137:printer.c     ****             UART_3_PutChar(msn_placa[x]);
 749              		.loc 1 137 0 discriminator 3
 750 031e 97F85930 		ldrb	r3, [r7, #89]	@ zero_extendqisi2
 751 0322 194A     		ldr	r2, .L191+64
 752 0324 D35C     		ldrb	r3, [r2, r3]	@ zero_extendqisi2
 753 0326 1846     		mov	r0, r3
 754 0328 FFF7FEFF 		bl	UART_3_PutChar
 136:printer.c     ****         for(uint8 x = 0; x < 13; x ++){
 755              		.loc 1 136 0 discriminator 3
 756 032c 97F85930 		ldrb	r3, [r7, #89]	@ zero_extendqisi2
 757 0330 0133     		adds	r3, r3, #1
 758 0332 87F85930 		strb	r3, [r7, #89]
 759              	.L33:
 136:printer.c     ****         for(uint8 x = 0; x < 13; x ++){
 760              		.loc 1 136 0 is_stmt 0 discriminator 1
 761 0336 97F85930 		ldrb	r3, [r7, #89]	@ zero_extendqisi2
 762 033a 0C2B     		cmp	r3, #12
 763 033c EFD9     		bls	.L34
 764              	.LBE16:
 765              	.LBB17:
 138:printer.c     ****         }
 139:printer.c     ****         for(uint8 x = 0; x < 7; x ++){
 766              		.loc 1 139 0 is_stmt 1
 767 033e 0023     		movs	r3, #0
 768 0340 87F85830 		strb	r3, [r7, #88]
 769 0344 2EE0     		b	.L35
 770              	.L192:
 771 0346 00BF     		.align	2
 772              	.L191:
 773 0348 00000000 		.word	ASK_TIME
 774 034c 00000000 		.word	touch1
 775 0350 00000000 		.word	side
 776 0354 00000000 		.word	msn_footer2
 777 0358 00000000 		.word	LINE_FEED
 778 035c 00000000 		.word	msn_footer
 779 0360 00000000 		.word	SEPARATOR
 780 0364 00000000 		.word	msn_ppu
 781 0368 00000000 		.word	PRN_CURRENCY
 782 036c 00000000 		.word	msn_din
 783 0370 00000000 		.word	msn_vol
 784 0374 00000000 		.word	DecVol
 785 0378 00000000 		.word	VolSimbol
 786 037c 00000000 		.word	msn_product
 787 0380 00000000 		.word	msn_diesel
 788 0384 00000000 		.word	msn_pos
 789 0388 00000000 		.word	msn_placa
 790              	.L36:
 140:printer.c     ****             UART_3_PutChar(msn_plate[x]);
 791              		.loc 1 140 0 discriminator 3
ARM GAS  C:\Users\Lenovo\AppData\Local\Temp\ccXim33P.s 			page 20


 792 038c 97F85830 		ldrb	r3, [r7, #88]	@ zero_extendqisi2
 793 0390 BE4A     		ldr	r2, .L193
 794 0392 D35C     		ldrb	r3, [r2, r3]	@ zero_extendqisi2
 795 0394 1846     		mov	r0, r3
 796 0396 FFF7FEFF 		bl	UART_3_PutChar
 139:printer.c     ****             UART_3_PutChar(msn_plate[x]);
 797              		.loc 1 139 0 discriminator 3
 798 039a 97F85830 		ldrb	r3, [r7, #88]	@ zero_extendqisi2
 799 039e 0133     		adds	r3, r3, #1
 800 03a0 87F85830 		strb	r3, [r7, #88]
 801              	.L35:
 139:printer.c     ****             UART_3_PutChar(msn_plate[x]);
 802              		.loc 1 139 0 is_stmt 0 discriminator 1
 803 03a4 97F85830 		ldrb	r3, [r7, #88]	@ zero_extendqisi2
 804 03a8 062B     		cmp	r3, #6
 805 03aa EFD9     		bls	.L36
 806              	.LBE17:
 141:printer.c     ****         }
 142:printer.c     ****         UART_3_PutChar(LINE_FEED);
 807              		.loc 1 142 0 is_stmt 1
 808 03ac B84B     		ldr	r3, .L193+4
 809 03ae 1B78     		ldrb	r3, [r3]	@ zero_extendqisi2
 810 03b0 1846     		mov	r0, r3
 811 03b2 FFF7FEFF 		bl	UART_3_PutChar
 812              	.LBB18:
 143:printer.c     ****         for(uint8 x = 0; x < 24; x ++){
 813              		.loc 1 143 0
 814 03b6 0023     		movs	r3, #0
 815 03b8 87F85730 		strb	r3, [r7, #87]
 816 03bc 0BE0     		b	.L37
 817              	.L38:
 144:printer.c     ****             UART_3_PutChar(SEPARATOR[x]);
 818              		.loc 1 144 0 discriminator 3
 819 03be 97F85730 		ldrb	r3, [r7, #87]	@ zero_extendqisi2
 820 03c2 B44A     		ldr	r2, .L193+8
 821 03c4 D35C     		ldrb	r3, [r2, r3]	@ zero_extendqisi2
 822 03c6 1846     		mov	r0, r3
 823 03c8 FFF7FEFF 		bl	UART_3_PutChar
 143:printer.c     ****         for(uint8 x = 0; x < 24; x ++){
 824              		.loc 1 143 0 discriminator 3
 825 03cc 97F85730 		ldrb	r3, [r7, #87]	@ zero_extendqisi2
 826 03d0 0133     		adds	r3, r3, #1
 827 03d2 87F85730 		strb	r3, [r7, #87]
 828              	.L37:
 143:printer.c     ****         for(uint8 x = 0; x < 24; x ++){
 829              		.loc 1 143 0 is_stmt 0 discriminator 1
 830 03d6 97F85730 		ldrb	r3, [r7, #87]	@ zero_extendqisi2
 831 03da 172B     		cmp	r3, #23
 832 03dc EFD9     		bls	.L38
 833              	.LBE18:
 145:printer.c     ****         }
 146:printer.c     ****         UART_3_PutChar(LINE_FEED);
 834              		.loc 1 146 0 is_stmt 1
 835 03de AC4B     		ldr	r3, .L193+4
 836 03e0 1B78     		ldrb	r3, [r3]	@ zero_extendqisi2
 837 03e2 1846     		mov	r0, r3
 838 03e4 FFF7FEFF 		bl	UART_3_PutChar
ARM GAS  C:\Users\Lenovo\AppData\Local\Temp\ccXim33P.s 			page 21


 839              	.LBB19:
 147:printer.c     ****         for(uint8 x = 0; x < 13; x ++){
 840              		.loc 1 147 0
 841 03e8 0023     		movs	r3, #0
 842 03ea 87F85630 		strb	r3, [r7, #86]
 843 03ee 0BE0     		b	.L39
 844              	.L40:
 148:printer.c     ****             UART_3_PutChar(msn_hora[x]);
 845              		.loc 1 148 0 discriminator 3
 846 03f0 97F85630 		ldrb	r3, [r7, #86]	@ zero_extendqisi2
 847 03f4 A84A     		ldr	r2, .L193+12
 848 03f6 D35C     		ldrb	r3, [r2, r3]	@ zero_extendqisi2
 849 03f8 1846     		mov	r0, r3
 850 03fa FFF7FEFF 		bl	UART_3_PutChar
 147:printer.c     ****         for(uint8 x = 0; x < 13; x ++){
 851              		.loc 1 147 0 discriminator 3
 852 03fe 97F85630 		ldrb	r3, [r7, #86]	@ zero_extendqisi2
 853 0402 0133     		adds	r3, r3, #1
 854 0404 87F85630 		strb	r3, [r7, #86]
 855              	.L39:
 147:printer.c     ****         for(uint8 x = 0; x < 13; x ++){
 856              		.loc 1 147 0 is_stmt 0 discriminator 1
 857 0408 97F85630 		ldrb	r3, [r7, #86]	@ zero_extendqisi2
 858 040c 0C2B     		cmp	r3, #12
 859 040e EFD9     		bls	.L40
 860              	.LBE19:
 149:printer.c     ****         }
 150:printer.c     ****         UART_3_PutChar(((touch1[10] >> 4) + 0x30)) ;
 861              		.loc 1 150 0 is_stmt 1
 862 0410 A24B     		ldr	r3, .L193+16
 863 0412 9B7A     		ldrb	r3, [r3, #10]	@ zero_extendqisi2
 864 0414 1B09     		lsrs	r3, r3, #4
 865 0416 DBB2     		uxtb	r3, r3
 866 0418 3033     		adds	r3, r3, #48
 867 041a DBB2     		uxtb	r3, r3
 868 041c 1846     		mov	r0, r3
 869 041e FFF7FEFF 		bl	UART_3_PutChar
 151:printer.c     ****         UART_3_PutChar(((touch1[10] & 0x0F) + 0x30));
 870              		.loc 1 151 0
 871 0422 9E4B     		ldr	r3, .L193+16
 872 0424 9B7A     		ldrb	r3, [r3, #10]	@ zero_extendqisi2
 873 0426 03F00F03 		and	r3, r3, #15
 874 042a DBB2     		uxtb	r3, r3
 875 042c 3033     		adds	r3, r3, #48
 876 042e DBB2     		uxtb	r3, r3
 877 0430 1846     		mov	r0, r3
 878 0432 FFF7FEFF 		bl	UART_3_PutChar
 152:printer.c     ****         UART_3_PutChar(':');
 879              		.loc 1 152 0
 880 0436 3A20     		movs	r0, #58
 881 0438 FFF7FEFF 		bl	UART_3_PutChar
 153:printer.c     ****         UART_3_PutChar(((touch1[11] >> 4) + 0x30)) ;
 882              		.loc 1 153 0
 883 043c 974B     		ldr	r3, .L193+16
 884 043e DB7A     		ldrb	r3, [r3, #11]	@ zero_extendqisi2
 885 0440 1B09     		lsrs	r3, r3, #4
 886 0442 DBB2     		uxtb	r3, r3
ARM GAS  C:\Users\Lenovo\AppData\Local\Temp\ccXim33P.s 			page 22


 887 0444 3033     		adds	r3, r3, #48
 888 0446 DBB2     		uxtb	r3, r3
 889 0448 1846     		mov	r0, r3
 890 044a FFF7FEFF 		bl	UART_3_PutChar
 154:printer.c     ****         UART_3_PutChar(((touch1[11] & 0x0F) + 0x30));
 891              		.loc 1 154 0
 892 044e 934B     		ldr	r3, .L193+16
 893 0450 DB7A     		ldrb	r3, [r3, #11]	@ zero_extendqisi2
 894 0452 03F00F03 		and	r3, r3, #15
 895 0456 DBB2     		uxtb	r3, r3
 896 0458 3033     		adds	r3, r3, #48
 897 045a DBB2     		uxtb	r3, r3
 898 045c 1846     		mov	r0, r3
 899 045e FFF7FEFF 		bl	UART_3_PutChar
 155:printer.c     ****         UART_3_PutChar(':');
 900              		.loc 1 155 0
 901 0462 3A20     		movs	r0, #58
 902 0464 FFF7FEFF 		bl	UART_3_PutChar
 156:printer.c     ****         UART_3_PutChar(((touch1[12] >> 4) + 0x30)) ;
 903              		.loc 1 156 0
 904 0468 8C4B     		ldr	r3, .L193+16
 905 046a 1B7B     		ldrb	r3, [r3, #12]	@ zero_extendqisi2
 906 046c 1B09     		lsrs	r3, r3, #4
 907 046e DBB2     		uxtb	r3, r3
 908 0470 3033     		adds	r3, r3, #48
 909 0472 DBB2     		uxtb	r3, r3
 910 0474 1846     		mov	r0, r3
 911 0476 FFF7FEFF 		bl	UART_3_PutChar
 157:printer.c     ****         UART_3_PutChar(((touch1[12] & 0x0F) + 0x30));
 912              		.loc 1 157 0
 913 047a 884B     		ldr	r3, .L193+16
 914 047c 1B7B     		ldrb	r3, [r3, #12]	@ zero_extendqisi2
 915 047e 03F00F03 		and	r3, r3, #15
 916 0482 DBB2     		uxtb	r3, r3
 917 0484 3033     		adds	r3, r3, #48
 918 0486 DBB2     		uxtb	r3, r3
 919 0488 1846     		mov	r0, r3
 920 048a FFF7FEFF 		bl	UART_3_PutChar
 158:printer.c     **** 
 159:printer.c     ****         UART_3_PutChar(LINE_FEED);
 921              		.loc 1 159 0
 922 048e 804B     		ldr	r3, .L193+4
 923 0490 1B78     		ldrb	r3, [r3]	@ zero_extendqisi2
 924 0492 1846     		mov	r0, r3
 925 0494 FFF7FEFF 		bl	UART_3_PutChar
 926              	.LBB20:
 160:printer.c     ****         for(uint8 x = 0; x < 13; x ++){
 927              		.loc 1 160 0
 928 0498 0023     		movs	r3, #0
 929 049a 87F85530 		strb	r3, [r7, #85]
 930 049e 0BE0     		b	.L41
 931              	.L42:
 161:printer.c     ****             UART_3_PutChar(msn_fecha[x]);
 932              		.loc 1 161 0 discriminator 3
 933 04a0 97F85530 		ldrb	r3, [r7, #85]	@ zero_extendqisi2
 934 04a4 7E4A     		ldr	r2, .L193+20
 935 04a6 D35C     		ldrb	r3, [r2, r3]	@ zero_extendqisi2
ARM GAS  C:\Users\Lenovo\AppData\Local\Temp\ccXim33P.s 			page 23


 936 04a8 1846     		mov	r0, r3
 937 04aa FFF7FEFF 		bl	UART_3_PutChar
 160:printer.c     ****         for(uint8 x = 0; x < 13; x ++){
 938              		.loc 1 160 0 discriminator 3
 939 04ae 97F85530 		ldrb	r3, [r7, #85]	@ zero_extendqisi2
 940 04b2 0133     		adds	r3, r3, #1
 941 04b4 87F85530 		strb	r3, [r7, #85]
 942              	.L41:
 160:printer.c     ****         for(uint8 x = 0; x < 13; x ++){
 943              		.loc 1 160 0 is_stmt 0 discriminator 1
 944 04b8 97F85530 		ldrb	r3, [r7, #85]	@ zero_extendqisi2
 945 04bc 0C2B     		cmp	r3, #12
 946 04be EFD9     		bls	.L42
 947              	.LBE20:
 162:printer.c     ****         }  
 163:printer.c     ****         UART_3_PutChar(((touch1[6] >> 4) + 0x30)) ;
 948              		.loc 1 163 0 is_stmt 1
 949 04c0 764B     		ldr	r3, .L193+16
 950 04c2 9B79     		ldrb	r3, [r3, #6]	@ zero_extendqisi2
 951 04c4 1B09     		lsrs	r3, r3, #4
 952 04c6 DBB2     		uxtb	r3, r3
 953 04c8 3033     		adds	r3, r3, #48
 954 04ca DBB2     		uxtb	r3, r3
 955 04cc 1846     		mov	r0, r3
 956 04ce FFF7FEFF 		bl	UART_3_PutChar
 164:printer.c     ****         UART_3_PutChar(((touch1[6] & 0x0F) + 0x30));
 957              		.loc 1 164 0
 958 04d2 724B     		ldr	r3, .L193+16
 959 04d4 9B79     		ldrb	r3, [r3, #6]	@ zero_extendqisi2
 960 04d6 03F00F03 		and	r3, r3, #15
 961 04da DBB2     		uxtb	r3, r3
 962 04dc 3033     		adds	r3, r3, #48
 963 04de DBB2     		uxtb	r3, r3
 964 04e0 1846     		mov	r0, r3
 965 04e2 FFF7FEFF 		bl	UART_3_PutChar
 165:printer.c     ****         UART_3_PutChar('/');
 966              		.loc 1 165 0
 967 04e6 2F20     		movs	r0, #47
 968 04e8 FFF7FEFF 		bl	UART_3_PutChar
 166:printer.c     ****         UART_3_PutChar(((touch1[7] >> 4) + 0x30)) ;
 969              		.loc 1 166 0
 970 04ec 6B4B     		ldr	r3, .L193+16
 971 04ee DB79     		ldrb	r3, [r3, #7]	@ zero_extendqisi2
 972 04f0 1B09     		lsrs	r3, r3, #4
 973 04f2 DBB2     		uxtb	r3, r3
 974 04f4 3033     		adds	r3, r3, #48
 975 04f6 DBB2     		uxtb	r3, r3
 976 04f8 1846     		mov	r0, r3
 977 04fa FFF7FEFF 		bl	UART_3_PutChar
 167:printer.c     ****         UART_3_PutChar(((touch1[7] & 0x0F) + 0x30));
 978              		.loc 1 167 0
 979 04fe 674B     		ldr	r3, .L193+16
 980 0500 DB79     		ldrb	r3, [r3, #7]	@ zero_extendqisi2
 981 0502 03F00F03 		and	r3, r3, #15
 982 0506 DBB2     		uxtb	r3, r3
 983 0508 3033     		adds	r3, r3, #48
 984 050a DBB2     		uxtb	r3, r3
ARM GAS  C:\Users\Lenovo\AppData\Local\Temp\ccXim33P.s 			page 24


 985 050c 1846     		mov	r0, r3
 986 050e FFF7FEFF 		bl	UART_3_PutChar
 168:printer.c     ****         UART_3_PutChar('/');
 987              		.loc 1 168 0
 988 0512 2F20     		movs	r0, #47
 989 0514 FFF7FEFF 		bl	UART_3_PutChar
 169:printer.c     ****         UART_3_PutChar(((touch1[8] >> 4) + 0x30)) ;
 990              		.loc 1 169 0
 991 0518 604B     		ldr	r3, .L193+16
 992 051a 1B7A     		ldrb	r3, [r3, #8]	@ zero_extendqisi2
 993 051c 1B09     		lsrs	r3, r3, #4
 994 051e DBB2     		uxtb	r3, r3
 995 0520 3033     		adds	r3, r3, #48
 996 0522 DBB2     		uxtb	r3, r3
 997 0524 1846     		mov	r0, r3
 998 0526 FFF7FEFF 		bl	UART_3_PutChar
 170:printer.c     ****         UART_3_PutChar(((touch1[8] & 0x0F) + 0x30));
 999              		.loc 1 170 0
 1000 052a 5C4B     		ldr	r3, .L193+16
 1001 052c 1B7A     		ldrb	r3, [r3, #8]	@ zero_extendqisi2
 1002 052e 03F00F03 		and	r3, r3, #15
 1003 0532 DBB2     		uxtb	r3, r3
 1004 0534 3033     		adds	r3, r3, #48
 1005 0536 DBB2     		uxtb	r3, r3
 1006 0538 1846     		mov	r0, r3
 1007 053a FFF7FEFF 		bl	UART_3_PutChar
 171:printer.c     ****  
 172:printer.c     ****         UART_3_PutChar(LINE_FEED);
 1008              		.loc 1 172 0
 1009 053e 544B     		ldr	r3, .L193+4
 1010 0540 1B78     		ldrb	r3, [r3]	@ zero_extendqisi2
 1011 0542 1846     		mov	r0, r3
 1012 0544 FFF7FEFF 		bl	UART_3_PutChar
 1013              	.LBB21:
 173:printer.c     ****         for(uint8 x = 0; x < 24; x ++){
 1014              		.loc 1 173 0
 1015 0548 0023     		movs	r3, #0
 1016 054a 87F85430 		strb	r3, [r7, #84]
 1017 054e 0BE0     		b	.L43
 1018              	.L44:
 174:printer.c     ****             UART_3_PutChar(SEPARATOR[x]);
 1019              		.loc 1 174 0 discriminator 3
 1020 0550 97F85430 		ldrb	r3, [r7, #84]	@ zero_extendqisi2
 1021 0554 4F4A     		ldr	r2, .L193+8
 1022 0556 D35C     		ldrb	r3, [r2, r3]	@ zero_extendqisi2
 1023 0558 1846     		mov	r0, r3
 1024 055a FFF7FEFF 		bl	UART_3_PutChar
 173:printer.c     ****         for(uint8 x = 0; x < 24; x ++){
 1025              		.loc 1 173 0 discriminator 3
 1026 055e 97F85430 		ldrb	r3, [r7, #84]	@ zero_extendqisi2
 1027 0562 0133     		adds	r3, r3, #1
 1028 0564 87F85430 		strb	r3, [r7, #84]
 1029              	.L43:
 173:printer.c     ****         for(uint8 x = 0; x < 24; x ++){
 1030              		.loc 1 173 0 is_stmt 0 discriminator 1
 1031 0568 97F85430 		ldrb	r3, [r7, #84]	@ zero_extendqisi2
 1032 056c 172B     		cmp	r3, #23
ARM GAS  C:\Users\Lenovo\AppData\Local\Temp\ccXim33P.s 			page 25


 1033 056e EFD9     		bls	.L44
 1034              	.LBE21:
 175:printer.c     ****         }
 176:printer.c     ****         UART_3_PutChar(LINE_FEED);
 1035              		.loc 1 176 0 is_stmt 1
 1036 0570 474B     		ldr	r3, .L193+4
 1037 0572 1B78     		ldrb	r3, [r3]	@ zero_extendqisi2
 1038 0574 1846     		mov	r0, r3
 1039 0576 FFF7FEFF 		bl	UART_3_PutChar
 1040              	.LBB22:
 177:printer.c     ****         for(uint8 x = 0; x < 22; x ++){
 1041              		.loc 1 177 0
 1042 057a 0023     		movs	r3, #0
 1043 057c 87F85330 		strb	r3, [r7, #83]
 1044 0580 0BE0     		b	.L45
 1045              	.L46:
 178:printer.c     ****             UART_3_PutChar(msn_EDS4[x]);
 1046              		.loc 1 178 0 discriminator 3
 1047 0582 97F85330 		ldrb	r3, [r7, #83]	@ zero_extendqisi2
 1048 0586 474A     		ldr	r2, .L193+24
 1049 0588 D35C     		ldrb	r3, [r2, r3]	@ zero_extendqisi2
 1050 058a 1846     		mov	r0, r3
 1051 058c FFF7FEFF 		bl	UART_3_PutChar
 177:printer.c     ****         for(uint8 x = 0; x < 22; x ++){
 1052              		.loc 1 177 0 discriminator 3
 1053 0590 97F85330 		ldrb	r3, [r7, #83]	@ zero_extendqisi2
 1054 0594 0133     		adds	r3, r3, #1
 1055 0596 87F85330 		strb	r3, [r7, #83]
 1056              	.L45:
 177:printer.c     ****         for(uint8 x = 0; x < 22; x ++){
 1057              		.loc 1 177 0 is_stmt 0 discriminator 1
 1058 059a 97F85330 		ldrb	r3, [r7, #83]	@ zero_extendqisi2
 1059 059e 152B     		cmp	r3, #21
 1060 05a0 EFD9     		bls	.L46
 1061              	.LBE22:
 179:printer.c     ****         }
 180:printer.c     ****         UART_3_PutChar(LINE_FEED);
 1062              		.loc 1 180 0 is_stmt 1
 1063 05a2 3B4B     		ldr	r3, .L193+4
 1064 05a4 1B78     		ldrb	r3, [r3]	@ zero_extendqisi2
 1065 05a6 1846     		mov	r0, r3
 1066 05a8 FFF7FEFF 		bl	UART_3_PutChar
 1067              	.LBB23:
 181:printer.c     ****         for(uint8 x = 0; x < 22; x ++){
 1068              		.loc 1 181 0
 1069 05ac 0023     		movs	r3, #0
 1070 05ae 87F85230 		strb	r3, [r7, #82]
 1071 05b2 0BE0     		b	.L47
 1072              	.L48:
 182:printer.c     ****             UART_3_PutChar(msn_EDS3[x]);
 1073              		.loc 1 182 0 discriminator 3
 1074 05b4 97F85230 		ldrb	r3, [r7, #82]	@ zero_extendqisi2
 1075 05b8 3B4A     		ldr	r2, .L193+28
 1076 05ba D35C     		ldrb	r3, [r2, r3]	@ zero_extendqisi2
 1077 05bc 1846     		mov	r0, r3
 1078 05be FFF7FEFF 		bl	UART_3_PutChar
 181:printer.c     ****         for(uint8 x = 0; x < 22; x ++){
ARM GAS  C:\Users\Lenovo\AppData\Local\Temp\ccXim33P.s 			page 26


 1079              		.loc 1 181 0 discriminator 3
 1080 05c2 97F85230 		ldrb	r3, [r7, #82]	@ zero_extendqisi2
 1081 05c6 0133     		adds	r3, r3, #1
 1082 05c8 87F85230 		strb	r3, [r7, #82]
 1083              	.L47:
 181:printer.c     ****         for(uint8 x = 0; x < 22; x ++){
 1084              		.loc 1 181 0 is_stmt 0 discriminator 1
 1085 05cc 97F85230 		ldrb	r3, [r7, #82]	@ zero_extendqisi2
 1086 05d0 152B     		cmp	r3, #21
 1087 05d2 EFD9     		bls	.L48
 1088              	.LBE23:
 183:printer.c     ****         }
 184:printer.c     ****         UART_3_PutChar(LINE_FEED);
 1089              		.loc 1 184 0 is_stmt 1
 1090 05d4 2E4B     		ldr	r3, .L193+4
 1091 05d6 1B78     		ldrb	r3, [r3]	@ zero_extendqisi2
 1092 05d8 1846     		mov	r0, r3
 1093 05da FFF7FEFF 		bl	UART_3_PutChar
 1094              	.LBB24:
 185:printer.c     ****         for(uint8 x = 0; x < 22; x ++){
 1095              		.loc 1 185 0
 1096 05de 0023     		movs	r3, #0
 1097 05e0 87F85130 		strb	r3, [r7, #81]
 1098 05e4 0BE0     		b	.L49
 1099              	.L50:
 186:printer.c     ****             UART_3_PutChar(msn_EDS2[x]);
 1100              		.loc 1 186 0 discriminator 3
 1101 05e6 97F85130 		ldrb	r3, [r7, #81]	@ zero_extendqisi2
 1102 05ea 304A     		ldr	r2, .L193+32
 1103 05ec D35C     		ldrb	r3, [r2, r3]	@ zero_extendqisi2
 1104 05ee 1846     		mov	r0, r3
 1105 05f0 FFF7FEFF 		bl	UART_3_PutChar
 185:printer.c     ****         for(uint8 x = 0; x < 22; x ++){
 1106              		.loc 1 185 0 discriminator 3
 1107 05f4 97F85130 		ldrb	r3, [r7, #81]	@ zero_extendqisi2
 1108 05f8 0133     		adds	r3, r3, #1
 1109 05fa 87F85130 		strb	r3, [r7, #81]
 1110              	.L49:
 185:printer.c     ****         for(uint8 x = 0; x < 22; x ++){
 1111              		.loc 1 185 0 is_stmt 0 discriminator 1
 1112 05fe 97F85130 		ldrb	r3, [r7, #81]	@ zero_extendqisi2
 1113 0602 152B     		cmp	r3, #21
 1114 0604 EFD9     		bls	.L50
 1115              	.LBE24:
 187:printer.c     ****         }
 188:printer.c     ****         UART_3_PutChar(LINE_FEED);
 1116              		.loc 1 188 0 is_stmt 1
 1117 0606 224B     		ldr	r3, .L193+4
 1118 0608 1B78     		ldrb	r3, [r3]	@ zero_extendqisi2
 1119 060a 1846     		mov	r0, r3
 1120 060c FFF7FEFF 		bl	UART_3_PutChar
 1121              	.LBB25:
 189:printer.c     ****         for(uint8 x = 0; x < 22; x ++){
 1122              		.loc 1 189 0
 1123 0610 0023     		movs	r3, #0
 1124 0612 87F85030 		strb	r3, [r7, #80]
 1125 0616 0BE0     		b	.L51
ARM GAS  C:\Users\Lenovo\AppData\Local\Temp\ccXim33P.s 			page 27


 1126              	.L52:
 190:printer.c     ****             UART_3_PutChar(msn_EDS[x]);
 1127              		.loc 1 190 0 discriminator 3
 1128 0618 97F85030 		ldrb	r3, [r7, #80]	@ zero_extendqisi2
 1129 061c 244A     		ldr	r2, .L193+36
 1130 061e D35C     		ldrb	r3, [r2, r3]	@ zero_extendqisi2
 1131 0620 1846     		mov	r0, r3
 1132 0622 FFF7FEFF 		bl	UART_3_PutChar
 189:printer.c     ****         for(uint8 x = 0; x < 22; x ++){
 1133              		.loc 1 189 0 discriminator 3
 1134 0626 97F85030 		ldrb	r3, [r7, #80]	@ zero_extendqisi2
 1135 062a 0133     		adds	r3, r3, #1
 1136 062c 87F85030 		strb	r3, [r7, #80]
 1137              	.L51:
 189:printer.c     ****         for(uint8 x = 0; x < 22; x ++){
 1138              		.loc 1 189 0 is_stmt 0 discriminator 1
 1139 0630 97F85030 		ldrb	r3, [r7, #80]	@ zero_extendqisi2
 1140 0634 152B     		cmp	r3, #21
 1141 0636 EFD9     		bls	.L52
 1142              	.LBE25:
 191:printer.c     ****         }
 192:printer.c     ****         UART_3_PutChar(LINE_FEED);
 1143              		.loc 1 192 0 is_stmt 1
 1144 0638 154B     		ldr	r3, .L193+4
 1145 063a 1B78     		ldrb	r3, [r3]	@ zero_extendqisi2
 1146 063c 1846     		mov	r0, r3
 1147 063e FFF7FEFF 		bl	UART_3_PutChar
 1148              	.L7:
 193:printer.c     ****     }
 194:printer.c     ****     if(address == side.b.dir){
 1149              		.loc 1 194 0
 1150 0642 1C4B     		ldr	r3, .L193+40
 1151 0644 93F82331 		ldrb	r3, [r3, #291]	@ zero_extendqisi2
 1152 0648 FA79     		ldrb	r2, [r7, #7]	@ zero_extendqisi2
 1153 064a 9A42     		cmp	r2, r3
 1154 064c 40F06B82 		bne	.L53
 1155              	.LBB26:
 195:printer.c     ****         for(uint8 x = 0; x < 22; x ++){
 1156              		.loc 1 195 0
 1157 0650 0023     		movs	r3, #0
 1158 0652 87F84F30 		strb	r3, [r7, #79]
 1159 0656 0BE0     		b	.L54
 1160              	.L55:
 196:printer.c     ****         UART_3_PutChar(msn_footer2[x]);
 1161              		.loc 1 196 0 discriminator 3
 1162 0658 97F84F30 		ldrb	r3, [r7, #79]	@ zero_extendqisi2
 1163 065c 164A     		ldr	r2, .L193+44
 1164 065e D35C     		ldrb	r3, [r2, r3]	@ zero_extendqisi2
 1165 0660 1846     		mov	r0, r3
 1166 0662 FFF7FEFF 		bl	UART_3_PutChar
 195:printer.c     ****         for(uint8 x = 0; x < 22; x ++){
 1167              		.loc 1 195 0 discriminator 3
 1168 0666 97F84F30 		ldrb	r3, [r7, #79]	@ zero_extendqisi2
 1169 066a 0133     		adds	r3, r3, #1
 1170 066c 87F84F30 		strb	r3, [r7, #79]
 1171              	.L54:
 195:printer.c     ****         for(uint8 x = 0; x < 22; x ++){
ARM GAS  C:\Users\Lenovo\AppData\Local\Temp\ccXim33P.s 			page 28


 1172              		.loc 1 195 0 is_stmt 0 discriminator 1
 1173 0670 97F84F30 		ldrb	r3, [r7, #79]	@ zero_extendqisi2
 1174 0674 152B     		cmp	r3, #21
 1175 0676 EFD9     		bls	.L55
 1176              	.LBE26:
 197:printer.c     ****         }
 198:printer.c     ****         UART_3_PutChar(LINE_FEED);
 1177              		.loc 1 198 0 is_stmt 1
 1178 0678 054B     		ldr	r3, .L193+4
 1179 067a 1B78     		ldrb	r3, [r3]	@ zero_extendqisi2
 1180 067c 1846     		mov	r0, r3
 1181 067e FFF7FEFF 		bl	UART_3_PutChar
 1182              	.LBB27:
 199:printer.c     ****         for(uint8 x = 0; x < 22; x ++){
 1183              		.loc 1 199 0
 1184 0682 0023     		movs	r3, #0
 1185 0684 87F84E30 		strb	r3, [r7, #78]
 1186 0688 24E0     		b	.L56
 1187              	.L194:
 1188 068a 00BF     		.align	2
 1189              	.L193:
 1190 068c 00000000 		.word	msn_plate
 1191 0690 00000000 		.word	LINE_FEED
 1192 0694 00000000 		.word	SEPARATOR
 1193 0698 00000000 		.word	msn_hora
 1194 069c 00000000 		.word	touch1
 1195 06a0 00000000 		.word	msn_fecha
 1196 06a4 00000000 		.word	msn_EDS4
 1197 06a8 00000000 		.word	msn_EDS3
 1198 06ac 00000000 		.word	msn_EDS2
 1199 06b0 00000000 		.word	msn_EDS
 1200 06b4 00000000 		.word	side
 1201 06b8 00000000 		.word	msn_footer2
 1202              	.L57:
 200:printer.c     ****             UART_3_PutChar(msn_footer[x]);
 1203              		.loc 1 200 0 discriminator 3
 1204 06bc 97F84E30 		ldrb	r3, [r7, #78]	@ zero_extendqisi2
 1205 06c0 CB4A     		ldr	r2, .L195
 1206 06c2 D35C     		ldrb	r3, [r2, r3]	@ zero_extendqisi2
 1207 06c4 1846     		mov	r0, r3
 1208 06c6 FFF7FEFF 		bl	UART_3_PutChar
 199:printer.c     ****         for(uint8 x = 0; x < 22; x ++){
 1209              		.loc 1 199 0 discriminator 3
 1210 06ca 97F84E30 		ldrb	r3, [r7, #78]	@ zero_extendqisi2
 1211 06ce 0133     		adds	r3, r3, #1
 1212 06d0 87F84E30 		strb	r3, [r7, #78]
 1213              	.L56:
 199:printer.c     ****         for(uint8 x = 0; x < 22; x ++){
 1214              		.loc 1 199 0 is_stmt 0 discriminator 1
 1215 06d4 97F84E30 		ldrb	r3, [r7, #78]	@ zero_extendqisi2
 1216 06d8 152B     		cmp	r3, #21
 1217 06da EFD9     		bls	.L57
 1218              	.LBE27:
 201:printer.c     ****         }
 202:printer.c     ****         UART_3_PutChar(LINE_FEED);
 1219              		.loc 1 202 0 is_stmt 1
 1220 06dc C54B     		ldr	r3, .L195+4
ARM GAS  C:\Users\Lenovo\AppData\Local\Temp\ccXim33P.s 			page 29


 1221 06de 1B78     		ldrb	r3, [r3]	@ zero_extendqisi2
 1222 06e0 1846     		mov	r0, r3
 1223 06e2 FFF7FEFF 		bl	UART_3_PutChar
 1224              	.LBB28:
 203:printer.c     ****         for(uint8 x = 0; x < 24; x ++){
 1225              		.loc 1 203 0
 1226 06e6 0023     		movs	r3, #0
 1227 06e8 87F84D30 		strb	r3, [r7, #77]
 1228 06ec 0BE0     		b	.L58
 1229              	.L59:
 204:printer.c     ****             UART_3_PutChar(SEPARATOR[x]);
 1230              		.loc 1 204 0 discriminator 3
 1231 06ee 97F84D30 		ldrb	r3, [r7, #77]	@ zero_extendqisi2
 1232 06f2 C14A     		ldr	r2, .L195+8
 1233 06f4 D35C     		ldrb	r3, [r2, r3]	@ zero_extendqisi2
 1234 06f6 1846     		mov	r0, r3
 1235 06f8 FFF7FEFF 		bl	UART_3_PutChar
 203:printer.c     ****         for(uint8 x = 0; x < 24; x ++){
 1236              		.loc 1 203 0 discriminator 3
 1237 06fc 97F84D30 		ldrb	r3, [r7, #77]	@ zero_extendqisi2
 1238 0700 0133     		adds	r3, r3, #1
 1239 0702 87F84D30 		strb	r3, [r7, #77]
 1240              	.L58:
 203:printer.c     ****         for(uint8 x = 0; x < 24; x ++){
 1241              		.loc 1 203 0 is_stmt 0 discriminator 1
 1242 0706 97F84D30 		ldrb	r3, [r7, #77]	@ zero_extendqisi2
 1243 070a 172B     		cmp	r3, #23
 1244 070c EFD9     		bls	.L59
 1245              	.LBE28:
 205:printer.c     ****         }
 206:printer.c     ****         UART_3_PutChar(LINE_FEED);
 1246              		.loc 1 206 0 is_stmt 1
 1247 070e B94B     		ldr	r3, .L195+4
 1248 0710 1B78     		ldrb	r3, [r3]	@ zero_extendqisi2
 1249 0712 1846     		mov	r0, r3
 1250 0714 FFF7FEFF 		bl	UART_3_PutChar
 1251              	.LBB29:
 207:printer.c     ****         for(uint8 x = 0; x < 13; x ++){
 1252              		.loc 1 207 0
 1253 0718 0023     		movs	r3, #0
 1254 071a 87F84C30 		strb	r3, [r7, #76]
 1255 071e 0BE0     		b	.L60
 1256              	.L61:
 208:printer.c     ****             UART_3_PutChar(msn_ppu[x]);
 1257              		.loc 1 208 0 discriminator 3
 1258 0720 97F84C30 		ldrb	r3, [r7, #76]	@ zero_extendqisi2
 1259 0724 B54A     		ldr	r2, .L195+12
 1260 0726 D35C     		ldrb	r3, [r2, r3]	@ zero_extendqisi2
 1261 0728 1846     		mov	r0, r3
 1262 072a FFF7FEFF 		bl	UART_3_PutChar
 207:printer.c     ****         for(uint8 x = 0; x < 13; x ++){
 1263              		.loc 1 207 0 discriminator 3
 1264 072e 97F84C30 		ldrb	r3, [r7, #76]	@ zero_extendqisi2
 1265 0732 0133     		adds	r3, r3, #1
 1266 0734 87F84C30 		strb	r3, [r7, #76]
 1267              	.L60:
 207:printer.c     ****         for(uint8 x = 0; x < 13; x ++){
ARM GAS  C:\Users\Lenovo\AppData\Local\Temp\ccXim33P.s 			page 30


 1268              		.loc 1 207 0 is_stmt 0 discriminator 1
 1269 0738 97F84C30 		ldrb	r3, [r7, #76]	@ zero_extendqisi2
 1270 073c 0C2B     		cmp	r3, #12
 1271 073e EFD9     		bls	.L61
 1272              	.LBE29:
 1273              	.LBB30:
 209:printer.c     ****         }
 210:printer.c     ****         for(uint8 x = 1; x < 6; x ++){
 1274              		.loc 1 210 0 is_stmt 1
 1275 0740 0123     		movs	r3, #1
 1276 0742 87F84B30 		strb	r3, [r7, #75]
 1277 0746 0DE0     		b	.L62
 1278              	.L63:
 211:printer.c     ****             UART_3_PutChar(side.b.ProcessedPPU[0][x]);
 1279              		.loc 1 211 0 discriminator 3
 1280 0748 97F84B30 		ldrb	r3, [r7, #75]	@ zero_extendqisi2
 1281 074c AC4A     		ldr	r2, .L195+16
 1282 074e 1344     		add	r3, r3, r2
 1283 0750 93F82E32 		ldrb	r3, [r3, #558]	@ zero_extendqisi2
 1284 0754 1846     		mov	r0, r3
 1285 0756 FFF7FEFF 		bl	UART_3_PutChar
 210:printer.c     ****             UART_3_PutChar(side.b.ProcessedPPU[0][x]);
 1286              		.loc 1 210 0 discriminator 3
 1287 075a 97F84B30 		ldrb	r3, [r7, #75]	@ zero_extendqisi2
 1288 075e 0133     		adds	r3, r3, #1
 1289 0760 87F84B30 		strb	r3, [r7, #75]
 1290              	.L62:
 210:printer.c     ****             UART_3_PutChar(side.b.ProcessedPPU[0][x]);
 1291              		.loc 1 210 0 is_stmt 0 discriminator 1
 1292 0764 97F84B30 		ldrb	r3, [r7, #75]	@ zero_extendqisi2
 1293 0768 052B     		cmp	r3, #5
 1294 076a EDD9     		bls	.L63
 1295              	.LBE30:
 212:printer.c     ****         }
 213:printer.c     ****         UART_3_PutChar(LINE_FEED);    
 1296              		.loc 1 213 0 is_stmt 1
 1297 076c A14B     		ldr	r3, .L195+4
 1298 076e 1B78     		ldrb	r3, [r3]	@ zero_extendqisi2
 1299 0770 1846     		mov	r0, r3
 1300 0772 FFF7FEFF 		bl	UART_3_PutChar
 1301              	.LBB31:
 214:printer.c     ****         for(uint8 x = 0; x < 13; x ++){
 1302              		.loc 1 214 0
 1303 0776 0023     		movs	r3, #0
 1304 0778 87F84A30 		strb	r3, [r7, #74]
 1305 077c 0BE0     		b	.L64
 1306              	.L65:
 215:printer.c     ****             UART_3_PutChar(msn_din[x]);
 1307              		.loc 1 215 0 discriminator 3
 1308 077e 97F84A30 		ldrb	r3, [r7, #74]	@ zero_extendqisi2
 1309 0782 A04A     		ldr	r2, .L195+20
 1310 0784 D35C     		ldrb	r3, [r2, r3]	@ zero_extendqisi2
 1311 0786 1846     		mov	r0, r3
 1312 0788 FFF7FEFF 		bl	UART_3_PutChar
 214:printer.c     ****         for(uint8 x = 0; x < 13; x ++){
 1313              		.loc 1 214 0 discriminator 3
 1314 078c 97F84A30 		ldrb	r3, [r7, #74]	@ zero_extendqisi2
ARM GAS  C:\Users\Lenovo\AppData\Local\Temp\ccXim33P.s 			page 31


 1315 0790 0133     		adds	r3, r3, #1
 1316 0792 87F84A30 		strb	r3, [r7, #74]
 1317              	.L64:
 214:printer.c     ****         for(uint8 x = 0; x < 13; x ++){
 1318              		.loc 1 214 0 is_stmt 0 discriminator 1
 1319 0796 97F84A30 		ldrb	r3, [r7, #74]	@ zero_extendqisi2
 1320 079a 0C2B     		cmp	r3, #12
 1321 079c EFD9     		bls	.L65
 1322              	.LBE31:
 216:printer.c     ****         }     
 217:printer.c     ****         UART_3_PutChar(PRN_CURRENCY[0]);        
 1323              		.loc 1 217 0 is_stmt 1
 1324 079e 9A4B     		ldr	r3, .L195+24
 1325 07a0 1B78     		ldrb	r3, [r3]	@ zero_extendqisi2
 1326 07a2 1846     		mov	r0, r3
 1327 07a4 FFF7FEFF 		bl	UART_3_PutChar
 1328              	.LBB32:
 218:printer.c     ****         for(uint8 x = 0; x < 8; x ++){
 1329              		.loc 1 218 0
 1330 07a8 0023     		movs	r3, #0
 1331 07aa 87F84930 		strb	r3, [r7, #73]
 1332 07ae 0DE0     		b	.L66
 1333              	.L67:
 219:printer.c     ****             UART_3_PutChar(side.b.ProcessedmoneySale[x]);
 1334              		.loc 1 219 0 discriminator 3
 1335 07b0 97F84930 		ldrb	r3, [r7, #73]	@ zero_extendqisi2
 1336 07b4 924A     		ldr	r2, .L195+16
 1337 07b6 1344     		add	r3, r3, r2
 1338 07b8 93F81E32 		ldrb	r3, [r3, #542]	@ zero_extendqisi2
 1339 07bc 1846     		mov	r0, r3
 1340 07be FFF7FEFF 		bl	UART_3_PutChar
 218:printer.c     ****         for(uint8 x = 0; x < 8; x ++){
 1341              		.loc 1 218 0 discriminator 3
 1342 07c2 97F84930 		ldrb	r3, [r7, #73]	@ zero_extendqisi2
 1343 07c6 0133     		adds	r3, r3, #1
 1344 07c8 87F84930 		strb	r3, [r7, #73]
 1345              	.L66:
 218:printer.c     ****         for(uint8 x = 0; x < 8; x ++){
 1346              		.loc 1 218 0 is_stmt 0 discriminator 1
 1347 07cc 97F84930 		ldrb	r3, [r7, #73]	@ zero_extendqisi2
 1348 07d0 072B     		cmp	r3, #7
 1349 07d2 EDD9     		bls	.L67
 1350              	.LBE32:
 220:printer.c     ****         } 
 221:printer.c     ****         UART_3_PutChar(LINE_FEED);    
 1351              		.loc 1 221 0 is_stmt 1
 1352 07d4 874B     		ldr	r3, .L195+4
 1353 07d6 1B78     		ldrb	r3, [r3]	@ zero_extendqisi2
 1354 07d8 1846     		mov	r0, r3
 1355 07da FFF7FEFF 		bl	UART_3_PutChar
 1356              	.LBB33:
 222:printer.c     ****         for(uint8 x = 0; x < 13; x ++){
 1357              		.loc 1 222 0
 1358 07de 0023     		movs	r3, #0
 1359 07e0 87F84830 		strb	r3, [r7, #72]
 1360 07e4 0BE0     		b	.L68
 1361              	.L69:
ARM GAS  C:\Users\Lenovo\AppData\Local\Temp\ccXim33P.s 			page 32


 223:printer.c     ****             UART_3_PutChar(msn_vol[x]);
 1362              		.loc 1 223 0 discriminator 3
 1363 07e6 97F84830 		ldrb	r3, [r7, #72]	@ zero_extendqisi2
 1364 07ea 884A     		ldr	r2, .L195+28
 1365 07ec D35C     		ldrb	r3, [r2, r3]	@ zero_extendqisi2
 1366 07ee 1846     		mov	r0, r3
 1367 07f0 FFF7FEFF 		bl	UART_3_PutChar
 222:printer.c     ****         for(uint8 x = 0; x < 13; x ++){
 1368              		.loc 1 222 0 discriminator 3
 1369 07f4 97F84830 		ldrb	r3, [r7, #72]	@ zero_extendqisi2
 1370 07f8 0133     		adds	r3, r3, #1
 1371 07fa 87F84830 		strb	r3, [r7, #72]
 1372              	.L68:
 222:printer.c     ****         for(uint8 x = 0; x < 13; x ++){
 1373              		.loc 1 222 0 is_stmt 0 discriminator 1
 1374 07fe 97F84830 		ldrb	r3, [r7, #72]	@ zero_extendqisi2
 1375 0802 0C2B     		cmp	r3, #12
 1376 0804 EFD9     		bls	.L69
 1377              	.LBE33:
 1378              	.LBB34:
 224:printer.c     ****         }
 225:printer.c     ****         for(uint8 x = 0; x < 8; x ++){
 1379              		.loc 1 225 0 is_stmt 1
 1380 0806 0023     		movs	r3, #0
 1381 0808 87F84730 		strb	r3, [r7, #71]
 1382 080c 18E0     		b	.L70
 1383              	.L72:
 226:printer.c     ****             if((8-x) == DecVol)
 1384              		.loc 1 226 0
 1385 080e 97F84730 		ldrb	r3, [r7, #71]	@ zero_extendqisi2
 1386 0812 C3F10803 		rsb	r3, r3, #8
 1387 0816 7E4A     		ldr	r2, .L195+32
 1388 0818 1278     		ldrb	r2, [r2]	@ zero_extendqisi2
 1389 081a 9342     		cmp	r3, r2
 1390 081c 02D1     		bne	.L71
 227:printer.c     ****                 UART_3_PutChar('.');
 1391              		.loc 1 227 0
 1392 081e 2E20     		movs	r0, #46
 1393 0820 FFF7FEFF 		bl	UART_3_PutChar
 1394              	.L71:
 228:printer.c     ****             UART_3_PutChar(side.b.ProcessedvolumeSale[x]);        
 1395              		.loc 1 228 0 discriminator 2
 1396 0824 97F84730 		ldrb	r3, [r7, #71]	@ zero_extendqisi2
 1397 0828 754A     		ldr	r2, .L195+16
 1398 082a 1344     		add	r3, r3, r2
 1399 082c 93F82632 		ldrb	r3, [r3, #550]	@ zero_extendqisi2
 1400 0830 1846     		mov	r0, r3
 1401 0832 FFF7FEFF 		bl	UART_3_PutChar
 225:printer.c     ****             if((8-x) == DecVol)
 1402              		.loc 1 225 0 discriminator 2
 1403 0836 97F84730 		ldrb	r3, [r7, #71]	@ zero_extendqisi2
 1404 083a 0133     		adds	r3, r3, #1
 1405 083c 87F84730 		strb	r3, [r7, #71]
 1406              	.L70:
 225:printer.c     ****             if((8-x) == DecVol)
 1407              		.loc 1 225 0 is_stmt 0 discriminator 1
 1408 0840 97F84730 		ldrb	r3, [r7, #71]	@ zero_extendqisi2
ARM GAS  C:\Users\Lenovo\AppData\Local\Temp\ccXim33P.s 			page 33


 1409 0844 072B     		cmp	r3, #7
 1410 0846 E2D9     		bls	.L72
 1411              	.LBE34:
 229:printer.c     ****         }            
 230:printer.c     ****         UART_3_PutChar(VolSimbol[0]);           
 1412              		.loc 1 230 0 is_stmt 1
 1413 0848 724B     		ldr	r3, .L195+36
 1414 084a 1B78     		ldrb	r3, [r3]	@ zero_extendqisi2
 1415 084c 1846     		mov	r0, r3
 1416 084e FFF7FEFF 		bl	UART_3_PutChar
 231:printer.c     ****         UART_3_PutChar(LINE_FEED);
 1417              		.loc 1 231 0
 1418 0852 684B     		ldr	r3, .L195+4
 1419 0854 1B78     		ldrb	r3, [r3]	@ zero_extendqisi2
 1420 0856 1846     		mov	r0, r3
 1421 0858 FFF7FEFF 		bl	UART_3_PutChar
 1422              	.LBB35:
 232:printer.c     ****         for(uint8 x = 0; x < 13; x ++){
 1423              		.loc 1 232 0
 1424 085c 0023     		movs	r3, #0
 1425 085e 87F84630 		strb	r3, [r7, #70]
 1426 0862 0BE0     		b	.L73
 1427              	.L74:
 233:printer.c     ****             UART_3_PutChar(msn_product[x]);
 1428              		.loc 1 233 0 discriminator 3
 1429 0864 97F84630 		ldrb	r3, [r7, #70]	@ zero_extendqisi2
 1430 0868 6B4A     		ldr	r2, .L195+40
 1431 086a D35C     		ldrb	r3, [r2, r3]	@ zero_extendqisi2
 1432 086c 1846     		mov	r0, r3
 1433 086e FFF7FEFF 		bl	UART_3_PutChar
 232:printer.c     ****         for(uint8 x = 0; x < 13; x ++){
 1434              		.loc 1 232 0 discriminator 3
 1435 0872 97F84630 		ldrb	r3, [r7, #70]	@ zero_extendqisi2
 1436 0876 0133     		adds	r3, r3, #1
 1437 0878 87F84630 		strb	r3, [r7, #70]
 1438              	.L73:
 232:printer.c     ****         for(uint8 x = 0; x < 13; x ++){
 1439              		.loc 1 232 0 is_stmt 0 discriminator 1
 1440 087c 97F84630 		ldrb	r3, [r7, #70]	@ zero_extendqisi2
 1441 0880 0C2B     		cmp	r3, #12
 1442 0882 EFD9     		bls	.L74
 1443              	.LBE35:
 1444              	.LBB36:
 234:printer.c     ****         }
 235:printer.c     ****         for(uint8 x = 0; x < 9; x ++){
 1445              		.loc 1 235 0 is_stmt 1
 1446 0884 0023     		movs	r3, #0
 1447 0886 87F84530 		strb	r3, [r7, #69]
 1448 088a 0BE0     		b	.L75
 1449              	.L76:
 236:printer.c     ****             UART_3_PutChar(msn_gasoline[x]);
 1450              		.loc 1 236 0 discriminator 3
 1451 088c 97F84530 		ldrb	r3, [r7, #69]	@ zero_extendqisi2
 1452 0890 624A     		ldr	r2, .L195+44
 1453 0892 D35C     		ldrb	r3, [r2, r3]	@ zero_extendqisi2
 1454 0894 1846     		mov	r0, r3
 1455 0896 FFF7FEFF 		bl	UART_3_PutChar
ARM GAS  C:\Users\Lenovo\AppData\Local\Temp\ccXim33P.s 			page 34


 235:printer.c     ****             UART_3_PutChar(msn_gasoline[x]);
 1456              		.loc 1 235 0 discriminator 3
 1457 089a 97F84530 		ldrb	r3, [r7, #69]	@ zero_extendqisi2
 1458 089e 0133     		adds	r3, r3, #1
 1459 08a0 87F84530 		strb	r3, [r7, #69]
 1460              	.L75:
 235:printer.c     ****             UART_3_PutChar(msn_gasoline[x]);
 1461              		.loc 1 235 0 is_stmt 0 discriminator 1
 1462 08a4 97F84530 		ldrb	r3, [r7, #69]	@ zero_extendqisi2
 1463 08a8 082B     		cmp	r3, #8
 1464 08aa EFD9     		bls	.L76
 1465              	.LBE36:
 237:printer.c     ****         }
 238:printer.c     ****         UART_3_PutChar(LINE_FEED);
 1466              		.loc 1 238 0 is_stmt 1
 1467 08ac 514B     		ldr	r3, .L195+4
 1468 08ae 1B78     		ldrb	r3, [r3]	@ zero_extendqisi2
 1469 08b0 1846     		mov	r0, r3
 1470 08b2 FFF7FEFF 		bl	UART_3_PutChar
 1471              	.LBB37:
 239:printer.c     ****         for(uint8 x = 0; x < 13; x ++){
 1472              		.loc 1 239 0
 1473 08b6 0023     		movs	r3, #0
 1474 08b8 87F84430 		strb	r3, [r7, #68]
 1475 08bc 0BE0     		b	.L77
 1476              	.L78:
 240:printer.c     ****             UART_3_PutChar(msn_pos[x]);
 1477              		.loc 1 240 0 discriminator 3
 1478 08be 97F84430 		ldrb	r3, [r7, #68]	@ zero_extendqisi2
 1479 08c2 574A     		ldr	r2, .L195+48
 1480 08c4 D35C     		ldrb	r3, [r2, r3]	@ zero_extendqisi2
 1481 08c6 1846     		mov	r0, r3
 1482 08c8 FFF7FEFF 		bl	UART_3_PutChar
 239:printer.c     ****         for(uint8 x = 0; x < 13; x ++){
 1483              		.loc 1 239 0 discriminator 3
 1484 08cc 97F84430 		ldrb	r3, [r7, #68]	@ zero_extendqisi2
 1485 08d0 0133     		adds	r3, r3, #1
 1486 08d2 87F84430 		strb	r3, [r7, #68]
 1487              	.L77:
 239:printer.c     ****         for(uint8 x = 0; x < 13; x ++){
 1488              		.loc 1 239 0 is_stmt 0 discriminator 1
 1489 08d6 97F84430 		ldrb	r3, [r7, #68]	@ zero_extendqisi2
 1490 08da 0C2B     		cmp	r3, #12
 1491 08dc EFD9     		bls	.L78
 1492              	.LBE37:
 241:printer.c     ****         }
 242:printer.c     ****         UART_3_PutChar((side.b.dir)+ 0x31);
 1493              		.loc 1 242 0 is_stmt 1
 1494 08de 484B     		ldr	r3, .L195+16
 1495 08e0 93F82331 		ldrb	r3, [r3, #291]	@ zero_extendqisi2
 1496 08e4 3133     		adds	r3, r3, #49
 1497 08e6 DBB2     		uxtb	r3, r3
 1498 08e8 1846     		mov	r0, r3
 1499 08ea FFF7FEFF 		bl	UART_3_PutChar
 243:printer.c     ****         UART_3_PutChar(LINE_FEED);    
 1500              		.loc 1 243 0
 1501 08ee 414B     		ldr	r3, .L195+4
ARM GAS  C:\Users\Lenovo\AppData\Local\Temp\ccXim33P.s 			page 35


 1502 08f0 1B78     		ldrb	r3, [r3]	@ zero_extendqisi2
 1503 08f2 1846     		mov	r0, r3
 1504 08f4 FFF7FEFF 		bl	UART_3_PutChar
 1505              	.LBB38:
 244:printer.c     ****         for(uint8 x = 0; x < 13; x ++){
 1506              		.loc 1 244 0
 1507 08f8 0023     		movs	r3, #0
 1508 08fa 87F84330 		strb	r3, [r7, #67]
 1509 08fe 0BE0     		b	.L79
 1510              	.L80:
 245:printer.c     ****             UART_3_PutChar(msn_placa[x]);
 1511              		.loc 1 245 0 discriminator 3
 1512 0900 97F84330 		ldrb	r3, [r7, #67]	@ zero_extendqisi2
 1513 0904 474A     		ldr	r2, .L195+52
 1514 0906 D35C     		ldrb	r3, [r2, r3]	@ zero_extendqisi2
 1515 0908 1846     		mov	r0, r3
 1516 090a FFF7FEFF 		bl	UART_3_PutChar
 244:printer.c     ****         for(uint8 x = 0; x < 13; x ++){
 1517              		.loc 1 244 0 discriminator 3
 1518 090e 97F84330 		ldrb	r3, [r7, #67]	@ zero_extendqisi2
 1519 0912 0133     		adds	r3, r3, #1
 1520 0914 87F84330 		strb	r3, [r7, #67]
 1521              	.L79:
 244:printer.c     ****         for(uint8 x = 0; x < 13; x ++){
 1522              		.loc 1 244 0 is_stmt 0 discriminator 1
 1523 0918 97F84330 		ldrb	r3, [r7, #67]	@ zero_extendqisi2
 1524 091c 0C2B     		cmp	r3, #12
 1525 091e EFD9     		bls	.L80
 1526              	.LBE38:
 1527              	.LBB39:
 246:printer.c     ****         }
 247:printer.c     ****         for(uint8 x = 0; x < 7; x ++){
 1528              		.loc 1 247 0 is_stmt 1
 1529 0920 0023     		movs	r3, #0
 1530 0922 87F84230 		strb	r3, [r7, #66]
 1531 0926 0BE0     		b	.L81
 1532              	.L82:
 248:printer.c     ****             UART_3_PutChar(msn_plate[x]);
 1533              		.loc 1 248 0 discriminator 3
 1534 0928 97F84230 		ldrb	r3, [r7, #66]	@ zero_extendqisi2
 1535 092c 3E4A     		ldr	r2, .L195+56
 1536 092e D35C     		ldrb	r3, [r2, r3]	@ zero_extendqisi2
 1537 0930 1846     		mov	r0, r3
 1538 0932 FFF7FEFF 		bl	UART_3_PutChar
 247:printer.c     ****             UART_3_PutChar(msn_plate[x]);
 1539              		.loc 1 247 0 discriminator 3
 1540 0936 97F84230 		ldrb	r3, [r7, #66]	@ zero_extendqisi2
 1541 093a 0133     		adds	r3, r3, #1
 1542 093c 87F84230 		strb	r3, [r7, #66]
 1543              	.L81:
 247:printer.c     ****             UART_3_PutChar(msn_plate[x]);
 1544              		.loc 1 247 0 is_stmt 0 discriminator 1
 1545 0940 97F84230 		ldrb	r3, [r7, #66]	@ zero_extendqisi2
 1546 0944 062B     		cmp	r3, #6
 1547 0946 EFD9     		bls	.L82
 1548              	.LBE39:
 249:printer.c     ****         }
ARM GAS  C:\Users\Lenovo\AppData\Local\Temp\ccXim33P.s 			page 36


 250:printer.c     ****         UART_3_PutChar(LINE_FEED);
 1549              		.loc 1 250 0 is_stmt 1
 1550 0948 2A4B     		ldr	r3, .L195+4
 1551 094a 1B78     		ldrb	r3, [r3]	@ zero_extendqisi2
 1552 094c 1846     		mov	r0, r3
 1553 094e FFF7FEFF 		bl	UART_3_PutChar
 1554              	.LBB40:
 251:printer.c     ****         for(uint8 x = 0; x < 24; x ++){
 1555              		.loc 1 251 0
 1556 0952 0023     		movs	r3, #0
 1557 0954 87F84130 		strb	r3, [r7, #65]
 1558 0958 0BE0     		b	.L83
 1559              	.L84:
 252:printer.c     ****             UART_3_PutChar(SEPARATOR[x]);
 1560              		.loc 1 252 0 discriminator 3
 1561 095a 97F84130 		ldrb	r3, [r7, #65]	@ zero_extendqisi2
 1562 095e 264A     		ldr	r2, .L195+8
 1563 0960 D35C     		ldrb	r3, [r2, r3]	@ zero_extendqisi2
 1564 0962 1846     		mov	r0, r3
 1565 0964 FFF7FEFF 		bl	UART_3_PutChar
 251:printer.c     ****         for(uint8 x = 0; x < 24; x ++){
 1566              		.loc 1 251 0 discriminator 3
 1567 0968 97F84130 		ldrb	r3, [r7, #65]	@ zero_extendqisi2
 1568 096c 0133     		adds	r3, r3, #1
 1569 096e 87F84130 		strb	r3, [r7, #65]
 1570              	.L83:
 251:printer.c     ****         for(uint8 x = 0; x < 24; x ++){
 1571              		.loc 1 251 0 is_stmt 0 discriminator 1
 1572 0972 97F84130 		ldrb	r3, [r7, #65]	@ zero_extendqisi2
 1573 0976 172B     		cmp	r3, #23
 1574 0978 EFD9     		bls	.L84
 1575              	.LBE40:
 253:printer.c     ****         }
 254:printer.c     ****         UART_3_PutChar(LINE_FEED);
 1576              		.loc 1 254 0 is_stmt 1
 1577 097a 1E4B     		ldr	r3, .L195+4
 1578 097c 1B78     		ldrb	r3, [r3]	@ zero_extendqisi2
 1579 097e 1846     		mov	r0, r3
 1580 0980 FFF7FEFF 		bl	UART_3_PutChar
 1581              	.LBB41:
 255:printer.c     ****         for(uint8 x = 0; x < 13; x ++){
 1582              		.loc 1 255 0
 1583 0984 0023     		movs	r3, #0
 1584 0986 87F84030 		strb	r3, [r7, #64]
 1585 098a 0BE0     		b	.L85
 1586              	.L86:
 256:printer.c     ****             UART_3_PutChar(msn_hora[x]);
 1587              		.loc 1 256 0 discriminator 3
 1588 098c 97F84030 		ldrb	r3, [r7, #64]	@ zero_extendqisi2
 1589 0990 264A     		ldr	r2, .L195+60
 1590 0992 D35C     		ldrb	r3, [r2, r3]	@ zero_extendqisi2
 1591 0994 1846     		mov	r0, r3
 1592 0996 FFF7FEFF 		bl	UART_3_PutChar
 255:printer.c     ****         for(uint8 x = 0; x < 13; x ++){
 1593              		.loc 1 255 0 discriminator 3
 1594 099a 97F84030 		ldrb	r3, [r7, #64]	@ zero_extendqisi2
 1595 099e 0133     		adds	r3, r3, #1
ARM GAS  C:\Users\Lenovo\AppData\Local\Temp\ccXim33P.s 			page 37


 1596 09a0 87F84030 		strb	r3, [r7, #64]
 1597              	.L85:
 255:printer.c     ****         for(uint8 x = 0; x < 13; x ++){
 1598              		.loc 1 255 0 is_stmt 0 discriminator 1
 1599 09a4 97F84030 		ldrb	r3, [r7, #64]	@ zero_extendqisi2
 1600 09a8 0C2B     		cmp	r3, #12
 1601 09aa EFD9     		bls	.L86
 1602              	.LBE41:
 257:printer.c     ****         }
 258:printer.c     ****         UART_3_PutChar(LINE_FEED);
 1603              		.loc 1 258 0 is_stmt 1
 1604 09ac 114B     		ldr	r3, .L195+4
 1605 09ae 1B78     		ldrb	r3, [r3]	@ zero_extendqisi2
 1606 09b0 1846     		mov	r0, r3
 1607 09b2 FFF7FEFF 		bl	UART_3_PutChar
 1608              	.LBB42:
 259:printer.c     ****         for(uint8 x = 0; x < 13; x ++){
 1609              		.loc 1 259 0
 1610 09b6 0023     		movs	r3, #0
 1611 09b8 87F83F30 		strb	r3, [r7, #63]
 1612 09bc 0BE0     		b	.L87
 1613              	.L88:
 260:printer.c     ****             UART_3_PutChar(msn_fecha[x]);
 1614              		.loc 1 260 0 discriminator 3
 1615 09be 97F83F30 		ldrb	r3, [r7, #63]	@ zero_extendqisi2
 1616 09c2 1B4A     		ldr	r2, .L195+64
 1617 09c4 D35C     		ldrb	r3, [r2, r3]	@ zero_extendqisi2
 1618 09c6 1846     		mov	r0, r3
 1619 09c8 FFF7FEFF 		bl	UART_3_PutChar
 259:printer.c     ****         for(uint8 x = 0; x < 13; x ++){
 1620              		.loc 1 259 0 discriminator 3
 1621 09cc 97F83F30 		ldrb	r3, [r7, #63]	@ zero_extendqisi2
 1622 09d0 0133     		adds	r3, r3, #1
 1623 09d2 87F83F30 		strb	r3, [r7, #63]
 1624              	.L87:
 259:printer.c     ****         for(uint8 x = 0; x < 13; x ++){
 1625              		.loc 1 259 0 is_stmt 0 discriminator 1
 1626 09d6 97F83F30 		ldrb	r3, [r7, #63]	@ zero_extendqisi2
 1627 09da 0C2B     		cmp	r3, #12
 1628 09dc EFD9     		bls	.L88
 1629              	.LBE42:
 261:printer.c     ****         }
 262:printer.c     ****         UART_3_PutChar(LINE_FEED);
 1630              		.loc 1 262 0 is_stmt 1
 1631 09de 054B     		ldr	r3, .L195+4
 1632 09e0 1B78     		ldrb	r3, [r3]	@ zero_extendqisi2
 1633 09e2 1846     		mov	r0, r3
 1634 09e4 FFF7FEFF 		bl	UART_3_PutChar
 1635              	.LBB43:
 263:printer.c     ****         for(uint8 x = 0; x < 24; x ++){
 1636              		.loc 1 263 0
 1637 09e8 0023     		movs	r3, #0
 1638 09ea 87F83E30 		strb	r3, [r7, #62]
 1639 09ee 2DE0     		b	.L89
 1640              	.L196:
 1641              		.align	2
 1642              	.L195:
ARM GAS  C:\Users\Lenovo\AppData\Local\Temp\ccXim33P.s 			page 38


 1643 09f0 00000000 		.word	msn_footer
 1644 09f4 00000000 		.word	LINE_FEED
 1645 09f8 00000000 		.word	SEPARATOR
 1646 09fc 00000000 		.word	msn_ppu
 1647 0a00 00000000 		.word	side
 1648 0a04 00000000 		.word	msn_din
 1649 0a08 00000000 		.word	PRN_CURRENCY
 1650 0a0c 00000000 		.word	msn_vol
 1651 0a10 00000000 		.word	DecVol
 1652 0a14 00000000 		.word	VolSimbol
 1653 0a18 00000000 		.word	msn_product
 1654 0a1c 00000000 		.word	msn_gasoline
 1655 0a20 00000000 		.word	msn_pos
 1656 0a24 00000000 		.word	msn_placa
 1657 0a28 00000000 		.word	msn_plate
 1658 0a2c 00000000 		.word	msn_hora
 1659 0a30 00000000 		.word	msn_fecha
 1660              	.L90:
 264:printer.c     ****             UART_3_PutChar(SEPARATOR[x]);
 1661              		.loc 1 264 0 discriminator 3
 1662 0a34 97F83E30 		ldrb	r3, [r7, #62]	@ zero_extendqisi2
 1663 0a38 CD4A     		ldr	r2, .L197
 1664 0a3a D35C     		ldrb	r3, [r2, r3]	@ zero_extendqisi2
 1665 0a3c 1846     		mov	r0, r3
 1666 0a3e FFF7FEFF 		bl	UART_3_PutChar
 263:printer.c     ****         for(uint8 x = 0; x < 24; x ++){
 1667              		.loc 1 263 0 discriminator 3
 1668 0a42 97F83E30 		ldrb	r3, [r7, #62]	@ zero_extendqisi2
 1669 0a46 0133     		adds	r3, r3, #1
 1670 0a48 87F83E30 		strb	r3, [r7, #62]
 1671              	.L89:
 263:printer.c     ****         for(uint8 x = 0; x < 24; x ++){
 1672              		.loc 1 263 0 is_stmt 0 discriminator 1
 1673 0a4c 97F83E30 		ldrb	r3, [r7, #62]	@ zero_extendqisi2
 1674 0a50 172B     		cmp	r3, #23
 1675 0a52 EFD9     		bls	.L90
 1676              	.LBE43:
 265:printer.c     ****         }
 266:printer.c     ****         UART_3_PutChar(LINE_FEED);
 1677              		.loc 1 266 0 is_stmt 1
 1678 0a54 C74B     		ldr	r3, .L197+4
 1679 0a56 1B78     		ldrb	r3, [r3]	@ zero_extendqisi2
 1680 0a58 1846     		mov	r0, r3
 1681 0a5a FFF7FEFF 		bl	UART_3_PutChar
 1682              	.LBB44:
 267:printer.c     ****         for(uint8 x = 0; x < 22; x ++){
 1683              		.loc 1 267 0
 1684 0a5e 0023     		movs	r3, #0
 1685 0a60 87F83D30 		strb	r3, [r7, #61]
 1686 0a64 0BE0     		b	.L91
 1687              	.L92:
 268:printer.c     ****             UART_3_PutChar(msn_EDS4[x]);
 1688              		.loc 1 268 0 discriminator 3
 1689 0a66 97F83D30 		ldrb	r3, [r7, #61]	@ zero_extendqisi2
 1690 0a6a C34A     		ldr	r2, .L197+8
 1691 0a6c D35C     		ldrb	r3, [r2, r3]	@ zero_extendqisi2
 1692 0a6e 1846     		mov	r0, r3
ARM GAS  C:\Users\Lenovo\AppData\Local\Temp\ccXim33P.s 			page 39


 1693 0a70 FFF7FEFF 		bl	UART_3_PutChar
 267:printer.c     ****         for(uint8 x = 0; x < 22; x ++){
 1694              		.loc 1 267 0 discriminator 3
 1695 0a74 97F83D30 		ldrb	r3, [r7, #61]	@ zero_extendqisi2
 1696 0a78 0133     		adds	r3, r3, #1
 1697 0a7a 87F83D30 		strb	r3, [r7, #61]
 1698              	.L91:
 267:printer.c     ****         for(uint8 x = 0; x < 22; x ++){
 1699              		.loc 1 267 0 is_stmt 0 discriminator 1
 1700 0a7e 97F83D30 		ldrb	r3, [r7, #61]	@ zero_extendqisi2
 1701 0a82 152B     		cmp	r3, #21
 1702 0a84 EFD9     		bls	.L92
 1703              	.LBE44:
 269:printer.c     ****         }
 270:printer.c     ****         UART_3_PutChar(LINE_FEED);
 1704              		.loc 1 270 0 is_stmt 1
 1705 0a86 BB4B     		ldr	r3, .L197+4
 1706 0a88 1B78     		ldrb	r3, [r3]	@ zero_extendqisi2
 1707 0a8a 1846     		mov	r0, r3
 1708 0a8c FFF7FEFF 		bl	UART_3_PutChar
 1709              	.LBB45:
 271:printer.c     ****         for(uint8 x = 0; x < 22; x ++){
 1710              		.loc 1 271 0
 1711 0a90 0023     		movs	r3, #0
 1712 0a92 87F83C30 		strb	r3, [r7, #60]
 1713 0a96 0BE0     		b	.L93
 1714              	.L94:
 272:printer.c     ****             UART_3_PutChar(msn_EDS3[x]);
 1715              		.loc 1 272 0 discriminator 3
 1716 0a98 97F83C30 		ldrb	r3, [r7, #60]	@ zero_extendqisi2
 1717 0a9c B74A     		ldr	r2, .L197+12
 1718 0a9e D35C     		ldrb	r3, [r2, r3]	@ zero_extendqisi2
 1719 0aa0 1846     		mov	r0, r3
 1720 0aa2 FFF7FEFF 		bl	UART_3_PutChar
 271:printer.c     ****         for(uint8 x = 0; x < 22; x ++){
 1721              		.loc 1 271 0 discriminator 3
 1722 0aa6 97F83C30 		ldrb	r3, [r7, #60]	@ zero_extendqisi2
 1723 0aaa 0133     		adds	r3, r3, #1
 1724 0aac 87F83C30 		strb	r3, [r7, #60]
 1725              	.L93:
 271:printer.c     ****         for(uint8 x = 0; x < 22; x ++){
 1726              		.loc 1 271 0 is_stmt 0 discriminator 1
 1727 0ab0 97F83C30 		ldrb	r3, [r7, #60]	@ zero_extendqisi2
 1728 0ab4 152B     		cmp	r3, #21
 1729 0ab6 EFD9     		bls	.L94
 1730              	.LBE45:
 273:printer.c     ****         }
 274:printer.c     ****         UART_3_PutChar(LINE_FEED);
 1731              		.loc 1 274 0 is_stmt 1
 1732 0ab8 AE4B     		ldr	r3, .L197+4
 1733 0aba 1B78     		ldrb	r3, [r3]	@ zero_extendqisi2
 1734 0abc 1846     		mov	r0, r3
 1735 0abe FFF7FEFF 		bl	UART_3_PutChar
 1736              	.LBB46:
 275:printer.c     ****         for(uint8 x = 0; x < 22; x ++){
 1737              		.loc 1 275 0
 1738 0ac2 0023     		movs	r3, #0
ARM GAS  C:\Users\Lenovo\AppData\Local\Temp\ccXim33P.s 			page 40


 1739 0ac4 87F83B30 		strb	r3, [r7, #59]
 1740 0ac8 0BE0     		b	.L95
 1741              	.L96:
 276:printer.c     ****             UART_3_PutChar(msn_EDS2[x]);
 1742              		.loc 1 276 0 discriminator 3
 1743 0aca 97F83B30 		ldrb	r3, [r7, #59]	@ zero_extendqisi2
 1744 0ace AC4A     		ldr	r2, .L197+16
 1745 0ad0 D35C     		ldrb	r3, [r2, r3]	@ zero_extendqisi2
 1746 0ad2 1846     		mov	r0, r3
 1747 0ad4 FFF7FEFF 		bl	UART_3_PutChar
 275:printer.c     ****         for(uint8 x = 0; x < 22; x ++){
 1748              		.loc 1 275 0 discriminator 3
 1749 0ad8 97F83B30 		ldrb	r3, [r7, #59]	@ zero_extendqisi2
 1750 0adc 0133     		adds	r3, r3, #1
 1751 0ade 87F83B30 		strb	r3, [r7, #59]
 1752              	.L95:
 275:printer.c     ****         for(uint8 x = 0; x < 22; x ++){
 1753              		.loc 1 275 0 is_stmt 0 discriminator 1
 1754 0ae2 97F83B30 		ldrb	r3, [r7, #59]	@ zero_extendqisi2
 1755 0ae6 152B     		cmp	r3, #21
 1756 0ae8 EFD9     		bls	.L96
 1757              	.LBE46:
 277:printer.c     ****         }
 278:printer.c     ****         UART_3_PutChar(LINE_FEED);
 1758              		.loc 1 278 0 is_stmt 1
 1759 0aea A24B     		ldr	r3, .L197+4
 1760 0aec 1B78     		ldrb	r3, [r3]	@ zero_extendqisi2
 1761 0aee 1846     		mov	r0, r3
 1762 0af0 FFF7FEFF 		bl	UART_3_PutChar
 1763              	.LBB47:
 279:printer.c     ****         for(uint8 x = 0; x < 22; x ++){
 1764              		.loc 1 279 0
 1765 0af4 0023     		movs	r3, #0
 1766 0af6 87F83A30 		strb	r3, [r7, #58]
 1767 0afa 0BE0     		b	.L97
 1768              	.L98:
 280:printer.c     ****             UART_3_PutChar(msn_EDS[x]);
 1769              		.loc 1 280 0 discriminator 3
 1770 0afc 97F83A30 		ldrb	r3, [r7, #58]	@ zero_extendqisi2
 1771 0b00 A04A     		ldr	r2, .L197+20
 1772 0b02 D35C     		ldrb	r3, [r2, r3]	@ zero_extendqisi2
 1773 0b04 1846     		mov	r0, r3
 1774 0b06 FFF7FEFF 		bl	UART_3_PutChar
 279:printer.c     ****         for(uint8 x = 0; x < 22; x ++){
 1775              		.loc 1 279 0 discriminator 3
 1776 0b0a 97F83A30 		ldrb	r3, [r7, #58]	@ zero_extendqisi2
 1777 0b0e 0133     		adds	r3, r3, #1
 1778 0b10 87F83A30 		strb	r3, [r7, #58]
 1779              	.L97:
 279:printer.c     ****         for(uint8 x = 0; x < 22; x ++){
 1780              		.loc 1 279 0 is_stmt 0 discriminator 1
 1781 0b14 97F83A30 		ldrb	r3, [r7, #58]	@ zero_extendqisi2
 1782 0b18 152B     		cmp	r3, #21
 1783 0b1a EFD9     		bls	.L98
 1784              	.LBE47:
 281:printer.c     ****         }
 282:printer.c     ****         UART_3_PutChar(LINE_FEED);
ARM GAS  C:\Users\Lenovo\AppData\Local\Temp\ccXim33P.s 			page 41


 1785              		.loc 1 282 0 is_stmt 1
 1786 0b1c 954B     		ldr	r3, .L197+4
 1787 0b1e 1B78     		ldrb	r3, [r3]	@ zero_extendqisi2
 1788 0b20 1846     		mov	r0, r3
 1789 0b22 FFF7FEFF 		bl	UART_3_PutChar
 1790              	.L53:
 283:printer.c     ****     }
 284:printer.c     ****     if(address == side.c.dir){
 1791              		.loc 1 284 0
 1792 0b26 984B     		ldr	r3, .L197+24
 1793 0b28 93F84632 		ldrb	r3, [r3, #582]	@ zero_extendqisi2
 1794 0b2c FA79     		ldrb	r2, [r7, #7]	@ zero_extendqisi2
 1795 0b2e 9A42     		cmp	r2, r3
 1796 0b30 40F05282 		bne	.L99
 1797              	.LBB48:
 285:printer.c     ****         for(uint8 x = 0; x < 22; x ++){
 1798              		.loc 1 285 0
 1799 0b34 0023     		movs	r3, #0
 1800 0b36 87F83930 		strb	r3, [r7, #57]
 1801 0b3a 0BE0     		b	.L100
 1802              	.L101:
 286:printer.c     ****             UART_3_PutChar(msn_footer2[x]);
 1803              		.loc 1 286 0 discriminator 3
 1804 0b3c 97F83930 		ldrb	r3, [r7, #57]	@ zero_extendqisi2
 1805 0b40 924A     		ldr	r2, .L197+28
 1806 0b42 D35C     		ldrb	r3, [r2, r3]	@ zero_extendqisi2
 1807 0b44 1846     		mov	r0, r3
 1808 0b46 FFF7FEFF 		bl	UART_3_PutChar
 285:printer.c     ****         for(uint8 x = 0; x < 22; x ++){
 1809              		.loc 1 285 0 discriminator 3
 1810 0b4a 97F83930 		ldrb	r3, [r7, #57]	@ zero_extendqisi2
 1811 0b4e 0133     		adds	r3, r3, #1
 1812 0b50 87F83930 		strb	r3, [r7, #57]
 1813              	.L100:
 285:printer.c     ****         for(uint8 x = 0; x < 22; x ++){
 1814              		.loc 1 285 0 is_stmt 0 discriminator 1
 1815 0b54 97F83930 		ldrb	r3, [r7, #57]	@ zero_extendqisi2
 1816 0b58 152B     		cmp	r3, #21
 1817 0b5a EFD9     		bls	.L101
 1818              	.LBE48:
 287:printer.c     ****         }
 288:printer.c     ****         UART_3_PutChar(LINE_FEED);
 1819              		.loc 1 288 0 is_stmt 1
 1820 0b5c 854B     		ldr	r3, .L197+4
 1821 0b5e 1B78     		ldrb	r3, [r3]	@ zero_extendqisi2
 1822 0b60 1846     		mov	r0, r3
 1823 0b62 FFF7FEFF 		bl	UART_3_PutChar
 1824              	.LBB49:
 289:printer.c     ****         for(uint8 x = 0; x < 22; x ++){
 1825              		.loc 1 289 0
 1826 0b66 0023     		movs	r3, #0
 1827 0b68 87F83830 		strb	r3, [r7, #56]
 1828 0b6c 0BE0     		b	.L102
 1829              	.L103:
 290:printer.c     ****             UART_3_PutChar(msn_footer[x]);
 1830              		.loc 1 290 0 discriminator 3
 1831 0b6e 97F83830 		ldrb	r3, [r7, #56]	@ zero_extendqisi2
ARM GAS  C:\Users\Lenovo\AppData\Local\Temp\ccXim33P.s 			page 42


 1832 0b72 874A     		ldr	r2, .L197+32
 1833 0b74 D35C     		ldrb	r3, [r2, r3]	@ zero_extendqisi2
 1834 0b76 1846     		mov	r0, r3
 1835 0b78 FFF7FEFF 		bl	UART_3_PutChar
 289:printer.c     ****         for(uint8 x = 0; x < 22; x ++){
 1836              		.loc 1 289 0 discriminator 3
 1837 0b7c 97F83830 		ldrb	r3, [r7, #56]	@ zero_extendqisi2
 1838 0b80 0133     		adds	r3, r3, #1
 1839 0b82 87F83830 		strb	r3, [r7, #56]
 1840              	.L102:
 289:printer.c     ****         for(uint8 x = 0; x < 22; x ++){
 1841              		.loc 1 289 0 is_stmt 0 discriminator 1
 1842 0b86 97F83830 		ldrb	r3, [r7, #56]	@ zero_extendqisi2
 1843 0b8a 152B     		cmp	r3, #21
 1844 0b8c EFD9     		bls	.L103
 1845              	.LBE49:
 291:printer.c     ****         }
 292:printer.c     ****         UART_3_PutChar(LINE_FEED);
 1846              		.loc 1 292 0 is_stmt 1
 1847 0b8e 794B     		ldr	r3, .L197+4
 1848 0b90 1B78     		ldrb	r3, [r3]	@ zero_extendqisi2
 1849 0b92 1846     		mov	r0, r3
 1850 0b94 FFF7FEFF 		bl	UART_3_PutChar
 1851              	.LBB50:
 293:printer.c     ****         for(uint8 x = 0; x < 24; x ++){
 1852              		.loc 1 293 0
 1853 0b98 0023     		movs	r3, #0
 1854 0b9a 87F83730 		strb	r3, [r7, #55]
 1855 0b9e 0BE0     		b	.L104
 1856              	.L105:
 294:printer.c     ****             UART_3_PutChar(SEPARATOR[x]);
 1857              		.loc 1 294 0 discriminator 3
 1858 0ba0 97F83730 		ldrb	r3, [r7, #55]	@ zero_extendqisi2
 1859 0ba4 724A     		ldr	r2, .L197
 1860 0ba6 D35C     		ldrb	r3, [r2, r3]	@ zero_extendqisi2
 1861 0ba8 1846     		mov	r0, r3
 1862 0baa FFF7FEFF 		bl	UART_3_PutChar
 293:printer.c     ****         for(uint8 x = 0; x < 24; x ++){
 1863              		.loc 1 293 0 discriminator 3
 1864 0bae 97F83730 		ldrb	r3, [r7, #55]	@ zero_extendqisi2
 1865 0bb2 0133     		adds	r3, r3, #1
 1866 0bb4 87F83730 		strb	r3, [r7, #55]
 1867              	.L104:
 293:printer.c     ****         for(uint8 x = 0; x < 24; x ++){
 1868              		.loc 1 293 0 is_stmt 0 discriminator 1
 1869 0bb8 97F83730 		ldrb	r3, [r7, #55]	@ zero_extendqisi2
 1870 0bbc 172B     		cmp	r3, #23
 1871 0bbe EFD9     		bls	.L105
 1872              	.LBE50:
 295:printer.c     ****         }
 296:printer.c     ****         UART_3_PutChar(LINE_FEED);
 1873              		.loc 1 296 0 is_stmt 1
 1874 0bc0 6C4B     		ldr	r3, .L197+4
 1875 0bc2 1B78     		ldrb	r3, [r3]	@ zero_extendqisi2
 1876 0bc4 1846     		mov	r0, r3
 1877 0bc6 FFF7FEFF 		bl	UART_3_PutChar
 1878              	.LBB51:
ARM GAS  C:\Users\Lenovo\AppData\Local\Temp\ccXim33P.s 			page 43


 297:printer.c     ****         for(uint8 x = 0; x < 13; x ++){
 1879              		.loc 1 297 0
 1880 0bca 0023     		movs	r3, #0
 1881 0bcc 87F83630 		strb	r3, [r7, #54]
 1882 0bd0 0BE0     		b	.L106
 1883              	.L107:
 298:printer.c     ****             UART_3_PutChar(msn_ppu[x]);
 1884              		.loc 1 298 0 discriminator 3
 1885 0bd2 97F83630 		ldrb	r3, [r7, #54]	@ zero_extendqisi2
 1886 0bd6 6F4A     		ldr	r2, .L197+36
 1887 0bd8 D35C     		ldrb	r3, [r2, r3]	@ zero_extendqisi2
 1888 0bda 1846     		mov	r0, r3
 1889 0bdc FFF7FEFF 		bl	UART_3_PutChar
 297:printer.c     ****         for(uint8 x = 0; x < 13; x ++){
 1890              		.loc 1 297 0 discriminator 3
 1891 0be0 97F83630 		ldrb	r3, [r7, #54]	@ zero_extendqisi2
 1892 0be4 0133     		adds	r3, r3, #1
 1893 0be6 87F83630 		strb	r3, [r7, #54]
 1894              	.L106:
 297:printer.c     ****         for(uint8 x = 0; x < 13; x ++){
 1895              		.loc 1 297 0 is_stmt 0 discriminator 1
 1896 0bea 97F83630 		ldrb	r3, [r7, #54]	@ zero_extendqisi2
 1897 0bee 0C2B     		cmp	r3, #12
 1898 0bf0 EFD9     		bls	.L107
 1899              	.LBE51:
 1900              	.LBB52:
 299:printer.c     ****         }
 300:printer.c     ****         for(uint8 x = 1; x < 6; x ++){
 1901              		.loc 1 300 0 is_stmt 1
 1902 0bf2 0123     		movs	r3, #1
 1903 0bf4 87F83530 		strb	r3, [r7, #53]
 1904 0bf8 0DE0     		b	.L108
 1905              	.L109:
 301:printer.c     ****             UART_3_PutChar(side.c.ProcessedPPU[0][x]);
 1906              		.loc 1 301 0 discriminator 3
 1907 0bfa 97F83530 		ldrb	r3, [r7, #53]	@ zero_extendqisi2
 1908 0bfe 624A     		ldr	r2, .L197+24
 1909 0c00 1344     		add	r3, r3, r2
 1910 0c02 93F85133 		ldrb	r3, [r3, #849]	@ zero_extendqisi2
 1911 0c06 1846     		mov	r0, r3
 1912 0c08 FFF7FEFF 		bl	UART_3_PutChar
 300:printer.c     ****             UART_3_PutChar(side.c.ProcessedPPU[0][x]);
 1913              		.loc 1 300 0 discriminator 3
 1914 0c0c 97F83530 		ldrb	r3, [r7, #53]	@ zero_extendqisi2
 1915 0c10 0133     		adds	r3, r3, #1
 1916 0c12 87F83530 		strb	r3, [r7, #53]
 1917              	.L108:
 300:printer.c     ****             UART_3_PutChar(side.c.ProcessedPPU[0][x]);
 1918              		.loc 1 300 0 is_stmt 0 discriminator 1
 1919 0c16 97F83530 		ldrb	r3, [r7, #53]	@ zero_extendqisi2
 1920 0c1a 052B     		cmp	r3, #5
 1921 0c1c EDD9     		bls	.L109
 1922              	.LBE52:
 302:printer.c     ****         }
 303:printer.c     ****         UART_3_PutChar(LINE_FEED);    
 1923              		.loc 1 303 0 is_stmt 1
 1924 0c1e 554B     		ldr	r3, .L197+4
ARM GAS  C:\Users\Lenovo\AppData\Local\Temp\ccXim33P.s 			page 44


 1925 0c20 1B78     		ldrb	r3, [r3]	@ zero_extendqisi2
 1926 0c22 1846     		mov	r0, r3
 1927 0c24 FFF7FEFF 		bl	UART_3_PutChar
 1928              	.LBB53:
 304:printer.c     ****         for(uint8 x = 0; x < 13; x ++){
 1929              		.loc 1 304 0
 1930 0c28 0023     		movs	r3, #0
 1931 0c2a 87F83430 		strb	r3, [r7, #52]
 1932 0c2e 0BE0     		b	.L110
 1933              	.L111:
 305:printer.c     ****             UART_3_PutChar(msn_din[x]);
 1934              		.loc 1 305 0 discriminator 3
 1935 0c30 97F83430 		ldrb	r3, [r7, #52]	@ zero_extendqisi2
 1936 0c34 584A     		ldr	r2, .L197+40
 1937 0c36 D35C     		ldrb	r3, [r2, r3]	@ zero_extendqisi2
 1938 0c38 1846     		mov	r0, r3
 1939 0c3a FFF7FEFF 		bl	UART_3_PutChar
 304:printer.c     ****         for(uint8 x = 0; x < 13; x ++){
 1940              		.loc 1 304 0 discriminator 3
 1941 0c3e 97F83430 		ldrb	r3, [r7, #52]	@ zero_extendqisi2
 1942 0c42 0133     		adds	r3, r3, #1
 1943 0c44 87F83430 		strb	r3, [r7, #52]
 1944              	.L110:
 304:printer.c     ****         for(uint8 x = 0; x < 13; x ++){
 1945              		.loc 1 304 0 is_stmt 0 discriminator 1
 1946 0c48 97F83430 		ldrb	r3, [r7, #52]	@ zero_extendqisi2
 1947 0c4c 0C2B     		cmp	r3, #12
 1948 0c4e EFD9     		bls	.L111
 1949              	.LBE53:
 306:printer.c     ****         }     
 307:printer.c     ****         UART_3_PutChar(PRN_CURRENCY[0]);        
 1950              		.loc 1 307 0 is_stmt 1
 1951 0c50 524B     		ldr	r3, .L197+44
 1952 0c52 1B78     		ldrb	r3, [r3]	@ zero_extendqisi2
 1953 0c54 1846     		mov	r0, r3
 1954 0c56 FFF7FEFF 		bl	UART_3_PutChar
 1955              	.LBB54:
 308:printer.c     ****         for(uint8 x = 0; x < 8; x ++){
 1956              		.loc 1 308 0
 1957 0c5a 0023     		movs	r3, #0
 1958 0c5c 87F83330 		strb	r3, [r7, #51]
 1959 0c60 0DE0     		b	.L112
 1960              	.L113:
 309:printer.c     ****             UART_3_PutChar(side.c.ProcessedmoneySale[x]);
 1961              		.loc 1 309 0 discriminator 3
 1962 0c62 97F83330 		ldrb	r3, [r7, #51]	@ zero_extendqisi2
 1963 0c66 484A     		ldr	r2, .L197+24
 1964 0c68 1344     		add	r3, r3, r2
 1965 0c6a 93F84133 		ldrb	r3, [r3, #833]	@ zero_extendqisi2
 1966 0c6e 1846     		mov	r0, r3
 1967 0c70 FFF7FEFF 		bl	UART_3_PutChar
 308:printer.c     ****         for(uint8 x = 0; x < 8; x ++){
 1968              		.loc 1 308 0 discriminator 3
 1969 0c74 97F83330 		ldrb	r3, [r7, #51]	@ zero_extendqisi2
 1970 0c78 0133     		adds	r3, r3, #1
 1971 0c7a 87F83330 		strb	r3, [r7, #51]
 1972              	.L112:
ARM GAS  C:\Users\Lenovo\AppData\Local\Temp\ccXim33P.s 			page 45


 308:printer.c     ****         for(uint8 x = 0; x < 8; x ++){
 1973              		.loc 1 308 0 is_stmt 0 discriminator 1
 1974 0c7e 97F83330 		ldrb	r3, [r7, #51]	@ zero_extendqisi2
 1975 0c82 072B     		cmp	r3, #7
 1976 0c84 EDD9     		bls	.L113
 1977              	.LBE54:
 310:printer.c     ****         } 
 311:printer.c     ****         UART_3_PutChar(LINE_FEED);    
 1978              		.loc 1 311 0 is_stmt 1
 1979 0c86 3B4B     		ldr	r3, .L197+4
 1980 0c88 1B78     		ldrb	r3, [r3]	@ zero_extendqisi2
 1981 0c8a 1846     		mov	r0, r3
 1982 0c8c FFF7FEFF 		bl	UART_3_PutChar
 1983              	.LBB55:
 312:printer.c     ****         for(uint8 x = 0; x < 13; x ++){
 1984              		.loc 1 312 0
 1985 0c90 0023     		movs	r3, #0
 1986 0c92 87F83230 		strb	r3, [r7, #50]
 1987 0c96 0BE0     		b	.L114
 1988              	.L115:
 313:printer.c     ****             UART_3_PutChar(msn_vol[x]);
 1989              		.loc 1 313 0 discriminator 3
 1990 0c98 97F83230 		ldrb	r3, [r7, #50]	@ zero_extendqisi2
 1991 0c9c 404A     		ldr	r2, .L197+48
 1992 0c9e D35C     		ldrb	r3, [r2, r3]	@ zero_extendqisi2
 1993 0ca0 1846     		mov	r0, r3
 1994 0ca2 FFF7FEFF 		bl	UART_3_PutChar
 312:printer.c     ****         for(uint8 x = 0; x < 13; x ++){
 1995              		.loc 1 312 0 discriminator 3
 1996 0ca6 97F83230 		ldrb	r3, [r7, #50]	@ zero_extendqisi2
 1997 0caa 0133     		adds	r3, r3, #1
 1998 0cac 87F83230 		strb	r3, [r7, #50]
 1999              	.L114:
 312:printer.c     ****         for(uint8 x = 0; x < 13; x ++){
 2000              		.loc 1 312 0 is_stmt 0 discriminator 1
 2001 0cb0 97F83230 		ldrb	r3, [r7, #50]	@ zero_extendqisi2
 2002 0cb4 0C2B     		cmp	r3, #12
 2003 0cb6 EFD9     		bls	.L115
 2004              	.LBE55:
 2005              	.LBB56:
 314:printer.c     ****         }
 315:printer.c     ****         for(uint8 x = 0; x < 8; x ++){
 2006              		.loc 1 315 0 is_stmt 1
 2007 0cb8 0023     		movs	r3, #0
 2008 0cba 87F83130 		strb	r3, [r7, #49]
 2009 0cbe 18E0     		b	.L116
 2010              	.L118:
 316:printer.c     ****             if((8-x) == DecVol)
 2011              		.loc 1 316 0
 2012 0cc0 97F83130 		ldrb	r3, [r7, #49]	@ zero_extendqisi2
 2013 0cc4 C3F10803 		rsb	r3, r3, #8
 2014 0cc8 364A     		ldr	r2, .L197+52
 2015 0cca 1278     		ldrb	r2, [r2]	@ zero_extendqisi2
 2016 0ccc 9342     		cmp	r3, r2
 2017 0cce 02D1     		bne	.L117
 317:printer.c     ****                 UART_3_PutChar('.');
 2018              		.loc 1 317 0
ARM GAS  C:\Users\Lenovo\AppData\Local\Temp\ccXim33P.s 			page 46


 2019 0cd0 2E20     		movs	r0, #46
 2020 0cd2 FFF7FEFF 		bl	UART_3_PutChar
 2021              	.L117:
 318:printer.c     ****             UART_3_PutChar(side.c.ProcessedvolumeSale[x]);        
 2022              		.loc 1 318 0 discriminator 2
 2023 0cd6 97F83130 		ldrb	r3, [r7, #49]	@ zero_extendqisi2
 2024 0cda 2B4A     		ldr	r2, .L197+24
 2025 0cdc 1344     		add	r3, r3, r2
 2026 0cde 93F84933 		ldrb	r3, [r3, #841]	@ zero_extendqisi2
 2027 0ce2 1846     		mov	r0, r3
 2028 0ce4 FFF7FEFF 		bl	UART_3_PutChar
 315:printer.c     ****             if((8-x) == DecVol)
 2029              		.loc 1 315 0 discriminator 2
 2030 0ce8 97F83130 		ldrb	r3, [r7, #49]	@ zero_extendqisi2
 2031 0cec 0133     		adds	r3, r3, #1
 2032 0cee 87F83130 		strb	r3, [r7, #49]
 2033              	.L116:
 315:printer.c     ****             if((8-x) == DecVol)
 2034              		.loc 1 315 0 is_stmt 0 discriminator 1
 2035 0cf2 97F83130 		ldrb	r3, [r7, #49]	@ zero_extendqisi2
 2036 0cf6 072B     		cmp	r3, #7
 2037 0cf8 E2D9     		bls	.L118
 2038              	.LBE56:
 319:printer.c     ****         }            
 320:printer.c     ****         UART_3_PutChar(VolSimbol[0]);           
 2039              		.loc 1 320 0 is_stmt 1
 2040 0cfa 2B4B     		ldr	r3, .L197+56
 2041 0cfc 1B78     		ldrb	r3, [r3]	@ zero_extendqisi2
 2042 0cfe 1846     		mov	r0, r3
 2043 0d00 FFF7FEFF 		bl	UART_3_PutChar
 321:printer.c     ****         UART_3_PutChar(LINE_FEED);
 2044              		.loc 1 321 0
 2045 0d04 1B4B     		ldr	r3, .L197+4
 2046 0d06 1B78     		ldrb	r3, [r3]	@ zero_extendqisi2
 2047 0d08 1846     		mov	r0, r3
 2048 0d0a FFF7FEFF 		bl	UART_3_PutChar
 2049              	.LBB57:
 322:printer.c     ****         for(uint8 x = 0; x < 13; x ++){
 2050              		.loc 1 322 0
 2051 0d0e 0023     		movs	r3, #0
 2052 0d10 87F83030 		strb	r3, [r7, #48]
 2053 0d14 0BE0     		b	.L119
 2054              	.L120:
 323:printer.c     ****             UART_3_PutChar(msn_product[x]);
 2055              		.loc 1 323 0 discriminator 3
 2056 0d16 97F83030 		ldrb	r3, [r7, #48]	@ zero_extendqisi2
 2057 0d1a 244A     		ldr	r2, .L197+60
 2058 0d1c D35C     		ldrb	r3, [r2, r3]	@ zero_extendqisi2
 2059 0d1e 1846     		mov	r0, r3
 2060 0d20 FFF7FEFF 		bl	UART_3_PutChar
 322:printer.c     ****         for(uint8 x = 0; x < 13; x ++){
 2061              		.loc 1 322 0 discriminator 3
 2062 0d24 97F83030 		ldrb	r3, [r7, #48]	@ zero_extendqisi2
 2063 0d28 0133     		adds	r3, r3, #1
 2064 0d2a 87F83030 		strb	r3, [r7, #48]
 2065              	.L119:
 322:printer.c     ****         for(uint8 x = 0; x < 13; x ++){
ARM GAS  C:\Users\Lenovo\AppData\Local\Temp\ccXim33P.s 			page 47


 2066              		.loc 1 322 0 is_stmt 0 discriminator 1
 2067 0d2e 97F83030 		ldrb	r3, [r7, #48]	@ zero_extendqisi2
 2068 0d32 0C2B     		cmp	r3, #12
 2069 0d34 EFD9     		bls	.L120
 2070              	.LBE57:
 2071              	.LBB58:
 324:printer.c     ****         }
 325:printer.c     ****         for(uint8 x = 0; x < 8; x ++){
 2072              		.loc 1 325 0 is_stmt 1
 2073 0d36 0023     		movs	r3, #0
 2074 0d38 87F82F30 		strb	r3, [r7, #47]
 2075 0d3c 0BE0     		b	.L121
 2076              	.L122:
 326:printer.c     ****             UART_3_PutChar(msn_diesel[x]);
 2077              		.loc 1 326 0 discriminator 3
 2078 0d3e 97F82F30 		ldrb	r3, [r7, #47]	@ zero_extendqisi2
 2079 0d42 1B4A     		ldr	r2, .L197+64
 2080 0d44 D35C     		ldrb	r3, [r2, r3]	@ zero_extendqisi2
 2081 0d46 1846     		mov	r0, r3
 2082 0d48 FFF7FEFF 		bl	UART_3_PutChar
 325:printer.c     ****             UART_3_PutChar(msn_diesel[x]);
 2083              		.loc 1 325 0 discriminator 3
 2084 0d4c 97F82F30 		ldrb	r3, [r7, #47]	@ zero_extendqisi2
 2085 0d50 0133     		adds	r3, r3, #1
 2086 0d52 87F82F30 		strb	r3, [r7, #47]
 2087              	.L121:
 325:printer.c     ****             UART_3_PutChar(msn_diesel[x]);
 2088              		.loc 1 325 0 is_stmt 0 discriminator 1
 2089 0d56 97F82F30 		ldrb	r3, [r7, #47]	@ zero_extendqisi2
 2090 0d5a 072B     		cmp	r3, #7
 2091 0d5c EFD9     		bls	.L122
 2092              	.LBE58:
 327:printer.c     ****         }
 328:printer.c     ****         UART_3_PutChar(LINE_FEED);
 2093              		.loc 1 328 0 is_stmt 1
 2094 0d5e 054B     		ldr	r3, .L197+4
 2095 0d60 1B78     		ldrb	r3, [r3]	@ zero_extendqisi2
 2096 0d62 1846     		mov	r0, r3
 2097 0d64 FFF7FEFF 		bl	UART_3_PutChar
 2098              	.LBB59:
 329:printer.c     ****         for(uint8 x = 0; x < 13; x ++){
 2099              		.loc 1 329 0
 2100 0d68 0023     		movs	r3, #0
 2101 0d6a 87F82E30 		strb	r3, [r7, #46]
 2102 0d6e 2DE0     		b	.L123
 2103              	.L198:
 2104              		.align	2
 2105              	.L197:
 2106 0d70 00000000 		.word	SEPARATOR
 2107 0d74 00000000 		.word	LINE_FEED
 2108 0d78 00000000 		.word	msn_EDS4
 2109 0d7c 00000000 		.word	msn_EDS3
 2110 0d80 00000000 		.word	msn_EDS2
 2111 0d84 00000000 		.word	msn_EDS
 2112 0d88 00000000 		.word	side
 2113 0d8c 00000000 		.word	msn_footer2
 2114 0d90 00000000 		.word	msn_footer
ARM GAS  C:\Users\Lenovo\AppData\Local\Temp\ccXim33P.s 			page 48


 2115 0d94 00000000 		.word	msn_ppu
 2116 0d98 00000000 		.word	msn_din
 2117 0d9c 00000000 		.word	PRN_CURRENCY
 2118 0da0 00000000 		.word	msn_vol
 2119 0da4 00000000 		.word	DecVol
 2120 0da8 00000000 		.word	VolSimbol
 2121 0dac 00000000 		.word	msn_product
 2122 0db0 00000000 		.word	msn_diesel
 2123              	.L124:
 330:printer.c     ****             UART_3_PutChar(msn_pos[x]);
 2124              		.loc 1 330 0 discriminator 3
 2125 0db4 97F82E30 		ldrb	r3, [r7, #46]	@ zero_extendqisi2
 2126 0db8 C74A     		ldr	r2, .L199
 2127 0dba D35C     		ldrb	r3, [r2, r3]	@ zero_extendqisi2
 2128 0dbc 1846     		mov	r0, r3
 2129 0dbe FFF7FEFF 		bl	UART_3_PutChar
 329:printer.c     ****         for(uint8 x = 0; x < 13; x ++){
 2130              		.loc 1 329 0 discriminator 3
 2131 0dc2 97F82E30 		ldrb	r3, [r7, #46]	@ zero_extendqisi2
 2132 0dc6 0133     		adds	r3, r3, #1
 2133 0dc8 87F82E30 		strb	r3, [r7, #46]
 2134              	.L123:
 329:printer.c     ****         for(uint8 x = 0; x < 13; x ++){
 2135              		.loc 1 329 0 is_stmt 0 discriminator 1
 2136 0dcc 97F82E30 		ldrb	r3, [r7, #46]	@ zero_extendqisi2
 2137 0dd0 0C2B     		cmp	r3, #12
 2138 0dd2 EFD9     		bls	.L124
 2139              	.LBE59:
 331:printer.c     ****         }
 332:printer.c     ****         UART_3_PutChar((side.c.dir)+ 0x31);
 2140              		.loc 1 332 0 is_stmt 1
 2141 0dd4 C14B     		ldr	r3, .L199+4
 2142 0dd6 93F84632 		ldrb	r3, [r3, #582]	@ zero_extendqisi2
 2143 0dda 3133     		adds	r3, r3, #49
 2144 0ddc DBB2     		uxtb	r3, r3
 2145 0dde 1846     		mov	r0, r3
 2146 0de0 FFF7FEFF 		bl	UART_3_PutChar
 333:printer.c     ****         UART_3_PutChar(LINE_FEED);    
 2147              		.loc 1 333 0
 2148 0de4 BE4B     		ldr	r3, .L199+8
 2149 0de6 1B78     		ldrb	r3, [r3]	@ zero_extendqisi2
 2150 0de8 1846     		mov	r0, r3
 2151 0dea FFF7FEFF 		bl	UART_3_PutChar
 2152              	.LBB60:
 334:printer.c     ****         for(uint8 x = 0; x < 13; x ++){
 2153              		.loc 1 334 0
 2154 0dee 0023     		movs	r3, #0
 2155 0df0 87F82D30 		strb	r3, [r7, #45]
 2156 0df4 0BE0     		b	.L125
 2157              	.L126:
 335:printer.c     ****             UART_3_PutChar(msn_placa[x]);
 2158              		.loc 1 335 0 discriminator 3
 2159 0df6 97F82D30 		ldrb	r3, [r7, #45]	@ zero_extendqisi2
 2160 0dfa BA4A     		ldr	r2, .L199+12
 2161 0dfc D35C     		ldrb	r3, [r2, r3]	@ zero_extendqisi2
 2162 0dfe 1846     		mov	r0, r3
 2163 0e00 FFF7FEFF 		bl	UART_3_PutChar
ARM GAS  C:\Users\Lenovo\AppData\Local\Temp\ccXim33P.s 			page 49


 334:printer.c     ****         for(uint8 x = 0; x < 13; x ++){
 2164              		.loc 1 334 0 discriminator 3
 2165 0e04 97F82D30 		ldrb	r3, [r7, #45]	@ zero_extendqisi2
 2166 0e08 0133     		adds	r3, r3, #1
 2167 0e0a 87F82D30 		strb	r3, [r7, #45]
 2168              	.L125:
 334:printer.c     ****         for(uint8 x = 0; x < 13; x ++){
 2169              		.loc 1 334 0 is_stmt 0 discriminator 1
 2170 0e0e 97F82D30 		ldrb	r3, [r7, #45]	@ zero_extendqisi2
 2171 0e12 0C2B     		cmp	r3, #12
 2172 0e14 EFD9     		bls	.L126
 2173              	.LBE60:
 2174              	.LBB61:
 336:printer.c     ****         }
 337:printer.c     ****         for(uint8 x = 0; x < 7; x ++){
 2175              		.loc 1 337 0 is_stmt 1
 2176 0e16 0023     		movs	r3, #0
 2177 0e18 87F82C30 		strb	r3, [r7, #44]
 2178 0e1c 0BE0     		b	.L127
 2179              	.L128:
 338:printer.c     ****             UART_3_PutChar(msn_plate[x]);
 2180              		.loc 1 338 0 discriminator 3
 2181 0e1e 97F82C30 		ldrb	r3, [r7, #44]	@ zero_extendqisi2
 2182 0e22 B14A     		ldr	r2, .L199+16
 2183 0e24 D35C     		ldrb	r3, [r2, r3]	@ zero_extendqisi2
 2184 0e26 1846     		mov	r0, r3
 2185 0e28 FFF7FEFF 		bl	UART_3_PutChar
 337:printer.c     ****             UART_3_PutChar(msn_plate[x]);
 2186              		.loc 1 337 0 discriminator 3
 2187 0e2c 97F82C30 		ldrb	r3, [r7, #44]	@ zero_extendqisi2
 2188 0e30 0133     		adds	r3, r3, #1
 2189 0e32 87F82C30 		strb	r3, [r7, #44]
 2190              	.L127:
 337:printer.c     ****             UART_3_PutChar(msn_plate[x]);
 2191              		.loc 1 337 0 is_stmt 0 discriminator 1
 2192 0e36 97F82C30 		ldrb	r3, [r7, #44]	@ zero_extendqisi2
 2193 0e3a 062B     		cmp	r3, #6
 2194 0e3c EFD9     		bls	.L128
 2195              	.LBE61:
 339:printer.c     ****         }
 340:printer.c     ****         UART_3_PutChar(LINE_FEED);
 2196              		.loc 1 340 0 is_stmt 1
 2197 0e3e A84B     		ldr	r3, .L199+8
 2198 0e40 1B78     		ldrb	r3, [r3]	@ zero_extendqisi2
 2199 0e42 1846     		mov	r0, r3
 2200 0e44 FFF7FEFF 		bl	UART_3_PutChar
 2201              	.LBB62:
 341:printer.c     ****         for(uint8 x = 0; x < 24; x ++){
 2202              		.loc 1 341 0
 2203 0e48 0023     		movs	r3, #0
 2204 0e4a 87F82B30 		strb	r3, [r7, #43]
 2205 0e4e 0BE0     		b	.L129
 2206              	.L130:
 342:printer.c     ****             UART_3_PutChar(SEPARATOR[x]);
 2207              		.loc 1 342 0 discriminator 3
 2208 0e50 97F82B30 		ldrb	r3, [r7, #43]	@ zero_extendqisi2
 2209 0e54 A54A     		ldr	r2, .L199+20
ARM GAS  C:\Users\Lenovo\AppData\Local\Temp\ccXim33P.s 			page 50


 2210 0e56 D35C     		ldrb	r3, [r2, r3]	@ zero_extendqisi2
 2211 0e58 1846     		mov	r0, r3
 2212 0e5a FFF7FEFF 		bl	UART_3_PutChar
 341:printer.c     ****         for(uint8 x = 0; x < 24; x ++){
 2213              		.loc 1 341 0 discriminator 3
 2214 0e5e 97F82B30 		ldrb	r3, [r7, #43]	@ zero_extendqisi2
 2215 0e62 0133     		adds	r3, r3, #1
 2216 0e64 87F82B30 		strb	r3, [r7, #43]
 2217              	.L129:
 341:printer.c     ****         for(uint8 x = 0; x < 24; x ++){
 2218              		.loc 1 341 0 is_stmt 0 discriminator 1
 2219 0e68 97F82B30 		ldrb	r3, [r7, #43]	@ zero_extendqisi2
 2220 0e6c 172B     		cmp	r3, #23
 2221 0e6e EFD9     		bls	.L130
 2222              	.LBE62:
 343:printer.c     ****         }
 344:printer.c     ****         UART_3_PutChar(LINE_FEED);
 2223              		.loc 1 344 0 is_stmt 1
 2224 0e70 9B4B     		ldr	r3, .L199+8
 2225 0e72 1B78     		ldrb	r3, [r3]	@ zero_extendqisi2
 2226 0e74 1846     		mov	r0, r3
 2227 0e76 FFF7FEFF 		bl	UART_3_PutChar
 2228              	.LBB63:
 345:printer.c     ****         for(uint8 x = 0; x < 13; x ++){
 2229              		.loc 1 345 0
 2230 0e7a 0023     		movs	r3, #0
 2231 0e7c 87F82A30 		strb	r3, [r7, #42]
 2232 0e80 0BE0     		b	.L131
 2233              	.L132:
 346:printer.c     ****             UART_3_PutChar(msn_hora[x]);
 2234              		.loc 1 346 0 discriminator 3
 2235 0e82 97F82A30 		ldrb	r3, [r7, #42]	@ zero_extendqisi2
 2236 0e86 9A4A     		ldr	r2, .L199+24
 2237 0e88 D35C     		ldrb	r3, [r2, r3]	@ zero_extendqisi2
 2238 0e8a 1846     		mov	r0, r3
 2239 0e8c FFF7FEFF 		bl	UART_3_PutChar
 345:printer.c     ****         for(uint8 x = 0; x < 13; x ++){
 2240              		.loc 1 345 0 discriminator 3
 2241 0e90 97F82A30 		ldrb	r3, [r7, #42]	@ zero_extendqisi2
 2242 0e94 0133     		adds	r3, r3, #1
 2243 0e96 87F82A30 		strb	r3, [r7, #42]
 2244              	.L131:
 345:printer.c     ****         for(uint8 x = 0; x < 13; x ++){
 2245              		.loc 1 345 0 is_stmt 0 discriminator 1
 2246 0e9a 97F82A30 		ldrb	r3, [r7, #42]	@ zero_extendqisi2
 2247 0e9e 0C2B     		cmp	r3, #12
 2248 0ea0 EFD9     		bls	.L132
 2249              	.LBE63:
 347:printer.c     ****         }
 348:printer.c     ****         UART_3_PutChar(LINE_FEED);
 2250              		.loc 1 348 0 is_stmt 1
 2251 0ea2 8F4B     		ldr	r3, .L199+8
 2252 0ea4 1B78     		ldrb	r3, [r3]	@ zero_extendqisi2
 2253 0ea6 1846     		mov	r0, r3
 2254 0ea8 FFF7FEFF 		bl	UART_3_PutChar
 2255              	.LBB64:
 349:printer.c     ****         for(uint8 x = 0; x < 13; x ++){
ARM GAS  C:\Users\Lenovo\AppData\Local\Temp\ccXim33P.s 			page 51


 2256              		.loc 1 349 0
 2257 0eac 0023     		movs	r3, #0
 2258 0eae 87F82930 		strb	r3, [r7, #41]
 2259 0eb2 0BE0     		b	.L133
 2260              	.L134:
 350:printer.c     ****             UART_3_PutChar(msn_fecha[x]);
 2261              		.loc 1 350 0 discriminator 3
 2262 0eb4 97F82930 		ldrb	r3, [r7, #41]	@ zero_extendqisi2
 2263 0eb8 8E4A     		ldr	r2, .L199+28
 2264 0eba D35C     		ldrb	r3, [r2, r3]	@ zero_extendqisi2
 2265 0ebc 1846     		mov	r0, r3
 2266 0ebe FFF7FEFF 		bl	UART_3_PutChar
 349:printer.c     ****         for(uint8 x = 0; x < 13; x ++){
 2267              		.loc 1 349 0 discriminator 3
 2268 0ec2 97F82930 		ldrb	r3, [r7, #41]	@ zero_extendqisi2
 2269 0ec6 0133     		adds	r3, r3, #1
 2270 0ec8 87F82930 		strb	r3, [r7, #41]
 2271              	.L133:
 349:printer.c     ****         for(uint8 x = 0; x < 13; x ++){
 2272              		.loc 1 349 0 is_stmt 0 discriminator 1
 2273 0ecc 97F82930 		ldrb	r3, [r7, #41]	@ zero_extendqisi2
 2274 0ed0 0C2B     		cmp	r3, #12
 2275 0ed2 EFD9     		bls	.L134
 2276              	.LBE64:
 351:printer.c     ****         }
 352:printer.c     ****         UART_3_PutChar(LINE_FEED);
 2277              		.loc 1 352 0 is_stmt 1
 2278 0ed4 824B     		ldr	r3, .L199+8
 2279 0ed6 1B78     		ldrb	r3, [r3]	@ zero_extendqisi2
 2280 0ed8 1846     		mov	r0, r3
 2281 0eda FFF7FEFF 		bl	UART_3_PutChar
 2282              	.LBB65:
 353:printer.c     ****         for(uint8 x = 0; x < 24; x ++){
 2283              		.loc 1 353 0
 2284 0ede 0023     		movs	r3, #0
 2285 0ee0 87F82830 		strb	r3, [r7, #40]
 2286 0ee4 0BE0     		b	.L135
 2287              	.L136:
 354:printer.c     ****             UART_3_PutChar(SEPARATOR[x]);
 2288              		.loc 1 354 0 discriminator 3
 2289 0ee6 97F82830 		ldrb	r3, [r7, #40]	@ zero_extendqisi2
 2290 0eea 804A     		ldr	r2, .L199+20
 2291 0eec D35C     		ldrb	r3, [r2, r3]	@ zero_extendqisi2
 2292 0eee 1846     		mov	r0, r3
 2293 0ef0 FFF7FEFF 		bl	UART_3_PutChar
 353:printer.c     ****         for(uint8 x = 0; x < 24; x ++){
 2294              		.loc 1 353 0 discriminator 3
 2295 0ef4 97F82830 		ldrb	r3, [r7, #40]	@ zero_extendqisi2
 2296 0ef8 0133     		adds	r3, r3, #1
 2297 0efa 87F82830 		strb	r3, [r7, #40]
 2298              	.L135:
 353:printer.c     ****         for(uint8 x = 0; x < 24; x ++){
 2299              		.loc 1 353 0 is_stmt 0 discriminator 1
 2300 0efe 97F82830 		ldrb	r3, [r7, #40]	@ zero_extendqisi2
 2301 0f02 172B     		cmp	r3, #23
 2302 0f04 EFD9     		bls	.L136
 2303              	.LBE65:
ARM GAS  C:\Users\Lenovo\AppData\Local\Temp\ccXim33P.s 			page 52


 355:printer.c     ****         }
 356:printer.c     ****         UART_3_PutChar(LINE_FEED);
 2304              		.loc 1 356 0 is_stmt 1
 2305 0f06 764B     		ldr	r3, .L199+8
 2306 0f08 1B78     		ldrb	r3, [r3]	@ zero_extendqisi2
 2307 0f0a 1846     		mov	r0, r3
 2308 0f0c FFF7FEFF 		bl	UART_3_PutChar
 2309              	.LBB66:
 357:printer.c     ****         for(uint8 x = 0; x < 22; x ++){
 2310              		.loc 1 357 0
 2311 0f10 0023     		movs	r3, #0
 2312 0f12 87F82730 		strb	r3, [r7, #39]
 2313 0f16 0BE0     		b	.L137
 2314              	.L138:
 358:printer.c     ****             UART_3_PutChar(msn_EDS4[x]);
 2315              		.loc 1 358 0 discriminator 3
 2316 0f18 97F82730 		ldrb	r3, [r7, #39]	@ zero_extendqisi2
 2317 0f1c 764A     		ldr	r2, .L199+32
 2318 0f1e D35C     		ldrb	r3, [r2, r3]	@ zero_extendqisi2
 2319 0f20 1846     		mov	r0, r3
 2320 0f22 FFF7FEFF 		bl	UART_3_PutChar
 357:printer.c     ****         for(uint8 x = 0; x < 22; x ++){
 2321              		.loc 1 357 0 discriminator 3
 2322 0f26 97F82730 		ldrb	r3, [r7, #39]	@ zero_extendqisi2
 2323 0f2a 0133     		adds	r3, r3, #1
 2324 0f2c 87F82730 		strb	r3, [r7, #39]
 2325              	.L137:
 357:printer.c     ****         for(uint8 x = 0; x < 22; x ++){
 2326              		.loc 1 357 0 is_stmt 0 discriminator 1
 2327 0f30 97F82730 		ldrb	r3, [r7, #39]	@ zero_extendqisi2
 2328 0f34 152B     		cmp	r3, #21
 2329 0f36 EFD9     		bls	.L138
 2330              	.LBE66:
 359:printer.c     ****         }
 360:printer.c     ****         UART_3_PutChar(LINE_FEED);
 2331              		.loc 1 360 0 is_stmt 1
 2332 0f38 694B     		ldr	r3, .L199+8
 2333 0f3a 1B78     		ldrb	r3, [r3]	@ zero_extendqisi2
 2334 0f3c 1846     		mov	r0, r3
 2335 0f3e FFF7FEFF 		bl	UART_3_PutChar
 2336              	.LBB67:
 361:printer.c     ****         for(uint8 x = 0; x < 22; x ++){
 2337              		.loc 1 361 0
 2338 0f42 0023     		movs	r3, #0
 2339 0f44 87F82630 		strb	r3, [r7, #38]
 2340 0f48 0BE0     		b	.L139
 2341              	.L140:
 362:printer.c     ****             UART_3_PutChar(msn_EDS3[x]);
 2342              		.loc 1 362 0 discriminator 3
 2343 0f4a 97F82630 		ldrb	r3, [r7, #38]	@ zero_extendqisi2
 2344 0f4e 6B4A     		ldr	r2, .L199+36
 2345 0f50 D35C     		ldrb	r3, [r2, r3]	@ zero_extendqisi2
 2346 0f52 1846     		mov	r0, r3
 2347 0f54 FFF7FEFF 		bl	UART_3_PutChar
 361:printer.c     ****         for(uint8 x = 0; x < 22; x ++){
 2348              		.loc 1 361 0 discriminator 3
 2349 0f58 97F82630 		ldrb	r3, [r7, #38]	@ zero_extendqisi2
ARM GAS  C:\Users\Lenovo\AppData\Local\Temp\ccXim33P.s 			page 53


 2350 0f5c 0133     		adds	r3, r3, #1
 2351 0f5e 87F82630 		strb	r3, [r7, #38]
 2352              	.L139:
 361:printer.c     ****         for(uint8 x = 0; x < 22; x ++){
 2353              		.loc 1 361 0 is_stmt 0 discriminator 1
 2354 0f62 97F82630 		ldrb	r3, [r7, #38]	@ zero_extendqisi2
 2355 0f66 152B     		cmp	r3, #21
 2356 0f68 EFD9     		bls	.L140
 2357              	.LBE67:
 363:printer.c     ****         }
 364:printer.c     ****         UART_3_PutChar(LINE_FEED);
 2358              		.loc 1 364 0 is_stmt 1
 2359 0f6a 5D4B     		ldr	r3, .L199+8
 2360 0f6c 1B78     		ldrb	r3, [r3]	@ zero_extendqisi2
 2361 0f6e 1846     		mov	r0, r3
 2362 0f70 FFF7FEFF 		bl	UART_3_PutChar
 2363              	.LBB68:
 365:printer.c     ****         for(uint8 x = 0; x < 22; x ++){
 2364              		.loc 1 365 0
 2365 0f74 0023     		movs	r3, #0
 2366 0f76 87F82530 		strb	r3, [r7, #37]
 2367 0f7a 0BE0     		b	.L141
 2368              	.L142:
 366:printer.c     ****             UART_3_PutChar(msn_EDS2[x]);
 2369              		.loc 1 366 0 discriminator 3
 2370 0f7c 97F82530 		ldrb	r3, [r7, #37]	@ zero_extendqisi2
 2371 0f80 5F4A     		ldr	r2, .L199+40
 2372 0f82 D35C     		ldrb	r3, [r2, r3]	@ zero_extendqisi2
 2373 0f84 1846     		mov	r0, r3
 2374 0f86 FFF7FEFF 		bl	UART_3_PutChar
 365:printer.c     ****         for(uint8 x = 0; x < 22; x ++){
 2375              		.loc 1 365 0 discriminator 3
 2376 0f8a 97F82530 		ldrb	r3, [r7, #37]	@ zero_extendqisi2
 2377 0f8e 0133     		adds	r3, r3, #1
 2378 0f90 87F82530 		strb	r3, [r7, #37]
 2379              	.L141:
 365:printer.c     ****         for(uint8 x = 0; x < 22; x ++){
 2380              		.loc 1 365 0 is_stmt 0 discriminator 1
 2381 0f94 97F82530 		ldrb	r3, [r7, #37]	@ zero_extendqisi2
 2382 0f98 152B     		cmp	r3, #21
 2383 0f9a EFD9     		bls	.L142
 2384              	.LBE68:
 367:printer.c     ****         }
 368:printer.c     ****         UART_3_PutChar(LINE_FEED);
 2385              		.loc 1 368 0 is_stmt 1
 2386 0f9c 504B     		ldr	r3, .L199+8
 2387 0f9e 1B78     		ldrb	r3, [r3]	@ zero_extendqisi2
 2388 0fa0 1846     		mov	r0, r3
 2389 0fa2 FFF7FEFF 		bl	UART_3_PutChar
 2390              	.LBB69:
 369:printer.c     ****         for(uint8 x = 0; x < 22; x ++){
 2391              		.loc 1 369 0
 2392 0fa6 0023     		movs	r3, #0
 2393 0fa8 87F82430 		strb	r3, [r7, #36]
 2394 0fac 0BE0     		b	.L143
 2395              	.L144:
 370:printer.c     ****             UART_3_PutChar(msn_EDS[x]);
ARM GAS  C:\Users\Lenovo\AppData\Local\Temp\ccXim33P.s 			page 54


 2396              		.loc 1 370 0 discriminator 3
 2397 0fae 97F82430 		ldrb	r3, [r7, #36]	@ zero_extendqisi2
 2398 0fb2 544A     		ldr	r2, .L199+44
 2399 0fb4 D35C     		ldrb	r3, [r2, r3]	@ zero_extendqisi2
 2400 0fb6 1846     		mov	r0, r3
 2401 0fb8 FFF7FEFF 		bl	UART_3_PutChar
 369:printer.c     ****         for(uint8 x = 0; x < 22; x ++){
 2402              		.loc 1 369 0 discriminator 3
 2403 0fbc 97F82430 		ldrb	r3, [r7, #36]	@ zero_extendqisi2
 2404 0fc0 0133     		adds	r3, r3, #1
 2405 0fc2 87F82430 		strb	r3, [r7, #36]
 2406              	.L143:
 369:printer.c     ****         for(uint8 x = 0; x < 22; x ++){
 2407              		.loc 1 369 0 is_stmt 0 discriminator 1
 2408 0fc6 97F82430 		ldrb	r3, [r7, #36]	@ zero_extendqisi2
 2409 0fca 152B     		cmp	r3, #21
 2410 0fcc EFD9     		bls	.L144
 2411              	.LBE69:
 371:printer.c     ****         }
 372:printer.c     ****         UART_3_PutChar(LINE_FEED);
 2412              		.loc 1 372 0 is_stmt 1
 2413 0fce 444B     		ldr	r3, .L199+8
 2414 0fd0 1B78     		ldrb	r3, [r3]	@ zero_extendqisi2
 2415 0fd2 1846     		mov	r0, r3
 2416 0fd4 FFF7FEFF 		bl	UART_3_PutChar
 2417              	.L99:
 373:printer.c     ****     }
 374:printer.c     ****     if(address == side.d.dir){
 2418              		.loc 1 374 0
 2419 0fd8 404B     		ldr	r3, .L199+4
 2420 0fda 93F86933 		ldrb	r3, [r3, #873]	@ zero_extendqisi2
 2421 0fde FA79     		ldrb	r2, [r7, #7]	@ zero_extendqisi2
 2422 0fe0 9A42     		cmp	r2, r3
 2423 0fe2 40F01882 		bne	.L145
 2424              	.LBB70:
 375:printer.c     ****         for(uint8 x = 0; x < 22; x ++){
 2425              		.loc 1 375 0
 2426 0fe6 0023     		movs	r3, #0
 2427 0fe8 87F82330 		strb	r3, [r7, #35]
 2428 0fec 0BE0     		b	.L146
 2429              	.L147:
 376:printer.c     ****         UART_3_PutChar(msn_footer2[x]);
 2430              		.loc 1 376 0 discriminator 3
 2431 0fee 97F82330 		ldrb	r3, [r7, #35]	@ zero_extendqisi2
 2432 0ff2 454A     		ldr	r2, .L199+48
 2433 0ff4 D35C     		ldrb	r3, [r2, r3]	@ zero_extendqisi2
 2434 0ff6 1846     		mov	r0, r3
 2435 0ff8 FFF7FEFF 		bl	UART_3_PutChar
 375:printer.c     ****         for(uint8 x = 0; x < 22; x ++){
 2436              		.loc 1 375 0 discriminator 3
 2437 0ffc 97F82330 		ldrb	r3, [r7, #35]	@ zero_extendqisi2
 2438 1000 0133     		adds	r3, r3, #1
 2439 1002 87F82330 		strb	r3, [r7, #35]
 2440              	.L146:
 375:printer.c     ****         for(uint8 x = 0; x < 22; x ++){
 2441              		.loc 1 375 0 is_stmt 0 discriminator 1
 2442 1006 97F82330 		ldrb	r3, [r7, #35]	@ zero_extendqisi2
ARM GAS  C:\Users\Lenovo\AppData\Local\Temp\ccXim33P.s 			page 55


 2443 100a 152B     		cmp	r3, #21
 2444 100c EFD9     		bls	.L147
 2445              	.LBE70:
 377:printer.c     ****         }
 378:printer.c     ****         UART_3_PutChar(LINE_FEED);
 2446              		.loc 1 378 0 is_stmt 1
 2447 100e 344B     		ldr	r3, .L199+8
 2448 1010 1B78     		ldrb	r3, [r3]	@ zero_extendqisi2
 2449 1012 1846     		mov	r0, r3
 2450 1014 FFF7FEFF 		bl	UART_3_PutChar
 2451              	.LBB71:
 379:printer.c     ****         for(uint8 x = 0; x < 22; x ++){
 2452              		.loc 1 379 0
 2453 1018 0023     		movs	r3, #0
 2454 101a 87F82230 		strb	r3, [r7, #34]
 2455 101e 0BE0     		b	.L148
 2456              	.L149:
 380:printer.c     ****             UART_3_PutChar(msn_footer[x]);
 2457              		.loc 1 380 0 discriminator 3
 2458 1020 97F82230 		ldrb	r3, [r7, #34]	@ zero_extendqisi2
 2459 1024 394A     		ldr	r2, .L199+52
 2460 1026 D35C     		ldrb	r3, [r2, r3]	@ zero_extendqisi2
 2461 1028 1846     		mov	r0, r3
 2462 102a FFF7FEFF 		bl	UART_3_PutChar
 379:printer.c     ****         for(uint8 x = 0; x < 22; x ++){
 2463              		.loc 1 379 0 discriminator 3
 2464 102e 97F82230 		ldrb	r3, [r7, #34]	@ zero_extendqisi2
 2465 1032 0133     		adds	r3, r3, #1
 2466 1034 87F82230 		strb	r3, [r7, #34]
 2467              	.L148:
 379:printer.c     ****         for(uint8 x = 0; x < 22; x ++){
 2468              		.loc 1 379 0 is_stmt 0 discriminator 1
 2469 1038 97F82230 		ldrb	r3, [r7, #34]	@ zero_extendqisi2
 2470 103c 152B     		cmp	r3, #21
 2471 103e EFD9     		bls	.L149
 2472              	.LBE71:
 381:printer.c     ****         }
 382:printer.c     ****         UART_3_PutChar(LINE_FEED);
 2473              		.loc 1 382 0 is_stmt 1
 2474 1040 274B     		ldr	r3, .L199+8
 2475 1042 1B78     		ldrb	r3, [r3]	@ zero_extendqisi2
 2476 1044 1846     		mov	r0, r3
 2477 1046 FFF7FEFF 		bl	UART_3_PutChar
 2478              	.LBB72:
 383:printer.c     ****         for(uint8 x = 0; x < 24; x ++){
 2479              		.loc 1 383 0
 2480 104a 0023     		movs	r3, #0
 2481 104c 87F82130 		strb	r3, [r7, #33]
 2482 1050 0BE0     		b	.L150
 2483              	.L151:
 384:printer.c     ****             UART_3_PutChar(SEPARATOR[x]);
 2484              		.loc 1 384 0 discriminator 3
 2485 1052 97F82130 		ldrb	r3, [r7, #33]	@ zero_extendqisi2
 2486 1056 254A     		ldr	r2, .L199+20
 2487 1058 D35C     		ldrb	r3, [r2, r3]	@ zero_extendqisi2
 2488 105a 1846     		mov	r0, r3
 2489 105c FFF7FEFF 		bl	UART_3_PutChar
ARM GAS  C:\Users\Lenovo\AppData\Local\Temp\ccXim33P.s 			page 56


 383:printer.c     ****         for(uint8 x = 0; x < 24; x ++){
 2490              		.loc 1 383 0 discriminator 3
 2491 1060 97F82130 		ldrb	r3, [r7, #33]	@ zero_extendqisi2
 2492 1064 0133     		adds	r3, r3, #1
 2493 1066 87F82130 		strb	r3, [r7, #33]
 2494              	.L150:
 383:printer.c     ****         for(uint8 x = 0; x < 24; x ++){
 2495              		.loc 1 383 0 is_stmt 0 discriminator 1
 2496 106a 97F82130 		ldrb	r3, [r7, #33]	@ zero_extendqisi2
 2497 106e 172B     		cmp	r3, #23
 2498 1070 EFD9     		bls	.L151
 2499              	.LBE72:
 385:printer.c     ****         }
 386:printer.c     ****         UART_3_PutChar(LINE_FEED);
 2500              		.loc 1 386 0 is_stmt 1
 2501 1072 1B4B     		ldr	r3, .L199+8
 2502 1074 1B78     		ldrb	r3, [r3]	@ zero_extendqisi2
 2503 1076 1846     		mov	r0, r3
 2504 1078 FFF7FEFF 		bl	UART_3_PutChar
 2505              	.LBB73:
 387:printer.c     ****         for(uint8 x = 0; x < 13; x ++){
 2506              		.loc 1 387 0
 2507 107c 0023     		movs	r3, #0
 2508 107e 87F82030 		strb	r3, [r7, #32]
 2509 1082 0BE0     		b	.L152
 2510              	.L153:
 388:printer.c     ****             UART_3_PutChar(msn_ppu[x]);
 2511              		.loc 1 388 0 discriminator 3
 2512 1084 97F82030 		ldrb	r3, [r7, #32]	@ zero_extendqisi2
 2513 1088 214A     		ldr	r2, .L199+56
 2514 108a D35C     		ldrb	r3, [r2, r3]	@ zero_extendqisi2
 2515 108c 1846     		mov	r0, r3
 2516 108e FFF7FEFF 		bl	UART_3_PutChar
 387:printer.c     ****         for(uint8 x = 0; x < 13; x ++){
 2517              		.loc 1 387 0 discriminator 3
 2518 1092 97F82030 		ldrb	r3, [r7, #32]	@ zero_extendqisi2
 2519 1096 0133     		adds	r3, r3, #1
 2520 1098 87F82030 		strb	r3, [r7, #32]
 2521              	.L152:
 387:printer.c     ****         for(uint8 x = 0; x < 13; x ++){
 2522              		.loc 1 387 0 is_stmt 0 discriminator 1
 2523 109c 97F82030 		ldrb	r3, [r7, #32]	@ zero_extendqisi2
 2524 10a0 0C2B     		cmp	r3, #12
 2525 10a2 EFD9     		bls	.L153
 2526              	.LBE73:
 2527              	.LBB74:
 389:printer.c     ****         }
 390:printer.c     ****         for(uint8 x = 1; x < 6; x ++){
 2528              		.loc 1 390 0 is_stmt 1
 2529 10a4 0123     		movs	r3, #1
 2530 10a6 FB77     		strb	r3, [r7, #31]
 2531 10a8 0AE0     		b	.L154
 2532              	.L155:
 391:printer.c     ****             UART_3_PutChar(side.d.ProcessedPPU[0][x]);
 2533              		.loc 1 391 0 discriminator 3
 2534 10aa FB7F     		ldrb	r3, [r7, #31]	@ zero_extendqisi2
 2535 10ac 0B4A     		ldr	r2, .L199+4
ARM GAS  C:\Users\Lenovo\AppData\Local\Temp\ccXim33P.s 			page 57


 2536 10ae 1344     		add	r3, r3, r2
 2537 10b0 93F87434 		ldrb	r3, [r3, #1140]	@ zero_extendqisi2
 2538 10b4 1846     		mov	r0, r3
 2539 10b6 FFF7FEFF 		bl	UART_3_PutChar
 390:printer.c     ****             UART_3_PutChar(side.d.ProcessedPPU[0][x]);
 2540              		.loc 1 390 0 discriminator 3
 2541 10ba FB7F     		ldrb	r3, [r7, #31]	@ zero_extendqisi2
 2542 10bc 0133     		adds	r3, r3, #1
 2543 10be FB77     		strb	r3, [r7, #31]
 2544              	.L154:
 390:printer.c     ****             UART_3_PutChar(side.d.ProcessedPPU[0][x]);
 2545              		.loc 1 390 0 is_stmt 0 discriminator 1
 2546 10c0 FB7F     		ldrb	r3, [r7, #31]	@ zero_extendqisi2
 2547 10c2 052B     		cmp	r3, #5
 2548 10c4 F1D9     		bls	.L155
 2549              	.LBE74:
 392:printer.c     ****         }
 393:printer.c     ****         UART_3_PutChar(LINE_FEED);    
 2550              		.loc 1 393 0 is_stmt 1
 2551 10c6 064B     		ldr	r3, .L199+8
 2552 10c8 1B78     		ldrb	r3, [r3]	@ zero_extendqisi2
 2553 10ca 1846     		mov	r0, r3
 2554 10cc FFF7FEFF 		bl	UART_3_PutChar
 2555              	.LBB75:
 394:printer.c     ****         for(uint8 x = 0; x < 13; x ++){
 2556              		.loc 1 394 0
 2557 10d0 0023     		movs	r3, #0
 2558 10d2 BB77     		strb	r3, [r7, #30]
 2559 10d4 27E0     		b	.L156
 2560              	.L200:
 2561 10d6 00BF     		.align	2
 2562              	.L199:
 2563 10d8 00000000 		.word	msn_pos
 2564 10dc 00000000 		.word	side
 2565 10e0 00000000 		.word	LINE_FEED
 2566 10e4 00000000 		.word	msn_placa
 2567 10e8 00000000 		.word	msn_plate
 2568 10ec 00000000 		.word	SEPARATOR
 2569 10f0 00000000 		.word	msn_hora
 2570 10f4 00000000 		.word	msn_fecha
 2571 10f8 00000000 		.word	msn_EDS4
 2572 10fc 00000000 		.word	msn_EDS3
 2573 1100 00000000 		.word	msn_EDS2
 2574 1104 00000000 		.word	msn_EDS
 2575 1108 00000000 		.word	msn_footer2
 2576 110c 00000000 		.word	msn_footer
 2577 1110 00000000 		.word	msn_ppu
 2578              	.L157:
 395:printer.c     ****             UART_3_PutChar(msn_din[x]);
 2579              		.loc 1 395 0 discriminator 3
 2580 1114 BB7F     		ldrb	r3, [r7, #30]	@ zero_extendqisi2
 2581 1116 A54A     		ldr	r2, .L201
 2582 1118 D35C     		ldrb	r3, [r2, r3]	@ zero_extendqisi2
 2583 111a 1846     		mov	r0, r3
 2584 111c FFF7FEFF 		bl	UART_3_PutChar
 394:printer.c     ****         for(uint8 x = 0; x < 13; x ++){
 2585              		.loc 1 394 0 discriminator 3
ARM GAS  C:\Users\Lenovo\AppData\Local\Temp\ccXim33P.s 			page 58


 2586 1120 BB7F     		ldrb	r3, [r7, #30]	@ zero_extendqisi2
 2587 1122 0133     		adds	r3, r3, #1
 2588 1124 BB77     		strb	r3, [r7, #30]
 2589              	.L156:
 394:printer.c     ****         for(uint8 x = 0; x < 13; x ++){
 2590              		.loc 1 394 0 is_stmt 0 discriminator 1
 2591 1126 BB7F     		ldrb	r3, [r7, #30]	@ zero_extendqisi2
 2592 1128 0C2B     		cmp	r3, #12
 2593 112a F3D9     		bls	.L157
 2594              	.LBE75:
 396:printer.c     ****         }     
 397:printer.c     ****         UART_3_PutChar(PRN_CURRENCY[0]);        
 2595              		.loc 1 397 0 is_stmt 1
 2596 112c A04B     		ldr	r3, .L201+4
 2597 112e 1B78     		ldrb	r3, [r3]	@ zero_extendqisi2
 2598 1130 1846     		mov	r0, r3
 2599 1132 FFF7FEFF 		bl	UART_3_PutChar
 2600              	.LBB76:
 398:printer.c     ****         for(uint8 x = 0; x < 8; x ++){
 2601              		.loc 1 398 0
 2602 1136 0023     		movs	r3, #0
 2603 1138 7B77     		strb	r3, [r7, #29]
 2604 113a 0AE0     		b	.L158
 2605              	.L159:
 399:printer.c     ****             UART_3_PutChar(side.d.ProcessedmoneySale[x]);
 2606              		.loc 1 399 0 discriminator 3
 2607 113c 7B7F     		ldrb	r3, [r7, #29]	@ zero_extendqisi2
 2608 113e 9D4A     		ldr	r2, .L201+8
 2609 1140 1344     		add	r3, r3, r2
 2610 1142 93F86434 		ldrb	r3, [r3, #1124]	@ zero_extendqisi2
 2611 1146 1846     		mov	r0, r3
 2612 1148 FFF7FEFF 		bl	UART_3_PutChar
 398:printer.c     ****         for(uint8 x = 0; x < 8; x ++){
 2613              		.loc 1 398 0 discriminator 3
 2614 114c 7B7F     		ldrb	r3, [r7, #29]	@ zero_extendqisi2
 2615 114e 0133     		adds	r3, r3, #1
 2616 1150 7B77     		strb	r3, [r7, #29]
 2617              	.L158:
 398:printer.c     ****         for(uint8 x = 0; x < 8; x ++){
 2618              		.loc 1 398 0 is_stmt 0 discriminator 1
 2619 1152 7B7F     		ldrb	r3, [r7, #29]	@ zero_extendqisi2
 2620 1154 072B     		cmp	r3, #7
 2621 1156 F1D9     		bls	.L159
 2622              	.LBE76:
 400:printer.c     ****         } 
 401:printer.c     ****         UART_3_PutChar(LINE_FEED);    
 2623              		.loc 1 401 0 is_stmt 1
 2624 1158 974B     		ldr	r3, .L201+12
 2625 115a 1B78     		ldrb	r3, [r3]	@ zero_extendqisi2
 2626 115c 1846     		mov	r0, r3
 2627 115e FFF7FEFF 		bl	UART_3_PutChar
 2628              	.LBB77:
 402:printer.c     ****         for(uint8 x = 0; x < 13; x ++){
 2629              		.loc 1 402 0
 2630 1162 0023     		movs	r3, #0
 2631 1164 3B77     		strb	r3, [r7, #28]
 2632 1166 08E0     		b	.L160
ARM GAS  C:\Users\Lenovo\AppData\Local\Temp\ccXim33P.s 			page 59


 2633              	.L161:
 403:printer.c     ****             UART_3_PutChar(msn_vol[x]);
 2634              		.loc 1 403 0 discriminator 3
 2635 1168 3B7F     		ldrb	r3, [r7, #28]	@ zero_extendqisi2
 2636 116a 944A     		ldr	r2, .L201+16
 2637 116c D35C     		ldrb	r3, [r2, r3]	@ zero_extendqisi2
 2638 116e 1846     		mov	r0, r3
 2639 1170 FFF7FEFF 		bl	UART_3_PutChar
 402:printer.c     ****         for(uint8 x = 0; x < 13; x ++){
 2640              		.loc 1 402 0 discriminator 3
 2641 1174 3B7F     		ldrb	r3, [r7, #28]	@ zero_extendqisi2
 2642 1176 0133     		adds	r3, r3, #1
 2643 1178 3B77     		strb	r3, [r7, #28]
 2644              	.L160:
 402:printer.c     ****         for(uint8 x = 0; x < 13; x ++){
 2645              		.loc 1 402 0 is_stmt 0 discriminator 1
 2646 117a 3B7F     		ldrb	r3, [r7, #28]	@ zero_extendqisi2
 2647 117c 0C2B     		cmp	r3, #12
 2648 117e F3D9     		bls	.L161
 2649              	.LBE77:
 2650              	.LBB78:
 404:printer.c     ****         }
 405:printer.c     ****         for(uint8 x = 0; x < 8; x ++){
 2651              		.loc 1 405 0 is_stmt 1
 2652 1180 0023     		movs	r3, #0
 2653 1182 FB76     		strb	r3, [r7, #27]
 2654 1184 14E0     		b	.L162
 2655              	.L164:
 406:printer.c     ****             if((8-x) == DecVol)
 2656              		.loc 1 406 0
 2657 1186 FB7E     		ldrb	r3, [r7, #27]	@ zero_extendqisi2
 2658 1188 C3F10803 		rsb	r3, r3, #8
 2659 118c 8C4A     		ldr	r2, .L201+20
 2660 118e 1278     		ldrb	r2, [r2]	@ zero_extendqisi2
 2661 1190 9342     		cmp	r3, r2
 2662 1192 02D1     		bne	.L163
 407:printer.c     ****                 UART_3_PutChar('.');
 2663              		.loc 1 407 0
 2664 1194 2E20     		movs	r0, #46
 2665 1196 FFF7FEFF 		bl	UART_3_PutChar
 2666              	.L163:
 408:printer.c     ****             UART_3_PutChar(side.d.ProcessedvolumeSale[x]);        
 2667              		.loc 1 408 0 discriminator 2
 2668 119a FB7E     		ldrb	r3, [r7, #27]	@ zero_extendqisi2
 2669 119c 854A     		ldr	r2, .L201+8
 2670 119e 1344     		add	r3, r3, r2
 2671 11a0 93F86C34 		ldrb	r3, [r3, #1132]	@ zero_extendqisi2
 2672 11a4 1846     		mov	r0, r3
 2673 11a6 FFF7FEFF 		bl	UART_3_PutChar
 405:printer.c     ****             if((8-x) == DecVol)
 2674              		.loc 1 405 0 discriminator 2
 2675 11aa FB7E     		ldrb	r3, [r7, #27]	@ zero_extendqisi2
 2676 11ac 0133     		adds	r3, r3, #1
 2677 11ae FB76     		strb	r3, [r7, #27]
 2678              	.L162:
 405:printer.c     ****             if((8-x) == DecVol)
 2679              		.loc 1 405 0 is_stmt 0 discriminator 1
ARM GAS  C:\Users\Lenovo\AppData\Local\Temp\ccXim33P.s 			page 60


 2680 11b0 FB7E     		ldrb	r3, [r7, #27]	@ zero_extendqisi2
 2681 11b2 072B     		cmp	r3, #7
 2682 11b4 E7D9     		bls	.L164
 2683              	.LBE78:
 409:printer.c     ****         }            
 410:printer.c     ****         UART_3_PutChar(VolSimbol[0]);           
 2684              		.loc 1 410 0 is_stmt 1
 2685 11b6 834B     		ldr	r3, .L201+24
 2686 11b8 1B78     		ldrb	r3, [r3]	@ zero_extendqisi2
 2687 11ba 1846     		mov	r0, r3
 2688 11bc FFF7FEFF 		bl	UART_3_PutChar
 411:printer.c     ****         UART_3_PutChar(LINE_FEED);
 2689              		.loc 1 411 0
 2690 11c0 7D4B     		ldr	r3, .L201+12
 2691 11c2 1B78     		ldrb	r3, [r3]	@ zero_extendqisi2
 2692 11c4 1846     		mov	r0, r3
 2693 11c6 FFF7FEFF 		bl	UART_3_PutChar
 2694              	.LBB79:
 412:printer.c     ****         for(uint8 x = 0; x < 13; x ++){
 2695              		.loc 1 412 0
 2696 11ca 0023     		movs	r3, #0
 2697 11cc BB76     		strb	r3, [r7, #26]
 2698 11ce 08E0     		b	.L165
 2699              	.L166:
 413:printer.c     ****             UART_3_PutChar(msn_product[x]);
 2700              		.loc 1 413 0 discriminator 3
 2701 11d0 BB7E     		ldrb	r3, [r7, #26]	@ zero_extendqisi2
 2702 11d2 7D4A     		ldr	r2, .L201+28
 2703 11d4 D35C     		ldrb	r3, [r2, r3]	@ zero_extendqisi2
 2704 11d6 1846     		mov	r0, r3
 2705 11d8 FFF7FEFF 		bl	UART_3_PutChar
 412:printer.c     ****         for(uint8 x = 0; x < 13; x ++){
 2706              		.loc 1 412 0 discriminator 3
 2707 11dc BB7E     		ldrb	r3, [r7, #26]	@ zero_extendqisi2
 2708 11de 0133     		adds	r3, r3, #1
 2709 11e0 BB76     		strb	r3, [r7, #26]
 2710              	.L165:
 412:printer.c     ****         for(uint8 x = 0; x < 13; x ++){
 2711              		.loc 1 412 0 is_stmt 0 discriminator 1
 2712 11e2 BB7E     		ldrb	r3, [r7, #26]	@ zero_extendqisi2
 2713 11e4 0C2B     		cmp	r3, #12
 2714 11e6 F3D9     		bls	.L166
 2715              	.LBE79:
 2716              	.LBB80:
 414:printer.c     ****         }
 415:printer.c     ****         for(uint8 x = 0; x < 9; x ++){
 2717              		.loc 1 415 0 is_stmt 1
 2718 11e8 0023     		movs	r3, #0
 2719 11ea 7B76     		strb	r3, [r7, #25]
 2720 11ec 08E0     		b	.L167
 2721              	.L168:
 416:printer.c     ****             UART_3_PutChar(msn_gasoline[x]);
 2722              		.loc 1 416 0 discriminator 3
 2723 11ee 7B7E     		ldrb	r3, [r7, #25]	@ zero_extendqisi2
 2724 11f0 764A     		ldr	r2, .L201+32
 2725 11f2 D35C     		ldrb	r3, [r2, r3]	@ zero_extendqisi2
 2726 11f4 1846     		mov	r0, r3
ARM GAS  C:\Users\Lenovo\AppData\Local\Temp\ccXim33P.s 			page 61


 2727 11f6 FFF7FEFF 		bl	UART_3_PutChar
 415:printer.c     ****             UART_3_PutChar(msn_gasoline[x]);
 2728              		.loc 1 415 0 discriminator 3
 2729 11fa 7B7E     		ldrb	r3, [r7, #25]	@ zero_extendqisi2
 2730 11fc 0133     		adds	r3, r3, #1
 2731 11fe 7B76     		strb	r3, [r7, #25]
 2732              	.L167:
 415:printer.c     ****             UART_3_PutChar(msn_gasoline[x]);
 2733              		.loc 1 415 0 is_stmt 0 discriminator 1
 2734 1200 7B7E     		ldrb	r3, [r7, #25]	@ zero_extendqisi2
 2735 1202 082B     		cmp	r3, #8
 2736 1204 F3D9     		bls	.L168
 2737              	.LBE80:
 417:printer.c     ****         }
 418:printer.c     ****         UART_3_PutChar(LINE_FEED);
 2738              		.loc 1 418 0 is_stmt 1
 2739 1206 6C4B     		ldr	r3, .L201+12
 2740 1208 1B78     		ldrb	r3, [r3]	@ zero_extendqisi2
 2741 120a 1846     		mov	r0, r3
 2742 120c FFF7FEFF 		bl	UART_3_PutChar
 2743              	.LBB81:
 419:printer.c     ****         for(uint8 x = 0; x < 13; x ++){
 2744              		.loc 1 419 0
 2745 1210 0023     		movs	r3, #0
 2746 1212 3B76     		strb	r3, [r7, #24]
 2747 1214 08E0     		b	.L169
 2748              	.L170:
 420:printer.c     ****             UART_3_PutChar(msn_pos[x]);
 2749              		.loc 1 420 0 discriminator 3
 2750 1216 3B7E     		ldrb	r3, [r7, #24]	@ zero_extendqisi2
 2751 1218 6D4A     		ldr	r2, .L201+36
 2752 121a D35C     		ldrb	r3, [r2, r3]	@ zero_extendqisi2
 2753 121c 1846     		mov	r0, r3
 2754 121e FFF7FEFF 		bl	UART_3_PutChar
 419:printer.c     ****         for(uint8 x = 0; x < 13; x ++){
 2755              		.loc 1 419 0 discriminator 3
 2756 1222 3B7E     		ldrb	r3, [r7, #24]	@ zero_extendqisi2
 2757 1224 0133     		adds	r3, r3, #1
 2758 1226 3B76     		strb	r3, [r7, #24]
 2759              	.L169:
 419:printer.c     ****         for(uint8 x = 0; x < 13; x ++){
 2760              		.loc 1 419 0 is_stmt 0 discriminator 1
 2761 1228 3B7E     		ldrb	r3, [r7, #24]	@ zero_extendqisi2
 2762 122a 0C2B     		cmp	r3, #12
 2763 122c F3D9     		bls	.L170
 2764              	.LBE81:
 421:printer.c     ****         }
 422:printer.c     ****         UART_3_PutChar((side.d.dir)+ 0x31);
 2765              		.loc 1 422 0 is_stmt 1
 2766 122e 614B     		ldr	r3, .L201+8
 2767 1230 93F86933 		ldrb	r3, [r3, #873]	@ zero_extendqisi2
 2768 1234 3133     		adds	r3, r3, #49
 2769 1236 DBB2     		uxtb	r3, r3
 2770 1238 1846     		mov	r0, r3
 2771 123a FFF7FEFF 		bl	UART_3_PutChar
 423:printer.c     ****         UART_3_PutChar(LINE_FEED);    
 2772              		.loc 1 423 0
ARM GAS  C:\Users\Lenovo\AppData\Local\Temp\ccXim33P.s 			page 62


 2773 123e 5E4B     		ldr	r3, .L201+12
 2774 1240 1B78     		ldrb	r3, [r3]	@ zero_extendqisi2
 2775 1242 1846     		mov	r0, r3
 2776 1244 FFF7FEFF 		bl	UART_3_PutChar
 2777              	.LBB82:
 424:printer.c     ****         for(uint8 x = 0; x < 13; x ++){
 2778              		.loc 1 424 0
 2779 1248 0023     		movs	r3, #0
 2780 124a FB75     		strb	r3, [r7, #23]
 2781 124c 08E0     		b	.L171
 2782              	.L172:
 425:printer.c     ****             UART_3_PutChar(msn_placa[x]);
 2783              		.loc 1 425 0 discriminator 3
 2784 124e FB7D     		ldrb	r3, [r7, #23]	@ zero_extendqisi2
 2785 1250 604A     		ldr	r2, .L201+40
 2786 1252 D35C     		ldrb	r3, [r2, r3]	@ zero_extendqisi2
 2787 1254 1846     		mov	r0, r3
 2788 1256 FFF7FEFF 		bl	UART_3_PutChar
 424:printer.c     ****         for(uint8 x = 0; x < 13; x ++){
 2789              		.loc 1 424 0 discriminator 3
 2790 125a FB7D     		ldrb	r3, [r7, #23]	@ zero_extendqisi2
 2791 125c 0133     		adds	r3, r3, #1
 2792 125e FB75     		strb	r3, [r7, #23]
 2793              	.L171:
 424:printer.c     ****         for(uint8 x = 0; x < 13; x ++){
 2794              		.loc 1 424 0 is_stmt 0 discriminator 1
 2795 1260 FB7D     		ldrb	r3, [r7, #23]	@ zero_extendqisi2
 2796 1262 0C2B     		cmp	r3, #12
 2797 1264 F3D9     		bls	.L172
 2798              	.LBE82:
 2799              	.LBB83:
 426:printer.c     ****         }
 427:printer.c     ****         for(uint8 x = 0; x < 7; x ++){
 2800              		.loc 1 427 0 is_stmt 1
 2801 1266 0023     		movs	r3, #0
 2802 1268 BB75     		strb	r3, [r7, #22]
 2803 126a 08E0     		b	.L173
 2804              	.L174:
 428:printer.c     ****             UART_3_PutChar(msn_plate[x]);
 2805              		.loc 1 428 0 discriminator 3
 2806 126c BB7D     		ldrb	r3, [r7, #22]	@ zero_extendqisi2
 2807 126e 5A4A     		ldr	r2, .L201+44
 2808 1270 D35C     		ldrb	r3, [r2, r3]	@ zero_extendqisi2
 2809 1272 1846     		mov	r0, r3
 2810 1274 FFF7FEFF 		bl	UART_3_PutChar
 427:printer.c     ****             UART_3_PutChar(msn_plate[x]);
 2811              		.loc 1 427 0 discriminator 3
 2812 1278 BB7D     		ldrb	r3, [r7, #22]	@ zero_extendqisi2
 2813 127a 0133     		adds	r3, r3, #1
 2814 127c BB75     		strb	r3, [r7, #22]
 2815              	.L173:
 427:printer.c     ****             UART_3_PutChar(msn_plate[x]);
 2816              		.loc 1 427 0 is_stmt 0 discriminator 1
 2817 127e BB7D     		ldrb	r3, [r7, #22]	@ zero_extendqisi2
 2818 1280 062B     		cmp	r3, #6
 2819 1282 F3D9     		bls	.L174
 2820              	.LBE83:
ARM GAS  C:\Users\Lenovo\AppData\Local\Temp\ccXim33P.s 			page 63


 429:printer.c     ****         }
 430:printer.c     ****         UART_3_PutChar(LINE_FEED);
 2821              		.loc 1 430 0 is_stmt 1
 2822 1284 4C4B     		ldr	r3, .L201+12
 2823 1286 1B78     		ldrb	r3, [r3]	@ zero_extendqisi2
 2824 1288 1846     		mov	r0, r3
 2825 128a FFF7FEFF 		bl	UART_3_PutChar
 2826              	.LBB84:
 431:printer.c     ****         for(uint8 x = 0; x < 24; x ++){
 2827              		.loc 1 431 0
 2828 128e 0023     		movs	r3, #0
 2829 1290 7B75     		strb	r3, [r7, #21]
 2830 1292 08E0     		b	.L175
 2831              	.L176:
 432:printer.c     ****             UART_3_PutChar(SEPARATOR[x]);
 2832              		.loc 1 432 0 discriminator 3
 2833 1294 7B7D     		ldrb	r3, [r7, #21]	@ zero_extendqisi2
 2834 1296 514A     		ldr	r2, .L201+48
 2835 1298 D35C     		ldrb	r3, [r2, r3]	@ zero_extendqisi2
 2836 129a 1846     		mov	r0, r3
 2837 129c FFF7FEFF 		bl	UART_3_PutChar
 431:printer.c     ****         for(uint8 x = 0; x < 24; x ++){
 2838              		.loc 1 431 0 discriminator 3
 2839 12a0 7B7D     		ldrb	r3, [r7, #21]	@ zero_extendqisi2
 2840 12a2 0133     		adds	r3, r3, #1
 2841 12a4 7B75     		strb	r3, [r7, #21]
 2842              	.L175:
 431:printer.c     ****         for(uint8 x = 0; x < 24; x ++){
 2843              		.loc 1 431 0 is_stmt 0 discriminator 1
 2844 12a6 7B7D     		ldrb	r3, [r7, #21]	@ zero_extendqisi2
 2845 12a8 172B     		cmp	r3, #23
 2846 12aa F3D9     		bls	.L176
 2847              	.LBE84:
 433:printer.c     ****         }
 434:printer.c     ****         UART_3_PutChar(LINE_FEED);
 2848              		.loc 1 434 0 is_stmt 1
 2849 12ac 424B     		ldr	r3, .L201+12
 2850 12ae 1B78     		ldrb	r3, [r3]	@ zero_extendqisi2
 2851 12b0 1846     		mov	r0, r3
 2852 12b2 FFF7FEFF 		bl	UART_3_PutChar
 2853              	.LBB85:
 435:printer.c     ****         for(uint8 x = 0; x < 13; x ++){
 2854              		.loc 1 435 0
 2855 12b6 0023     		movs	r3, #0
 2856 12b8 3B75     		strb	r3, [r7, #20]
 2857 12ba 08E0     		b	.L177
 2858              	.L178:
 436:printer.c     ****             UART_3_PutChar(msn_hora[x]);
 2859              		.loc 1 436 0 discriminator 3
 2860 12bc 3B7D     		ldrb	r3, [r7, #20]	@ zero_extendqisi2
 2861 12be 484A     		ldr	r2, .L201+52
 2862 12c0 D35C     		ldrb	r3, [r2, r3]	@ zero_extendqisi2
 2863 12c2 1846     		mov	r0, r3
 2864 12c4 FFF7FEFF 		bl	UART_3_PutChar
 435:printer.c     ****         for(uint8 x = 0; x < 13; x ++){
 2865              		.loc 1 435 0 discriminator 3
 2866 12c8 3B7D     		ldrb	r3, [r7, #20]	@ zero_extendqisi2
ARM GAS  C:\Users\Lenovo\AppData\Local\Temp\ccXim33P.s 			page 64


 2867 12ca 0133     		adds	r3, r3, #1
 2868 12cc 3B75     		strb	r3, [r7, #20]
 2869              	.L177:
 435:printer.c     ****         for(uint8 x = 0; x < 13; x ++){
 2870              		.loc 1 435 0 is_stmt 0 discriminator 1
 2871 12ce 3B7D     		ldrb	r3, [r7, #20]	@ zero_extendqisi2
 2872 12d0 0C2B     		cmp	r3, #12
 2873 12d2 F3D9     		bls	.L178
 2874              	.LBE85:
 437:printer.c     ****         }
 438:printer.c     ****         UART_3_PutChar(LINE_FEED);
 2875              		.loc 1 438 0 is_stmt 1
 2876 12d4 384B     		ldr	r3, .L201+12
 2877 12d6 1B78     		ldrb	r3, [r3]	@ zero_extendqisi2
 2878 12d8 1846     		mov	r0, r3
 2879 12da FFF7FEFF 		bl	UART_3_PutChar
 2880              	.LBB86:
 439:printer.c     ****         for(uint8 x = 0; x < 13; x ++){
 2881              		.loc 1 439 0
 2882 12de 0023     		movs	r3, #0
 2883 12e0 FB74     		strb	r3, [r7, #19]
 2884 12e2 08E0     		b	.L179
 2885              	.L180:
 440:printer.c     ****             UART_3_PutChar(msn_fecha[x]);
 2886              		.loc 1 440 0 discriminator 3
 2887 12e4 FB7C     		ldrb	r3, [r7, #19]	@ zero_extendqisi2
 2888 12e6 3F4A     		ldr	r2, .L201+56
 2889 12e8 D35C     		ldrb	r3, [r2, r3]	@ zero_extendqisi2
 2890 12ea 1846     		mov	r0, r3
 2891 12ec FFF7FEFF 		bl	UART_3_PutChar
 439:printer.c     ****         for(uint8 x = 0; x < 13; x ++){
 2892              		.loc 1 439 0 discriminator 3
 2893 12f0 FB7C     		ldrb	r3, [r7, #19]	@ zero_extendqisi2
 2894 12f2 0133     		adds	r3, r3, #1
 2895 12f4 FB74     		strb	r3, [r7, #19]
 2896              	.L179:
 439:printer.c     ****         for(uint8 x = 0; x < 13; x ++){
 2897              		.loc 1 439 0 is_stmt 0 discriminator 1
 2898 12f6 FB7C     		ldrb	r3, [r7, #19]	@ zero_extendqisi2
 2899 12f8 0C2B     		cmp	r3, #12
 2900 12fa F3D9     		bls	.L180
 2901              	.LBE86:
 441:printer.c     ****         }
 442:printer.c     ****         UART_3_PutChar(LINE_FEED);
 2902              		.loc 1 442 0 is_stmt 1
 2903 12fc 2E4B     		ldr	r3, .L201+12
 2904 12fe 1B78     		ldrb	r3, [r3]	@ zero_extendqisi2
 2905 1300 1846     		mov	r0, r3
 2906 1302 FFF7FEFF 		bl	UART_3_PutChar
 2907              	.LBB87:
 443:printer.c     ****         for(uint8 x = 0; x < 24; x ++){
 2908              		.loc 1 443 0
 2909 1306 0023     		movs	r3, #0
 2910 1308 BB74     		strb	r3, [r7, #18]
 2911 130a 08E0     		b	.L181
 2912              	.L182:
 444:printer.c     ****             UART_3_PutChar(SEPARATOR[x]);
ARM GAS  C:\Users\Lenovo\AppData\Local\Temp\ccXim33P.s 			page 65


 2913              		.loc 1 444 0 discriminator 3
 2914 130c BB7C     		ldrb	r3, [r7, #18]	@ zero_extendqisi2
 2915 130e 334A     		ldr	r2, .L201+48
 2916 1310 D35C     		ldrb	r3, [r2, r3]	@ zero_extendqisi2
 2917 1312 1846     		mov	r0, r3
 2918 1314 FFF7FEFF 		bl	UART_3_PutChar
 443:printer.c     ****         for(uint8 x = 0; x < 24; x ++){
 2919              		.loc 1 443 0 discriminator 3
 2920 1318 BB7C     		ldrb	r3, [r7, #18]	@ zero_extendqisi2
 2921 131a 0133     		adds	r3, r3, #1
 2922 131c BB74     		strb	r3, [r7, #18]
 2923              	.L181:
 443:printer.c     ****         for(uint8 x = 0; x < 24; x ++){
 2924              		.loc 1 443 0 is_stmt 0 discriminator 1
 2925 131e BB7C     		ldrb	r3, [r7, #18]	@ zero_extendqisi2
 2926 1320 172B     		cmp	r3, #23
 2927 1322 F3D9     		bls	.L182
 2928              	.LBE87:
 445:printer.c     ****         }
 446:printer.c     ****         UART_3_PutChar(LINE_FEED);
 2929              		.loc 1 446 0 is_stmt 1
 2930 1324 244B     		ldr	r3, .L201+12
 2931 1326 1B78     		ldrb	r3, [r3]	@ zero_extendqisi2
 2932 1328 1846     		mov	r0, r3
 2933 132a FFF7FEFF 		bl	UART_3_PutChar
 2934              	.LBB88:
 447:printer.c     ****         for(uint8 x = 0; x < 22; x ++){
 2935              		.loc 1 447 0
 2936 132e 0023     		movs	r3, #0
 2937 1330 7B74     		strb	r3, [r7, #17]
 2938 1332 08E0     		b	.L183
 2939              	.L184:
 448:printer.c     ****             UART_3_PutChar(msn_EDS4[x]);
 2940              		.loc 1 448 0 discriminator 3
 2941 1334 7B7C     		ldrb	r3, [r7, #17]	@ zero_extendqisi2
 2942 1336 2C4A     		ldr	r2, .L201+60
 2943 1338 D35C     		ldrb	r3, [r2, r3]	@ zero_extendqisi2
 2944 133a 1846     		mov	r0, r3
 2945 133c FFF7FEFF 		bl	UART_3_PutChar
 447:printer.c     ****         for(uint8 x = 0; x < 22; x ++){
 2946              		.loc 1 447 0 discriminator 3
 2947 1340 7B7C     		ldrb	r3, [r7, #17]	@ zero_extendqisi2
 2948 1342 0133     		adds	r3, r3, #1
 2949 1344 7B74     		strb	r3, [r7, #17]
 2950              	.L183:
 447:printer.c     ****         for(uint8 x = 0; x < 22; x ++){
 2951              		.loc 1 447 0 is_stmt 0 discriminator 1
 2952 1346 7B7C     		ldrb	r3, [r7, #17]	@ zero_extendqisi2
 2953 1348 152B     		cmp	r3, #21
 2954 134a F3D9     		bls	.L184
 2955              	.LBE88:
 449:printer.c     ****         }
 450:printer.c     ****         UART_3_PutChar(LINE_FEED);
 2956              		.loc 1 450 0 is_stmt 1
 2957 134c 1A4B     		ldr	r3, .L201+12
 2958 134e 1B78     		ldrb	r3, [r3]	@ zero_extendqisi2
 2959 1350 1846     		mov	r0, r3
ARM GAS  C:\Users\Lenovo\AppData\Local\Temp\ccXim33P.s 			page 66


 2960 1352 FFF7FEFF 		bl	UART_3_PutChar
 2961              	.LBB89:
 451:printer.c     ****         for(uint8 x = 0; x < 22; x ++){
 2962              		.loc 1 451 0
 2963 1356 0023     		movs	r3, #0
 2964 1358 3B74     		strb	r3, [r7, #16]
 2965 135a 08E0     		b	.L185
 2966              	.L186:
 452:printer.c     ****             UART_3_PutChar(msn_EDS3[x]);
 2967              		.loc 1 452 0 discriminator 3
 2968 135c 3B7C     		ldrb	r3, [r7, #16]	@ zero_extendqisi2
 2969 135e 234A     		ldr	r2, .L201+64
 2970 1360 D35C     		ldrb	r3, [r2, r3]	@ zero_extendqisi2
 2971 1362 1846     		mov	r0, r3
 2972 1364 FFF7FEFF 		bl	UART_3_PutChar
 451:printer.c     ****         for(uint8 x = 0; x < 22; x ++){
 2973              		.loc 1 451 0 discriminator 3
 2974 1368 3B7C     		ldrb	r3, [r7, #16]	@ zero_extendqisi2
 2975 136a 0133     		adds	r3, r3, #1
 2976 136c 3B74     		strb	r3, [r7, #16]
 2977              	.L185:
 451:printer.c     ****         for(uint8 x = 0; x < 22; x ++){
 2978              		.loc 1 451 0 is_stmt 0 discriminator 1
 2979 136e 3B7C     		ldrb	r3, [r7, #16]	@ zero_extendqisi2
 2980 1370 152B     		cmp	r3, #21
 2981 1372 F3D9     		bls	.L186
 2982              	.LBE89:
 453:printer.c     ****         }
 454:printer.c     ****         UART_3_PutChar(LINE_FEED);
 2983              		.loc 1 454 0 is_stmt 1
 2984 1374 104B     		ldr	r3, .L201+12
 2985 1376 1B78     		ldrb	r3, [r3]	@ zero_extendqisi2
 2986 1378 1846     		mov	r0, r3
 2987 137a FFF7FEFF 		bl	UART_3_PutChar
 2988              	.LBB90:
 455:printer.c     ****         for(uint8 x = 0; x < 22; x ++){
 2989              		.loc 1 455 0
 2990 137e 0023     		movs	r3, #0
 2991 1380 FB73     		strb	r3, [r7, #15]
 2992 1382 08E0     		b	.L187
 2993              	.L188:
 456:printer.c     ****             UART_3_PutChar(msn_EDS2[x]);
 2994              		.loc 1 456 0 discriminator 3
 2995 1384 FB7B     		ldrb	r3, [r7, #15]	@ zero_extendqisi2
 2996 1386 1A4A     		ldr	r2, .L201+68
 2997 1388 D35C     		ldrb	r3, [r2, r3]	@ zero_extendqisi2
 2998 138a 1846     		mov	r0, r3
 2999 138c FFF7FEFF 		bl	UART_3_PutChar
 455:printer.c     ****         for(uint8 x = 0; x < 22; x ++){
 3000              		.loc 1 455 0 discriminator 3
 3001 1390 FB7B     		ldrb	r3, [r7, #15]	@ zero_extendqisi2
 3002 1392 0133     		adds	r3, r3, #1
 3003 1394 FB73     		strb	r3, [r7, #15]
 3004              	.L187:
 455:printer.c     ****         for(uint8 x = 0; x < 22; x ++){
 3005              		.loc 1 455 0 is_stmt 0 discriminator 1
 3006 1396 FB7B     		ldrb	r3, [r7, #15]	@ zero_extendqisi2
ARM GAS  C:\Users\Lenovo\AppData\Local\Temp\ccXim33P.s 			page 67


 3007 1398 152B     		cmp	r3, #21
 3008 139a F3D9     		bls	.L188
 3009              	.LBE90:
 457:printer.c     ****         }
 458:printer.c     ****         UART_3_PutChar(LINE_FEED);
 3010              		.loc 1 458 0 is_stmt 1
 3011 139c 064B     		ldr	r3, .L201+12
 3012 139e 1B78     		ldrb	r3, [r3]	@ zero_extendqisi2
 3013 13a0 1846     		mov	r0, r3
 3014 13a2 FFF7FEFF 		bl	UART_3_PutChar
 3015              	.LBB91:
 459:printer.c     ****         for(uint8 x = 0; x < 22; x ++){
 3016              		.loc 1 459 0
 3017 13a6 0023     		movs	r3, #0
 3018 13a8 BB73     		strb	r3, [r7, #14]
 3019 13aa 2CE0     		b	.L189
 3020              	.L202:
 3021              		.align	2
 3022              	.L201:
 3023 13ac 00000000 		.word	msn_din
 3024 13b0 00000000 		.word	PRN_CURRENCY
 3025 13b4 00000000 		.word	side
 3026 13b8 00000000 		.word	LINE_FEED
 3027 13bc 00000000 		.word	msn_vol
 3028 13c0 00000000 		.word	DecVol
 3029 13c4 00000000 		.word	VolSimbol
 3030 13c8 00000000 		.word	msn_product
 3031 13cc 00000000 		.word	msn_gasoline
 3032 13d0 00000000 		.word	msn_pos
 3033 13d4 00000000 		.word	msn_placa
 3034 13d8 00000000 		.word	msn_plate
 3035 13dc 00000000 		.word	SEPARATOR
 3036 13e0 00000000 		.word	msn_hora
 3037 13e4 00000000 		.word	msn_fecha
 3038 13e8 00000000 		.word	msn_EDS4
 3039 13ec 00000000 		.word	msn_EDS3
 3040 13f0 00000000 		.word	msn_EDS2
 3041              	.L190:
 460:printer.c     ****             UART_3_PutChar(msn_EDS[x]);
 3042              		.loc 1 460 0 discriminator 3
 3043 13f4 BB7B     		ldrb	r3, [r7, #14]	@ zero_extendqisi2
 3044 13f6 114A     		ldr	r2, .L203
 3045 13f8 D35C     		ldrb	r3, [r2, r3]	@ zero_extendqisi2
 3046 13fa 1846     		mov	r0, r3
 3047 13fc FFF7FEFF 		bl	UART_3_PutChar
 459:printer.c     ****         for(uint8 x = 0; x < 22; x ++){
 3048              		.loc 1 459 0 discriminator 3
 3049 1400 BB7B     		ldrb	r3, [r7, #14]	@ zero_extendqisi2
 3050 1402 0133     		adds	r3, r3, #1
 3051 1404 BB73     		strb	r3, [r7, #14]
 3052              	.L189:
 459:printer.c     ****         for(uint8 x = 0; x < 22; x ++){
 3053              		.loc 1 459 0 is_stmt 0 discriminator 1
 3054 1406 BB7B     		ldrb	r3, [r7, #14]	@ zero_extendqisi2
 3055 1408 152B     		cmp	r3, #21
 3056 140a F3D9     		bls	.L190
 3057              	.LBE91:
ARM GAS  C:\Users\Lenovo\AppData\Local\Temp\ccXim33P.s 			page 68


 461:printer.c     ****         }
 462:printer.c     ****         UART_3_PutChar(LINE_FEED);
 3058              		.loc 1 462 0 is_stmt 1
 3059 140c 0C4B     		ldr	r3, .L203+4
 3060 140e 1B78     		ldrb	r3, [r3]	@ zero_extendqisi2
 3061 1410 1846     		mov	r0, r3
 3062 1412 FFF7FEFF 		bl	UART_3_PutChar
 3063              	.L145:
 463:printer.c     ****     }
 464:printer.c     ****     UART_3_PutChar(LINE_FEED);
 3064              		.loc 1 464 0
 3065 1416 0A4B     		ldr	r3, .L203+4
 3066 1418 1B78     		ldrb	r3, [r3]	@ zero_extendqisi2
 3067 141a 1846     		mov	r0, r3
 3068 141c FFF7FEFF 		bl	UART_3_PutChar
 465:printer.c     ****     UART_3_PutChar(LINE_FEED);
 3069              		.loc 1 465 0
 3070 1420 074B     		ldr	r3, .L203+4
 3071 1422 1B78     		ldrb	r3, [r3]	@ zero_extendqisi2
 3072 1424 1846     		mov	r0, r3
 3073 1426 FFF7FEFF 		bl	UART_3_PutChar
 466:printer.c     ****     UART_3_PutChar(LINE_FEED);
 3074              		.loc 1 466 0
 3075 142a 054B     		ldr	r3, .L203+4
 3076 142c 1B78     		ldrb	r3, [r3]	@ zero_extendqisi2
 3077 142e 1846     		mov	r0, r3
 3078 1430 FFF7FEFF 		bl	UART_3_PutChar
 467:printer.c     **** }
 3079              		.loc 1 467 0
 3080 1434 00BF     		nop
 3081 1436 6C37     		adds	r7, r7, #108
 3082              		.cfi_def_cfa_offset 12
 3083 1438 BD46     		mov	sp, r7
 3084              		.cfi_def_cfa_register 13
 3085              		@ sp needed
 3086 143a 90BD     		pop	{r4, r7, pc}
 3087              	.L204:
 3088              		.align	2
 3089              	.L203:
 3090 143c 00000000 		.word	msn_EDS
 3091 1440 00000000 		.word	LINE_FEED
 3092              		.cfi_endproc
 3093              	.LFE63:
 3094              		.size	PrintReceipt, .-PrintReceipt
 3095              		.section	.text.PrintShift,"ax",%progbits
 3096              		.align	2
 3097              		.global	PrintShift
 3098              		.thumb
 3099              		.thumb_func
 3100              		.type	PrintShift, %function
 3101              	PrintShift:
 3102              	.LFB64:
 468:printer.c     **** 
 469:printer.c     **** void PrintShift(uint8 address){
 3103              		.loc 1 469 0
 3104              		.cfi_startproc
 3105              		@ args = 0, pretend = 0, frame = 40
ARM GAS  C:\Users\Lenovo\AppData\Local\Temp\ccXim33P.s 			page 69


 3106              		@ frame_needed = 1, uses_anonymous_args = 0
 3107 0000 80B5     		push	{r7, lr}
 3108              		.cfi_def_cfa_offset 8
 3109              		.cfi_offset 7, -8
 3110              		.cfi_offset 14, -4
 3111 0002 8AB0     		sub	sp, sp, #40
 3112              		.cfi_def_cfa_offset 48
 3113 0004 00AF     		add	r7, sp, #0
 3114              		.cfi_def_cfa_register 7
 3115 0006 0346     		mov	r3, r0
 3116 0008 FB71     		strb	r3, [r7, #7]
 470:printer.c     ****     
 471:printer.c     ****     if(address == side.a.dir){
 3117              		.loc 1 471 0
 3118 000a B94B     		ldr	r3, .L271
 3119 000c 1B78     		ldrb	r3, [r3]	@ zero_extendqisi2
 3120 000e FA79     		ldrb	r2, [r7, #7]	@ zero_extendqisi2
 3121 0010 9A42     		cmp	r2, r3
 3122 0012 40F06381 		bne	.L206
 3123              	.LBB92:
 472:printer.c     ****         for(uint8 x = 0; x < 22; x ++){
 3124              		.loc 1 472 0
 3125 0016 0023     		movs	r3, #0
 3126 0018 87F82730 		strb	r3, [r7, #39]
 3127 001c 0BE0     		b	.L207
 3128              	.L208:
 473:printer.c     ****             UART_3_PutChar(msn_footer2[x]);
 3129              		.loc 1 473 0 discriminator 3
 3130 001e 97F82730 		ldrb	r3, [r7, #39]	@ zero_extendqisi2
 3131 0022 B44A     		ldr	r2, .L271+4
 3132 0024 D35C     		ldrb	r3, [r2, r3]	@ zero_extendqisi2
 3133 0026 1846     		mov	r0, r3
 3134 0028 FFF7FEFF 		bl	UART_3_PutChar
 472:printer.c     ****         for(uint8 x = 0; x < 22; x ++){
 3135              		.loc 1 472 0 discriminator 3
 3136 002c 97F82730 		ldrb	r3, [r7, #39]	@ zero_extendqisi2
 3137 0030 0133     		adds	r3, r3, #1
 3138 0032 87F82730 		strb	r3, [r7, #39]
 3139              	.L207:
 472:printer.c     ****         for(uint8 x = 0; x < 22; x ++){
 3140              		.loc 1 472 0 is_stmt 0 discriminator 1
 3141 0036 97F82730 		ldrb	r3, [r7, #39]	@ zero_extendqisi2
 3142 003a 152B     		cmp	r3, #21
 3143 003c EFD9     		bls	.L208
 3144              	.LBE92:
 474:printer.c     ****         }
 475:printer.c     ****         UART_3_PutChar(LINE_FEED);
 3145              		.loc 1 475 0 is_stmt 1
 3146 003e AE4B     		ldr	r3, .L271+8
 3147 0040 1B78     		ldrb	r3, [r3]	@ zero_extendqisi2
 3148 0042 1846     		mov	r0, r3
 3149 0044 FFF7FEFF 		bl	UART_3_PutChar
 3150              	.LBB93:
 476:printer.c     ****         for(uint8 x = 0; x < 22; x ++){
 3151              		.loc 1 476 0
 3152 0048 0023     		movs	r3, #0
 3153 004a 87F82630 		strb	r3, [r7, #38]
ARM GAS  C:\Users\Lenovo\AppData\Local\Temp\ccXim33P.s 			page 70


 3154 004e 0BE0     		b	.L209
 3155              	.L210:
 477:printer.c     ****             UART_3_PutChar(msn_footer[x]);
 3156              		.loc 1 477 0 discriminator 3
 3157 0050 97F82630 		ldrb	r3, [r7, #38]	@ zero_extendqisi2
 3158 0054 A94A     		ldr	r2, .L271+12
 3159 0056 D35C     		ldrb	r3, [r2, r3]	@ zero_extendqisi2
 3160 0058 1846     		mov	r0, r3
 3161 005a FFF7FEFF 		bl	UART_3_PutChar
 476:printer.c     ****         for(uint8 x = 0; x < 22; x ++){
 3162              		.loc 1 476 0 discriminator 3
 3163 005e 97F82630 		ldrb	r3, [r7, #38]	@ zero_extendqisi2
 3164 0062 0133     		adds	r3, r3, #1
 3165 0064 87F82630 		strb	r3, [r7, #38]
 3166              	.L209:
 476:printer.c     ****         for(uint8 x = 0; x < 22; x ++){
 3167              		.loc 1 476 0 is_stmt 0 discriminator 1
 3168 0068 97F82630 		ldrb	r3, [r7, #38]	@ zero_extendqisi2
 3169 006c 152B     		cmp	r3, #21
 3170 006e EFD9     		bls	.L210
 3171              	.LBE93:
 478:printer.c     ****         }
 479:printer.c     ****         UART_3_PutChar(LINE_FEED);
 3172              		.loc 1 479 0 is_stmt 1
 3173 0070 A14B     		ldr	r3, .L271+8
 3174 0072 1B78     		ldrb	r3, [r3]	@ zero_extendqisi2
 3175 0074 1846     		mov	r0, r3
 3176 0076 FFF7FEFF 		bl	UART_3_PutChar
 3177              	.LBB94:
 480:printer.c     ****         for(uint8 x = 0; x < 24; x ++){
 3178              		.loc 1 480 0
 3179 007a 0023     		movs	r3, #0
 3180 007c 87F82530 		strb	r3, [r7, #37]
 3181 0080 0BE0     		b	.L211
 3182              	.L212:
 481:printer.c     ****             UART_3_PutChar(SEPARATOR[x]);
 3183              		.loc 1 481 0 discriminator 3
 3184 0082 97F82530 		ldrb	r3, [r7, #37]	@ zero_extendqisi2
 3185 0086 9E4A     		ldr	r2, .L271+16
 3186 0088 D35C     		ldrb	r3, [r2, r3]	@ zero_extendqisi2
 3187 008a 1846     		mov	r0, r3
 3188 008c FFF7FEFF 		bl	UART_3_PutChar
 480:printer.c     ****         for(uint8 x = 0; x < 24; x ++){
 3189              		.loc 1 480 0 discriminator 3
 3190 0090 97F82530 		ldrb	r3, [r7, #37]	@ zero_extendqisi2
 3191 0094 0133     		adds	r3, r3, #1
 3192 0096 87F82530 		strb	r3, [r7, #37]
 3193              	.L211:
 480:printer.c     ****         for(uint8 x = 0; x < 24; x ++){
 3194              		.loc 1 480 0 is_stmt 0 discriminator 1
 3195 009a 97F82530 		ldrb	r3, [r7, #37]	@ zero_extendqisi2
 3196 009e 172B     		cmp	r3, #23
 3197 00a0 EFD9     		bls	.L212
 3198              	.LBE94:
 482:printer.c     ****         }
 483:printer.c     ****         UART_3_PutChar(LINE_FEED);
 3199              		.loc 1 483 0 is_stmt 1
ARM GAS  C:\Users\Lenovo\AppData\Local\Temp\ccXim33P.s 			page 71


 3200 00a2 954B     		ldr	r3, .L271+8
 3201 00a4 1B78     		ldrb	r3, [r3]	@ zero_extendqisi2
 3202 00a6 1846     		mov	r0, r3
 3203 00a8 FFF7FEFF 		bl	UART_3_PutChar
 3204              	.LBB95:
 484:printer.c     ****         for(uint8 x = 0; x < 13; x ++){
 3205              		.loc 1 484 0
 3206 00ac 0023     		movs	r3, #0
 3207 00ae 87F82430 		strb	r3, [r7, #36]
 3208 00b2 0BE0     		b	.L213
 3209              	.L214:
 485:printer.c     ****             UART_3_PutChar(msn_voltot[x]);
 3210              		.loc 1 485 0 discriminator 3
 3211 00b4 97F82430 		ldrb	r3, [r7, #36]	@ zero_extendqisi2
 3212 00b8 924A     		ldr	r2, .L271+20
 3213 00ba D35C     		ldrb	r3, [r2, r3]	@ zero_extendqisi2
 3214 00bc 1846     		mov	r0, r3
 3215 00be FFF7FEFF 		bl	UART_3_PutChar
 484:printer.c     ****         for(uint8 x = 0; x < 13; x ++){
 3216              		.loc 1 484 0 discriminator 3
 3217 00c2 97F82430 		ldrb	r3, [r7, #36]	@ zero_extendqisi2
 3218 00c6 0133     		adds	r3, r3, #1
 3219 00c8 87F82430 		strb	r3, [r7, #36]
 3220              	.L213:
 484:printer.c     ****         for(uint8 x = 0; x < 13; x ++){
 3221              		.loc 1 484 0 is_stmt 0 discriminator 1
 3222 00cc 97F82430 		ldrb	r3, [r7, #36]	@ zero_extendqisi2
 3223 00d0 0C2B     		cmp	r3, #12
 3224 00d2 EFD9     		bls	.L214
 3225              	.LBE95:
 3226              	.LBB96:
 486:printer.c     ****         }
 487:printer.c     ****         for(uint8 x = 2; x < 10; x ++){ //recorta los dos primeros datos de totales
 3227              		.loc 1 487 0 is_stmt 1
 3228 00d4 0223     		movs	r3, #2
 3229 00d6 87F82330 		strb	r3, [r7, #35]
 3230 00da 18E0     		b	.L215
 3231              	.L217:
 488:printer.c     ****             if((10-x) == DecVol)
 3232              		.loc 1 488 0
 3233 00dc 97F82330 		ldrb	r3, [r7, #35]	@ zero_extendqisi2
 3234 00e0 C3F10A03 		rsb	r3, r3, #10
 3235 00e4 884A     		ldr	r2, .L271+24
 3236 00e6 1278     		ldrb	r2, [r2]	@ zero_extendqisi2
 3237 00e8 9342     		cmp	r3, r2
 3238 00ea 02D1     		bne	.L216
 489:printer.c     ****                 UART_3_PutChar('.');
 3239              		.loc 1 489 0
 3240 00ec 2E20     		movs	r0, #46
 3241 00ee FFF7FEFF 		bl	UART_3_PutChar
 3242              	.L216:
 490:printer.c     ****             UART_3_PutChar(side.a.ProcessedTotals[0][0][x]);
 3243              		.loc 1 490 0 discriminator 2
 3244 00f2 97F82330 		ldrb	r3, [r7, #35]	@ zero_extendqisi2
 3245 00f6 7E4A     		ldr	r2, .L271
 3246 00f8 1344     		add	r3, r3, r2
 3247 00fa 93F88330 		ldrb	r3, [r3, #131]	@ zero_extendqisi2
ARM GAS  C:\Users\Lenovo\AppData\Local\Temp\ccXim33P.s 			page 72


 3248 00fe 1846     		mov	r0, r3
 3249 0100 FFF7FEFF 		bl	UART_3_PutChar
 487:printer.c     ****             if((10-x) == DecVol)
 3250              		.loc 1 487 0 discriminator 2
 3251 0104 97F82330 		ldrb	r3, [r7, #35]	@ zero_extendqisi2
 3252 0108 0133     		adds	r3, r3, #1
 3253 010a 87F82330 		strb	r3, [r7, #35]
 3254              	.L215:
 487:printer.c     ****             if((10-x) == DecVol)
 3255              		.loc 1 487 0 is_stmt 0 discriminator 1
 3256 010e 97F82330 		ldrb	r3, [r7, #35]	@ zero_extendqisi2
 3257 0112 092B     		cmp	r3, #9
 3258 0114 E2D9     		bls	.L217
 3259              	.LBE96:
 491:printer.c     ****         }
 492:printer.c     ****         UART_3_PutChar(LINE_FEED);
 3260              		.loc 1 492 0 is_stmt 1
 3261 0116 784B     		ldr	r3, .L271+8
 3262 0118 1B78     		ldrb	r3, [r3]	@ zero_extendqisi2
 3263 011a 1846     		mov	r0, r3
 3264 011c FFF7FEFF 		bl	UART_3_PutChar
 3265              	.LBB97:
 493:printer.c     ****         for(uint8 x = 0; x < 13; x ++){
 3266              		.loc 1 493 0
 3267 0120 0023     		movs	r3, #0
 3268 0122 87F82230 		strb	r3, [r7, #34]
 3269 0126 0BE0     		b	.L218
 3270              	.L219:
 494:printer.c     ****             UART_3_PutChar(msn_pos[x]);
 3271              		.loc 1 494 0 discriminator 3
 3272 0128 97F82230 		ldrb	r3, [r7, #34]	@ zero_extendqisi2
 3273 012c 774A     		ldr	r2, .L271+28
 3274 012e D35C     		ldrb	r3, [r2, r3]	@ zero_extendqisi2
 3275 0130 1846     		mov	r0, r3
 3276 0132 FFF7FEFF 		bl	UART_3_PutChar
 493:printer.c     ****         for(uint8 x = 0; x < 13; x ++){
 3277              		.loc 1 493 0 discriminator 3
 3278 0136 97F82230 		ldrb	r3, [r7, #34]	@ zero_extendqisi2
 3279 013a 0133     		adds	r3, r3, #1
 3280 013c 87F82230 		strb	r3, [r7, #34]
 3281              	.L218:
 493:printer.c     ****         for(uint8 x = 0; x < 13; x ++){
 3282              		.loc 1 493 0 is_stmt 0 discriminator 1
 3283 0140 97F82230 		ldrb	r3, [r7, #34]	@ zero_extendqisi2
 3284 0144 0C2B     		cmp	r3, #12
 3285 0146 EFD9     		bls	.L219
 3286              	.LBE97:
 495:printer.c     ****         }
 496:printer.c     ****         UART_3_PutChar((side.a.dir)+ 0x31);
 3287              		.loc 1 496 0 is_stmt 1
 3288 0148 694B     		ldr	r3, .L271
 3289 014a 1B78     		ldrb	r3, [r3]	@ zero_extendqisi2
 3290 014c 3133     		adds	r3, r3, #49
 3291 014e DBB2     		uxtb	r3, r3
 3292 0150 1846     		mov	r0, r3
 3293 0152 FFF7FEFF 		bl	UART_3_PutChar
 497:printer.c     ****         UART_3_PutChar(LINE_FEED);
ARM GAS  C:\Users\Lenovo\AppData\Local\Temp\ccXim33P.s 			page 73


 3294              		.loc 1 497 0
 3295 0156 684B     		ldr	r3, .L271+8
 3296 0158 1B78     		ldrb	r3, [r3]	@ zero_extendqisi2
 3297 015a 1846     		mov	r0, r3
 3298 015c FFF7FEFF 		bl	UART_3_PutChar
 3299              	.LBB98:
 498:printer.c     ****         for(uint8 x = 0; x < 13; x ++){
 3300              		.loc 1 498 0
 3301 0160 0023     		movs	r3, #0
 3302 0162 87F82130 		strb	r3, [r7, #33]
 3303 0166 0BE0     		b	.L220
 3304              	.L221:
 499:printer.c     ****             UART_3_PutChar(msn_cierre[x]);
 3305              		.loc 1 499 0 discriminator 3
 3306 0168 97F82130 		ldrb	r3, [r7, #33]	@ zero_extendqisi2
 3307 016c 684A     		ldr	r2, .L271+32
 3308 016e D35C     		ldrb	r3, [r2, r3]	@ zero_extendqisi2
 3309 0170 1846     		mov	r0, r3
 3310 0172 FFF7FEFF 		bl	UART_3_PutChar
 498:printer.c     ****         for(uint8 x = 0; x < 13; x ++){
 3311              		.loc 1 498 0 discriminator 3
 3312 0176 97F82130 		ldrb	r3, [r7, #33]	@ zero_extendqisi2
 3313 017a 0133     		adds	r3, r3, #1
 3314 017c 87F82130 		strb	r3, [r7, #33]
 3315              	.L220:
 498:printer.c     ****         for(uint8 x = 0; x < 13; x ++){
 3316              		.loc 1 498 0 is_stmt 0 discriminator 1
 3317 0180 97F82130 		ldrb	r3, [r7, #33]	@ zero_extendqisi2
 3318 0184 0C2B     		cmp	r3, #12
 3319 0186 EFD9     		bls	.L221
 3320              	.LBE98:
 500:printer.c     ****         }        
 501:printer.c     ****         ///////////////////////////////////////////////
 502:printer.c     ****         UART_3_PutChar(LINE_FEED);
 3321              		.loc 1 502 0 is_stmt 1
 3322 0188 5B4B     		ldr	r3, .L271+8
 3323 018a 1B78     		ldrb	r3, [r3]	@ zero_extendqisi2
 3324 018c 1846     		mov	r0, r3
 3325 018e FFF7FEFF 		bl	UART_3_PutChar
 3326              	.LBB99:
 503:printer.c     ****         for(uint8 x = 0; x < 24; x ++){
 3327              		.loc 1 503 0
 3328 0192 0023     		movs	r3, #0
 3329 0194 87F82030 		strb	r3, [r7, #32]
 3330 0198 0BE0     		b	.L222
 3331              	.L223:
 504:printer.c     ****             UART_3_PutChar(SEPARATOR[x]);
 3332              		.loc 1 504 0 discriminator 3
 3333 019a 97F82030 		ldrb	r3, [r7, #32]	@ zero_extendqisi2
 3334 019e 584A     		ldr	r2, .L271+16
 3335 01a0 D35C     		ldrb	r3, [r2, r3]	@ zero_extendqisi2
 3336 01a2 1846     		mov	r0, r3
 3337 01a4 FFF7FEFF 		bl	UART_3_PutChar
 503:printer.c     ****         for(uint8 x = 0; x < 24; x ++){
 3338              		.loc 1 503 0 discriminator 3
 3339 01a8 97F82030 		ldrb	r3, [r7, #32]	@ zero_extendqisi2
 3340 01ac 0133     		adds	r3, r3, #1
ARM GAS  C:\Users\Lenovo\AppData\Local\Temp\ccXim33P.s 			page 74


 3341 01ae 87F82030 		strb	r3, [r7, #32]
 3342              	.L222:
 503:printer.c     ****         for(uint8 x = 0; x < 24; x ++){
 3343              		.loc 1 503 0 is_stmt 0 discriminator 1
 3344 01b2 97F82030 		ldrb	r3, [r7, #32]	@ zero_extendqisi2
 3345 01b6 172B     		cmp	r3, #23
 3346 01b8 EFD9     		bls	.L223
 3347              	.LBE99:
 505:printer.c     ****         }    
 506:printer.c     ****         UART_3_PutChar(LINE_FEED);
 3348              		.loc 1 506 0 is_stmt 1
 3349 01ba 4F4B     		ldr	r3, .L271+8
 3350 01bc 1B78     		ldrb	r3, [r3]	@ zero_extendqisi2
 3351 01be 1846     		mov	r0, r3
 3352 01c0 FFF7FEFF 		bl	UART_3_PutChar
 3353              	.LBB100:
 507:printer.c     ****         for(uint8 x = 0; x < 13; x ++){
 3354              		.loc 1 507 0
 3355 01c4 0023     		movs	r3, #0
 3356 01c6 FB77     		strb	r3, [r7, #31]
 3357 01c8 08E0     		b	.L224
 3358              	.L225:
 508:printer.c     ****             UART_3_PutChar(msn_hora[x]);
 3359              		.loc 1 508 0 discriminator 3
 3360 01ca FB7F     		ldrb	r3, [r7, #31]	@ zero_extendqisi2
 3361 01cc 514A     		ldr	r2, .L271+36
 3362 01ce D35C     		ldrb	r3, [r2, r3]	@ zero_extendqisi2
 3363 01d0 1846     		mov	r0, r3
 3364 01d2 FFF7FEFF 		bl	UART_3_PutChar
 507:printer.c     ****         for(uint8 x = 0; x < 13; x ++){
 3365              		.loc 1 507 0 discriminator 3
 3366 01d6 FB7F     		ldrb	r3, [r7, #31]	@ zero_extendqisi2
 3367 01d8 0133     		adds	r3, r3, #1
 3368 01da FB77     		strb	r3, [r7, #31]
 3369              	.L224:
 507:printer.c     ****         for(uint8 x = 0; x < 13; x ++){
 3370              		.loc 1 507 0 is_stmt 0 discriminator 1
 3371 01dc FB7F     		ldrb	r3, [r7, #31]	@ zero_extendqisi2
 3372 01de 0C2B     		cmp	r3, #12
 3373 01e0 F3D9     		bls	.L225
 3374              	.LBE100:
 509:printer.c     ****         }                                 //Hora y Fecha
 510:printer.c     ****         UART_3_PutChar(LINE_FEED);
 3375              		.loc 1 510 0 is_stmt 1
 3376 01e2 454B     		ldr	r3, .L271+8
 3377 01e4 1B78     		ldrb	r3, [r3]	@ zero_extendqisi2
 3378 01e6 1846     		mov	r0, r3
 3379 01e8 FFF7FEFF 		bl	UART_3_PutChar
 3380              	.LBB101:
 511:printer.c     ****         for(uint8 x = 0; x < 13; x ++){
 3381              		.loc 1 511 0
 3382 01ec 0023     		movs	r3, #0
 3383 01ee BB77     		strb	r3, [r7, #30]
 3384 01f0 08E0     		b	.L226
 3385              	.L227:
 512:printer.c     ****             UART_3_PutChar(msn_fecha[x]);
 3386              		.loc 1 512 0 discriminator 3
ARM GAS  C:\Users\Lenovo\AppData\Local\Temp\ccXim33P.s 			page 75


 3387 01f2 BB7F     		ldrb	r3, [r7, #30]	@ zero_extendqisi2
 3388 01f4 484A     		ldr	r2, .L271+40
 3389 01f6 D35C     		ldrb	r3, [r2, r3]	@ zero_extendqisi2
 3390 01f8 1846     		mov	r0, r3
 3391 01fa FFF7FEFF 		bl	UART_3_PutChar
 511:printer.c     ****         for(uint8 x = 0; x < 13; x ++){
 3392              		.loc 1 511 0 discriminator 3
 3393 01fe BB7F     		ldrb	r3, [r7, #30]	@ zero_extendqisi2
 3394 0200 0133     		adds	r3, r3, #1
 3395 0202 BB77     		strb	r3, [r7, #30]
 3396              	.L226:
 511:printer.c     ****         for(uint8 x = 0; x < 13; x ++){
 3397              		.loc 1 511 0 is_stmt 0 discriminator 1
 3398 0204 BB7F     		ldrb	r3, [r7, #30]	@ zero_extendqisi2
 3399 0206 0C2B     		cmp	r3, #12
 3400 0208 F3D9     		bls	.L227
 3401              	.LBE101:
 513:printer.c     ****         }
 514:printer.c     ****         ///////////////////////////////////////////////        
 515:printer.c     ****         UART_3_PutChar(LINE_FEED);
 3402              		.loc 1 515 0 is_stmt 1
 3403 020a 3B4B     		ldr	r3, .L271+8
 3404 020c 1B78     		ldrb	r3, [r3]	@ zero_extendqisi2
 3405 020e 1846     		mov	r0, r3
 3406 0210 FFF7FEFF 		bl	UART_3_PutChar
 3407              	.LBB102:
 516:printer.c     ****         for(uint8 x = 0; x < 24; x ++){
 3408              		.loc 1 516 0
 3409 0214 0023     		movs	r3, #0
 3410 0216 7B77     		strb	r3, [r7, #29]
 3411 0218 08E0     		b	.L228
 3412              	.L229:
 517:printer.c     ****             UART_3_PutChar(SEPARATOR[x]); //Separador de seccin
 3413              		.loc 1 517 0 discriminator 3
 3414 021a 7B7F     		ldrb	r3, [r7, #29]	@ zero_extendqisi2
 3415 021c 384A     		ldr	r2, .L271+16
 3416 021e D35C     		ldrb	r3, [r2, r3]	@ zero_extendqisi2
 3417 0220 1846     		mov	r0, r3
 3418 0222 FFF7FEFF 		bl	UART_3_PutChar
 516:printer.c     ****         for(uint8 x = 0; x < 24; x ++){
 3419              		.loc 1 516 0 discriminator 3
 3420 0226 7B7F     		ldrb	r3, [r7, #29]	@ zero_extendqisi2
 3421 0228 0133     		adds	r3, r3, #1
 3422 022a 7B77     		strb	r3, [r7, #29]
 3423              	.L228:
 516:printer.c     ****         for(uint8 x = 0; x < 24; x ++){
 3424              		.loc 1 516 0 is_stmt 0 discriminator 1
 3425 022c 7B7F     		ldrb	r3, [r7, #29]	@ zero_extendqisi2
 3426 022e 172B     		cmp	r3, #23
 3427 0230 F3D9     		bls	.L229
 3428              	.LBE102:
 518:printer.c     ****         }
 519:printer.c     ****         UART_3_PutChar(LINE_FEED);
 3429              		.loc 1 519 0 is_stmt 1
 3430 0232 314B     		ldr	r3, .L271+8
 3431 0234 1B78     		ldrb	r3, [r3]	@ zero_extendqisi2
 3432 0236 1846     		mov	r0, r3
ARM GAS  C:\Users\Lenovo\AppData\Local\Temp\ccXim33P.s 			page 76


 3433 0238 FFF7FEFF 		bl	UART_3_PutChar
 3434              	.LBB103:
 520:printer.c     ****         for(uint8 x = 0; x < 22; x ++){
 3435              		.loc 1 520 0
 3436 023c 0023     		movs	r3, #0
 3437 023e 3B77     		strb	r3, [r7, #28]
 3438 0240 08E0     		b	.L230
 3439              	.L231:
 521:printer.c     ****             UART_3_PutChar(msn_EDS4[x]);
 3440              		.loc 1 521 0 discriminator 3
 3441 0242 3B7F     		ldrb	r3, [r7, #28]	@ zero_extendqisi2
 3442 0244 354A     		ldr	r2, .L271+44
 3443 0246 D35C     		ldrb	r3, [r2, r3]	@ zero_extendqisi2
 3444 0248 1846     		mov	r0, r3
 3445 024a FFF7FEFF 		bl	UART_3_PutChar
 520:printer.c     ****         for(uint8 x = 0; x < 22; x ++){
 3446              		.loc 1 520 0 discriminator 3
 3447 024e 3B7F     		ldrb	r3, [r7, #28]	@ zero_extendqisi2
 3448 0250 0133     		adds	r3, r3, #1
 3449 0252 3B77     		strb	r3, [r7, #28]
 3450              	.L230:
 520:printer.c     ****         for(uint8 x = 0; x < 22; x ++){
 3451              		.loc 1 520 0 is_stmt 0 discriminator 1
 3452 0254 3B7F     		ldrb	r3, [r7, #28]	@ zero_extendqisi2
 3453 0256 152B     		cmp	r3, #21
 3454 0258 F3D9     		bls	.L231
 3455              	.LBE103:
 522:printer.c     ****         }
 523:printer.c     ****         UART_3_PutChar(LINE_FEED);
 3456              		.loc 1 523 0 is_stmt 1
 3457 025a 274B     		ldr	r3, .L271+8
 3458 025c 1B78     		ldrb	r3, [r3]	@ zero_extendqisi2
 3459 025e 1846     		mov	r0, r3
 3460 0260 FFF7FEFF 		bl	UART_3_PutChar
 3461              	.LBB104:
 524:printer.c     ****         for(uint8 x = 0; x < 22; x ++){
 3462              		.loc 1 524 0
 3463 0264 0023     		movs	r3, #0
 3464 0266 FB76     		strb	r3, [r7, #27]
 3465 0268 08E0     		b	.L232
 3466              	.L233:
 525:printer.c     ****             UART_3_PutChar(msn_EDS3[x]);
 3467              		.loc 1 525 0 discriminator 3
 3468 026a FB7E     		ldrb	r3, [r7, #27]	@ zero_extendqisi2
 3469 026c 2C4A     		ldr	r2, .L271+48
 3470 026e D35C     		ldrb	r3, [r2, r3]	@ zero_extendqisi2
 3471 0270 1846     		mov	r0, r3
 3472 0272 FFF7FEFF 		bl	UART_3_PutChar
 524:printer.c     ****         for(uint8 x = 0; x < 22; x ++){
 3473              		.loc 1 524 0 discriminator 3
 3474 0276 FB7E     		ldrb	r3, [r7, #27]	@ zero_extendqisi2
 3475 0278 0133     		adds	r3, r3, #1
 3476 027a FB76     		strb	r3, [r7, #27]
 3477              	.L232:
 524:printer.c     ****         for(uint8 x = 0; x < 22; x ++){
 3478              		.loc 1 524 0 is_stmt 0 discriminator 1
 3479 027c FB7E     		ldrb	r3, [r7, #27]	@ zero_extendqisi2
ARM GAS  C:\Users\Lenovo\AppData\Local\Temp\ccXim33P.s 			page 77


 3480 027e 152B     		cmp	r3, #21
 3481 0280 F3D9     		bls	.L233
 3482              	.LBE104:
 526:printer.c     ****         }                                 // Encabezado de estacin
 527:printer.c     ****         UART_3_PutChar(LINE_FEED);
 3483              		.loc 1 527 0 is_stmt 1
 3484 0282 1D4B     		ldr	r3, .L271+8
 3485 0284 1B78     		ldrb	r3, [r3]	@ zero_extendqisi2
 3486 0286 1846     		mov	r0, r3
 3487 0288 FFF7FEFF 		bl	UART_3_PutChar
 3488              	.LBB105:
 528:printer.c     ****         for(uint8 x = 0; x < 22; x ++){
 3489              		.loc 1 528 0
 3490 028c 0023     		movs	r3, #0
 3491 028e BB76     		strb	r3, [r7, #26]
 3492 0290 08E0     		b	.L234
 3493              	.L235:
 529:printer.c     ****             UART_3_PutChar(msn_EDS2[x]);
 3494              		.loc 1 529 0 discriminator 3
 3495 0292 BB7E     		ldrb	r3, [r7, #26]	@ zero_extendqisi2
 3496 0294 234A     		ldr	r2, .L271+52
 3497 0296 D35C     		ldrb	r3, [r2, r3]	@ zero_extendqisi2
 3498 0298 1846     		mov	r0, r3
 3499 029a FFF7FEFF 		bl	UART_3_PutChar
 528:printer.c     ****         for(uint8 x = 0; x < 22; x ++){
 3500              		.loc 1 528 0 discriminator 3
 3501 029e BB7E     		ldrb	r3, [r7, #26]	@ zero_extendqisi2
 3502 02a0 0133     		adds	r3, r3, #1
 3503 02a2 BB76     		strb	r3, [r7, #26]
 3504              	.L234:
 528:printer.c     ****         for(uint8 x = 0; x < 22; x ++){
 3505              		.loc 1 528 0 is_stmt 0 discriminator 1
 3506 02a4 BB7E     		ldrb	r3, [r7, #26]	@ zero_extendqisi2
 3507 02a6 152B     		cmp	r3, #21
 3508 02a8 F3D9     		bls	.L235
 3509              	.LBE105:
 530:printer.c     ****         }
 531:printer.c     ****         UART_3_PutChar(LINE_FEED);
 3510              		.loc 1 531 0 is_stmt 1
 3511 02aa 134B     		ldr	r3, .L271+8
 3512 02ac 1B78     		ldrb	r3, [r3]	@ zero_extendqisi2
 3513 02ae 1846     		mov	r0, r3
 3514 02b0 FFF7FEFF 		bl	UART_3_PutChar
 3515              	.LBB106:
 532:printer.c     ****         for(uint8 x = 0; x < 22; x ++){
 3516              		.loc 1 532 0
 3517 02b4 0023     		movs	r3, #0
 3518 02b6 7B76     		strb	r3, [r7, #25]
 3519 02b8 08E0     		b	.L236
 3520              	.L237:
 533:printer.c     ****             UART_3_PutChar(msn_EDS[x]);
 3521              		.loc 1 533 0 discriminator 3
 3522 02ba 7B7E     		ldrb	r3, [r7, #25]	@ zero_extendqisi2
 3523 02bc 1A4A     		ldr	r2, .L271+56
 3524 02be D35C     		ldrb	r3, [r2, r3]	@ zero_extendqisi2
 3525 02c0 1846     		mov	r0, r3
 3526 02c2 FFF7FEFF 		bl	UART_3_PutChar
ARM GAS  C:\Users\Lenovo\AppData\Local\Temp\ccXim33P.s 			page 78


 532:printer.c     ****         for(uint8 x = 0; x < 22; x ++){
 3527              		.loc 1 532 0 discriminator 3
 3528 02c6 7B7E     		ldrb	r3, [r7, #25]	@ zero_extendqisi2
 3529 02c8 0133     		adds	r3, r3, #1
 3530 02ca 7B76     		strb	r3, [r7, #25]
 3531              	.L236:
 532:printer.c     ****         for(uint8 x = 0; x < 22; x ++){
 3532              		.loc 1 532 0 is_stmt 0 discriminator 1
 3533 02cc 7B7E     		ldrb	r3, [r7, #25]	@ zero_extendqisi2
 3534 02ce 152B     		cmp	r3, #21
 3535 02d0 F3D9     		bls	.L237
 3536              	.LBE106:
 534:printer.c     ****         }
 535:printer.c     ****         UART_3_PutChar(LINE_FEED);   
 3537              		.loc 1 535 0 is_stmt 1
 3538 02d2 094B     		ldr	r3, .L271+8
 3539 02d4 1B78     		ldrb	r3, [r3]	@ zero_extendqisi2
 3540 02d6 1846     		mov	r0, r3
 3541 02d8 FFF7FEFF 		bl	UART_3_PutChar
 3542              	.L206:
 536:printer.c     ****     }
 537:printer.c     ****     if(address == side.b.dir){
 3543              		.loc 1 537 0
 3544 02dc 044B     		ldr	r3, .L271
 3545 02de 93F82331 		ldrb	r3, [r3, #291]	@ zero_extendqisi2
 3546 02e2 FA79     		ldrb	r2, [r7, #7]	@ zero_extendqisi2
 3547 02e4 9A42     		cmp	r2, r3
 3548 02e6 40F05981 		bne	.L270
 3549              	.LBB107:
 538:printer.c     ****         for(uint8 x = 0; x < 22; x ++){
 3550              		.loc 1 538 0
 3551 02ea 0023     		movs	r3, #0
 3552 02ec 3B76     		strb	r3, [r7, #24]
 3553 02ee 26E0     		b	.L239
 3554              	.L272:
 3555              		.align	2
 3556              	.L271:
 3557 02f0 00000000 		.word	side
 3558 02f4 00000000 		.word	msn_footer2
 3559 02f8 00000000 		.word	LINE_FEED
 3560 02fc 00000000 		.word	msn_footer
 3561 0300 00000000 		.word	SEPARATOR
 3562 0304 00000000 		.word	msn_voltot
 3563 0308 00000000 		.word	DecVol
 3564 030c 00000000 		.word	msn_pos
 3565 0310 00000000 		.word	msn_cierre
 3566 0314 00000000 		.word	msn_hora
 3567 0318 00000000 		.word	msn_fecha
 3568 031c 00000000 		.word	msn_EDS4
 3569 0320 00000000 		.word	msn_EDS3
 3570 0324 00000000 		.word	msn_EDS2
 3571 0328 00000000 		.word	msn_EDS
 3572              	.L240:
 539:printer.c     ****             UART_3_PutChar(msn_footer2[x]);
 3573              		.loc 1 539 0 discriminator 3
 3574 032c 3B7E     		ldrb	r3, [r7, #24]	@ zero_extendqisi2
 3575 032e 9D4A     		ldr	r2, .L273
ARM GAS  C:\Users\Lenovo\AppData\Local\Temp\ccXim33P.s 			page 79


 3576 0330 D35C     		ldrb	r3, [r2, r3]	@ zero_extendqisi2
 3577 0332 1846     		mov	r0, r3
 3578 0334 FFF7FEFF 		bl	UART_3_PutChar
 538:printer.c     ****         for(uint8 x = 0; x < 22; x ++){
 3579              		.loc 1 538 0 discriminator 3
 3580 0338 3B7E     		ldrb	r3, [r7, #24]	@ zero_extendqisi2
 3581 033a 0133     		adds	r3, r3, #1
 3582 033c 3B76     		strb	r3, [r7, #24]
 3583              	.L239:
 538:printer.c     ****         for(uint8 x = 0; x < 22; x ++){
 3584              		.loc 1 538 0 is_stmt 0 discriminator 1
 3585 033e 3B7E     		ldrb	r3, [r7, #24]	@ zero_extendqisi2
 3586 0340 152B     		cmp	r3, #21
 3587 0342 F3D9     		bls	.L240
 3588              	.LBE107:
 540:printer.c     ****         }
 541:printer.c     ****         UART_3_PutChar(LINE_FEED);
 3589              		.loc 1 541 0 is_stmt 1
 3590 0344 984B     		ldr	r3, .L273+4
 3591 0346 1B78     		ldrb	r3, [r3]	@ zero_extendqisi2
 3592 0348 1846     		mov	r0, r3
 3593 034a FFF7FEFF 		bl	UART_3_PutChar
 3594              	.LBB108:
 542:printer.c     ****         for(uint8 x = 0; x < 22; x ++){
 3595              		.loc 1 542 0
 3596 034e 0023     		movs	r3, #0
 3597 0350 FB75     		strb	r3, [r7, #23]
 3598 0352 08E0     		b	.L241
 3599              	.L242:
 543:printer.c     ****             UART_3_PutChar(msn_footer[x]);
 3600              		.loc 1 543 0 discriminator 3
 3601 0354 FB7D     		ldrb	r3, [r7, #23]	@ zero_extendqisi2
 3602 0356 954A     		ldr	r2, .L273+8
 3603 0358 D35C     		ldrb	r3, [r2, r3]	@ zero_extendqisi2
 3604 035a 1846     		mov	r0, r3
 3605 035c FFF7FEFF 		bl	UART_3_PutChar
 542:printer.c     ****         for(uint8 x = 0; x < 22; x ++){
 3606              		.loc 1 542 0 discriminator 3
 3607 0360 FB7D     		ldrb	r3, [r7, #23]	@ zero_extendqisi2
 3608 0362 0133     		adds	r3, r3, #1
 3609 0364 FB75     		strb	r3, [r7, #23]
 3610              	.L241:
 542:printer.c     ****         for(uint8 x = 0; x < 22; x ++){
 3611              		.loc 1 542 0 is_stmt 0 discriminator 1
 3612 0366 FB7D     		ldrb	r3, [r7, #23]	@ zero_extendqisi2
 3613 0368 152B     		cmp	r3, #21
 3614 036a F3D9     		bls	.L242
 3615              	.LBE108:
 544:printer.c     ****         }
 545:printer.c     ****         UART_3_PutChar(LINE_FEED);
 3616              		.loc 1 545 0 is_stmt 1
 3617 036c 8E4B     		ldr	r3, .L273+4
 3618 036e 1B78     		ldrb	r3, [r3]	@ zero_extendqisi2
 3619 0370 1846     		mov	r0, r3
 3620 0372 FFF7FEFF 		bl	UART_3_PutChar
 3621              	.LBB109:
 546:printer.c     ****         for(uint8 x = 0; x < 24; x ++){
ARM GAS  C:\Users\Lenovo\AppData\Local\Temp\ccXim33P.s 			page 80


 3622              		.loc 1 546 0
 3623 0376 0023     		movs	r3, #0
 3624 0378 BB75     		strb	r3, [r7, #22]
 3625 037a 08E0     		b	.L243
 3626              	.L244:
 547:printer.c     ****             UART_3_PutChar(SEPARATOR[x]);
 3627              		.loc 1 547 0 discriminator 3
 3628 037c BB7D     		ldrb	r3, [r7, #22]	@ zero_extendqisi2
 3629 037e 8C4A     		ldr	r2, .L273+12
 3630 0380 D35C     		ldrb	r3, [r2, r3]	@ zero_extendqisi2
 3631 0382 1846     		mov	r0, r3
 3632 0384 FFF7FEFF 		bl	UART_3_PutChar
 546:printer.c     ****         for(uint8 x = 0; x < 24; x ++){
 3633              		.loc 1 546 0 discriminator 3
 3634 0388 BB7D     		ldrb	r3, [r7, #22]	@ zero_extendqisi2
 3635 038a 0133     		adds	r3, r3, #1
 3636 038c BB75     		strb	r3, [r7, #22]
 3637              	.L243:
 546:printer.c     ****         for(uint8 x = 0; x < 24; x ++){
 3638              		.loc 1 546 0 is_stmt 0 discriminator 1
 3639 038e BB7D     		ldrb	r3, [r7, #22]	@ zero_extendqisi2
 3640 0390 172B     		cmp	r3, #23
 3641 0392 F3D9     		bls	.L244
 3642              	.LBE109:
 548:printer.c     ****         }
 549:printer.c     ****         UART_3_PutChar(LINE_FEED);
 3643              		.loc 1 549 0 is_stmt 1
 3644 0394 844B     		ldr	r3, .L273+4
 3645 0396 1B78     		ldrb	r3, [r3]	@ zero_extendqisi2
 3646 0398 1846     		mov	r0, r3
 3647 039a FFF7FEFF 		bl	UART_3_PutChar
 3648              	.LBB110:
 550:printer.c     ****         for(uint8 x = 0; x < 13; x ++){
 3649              		.loc 1 550 0
 3650 039e 0023     		movs	r3, #0
 3651 03a0 7B75     		strb	r3, [r7, #21]
 3652 03a2 08E0     		b	.L245
 3653              	.L246:
 551:printer.c     ****             UART_3_PutChar(msn_voltot[x]);
 3654              		.loc 1 551 0 discriminator 3
 3655 03a4 7B7D     		ldrb	r3, [r7, #21]	@ zero_extendqisi2
 3656 03a6 834A     		ldr	r2, .L273+16
 3657 03a8 D35C     		ldrb	r3, [r2, r3]	@ zero_extendqisi2
 3658 03aa 1846     		mov	r0, r3
 3659 03ac FFF7FEFF 		bl	UART_3_PutChar
 550:printer.c     ****         for(uint8 x = 0; x < 13; x ++){
 3660              		.loc 1 550 0 discriminator 3
 3661 03b0 7B7D     		ldrb	r3, [r7, #21]	@ zero_extendqisi2
 3662 03b2 0133     		adds	r3, r3, #1
 3663 03b4 7B75     		strb	r3, [r7, #21]
 3664              	.L245:
 550:printer.c     ****         for(uint8 x = 0; x < 13; x ++){
 3665              		.loc 1 550 0 is_stmt 0 discriminator 1
 3666 03b6 7B7D     		ldrb	r3, [r7, #21]	@ zero_extendqisi2
 3667 03b8 0C2B     		cmp	r3, #12
 3668 03ba F3D9     		bls	.L246
 3669              	.LBE110:
ARM GAS  C:\Users\Lenovo\AppData\Local\Temp\ccXim33P.s 			page 81


 3670              	.LBB111:
 552:printer.c     ****         }
 553:printer.c     ****         for(uint8 x = 2; x < 10; x ++){ //recorta los dos primeros datos de totales
 3671              		.loc 1 553 0 is_stmt 1
 3672 03bc 0223     		movs	r3, #2
 3673 03be 3B75     		strb	r3, [r7, #20]
 3674 03c0 14E0     		b	.L247
 3675              	.L249:
 554:printer.c     ****             if((10-x) == DecVol)
 3676              		.loc 1 554 0
 3677 03c2 3B7D     		ldrb	r3, [r7, #20]	@ zero_extendqisi2
 3678 03c4 C3F10A03 		rsb	r3, r3, #10
 3679 03c8 7B4A     		ldr	r2, .L273+20
 3680 03ca 1278     		ldrb	r2, [r2]	@ zero_extendqisi2
 3681 03cc 9342     		cmp	r3, r2
 3682 03ce 02D1     		bne	.L248
 555:printer.c     ****                 UART_3_PutChar('.');
 3683              		.loc 1 555 0
 3684 03d0 2E20     		movs	r0, #46
 3685 03d2 FFF7FEFF 		bl	UART_3_PutChar
 3686              	.L248:
 556:printer.c     ****             UART_3_PutChar(side.b.ProcessedTotals[0][0][x]);
 3687              		.loc 1 556 0 discriminator 2
 3688 03d6 3B7D     		ldrb	r3, [r7, #20]	@ zero_extendqisi2
 3689 03d8 784A     		ldr	r2, .L273+24
 3690 03da 1344     		add	r3, r3, r2
 3691 03dc 93F8A631 		ldrb	r3, [r3, #422]	@ zero_extendqisi2
 3692 03e0 1846     		mov	r0, r3
 3693 03e2 FFF7FEFF 		bl	UART_3_PutChar
 553:printer.c     ****             if((10-x) == DecVol)
 3694              		.loc 1 553 0 discriminator 2
 3695 03e6 3B7D     		ldrb	r3, [r7, #20]	@ zero_extendqisi2
 3696 03e8 0133     		adds	r3, r3, #1
 3697 03ea 3B75     		strb	r3, [r7, #20]
 3698              	.L247:
 553:printer.c     ****             if((10-x) == DecVol)
 3699              		.loc 1 553 0 is_stmt 0 discriminator 1
 3700 03ec 3B7D     		ldrb	r3, [r7, #20]	@ zero_extendqisi2
 3701 03ee 092B     		cmp	r3, #9
 3702 03f0 E7D9     		bls	.L249
 3703              	.LBE111:
 557:printer.c     ****         }
 558:printer.c     ****         UART_3_PutChar(LINE_FEED);
 3704              		.loc 1 558 0 is_stmt 1
 3705 03f2 6D4B     		ldr	r3, .L273+4
 3706 03f4 1B78     		ldrb	r3, [r3]	@ zero_extendqisi2
 3707 03f6 1846     		mov	r0, r3
 3708 03f8 FFF7FEFF 		bl	UART_3_PutChar
 3709              	.LBB112:
 559:printer.c     ****         for(uint8 x = 0; x < 13; x ++){
 3710              		.loc 1 559 0
 3711 03fc 0023     		movs	r3, #0
 3712 03fe FB74     		strb	r3, [r7, #19]
 3713 0400 08E0     		b	.L250
 3714              	.L251:
 560:printer.c     ****             UART_3_PutChar(msn_pos[x]);
 3715              		.loc 1 560 0 discriminator 3
ARM GAS  C:\Users\Lenovo\AppData\Local\Temp\ccXim33P.s 			page 82


 3716 0402 FB7C     		ldrb	r3, [r7, #19]	@ zero_extendqisi2
 3717 0404 6E4A     		ldr	r2, .L273+28
 3718 0406 D35C     		ldrb	r3, [r2, r3]	@ zero_extendqisi2
 3719 0408 1846     		mov	r0, r3
 3720 040a FFF7FEFF 		bl	UART_3_PutChar
 559:printer.c     ****         for(uint8 x = 0; x < 13; x ++){
 3721              		.loc 1 559 0 discriminator 3
 3722 040e FB7C     		ldrb	r3, [r7, #19]	@ zero_extendqisi2
 3723 0410 0133     		adds	r3, r3, #1
 3724 0412 FB74     		strb	r3, [r7, #19]
 3725              	.L250:
 559:printer.c     ****         for(uint8 x = 0; x < 13; x ++){
 3726              		.loc 1 559 0 is_stmt 0 discriminator 1
 3727 0414 FB7C     		ldrb	r3, [r7, #19]	@ zero_extendqisi2
 3728 0416 0C2B     		cmp	r3, #12
 3729 0418 F3D9     		bls	.L251
 3730              	.LBE112:
 561:printer.c     ****         }
 562:printer.c     ****         UART_3_PutChar((side.b.dir)+ 0x31);
 3731              		.loc 1 562 0 is_stmt 1
 3732 041a 684B     		ldr	r3, .L273+24
 3733 041c 93F82331 		ldrb	r3, [r3, #291]	@ zero_extendqisi2
 3734 0420 3133     		adds	r3, r3, #49
 3735 0422 DBB2     		uxtb	r3, r3
 3736 0424 1846     		mov	r0, r3
 3737 0426 FFF7FEFF 		bl	UART_3_PutChar
 563:printer.c     ****         UART_3_PutChar(LINE_FEED);
 3738              		.loc 1 563 0
 3739 042a 5F4B     		ldr	r3, .L273+4
 3740 042c 1B78     		ldrb	r3, [r3]	@ zero_extendqisi2
 3741 042e 1846     		mov	r0, r3
 3742 0430 FFF7FEFF 		bl	UART_3_PutChar
 3743              	.LBB113:
 564:printer.c     ****         for(uint8 x = 0; x < 13; x ++){
 3744              		.loc 1 564 0
 3745 0434 0023     		movs	r3, #0
 3746 0436 BB74     		strb	r3, [r7, #18]
 3747 0438 08E0     		b	.L252
 3748              	.L253:
 565:printer.c     ****             UART_3_PutChar(msn_cierre[x]);
 3749              		.loc 1 565 0 discriminator 3
 3750 043a BB7C     		ldrb	r3, [r7, #18]	@ zero_extendqisi2
 3751 043c 614A     		ldr	r2, .L273+32
 3752 043e D35C     		ldrb	r3, [r2, r3]	@ zero_extendqisi2
 3753 0440 1846     		mov	r0, r3
 3754 0442 FFF7FEFF 		bl	UART_3_PutChar
 564:printer.c     ****         for(uint8 x = 0; x < 13; x ++){
 3755              		.loc 1 564 0 discriminator 3
 3756 0446 BB7C     		ldrb	r3, [r7, #18]	@ zero_extendqisi2
 3757 0448 0133     		adds	r3, r3, #1
 3758 044a BB74     		strb	r3, [r7, #18]
 3759              	.L252:
 564:printer.c     ****         for(uint8 x = 0; x < 13; x ++){
 3760              		.loc 1 564 0 is_stmt 0 discriminator 1
 3761 044c BB7C     		ldrb	r3, [r7, #18]	@ zero_extendqisi2
 3762 044e 0C2B     		cmp	r3, #12
 3763 0450 F3D9     		bls	.L253
ARM GAS  C:\Users\Lenovo\AppData\Local\Temp\ccXim33P.s 			page 83


 3764              	.LBE113:
 566:printer.c     ****         }        
 567:printer.c     ****         ///////////////////////////////////////////////
 568:printer.c     ****         UART_3_PutChar(LINE_FEED);
 3765              		.loc 1 568 0 is_stmt 1
 3766 0452 554B     		ldr	r3, .L273+4
 3767 0454 1B78     		ldrb	r3, [r3]	@ zero_extendqisi2
 3768 0456 1846     		mov	r0, r3
 3769 0458 FFF7FEFF 		bl	UART_3_PutChar
 3770              	.LBB114:
 569:printer.c     ****         for(uint8 x = 0; x < 24; x ++){
 3771              		.loc 1 569 0
 3772 045c 0023     		movs	r3, #0
 3773 045e 7B74     		strb	r3, [r7, #17]
 3774 0460 08E0     		b	.L254
 3775              	.L255:
 570:printer.c     ****             UART_3_PutChar(SEPARATOR[x]);
 3776              		.loc 1 570 0 discriminator 3
 3777 0462 7B7C     		ldrb	r3, [r7, #17]	@ zero_extendqisi2
 3778 0464 524A     		ldr	r2, .L273+12
 3779 0466 D35C     		ldrb	r3, [r2, r3]	@ zero_extendqisi2
 3780 0468 1846     		mov	r0, r3
 3781 046a FFF7FEFF 		bl	UART_3_PutChar
 569:printer.c     ****         for(uint8 x = 0; x < 24; x ++){
 3782              		.loc 1 569 0 discriminator 3
 3783 046e 7B7C     		ldrb	r3, [r7, #17]	@ zero_extendqisi2
 3784 0470 0133     		adds	r3, r3, #1
 3785 0472 7B74     		strb	r3, [r7, #17]
 3786              	.L254:
 569:printer.c     ****         for(uint8 x = 0; x < 24; x ++){
 3787              		.loc 1 569 0 is_stmt 0 discriminator 1
 3788 0474 7B7C     		ldrb	r3, [r7, #17]	@ zero_extendqisi2
 3789 0476 172B     		cmp	r3, #23
 3790 0478 F3D9     		bls	.L255
 3791              	.LBE114:
 571:printer.c     ****         }    
 572:printer.c     ****         UART_3_PutChar(LINE_FEED);
 3792              		.loc 1 572 0 is_stmt 1
 3793 047a 4B4B     		ldr	r3, .L273+4
 3794 047c 1B78     		ldrb	r3, [r3]	@ zero_extendqisi2
 3795 047e 1846     		mov	r0, r3
 3796 0480 FFF7FEFF 		bl	UART_3_PutChar
 3797              	.LBB115:
 573:printer.c     ****         for(uint8 x = 0; x < 13; x ++){
 3798              		.loc 1 573 0
 3799 0484 0023     		movs	r3, #0
 3800 0486 3B74     		strb	r3, [r7, #16]
 3801 0488 08E0     		b	.L256
 3802              	.L257:
 574:printer.c     ****             UART_3_PutChar(msn_hora[x]);
 3803              		.loc 1 574 0 discriminator 3
 3804 048a 3B7C     		ldrb	r3, [r7, #16]	@ zero_extendqisi2
 3805 048c 4E4A     		ldr	r2, .L273+36
 3806 048e D35C     		ldrb	r3, [r2, r3]	@ zero_extendqisi2
 3807 0490 1846     		mov	r0, r3
 3808 0492 FFF7FEFF 		bl	UART_3_PutChar
 573:printer.c     ****         for(uint8 x = 0; x < 13; x ++){
ARM GAS  C:\Users\Lenovo\AppData\Local\Temp\ccXim33P.s 			page 84


 3809              		.loc 1 573 0 discriminator 3
 3810 0496 3B7C     		ldrb	r3, [r7, #16]	@ zero_extendqisi2
 3811 0498 0133     		adds	r3, r3, #1
 3812 049a 3B74     		strb	r3, [r7, #16]
 3813              	.L256:
 573:printer.c     ****         for(uint8 x = 0; x < 13; x ++){
 3814              		.loc 1 573 0 is_stmt 0 discriminator 1
 3815 049c 3B7C     		ldrb	r3, [r7, #16]	@ zero_extendqisi2
 3816 049e 0C2B     		cmp	r3, #12
 3817 04a0 F3D9     		bls	.L257
 3818              	.LBE115:
 575:printer.c     ****         }                                 //Hora y Fecha
 576:printer.c     ****         UART_3_PutChar(LINE_FEED);
 3819              		.loc 1 576 0 is_stmt 1
 3820 04a2 414B     		ldr	r3, .L273+4
 3821 04a4 1B78     		ldrb	r3, [r3]	@ zero_extendqisi2
 3822 04a6 1846     		mov	r0, r3
 3823 04a8 FFF7FEFF 		bl	UART_3_PutChar
 3824              	.LBB116:
 577:printer.c     ****         for(uint8 x = 0; x < 13; x ++){
 3825              		.loc 1 577 0
 3826 04ac 0023     		movs	r3, #0
 3827 04ae FB73     		strb	r3, [r7, #15]
 3828 04b0 08E0     		b	.L258
 3829              	.L259:
 578:printer.c     ****             UART_3_PutChar(msn_fecha[x]);
 3830              		.loc 1 578 0 discriminator 3
 3831 04b2 FB7B     		ldrb	r3, [r7, #15]	@ zero_extendqisi2
 3832 04b4 454A     		ldr	r2, .L273+40
 3833 04b6 D35C     		ldrb	r3, [r2, r3]	@ zero_extendqisi2
 3834 04b8 1846     		mov	r0, r3
 3835 04ba FFF7FEFF 		bl	UART_3_PutChar
 577:printer.c     ****         for(uint8 x = 0; x < 13; x ++){
 3836              		.loc 1 577 0 discriminator 3
 3837 04be FB7B     		ldrb	r3, [r7, #15]	@ zero_extendqisi2
 3838 04c0 0133     		adds	r3, r3, #1
 3839 04c2 FB73     		strb	r3, [r7, #15]
 3840              	.L258:
 577:printer.c     ****         for(uint8 x = 0; x < 13; x ++){
 3841              		.loc 1 577 0 is_stmt 0 discriminator 1
 3842 04c4 FB7B     		ldrb	r3, [r7, #15]	@ zero_extendqisi2
 3843 04c6 0C2B     		cmp	r3, #12
 3844 04c8 F3D9     		bls	.L259
 3845              	.LBE116:
 579:printer.c     ****         }
 580:printer.c     ****         ///////////////////////////////////////////////        
 581:printer.c     ****         UART_3_PutChar(LINE_FEED);
 3846              		.loc 1 581 0 is_stmt 1
 3847 04ca 374B     		ldr	r3, .L273+4
 3848 04cc 1B78     		ldrb	r3, [r3]	@ zero_extendqisi2
 3849 04ce 1846     		mov	r0, r3
 3850 04d0 FFF7FEFF 		bl	UART_3_PutChar
 3851              	.LBB117:
 582:printer.c     ****         for(uint8 x = 0; x < 24; x ++){
 3852              		.loc 1 582 0
 3853 04d4 0023     		movs	r3, #0
 3854 04d6 BB73     		strb	r3, [r7, #14]
ARM GAS  C:\Users\Lenovo\AppData\Local\Temp\ccXim33P.s 			page 85


 3855 04d8 08E0     		b	.L260
 3856              	.L261:
 583:printer.c     ****             UART_3_PutChar(SEPARATOR[x]); //Separador de seccin
 3857              		.loc 1 583 0 discriminator 3
 3858 04da BB7B     		ldrb	r3, [r7, #14]	@ zero_extendqisi2
 3859 04dc 344A     		ldr	r2, .L273+12
 3860 04de D35C     		ldrb	r3, [r2, r3]	@ zero_extendqisi2
 3861 04e0 1846     		mov	r0, r3
 3862 04e2 FFF7FEFF 		bl	UART_3_PutChar
 582:printer.c     ****         for(uint8 x = 0; x < 24; x ++){
 3863              		.loc 1 582 0 discriminator 3
 3864 04e6 BB7B     		ldrb	r3, [r7, #14]	@ zero_extendqisi2
 3865 04e8 0133     		adds	r3, r3, #1
 3866 04ea BB73     		strb	r3, [r7, #14]
 3867              	.L260:
 582:printer.c     ****         for(uint8 x = 0; x < 24; x ++){
 3868              		.loc 1 582 0 is_stmt 0 discriminator 1
 3869 04ec BB7B     		ldrb	r3, [r7, #14]	@ zero_extendqisi2
 3870 04ee 172B     		cmp	r3, #23
 3871 04f0 F3D9     		bls	.L261
 3872              	.LBE117:
 584:printer.c     ****         }
 585:printer.c     ****         UART_3_PutChar(LINE_FEED);
 3873              		.loc 1 585 0 is_stmt 1
 3874 04f2 2D4B     		ldr	r3, .L273+4
 3875 04f4 1B78     		ldrb	r3, [r3]	@ zero_extendqisi2
 3876 04f6 1846     		mov	r0, r3
 3877 04f8 FFF7FEFF 		bl	UART_3_PutChar
 3878              	.LBB118:
 586:printer.c     ****         for(uint8 x = 0; x < 22; x ++){
 3879              		.loc 1 586 0
 3880 04fc 0023     		movs	r3, #0
 3881 04fe 7B73     		strb	r3, [r7, #13]
 3882 0500 08E0     		b	.L262
 3883              	.L263:
 587:printer.c     ****             UART_3_PutChar(msn_EDS4[x]);
 3884              		.loc 1 587 0 discriminator 3
 3885 0502 7B7B     		ldrb	r3, [r7, #13]	@ zero_extendqisi2
 3886 0504 324A     		ldr	r2, .L273+44
 3887 0506 D35C     		ldrb	r3, [r2, r3]	@ zero_extendqisi2
 3888 0508 1846     		mov	r0, r3
 3889 050a FFF7FEFF 		bl	UART_3_PutChar
 586:printer.c     ****         for(uint8 x = 0; x < 22; x ++){
 3890              		.loc 1 586 0 discriminator 3
 3891 050e 7B7B     		ldrb	r3, [r7, #13]	@ zero_extendqisi2
 3892 0510 0133     		adds	r3, r3, #1
 3893 0512 7B73     		strb	r3, [r7, #13]
 3894              	.L262:
 586:printer.c     ****         for(uint8 x = 0; x < 22; x ++){
 3895              		.loc 1 586 0 is_stmt 0 discriminator 1
 3896 0514 7B7B     		ldrb	r3, [r7, #13]	@ zero_extendqisi2
 3897 0516 152B     		cmp	r3, #21
 3898 0518 F3D9     		bls	.L263
 3899              	.LBE118:
 588:printer.c     ****         }
 589:printer.c     ****         UART_3_PutChar(LINE_FEED);
 3900              		.loc 1 589 0 is_stmt 1
ARM GAS  C:\Users\Lenovo\AppData\Local\Temp\ccXim33P.s 			page 86


 3901 051a 234B     		ldr	r3, .L273+4
 3902 051c 1B78     		ldrb	r3, [r3]	@ zero_extendqisi2
 3903 051e 1846     		mov	r0, r3
 3904 0520 FFF7FEFF 		bl	UART_3_PutChar
 3905              	.LBB119:
 590:printer.c     ****         for(uint8 x = 0; x < 22; x ++){
 3906              		.loc 1 590 0
 3907 0524 0023     		movs	r3, #0
 3908 0526 3B73     		strb	r3, [r7, #12]
 3909 0528 08E0     		b	.L264
 3910              	.L265:
 591:printer.c     ****             UART_3_PutChar(msn_EDS3[x]);
 3911              		.loc 1 591 0 discriminator 3
 3912 052a 3B7B     		ldrb	r3, [r7, #12]	@ zero_extendqisi2
 3913 052c 294A     		ldr	r2, .L273+48
 3914 052e D35C     		ldrb	r3, [r2, r3]	@ zero_extendqisi2
 3915 0530 1846     		mov	r0, r3
 3916 0532 FFF7FEFF 		bl	UART_3_PutChar
 590:printer.c     ****         for(uint8 x = 0; x < 22; x ++){
 3917              		.loc 1 590 0 discriminator 3
 3918 0536 3B7B     		ldrb	r3, [r7, #12]	@ zero_extendqisi2
 3919 0538 0133     		adds	r3, r3, #1
 3920 053a 3B73     		strb	r3, [r7, #12]
 3921              	.L264:
 590:printer.c     ****         for(uint8 x = 0; x < 22; x ++){
 3922              		.loc 1 590 0 is_stmt 0 discriminator 1
 3923 053c 3B7B     		ldrb	r3, [r7, #12]	@ zero_extendqisi2
 3924 053e 152B     		cmp	r3, #21
 3925 0540 F3D9     		bls	.L265
 3926              	.LBE119:
 592:printer.c     ****         }                                 // Encabezado de estacin
 593:printer.c     ****         UART_3_PutChar(LINE_FEED);
 3927              		.loc 1 593 0 is_stmt 1
 3928 0542 194B     		ldr	r3, .L273+4
 3929 0544 1B78     		ldrb	r3, [r3]	@ zero_extendqisi2
 3930 0546 1846     		mov	r0, r3
 3931 0548 FFF7FEFF 		bl	UART_3_PutChar
 3932              	.LBB120:
 594:printer.c     ****         for(uint8 x = 0; x < 22; x ++){
 3933              		.loc 1 594 0
 3934 054c 0023     		movs	r3, #0
 3935 054e FB72     		strb	r3, [r7, #11]
 3936 0550 08E0     		b	.L266
 3937              	.L267:
 595:printer.c     ****             UART_3_PutChar(msn_EDS2[x]);
 3938              		.loc 1 595 0 discriminator 3
 3939 0552 FB7A     		ldrb	r3, [r7, #11]	@ zero_extendqisi2
 3940 0554 204A     		ldr	r2, .L273+52
 3941 0556 D35C     		ldrb	r3, [r2, r3]	@ zero_extendqisi2
 3942 0558 1846     		mov	r0, r3
 3943 055a FFF7FEFF 		bl	UART_3_PutChar
 594:printer.c     ****         for(uint8 x = 0; x < 22; x ++){
 3944              		.loc 1 594 0 discriminator 3
 3945 055e FB7A     		ldrb	r3, [r7, #11]	@ zero_extendqisi2
 3946 0560 0133     		adds	r3, r3, #1
 3947 0562 FB72     		strb	r3, [r7, #11]
 3948              	.L266:
ARM GAS  C:\Users\Lenovo\AppData\Local\Temp\ccXim33P.s 			page 87


 594:printer.c     ****         for(uint8 x = 0; x < 22; x ++){
 3949              		.loc 1 594 0 is_stmt 0 discriminator 1
 3950 0564 FB7A     		ldrb	r3, [r7, #11]	@ zero_extendqisi2
 3951 0566 152B     		cmp	r3, #21
 3952 0568 F3D9     		bls	.L267
 3953              	.LBE120:
 596:printer.c     ****         }
 597:printer.c     ****         UART_3_PutChar(LINE_FEED);
 3954              		.loc 1 597 0 is_stmt 1
 3955 056a 0F4B     		ldr	r3, .L273+4
 3956 056c 1B78     		ldrb	r3, [r3]	@ zero_extendqisi2
 3957 056e 1846     		mov	r0, r3
 3958 0570 FFF7FEFF 		bl	UART_3_PutChar
 3959              	.LBB121:
 598:printer.c     ****         for(uint8 x = 0; x < 22; x ++){
 3960              		.loc 1 598 0
 3961 0574 0023     		movs	r3, #0
 3962 0576 BB72     		strb	r3, [r7, #10]
 3963 0578 08E0     		b	.L268
 3964              	.L269:
 599:printer.c     ****             UART_3_PutChar(msn_EDS[x]);
 3965              		.loc 1 599 0 discriminator 3
 3966 057a BB7A     		ldrb	r3, [r7, #10]	@ zero_extendqisi2
 3967 057c 174A     		ldr	r2, .L273+56
 3968 057e D35C     		ldrb	r3, [r2, r3]	@ zero_extendqisi2
 3969 0580 1846     		mov	r0, r3
 3970 0582 FFF7FEFF 		bl	UART_3_PutChar
 598:printer.c     ****         for(uint8 x = 0; x < 22; x ++){
 3971              		.loc 1 598 0 discriminator 3
 3972 0586 BB7A     		ldrb	r3, [r7, #10]	@ zero_extendqisi2
 3973 0588 0133     		adds	r3, r3, #1
 3974 058a BB72     		strb	r3, [r7, #10]
 3975              	.L268:
 598:printer.c     ****         for(uint8 x = 0; x < 22; x ++){
 3976              		.loc 1 598 0 is_stmt 0 discriminator 1
 3977 058c BB7A     		ldrb	r3, [r7, #10]	@ zero_extendqisi2
 3978 058e 152B     		cmp	r3, #21
 3979 0590 F3D9     		bls	.L269
 3980              	.LBE121:
 600:printer.c     ****         }
 601:printer.c     ****         UART_3_PutChar(LINE_FEED);   
 3981              		.loc 1 601 0 is_stmt 1
 3982 0592 054B     		ldr	r3, .L273+4
 3983 0594 1B78     		ldrb	r3, [r3]	@ zero_extendqisi2
 3984 0596 1846     		mov	r0, r3
 3985 0598 FFF7FEFF 		bl	UART_3_PutChar
 3986              	.L270:
 602:printer.c     ****     }
 603:printer.c     **** }
 3987              		.loc 1 603 0
 3988 059c 00BF     		nop
 3989 059e 2837     		adds	r7, r7, #40
 3990              		.cfi_def_cfa_offset 8
 3991 05a0 BD46     		mov	sp, r7
 3992              		.cfi_def_cfa_register 13
 3993              		@ sp needed
 3994 05a2 80BD     		pop	{r7, pc}
ARM GAS  C:\Users\Lenovo\AppData\Local\Temp\ccXim33P.s 			page 88


 3995              	.L274:
 3996              		.align	2
 3997              	.L273:
 3998 05a4 00000000 		.word	msn_footer2
 3999 05a8 00000000 		.word	LINE_FEED
 4000 05ac 00000000 		.word	msn_footer
 4001 05b0 00000000 		.word	SEPARATOR
 4002 05b4 00000000 		.word	msn_voltot
 4003 05b8 00000000 		.word	DecVol
 4004 05bc 00000000 		.word	side
 4005 05c0 00000000 		.word	msn_pos
 4006 05c4 00000000 		.word	msn_cierre
 4007 05c8 00000000 		.word	msn_hora
 4008 05cc 00000000 		.word	msn_fecha
 4009 05d0 00000000 		.word	msn_EDS4
 4010 05d4 00000000 		.word	msn_EDS3
 4011 05d8 00000000 		.word	msn_EDS2
 4012 05dc 00000000 		.word	msn_EDS
 4013              		.cfi_endproc
 4014              	.LFE64:
 4015              		.size	PrintShift, .-PrintShift
 4016              		.text
 4017              	.Letext0:
 4018              		.file 2 "c:\\program files (x86)\\cypress\\psoc creator\\4.2\\psoc creator\\import\\gnu\\arm\\5.4.
 4019              		.file 3 "c:\\program files (x86)\\cypress\\psoc creator\\4.2\\psoc creator\\import\\gnu\\arm\\5.4.
 4020              		.file 4 "Generated_Source\\PSoC5/cytypes.h"
 4021              		.file 5 "./GVar.h"
 4022              		.file 6 "Generated_Source\\PSoC5/core_cm3.h"
 4023              		.section	.debug_info,"",%progbits
 4024              	.Ldebug_info0:
 4025 0000 FA130000 		.4byte	0x13fa
 4026 0004 0400     		.2byte	0x4
 4027 0006 00000000 		.4byte	.Ldebug_abbrev0
 4028 000a 04       		.byte	0x4
 4029 000b 01       		.uleb128 0x1
 4030 000c 6D000000 		.4byte	.LASF97
 4031 0010 0C       		.byte	0xc
 4032 0011 19040000 		.4byte	.LASF98
 4033 0015 B8030000 		.4byte	.LASF99
 4034 0019 00000000 		.4byte	.Ldebug_ranges0+0
 4035 001d 00000000 		.4byte	0
 4036 0021 00000000 		.4byte	.Ldebug_line0
 4037 0025 02       		.uleb128 0x2
 4038 0026 01       		.byte	0x1
 4039 0027 06       		.byte	0x6
 4040 0028 C3020000 		.4byte	.LASF0
 4041 002c 02       		.uleb128 0x2
 4042 002d 01       		.byte	0x1
 4043 002e 08       		.byte	0x8
 4044 002f 8D020000 		.4byte	.LASF1
 4045 0033 02       		.uleb128 0x2
 4046 0034 02       		.byte	0x2
 4047 0035 05       		.byte	0x5
 4048 0036 41000000 		.4byte	.LASF2
 4049 003a 02       		.uleb128 0x2
 4050 003b 02       		.byte	0x2
 4051 003c 07       		.byte	0x7
ARM GAS  C:\Users\Lenovo\AppData\Local\Temp\ccXim33P.s 			page 89


 4052 003d 5F030000 		.4byte	.LASF3
 4053 0041 03       		.uleb128 0x3
 4054 0042 46040000 		.4byte	.LASF9
 4055 0046 02       		.byte	0x2
 4056 0047 3F       		.byte	0x3f
 4057 0048 4C000000 		.4byte	0x4c
 4058 004c 02       		.uleb128 0x2
 4059 004d 04       		.byte	0x4
 4060 004e 05       		.byte	0x5
 4061 004f D0010000 		.4byte	.LASF4
 4062 0053 02       		.uleb128 0x2
 4063 0054 04       		.byte	0x4
 4064 0055 07       		.byte	0x7
 4065 0056 07040000 		.4byte	.LASF5
 4066 005a 02       		.uleb128 0x2
 4067 005b 08       		.byte	0x8
 4068 005c 05       		.byte	0x5
 4069 005d FB000000 		.4byte	.LASF6
 4070 0061 02       		.uleb128 0x2
 4071 0062 08       		.byte	0x8
 4072 0063 07       		.byte	0x7
 4073 0064 CF020000 		.4byte	.LASF7
 4074 0068 04       		.uleb128 0x4
 4075 0069 04       		.byte	0x4
 4076 006a 05       		.byte	0x5
 4077 006b 696E7400 		.ascii	"int\000"
 4078 006f 02       		.uleb128 0x2
 4079 0070 04       		.byte	0x4
 4080 0071 07       		.byte	0x7
 4081 0072 F4020000 		.4byte	.LASF8
 4082 0076 03       		.uleb128 0x3
 4083 0077 98030000 		.4byte	.LASF10
 4084 007b 03       		.byte	0x3
 4085 007c 2C       		.byte	0x2c
 4086 007d 41000000 		.4byte	0x41
 4087 0081 05       		.uleb128 0x5
 4088 0082 57010000 		.4byte	.LASF11
 4089 0086 04       		.byte	0x4
 4090 0087 E401     		.2byte	0x1e4
 4091 0089 2C000000 		.4byte	0x2c
 4092 008d 05       		.uleb128 0x5
 4093 008e 46010000 		.4byte	.LASF12
 4094 0092 04       		.byte	0x4
 4095 0093 E501     		.2byte	0x1e5
 4096 0095 3A000000 		.4byte	0x3a
 4097 0099 05       		.uleb128 0x5
 4098 009a AD010000 		.4byte	.LASF13
 4099 009e 04       		.byte	0x4
 4100 009f E701     		.2byte	0x1e7
 4101 00a1 25000000 		.4byte	0x25
 4102 00a5 02       		.uleb128 0x2
 4103 00a6 04       		.byte	0x4
 4104 00a7 04       		.byte	0x4
 4105 00a8 95010000 		.4byte	.LASF14
 4106 00ac 02       		.uleb128 0x2
 4107 00ad 08       		.byte	0x8
 4108 00ae 04       		.byte	0x4
ARM GAS  C:\Users\Lenovo\AppData\Local\Temp\ccXim33P.s 			page 90


 4109 00af 9D040000 		.4byte	.LASF15
 4110 00b3 02       		.uleb128 0x2
 4111 00b4 01       		.byte	0x1
 4112 00b5 08       		.byte	0x8
 4113 00b6 8C030000 		.4byte	.LASF16
 4114 00ba 02       		.uleb128 0x2
 4115 00bb 08       		.byte	0x8
 4116 00bc 04       		.byte	0x4
 4117 00bd 75020000 		.4byte	.LASF17
 4118 00c1 02       		.uleb128 0x2
 4119 00c2 04       		.byte	0x4
 4120 00c3 07       		.byte	0x7
 4121 00c4 4B000000 		.4byte	.LASF18
 4122 00c8 06       		.uleb128 0x6
 4123 00c9 09000000 		.4byte	.LASF31
 4124 00cd 2301     		.2byte	0x123
 4125 00cf 05       		.byte	0x5
 4126 00d0 1D       		.byte	0x1d
 4127 00d1 74010000 		.4byte	0x174
 4128 00d5 07       		.uleb128 0x7
 4129 00d6 64697200 		.ascii	"dir\000"
 4130 00da 05       		.byte	0x5
 4131 00db 1E       		.byte	0x1e
 4132 00dc 81000000 		.4byte	0x81
 4133 00e0 00       		.byte	0
 4134 00e1 08       		.uleb128 0x8
 4135 00e2 43030000 		.4byte	.LASF19
 4136 00e6 05       		.byte	0x5
 4137 00e7 1F       		.byte	0x1f
 4138 00e8 74010000 		.4byte	0x174
 4139 00ec 01       		.byte	0x1
 4140 00ed 08       		.uleb128 0x8
 4141 00ee 4D010000 		.4byte	.LASF20
 4142 00f2 05       		.byte	0x5
 4143 00f3 20       		.byte	0x20
 4144 00f4 90010000 		.4byte	0x190
 4145 00f8 29       		.byte	0x29
 4146 00f9 08       		.uleb128 0x8
 4147 00fa 72030000 		.4byte	.LASF21
 4148 00fe 05       		.byte	0x5
 4149 00ff 21       		.byte	0x21
 4150 0100 A6010000 		.4byte	0x1a6
 4151 0104 35       		.byte	0x35
 4152 0105 08       		.uleb128 0x8
 4153 0106 06020000 		.4byte	.LASF22
 4154 010a 05       		.byte	0x5
 4155 010b 22       		.byte	0x22
 4156 010c A6010000 		.4byte	0x1a6
 4157 0110 39       		.byte	0x39
 4158 0111 08       		.uleb128 0x8
 4159 0112 1F030000 		.4byte	.LASF23
 4160 0116 05       		.byte	0x5
 4161 0117 23       		.byte	0x23
 4162 0118 B6010000 		.4byte	0x1b6
 4163 011c 3D       		.byte	0x3d
 4164 011d 08       		.uleb128 0x8
 4165 011e 69020000 		.4byte	.LASF24
ARM GAS  C:\Users\Lenovo\AppData\Local\Temp\ccXim33P.s 			page 91


 4166 0122 05       		.byte	0x5
 4167 0123 24       		.byte	0x24
 4168 0124 81000000 		.4byte	0x81
 4169 0128 4B       		.byte	0x4b
 4170 0129 08       		.uleb128 0x8
 4171 012a B2010000 		.4byte	.LASF25
 4172 012e 05       		.byte	0x5
 4173 012f 25       		.byte	0x25
 4174 0130 C6010000 		.4byte	0x1c6
 4175 0134 4C       		.byte	0x4c
 4176 0135 08       		.uleb128 0x8
 4177 0136 61040000 		.4byte	.LASF26
 4178 013a 05       		.byte	0x5
 4179 013b 26       		.byte	0x26
 4180 013c D6010000 		.4byte	0x1d6
 4181 0140 51       		.byte	0x51
 4182 0141 08       		.uleb128 0x8
 4183 0142 31000000 		.4byte	.LASF27
 4184 0146 05       		.byte	0x5
 4185 0147 27       		.byte	0x27
 4186 0148 E6010000 		.4byte	0x1e6
 4187 014c 83       		.byte	0x83
 4188 014d 08       		.uleb128 0x8
 4189 014e 6D040000 		.4byte	.LASF28
 4190 0152 05       		.byte	0x5
 4191 0153 28       		.byte	0x28
 4192 0154 02020000 		.4byte	0x202
 4193 0158 FB       		.byte	0xfb
 4194 0159 09       		.uleb128 0x9
 4195 015a E3010000 		.4byte	.LASF29
 4196 015e 05       		.byte	0x5
 4197 015f 29       		.byte	0x29
 4198 0160 02020000 		.4byte	0x202
 4199 0164 0301     		.2byte	0x103
 4200 0166 09       		.uleb128 0x9
 4201 0167 FA030000 		.4byte	.LASF30
 4202 016b 05       		.byte	0x5
 4203 016c 2A       		.byte	0x2a
 4204 016d 12020000 		.4byte	0x212
 4205 0171 0B01     		.2byte	0x10b
 4206 0173 00       		.byte	0
 4207 0174 0A       		.uleb128 0xa
 4208 0175 81000000 		.4byte	0x81
 4209 0179 90010000 		.4byte	0x190
 4210 017d 0B       		.uleb128 0xb
 4211 017e C1000000 		.4byte	0xc1
 4212 0182 03       		.byte	0x3
 4213 0183 0B       		.uleb128 0xb
 4214 0184 C1000000 		.4byte	0xc1
 4215 0188 01       		.byte	0x1
 4216 0189 0B       		.uleb128 0xb
 4217 018a C1000000 		.4byte	0xc1
 4218 018e 04       		.byte	0x4
 4219 018f 00       		.byte	0
 4220 0190 0A       		.uleb128 0xa
 4221 0191 81000000 		.4byte	0x81
 4222 0195 A6010000 		.4byte	0x1a6
ARM GAS  C:\Users\Lenovo\AppData\Local\Temp\ccXim33P.s 			page 92


 4223 0199 0B       		.uleb128 0xb
 4224 019a C1000000 		.4byte	0xc1
 4225 019e 03       		.byte	0x3
 4226 019f 0B       		.uleb128 0xb
 4227 01a0 C1000000 		.4byte	0xc1
 4228 01a4 02       		.byte	0x2
 4229 01a5 00       		.byte	0
 4230 01a6 0A       		.uleb128 0xa
 4231 01a7 81000000 		.4byte	0x81
 4232 01ab B6010000 		.4byte	0x1b6
 4233 01af 0B       		.uleb128 0xb
 4234 01b0 C1000000 		.4byte	0xc1
 4235 01b4 03       		.byte	0x3
 4236 01b5 00       		.byte	0
 4237 01b6 0A       		.uleb128 0xa
 4238 01b7 81000000 		.4byte	0x81
 4239 01bb C6010000 		.4byte	0x1c6
 4240 01bf 0B       		.uleb128 0xb
 4241 01c0 C1000000 		.4byte	0xc1
 4242 01c4 0D       		.byte	0xd
 4243 01c5 00       		.byte	0
 4244 01c6 0A       		.uleb128 0xa
 4245 01c7 81000000 		.4byte	0x81
 4246 01cb D6010000 		.4byte	0x1d6
 4247 01cf 0B       		.uleb128 0xb
 4248 01d0 C1000000 		.4byte	0xc1
 4249 01d4 04       		.byte	0x4
 4250 01d5 00       		.byte	0
 4251 01d6 0A       		.uleb128 0xa
 4252 01d7 81000000 		.4byte	0x81
 4253 01db E6010000 		.4byte	0x1e6
 4254 01df 0B       		.uleb128 0xb
 4255 01e0 C1000000 		.4byte	0xc1
 4256 01e4 31       		.byte	0x31
 4257 01e5 00       		.byte	0
 4258 01e6 0A       		.uleb128 0xa
 4259 01e7 81000000 		.4byte	0x81
 4260 01eb 02020000 		.4byte	0x202
 4261 01ef 0B       		.uleb128 0xb
 4262 01f0 C1000000 		.4byte	0xc1
 4263 01f4 03       		.byte	0x3
 4264 01f5 0B       		.uleb128 0xb
 4265 01f6 C1000000 		.4byte	0xc1
 4266 01fa 02       		.byte	0x2
 4267 01fb 0B       		.uleb128 0xb
 4268 01fc C1000000 		.4byte	0xc1
 4269 0200 09       		.byte	0x9
 4270 0201 00       		.byte	0
 4271 0202 0A       		.uleb128 0xa
 4272 0203 81000000 		.4byte	0x81
 4273 0207 12020000 		.4byte	0x212
 4274 020b 0B       		.uleb128 0xb
 4275 020c C1000000 		.4byte	0xc1
 4276 0210 07       		.byte	0x7
 4277 0211 00       		.byte	0
 4278 0212 0A       		.uleb128 0xa
 4279 0213 81000000 		.4byte	0x81
ARM GAS  C:\Users\Lenovo\AppData\Local\Temp\ccXim33P.s 			page 93


 4280 0217 28020000 		.4byte	0x228
 4281 021b 0B       		.uleb128 0xb
 4282 021c C1000000 		.4byte	0xc1
 4283 0220 03       		.byte	0x3
 4284 0221 0B       		.uleb128 0xb
 4285 0222 C1000000 		.4byte	0xc1
 4286 0226 05       		.byte	0x5
 4287 0227 00       		.byte	0
 4288 0228 06       		.uleb128 0x6
 4289 0229 B3030000 		.4byte	.LASF32
 4290 022d 8C04     		.2byte	0x48c
 4291 022f 05       		.byte	0x5
 4292 0230 2E       		.byte	0x2e
 4293 0231 61020000 		.4byte	0x261
 4294 0235 07       		.uleb128 0x7
 4295 0236 6100     		.ascii	"a\000"
 4296 0238 05       		.byte	0x5
 4297 0239 2F       		.byte	0x2f
 4298 023a C8000000 		.4byte	0xc8
 4299 023e 00       		.byte	0
 4300 023f 0C       		.uleb128 0xc
 4301 0240 6200     		.ascii	"b\000"
 4302 0242 05       		.byte	0x5
 4303 0243 30       		.byte	0x30
 4304 0244 C8000000 		.4byte	0xc8
 4305 0248 2301     		.2byte	0x123
 4306 024a 0C       		.uleb128 0xc
 4307 024b 6300     		.ascii	"c\000"
 4308 024d 05       		.byte	0x5
 4309 024e 31       		.byte	0x31
 4310 024f C8000000 		.4byte	0xc8
 4311 0253 4602     		.2byte	0x246
 4312 0255 0C       		.uleb128 0xc
 4313 0256 6400     		.ascii	"d\000"
 4314 0258 05       		.byte	0x5
 4315 0259 32       		.byte	0x32
 4316 025a C8000000 		.4byte	0xc8
 4317 025e 6903     		.2byte	0x369
 4318 0260 00       		.byte	0
 4319 0261 0D       		.uleb128 0xd
 4320 0262 25020000 		.4byte	.LASF35
 4321 0266 01       		.byte	0x1
 4322 0267 44       		.byte	0x44
 4323 0268 00000000 		.4byte	.LFB63
 4324 026c 44140000 		.4byte	.LFE63-.LFB63
 4325 0270 01       		.uleb128 0x1
 4326 0271 9C       		.byte	0x9c
 4327 0272 150C0000 		.4byte	0xc15
 4328 0276 0E       		.uleb128 0xe
 4329 0277 F7010000 		.4byte	.LASF37
 4330 027b 01       		.byte	0x1
 4331 027c 44       		.byte	0x44
 4332 027d 81000000 		.4byte	0x81
 4333 0281 03       		.uleb128 0x3
 4334 0282 91       		.byte	0x91
 4335 0283 8F7F     		.sleb128 -113
 4336 0285 0F       		.uleb128 0xf
ARM GAS  C:\Users\Lenovo\AppData\Local\Temp\ccXim33P.s 			page 94


 4337 0286 37030000 		.4byte	.LASF33
 4338 028a 01       		.byte	0x1
 4339 028b 45       		.byte	0x45
 4340 028c 99000000 		.4byte	0x99
 4341 0290 03       		.uleb128 0x3
 4342 0291 91       		.byte	0x91
 4343 0292 957F     		.sleb128 -107
 4344 0294 10       		.uleb128 0x10
 4345 0295 0A000000 		.4byte	.LBB2
 4346 0299 28000000 		.4byte	.LBE2-.LBB2
 4347 029d B0020000 		.4byte	0x2b0
 4348 02a1 0F       		.uleb128 0xf
 4349 02a2 01030000 		.4byte	.LASF34
 4350 02a6 01       		.byte	0x1
 4351 02a7 46       		.byte	0x46
 4352 02a8 81000000 		.4byte	0x81
 4353 02ac 02       		.uleb128 0x2
 4354 02ad 91       		.byte	0x91
 4355 02ae 6F       		.sleb128 -17
 4356 02af 00       		.byte	0
 4357 02b0 10       		.uleb128 0x10
 4358 02b1 48000000 		.4byte	.LBB3
 4359 02b5 2E000000 		.4byte	.LBE3-.LBB3
 4360 02b9 CC020000 		.4byte	0x2cc
 4361 02bd 0F       		.uleb128 0xf
 4362 02be 01030000 		.4byte	.LASF34
 4363 02c2 01       		.byte	0x1
 4364 02c3 4C       		.byte	0x4c
 4365 02c4 81000000 		.4byte	0x81
 4366 02c8 02       		.uleb128 0x2
 4367 02c9 91       		.byte	0x91
 4368 02ca 6E       		.sleb128 -18
 4369 02cb 00       		.byte	0
 4370 02cc 10       		.uleb128 0x10
 4371 02cd 86000000 		.4byte	.LBB4
 4372 02d1 28000000 		.4byte	.LBE4-.LBB4
 4373 02d5 E6020000 		.4byte	0x2e6
 4374 02d9 11       		.uleb128 0x11
 4375 02da 7800     		.ascii	"x\000"
 4376 02dc 01       		.byte	0x1
 4377 02dd 53       		.byte	0x53
 4378 02de 81000000 		.4byte	0x81
 4379 02e2 02       		.uleb128 0x2
 4380 02e3 91       		.byte	0x91
 4381 02e4 6D       		.sleb128 -19
 4382 02e5 00       		.byte	0
 4383 02e6 10       		.uleb128 0x10
 4384 02e7 B8000000 		.4byte	.LBB5
 4385 02eb 28000000 		.4byte	.LBE5-.LBB5
 4386 02ef 00030000 		.4byte	0x300
 4387 02f3 11       		.uleb128 0x11
 4388 02f4 7800     		.ascii	"x\000"
 4389 02f6 01       		.byte	0x1
 4390 02f7 57       		.byte	0x57
 4391 02f8 81000000 		.4byte	0x81
 4392 02fc 02       		.uleb128 0x2
 4393 02fd 91       		.byte	0x91
ARM GAS  C:\Users\Lenovo\AppData\Local\Temp\ccXim33P.s 			page 95


 4394 02fe 6C       		.sleb128 -20
 4395 02ff 00       		.byte	0
 4396 0300 10       		.uleb128 0x10
 4397 0301 EA000000 		.4byte	.LBB6
 4398 0305 28000000 		.4byte	.LBE6-.LBB6
 4399 0309 1A030000 		.4byte	0x31a
 4400 030d 11       		.uleb128 0x11
 4401 030e 7800     		.ascii	"x\000"
 4402 0310 01       		.byte	0x1
 4403 0311 5B       		.byte	0x5b
 4404 0312 81000000 		.4byte	0x81
 4405 0316 02       		.uleb128 0x2
 4406 0317 91       		.byte	0x91
 4407 0318 6B       		.sleb128 -21
 4408 0319 00       		.byte	0
 4409 031a 10       		.uleb128 0x10
 4410 031b 1C010000 		.4byte	.LBB7
 4411 031f 28000000 		.4byte	.LBE7-.LBB7
 4412 0323 34030000 		.4byte	0x334
 4413 0327 11       		.uleb128 0x11
 4414 0328 7800     		.ascii	"x\000"
 4415 032a 01       		.byte	0x1
 4416 032b 5F       		.byte	0x5f
 4417 032c 81000000 		.4byte	0x81
 4418 0330 02       		.uleb128 0x2
 4419 0331 91       		.byte	0x91
 4420 0332 6A       		.sleb128 -22
 4421 0333 00       		.byte	0
 4422 0334 10       		.uleb128 0x10
 4423 0335 54010000 		.4byte	.LBB8
 4424 0339 2C000000 		.4byte	.LBE8-.LBB8
 4425 033d 4E030000 		.4byte	0x34e
 4426 0341 11       		.uleb128 0x11
 4427 0342 7800     		.ascii	"x\000"
 4428 0344 01       		.byte	0x1
 4429 0345 64       		.byte	0x64
 4430 0346 81000000 		.4byte	0x81
 4431 034a 02       		.uleb128 0x2
 4432 034b 91       		.byte	0x91
 4433 034c 69       		.sleb128 -23
 4434 034d 00       		.byte	0
 4435 034e 10       		.uleb128 0x10
 4436 034f 8A010000 		.4byte	.LBB9
 4437 0353 28000000 		.4byte	.LBE9-.LBB9
 4438 0357 68030000 		.4byte	0x368
 4439 035b 11       		.uleb128 0x11
 4440 035c 7800     		.ascii	"x\000"
 4441 035e 01       		.byte	0x1
 4442 035f 68       		.byte	0x68
 4443 0360 81000000 		.4byte	0x81
 4444 0364 02       		.uleb128 0x2
 4445 0365 91       		.byte	0x91
 4446 0366 68       		.sleb128 -24
 4447 0367 00       		.byte	0
 4448 0368 10       		.uleb128 0x10
 4449 0369 C2010000 		.4byte	.LBB10
 4450 036d 2C000000 		.4byte	.LBE10-.LBB10
ARM GAS  C:\Users\Lenovo\AppData\Local\Temp\ccXim33P.s 			page 96


 4451 0371 82030000 		.4byte	0x382
 4452 0375 11       		.uleb128 0x11
 4453 0376 7800     		.ascii	"x\000"
 4454 0378 01       		.byte	0x1
 4455 0379 6D       		.byte	0x6d
 4456 037a 81000000 		.4byte	0x81
 4457 037e 02       		.uleb128 0x2
 4458 037f 91       		.byte	0x91
 4459 0380 67       		.sleb128 -25
 4460 0381 00       		.byte	0
 4461 0382 10       		.uleb128 0x10
 4462 0383 F8010000 		.4byte	.LBB11
 4463 0387 28000000 		.4byte	.LBE11-.LBB11
 4464 038b 9C030000 		.4byte	0x39c
 4465 038f 11       		.uleb128 0x11
 4466 0390 7800     		.ascii	"x\000"
 4467 0392 01       		.byte	0x1
 4468 0393 71       		.byte	0x71
 4469 0394 81000000 		.4byte	0x81
 4470 0398 02       		.uleb128 0x2
 4471 0399 91       		.byte	0x91
 4472 039a 66       		.sleb128 -26
 4473 039b 00       		.byte	0
 4474 039c 10       		.uleb128 0x10
 4475 039d 20020000 		.4byte	.LBB12
 4476 03a1 42000000 		.4byte	.LBE12-.LBB12
 4477 03a5 B6030000 		.4byte	0x3b6
 4478 03a9 11       		.uleb128 0x11
 4479 03aa 7800     		.ascii	"x\000"
 4480 03ac 01       		.byte	0x1
 4481 03ad 74       		.byte	0x74
 4482 03ae 81000000 		.4byte	0x81
 4483 03b2 02       		.uleb128 0x2
 4484 03b3 91       		.byte	0x91
 4485 03b4 65       		.sleb128 -27
 4486 03b5 00       		.byte	0
 4487 03b6 10       		.uleb128 0x10
 4488 03b7 7C020000 		.4byte	.LBB13
 4489 03bb 28000000 		.4byte	.LBE13-.LBB13
 4490 03bf D0030000 		.4byte	0x3d0
 4491 03c3 11       		.uleb128 0x11
 4492 03c4 7800     		.ascii	"x\000"
 4493 03c6 01       		.byte	0x1
 4494 03c7 7C       		.byte	0x7c
 4495 03c8 81000000 		.4byte	0x81
 4496 03cc 02       		.uleb128 0x2
 4497 03cd 91       		.byte	0x91
 4498 03ce 64       		.sleb128 -28
 4499 03cf 00       		.byte	0
 4500 03d0 10       		.uleb128 0x10
 4501 03d1 A4020000 		.4byte	.LBB14
 4502 03d5 28000000 		.4byte	.LBE14-.LBB14
 4503 03d9 EA030000 		.4byte	0x3ea
 4504 03dd 11       		.uleb128 0x11
 4505 03de 7800     		.ascii	"x\000"
 4506 03e0 01       		.byte	0x1
 4507 03e1 7F       		.byte	0x7f
ARM GAS  C:\Users\Lenovo\AppData\Local\Temp\ccXim33P.s 			page 97


 4508 03e2 81000000 		.4byte	0x81
 4509 03e6 02       		.uleb128 0x2
 4510 03e7 91       		.byte	0x91
 4511 03e8 63       		.sleb128 -29
 4512 03e9 00       		.byte	0
 4513 03ea 10       		.uleb128 0x10
 4514 03eb D6020000 		.4byte	.LBB15
 4515 03ef 28000000 		.4byte	.LBE15-.LBB15
 4516 03f3 04040000 		.4byte	0x404
 4517 03f7 11       		.uleb128 0x11
 4518 03f8 7800     		.ascii	"x\000"
 4519 03fa 01       		.byte	0x1
 4520 03fb 83       		.byte	0x83
 4521 03fc 81000000 		.4byte	0x81
 4522 0400 02       		.uleb128 0x2
 4523 0401 91       		.byte	0x91
 4524 0402 62       		.sleb128 -30
 4525 0403 00       		.byte	0
 4526 0404 10       		.uleb128 0x10
 4527 0405 16030000 		.4byte	.LBB16
 4528 0409 28000000 		.4byte	.LBE16-.LBB16
 4529 040d 1E040000 		.4byte	0x41e
 4530 0411 11       		.uleb128 0x11
 4531 0412 7800     		.ascii	"x\000"
 4532 0414 01       		.byte	0x1
 4533 0415 88       		.byte	0x88
 4534 0416 81000000 		.4byte	0x81
 4535 041a 02       		.uleb128 0x2
 4536 041b 91       		.byte	0x91
 4537 041c 61       		.sleb128 -31
 4538 041d 00       		.byte	0
 4539 041e 10       		.uleb128 0x10
 4540 041f 3E030000 		.4byte	.LBB17
 4541 0423 6E000000 		.4byte	.LBE17-.LBB17
 4542 0427 38040000 		.4byte	0x438
 4543 042b 11       		.uleb128 0x11
 4544 042c 7800     		.ascii	"x\000"
 4545 042e 01       		.byte	0x1
 4546 042f 8B       		.byte	0x8b
 4547 0430 81000000 		.4byte	0x81
 4548 0434 02       		.uleb128 0x2
 4549 0435 91       		.byte	0x91
 4550 0436 60       		.sleb128 -32
 4551 0437 00       		.byte	0
 4552 0438 10       		.uleb128 0x10
 4553 0439 B6030000 		.4byte	.LBB18
 4554 043d 28000000 		.4byte	.LBE18-.LBB18
 4555 0441 52040000 		.4byte	0x452
 4556 0445 11       		.uleb128 0x11
 4557 0446 7800     		.ascii	"x\000"
 4558 0448 01       		.byte	0x1
 4559 0449 8F       		.byte	0x8f
 4560 044a 81000000 		.4byte	0x81
 4561 044e 02       		.uleb128 0x2
 4562 044f 91       		.byte	0x91
 4563 0450 5F       		.sleb128 -33
 4564 0451 00       		.byte	0
ARM GAS  C:\Users\Lenovo\AppData\Local\Temp\ccXim33P.s 			page 98


 4565 0452 10       		.uleb128 0x10
 4566 0453 E8030000 		.4byte	.LBB19
 4567 0457 28000000 		.4byte	.LBE19-.LBB19
 4568 045b 6C040000 		.4byte	0x46c
 4569 045f 11       		.uleb128 0x11
 4570 0460 7800     		.ascii	"x\000"
 4571 0462 01       		.byte	0x1
 4572 0463 93       		.byte	0x93
 4573 0464 81000000 		.4byte	0x81
 4574 0468 02       		.uleb128 0x2
 4575 0469 91       		.byte	0x91
 4576 046a 5E       		.sleb128 -34
 4577 046b 00       		.byte	0
 4578 046c 10       		.uleb128 0x10
 4579 046d 98040000 		.4byte	.LBB20
 4580 0471 28000000 		.4byte	.LBE20-.LBB20
 4581 0475 86040000 		.4byte	0x486
 4582 0479 11       		.uleb128 0x11
 4583 047a 7800     		.ascii	"x\000"
 4584 047c 01       		.byte	0x1
 4585 047d A0       		.byte	0xa0
 4586 047e 81000000 		.4byte	0x81
 4587 0482 02       		.uleb128 0x2
 4588 0483 91       		.byte	0x91
 4589 0484 5D       		.sleb128 -35
 4590 0485 00       		.byte	0
 4591 0486 10       		.uleb128 0x10
 4592 0487 48050000 		.4byte	.LBB21
 4593 048b 28000000 		.4byte	.LBE21-.LBB21
 4594 048f A0040000 		.4byte	0x4a0
 4595 0493 11       		.uleb128 0x11
 4596 0494 7800     		.ascii	"x\000"
 4597 0496 01       		.byte	0x1
 4598 0497 AD       		.byte	0xad
 4599 0498 81000000 		.4byte	0x81
 4600 049c 02       		.uleb128 0x2
 4601 049d 91       		.byte	0x91
 4602 049e 5C       		.sleb128 -36
 4603 049f 00       		.byte	0
 4604 04a0 10       		.uleb128 0x10
 4605 04a1 7A050000 		.4byte	.LBB22
 4606 04a5 28000000 		.4byte	.LBE22-.LBB22
 4607 04a9 BA040000 		.4byte	0x4ba
 4608 04ad 11       		.uleb128 0x11
 4609 04ae 7800     		.ascii	"x\000"
 4610 04b0 01       		.byte	0x1
 4611 04b1 B1       		.byte	0xb1
 4612 04b2 81000000 		.4byte	0x81
 4613 04b6 02       		.uleb128 0x2
 4614 04b7 91       		.byte	0x91
 4615 04b8 5B       		.sleb128 -37
 4616 04b9 00       		.byte	0
 4617 04ba 10       		.uleb128 0x10
 4618 04bb AC050000 		.4byte	.LBB23
 4619 04bf 28000000 		.4byte	.LBE23-.LBB23
 4620 04c3 D4040000 		.4byte	0x4d4
 4621 04c7 11       		.uleb128 0x11
ARM GAS  C:\Users\Lenovo\AppData\Local\Temp\ccXim33P.s 			page 99


 4622 04c8 7800     		.ascii	"x\000"
 4623 04ca 01       		.byte	0x1
 4624 04cb B5       		.byte	0xb5
 4625 04cc 81000000 		.4byte	0x81
 4626 04d0 02       		.uleb128 0x2
 4627 04d1 91       		.byte	0x91
 4628 04d2 5A       		.sleb128 -38
 4629 04d3 00       		.byte	0
 4630 04d4 10       		.uleb128 0x10
 4631 04d5 DE050000 		.4byte	.LBB24
 4632 04d9 28000000 		.4byte	.LBE24-.LBB24
 4633 04dd EE040000 		.4byte	0x4ee
 4634 04e1 11       		.uleb128 0x11
 4635 04e2 7800     		.ascii	"x\000"
 4636 04e4 01       		.byte	0x1
 4637 04e5 B9       		.byte	0xb9
 4638 04e6 81000000 		.4byte	0x81
 4639 04ea 02       		.uleb128 0x2
 4640 04eb 91       		.byte	0x91
 4641 04ec 59       		.sleb128 -39
 4642 04ed 00       		.byte	0
 4643 04ee 10       		.uleb128 0x10
 4644 04ef 10060000 		.4byte	.LBB25
 4645 04f3 28000000 		.4byte	.LBE25-.LBB25
 4646 04f7 08050000 		.4byte	0x508
 4647 04fb 11       		.uleb128 0x11
 4648 04fc 7800     		.ascii	"x\000"
 4649 04fe 01       		.byte	0x1
 4650 04ff BD       		.byte	0xbd
 4651 0500 81000000 		.4byte	0x81
 4652 0504 02       		.uleb128 0x2
 4653 0505 91       		.byte	0x91
 4654 0506 58       		.sleb128 -40
 4655 0507 00       		.byte	0
 4656 0508 10       		.uleb128 0x10
 4657 0509 50060000 		.4byte	.LBB26
 4658 050d 28000000 		.4byte	.LBE26-.LBB26
 4659 0511 22050000 		.4byte	0x522
 4660 0515 11       		.uleb128 0x11
 4661 0516 7800     		.ascii	"x\000"
 4662 0518 01       		.byte	0x1
 4663 0519 C3       		.byte	0xc3
 4664 051a 81000000 		.4byte	0x81
 4665 051e 02       		.uleb128 0x2
 4666 051f 91       		.byte	0x91
 4667 0520 57       		.sleb128 -41
 4668 0521 00       		.byte	0
 4669 0522 10       		.uleb128 0x10
 4670 0523 82060000 		.4byte	.LBB27
 4671 0527 5A000000 		.4byte	.LBE27-.LBB27
 4672 052b 3C050000 		.4byte	0x53c
 4673 052f 11       		.uleb128 0x11
 4674 0530 7800     		.ascii	"x\000"
 4675 0532 01       		.byte	0x1
 4676 0533 C7       		.byte	0xc7
 4677 0534 81000000 		.4byte	0x81
 4678 0538 02       		.uleb128 0x2
ARM GAS  C:\Users\Lenovo\AppData\Local\Temp\ccXim33P.s 			page 100


 4679 0539 91       		.byte	0x91
 4680 053a 56       		.sleb128 -42
 4681 053b 00       		.byte	0
 4682 053c 10       		.uleb128 0x10
 4683 053d E6060000 		.4byte	.LBB28
 4684 0541 28000000 		.4byte	.LBE28-.LBB28
 4685 0545 56050000 		.4byte	0x556
 4686 0549 11       		.uleb128 0x11
 4687 054a 7800     		.ascii	"x\000"
 4688 054c 01       		.byte	0x1
 4689 054d CB       		.byte	0xcb
 4690 054e 81000000 		.4byte	0x81
 4691 0552 02       		.uleb128 0x2
 4692 0553 91       		.byte	0x91
 4693 0554 55       		.sleb128 -43
 4694 0555 00       		.byte	0
 4695 0556 10       		.uleb128 0x10
 4696 0557 18070000 		.4byte	.LBB29
 4697 055b 28000000 		.4byte	.LBE29-.LBB29
 4698 055f 70050000 		.4byte	0x570
 4699 0563 11       		.uleb128 0x11
 4700 0564 7800     		.ascii	"x\000"
 4701 0566 01       		.byte	0x1
 4702 0567 CF       		.byte	0xcf
 4703 0568 81000000 		.4byte	0x81
 4704 056c 02       		.uleb128 0x2
 4705 056d 91       		.byte	0x91
 4706 056e 54       		.sleb128 -44
 4707 056f 00       		.byte	0
 4708 0570 10       		.uleb128 0x10
 4709 0571 40070000 		.4byte	.LBB30
 4710 0575 2C000000 		.4byte	.LBE30-.LBB30
 4711 0579 8A050000 		.4byte	0x58a
 4712 057d 11       		.uleb128 0x11
 4713 057e 7800     		.ascii	"x\000"
 4714 0580 01       		.byte	0x1
 4715 0581 D2       		.byte	0xd2
 4716 0582 81000000 		.4byte	0x81
 4717 0586 02       		.uleb128 0x2
 4718 0587 91       		.byte	0x91
 4719 0588 53       		.sleb128 -45
 4720 0589 00       		.byte	0
 4721 058a 10       		.uleb128 0x10
 4722 058b 76070000 		.4byte	.LBB31
 4723 058f 28000000 		.4byte	.LBE31-.LBB31
 4724 0593 A4050000 		.4byte	0x5a4
 4725 0597 11       		.uleb128 0x11
 4726 0598 7800     		.ascii	"x\000"
 4727 059a 01       		.byte	0x1
 4728 059b D6       		.byte	0xd6
 4729 059c 81000000 		.4byte	0x81
 4730 05a0 02       		.uleb128 0x2
 4731 05a1 91       		.byte	0x91
 4732 05a2 52       		.sleb128 -46
 4733 05a3 00       		.byte	0
 4734 05a4 10       		.uleb128 0x10
 4735 05a5 A8070000 		.4byte	.LBB32
ARM GAS  C:\Users\Lenovo\AppData\Local\Temp\ccXim33P.s 			page 101


 4736 05a9 2C000000 		.4byte	.LBE32-.LBB32
 4737 05ad BE050000 		.4byte	0x5be
 4738 05b1 11       		.uleb128 0x11
 4739 05b2 7800     		.ascii	"x\000"
 4740 05b4 01       		.byte	0x1
 4741 05b5 DA       		.byte	0xda
 4742 05b6 81000000 		.4byte	0x81
 4743 05ba 02       		.uleb128 0x2
 4744 05bb 91       		.byte	0x91
 4745 05bc 51       		.sleb128 -47
 4746 05bd 00       		.byte	0
 4747 05be 10       		.uleb128 0x10
 4748 05bf DE070000 		.4byte	.LBB33
 4749 05c3 28000000 		.4byte	.LBE33-.LBB33
 4750 05c7 D8050000 		.4byte	0x5d8
 4751 05cb 11       		.uleb128 0x11
 4752 05cc 7800     		.ascii	"x\000"
 4753 05ce 01       		.byte	0x1
 4754 05cf DE       		.byte	0xde
 4755 05d0 81000000 		.4byte	0x81
 4756 05d4 02       		.uleb128 0x2
 4757 05d5 91       		.byte	0x91
 4758 05d6 50       		.sleb128 -48
 4759 05d7 00       		.byte	0
 4760 05d8 10       		.uleb128 0x10
 4761 05d9 06080000 		.4byte	.LBB34
 4762 05dd 42000000 		.4byte	.LBE34-.LBB34
 4763 05e1 F2050000 		.4byte	0x5f2
 4764 05e5 11       		.uleb128 0x11
 4765 05e6 7800     		.ascii	"x\000"
 4766 05e8 01       		.byte	0x1
 4767 05e9 E1       		.byte	0xe1
 4768 05ea 81000000 		.4byte	0x81
 4769 05ee 02       		.uleb128 0x2
 4770 05ef 91       		.byte	0x91
 4771 05f0 4F       		.sleb128 -49
 4772 05f1 00       		.byte	0
 4773 05f2 10       		.uleb128 0x10
 4774 05f3 5C080000 		.4byte	.LBB35
 4775 05f7 28000000 		.4byte	.LBE35-.LBB35
 4776 05fb 0C060000 		.4byte	0x60c
 4777 05ff 11       		.uleb128 0x11
 4778 0600 7800     		.ascii	"x\000"
 4779 0602 01       		.byte	0x1
 4780 0603 E8       		.byte	0xe8
 4781 0604 81000000 		.4byte	0x81
 4782 0608 02       		.uleb128 0x2
 4783 0609 91       		.byte	0x91
 4784 060a 4E       		.sleb128 -50
 4785 060b 00       		.byte	0
 4786 060c 10       		.uleb128 0x10
 4787 060d 84080000 		.4byte	.LBB36
 4788 0611 28000000 		.4byte	.LBE36-.LBB36
 4789 0615 26060000 		.4byte	0x626
 4790 0619 11       		.uleb128 0x11
 4791 061a 7800     		.ascii	"x\000"
 4792 061c 01       		.byte	0x1
ARM GAS  C:\Users\Lenovo\AppData\Local\Temp\ccXim33P.s 			page 102


 4793 061d EB       		.byte	0xeb
 4794 061e 81000000 		.4byte	0x81
 4795 0622 02       		.uleb128 0x2
 4796 0623 91       		.byte	0x91
 4797 0624 4D       		.sleb128 -51
 4798 0625 00       		.byte	0
 4799 0626 10       		.uleb128 0x10
 4800 0627 B6080000 		.4byte	.LBB37
 4801 062b 28000000 		.4byte	.LBE37-.LBB37
 4802 062f 40060000 		.4byte	0x640
 4803 0633 11       		.uleb128 0x11
 4804 0634 7800     		.ascii	"x\000"
 4805 0636 01       		.byte	0x1
 4806 0637 EF       		.byte	0xef
 4807 0638 81000000 		.4byte	0x81
 4808 063c 02       		.uleb128 0x2
 4809 063d 91       		.byte	0x91
 4810 063e 4C       		.sleb128 -52
 4811 063f 00       		.byte	0
 4812 0640 10       		.uleb128 0x10
 4813 0641 F8080000 		.4byte	.LBB38
 4814 0645 28000000 		.4byte	.LBE38-.LBB38
 4815 0649 5A060000 		.4byte	0x65a
 4816 064d 11       		.uleb128 0x11
 4817 064e 7800     		.ascii	"x\000"
 4818 0650 01       		.byte	0x1
 4819 0651 F4       		.byte	0xf4
 4820 0652 81000000 		.4byte	0x81
 4821 0656 02       		.uleb128 0x2
 4822 0657 91       		.byte	0x91
 4823 0658 4B       		.sleb128 -53
 4824 0659 00       		.byte	0
 4825 065a 10       		.uleb128 0x10
 4826 065b 20090000 		.4byte	.LBB39
 4827 065f 28000000 		.4byte	.LBE39-.LBB39
 4828 0663 74060000 		.4byte	0x674
 4829 0667 11       		.uleb128 0x11
 4830 0668 7800     		.ascii	"x\000"
 4831 066a 01       		.byte	0x1
 4832 066b F7       		.byte	0xf7
 4833 066c 81000000 		.4byte	0x81
 4834 0670 02       		.uleb128 0x2
 4835 0671 91       		.byte	0x91
 4836 0672 4A       		.sleb128 -54
 4837 0673 00       		.byte	0
 4838 0674 10       		.uleb128 0x10
 4839 0675 52090000 		.4byte	.LBB40
 4840 0679 28000000 		.4byte	.LBE40-.LBB40
 4841 067d 8E060000 		.4byte	0x68e
 4842 0681 11       		.uleb128 0x11
 4843 0682 7800     		.ascii	"x\000"
 4844 0684 01       		.byte	0x1
 4845 0685 FB       		.byte	0xfb
 4846 0686 81000000 		.4byte	0x81
 4847 068a 02       		.uleb128 0x2
 4848 068b 91       		.byte	0x91
 4849 068c 49       		.sleb128 -55
ARM GAS  C:\Users\Lenovo\AppData\Local\Temp\ccXim33P.s 			page 103


 4850 068d 00       		.byte	0
 4851 068e 10       		.uleb128 0x10
 4852 068f 84090000 		.4byte	.LBB41
 4853 0693 28000000 		.4byte	.LBE41-.LBB41
 4854 0697 A8060000 		.4byte	0x6a8
 4855 069b 11       		.uleb128 0x11
 4856 069c 7800     		.ascii	"x\000"
 4857 069e 01       		.byte	0x1
 4858 069f FF       		.byte	0xff
 4859 06a0 81000000 		.4byte	0x81
 4860 06a4 02       		.uleb128 0x2
 4861 06a5 91       		.byte	0x91
 4862 06a6 48       		.sleb128 -56
 4863 06a7 00       		.byte	0
 4864 06a8 10       		.uleb128 0x10
 4865 06a9 B6090000 		.4byte	.LBB42
 4866 06ad 28000000 		.4byte	.LBE42-.LBB42
 4867 06b1 C3060000 		.4byte	0x6c3
 4868 06b5 12       		.uleb128 0x12
 4869 06b6 7800     		.ascii	"x\000"
 4870 06b8 01       		.byte	0x1
 4871 06b9 0301     		.2byte	0x103
 4872 06bb 81000000 		.4byte	0x81
 4873 06bf 02       		.uleb128 0x2
 4874 06c0 91       		.byte	0x91
 4875 06c1 47       		.sleb128 -57
 4876 06c2 00       		.byte	0
 4877 06c3 10       		.uleb128 0x10
 4878 06c4 E8090000 		.4byte	.LBB43
 4879 06c8 6C000000 		.4byte	.LBE43-.LBB43
 4880 06cc DE060000 		.4byte	0x6de
 4881 06d0 12       		.uleb128 0x12
 4882 06d1 7800     		.ascii	"x\000"
 4883 06d3 01       		.byte	0x1
 4884 06d4 0701     		.2byte	0x107
 4885 06d6 81000000 		.4byte	0x81
 4886 06da 02       		.uleb128 0x2
 4887 06db 91       		.byte	0x91
 4888 06dc 46       		.sleb128 -58
 4889 06dd 00       		.byte	0
 4890 06de 10       		.uleb128 0x10
 4891 06df 5E0A0000 		.4byte	.LBB44
 4892 06e3 28000000 		.4byte	.LBE44-.LBB44
 4893 06e7 F9060000 		.4byte	0x6f9
 4894 06eb 12       		.uleb128 0x12
 4895 06ec 7800     		.ascii	"x\000"
 4896 06ee 01       		.byte	0x1
 4897 06ef 0B01     		.2byte	0x10b
 4898 06f1 81000000 		.4byte	0x81
 4899 06f5 02       		.uleb128 0x2
 4900 06f6 91       		.byte	0x91
 4901 06f7 45       		.sleb128 -59
 4902 06f8 00       		.byte	0
 4903 06f9 10       		.uleb128 0x10
 4904 06fa 900A0000 		.4byte	.LBB45
 4905 06fe 28000000 		.4byte	.LBE45-.LBB45
 4906 0702 14070000 		.4byte	0x714
ARM GAS  C:\Users\Lenovo\AppData\Local\Temp\ccXim33P.s 			page 104


 4907 0706 12       		.uleb128 0x12
 4908 0707 7800     		.ascii	"x\000"
 4909 0709 01       		.byte	0x1
 4910 070a 0F01     		.2byte	0x10f
 4911 070c 81000000 		.4byte	0x81
 4912 0710 02       		.uleb128 0x2
 4913 0711 91       		.byte	0x91
 4914 0712 44       		.sleb128 -60
 4915 0713 00       		.byte	0
 4916 0714 10       		.uleb128 0x10
 4917 0715 C20A0000 		.4byte	.LBB46
 4918 0719 28000000 		.4byte	.LBE46-.LBB46
 4919 071d 2F070000 		.4byte	0x72f
 4920 0721 12       		.uleb128 0x12
 4921 0722 7800     		.ascii	"x\000"
 4922 0724 01       		.byte	0x1
 4923 0725 1301     		.2byte	0x113
 4924 0727 81000000 		.4byte	0x81
 4925 072b 02       		.uleb128 0x2
 4926 072c 91       		.byte	0x91
 4927 072d 43       		.sleb128 -61
 4928 072e 00       		.byte	0
 4929 072f 10       		.uleb128 0x10
 4930 0730 F40A0000 		.4byte	.LBB47
 4931 0734 28000000 		.4byte	.LBE47-.LBB47
 4932 0738 4A070000 		.4byte	0x74a
 4933 073c 12       		.uleb128 0x12
 4934 073d 7800     		.ascii	"x\000"
 4935 073f 01       		.byte	0x1
 4936 0740 1701     		.2byte	0x117
 4937 0742 81000000 		.4byte	0x81
 4938 0746 02       		.uleb128 0x2
 4939 0747 91       		.byte	0x91
 4940 0748 42       		.sleb128 -62
 4941 0749 00       		.byte	0
 4942 074a 10       		.uleb128 0x10
 4943 074b 340B0000 		.4byte	.LBB48
 4944 074f 28000000 		.4byte	.LBE48-.LBB48
 4945 0753 65070000 		.4byte	0x765
 4946 0757 12       		.uleb128 0x12
 4947 0758 7800     		.ascii	"x\000"
 4948 075a 01       		.byte	0x1
 4949 075b 1D01     		.2byte	0x11d
 4950 075d 81000000 		.4byte	0x81
 4951 0761 02       		.uleb128 0x2
 4952 0762 91       		.byte	0x91
 4953 0763 41       		.sleb128 -63
 4954 0764 00       		.byte	0
 4955 0765 10       		.uleb128 0x10
 4956 0766 660B0000 		.4byte	.LBB49
 4957 076a 28000000 		.4byte	.LBE49-.LBB49
 4958 076e 80070000 		.4byte	0x780
 4959 0772 12       		.uleb128 0x12
 4960 0773 7800     		.ascii	"x\000"
 4961 0775 01       		.byte	0x1
 4962 0776 2101     		.2byte	0x121
 4963 0778 81000000 		.4byte	0x81
ARM GAS  C:\Users\Lenovo\AppData\Local\Temp\ccXim33P.s 			page 105


 4964 077c 02       		.uleb128 0x2
 4965 077d 91       		.byte	0x91
 4966 077e 40       		.sleb128 -64
 4967 077f 00       		.byte	0
 4968 0780 10       		.uleb128 0x10
 4969 0781 980B0000 		.4byte	.LBB50
 4970 0785 28000000 		.4byte	.LBE50-.LBB50
 4971 0789 9C070000 		.4byte	0x79c
 4972 078d 12       		.uleb128 0x12
 4973 078e 7800     		.ascii	"x\000"
 4974 0790 01       		.byte	0x1
 4975 0791 2501     		.2byte	0x125
 4976 0793 81000000 		.4byte	0x81
 4977 0797 03       		.uleb128 0x3
 4978 0798 91       		.byte	0x91
 4979 0799 BF7F     		.sleb128 -65
 4980 079b 00       		.byte	0
 4981 079c 10       		.uleb128 0x10
 4982 079d CA0B0000 		.4byte	.LBB51
 4983 07a1 28000000 		.4byte	.LBE51-.LBB51
 4984 07a5 B8070000 		.4byte	0x7b8
 4985 07a9 12       		.uleb128 0x12
 4986 07aa 7800     		.ascii	"x\000"
 4987 07ac 01       		.byte	0x1
 4988 07ad 2901     		.2byte	0x129
 4989 07af 81000000 		.4byte	0x81
 4990 07b3 03       		.uleb128 0x3
 4991 07b4 91       		.byte	0x91
 4992 07b5 BE7F     		.sleb128 -66
 4993 07b7 00       		.byte	0
 4994 07b8 10       		.uleb128 0x10
 4995 07b9 F20B0000 		.4byte	.LBB52
 4996 07bd 2C000000 		.4byte	.LBE52-.LBB52
 4997 07c1 D4070000 		.4byte	0x7d4
 4998 07c5 12       		.uleb128 0x12
 4999 07c6 7800     		.ascii	"x\000"
 5000 07c8 01       		.byte	0x1
 5001 07c9 2C01     		.2byte	0x12c
 5002 07cb 81000000 		.4byte	0x81
 5003 07cf 03       		.uleb128 0x3
 5004 07d0 91       		.byte	0x91
 5005 07d1 BD7F     		.sleb128 -67
 5006 07d3 00       		.byte	0
 5007 07d4 10       		.uleb128 0x10
 5008 07d5 280C0000 		.4byte	.LBB53
 5009 07d9 28000000 		.4byte	.LBE53-.LBB53
 5010 07dd F0070000 		.4byte	0x7f0
 5011 07e1 12       		.uleb128 0x12
 5012 07e2 7800     		.ascii	"x\000"
 5013 07e4 01       		.byte	0x1
 5014 07e5 3001     		.2byte	0x130
 5015 07e7 81000000 		.4byte	0x81
 5016 07eb 03       		.uleb128 0x3
 5017 07ec 91       		.byte	0x91
 5018 07ed BC7F     		.sleb128 -68
 5019 07ef 00       		.byte	0
 5020 07f0 10       		.uleb128 0x10
ARM GAS  C:\Users\Lenovo\AppData\Local\Temp\ccXim33P.s 			page 106


 5021 07f1 5A0C0000 		.4byte	.LBB54
 5022 07f5 2C000000 		.4byte	.LBE54-.LBB54
 5023 07f9 0C080000 		.4byte	0x80c
 5024 07fd 12       		.uleb128 0x12
 5025 07fe 7800     		.ascii	"x\000"
 5026 0800 01       		.byte	0x1
 5027 0801 3401     		.2byte	0x134
 5028 0803 81000000 		.4byte	0x81
 5029 0807 03       		.uleb128 0x3
 5030 0808 91       		.byte	0x91
 5031 0809 BB7F     		.sleb128 -69
 5032 080b 00       		.byte	0
 5033 080c 10       		.uleb128 0x10
 5034 080d 900C0000 		.4byte	.LBB55
 5035 0811 28000000 		.4byte	.LBE55-.LBB55
 5036 0815 28080000 		.4byte	0x828
 5037 0819 12       		.uleb128 0x12
 5038 081a 7800     		.ascii	"x\000"
 5039 081c 01       		.byte	0x1
 5040 081d 3801     		.2byte	0x138
 5041 081f 81000000 		.4byte	0x81
 5042 0823 03       		.uleb128 0x3
 5043 0824 91       		.byte	0x91
 5044 0825 BA7F     		.sleb128 -70
 5045 0827 00       		.byte	0
 5046 0828 10       		.uleb128 0x10
 5047 0829 B80C0000 		.4byte	.LBB56
 5048 082d 42000000 		.4byte	.LBE56-.LBB56
 5049 0831 44080000 		.4byte	0x844
 5050 0835 12       		.uleb128 0x12
 5051 0836 7800     		.ascii	"x\000"
 5052 0838 01       		.byte	0x1
 5053 0839 3B01     		.2byte	0x13b
 5054 083b 81000000 		.4byte	0x81
 5055 083f 03       		.uleb128 0x3
 5056 0840 91       		.byte	0x91
 5057 0841 B97F     		.sleb128 -71
 5058 0843 00       		.byte	0
 5059 0844 10       		.uleb128 0x10
 5060 0845 0E0D0000 		.4byte	.LBB57
 5061 0849 28000000 		.4byte	.LBE57-.LBB57
 5062 084d 60080000 		.4byte	0x860
 5063 0851 12       		.uleb128 0x12
 5064 0852 7800     		.ascii	"x\000"
 5065 0854 01       		.byte	0x1
 5066 0855 4201     		.2byte	0x142
 5067 0857 81000000 		.4byte	0x81
 5068 085b 03       		.uleb128 0x3
 5069 085c 91       		.byte	0x91
 5070 085d B87F     		.sleb128 -72
 5071 085f 00       		.byte	0
 5072 0860 10       		.uleb128 0x10
 5073 0861 360D0000 		.4byte	.LBB58
 5074 0865 28000000 		.4byte	.LBE58-.LBB58
 5075 0869 7C080000 		.4byte	0x87c
 5076 086d 12       		.uleb128 0x12
 5077 086e 7800     		.ascii	"x\000"
ARM GAS  C:\Users\Lenovo\AppData\Local\Temp\ccXim33P.s 			page 107


 5078 0870 01       		.byte	0x1
 5079 0871 4501     		.2byte	0x145
 5080 0873 81000000 		.4byte	0x81
 5081 0877 03       		.uleb128 0x3
 5082 0878 91       		.byte	0x91
 5083 0879 B77F     		.sleb128 -73
 5084 087b 00       		.byte	0
 5085 087c 10       		.uleb128 0x10
 5086 087d 680D0000 		.4byte	.LBB59
 5087 0881 6C000000 		.4byte	.LBE59-.LBB59
 5088 0885 98080000 		.4byte	0x898
 5089 0889 12       		.uleb128 0x12
 5090 088a 7800     		.ascii	"x\000"
 5091 088c 01       		.byte	0x1
 5092 088d 4901     		.2byte	0x149
 5093 088f 81000000 		.4byte	0x81
 5094 0893 03       		.uleb128 0x3
 5095 0894 91       		.byte	0x91
 5096 0895 B67F     		.sleb128 -74
 5097 0897 00       		.byte	0
 5098 0898 10       		.uleb128 0x10
 5099 0899 EE0D0000 		.4byte	.LBB60
 5100 089d 28000000 		.4byte	.LBE60-.LBB60
 5101 08a1 B4080000 		.4byte	0x8b4
 5102 08a5 12       		.uleb128 0x12
 5103 08a6 7800     		.ascii	"x\000"
 5104 08a8 01       		.byte	0x1
 5105 08a9 4E01     		.2byte	0x14e
 5106 08ab 81000000 		.4byte	0x81
 5107 08af 03       		.uleb128 0x3
 5108 08b0 91       		.byte	0x91
 5109 08b1 B57F     		.sleb128 -75
 5110 08b3 00       		.byte	0
 5111 08b4 10       		.uleb128 0x10
 5112 08b5 160E0000 		.4byte	.LBB61
 5113 08b9 28000000 		.4byte	.LBE61-.LBB61
 5114 08bd D0080000 		.4byte	0x8d0
 5115 08c1 12       		.uleb128 0x12
 5116 08c2 7800     		.ascii	"x\000"
 5117 08c4 01       		.byte	0x1
 5118 08c5 5101     		.2byte	0x151
 5119 08c7 81000000 		.4byte	0x81
 5120 08cb 03       		.uleb128 0x3
 5121 08cc 91       		.byte	0x91
 5122 08cd B47F     		.sleb128 -76
 5123 08cf 00       		.byte	0
 5124 08d0 10       		.uleb128 0x10
 5125 08d1 480E0000 		.4byte	.LBB62
 5126 08d5 28000000 		.4byte	.LBE62-.LBB62
 5127 08d9 EC080000 		.4byte	0x8ec
 5128 08dd 12       		.uleb128 0x12
 5129 08de 7800     		.ascii	"x\000"
 5130 08e0 01       		.byte	0x1
 5131 08e1 5501     		.2byte	0x155
 5132 08e3 81000000 		.4byte	0x81
 5133 08e7 03       		.uleb128 0x3
 5134 08e8 91       		.byte	0x91
ARM GAS  C:\Users\Lenovo\AppData\Local\Temp\ccXim33P.s 			page 108


 5135 08e9 B37F     		.sleb128 -77
 5136 08eb 00       		.byte	0
 5137 08ec 10       		.uleb128 0x10
 5138 08ed 7A0E0000 		.4byte	.LBB63
 5139 08f1 28000000 		.4byte	.LBE63-.LBB63
 5140 08f5 08090000 		.4byte	0x908
 5141 08f9 12       		.uleb128 0x12
 5142 08fa 7800     		.ascii	"x\000"
 5143 08fc 01       		.byte	0x1
 5144 08fd 5901     		.2byte	0x159
 5145 08ff 81000000 		.4byte	0x81
 5146 0903 03       		.uleb128 0x3
 5147 0904 91       		.byte	0x91
 5148 0905 B27F     		.sleb128 -78
 5149 0907 00       		.byte	0
 5150 0908 10       		.uleb128 0x10
 5151 0909 AC0E0000 		.4byte	.LBB64
 5152 090d 28000000 		.4byte	.LBE64-.LBB64
 5153 0911 24090000 		.4byte	0x924
 5154 0915 12       		.uleb128 0x12
 5155 0916 7800     		.ascii	"x\000"
 5156 0918 01       		.byte	0x1
 5157 0919 5D01     		.2byte	0x15d
 5158 091b 81000000 		.4byte	0x81
 5159 091f 03       		.uleb128 0x3
 5160 0920 91       		.byte	0x91
 5161 0921 B17F     		.sleb128 -79
 5162 0923 00       		.byte	0
 5163 0924 10       		.uleb128 0x10
 5164 0925 DE0E0000 		.4byte	.LBB65
 5165 0929 28000000 		.4byte	.LBE65-.LBB65
 5166 092d 40090000 		.4byte	0x940
 5167 0931 12       		.uleb128 0x12
 5168 0932 7800     		.ascii	"x\000"
 5169 0934 01       		.byte	0x1
 5170 0935 6101     		.2byte	0x161
 5171 0937 81000000 		.4byte	0x81
 5172 093b 03       		.uleb128 0x3
 5173 093c 91       		.byte	0x91
 5174 093d B07F     		.sleb128 -80
 5175 093f 00       		.byte	0
 5176 0940 10       		.uleb128 0x10
 5177 0941 100F0000 		.4byte	.LBB66
 5178 0945 28000000 		.4byte	.LBE66-.LBB66
 5179 0949 5C090000 		.4byte	0x95c
 5180 094d 12       		.uleb128 0x12
 5181 094e 7800     		.ascii	"x\000"
 5182 0950 01       		.byte	0x1
 5183 0951 6501     		.2byte	0x165
 5184 0953 81000000 		.4byte	0x81
 5185 0957 03       		.uleb128 0x3
 5186 0958 91       		.byte	0x91
 5187 0959 AF7F     		.sleb128 -81
 5188 095b 00       		.byte	0
 5189 095c 10       		.uleb128 0x10
 5190 095d 420F0000 		.4byte	.LBB67
 5191 0961 28000000 		.4byte	.LBE67-.LBB67
ARM GAS  C:\Users\Lenovo\AppData\Local\Temp\ccXim33P.s 			page 109


 5192 0965 78090000 		.4byte	0x978
 5193 0969 12       		.uleb128 0x12
 5194 096a 7800     		.ascii	"x\000"
 5195 096c 01       		.byte	0x1
 5196 096d 6901     		.2byte	0x169
 5197 096f 81000000 		.4byte	0x81
 5198 0973 03       		.uleb128 0x3
 5199 0974 91       		.byte	0x91
 5200 0975 AE7F     		.sleb128 -82
 5201 0977 00       		.byte	0
 5202 0978 10       		.uleb128 0x10
 5203 0979 740F0000 		.4byte	.LBB68
 5204 097d 28000000 		.4byte	.LBE68-.LBB68
 5205 0981 94090000 		.4byte	0x994
 5206 0985 12       		.uleb128 0x12
 5207 0986 7800     		.ascii	"x\000"
 5208 0988 01       		.byte	0x1
 5209 0989 6D01     		.2byte	0x16d
 5210 098b 81000000 		.4byte	0x81
 5211 098f 03       		.uleb128 0x3
 5212 0990 91       		.byte	0x91
 5213 0991 AD7F     		.sleb128 -83
 5214 0993 00       		.byte	0
 5215 0994 10       		.uleb128 0x10
 5216 0995 A60F0000 		.4byte	.LBB69
 5217 0999 28000000 		.4byte	.LBE69-.LBB69
 5218 099d B0090000 		.4byte	0x9b0
 5219 09a1 12       		.uleb128 0x12
 5220 09a2 7800     		.ascii	"x\000"
 5221 09a4 01       		.byte	0x1
 5222 09a5 7101     		.2byte	0x171
 5223 09a7 81000000 		.4byte	0x81
 5224 09ab 03       		.uleb128 0x3
 5225 09ac 91       		.byte	0x91
 5226 09ad AC7F     		.sleb128 -84
 5227 09af 00       		.byte	0
 5228 09b0 10       		.uleb128 0x10
 5229 09b1 E60F0000 		.4byte	.LBB70
 5230 09b5 28000000 		.4byte	.LBE70-.LBB70
 5231 09b9 CC090000 		.4byte	0x9cc
 5232 09bd 12       		.uleb128 0x12
 5233 09be 7800     		.ascii	"x\000"
 5234 09c0 01       		.byte	0x1
 5235 09c1 7701     		.2byte	0x177
 5236 09c3 81000000 		.4byte	0x81
 5237 09c7 03       		.uleb128 0x3
 5238 09c8 91       		.byte	0x91
 5239 09c9 AB7F     		.sleb128 -85
 5240 09cb 00       		.byte	0
 5241 09cc 10       		.uleb128 0x10
 5242 09cd 18100000 		.4byte	.LBB71
 5243 09d1 28000000 		.4byte	.LBE71-.LBB71
 5244 09d5 E8090000 		.4byte	0x9e8
 5245 09d9 12       		.uleb128 0x12
 5246 09da 7800     		.ascii	"x\000"
 5247 09dc 01       		.byte	0x1
 5248 09dd 7B01     		.2byte	0x17b
ARM GAS  C:\Users\Lenovo\AppData\Local\Temp\ccXim33P.s 			page 110


 5249 09df 81000000 		.4byte	0x81
 5250 09e3 03       		.uleb128 0x3
 5251 09e4 91       		.byte	0x91
 5252 09e5 AA7F     		.sleb128 -86
 5253 09e7 00       		.byte	0
 5254 09e8 10       		.uleb128 0x10
 5255 09e9 4A100000 		.4byte	.LBB72
 5256 09ed 28000000 		.4byte	.LBE72-.LBB72
 5257 09f1 040A0000 		.4byte	0xa04
 5258 09f5 12       		.uleb128 0x12
 5259 09f6 7800     		.ascii	"x\000"
 5260 09f8 01       		.byte	0x1
 5261 09f9 7F01     		.2byte	0x17f
 5262 09fb 81000000 		.4byte	0x81
 5263 09ff 03       		.uleb128 0x3
 5264 0a00 91       		.byte	0x91
 5265 0a01 A97F     		.sleb128 -87
 5266 0a03 00       		.byte	0
 5267 0a04 10       		.uleb128 0x10
 5268 0a05 7C100000 		.4byte	.LBB73
 5269 0a09 28000000 		.4byte	.LBE73-.LBB73
 5270 0a0d 200A0000 		.4byte	0xa20
 5271 0a11 12       		.uleb128 0x12
 5272 0a12 7800     		.ascii	"x\000"
 5273 0a14 01       		.byte	0x1
 5274 0a15 8301     		.2byte	0x183
 5275 0a17 81000000 		.4byte	0x81
 5276 0a1b 03       		.uleb128 0x3
 5277 0a1c 91       		.byte	0x91
 5278 0a1d A87F     		.sleb128 -88
 5279 0a1f 00       		.byte	0
 5280 0a20 10       		.uleb128 0x10
 5281 0a21 A4100000 		.4byte	.LBB74
 5282 0a25 22000000 		.4byte	.LBE74-.LBB74
 5283 0a29 3C0A0000 		.4byte	0xa3c
 5284 0a2d 12       		.uleb128 0x12
 5285 0a2e 7800     		.ascii	"x\000"
 5286 0a30 01       		.byte	0x1
 5287 0a31 8601     		.2byte	0x186
 5288 0a33 81000000 		.4byte	0x81
 5289 0a37 03       		.uleb128 0x3
 5290 0a38 91       		.byte	0x91
 5291 0a39 A77F     		.sleb128 -89
 5292 0a3b 00       		.byte	0
 5293 0a3c 10       		.uleb128 0x10
 5294 0a3d D0100000 		.4byte	.LBB75
 5295 0a41 5C000000 		.4byte	.LBE75-.LBB75
 5296 0a45 580A0000 		.4byte	0xa58
 5297 0a49 12       		.uleb128 0x12
 5298 0a4a 7800     		.ascii	"x\000"
 5299 0a4c 01       		.byte	0x1
 5300 0a4d 8A01     		.2byte	0x18a
 5301 0a4f 81000000 		.4byte	0x81
 5302 0a53 03       		.uleb128 0x3
 5303 0a54 91       		.byte	0x91
 5304 0a55 A67F     		.sleb128 -90
 5305 0a57 00       		.byte	0
ARM GAS  C:\Users\Lenovo\AppData\Local\Temp\ccXim33P.s 			page 111


 5306 0a58 10       		.uleb128 0x10
 5307 0a59 36110000 		.4byte	.LBB76
 5308 0a5d 22000000 		.4byte	.LBE76-.LBB76
 5309 0a61 740A0000 		.4byte	0xa74
 5310 0a65 12       		.uleb128 0x12
 5311 0a66 7800     		.ascii	"x\000"
 5312 0a68 01       		.byte	0x1
 5313 0a69 8E01     		.2byte	0x18e
 5314 0a6b 81000000 		.4byte	0x81
 5315 0a6f 03       		.uleb128 0x3
 5316 0a70 91       		.byte	0x91
 5317 0a71 A57F     		.sleb128 -91
 5318 0a73 00       		.byte	0
 5319 0a74 10       		.uleb128 0x10
 5320 0a75 62110000 		.4byte	.LBB77
 5321 0a79 1E000000 		.4byte	.LBE77-.LBB77
 5322 0a7d 900A0000 		.4byte	0xa90
 5323 0a81 12       		.uleb128 0x12
 5324 0a82 7800     		.ascii	"x\000"
 5325 0a84 01       		.byte	0x1
 5326 0a85 9201     		.2byte	0x192
 5327 0a87 81000000 		.4byte	0x81
 5328 0a8b 03       		.uleb128 0x3
 5329 0a8c 91       		.byte	0x91
 5330 0a8d A47F     		.sleb128 -92
 5331 0a8f 00       		.byte	0
 5332 0a90 10       		.uleb128 0x10
 5333 0a91 80110000 		.4byte	.LBB78
 5334 0a95 36000000 		.4byte	.LBE78-.LBB78
 5335 0a99 AC0A0000 		.4byte	0xaac
 5336 0a9d 12       		.uleb128 0x12
 5337 0a9e 7800     		.ascii	"x\000"
 5338 0aa0 01       		.byte	0x1
 5339 0aa1 9501     		.2byte	0x195
 5340 0aa3 81000000 		.4byte	0x81
 5341 0aa7 03       		.uleb128 0x3
 5342 0aa8 91       		.byte	0x91
 5343 0aa9 A37F     		.sleb128 -93
 5344 0aab 00       		.byte	0
 5345 0aac 10       		.uleb128 0x10
 5346 0aad CA110000 		.4byte	.LBB79
 5347 0ab1 1E000000 		.4byte	.LBE79-.LBB79
 5348 0ab5 C80A0000 		.4byte	0xac8
 5349 0ab9 12       		.uleb128 0x12
 5350 0aba 7800     		.ascii	"x\000"
 5351 0abc 01       		.byte	0x1
 5352 0abd 9C01     		.2byte	0x19c
 5353 0abf 81000000 		.4byte	0x81
 5354 0ac3 03       		.uleb128 0x3
 5355 0ac4 91       		.byte	0x91
 5356 0ac5 A27F     		.sleb128 -94
 5357 0ac7 00       		.byte	0
 5358 0ac8 10       		.uleb128 0x10
 5359 0ac9 E8110000 		.4byte	.LBB80
 5360 0acd 1E000000 		.4byte	.LBE80-.LBB80
 5361 0ad1 E40A0000 		.4byte	0xae4
 5362 0ad5 12       		.uleb128 0x12
ARM GAS  C:\Users\Lenovo\AppData\Local\Temp\ccXim33P.s 			page 112


 5363 0ad6 7800     		.ascii	"x\000"
 5364 0ad8 01       		.byte	0x1
 5365 0ad9 9F01     		.2byte	0x19f
 5366 0adb 81000000 		.4byte	0x81
 5367 0adf 03       		.uleb128 0x3
 5368 0ae0 91       		.byte	0x91
 5369 0ae1 A17F     		.sleb128 -95
 5370 0ae3 00       		.byte	0
 5371 0ae4 10       		.uleb128 0x10
 5372 0ae5 10120000 		.4byte	.LBB81
 5373 0ae9 1E000000 		.4byte	.LBE81-.LBB81
 5374 0aed 000B0000 		.4byte	0xb00
 5375 0af1 12       		.uleb128 0x12
 5376 0af2 7800     		.ascii	"x\000"
 5377 0af4 01       		.byte	0x1
 5378 0af5 A301     		.2byte	0x1a3
 5379 0af7 81000000 		.4byte	0x81
 5380 0afb 03       		.uleb128 0x3
 5381 0afc 91       		.byte	0x91
 5382 0afd A07F     		.sleb128 -96
 5383 0aff 00       		.byte	0
 5384 0b00 10       		.uleb128 0x10
 5385 0b01 48120000 		.4byte	.LBB82
 5386 0b05 1E000000 		.4byte	.LBE82-.LBB82
 5387 0b09 1C0B0000 		.4byte	0xb1c
 5388 0b0d 12       		.uleb128 0x12
 5389 0b0e 7800     		.ascii	"x\000"
 5390 0b10 01       		.byte	0x1
 5391 0b11 A801     		.2byte	0x1a8
 5392 0b13 81000000 		.4byte	0x81
 5393 0b17 03       		.uleb128 0x3
 5394 0b18 91       		.byte	0x91
 5395 0b19 9F7F     		.sleb128 -97
 5396 0b1b 00       		.byte	0
 5397 0b1c 10       		.uleb128 0x10
 5398 0b1d 66120000 		.4byte	.LBB83
 5399 0b21 1E000000 		.4byte	.LBE83-.LBB83
 5400 0b25 380B0000 		.4byte	0xb38
 5401 0b29 12       		.uleb128 0x12
 5402 0b2a 7800     		.ascii	"x\000"
 5403 0b2c 01       		.byte	0x1
 5404 0b2d AB01     		.2byte	0x1ab
 5405 0b2f 81000000 		.4byte	0x81
 5406 0b33 03       		.uleb128 0x3
 5407 0b34 91       		.byte	0x91
 5408 0b35 9E7F     		.sleb128 -98
 5409 0b37 00       		.byte	0
 5410 0b38 10       		.uleb128 0x10
 5411 0b39 8E120000 		.4byte	.LBB84
 5412 0b3d 1E000000 		.4byte	.LBE84-.LBB84
 5413 0b41 540B0000 		.4byte	0xb54
 5414 0b45 12       		.uleb128 0x12
 5415 0b46 7800     		.ascii	"x\000"
 5416 0b48 01       		.byte	0x1
 5417 0b49 AF01     		.2byte	0x1af
 5418 0b4b 81000000 		.4byte	0x81
 5419 0b4f 03       		.uleb128 0x3
ARM GAS  C:\Users\Lenovo\AppData\Local\Temp\ccXim33P.s 			page 113


 5420 0b50 91       		.byte	0x91
 5421 0b51 9D7F     		.sleb128 -99
 5422 0b53 00       		.byte	0
 5423 0b54 10       		.uleb128 0x10
 5424 0b55 B6120000 		.4byte	.LBB85
 5425 0b59 1E000000 		.4byte	.LBE85-.LBB85
 5426 0b5d 700B0000 		.4byte	0xb70
 5427 0b61 12       		.uleb128 0x12
 5428 0b62 7800     		.ascii	"x\000"
 5429 0b64 01       		.byte	0x1
 5430 0b65 B301     		.2byte	0x1b3
 5431 0b67 81000000 		.4byte	0x81
 5432 0b6b 03       		.uleb128 0x3
 5433 0b6c 91       		.byte	0x91
 5434 0b6d 9C7F     		.sleb128 -100
 5435 0b6f 00       		.byte	0
 5436 0b70 10       		.uleb128 0x10
 5437 0b71 DE120000 		.4byte	.LBB86
 5438 0b75 1E000000 		.4byte	.LBE86-.LBB86
 5439 0b79 8C0B0000 		.4byte	0xb8c
 5440 0b7d 12       		.uleb128 0x12
 5441 0b7e 7800     		.ascii	"x\000"
 5442 0b80 01       		.byte	0x1
 5443 0b81 B701     		.2byte	0x1b7
 5444 0b83 81000000 		.4byte	0x81
 5445 0b87 03       		.uleb128 0x3
 5446 0b88 91       		.byte	0x91
 5447 0b89 9B7F     		.sleb128 -101
 5448 0b8b 00       		.byte	0
 5449 0b8c 10       		.uleb128 0x10
 5450 0b8d 06130000 		.4byte	.LBB87
 5451 0b91 1E000000 		.4byte	.LBE87-.LBB87
 5452 0b95 A80B0000 		.4byte	0xba8
 5453 0b99 12       		.uleb128 0x12
 5454 0b9a 7800     		.ascii	"x\000"
 5455 0b9c 01       		.byte	0x1
 5456 0b9d BB01     		.2byte	0x1bb
 5457 0b9f 81000000 		.4byte	0x81
 5458 0ba3 03       		.uleb128 0x3
 5459 0ba4 91       		.byte	0x91
 5460 0ba5 9A7F     		.sleb128 -102
 5461 0ba7 00       		.byte	0
 5462 0ba8 10       		.uleb128 0x10
 5463 0ba9 2E130000 		.4byte	.LBB88
 5464 0bad 1E000000 		.4byte	.LBE88-.LBB88
 5465 0bb1 C40B0000 		.4byte	0xbc4
 5466 0bb5 12       		.uleb128 0x12
 5467 0bb6 7800     		.ascii	"x\000"
 5468 0bb8 01       		.byte	0x1
 5469 0bb9 BF01     		.2byte	0x1bf
 5470 0bbb 81000000 		.4byte	0x81
 5471 0bbf 03       		.uleb128 0x3
 5472 0bc0 91       		.byte	0x91
 5473 0bc1 997F     		.sleb128 -103
 5474 0bc3 00       		.byte	0
 5475 0bc4 10       		.uleb128 0x10
 5476 0bc5 56130000 		.4byte	.LBB89
ARM GAS  C:\Users\Lenovo\AppData\Local\Temp\ccXim33P.s 			page 114


 5477 0bc9 1E000000 		.4byte	.LBE89-.LBB89
 5478 0bcd E00B0000 		.4byte	0xbe0
 5479 0bd1 12       		.uleb128 0x12
 5480 0bd2 7800     		.ascii	"x\000"
 5481 0bd4 01       		.byte	0x1
 5482 0bd5 C301     		.2byte	0x1c3
 5483 0bd7 81000000 		.4byte	0x81
 5484 0bdb 03       		.uleb128 0x3
 5485 0bdc 91       		.byte	0x91
 5486 0bdd 987F     		.sleb128 -104
 5487 0bdf 00       		.byte	0
 5488 0be0 10       		.uleb128 0x10
 5489 0be1 7E130000 		.4byte	.LBB90
 5490 0be5 1E000000 		.4byte	.LBE90-.LBB90
 5491 0be9 FC0B0000 		.4byte	0xbfc
 5492 0bed 12       		.uleb128 0x12
 5493 0bee 7800     		.ascii	"x\000"
 5494 0bf0 01       		.byte	0x1
 5495 0bf1 C701     		.2byte	0x1c7
 5496 0bf3 81000000 		.4byte	0x81
 5497 0bf7 03       		.uleb128 0x3
 5498 0bf8 91       		.byte	0x91
 5499 0bf9 977F     		.sleb128 -105
 5500 0bfb 00       		.byte	0
 5501 0bfc 13       		.uleb128 0x13
 5502 0bfd A6130000 		.4byte	.LBB91
 5503 0c01 66000000 		.4byte	.LBE91-.LBB91
 5504 0c05 12       		.uleb128 0x12
 5505 0c06 7800     		.ascii	"x\000"
 5506 0c08 01       		.byte	0x1
 5507 0c09 CB01     		.2byte	0x1cb
 5508 0c0b 81000000 		.4byte	0x81
 5509 0c0f 03       		.uleb128 0x3
 5510 0c10 91       		.byte	0x91
 5511 0c11 967F     		.sleb128 -106
 5512 0c13 00       		.byte	0
 5513 0c14 00       		.byte	0
 5514 0c15 14       		.uleb128 0x14
 5515 0c16 B1020000 		.4byte	.LASF36
 5516 0c1a 01       		.byte	0x1
 5517 0c1b D501     		.2byte	0x1d5
 5518 0c1d 00000000 		.4byte	.LFB64
 5519 0c21 E0050000 		.4byte	.LFE64-.LFB64
 5520 0c25 01       		.uleb128 0x1
 5521 0c26 9C       		.byte	0x9c
 5522 0c27 610F0000 		.4byte	0xf61
 5523 0c2b 15       		.uleb128 0x15
 5524 0c2c F7010000 		.4byte	.LASF37
 5525 0c30 01       		.byte	0x1
 5526 0c31 D501     		.2byte	0x1d5
 5527 0c33 81000000 		.4byte	0x81
 5528 0c37 02       		.uleb128 0x2
 5529 0c38 91       		.byte	0x91
 5530 0c39 57       		.sleb128 -41
 5531 0c3a 10       		.uleb128 0x10
 5532 0c3b 16000000 		.4byte	.LBB92
 5533 0c3f 28000000 		.4byte	.LBE92-.LBB92
ARM GAS  C:\Users\Lenovo\AppData\Local\Temp\ccXim33P.s 			page 115


 5534 0c43 550C0000 		.4byte	0xc55
 5535 0c47 12       		.uleb128 0x12
 5536 0c48 7800     		.ascii	"x\000"
 5537 0c4a 01       		.byte	0x1
 5538 0c4b D801     		.2byte	0x1d8
 5539 0c4d 81000000 		.4byte	0x81
 5540 0c51 02       		.uleb128 0x2
 5541 0c52 91       		.byte	0x91
 5542 0c53 77       		.sleb128 -9
 5543 0c54 00       		.byte	0
 5544 0c55 10       		.uleb128 0x10
 5545 0c56 48000000 		.4byte	.LBB93
 5546 0c5a 28000000 		.4byte	.LBE93-.LBB93
 5547 0c5e 700C0000 		.4byte	0xc70
 5548 0c62 12       		.uleb128 0x12
 5549 0c63 7800     		.ascii	"x\000"
 5550 0c65 01       		.byte	0x1
 5551 0c66 DC01     		.2byte	0x1dc
 5552 0c68 81000000 		.4byte	0x81
 5553 0c6c 02       		.uleb128 0x2
 5554 0c6d 91       		.byte	0x91
 5555 0c6e 76       		.sleb128 -10
 5556 0c6f 00       		.byte	0
 5557 0c70 10       		.uleb128 0x10
 5558 0c71 7A000000 		.4byte	.LBB94
 5559 0c75 28000000 		.4byte	.LBE94-.LBB94
 5560 0c79 8B0C0000 		.4byte	0xc8b
 5561 0c7d 12       		.uleb128 0x12
 5562 0c7e 7800     		.ascii	"x\000"
 5563 0c80 01       		.byte	0x1
 5564 0c81 E001     		.2byte	0x1e0
 5565 0c83 81000000 		.4byte	0x81
 5566 0c87 02       		.uleb128 0x2
 5567 0c88 91       		.byte	0x91
 5568 0c89 75       		.sleb128 -11
 5569 0c8a 00       		.byte	0
 5570 0c8b 10       		.uleb128 0x10
 5571 0c8c AC000000 		.4byte	.LBB95
 5572 0c90 28000000 		.4byte	.LBE95-.LBB95
 5573 0c94 A60C0000 		.4byte	0xca6
 5574 0c98 12       		.uleb128 0x12
 5575 0c99 7800     		.ascii	"x\000"
 5576 0c9b 01       		.byte	0x1
 5577 0c9c E401     		.2byte	0x1e4
 5578 0c9e 81000000 		.4byte	0x81
 5579 0ca2 02       		.uleb128 0x2
 5580 0ca3 91       		.byte	0x91
 5581 0ca4 74       		.sleb128 -12
 5582 0ca5 00       		.byte	0
 5583 0ca6 10       		.uleb128 0x10
 5584 0ca7 D4000000 		.4byte	.LBB96
 5585 0cab 42000000 		.4byte	.LBE96-.LBB96
 5586 0caf C10C0000 		.4byte	0xcc1
 5587 0cb3 12       		.uleb128 0x12
 5588 0cb4 7800     		.ascii	"x\000"
 5589 0cb6 01       		.byte	0x1
 5590 0cb7 E701     		.2byte	0x1e7
ARM GAS  C:\Users\Lenovo\AppData\Local\Temp\ccXim33P.s 			page 116


 5591 0cb9 81000000 		.4byte	0x81
 5592 0cbd 02       		.uleb128 0x2
 5593 0cbe 91       		.byte	0x91
 5594 0cbf 73       		.sleb128 -13
 5595 0cc0 00       		.byte	0
 5596 0cc1 10       		.uleb128 0x10
 5597 0cc2 20010000 		.4byte	.LBB97
 5598 0cc6 28000000 		.4byte	.LBE97-.LBB97
 5599 0cca DC0C0000 		.4byte	0xcdc
 5600 0cce 12       		.uleb128 0x12
 5601 0ccf 7800     		.ascii	"x\000"
 5602 0cd1 01       		.byte	0x1
 5603 0cd2 ED01     		.2byte	0x1ed
 5604 0cd4 81000000 		.4byte	0x81
 5605 0cd8 02       		.uleb128 0x2
 5606 0cd9 91       		.byte	0x91
 5607 0cda 72       		.sleb128 -14
 5608 0cdb 00       		.byte	0
 5609 0cdc 10       		.uleb128 0x10
 5610 0cdd 60010000 		.4byte	.LBB98
 5611 0ce1 28000000 		.4byte	.LBE98-.LBB98
 5612 0ce5 F70C0000 		.4byte	0xcf7
 5613 0ce9 12       		.uleb128 0x12
 5614 0cea 7800     		.ascii	"x\000"
 5615 0cec 01       		.byte	0x1
 5616 0ced F201     		.2byte	0x1f2
 5617 0cef 81000000 		.4byte	0x81
 5618 0cf3 02       		.uleb128 0x2
 5619 0cf4 91       		.byte	0x91
 5620 0cf5 71       		.sleb128 -15
 5621 0cf6 00       		.byte	0
 5622 0cf7 10       		.uleb128 0x10
 5623 0cf8 92010000 		.4byte	.LBB99
 5624 0cfc 28000000 		.4byte	.LBE99-.LBB99
 5625 0d00 120D0000 		.4byte	0xd12
 5626 0d04 12       		.uleb128 0x12
 5627 0d05 7800     		.ascii	"x\000"
 5628 0d07 01       		.byte	0x1
 5629 0d08 F701     		.2byte	0x1f7
 5630 0d0a 81000000 		.4byte	0x81
 5631 0d0e 02       		.uleb128 0x2
 5632 0d0f 91       		.byte	0x91
 5633 0d10 70       		.sleb128 -16
 5634 0d11 00       		.byte	0
 5635 0d12 10       		.uleb128 0x10
 5636 0d13 C4010000 		.4byte	.LBB100
 5637 0d17 1E000000 		.4byte	.LBE100-.LBB100
 5638 0d1b 2D0D0000 		.4byte	0xd2d
 5639 0d1f 12       		.uleb128 0x12
 5640 0d20 7800     		.ascii	"x\000"
 5641 0d22 01       		.byte	0x1
 5642 0d23 FB01     		.2byte	0x1fb
 5643 0d25 81000000 		.4byte	0x81
 5644 0d29 02       		.uleb128 0x2
 5645 0d2a 91       		.byte	0x91
 5646 0d2b 6F       		.sleb128 -17
 5647 0d2c 00       		.byte	0
ARM GAS  C:\Users\Lenovo\AppData\Local\Temp\ccXim33P.s 			page 117


 5648 0d2d 10       		.uleb128 0x10
 5649 0d2e EC010000 		.4byte	.LBB101
 5650 0d32 1E000000 		.4byte	.LBE101-.LBB101
 5651 0d36 480D0000 		.4byte	0xd48
 5652 0d3a 12       		.uleb128 0x12
 5653 0d3b 7800     		.ascii	"x\000"
 5654 0d3d 01       		.byte	0x1
 5655 0d3e FF01     		.2byte	0x1ff
 5656 0d40 81000000 		.4byte	0x81
 5657 0d44 02       		.uleb128 0x2
 5658 0d45 91       		.byte	0x91
 5659 0d46 6E       		.sleb128 -18
 5660 0d47 00       		.byte	0
 5661 0d48 10       		.uleb128 0x10
 5662 0d49 14020000 		.4byte	.LBB102
 5663 0d4d 1E000000 		.4byte	.LBE102-.LBB102
 5664 0d51 630D0000 		.4byte	0xd63
 5665 0d55 12       		.uleb128 0x12
 5666 0d56 7800     		.ascii	"x\000"
 5667 0d58 01       		.byte	0x1
 5668 0d59 0402     		.2byte	0x204
 5669 0d5b 81000000 		.4byte	0x81
 5670 0d5f 02       		.uleb128 0x2
 5671 0d60 91       		.byte	0x91
 5672 0d61 6D       		.sleb128 -19
 5673 0d62 00       		.byte	0
 5674 0d63 10       		.uleb128 0x10
 5675 0d64 3C020000 		.4byte	.LBB103
 5676 0d68 1E000000 		.4byte	.LBE103-.LBB103
 5677 0d6c 7E0D0000 		.4byte	0xd7e
 5678 0d70 12       		.uleb128 0x12
 5679 0d71 7800     		.ascii	"x\000"
 5680 0d73 01       		.byte	0x1
 5681 0d74 0802     		.2byte	0x208
 5682 0d76 81000000 		.4byte	0x81
 5683 0d7a 02       		.uleb128 0x2
 5684 0d7b 91       		.byte	0x91
 5685 0d7c 6C       		.sleb128 -20
 5686 0d7d 00       		.byte	0
 5687 0d7e 10       		.uleb128 0x10
 5688 0d7f 64020000 		.4byte	.LBB104
 5689 0d83 1E000000 		.4byte	.LBE104-.LBB104
 5690 0d87 990D0000 		.4byte	0xd99
 5691 0d8b 12       		.uleb128 0x12
 5692 0d8c 7800     		.ascii	"x\000"
 5693 0d8e 01       		.byte	0x1
 5694 0d8f 0C02     		.2byte	0x20c
 5695 0d91 81000000 		.4byte	0x81
 5696 0d95 02       		.uleb128 0x2
 5697 0d96 91       		.byte	0x91
 5698 0d97 6B       		.sleb128 -21
 5699 0d98 00       		.byte	0
 5700 0d99 10       		.uleb128 0x10
 5701 0d9a 8C020000 		.4byte	.LBB105
 5702 0d9e 1E000000 		.4byte	.LBE105-.LBB105
 5703 0da2 B40D0000 		.4byte	0xdb4
 5704 0da6 12       		.uleb128 0x12
ARM GAS  C:\Users\Lenovo\AppData\Local\Temp\ccXim33P.s 			page 118


 5705 0da7 7800     		.ascii	"x\000"
 5706 0da9 01       		.byte	0x1
 5707 0daa 1002     		.2byte	0x210
 5708 0dac 81000000 		.4byte	0x81
 5709 0db0 02       		.uleb128 0x2
 5710 0db1 91       		.byte	0x91
 5711 0db2 6A       		.sleb128 -22
 5712 0db3 00       		.byte	0
 5713 0db4 10       		.uleb128 0x10
 5714 0db5 B4020000 		.4byte	.LBB106
 5715 0db9 1E000000 		.4byte	.LBE106-.LBB106
 5716 0dbd CF0D0000 		.4byte	0xdcf
 5717 0dc1 12       		.uleb128 0x12
 5718 0dc2 7800     		.ascii	"x\000"
 5719 0dc4 01       		.byte	0x1
 5720 0dc5 1402     		.2byte	0x214
 5721 0dc7 81000000 		.4byte	0x81
 5722 0dcb 02       		.uleb128 0x2
 5723 0dcc 91       		.byte	0x91
 5724 0dcd 69       		.sleb128 -23
 5725 0dce 00       		.byte	0
 5726 0dcf 10       		.uleb128 0x10
 5727 0dd0 EA020000 		.4byte	.LBB107
 5728 0dd4 5A000000 		.4byte	.LBE107-.LBB107
 5729 0dd8 EA0D0000 		.4byte	0xdea
 5730 0ddc 12       		.uleb128 0x12
 5731 0ddd 7800     		.ascii	"x\000"
 5732 0ddf 01       		.byte	0x1
 5733 0de0 1A02     		.2byte	0x21a
 5734 0de2 81000000 		.4byte	0x81
 5735 0de6 02       		.uleb128 0x2
 5736 0de7 91       		.byte	0x91
 5737 0de8 68       		.sleb128 -24
 5738 0de9 00       		.byte	0
 5739 0dea 10       		.uleb128 0x10
 5740 0deb 4E030000 		.4byte	.LBB108
 5741 0def 1E000000 		.4byte	.LBE108-.LBB108
 5742 0df3 050E0000 		.4byte	0xe05
 5743 0df7 12       		.uleb128 0x12
 5744 0df8 7800     		.ascii	"x\000"
 5745 0dfa 01       		.byte	0x1
 5746 0dfb 1E02     		.2byte	0x21e
 5747 0dfd 81000000 		.4byte	0x81
 5748 0e01 02       		.uleb128 0x2
 5749 0e02 91       		.byte	0x91
 5750 0e03 67       		.sleb128 -25
 5751 0e04 00       		.byte	0
 5752 0e05 10       		.uleb128 0x10
 5753 0e06 76030000 		.4byte	.LBB109
 5754 0e0a 1E000000 		.4byte	.LBE109-.LBB109
 5755 0e0e 200E0000 		.4byte	0xe20
 5756 0e12 12       		.uleb128 0x12
 5757 0e13 7800     		.ascii	"x\000"
 5758 0e15 01       		.byte	0x1
 5759 0e16 2202     		.2byte	0x222
 5760 0e18 81000000 		.4byte	0x81
 5761 0e1c 02       		.uleb128 0x2
ARM GAS  C:\Users\Lenovo\AppData\Local\Temp\ccXim33P.s 			page 119


 5762 0e1d 91       		.byte	0x91
 5763 0e1e 66       		.sleb128 -26
 5764 0e1f 00       		.byte	0
 5765 0e20 10       		.uleb128 0x10
 5766 0e21 9E030000 		.4byte	.LBB110
 5767 0e25 1E000000 		.4byte	.LBE110-.LBB110
 5768 0e29 3B0E0000 		.4byte	0xe3b
 5769 0e2d 12       		.uleb128 0x12
 5770 0e2e 7800     		.ascii	"x\000"
 5771 0e30 01       		.byte	0x1
 5772 0e31 2602     		.2byte	0x226
 5773 0e33 81000000 		.4byte	0x81
 5774 0e37 02       		.uleb128 0x2
 5775 0e38 91       		.byte	0x91
 5776 0e39 65       		.sleb128 -27
 5777 0e3a 00       		.byte	0
 5778 0e3b 10       		.uleb128 0x10
 5779 0e3c BC030000 		.4byte	.LBB111
 5780 0e40 36000000 		.4byte	.LBE111-.LBB111
 5781 0e44 560E0000 		.4byte	0xe56
 5782 0e48 12       		.uleb128 0x12
 5783 0e49 7800     		.ascii	"x\000"
 5784 0e4b 01       		.byte	0x1
 5785 0e4c 2902     		.2byte	0x229
 5786 0e4e 81000000 		.4byte	0x81
 5787 0e52 02       		.uleb128 0x2
 5788 0e53 91       		.byte	0x91
 5789 0e54 64       		.sleb128 -28
 5790 0e55 00       		.byte	0
 5791 0e56 10       		.uleb128 0x10
 5792 0e57 FC030000 		.4byte	.LBB112
 5793 0e5b 1E000000 		.4byte	.LBE112-.LBB112
 5794 0e5f 710E0000 		.4byte	0xe71
 5795 0e63 12       		.uleb128 0x12
 5796 0e64 7800     		.ascii	"x\000"
 5797 0e66 01       		.byte	0x1
 5798 0e67 2F02     		.2byte	0x22f
 5799 0e69 81000000 		.4byte	0x81
 5800 0e6d 02       		.uleb128 0x2
 5801 0e6e 91       		.byte	0x91
 5802 0e6f 63       		.sleb128 -29
 5803 0e70 00       		.byte	0
 5804 0e71 10       		.uleb128 0x10
 5805 0e72 34040000 		.4byte	.LBB113
 5806 0e76 1E000000 		.4byte	.LBE113-.LBB113
 5807 0e7a 8C0E0000 		.4byte	0xe8c
 5808 0e7e 12       		.uleb128 0x12
 5809 0e7f 7800     		.ascii	"x\000"
 5810 0e81 01       		.byte	0x1
 5811 0e82 3402     		.2byte	0x234
 5812 0e84 81000000 		.4byte	0x81
 5813 0e88 02       		.uleb128 0x2
 5814 0e89 91       		.byte	0x91
 5815 0e8a 62       		.sleb128 -30
 5816 0e8b 00       		.byte	0
 5817 0e8c 10       		.uleb128 0x10
 5818 0e8d 5C040000 		.4byte	.LBB114
ARM GAS  C:\Users\Lenovo\AppData\Local\Temp\ccXim33P.s 			page 120


 5819 0e91 1E000000 		.4byte	.LBE114-.LBB114
 5820 0e95 A70E0000 		.4byte	0xea7
 5821 0e99 12       		.uleb128 0x12
 5822 0e9a 7800     		.ascii	"x\000"
 5823 0e9c 01       		.byte	0x1
 5824 0e9d 3902     		.2byte	0x239
 5825 0e9f 81000000 		.4byte	0x81
 5826 0ea3 02       		.uleb128 0x2
 5827 0ea4 91       		.byte	0x91
 5828 0ea5 61       		.sleb128 -31
 5829 0ea6 00       		.byte	0
 5830 0ea7 10       		.uleb128 0x10
 5831 0ea8 84040000 		.4byte	.LBB115
 5832 0eac 1E000000 		.4byte	.LBE115-.LBB115
 5833 0eb0 C20E0000 		.4byte	0xec2
 5834 0eb4 12       		.uleb128 0x12
 5835 0eb5 7800     		.ascii	"x\000"
 5836 0eb7 01       		.byte	0x1
 5837 0eb8 3D02     		.2byte	0x23d
 5838 0eba 81000000 		.4byte	0x81
 5839 0ebe 02       		.uleb128 0x2
 5840 0ebf 91       		.byte	0x91
 5841 0ec0 60       		.sleb128 -32
 5842 0ec1 00       		.byte	0
 5843 0ec2 10       		.uleb128 0x10
 5844 0ec3 AC040000 		.4byte	.LBB116
 5845 0ec7 1E000000 		.4byte	.LBE116-.LBB116
 5846 0ecb DD0E0000 		.4byte	0xedd
 5847 0ecf 12       		.uleb128 0x12
 5848 0ed0 7800     		.ascii	"x\000"
 5849 0ed2 01       		.byte	0x1
 5850 0ed3 4102     		.2byte	0x241
 5851 0ed5 81000000 		.4byte	0x81
 5852 0ed9 02       		.uleb128 0x2
 5853 0eda 91       		.byte	0x91
 5854 0edb 5F       		.sleb128 -33
 5855 0edc 00       		.byte	0
 5856 0edd 10       		.uleb128 0x10
 5857 0ede D4040000 		.4byte	.LBB117
 5858 0ee2 1E000000 		.4byte	.LBE117-.LBB117
 5859 0ee6 F80E0000 		.4byte	0xef8
 5860 0eea 12       		.uleb128 0x12
 5861 0eeb 7800     		.ascii	"x\000"
 5862 0eed 01       		.byte	0x1
 5863 0eee 4602     		.2byte	0x246
 5864 0ef0 81000000 		.4byte	0x81
 5865 0ef4 02       		.uleb128 0x2
 5866 0ef5 91       		.byte	0x91
 5867 0ef6 5E       		.sleb128 -34
 5868 0ef7 00       		.byte	0
 5869 0ef8 10       		.uleb128 0x10
 5870 0ef9 FC040000 		.4byte	.LBB118
 5871 0efd 1E000000 		.4byte	.LBE118-.LBB118
 5872 0f01 130F0000 		.4byte	0xf13
 5873 0f05 12       		.uleb128 0x12
 5874 0f06 7800     		.ascii	"x\000"
 5875 0f08 01       		.byte	0x1
ARM GAS  C:\Users\Lenovo\AppData\Local\Temp\ccXim33P.s 			page 121


 5876 0f09 4A02     		.2byte	0x24a
 5877 0f0b 81000000 		.4byte	0x81
 5878 0f0f 02       		.uleb128 0x2
 5879 0f10 91       		.byte	0x91
 5880 0f11 5D       		.sleb128 -35
 5881 0f12 00       		.byte	0
 5882 0f13 10       		.uleb128 0x10
 5883 0f14 24050000 		.4byte	.LBB119
 5884 0f18 1E000000 		.4byte	.LBE119-.LBB119
 5885 0f1c 2E0F0000 		.4byte	0xf2e
 5886 0f20 12       		.uleb128 0x12
 5887 0f21 7800     		.ascii	"x\000"
 5888 0f23 01       		.byte	0x1
 5889 0f24 4E02     		.2byte	0x24e
 5890 0f26 81000000 		.4byte	0x81
 5891 0f2a 02       		.uleb128 0x2
 5892 0f2b 91       		.byte	0x91
 5893 0f2c 5C       		.sleb128 -36
 5894 0f2d 00       		.byte	0
 5895 0f2e 10       		.uleb128 0x10
 5896 0f2f 4C050000 		.4byte	.LBB120
 5897 0f33 1E000000 		.4byte	.LBE120-.LBB120
 5898 0f37 490F0000 		.4byte	0xf49
 5899 0f3b 12       		.uleb128 0x12
 5900 0f3c 7800     		.ascii	"x\000"
 5901 0f3e 01       		.byte	0x1
 5902 0f3f 5202     		.2byte	0x252
 5903 0f41 81000000 		.4byte	0x81
 5904 0f45 02       		.uleb128 0x2
 5905 0f46 91       		.byte	0x91
 5906 0f47 5B       		.sleb128 -37
 5907 0f48 00       		.byte	0
 5908 0f49 13       		.uleb128 0x13
 5909 0f4a 74050000 		.4byte	.LBB121
 5910 0f4e 1E000000 		.4byte	.LBE121-.LBB121
 5911 0f52 12       		.uleb128 0x12
 5912 0f53 7800     		.ascii	"x\000"
 5913 0f55 01       		.byte	0x1
 5914 0f56 5602     		.2byte	0x256
 5915 0f58 81000000 		.4byte	0x81
 5916 0f5c 02       		.uleb128 0x2
 5917 0f5d 91       		.byte	0x91
 5918 0f5e 5A       		.sleb128 -38
 5919 0f5f 00       		.byte	0
 5920 0f60 00       		.byte	0
 5921 0f61 16       		.uleb128 0x16
 5922 0f62 B5040000 		.4byte	.LASF38
 5923 0f66 06       		.byte	0x6
 5924 0f67 1207     		.2byte	0x712
 5925 0f69 6D0F0000 		.4byte	0xf6d
 5926 0f6d 17       		.uleb128 0x17
 5927 0f6e 76000000 		.4byte	0x76
 5928 0f72 18       		.uleb128 0x18
 5929 0f73 54000000 		.4byte	.LASF39
 5930 0f77 05       		.byte	0x5
 5931 0f78 10       		.byte	0x10
 5932 0f79 8D000000 		.4byte	0x8d
ARM GAS  C:\Users\Lenovo\AppData\Local\Temp\ccXim33P.s 			page 122


 5933 0f7d 05       		.uleb128 0x5
 5934 0f7e 03       		.byte	0x3
 5935 0f7f 00000000 		.4byte	PollCounter
 5936 0f83 18       		.uleb128 0x18
 5937 0f84 A4020000 		.4byte	.LASF40
 5938 0f88 05       		.byte	0x5
 5939 0f89 11       		.byte	0x11
 5940 0f8a 81000000 		.4byte	0x81
 5941 0f8e 05       		.uleb128 0x5
 5942 0f8f 03       		.byte	0x3
 5943 0f90 00000000 		.4byte	CurrentState
 5944 0f94 18       		.uleb128 0x18
 5945 0f95 9B010000 		.4byte	.LASF41
 5946 0f99 05       		.byte	0x5
 5947 0f9a 12       		.byte	0x12
 5948 0f9b 81000000 		.4byte	0x81
 5949 0f9f 05       		.uleb128 0x5
 5950 0fa0 03       		.byte	0x3
 5951 0fa1 00000000 		.4byte	Receipt
 5952 0fa5 18       		.uleb128 0x18
 5953 0fa6 B0040000 		.4byte	.LASF42
 5954 0faa 05       		.byte	0x5
 5955 0fab 35       		.byte	0x35
 5956 0fac 28020000 		.4byte	0x228
 5957 0fb0 05       		.uleb128 0x5
 5958 0fb1 03       		.byte	0x3
 5959 0fb2 00000000 		.4byte	side
 5960 0fb6 18       		.uleb128 0x18
 5961 0fb7 37040000 		.4byte	.LASF43
 5962 0fbb 05       		.byte	0x5
 5963 0fbc 3E       		.byte	0x3e
 5964 0fbd D6010000 		.4byte	0x1d6
 5965 0fc1 05       		.uleb128 0x5
 5966 0fc2 03       		.byte	0x3
 5967 0fc3 00000000 		.4byte	MepsanResponse
 5968 0fc7 18       		.uleb128 0x18
 5969 0fc8 53020000 		.4byte	.LASF44
 5970 0fcc 05       		.byte	0x5
 5971 0fcd 3F       		.byte	0x3f
 5972 0fce D6010000 		.4byte	0x1d6
 5973 0fd2 05       		.uleb128 0x5
 5974 0fd3 03       		.byte	0x3
 5975 0fd4 00000000 		.4byte	MepsanSendTo
 5976 0fd8 0A       		.uleb128 0xa
 5977 0fd9 81000000 		.4byte	0x81
 5978 0fdd E80F0000 		.4byte	0xfe8
 5979 0fe1 0B       		.uleb128 0xb
 5980 0fe2 C1000000 		.4byte	0xc1
 5981 0fe6 0E       		.byte	0xe
 5982 0fe7 00       		.byte	0
 5983 0fe8 18       		.uleb128 0x18
 5984 0fe9 81020000 		.4byte	.LASF45
 5985 0fed 05       		.byte	0x5
 5986 0fee 40       		.byte	0x40
 5987 0fef D80F0000 		.4byte	0xfd8
 5988 0ff3 05       		.uleb128 0x5
 5989 0ff4 03       		.byte	0x3
ARM GAS  C:\Users\Lenovo\AppData\Local\Temp\ccXim33P.s 			page 123


 5990 0ff5 00000000 		.4byte	PumpAddress
 5991 0ff9 19       		.uleb128 0x19
 5992 0ffa 43524300 		.ascii	"CRC\000"
 5993 0ffe 05       		.byte	0x5
 5994 0fff 41       		.byte	0x41
 5995 1000 8D000000 		.4byte	0x8d
 5996 1004 05       		.uleb128 0x5
 5997 1005 03       		.byte	0x3
 5998 1006 00000000 		.4byte	CRC
 5999 100a 18       		.uleb128 0x18
 6000 100b 91030000 		.4byte	.LASF46
 6001 100f 05       		.byte	0x5
 6002 1010 42       		.byte	0x42
 6003 1011 81000000 		.4byte	0x81
 6004 1015 05       		.uleb128 0x5
 6005 1016 03       		.byte	0x3
 6006 1017 00000000 		.4byte	crc_lo
 6007 101b 18       		.uleb128 0x18
 6008 101c CD040000 		.4byte	.LASF47
 6009 1020 05       		.byte	0x5
 6010 1021 42       		.byte	0x42
 6011 1022 81000000 		.4byte	0x81
 6012 1026 05       		.uleb128 0x5
 6013 1027 03       		.byte	0x3
 6014 1028 00000000 		.4byte	crc_hi
 6015 102c 18       		.uleb128 0x18
 6016 102d 21010000 		.4byte	.LASF48
 6017 1031 05       		.byte	0x5
 6018 1032 43       		.byte	0x43
 6019 1033 81000000 		.4byte	0x81
 6020 1037 05       		.uleb128 0x5
 6021 1038 03       		.byte	0x3
 6022 1039 00000000 		.4byte	Positions
 6023 103d 18       		.uleb128 0x18
 6024 103e 50040000 		.4byte	.LASF49
 6025 1042 05       		.byte	0x5
 6026 1043 44       		.byte	0x44
 6027 1044 81000000 		.4byte	0x81
 6028 1048 05       		.uleb128 0x5
 6029 1049 03       		.byte	0x3
 6030 104a 00000000 		.4byte	TotalRequestType
 6031 104e 18       		.uleb128 0x18
 6032 104f 12000000 		.4byte	.LASF50
 6033 1053 05       		.byte	0x5
 6034 1054 45       		.byte	0x45
 6035 1055 81000000 		.4byte	0x81
 6036 1059 05       		.uleb128 0x5
 6037 105a 03       		.byte	0x3
 6038 105b 00000000 		.4byte	DecVol
 6039 105f 0A       		.uleb128 0xa
 6040 1060 81000000 		.4byte	0x81
 6041 1064 6F100000 		.4byte	0x106f
 6042 1068 0B       		.uleb128 0xb
 6043 1069 C1000000 		.4byte	0xc1
 6044 106d 13       		.byte	0x13
 6045 106e 00       		.byte	0
 6046 106f 18       		.uleb128 0x18
ARM GAS  C:\Users\Lenovo\AppData\Local\Temp\ccXim33P.s 			page 124


 6047 1070 23040000 		.4byte	.LASF51
 6048 1074 05       		.byte	0x5
 6049 1075 4E       		.byte	0x4e
 6050 1076 5F100000 		.4byte	0x105f
 6051 107a 05       		.uleb128 0x5
 6052 107b 03       		.byte	0x3
 6053 107c 00000000 		.4byte	touch1
 6054 1080 18       		.uleb128 0x18
 6055 1081 FF010000 		.4byte	.LASF52
 6056 1085 05       		.byte	0x5
 6057 1086 57       		.byte	0x57
 6058 1087 81000000 		.4byte	0x81
 6059 108b 05       		.uleb128 0x5
 6060 108c 03       		.byte	0x3
 6061 108d 00000000 		.4byte	dirGbr
 6062 1091 18       		.uleb128 0x18
 6063 1092 49020000 		.4byte	.LASF53
 6064 1096 01       		.byte	0x1
 6065 1097 0F       		.byte	0xf
 6066 1098 81000000 		.4byte	0x81
 6067 109c 05       		.uleb128 0x5
 6068 109d 03       		.byte	0x3
 6069 109e 00000000 		.4byte	LINE_FEED
 6070 10a2 0A       		.uleb128 0xa
 6071 10a3 B3000000 		.4byte	0xb3
 6072 10a7 B2100000 		.4byte	0x10b2
 6073 10ab 0B       		.uleb128 0xb
 6074 10ac C1000000 		.4byte	0xc1
 6075 10b0 00       		.byte	0
 6076 10b1 00       		.byte	0
 6077 10b2 18       		.uleb128 0x18
 6078 10b3 09010000 		.4byte	.LASF54
 6079 10b7 01       		.byte	0x1
 6080 10b8 10       		.byte	0x10
 6081 10b9 A2100000 		.4byte	0x10a2
 6082 10bd 05       		.uleb128 0x5
 6083 10be 03       		.byte	0x3
 6084 10bf 00000000 		.4byte	VolSimbol
 6085 10c3 0A       		.uleb128 0xa
 6086 10c4 81000000 		.4byte	0x81
 6087 10c8 D3100000 		.4byte	0x10d3
 6088 10cc 0B       		.uleb128 0xb
 6089 10cd C1000000 		.4byte	0xc1
 6090 10d1 15       		.byte	0x15
 6091 10d2 00       		.byte	0
 6092 10d3 18       		.uleb128 0x18
 6093 10d4 29000000 		.4byte	.LASF55
 6094 10d8 01       		.byte	0x1
 6095 10d9 14       		.byte	0x14
 6096 10da C3100000 		.4byte	0x10c3
 6097 10de 05       		.uleb128 0x5
 6098 10df 03       		.byte	0x3
 6099 10e0 00000000 		.4byte	msn_EDS
 6100 10e4 18       		.uleb128 0x18
 6101 10e5 60020000 		.4byte	.LASF56
 6102 10e9 01       		.byte	0x1
 6103 10ea 15       		.byte	0x15
ARM GAS  C:\Users\Lenovo\AppData\Local\Temp\ccXim33P.s 			page 125


 6104 10eb C3100000 		.4byte	0x10c3
 6105 10ef 05       		.uleb128 0x5
 6106 10f0 03       		.byte	0x3
 6107 10f1 00000000 		.4byte	msn_EDS2
 6108 10f5 18       		.uleb128 0x18
 6109 10f6 11020000 		.4byte	.LASF57
 6110 10fa 01       		.byte	0x1
 6111 10fb 16       		.byte	0x16
 6112 10fc C3100000 		.4byte	0x10c3
 6113 1100 05       		.uleb128 0x5
 6114 1101 03       		.byte	0x3
 6115 1102 00000000 		.4byte	msn_EDS3
 6116 1106 18       		.uleb128 0x18
 6117 1107 32020000 		.4byte	.LASF58
 6118 110b 01       		.byte	0x1
 6119 110c 17       		.byte	0x17
 6120 110d C3100000 		.4byte	0x10c3
 6121 1111 05       		.uleb128 0x5
 6122 1112 03       		.byte	0x3
 6123 1113 00000000 		.4byte	msn_EDS4
 6124 1117 0A       		.uleb128 0xa
 6125 1118 81000000 		.4byte	0x81
 6126 111c 27110000 		.4byte	0x1127
 6127 1120 0B       		.uleb128 0xb
 6128 1121 C1000000 		.4byte	0xc1
 6129 1125 06       		.byte	0x6
 6130 1126 00       		.byte	0
 6131 1127 18       		.uleb128 0x18
 6132 1128 FA040000 		.4byte	.LASF59
 6133 112c 01       		.byte	0x1
 6134 112d 18       		.byte	0x18
 6135 112e 17110000 		.4byte	0x1117
 6136 1132 05       		.uleb128 0x5
 6137 1133 03       		.byte	0x3
 6138 1134 00000000 		.4byte	msn_plate
 6139 1138 18       		.uleb128 0x18
 6140 1139 E4040000 		.4byte	.LASF60
 6141 113d 01       		.byte	0x1
 6142 113e 19       		.byte	0x19
 6143 113f C3100000 		.4byte	0x10c3
 6144 1143 05       		.uleb128 0x5
 6145 1144 03       		.byte	0x3
 6146 1145 00000000 		.4byte	msn_footer
 6147 1149 18       		.uleb128 0x18
 6148 114a A4040000 		.4byte	.LASF61
 6149 114e 01       		.byte	0x1
 6150 114f 1A       		.byte	0x1a
 6151 1150 C3100000 		.4byte	0x10c3
 6152 1154 05       		.uleb128 0x5
 6153 1155 03       		.byte	0x3
 6154 1156 00000000 		.4byte	msn_footer2
 6155 115a 18       		.uleb128 0x18
 6156 115b EF040000 		.4byte	.LASF62
 6157 115f 01       		.byte	0x1
 6158 1160 1B       		.byte	0x1b
 6159 1161 02020000 		.4byte	0x202
 6160 1165 05       		.uleb128 0x5
ARM GAS  C:\Users\Lenovo\AppData\Local\Temp\ccXim33P.s 			page 126


 6161 1166 03       		.byte	0x3
 6162 1167 00000000 		.4byte	msn_diesel
 6163 116b 0A       		.uleb128 0xa
 6164 116c 81000000 		.4byte	0x81
 6165 1170 7B110000 		.4byte	0x117b
 6166 1174 0B       		.uleb128 0xb
 6167 1175 C1000000 		.4byte	0xc1
 6168 1179 08       		.byte	0x8
 6169 117a 00       		.byte	0
 6170 117b 18       		.uleb128 0x18
 6171 117c 2A040000 		.4byte	.LASF63
 6172 1180 01       		.byte	0x1
 6173 1181 1C       		.byte	0x1c
 6174 1182 6B110000 		.4byte	0x116b
 6175 1186 05       		.uleb128 0x5
 6176 1187 03       		.byte	0x3
 6177 1188 00000000 		.4byte	msn_gasoline
 6178 118c 0A       		.uleb128 0xa
 6179 118d 81000000 		.4byte	0x81
 6180 1191 9C110000 		.4byte	0x119c
 6181 1195 0B       		.uleb128 0xb
 6182 1196 C1000000 		.4byte	0xc1
 6183 119a 0C       		.byte	0xc
 6184 119b 00       		.byte	0
 6185 119c 18       		.uleb128 0x18
 6186 119d D9010000 		.4byte	.LASF64
 6187 11a1 01       		.byte	0x1
 6188 11a2 20       		.byte	0x20
 6189 11a3 8C110000 		.4byte	0x118c
 6190 11a7 05       		.uleb128 0x5
 6191 11a8 03       		.byte	0x3
 6192 11a9 00000000 		.4byte	msn_fecha
 6193 11ad 18       		.uleb128 0x18
 6194 11ae 00000000 		.4byte	.LASF65
 6195 11b2 01       		.byte	0x1
 6196 11b3 21       		.byte	0x21
 6197 11b4 8C110000 		.4byte	0x118c
 6198 11b8 05       		.uleb128 0x5
 6199 11b9 03       		.byte	0x3
 6200 11ba 00000000 		.4byte	msn_hora
 6201 11be 18       		.uleb128 0x18
 6202 11bf A3010000 		.4byte	.LASF66
 6203 11c3 01       		.byte	0x1
 6204 11c4 22       		.byte	0x22
 6205 11c5 8C110000 		.4byte	0x118c
 6206 11c9 05       		.uleb128 0x5
 6207 11ca 03       		.byte	0x3
 6208 11cb 00000000 		.4byte	msn_placa
 6209 11cf 18       		.uleb128 0x18
 6210 11d0 60000000 		.4byte	.LASF67
 6211 11d4 01       		.byte	0x1
 6212 11d5 23       		.byte	0x23
 6213 11d6 8C110000 		.4byte	0x118c
 6214 11da 05       		.uleb128 0x5
 6215 11db 03       		.byte	0x3
 6216 11dc 00000000 		.4byte	PRN_MILLEAGE
 6217 11e0 18       		.uleb128 0x18
ARM GAS  C:\Users\Lenovo\AppData\Local\Temp\ccXim33P.s 			page 127


 6218 11e1 07030000 		.4byte	.LASF68
 6219 11e5 01       		.byte	0x1
 6220 11e6 24       		.byte	0x24
 6221 11e7 8C110000 		.4byte	0x118c
 6222 11eb 05       		.uleb128 0x5
 6223 11ec 03       		.byte	0x3
 6224 11ed 00000000 		.4byte	PRN_TRANSTYPE
 6225 11f1 18       		.uleb128 0x18
 6226 11f2 A0030000 		.4byte	.LASF69
 6227 11f6 01       		.byte	0x1
 6228 11f7 25       		.byte	0x25
 6229 11f8 8C110000 		.4byte	0x118c
 6230 11fc 05       		.uleb128 0x5
 6231 11fd 03       		.byte	0x3
 6232 11fe 00000000 		.4byte	msn_pos
 6233 1202 18       		.uleb128 0x18
 6234 1203 70010000 		.4byte	.LASF70
 6235 1207 01       		.byte	0x1
 6236 1208 26       		.byte	0x26
 6237 1209 8C110000 		.4byte	0x118c
 6238 120d 05       		.uleb128 0x5
 6239 120e 03       		.byte	0x3
 6240 120f 00000000 		.4byte	msn_product
 6241 1213 18       		.uleb128 0x18
 6242 1214 D4040000 		.4byte	.LASF71
 6243 1218 01       		.byte	0x1
 6244 1219 27       		.byte	0x27
 6245 121a 8C110000 		.4byte	0x118c
 6246 121e 05       		.uleb128 0x5
 6247 121f 03       		.byte	0x3
 6248 1220 00000000 		.4byte	msn_ppu
 6249 1224 18       		.uleb128 0x18
 6250 1225 DC040000 		.4byte	.LASF72
 6251 1229 01       		.byte	0x1
 6252 122a 28       		.byte	0x28
 6253 122b 8C110000 		.4byte	0x118c
 6254 122f 05       		.uleb128 0x5
 6255 1230 03       		.byte	0x3
 6256 1231 00000000 		.4byte	msn_vol
 6257 1235 18       		.uleb128 0x18
 6258 1236 65010000 		.4byte	.LASF73
 6259 123a 01       		.byte	0x1
 6260 123b 29       		.byte	0x29
 6261 123c 8C110000 		.4byte	0x118c
 6262 1240 05       		.uleb128 0x5
 6263 1241 03       		.byte	0x3
 6264 1242 00000000 		.4byte	msn_voltot
 6265 1246 18       		.uleb128 0x18
 6266 1247 5D010000 		.4byte	.LASF74
 6267 124b 01       		.byte	0x1
 6268 124c 2A       		.byte	0x2a
 6269 124d 8C110000 		.4byte	0x118c
 6270 1251 05       		.uleb128 0x5
 6271 1252 03       		.byte	0x3
 6272 1253 00000000 		.4byte	msn_din
 6273 1257 18       		.uleb128 0x18
 6274 1258 C2040000 		.4byte	.LASF75
ARM GAS  C:\Users\Lenovo\AppData\Local\Temp\ccXim33P.s 			page 128


 6275 125c 01       		.byte	0x1
 6276 125d 2B       		.byte	0x2b
 6277 125e 8C110000 		.4byte	0x118c
 6278 1262 05       		.uleb128 0x5
 6279 1263 03       		.byte	0x3
 6280 1264 00000000 		.4byte	msn_cierre
 6281 1268 18       		.uleb128 0x18
 6282 1269 A8030000 		.4byte	.LASF76
 6283 126d 01       		.byte	0x1
 6284 126e 2C       		.byte	0x2c
 6285 126f 8C110000 		.4byte	0x118c
 6286 1273 05       		.uleb128 0x5
 6287 1274 03       		.byte	0x3
 6288 1275 00000000 		.4byte	msn_numero
 6289 1279 18       		.uleb128 0x18
 6290 127a 89010000 		.4byte	.LASF77
 6291 127e 01       		.byte	0x1
 6292 127f 2D       		.byte	0x2d
 6293 1280 8C110000 		.4byte	0x118c
 6294 1284 05       		.uleb128 0x5
 6295 1285 03       		.byte	0x3
 6296 1286 00000000 		.4byte	PRN_BALANCE
 6297 128a 18       		.uleb128 0x18
 6298 128b 2B010000 		.4byte	.LASF78
 6299 128f 01       		.byte	0x1
 6300 1290 2E       		.byte	0x2e
 6301 1291 8C110000 		.4byte	0x118c
 6302 1295 05       		.uleb128 0x5
 6303 1296 03       		.byte	0x3
 6304 1297 00000000 		.4byte	PRN_COMPANY
 6305 129b 18       		.uleb128 0x18
 6306 129c C4010000 		.4byte	.LASF79
 6307 12a0 01       		.byte	0x1
 6308 12a1 2F       		.byte	0x2f
 6309 12a2 8C110000 		.4byte	0x118c
 6310 12a6 05       		.uleb128 0x5
 6311 12a7 03       		.byte	0x3
 6312 12a8 00000000 		.4byte	PRN_ACCOUNT
 6313 12ac 18       		.uleb128 0x18
 6314 12ad B9010000 		.4byte	.LASF80
 6315 12b1 01       		.byte	0x1
 6316 12b2 30       		.byte	0x30
 6317 12b3 8C110000 		.4byte	0x118c
 6318 12b7 05       		.uleb128 0x5
 6319 12b8 03       		.byte	0x3
 6320 12b9 00000000 		.4byte	PRN_SERIAL
 6321 12bd 18       		.uleb128 0x18
 6322 12be 27030000 		.4byte	.LASF81
 6323 12c2 01       		.byte	0x1
 6324 12c3 31       		.byte	0x31
 6325 12c4 8C110000 		.4byte	0x118c
 6326 12c8 05       		.uleb128 0x5
 6327 12c9 03       		.byte	0x3
 6328 12ca 00000000 		.4byte	PRN_ACCOUNTTYPE
 6329 12ce 18       		.uleb128 0x18
 6330 12cf 3B020000 		.4byte	.LASF82
 6331 12d3 01       		.byte	0x1
ARM GAS  C:\Users\Lenovo\AppData\Local\Temp\ccXim33P.s 			page 129


 6332 12d4 32       		.byte	0x32
 6333 12d5 8C110000 		.4byte	0x118c
 6334 12d9 05       		.uleb128 0x5
 6335 12da 03       		.byte	0x3
 6336 12db 00000000 		.4byte	PRN_VISITSDAY
 6337 12df 18       		.uleb128 0x18
 6338 12e0 37010000 		.4byte	.LASF83
 6339 12e4 01       		.byte	0x1
 6340 12e5 33       		.byte	0x33
 6341 12e6 8C110000 		.4byte	0x118c
 6342 12ea 05       		.uleb128 0x5
 6343 12eb 03       		.byte	0x3
 6344 12ec 00000000 		.4byte	PRN_VISITSWEEK
 6345 12f0 18       		.uleb128 0x18
 6346 12f1 19000000 		.4byte	.LASF84
 6347 12f5 01       		.byte	0x1
 6348 12f6 34       		.byte	0x34
 6349 12f7 8C110000 		.4byte	0x118c
 6350 12fb 05       		.uleb128 0x5
 6351 12fc 03       		.byte	0x3
 6352 12fd 00000000 		.4byte	PRN_VISITSMONTH
 6353 1301 18       		.uleb128 0x18
 6354 1302 E6020000 		.4byte	.LASF85
 6355 1306 01       		.byte	0x1
 6356 1307 35       		.byte	0x35
 6357 1308 8C110000 		.4byte	0x118c
 6358 130c 05       		.uleb128 0x5
 6359 130d 03       		.byte	0x3
 6360 130e 00000000 		.4byte	PRN_VOLUMEDAY
 6361 1312 18       		.uleb128 0x18
 6362 1313 8E040000 		.4byte	.LASF86
 6363 1317 01       		.byte	0x1
 6364 1318 36       		.byte	0x36
 6365 1319 8C110000 		.4byte	0x118c
 6366 131d 05       		.uleb128 0x5
 6367 131e 03       		.byte	0x3
 6368 131f 00000000 		.4byte	PRN_VOLUMEWEEK
 6369 1323 18       		.uleb128 0x18
 6370 1324 7C030000 		.4byte	.LASF87
 6371 1328 01       		.byte	0x1
 6372 1329 37       		.byte	0x37
 6373 132a 8C110000 		.4byte	0x118c
 6374 132e 05       		.uleb128 0x5
 6375 132f 03       		.byte	0x3
 6376 1330 00000000 		.4byte	PRN_VOLUMEMONTH
 6377 1334 18       		.uleb128 0x18
 6378 1335 ED030000 		.4byte	.LASF88
 6379 1339 01       		.byte	0x1
 6380 133a 38       		.byte	0x38
 6381 133b 8C110000 		.4byte	0x118c
 6382 133f 05       		.uleb128 0x5
 6383 1340 03       		.byte	0x3
 6384 1341 00000000 		.4byte	PRN_MONEYDAY
 6385 1345 18       		.uleb128 0x18
 6386 1346 13010000 		.4byte	.LASF89
 6387 134a 01       		.byte	0x1
 6388 134b 39       		.byte	0x39
ARM GAS  C:\Users\Lenovo\AppData\Local\Temp\ccXim33P.s 			page 130


 6389 134c 8C110000 		.4byte	0x118c
 6390 1350 05       		.uleb128 0x5
 6391 1351 03       		.byte	0x3
 6392 1352 00000000 		.4byte	PRN_MONEYWEEK
 6393 1356 18       		.uleb128 0x18
 6394 1357 50030000 		.4byte	.LASF90
 6395 135b 01       		.byte	0x1
 6396 135c 3A       		.byte	0x3a
 6397 135d 8C110000 		.4byte	0x118c
 6398 1361 05       		.uleb128 0x5
 6399 1362 03       		.byte	0x3
 6400 1363 00000000 		.4byte	PRN_MONEYMONTH
 6401 1367 18       		.uleb128 0x18
 6402 1368 1A020000 		.4byte	.LASF91
 6403 136c 01       		.byte	0x1
 6404 136d 3B       		.byte	0x3b
 6405 136e 8C110000 		.4byte	0x118c
 6406 1372 05       		.uleb128 0x5
 6407 1373 03       		.byte	0x3
 6408 1374 00000000 		.4byte	PRN_PRESET
 6409 1378 18       		.uleb128 0x18
 6410 1379 80040000 		.4byte	.LASF92
 6411 137d 01       		.byte	0x1
 6412 137e 3C       		.byte	0x3c
 6413 137f 8C110000 		.4byte	0x118c
 6414 1383 05       		.uleb128 0x5
 6415 1384 03       		.byte	0x3
 6416 1385 00000000 		.4byte	PRN_SIGNATURE
 6417 1389 18       		.uleb128 0x18
 6418 138a BC020000 		.4byte	.LASF93
 6419 138e 01       		.byte	0x1
 6420 138f 3D       		.byte	0x3d
 6421 1390 8C110000 		.4byte	0x118c
 6422 1394 05       		.uleb128 0x5
 6423 1395 03       		.byte	0x3
 6424 1396 00000000 		.4byte	PRN_ID
 6425 139a 0A       		.uleb128 0xa
 6426 139b 81000000 		.4byte	0x81
 6427 139f AA130000 		.4byte	0x13aa
 6428 13a3 0B       		.uleb128 0xb
 6429 13a4 C1000000 		.4byte	0xc1
 6430 13a8 00       		.byte	0
 6431 13a9 00       		.byte	0
 6432 13aa 18       		.uleb128 0x18
 6433 13ab 7C010000 		.4byte	.LASF94
 6434 13af 01       		.byte	0x1
 6435 13b0 3E       		.byte	0x3e
 6436 13b1 9A130000 		.4byte	0x139a
 6437 13b5 05       		.uleb128 0x5
 6438 13b6 03       		.byte	0x3
 6439 13b7 00000000 		.4byte	PRN_CURRENCY
 6440 13bb 0A       		.uleb128 0xa
 6441 13bc 81000000 		.4byte	0x81
 6442 13c0 CB130000 		.4byte	0x13cb
 6443 13c4 0B       		.uleb128 0xb
 6444 13c5 C1000000 		.4byte	0xc1
 6445 13c9 17       		.byte	0x17
ARM GAS  C:\Users\Lenovo\AppData\Local\Temp\ccXim33P.s 			page 131


 6446 13ca 00       		.byte	0
 6447 13cb 18       		.uleb128 0x18
 6448 13cc 15030000 		.4byte	.LASF95
 6449 13d0 01       		.byte	0x1
 6450 13d1 3F       		.byte	0x3f
 6451 13d2 BB130000 		.4byte	0x13bb
 6452 13d6 05       		.uleb128 0x5
 6453 13d7 03       		.byte	0x3
 6454 13d8 00000000 		.4byte	SEPARATOR
 6455 13dc 0A       		.uleb128 0xa
 6456 13dd 81000000 		.4byte	0x81
 6457 13e1 EC130000 		.4byte	0x13ec
 6458 13e5 0B       		.uleb128 0xb
 6459 13e6 C1000000 		.4byte	0xc1
 6460 13ea 05       		.byte	0x5
 6461 13eb 00       		.byte	0
 6462 13ec 18       		.uleb128 0x18
 6463 13ed 9B020000 		.4byte	.LASF96
 6464 13f1 01       		.byte	0x1
 6465 13f2 40       		.byte	0x40
 6466 13f3 DC130000 		.4byte	0x13dc
 6467 13f7 05       		.uleb128 0x5
 6468 13f8 03       		.byte	0x3
 6469 13f9 00000000 		.4byte	ASK_TIME
 6470 13fd 00       		.byte	0
 6471              		.section	.debug_abbrev,"",%progbits
 6472              	.Ldebug_abbrev0:
 6473 0000 01       		.uleb128 0x1
 6474 0001 11       		.uleb128 0x11
 6475 0002 01       		.byte	0x1
 6476 0003 25       		.uleb128 0x25
 6477 0004 0E       		.uleb128 0xe
 6478 0005 13       		.uleb128 0x13
 6479 0006 0B       		.uleb128 0xb
 6480 0007 03       		.uleb128 0x3
 6481 0008 0E       		.uleb128 0xe
 6482 0009 1B       		.uleb128 0x1b
 6483 000a 0E       		.uleb128 0xe
 6484 000b 55       		.uleb128 0x55
 6485 000c 17       		.uleb128 0x17
 6486 000d 11       		.uleb128 0x11
 6487 000e 01       		.uleb128 0x1
 6488 000f 10       		.uleb128 0x10
 6489 0010 17       		.uleb128 0x17
 6490 0011 00       		.byte	0
 6491 0012 00       		.byte	0
 6492 0013 02       		.uleb128 0x2
 6493 0014 24       		.uleb128 0x24
 6494 0015 00       		.byte	0
 6495 0016 0B       		.uleb128 0xb
 6496 0017 0B       		.uleb128 0xb
 6497 0018 3E       		.uleb128 0x3e
 6498 0019 0B       		.uleb128 0xb
 6499 001a 03       		.uleb128 0x3
 6500 001b 0E       		.uleb128 0xe
 6501 001c 00       		.byte	0
 6502 001d 00       		.byte	0
ARM GAS  C:\Users\Lenovo\AppData\Local\Temp\ccXim33P.s 			page 132


 6503 001e 03       		.uleb128 0x3
 6504 001f 16       		.uleb128 0x16
 6505 0020 00       		.byte	0
 6506 0021 03       		.uleb128 0x3
 6507 0022 0E       		.uleb128 0xe
 6508 0023 3A       		.uleb128 0x3a
 6509 0024 0B       		.uleb128 0xb
 6510 0025 3B       		.uleb128 0x3b
 6511 0026 0B       		.uleb128 0xb
 6512 0027 49       		.uleb128 0x49
 6513 0028 13       		.uleb128 0x13
 6514 0029 00       		.byte	0
 6515 002a 00       		.byte	0
 6516 002b 04       		.uleb128 0x4
 6517 002c 24       		.uleb128 0x24
 6518 002d 00       		.byte	0
 6519 002e 0B       		.uleb128 0xb
 6520 002f 0B       		.uleb128 0xb
 6521 0030 3E       		.uleb128 0x3e
 6522 0031 0B       		.uleb128 0xb
 6523 0032 03       		.uleb128 0x3
 6524 0033 08       		.uleb128 0x8
 6525 0034 00       		.byte	0
 6526 0035 00       		.byte	0
 6527 0036 05       		.uleb128 0x5
 6528 0037 16       		.uleb128 0x16
 6529 0038 00       		.byte	0
 6530 0039 03       		.uleb128 0x3
 6531 003a 0E       		.uleb128 0xe
 6532 003b 3A       		.uleb128 0x3a
 6533 003c 0B       		.uleb128 0xb
 6534 003d 3B       		.uleb128 0x3b
 6535 003e 05       		.uleb128 0x5
 6536 003f 49       		.uleb128 0x49
 6537 0040 13       		.uleb128 0x13
 6538 0041 00       		.byte	0
 6539 0042 00       		.byte	0
 6540 0043 06       		.uleb128 0x6
 6541 0044 13       		.uleb128 0x13
 6542 0045 01       		.byte	0x1
 6543 0046 03       		.uleb128 0x3
 6544 0047 0E       		.uleb128 0xe
 6545 0048 0B       		.uleb128 0xb
 6546 0049 05       		.uleb128 0x5
 6547 004a 3A       		.uleb128 0x3a
 6548 004b 0B       		.uleb128 0xb
 6549 004c 3B       		.uleb128 0x3b
 6550 004d 0B       		.uleb128 0xb
 6551 004e 01       		.uleb128 0x1
 6552 004f 13       		.uleb128 0x13
 6553 0050 00       		.byte	0
 6554 0051 00       		.byte	0
 6555 0052 07       		.uleb128 0x7
 6556 0053 0D       		.uleb128 0xd
 6557 0054 00       		.byte	0
 6558 0055 03       		.uleb128 0x3
 6559 0056 08       		.uleb128 0x8
ARM GAS  C:\Users\Lenovo\AppData\Local\Temp\ccXim33P.s 			page 133


 6560 0057 3A       		.uleb128 0x3a
 6561 0058 0B       		.uleb128 0xb
 6562 0059 3B       		.uleb128 0x3b
 6563 005a 0B       		.uleb128 0xb
 6564 005b 49       		.uleb128 0x49
 6565 005c 13       		.uleb128 0x13
 6566 005d 38       		.uleb128 0x38
 6567 005e 0B       		.uleb128 0xb
 6568 005f 00       		.byte	0
 6569 0060 00       		.byte	0
 6570 0061 08       		.uleb128 0x8
 6571 0062 0D       		.uleb128 0xd
 6572 0063 00       		.byte	0
 6573 0064 03       		.uleb128 0x3
 6574 0065 0E       		.uleb128 0xe
 6575 0066 3A       		.uleb128 0x3a
 6576 0067 0B       		.uleb128 0xb
 6577 0068 3B       		.uleb128 0x3b
 6578 0069 0B       		.uleb128 0xb
 6579 006a 49       		.uleb128 0x49
 6580 006b 13       		.uleb128 0x13
 6581 006c 38       		.uleb128 0x38
 6582 006d 0B       		.uleb128 0xb
 6583 006e 00       		.byte	0
 6584 006f 00       		.byte	0
 6585 0070 09       		.uleb128 0x9
 6586 0071 0D       		.uleb128 0xd
 6587 0072 00       		.byte	0
 6588 0073 03       		.uleb128 0x3
 6589 0074 0E       		.uleb128 0xe
 6590 0075 3A       		.uleb128 0x3a
 6591 0076 0B       		.uleb128 0xb
 6592 0077 3B       		.uleb128 0x3b
 6593 0078 0B       		.uleb128 0xb
 6594 0079 49       		.uleb128 0x49
 6595 007a 13       		.uleb128 0x13
 6596 007b 38       		.uleb128 0x38
 6597 007c 05       		.uleb128 0x5
 6598 007d 00       		.byte	0
 6599 007e 00       		.byte	0
 6600 007f 0A       		.uleb128 0xa
 6601 0080 01       		.uleb128 0x1
 6602 0081 01       		.byte	0x1
 6603 0082 49       		.uleb128 0x49
 6604 0083 13       		.uleb128 0x13
 6605 0084 01       		.uleb128 0x1
 6606 0085 13       		.uleb128 0x13
 6607 0086 00       		.byte	0
 6608 0087 00       		.byte	0
 6609 0088 0B       		.uleb128 0xb
 6610 0089 21       		.uleb128 0x21
 6611 008a 00       		.byte	0
 6612 008b 49       		.uleb128 0x49
 6613 008c 13       		.uleb128 0x13
 6614 008d 2F       		.uleb128 0x2f
 6615 008e 0B       		.uleb128 0xb
 6616 008f 00       		.byte	0
ARM GAS  C:\Users\Lenovo\AppData\Local\Temp\ccXim33P.s 			page 134


 6617 0090 00       		.byte	0
 6618 0091 0C       		.uleb128 0xc
 6619 0092 0D       		.uleb128 0xd
 6620 0093 00       		.byte	0
 6621 0094 03       		.uleb128 0x3
 6622 0095 08       		.uleb128 0x8
 6623 0096 3A       		.uleb128 0x3a
 6624 0097 0B       		.uleb128 0xb
 6625 0098 3B       		.uleb128 0x3b
 6626 0099 0B       		.uleb128 0xb
 6627 009a 49       		.uleb128 0x49
 6628 009b 13       		.uleb128 0x13
 6629 009c 38       		.uleb128 0x38
 6630 009d 05       		.uleb128 0x5
 6631 009e 00       		.byte	0
 6632 009f 00       		.byte	0
 6633 00a0 0D       		.uleb128 0xd
 6634 00a1 2E       		.uleb128 0x2e
 6635 00a2 01       		.byte	0x1
 6636 00a3 3F       		.uleb128 0x3f
 6637 00a4 19       		.uleb128 0x19
 6638 00a5 03       		.uleb128 0x3
 6639 00a6 0E       		.uleb128 0xe
 6640 00a7 3A       		.uleb128 0x3a
 6641 00a8 0B       		.uleb128 0xb
 6642 00a9 3B       		.uleb128 0x3b
 6643 00aa 0B       		.uleb128 0xb
 6644 00ab 27       		.uleb128 0x27
 6645 00ac 19       		.uleb128 0x19
 6646 00ad 11       		.uleb128 0x11
 6647 00ae 01       		.uleb128 0x1
 6648 00af 12       		.uleb128 0x12
 6649 00b0 06       		.uleb128 0x6
 6650 00b1 40       		.uleb128 0x40
 6651 00b2 18       		.uleb128 0x18
 6652 00b3 9642     		.uleb128 0x2116
 6653 00b5 19       		.uleb128 0x19
 6654 00b6 01       		.uleb128 0x1
 6655 00b7 13       		.uleb128 0x13
 6656 00b8 00       		.byte	0
 6657 00b9 00       		.byte	0
 6658 00ba 0E       		.uleb128 0xe
 6659 00bb 05       		.uleb128 0x5
 6660 00bc 00       		.byte	0
 6661 00bd 03       		.uleb128 0x3
 6662 00be 0E       		.uleb128 0xe
 6663 00bf 3A       		.uleb128 0x3a
 6664 00c0 0B       		.uleb128 0xb
 6665 00c1 3B       		.uleb128 0x3b
 6666 00c2 0B       		.uleb128 0xb
 6667 00c3 49       		.uleb128 0x49
 6668 00c4 13       		.uleb128 0x13
 6669 00c5 02       		.uleb128 0x2
 6670 00c6 18       		.uleb128 0x18
 6671 00c7 00       		.byte	0
 6672 00c8 00       		.byte	0
 6673 00c9 0F       		.uleb128 0xf
ARM GAS  C:\Users\Lenovo\AppData\Local\Temp\ccXim33P.s 			page 135


 6674 00ca 34       		.uleb128 0x34
 6675 00cb 00       		.byte	0
 6676 00cc 03       		.uleb128 0x3
 6677 00cd 0E       		.uleb128 0xe
 6678 00ce 3A       		.uleb128 0x3a
 6679 00cf 0B       		.uleb128 0xb
 6680 00d0 3B       		.uleb128 0x3b
 6681 00d1 0B       		.uleb128 0xb
 6682 00d2 49       		.uleb128 0x49
 6683 00d3 13       		.uleb128 0x13
 6684 00d4 02       		.uleb128 0x2
 6685 00d5 18       		.uleb128 0x18
 6686 00d6 00       		.byte	0
 6687 00d7 00       		.byte	0
 6688 00d8 10       		.uleb128 0x10
 6689 00d9 0B       		.uleb128 0xb
 6690 00da 01       		.byte	0x1
 6691 00db 11       		.uleb128 0x11
 6692 00dc 01       		.uleb128 0x1
 6693 00dd 12       		.uleb128 0x12
 6694 00de 06       		.uleb128 0x6
 6695 00df 01       		.uleb128 0x1
 6696 00e0 13       		.uleb128 0x13
 6697 00e1 00       		.byte	0
 6698 00e2 00       		.byte	0
 6699 00e3 11       		.uleb128 0x11
 6700 00e4 34       		.uleb128 0x34
 6701 00e5 00       		.byte	0
 6702 00e6 03       		.uleb128 0x3
 6703 00e7 08       		.uleb128 0x8
 6704 00e8 3A       		.uleb128 0x3a
 6705 00e9 0B       		.uleb128 0xb
 6706 00ea 3B       		.uleb128 0x3b
 6707 00eb 0B       		.uleb128 0xb
 6708 00ec 49       		.uleb128 0x49
 6709 00ed 13       		.uleb128 0x13
 6710 00ee 02       		.uleb128 0x2
 6711 00ef 18       		.uleb128 0x18
 6712 00f0 00       		.byte	0
 6713 00f1 00       		.byte	0
 6714 00f2 12       		.uleb128 0x12
 6715 00f3 34       		.uleb128 0x34
 6716 00f4 00       		.byte	0
 6717 00f5 03       		.uleb128 0x3
 6718 00f6 08       		.uleb128 0x8
 6719 00f7 3A       		.uleb128 0x3a
 6720 00f8 0B       		.uleb128 0xb
 6721 00f9 3B       		.uleb128 0x3b
 6722 00fa 05       		.uleb128 0x5
 6723 00fb 49       		.uleb128 0x49
 6724 00fc 13       		.uleb128 0x13
 6725 00fd 02       		.uleb128 0x2
 6726 00fe 18       		.uleb128 0x18
 6727 00ff 00       		.byte	0
 6728 0100 00       		.byte	0
 6729 0101 13       		.uleb128 0x13
 6730 0102 0B       		.uleb128 0xb
ARM GAS  C:\Users\Lenovo\AppData\Local\Temp\ccXim33P.s 			page 136


 6731 0103 01       		.byte	0x1
 6732 0104 11       		.uleb128 0x11
 6733 0105 01       		.uleb128 0x1
 6734 0106 12       		.uleb128 0x12
 6735 0107 06       		.uleb128 0x6
 6736 0108 00       		.byte	0
 6737 0109 00       		.byte	0
 6738 010a 14       		.uleb128 0x14
 6739 010b 2E       		.uleb128 0x2e
 6740 010c 01       		.byte	0x1
 6741 010d 3F       		.uleb128 0x3f
 6742 010e 19       		.uleb128 0x19
 6743 010f 03       		.uleb128 0x3
 6744 0110 0E       		.uleb128 0xe
 6745 0111 3A       		.uleb128 0x3a
 6746 0112 0B       		.uleb128 0xb
 6747 0113 3B       		.uleb128 0x3b
 6748 0114 05       		.uleb128 0x5
 6749 0115 27       		.uleb128 0x27
 6750 0116 19       		.uleb128 0x19
 6751 0117 11       		.uleb128 0x11
 6752 0118 01       		.uleb128 0x1
 6753 0119 12       		.uleb128 0x12
 6754 011a 06       		.uleb128 0x6
 6755 011b 40       		.uleb128 0x40
 6756 011c 18       		.uleb128 0x18
 6757 011d 9642     		.uleb128 0x2116
 6758 011f 19       		.uleb128 0x19
 6759 0120 01       		.uleb128 0x1
 6760 0121 13       		.uleb128 0x13
 6761 0122 00       		.byte	0
 6762 0123 00       		.byte	0
 6763 0124 15       		.uleb128 0x15
 6764 0125 05       		.uleb128 0x5
 6765 0126 00       		.byte	0
 6766 0127 03       		.uleb128 0x3
 6767 0128 0E       		.uleb128 0xe
 6768 0129 3A       		.uleb128 0x3a
 6769 012a 0B       		.uleb128 0xb
 6770 012b 3B       		.uleb128 0x3b
 6771 012c 05       		.uleb128 0x5
 6772 012d 49       		.uleb128 0x49
 6773 012e 13       		.uleb128 0x13
 6774 012f 02       		.uleb128 0x2
 6775 0130 18       		.uleb128 0x18
 6776 0131 00       		.byte	0
 6777 0132 00       		.byte	0
 6778 0133 16       		.uleb128 0x16
 6779 0134 34       		.uleb128 0x34
 6780 0135 00       		.byte	0
 6781 0136 03       		.uleb128 0x3
 6782 0137 0E       		.uleb128 0xe
 6783 0138 3A       		.uleb128 0x3a
 6784 0139 0B       		.uleb128 0xb
 6785 013a 3B       		.uleb128 0x3b
 6786 013b 05       		.uleb128 0x5
 6787 013c 49       		.uleb128 0x49
ARM GAS  C:\Users\Lenovo\AppData\Local\Temp\ccXim33P.s 			page 137


 6788 013d 13       		.uleb128 0x13
 6789 013e 3F       		.uleb128 0x3f
 6790 013f 19       		.uleb128 0x19
 6791 0140 3C       		.uleb128 0x3c
 6792 0141 19       		.uleb128 0x19
 6793 0142 00       		.byte	0
 6794 0143 00       		.byte	0
 6795 0144 17       		.uleb128 0x17
 6796 0145 35       		.uleb128 0x35
 6797 0146 00       		.byte	0
 6798 0147 49       		.uleb128 0x49
 6799 0148 13       		.uleb128 0x13
 6800 0149 00       		.byte	0
 6801 014a 00       		.byte	0
 6802 014b 18       		.uleb128 0x18
 6803 014c 34       		.uleb128 0x34
 6804 014d 00       		.byte	0
 6805 014e 03       		.uleb128 0x3
 6806 014f 0E       		.uleb128 0xe
 6807 0150 3A       		.uleb128 0x3a
 6808 0151 0B       		.uleb128 0xb
 6809 0152 3B       		.uleb128 0x3b
 6810 0153 0B       		.uleb128 0xb
 6811 0154 49       		.uleb128 0x49
 6812 0155 13       		.uleb128 0x13
 6813 0156 3F       		.uleb128 0x3f
 6814 0157 19       		.uleb128 0x19
 6815 0158 02       		.uleb128 0x2
 6816 0159 18       		.uleb128 0x18
 6817 015a 00       		.byte	0
 6818 015b 00       		.byte	0
 6819 015c 19       		.uleb128 0x19
 6820 015d 34       		.uleb128 0x34
 6821 015e 00       		.byte	0
 6822 015f 03       		.uleb128 0x3
 6823 0160 08       		.uleb128 0x8
 6824 0161 3A       		.uleb128 0x3a
 6825 0162 0B       		.uleb128 0xb
 6826 0163 3B       		.uleb128 0x3b
 6827 0164 0B       		.uleb128 0xb
 6828 0165 49       		.uleb128 0x49
 6829 0166 13       		.uleb128 0x13
 6830 0167 3F       		.uleb128 0x3f
 6831 0168 19       		.uleb128 0x19
 6832 0169 02       		.uleb128 0x2
 6833 016a 18       		.uleb128 0x18
 6834 016b 00       		.byte	0
 6835 016c 00       		.byte	0
 6836 016d 00       		.byte	0
 6837              		.section	.debug_aranges,"",%progbits
 6838 0000 24000000 		.4byte	0x24
 6839 0004 0200     		.2byte	0x2
 6840 0006 00000000 		.4byte	.Ldebug_info0
 6841 000a 04       		.byte	0x4
 6842 000b 00       		.byte	0
 6843 000c 0000     		.2byte	0
 6844 000e 0000     		.2byte	0
ARM GAS  C:\Users\Lenovo\AppData\Local\Temp\ccXim33P.s 			page 138


 6845 0010 00000000 		.4byte	.LFB63
 6846 0014 44140000 		.4byte	.LFE63-.LFB63
 6847 0018 00000000 		.4byte	.LFB64
 6848 001c E0050000 		.4byte	.LFE64-.LFB64
 6849 0020 00000000 		.4byte	0
 6850 0024 00000000 		.4byte	0
 6851              		.section	.debug_ranges,"",%progbits
 6852              	.Ldebug_ranges0:
 6853 0000 00000000 		.4byte	.LFB63
 6854 0004 44140000 		.4byte	.LFE63
 6855 0008 00000000 		.4byte	.LFB64
 6856 000c E0050000 		.4byte	.LFE64
 6857 0010 00000000 		.4byte	0
 6858 0014 00000000 		.4byte	0
 6859              		.section	.debug_line,"",%progbits
 6860              	.Ldebug_line0:
 6861 0000 9A0A0000 		.section	.debug_str,"MS",%progbits,1
 6861      02005B01 
 6861      00000201 
 6861      FB0E0D00 
 6861      01010101 
 6862              	.LASF65:
 6863 0000 6D736E5F 		.ascii	"msn_hora\000"
 6863      686F7261 
 6863      00
 6864              	.LASF31:
 6865 0009 706F7369 		.ascii	"position\000"
 6865      74696F6E 
 6865      00
 6866              	.LASF50:
 6867 0012 44656356 		.ascii	"DecVol\000"
 6867      6F6C00
 6868              	.LASF84:
 6869 0019 50524E5F 		.ascii	"PRN_VISITSMONTH\000"
 6869      56495349 
 6869      54534D4F 
 6869      4E544800 
 6870              	.LASF55:
 6871 0029 6D736E5F 		.ascii	"msn_EDS\000"
 6871      45445300 
 6872              	.LASF27:
 6873 0031 50726F63 		.ascii	"ProcessedTotals\000"
 6873      65737365 
 6873      64546F74 
 6873      616C7300 
 6874              	.LASF2:
 6875 0041 73686F72 		.ascii	"short int\000"
 6875      7420696E 
 6875      7400
 6876              	.LASF18:
 6877 004b 73697A65 		.ascii	"sizetype\000"
 6877      74797065 
 6877      00
 6878              	.LASF39:
 6879 0054 506F6C6C 		.ascii	"PollCounter\000"
 6879      436F756E 
 6879      74657200 
ARM GAS  C:\Users\Lenovo\AppData\Local\Temp\ccXim33P.s 			page 139


 6880              	.LASF67:
 6881 0060 50524E5F 		.ascii	"PRN_MILLEAGE\000"
 6881      4D494C4C 
 6881      45414745 
 6881      00
 6882              	.LASF97:
 6883 006d 474E5520 		.ascii	"GNU C11 5.4.1 20160609 (release) [ARM/embedded-5-br"
 6883      43313120 
 6883      352E342E 
 6883      31203230 
 6883      31363036 
 6884 00a0 616E6368 		.ascii	"anch revision 237715] -mcpu=cortex-m3 -mthumb -g -O"
 6884      20726576 
 6884      6973696F 
 6884      6E203233 
 6884      37373135 
 6885 00d3 30202D66 		.ascii	"0 -ffunction-sections -ffat-lto-objects\000"
 6885      66756E63 
 6885      74696F6E 
 6885      2D736563 
 6885      74696F6E 
 6886              	.LASF6:
 6887 00fb 6C6F6E67 		.ascii	"long long int\000"
 6887      206C6F6E 
 6887      6720696E 
 6887      7400
 6888              	.LASF54:
 6889 0109 566F6C53 		.ascii	"VolSimbol\000"
 6889      696D626F 
 6889      6C00
 6890              	.LASF89:
 6891 0113 50524E5F 		.ascii	"PRN_MONEYWEEK\000"
 6891      4D4F4E45 
 6891      59574545 
 6891      4B00
 6892              	.LASF48:
 6893 0121 506F7369 		.ascii	"Positions\000"
 6893      74696F6E 
 6893      7300
 6894              	.LASF78:
 6895 012b 50524E5F 		.ascii	"PRN_COMPANY\000"
 6895      434F4D50 
 6895      414E5900 
 6896              	.LASF83:
 6897 0137 50524E5F 		.ascii	"PRN_VISITSWEEK\000"
 6897      56495349 
 6897      54535745 
 6897      454B00
 6898              	.LASF12:
 6899 0146 75696E74 		.ascii	"uint16\000"
 6899      313600
 6900              	.LASF20:
 6901 014d 7070754E 		.ascii	"ppuNozzle\000"
 6901      6F7A7A6C 
 6901      6500
 6902              	.LASF11:
 6903 0157 75696E74 		.ascii	"uint8\000"
ARM GAS  C:\Users\Lenovo\AppData\Local\Temp\ccXim33P.s 			page 140


 6903      3800
 6904              	.LASF74:
 6905 015d 6D736E5F 		.ascii	"msn_din\000"
 6905      64696E00 
 6906              	.LASF73:
 6907 0165 6D736E5F 		.ascii	"msn_voltot\000"
 6907      766F6C74 
 6907      6F7400
 6908              	.LASF70:
 6909 0170 6D736E5F 		.ascii	"msn_product\000"
 6909      70726F64 
 6909      75637400 
 6910              	.LASF94:
 6911 017c 50524E5F 		.ascii	"PRN_CURRENCY\000"
 6911      43555252 
 6911      454E4359 
 6911      00
 6912              	.LASF77:
 6913 0189 50524E5F 		.ascii	"PRN_BALANCE\000"
 6913      42414C41 
 6913      4E434500 
 6914              	.LASF14:
 6915 0195 666C6F61 		.ascii	"float\000"
 6915      7400
 6916              	.LASF41:
 6917 019b 52656365 		.ascii	"Receipt\000"
 6917      69707400 
 6918              	.LASF66:
 6919 01a3 6D736E5F 		.ascii	"msn_placa\000"
 6919      706C6163 
 6919      6100
 6920              	.LASF13:
 6921 01ad 696E7438 		.ascii	"int8\000"
 6921      00
 6922              	.LASF25:
 6923 01b2 73746174 		.ascii	"states\000"
 6923      657300
 6924              	.LASF80:
 6925 01b9 50524E5F 		.ascii	"PRN_SERIAL\000"
 6925      53455249 
 6925      414C00
 6926              	.LASF79:
 6927 01c4 50524E5F 		.ascii	"PRN_ACCOUNT\000"
 6927      4143434F 
 6927      554E5400 
 6928              	.LASF4:
 6929 01d0 6C6F6E67 		.ascii	"long int\000"
 6929      20696E74 
 6929      00
 6930              	.LASF64:
 6931 01d9 6D736E5F 		.ascii	"msn_fecha\000"
 6931      66656368 
 6931      6100
 6932              	.LASF29:
 6933 01e3 50726F63 		.ascii	"ProcessedvolumeSale\000"
 6933      65737365 
 6933      64766F6C 
ARM GAS  C:\Users\Lenovo\AppData\Local\Temp\ccXim33P.s 			page 141


 6933      756D6553 
 6933      616C6500 
 6934              	.LASF37:
 6935 01f7 61646472 		.ascii	"address\000"
 6935      65737300 
 6936              	.LASF52:
 6937 01ff 64697247 		.ascii	"dirGbr\000"
 6937      627200
 6938              	.LASF22:
 6939 0206 766F6C75 		.ascii	"volumeSale\000"
 6939      6D655361 
 6939      6C6500
 6940              	.LASF57:
 6941 0211 6D736E5F 		.ascii	"msn_EDS3\000"
 6941      45445333 
 6941      00
 6942              	.LASF91:
 6943 021a 50524E5F 		.ascii	"PRN_PRESET\000"
 6943      50524553 
 6943      455400
 6944              	.LASF35:
 6945 0225 5072696E 		.ascii	"PrintReceipt\000"
 6945      74526563 
 6945      65697074 
 6945      00
 6946              	.LASF58:
 6947 0232 6D736E5F 		.ascii	"msn_EDS4\000"
 6947      45445334 
 6947      00
 6948              	.LASF82:
 6949 023b 50524E5F 		.ascii	"PRN_VISITSDAY\000"
 6949      56495349 
 6949      54534441 
 6949      5900
 6950              	.LASF53:
 6951 0249 4C494E45 		.ascii	"LINE_FEED\000"
 6951      5F464545 
 6951      4400
 6952              	.LASF44:
 6953 0253 4D657073 		.ascii	"MepsanSendTo\000"
 6953      616E5365 
 6953      6E64546F 
 6953      00
 6954              	.LASF56:
 6955 0260 6D736E5F 		.ascii	"msn_EDS2\000"
 6955      45445332 
 6955      00
 6956              	.LASF24:
 6957 0269 70726F64 		.ascii	"productSale\000"
 6957      75637453 
 6957      616C6500 
 6958              	.LASF17:
 6959 0275 6C6F6E67 		.ascii	"long double\000"
 6959      20646F75 
 6959      626C6500 
 6960              	.LASF45:
 6961 0281 50756D70 		.ascii	"PumpAddress\000"
ARM GAS  C:\Users\Lenovo\AppData\Local\Temp\ccXim33P.s 			page 142


 6961      41646472 
 6961      65737300 
 6962              	.LASF1:
 6963 028d 756E7369 		.ascii	"unsigned char\000"
 6963      676E6564 
 6963      20636861 
 6963      7200
 6964              	.LASF96:
 6965 029b 41534B5F 		.ascii	"ASK_TIME\000"
 6965      54494D45 
 6965      00
 6966              	.LASF40:
 6967 02a4 43757272 		.ascii	"CurrentState\000"
 6967      656E7453 
 6967      74617465 
 6967      00
 6968              	.LASF36:
 6969 02b1 5072696E 		.ascii	"PrintShift\000"
 6969      74536869 
 6969      667400
 6970              	.LASF93:
 6971 02bc 50524E5F 		.ascii	"PRN_ID\000"
 6971      494400
 6972              	.LASF0:
 6973 02c3 7369676E 		.ascii	"signed char\000"
 6973      65642063 
 6973      68617200 
 6974              	.LASF7:
 6975 02cf 6C6F6E67 		.ascii	"long long unsigned int\000"
 6975      206C6F6E 
 6975      6720756E 
 6975      7369676E 
 6975      65642069 
 6976              	.LASF85:
 6977 02e6 50524E5F 		.ascii	"PRN_VOLUMEDAY\000"
 6977      564F4C55 
 6977      4D454441 
 6977      5900
 6978              	.LASF8:
 6979 02f4 756E7369 		.ascii	"unsigned int\000"
 6979      676E6564 
 6979      20696E74 
 6979      00
 6980              	.LASF34:
 6981 0301 4C434452 		.ascii	"LCDRx\000"
 6981      7800
 6982              	.LASF68:
 6983 0307 50524E5F 		.ascii	"PRN_TRANSTYPE\000"
 6983      5452414E 
 6983      53545950 
 6983      4500
 6984              	.LASF95:
 6985 0315 53455041 		.ascii	"SEPARATOR\000"
 6985      5241544F 
 6985      5200
 6986              	.LASF23:
 6987 031f 70707553 		.ascii	"ppuSale\000"
ARM GAS  C:\Users\Lenovo\AppData\Local\Temp\ccXim33P.s 			page 143


 6987      616C6500 
 6988              	.LASF81:
 6989 0327 50524E5F 		.ascii	"PRN_ACCOUNTTYPE\000"
 6989      4143434F 
 6989      554E5454 
 6989      59504500 
 6990              	.LASF33:
 6991 0337 73637265 		.ascii	"screen_size\000"
 6991      656E5F73 
 6991      697A6500 
 6992              	.LASF19:
 6993 0343 746F7461 		.ascii	"totalsNozzle\000"
 6993      6C734E6F 
 6993      7A7A6C65 
 6993      00
 6994              	.LASF90:
 6995 0350 50524E5F 		.ascii	"PRN_MONEYMONTH\000"
 6995      4D4F4E45 
 6995      594D4F4E 
 6995      544800
 6996              	.LASF3:
 6997 035f 73686F72 		.ascii	"short unsigned int\000"
 6997      7420756E 
 6997      7369676E 
 6997      65642069 
 6997      6E7400
 6998              	.LASF21:
 6999 0372 6D6F6E65 		.ascii	"moneySale\000"
 6999      7953616C 
 6999      6500
 7000              	.LASF87:
 7001 037c 50524E5F 		.ascii	"PRN_VOLUMEMONTH\000"
 7001      564F4C55 
 7001      4D454D4F 
 7001      4E544800 
 7002              	.LASF16:
 7003 038c 63686172 		.ascii	"char\000"
 7003      00
 7004              	.LASF46:
 7005 0391 6372635F 		.ascii	"crc_lo\000"
 7005      6C6F00
 7006              	.LASF10:
 7007 0398 696E7433 		.ascii	"int32_t\000"
 7007      325F7400 
 7008              	.LASF69:
 7009 03a0 6D736E5F 		.ascii	"msn_pos\000"
 7009      706F7300 
 7010              	.LASF76:
 7011 03a8 6D736E5F 		.ascii	"msn_numero\000"
 7011      6E756D65 
 7011      726F00
 7012              	.LASF32:
 7013 03b3 70756D70 		.ascii	"pump\000"
 7013      00
 7014              	.LASF99:
 7015 03b8 433A5C55 		.ascii	"C:\\Users\\Lenovo\\Documents\\GitHub\\Mepsan\\Mepsa"
 7015      73657273 
ARM GAS  C:\Users\Lenovo\AppData\Local\Temp\ccXim33P.s 			page 144


 7015      5C4C656E 
 7015      6F766F5C 
 7015      446F6375 
 7016 03e5 6E2E6379 		.ascii	"n.cydsn\000"
 7016      64736E00 
 7017              	.LASF88:
 7018 03ed 50524E5F 		.ascii	"PRN_MONEYDAY\000"
 7018      4D4F4E45 
 7018      59444159 
 7018      00
 7019              	.LASF30:
 7020 03fa 50726F63 		.ascii	"ProcessedPPU\000"
 7020      65737365 
 7020      64505055 
 7020      00
 7021              	.LASF5:
 7022 0407 6C6F6E67 		.ascii	"long unsigned int\000"
 7022      20756E73 
 7022      69676E65 
 7022      6420696E 
 7022      7400
 7023              	.LASF98:
 7024 0419 7072696E 		.ascii	"printer.c\000"
 7024      7465722E 
 7024      6300
 7025              	.LASF51:
 7026 0423 746F7563 		.ascii	"touch1\000"
 7026      683100
 7027              	.LASF63:
 7028 042a 6D736E5F 		.ascii	"msn_gasoline\000"
 7028      6761736F 
 7028      6C696E65 
 7028      00
 7029              	.LASF43:
 7030 0437 4D657073 		.ascii	"MepsanResponse\000"
 7030      616E5265 
 7030      73706F6E 
 7030      736500
 7031              	.LASF9:
 7032 0446 5F5F696E 		.ascii	"__int32_t\000"
 7032      7433325F 
 7032      7400
 7033              	.LASF49:
 7034 0450 546F7461 		.ascii	"TotalRequestType\000"
 7034      6C526571 
 7034      75657374 
 7034      54797065 
 7034      00
 7035              	.LASF26:
 7036 0461 4D657073 		.ascii	"MepsanStore\000"
 7036      616E5374 
 7036      6F726500 
 7037              	.LASF28:
 7038 046d 50726F63 		.ascii	"ProcessedmoneySale\000"
 7038      65737365 
 7038      646D6F6E 
 7038      65795361 
ARM GAS  C:\Users\Lenovo\AppData\Local\Temp\ccXim33P.s 			page 145


 7038      6C6500
 7039              	.LASF92:
 7040 0480 50524E5F 		.ascii	"PRN_SIGNATURE\000"
 7040      5349474E 
 7040      41545552 
 7040      4500
 7041              	.LASF86:
 7042 048e 50524E5F 		.ascii	"PRN_VOLUMEWEEK\000"
 7042      564F4C55 
 7042      4D455745 
 7042      454B00
 7043              	.LASF15:
 7044 049d 646F7562 		.ascii	"double\000"
 7044      6C6500
 7045              	.LASF61:
 7046 04a4 6D736E5F 		.ascii	"msn_footer2\000"
 7046      666F6F74 
 7046      65723200 
 7047              	.LASF42:
 7048 04b0 73696465 		.ascii	"side\000"
 7048      00
 7049              	.LASF38:
 7050 04b5 49544D5F 		.ascii	"ITM_RxBuffer\000"
 7050      52784275 
 7050      66666572 
 7050      00
 7051              	.LASF75:
 7052 04c2 6D736E5F 		.ascii	"msn_cierre\000"
 7052      63696572 
 7052      726500
 7053              	.LASF47:
 7054 04cd 6372635F 		.ascii	"crc_hi\000"
 7054      686900
 7055              	.LASF71:
 7056 04d4 6D736E5F 		.ascii	"msn_ppu\000"
 7056      70707500 
 7057              	.LASF72:
 7058 04dc 6D736E5F 		.ascii	"msn_vol\000"
 7058      766F6C00 
 7059              	.LASF60:
 7060 04e4 6D736E5F 		.ascii	"msn_footer\000"
 7060      666F6F74 
 7060      657200
 7061              	.LASF62:
 7062 04ef 6D736E5F 		.ascii	"msn_diesel\000"
 7062      64696573 
 7062      656C00
 7063              	.LASF59:
 7064 04fa 6D736E5F 		.ascii	"msn_plate\000"
 7064      706C6174 
 7064      6500
 7065              		.ident	"GCC: (GNU Tools for ARM Embedded Processors) 5.4.1 20160609 (release) [ARM/embedded-5-bran
