ARM GAS  C:\Users\Lenovo\AppData\Local\Temp\ccVx5qP5.s 			page 1


   1              		.syntax unified
   2              		.cpu cortex-m3
   3              		.fpu softvfp
   4              		.eabi_attribute 20, 1
   5              		.eabi_attribute 21, 1
   6              		.eabi_attribute 23, 3
   7              		.eabi_attribute 24, 1
   8              		.eabi_attribute 25, 1
   9              		.eabi_attribute 26, 1
  10              		.eabi_attribute 30, 6
  11              		.eabi_attribute 34, 1
  12              		.eabi_attribute 18, 4
  13              		.thumb
  14              		.syntax unified
  15              		.file	"printer.c"
  16              		.text
  17              	.Ltext0:
  18              		.cfi_sections	.debug_frame
  19              		.comm	PollCounter,2,2
  20              		.comm	CurrentState,1,1
  21              		.comm	Receipt,1,1
  22              		.comm	sale_number,6,4
  23              		.comm	int_salenumber,1,1
  24              		.comm	shift_number,6,4
  25              		.comm	int_shiftnumber,1,1
  26              		.comm	LCDhose,1,1
  27              		.comm	side,1196,4
  28              		.comm	MepsanResponse,50,4
  29              		.comm	MepsanSendTo,50,4
  30              		.comm	PumpAddress,15,4
  31              		.comm	CRC,2,2
  32              		.comm	crc_lo,1,1
  33              		.comm	crc_hi,1,1
  34              		.comm	Positions,1,1
  35              		.comm	TotalRequestType,1,1
  36              		.comm	DecVol,1,1
  37              		.comm	touch1,20,4
  38              		.comm	dirGbr,1,1
  39              		.global	LINE_FEED
  40              		.data
  41              		.type	LINE_FEED, %object
  42              		.size	LINE_FEED, 1
  43              	LINE_FEED:
  44 0000 0A       		.byte	10
  45              		.global	VolSimbol
  46 0001 000000   		.align	2
  47              		.type	VolSimbol, %object
  48              		.size	VolSimbol, 1
  49              	VolSimbol:
  50 0004 47       		.ascii	"G"
  51              		.global	msn_EDS
  52 0005 000000   		.align	2
  53              		.type	msn_EDS, %object
  54              		.size	msn_EDS, 22
  55              	msn_EDS:
  56 0008 20455354 		.ascii	" ESTACION DE SERVICIO "
  56      4143494F 
ARM GAS  C:\Users\Lenovo\AppData\Local\Temp\ccVx5qP5.s 			page 2


  56      4E204445 
  56      20534552 
  56      56494349 
  57              		.global	msn_EDS2
  58 001e 0000     		.align	2
  59              		.type	msn_EDS2, %object
  60              		.size	msn_EDS2, 22
  61              	msn_EDS2:
  62 0020 20202020 		.ascii	"    PRUEBAS MEPSAN    "
  62      50525545 
  62      42415320 
  62      4D455053 
  62      414E2020 
  63              		.global	msn_EDS3
  64 0036 0000     		.align	2
  65              		.type	msn_EDS3, %object
  66              		.size	msn_EDS3, 22
  67              	msn_EDS3:
  68 0038 20202054 		.ascii	"   Tel: (57)123456    "
  68      656C3A20 
  68      28353729 
  68      31323334 
  68      35362020 
  69              		.global	msn_EDS4
  70 004e 0000     		.align	2
  71              		.type	msn_EDS4, %object
  72              		.size	msn_EDS4, 22
  73              	msn_EDS4:
  74 0050 2020204E 		.ascii	"   NIT: 900.123.456   "
  74      49543A20 
  74      3930302E 
  74      3132332E 
  74      34353620 
  75              		.global	msn_footer
  76 0066 0000     		.align	2
  77              		.type	msn_footer, %object
  78              		.size	msn_footer, 22
  79              	msn_footer:
  80 0068 20534953 		.ascii	" SISPETROL INGENIERIA "
  80      50455452 
  80      4F4C2049 
  80      4E47454E 
  80      49455249 
  81              		.global	msn_footer2
  82 007e 0000     		.align	2
  83              		.type	msn_footer2, %object
  84              		.size	msn_footer2, 22
  85              	msn_footer2:
  86 0080 2020534F 		.ascii	"  SOLUCIONES PARA EDS "
  86      4C554349 
  86      4F4E4553 
  86      20504152 
  86      41204544 
  87              		.global	msn_diesel
  88 0096 0000     		.align	2
  89              		.type	msn_diesel, %object
  90              		.size	msn_diesel, 8
ARM GAS  C:\Users\Lenovo\AppData\Local\Temp\ccVx5qP5.s 			page 3


  91              	msn_diesel:
  92 0098 44696573 		.ascii	"Diesel  "
  92      656C2020 
  93              		.global	msn_gasoline
  94              		.align	2
  95              		.type	msn_gasoline, %object
  96              		.size	msn_gasoline, 9
  97              	msn_gasoline:
  98 00a0 436F7272 		.ascii	"Corriente"
  98      69656E74 
  98      65
  99              		.global	msn_fecha
 100 00a9 000000   		.align	2
 101              		.type	msn_fecha, %object
 102              		.size	msn_fecha, 13
 103              	msn_fecha:
 104 00ac 46656368 		.ascii	"Fecha      : "
 104      61202020 
 104      2020203A 
 104      20
 105              		.global	msn_hora
 106 00b9 000000   		.align	2
 107              		.type	msn_hora, %object
 108              		.size	msn_hora, 13
 109              	msn_hora:
 110 00bc 486F7261 		.ascii	"Hora       : "
 110      20202020 
 110      2020203A 
 110      20
 111              		.global	msn_placa
 112 00c9 000000   		.align	2
 113              		.type	msn_placa, %object
 114              		.size	msn_placa, 13
 115              	msn_placa:
 116 00cc 506C6163 		.ascii	"Placa      : "
 116      61202020 
 116      2020203A 
 116      20
 117              		.global	PRN_MILLEAGE
 118 00d9 000000   		.align	2
 119              		.type	PRN_MILLEAGE, %object
 120              		.size	PRN_MILLEAGE, 13
 121              	PRN_MILLEAGE:
 122 00dc 4B696C6F 		.ascii	"Kilometraje: "
 122      6D657472 
 122      616A653A 
 122      20
 123              		.global	PRN_TRANSTYPE
 124 00e9 000000   		.align	2
 125              		.type	PRN_TRANSTYPE, %object
 126              		.size	PRN_TRANSTYPE, 13
 127              	PRN_TRANSTYPE:
 128 00ec 5469706F 		.ascii	"Tipo       : "
 128      20202020 
 128      2020203A 
 128      20
 129              		.global	msn_pos
ARM GAS  C:\Users\Lenovo\AppData\Local\Temp\ccVx5qP5.s 			page 4


 130 00f9 000000   		.align	2
 131              		.type	msn_pos, %object
 132              		.size	msn_pos, 13
 133              	msn_pos:
 134 00fc 506F7369 		.ascii	"Posicion   : "
 134      63696F6E 
 134      2020203A 
 134      20
 135              		.global	msn_product
 136 0109 000000   		.align	2
 137              		.type	msn_product, %object
 138              		.size	msn_product, 13
 139              	msn_product:
 140 010c 50726F64 		.ascii	"Producto   : "
 140      7563746F 
 140      2020203A 
 140      20
 141              		.global	msn_ppu
 142 0119 000000   		.align	2
 143              		.type	msn_ppu, %object
 144              		.size	msn_ppu, 13
 145              	msn_ppu:
 146 011c 50707520 		.ascii	"Ppu        : "
 146      20202020 
 146      2020203A 
 146      20
 147              		.global	msn_vol
 148 0129 000000   		.align	2
 149              		.type	msn_vol, %object
 150              		.size	msn_vol, 13
 151              	msn_vol:
 152 012c 566F6C75 		.ascii	"Volumen    : "
 152      6D656E20 
 152      2020203A 
 152      20
 153              		.global	msn_voltot
 154 0139 000000   		.align	2
 155              		.type	msn_voltot, %object
 156              		.size	msn_voltot, 13
 157              	msn_voltot:
 158 013c 546F742E 		.ascii	"Tot.Vol    : "
 158      566F6C20 
 158      2020203A 
 158      20
 159              		.global	msn_din
 160 0149 000000   		.align	2
 161              		.type	msn_din, %object
 162              		.size	msn_din, 13
 163              	msn_din:
 164 014c 44696E65 		.ascii	"Dinero     : "
 164      726F2020 
 164      2020203A 
 164      20
 165              		.global	msn_cierre
 166 0159 000000   		.align	2
 167              		.type	msn_cierre, %object
 168              		.size	msn_cierre, 13
ARM GAS  C:\Users\Lenovo\AppData\Local\Temp\ccVx5qP5.s 			page 5


 169              	msn_cierre:
 170 015c 43696572 		.ascii	"Cierre No  : "
 170      7265204E 
 170      6F20203A 
 170      20
 171              		.global	msn_venta
 172 0169 000000   		.align	2
 173              		.type	msn_venta, %object
 174              		.size	msn_venta, 13
 175              	msn_venta:
 176 016c 56656E74 		.ascii	"Venta No   : "
 176      61204E6F 
 176      2020203A 
 176      20
 177              		.global	msn_numero
 178 0179 000000   		.align	2
 179              		.type	msn_numero, %object
 180              		.size	msn_numero, 13
 181              	msn_numero:
 182 017c 436F6E73 		.ascii	"Consecutivo: "
 182      65637574 
 182      69766F3A 
 182      20
 183              		.global	PRN_BALANCE
 184 0189 000000   		.align	2
 185              		.type	PRN_BALANCE, %object
 186              		.size	PRN_BALANCE, 13
 187              	PRN_BALANCE:
 188 018c 53616C64 		.ascii	"Saldo      : "
 188      6F202020 
 188      2020203A 
 188      20
 189              		.global	PRN_COMPANY
 190 0199 000000   		.align	2
 191              		.type	PRN_COMPANY, %object
 192              		.size	PRN_COMPANY, 13
 193              	PRN_COMPANY:
 194 019c 456D7072 		.ascii	"Empresa    : "
 194      65736120 
 194      2020203A 
 194      20
 195              		.global	PRN_ACCOUNT
 196 01a9 000000   		.align	2
 197              		.type	PRN_ACCOUNT, %object
 198              		.size	PRN_ACCOUNT, 13
 199              	PRN_ACCOUNT:
 200 01ac 4375656E 		.ascii	"Cuenta     : "
 200      74612020 
 200      2020203A 
 200      20
 201              		.global	PRN_SERIAL
 202 01b9 000000   		.align	2
 203              		.type	PRN_SERIAL, %object
 204              		.size	PRN_SERIAL, 13
 205              	PRN_SERIAL:
 206 01bc 53657269 		.ascii	"Serial     : "
 206      616C2020 
ARM GAS  C:\Users\Lenovo\AppData\Local\Temp\ccVx5qP5.s 			page 6


 206      2020203A 
 206      20
 207              		.global	PRN_ACCOUNTTYPE
 208 01c9 000000   		.align	2
 209              		.type	PRN_ACCOUNTTYPE, %object
 210              		.size	PRN_ACCOUNTTYPE, 13
 211              	PRN_ACCOUNTTYPE:
 212 01cc 5469706F 		.ascii	"Tipo Cuenta: "
 212      20437565 
 212      6E74613A 
 212      20
 213              		.global	PRN_VISITSDAY
 214 01d9 000000   		.align	2
 215              		.type	PRN_VISITSDAY, %object
 216              		.size	PRN_VISITSDAY, 13
 217              	PRN_VISITSDAY:
 218 01dc 56697369 		.ascii	"Visitas Dia: "
 218      74617320 
 218      4469613A 
 218      20
 219              		.global	PRN_VISITSWEEK
 220 01e9 000000   		.align	2
 221              		.type	PRN_VISITSWEEK, %object
 222              		.size	PRN_VISITSWEEK, 13
 223              	PRN_VISITSWEEK:
 224 01ec 56697369 		.ascii	"Visitas Sem: "
 224      74617320 
 224      53656D3A 
 224      20
 225              		.global	PRN_VISITSMONTH
 226 01f9 000000   		.align	2
 227              		.type	PRN_VISITSMONTH, %object
 228              		.size	PRN_VISITSMONTH, 13
 229              	PRN_VISITSMONTH:
 230 01fc 56697369 		.ascii	"Visitas Mes: "
 230      74617320 
 230      4D65733A 
 230      20
 231              		.global	PRN_VOLUMEDAY
 232 0209 000000   		.align	2
 233              		.type	PRN_VOLUMEDAY, %object
 234              		.size	PRN_VOLUMEDAY, 13
 235              	PRN_VOLUMEDAY:
 236 020c 566F6C75 		.ascii	"Volumen Dia: "
 236      6D656E20 
 236      4469613A 
 236      20
 237              		.global	PRN_VOLUMEWEEK
 238 0219 000000   		.align	2
 239              		.type	PRN_VOLUMEWEEK, %object
 240              		.size	PRN_VOLUMEWEEK, 13
 241              	PRN_VOLUMEWEEK:
 242 021c 566F6C75 		.ascii	"Volumen Sem: "
 242      6D656E20 
 242      53656D3A 
 242      20
 243              		.global	PRN_VOLUMEMONTH
ARM GAS  C:\Users\Lenovo\AppData\Local\Temp\ccVx5qP5.s 			page 7


 244 0229 000000   		.align	2
 245              		.type	PRN_VOLUMEMONTH, %object
 246              		.size	PRN_VOLUMEMONTH, 13
 247              	PRN_VOLUMEMONTH:
 248 022c 566F6C75 		.ascii	"Volumen Mes: "
 248      6D656E20 
 248      4D65733A 
 248      20
 249              		.global	PRN_MONEYDAY
 250 0239 000000   		.align	2
 251              		.type	PRN_MONEYDAY, %object
 252              		.size	PRN_MONEYDAY, 13
 253              	PRN_MONEYDAY:
 254 023c 44696E65 		.ascii	"Dinero Dia : "
 254      726F2044 
 254      6961203A 
 254      20
 255              		.global	PRN_MONEYWEEK
 256 0249 000000   		.align	2
 257              		.type	PRN_MONEYWEEK, %object
 258              		.size	PRN_MONEYWEEK, 13
 259              	PRN_MONEYWEEK:
 260 024c 44696E65 		.ascii	"Dinero Sem : "
 260      726F2053 
 260      656D203A 
 260      20
 261              		.global	PRN_MONEYMONTH
 262 0259 000000   		.align	2
 263              		.type	PRN_MONEYMONTH, %object
 264              		.size	PRN_MONEYMONTH, 13
 265              	PRN_MONEYMONTH:
 266 025c 44696E65 		.ascii	"Dinero Mes : "
 266      726F204D 
 266      6573203A 
 266      20
 267              		.global	PRN_PRESET
 268 0269 000000   		.align	2
 269              		.type	PRN_PRESET, %object
 270              		.size	PRN_PRESET, 13
 271              	PRN_PRESET:
 272 026c 56616C6F 		.ascii	"Valor Prog.: "
 272      72205072 
 272      6F672E3A 
 272      20
 273              		.global	PRN_SIGNATURE
 274 0279 000000   		.align	2
 275              		.type	PRN_SIGNATURE, %object
 276              		.size	PRN_SIGNATURE, 13
 277              	PRN_SIGNATURE:
 278 027c 4669726D 		.ascii	"Firma      : "
 278      61202020 
 278      2020203A 
 278      20
 279              		.global	PRN_ID
 280 0289 000000   		.align	2
 281              		.type	PRN_ID, %object
 282              		.size	PRN_ID, 13
ARM GAS  C:\Users\Lenovo\AppData\Local\Temp\ccVx5qP5.s 			page 8


 283              	PRN_ID:
 284 028c 43656475 		.ascii	"Cedula     : "
 284      6C612020 
 284      2020203A 
 284      20
 285              		.global	PRN_CURRENCY
 286 0299 000000   		.align	2
 287              		.type	PRN_CURRENCY, %object
 288              		.size	PRN_CURRENCY, 1
 289              	PRN_CURRENCY:
 290 029c 24       		.ascii	"$"
 291              		.global	msn_lecact
 292 029d 000000   		.align	2
 293              		.type	msn_lecact, %object
 294              		.size	msn_lecact, 16
 295              	msn_lecact:
 296 02a0 566F6C75 		.ascii	"Volumen actual: "
 296      6D656E20 
 296      61637475 
 296      616C3A20 
 297              		.global	msn_lecaan
 298              		.align	2
 299              		.type	msn_lecaan, %object
 300              		.size	msn_lecaan, 16
 301              	msn_lecaan:
 302 02b0 566F6C2E 		.ascii	"Vol. anterior:  "
 302      20616E74 
 302      6572696F 
 302      723A2020 
 303              		.global	msn_dif
 304              		.align	2
 305              		.type	msn_dif, %object
 306              		.size	msn_dif, 18
 307              	msn_dif:
 308 02c0 566F6C2E 		.ascii	"Vol. dispensado:  "
 308      20646973 
 308      70656E73 
 308      61646F3A 
 308      2020
 309              		.global	SEPARATOR
 310 02d2 0000     		.align	2
 311              		.type	SEPARATOR, %object
 312              		.size	SEPARATOR, 24
 313              	SEPARATOR:
 314 02d4 2A2A2A2A 		.ascii	"************************"
 314      2A2A2A2A 
 314      2A2A2A2A 
 314      2A2A2A2A 
 314      2A2A2A2A 
 315              		.global	ASK_TIME
 316              		.align	2
 317              		.type	ASK_TIME, %object
 318              		.size	ASK_TIME, 6
 319              	ASK_TIME:
 320 02ec 5A       		.byte	90
 321 02ed A5       		.byte	-91
 322 02ee 03       		.byte	3
ARM GAS  C:\Users\Lenovo\AppData\Local\Temp\ccVx5qP5.s 			page 9


 323 02ef 81       		.byte	-127
 324 02f0 20       		.byte	32
 325 02f1 07       		.byte	7
 326              		.section	.text.PrintReceipt,"ax",%progbits
 327              		.align	2
 328              		.global	PrintReceipt
 329              		.thumb
 330              		.thumb_func
 331              		.type	PrintReceipt, %function
 332              	PrintReceipt:
 333              	.LFB64:
 334              		.file 1 "printer.c"
   1:printer.c     **** /* ========================================
   2:printer.c     ****  *
   3:printer.c     ****  * Copyright YOUR COMPANY, THE YEAR
   4:printer.c     ****  * All Rights Reserved
   5:printer.c     ****  * UNPUBLISHED, LICENSED SOFTWARE.
   6:printer.c     ****  *
   7:printer.c     ****  * CONFIDENTIAL AND PROPRIETARY INFORMATION
   8:printer.c     ****  * WHICH IS THE PROPERTY OF your company.
   9:printer.c     ****  *
  10:printer.c     ****  * ========================================
  11:printer.c     **** */
  12:printer.c     **** #include <project.h>
  13:printer.c     **** #include <GVar.h>
  14:printer.c     **** #include <stdio.h>
  15:printer.c     **** #include <stdlib.h>
  16:printer.c     **** #include <string.h>
  17:printer.c     **** 
  18:printer.c     **** uint8 LINE_FEED = 0x0A;
  19:printer.c     **** char VolSimbol[1] = "G";
  20:printer.c     **** 
  21:printer.c     **** 
  22:printer.c     **** /***********  Temporal messages ******************/
  23:printer.c     **** uint8 msn_EDS[22]       = " ESTACION DE SERVICIO ";
  24:printer.c     **** uint8 msn_EDS2[22]      = "    PRUEBAS MEPSAN    ";
  25:printer.c     **** uint8 msn_EDS3[22]      = "   Tel: (57)123456    ";
  26:printer.c     **** uint8 msn_EDS4[22]      = "   NIT: 900.123.456   ";
  27:printer.c     **** uint8 msn_footer[22]    = " SISPETROL INGENIERIA ";
  28:printer.c     **** uint8 msn_footer2[22]   = "  SOLUCIONES PARA EDS ";
  29:printer.c     **** uint8 msn_diesel[8]     = "Diesel  ";
  30:printer.c     **** uint8 msn_gasoline[9]   = "Corriente";
  31:printer.c     **** 
  32:printer.c     **** /*********** informative messages ****************/
  33:printer.c     **** 
  34:printer.c     **** uint8 msn_fecha[13]       = "Fecha      : ";
  35:printer.c     **** uint8 msn_hora[13]        = "Hora       : ";
  36:printer.c     **** uint8 msn_placa[13]       = "Placa      : ";
  37:printer.c     **** uint8 PRN_MILLEAGE[13]    = "Kilometraje: ";
  38:printer.c     **** uint8 PRN_TRANSTYPE[13]   = "Tipo       : ";
  39:printer.c     **** uint8 msn_pos[13]         = "Posicion   : ";
  40:printer.c     **** uint8 msn_product[13]     = "Producto   : ";
  41:printer.c     **** uint8 msn_ppu[13]         = "Ppu        : ";
  42:printer.c     **** uint8 msn_vol[13]         = "Volumen    : ";
  43:printer.c     **** uint8 msn_voltot[13]      = "Tot.Vol    : ";
  44:printer.c     **** uint8 msn_din[13]         = "Dinero     : ";
  45:printer.c     **** uint8 msn_cierre[13]      = "Cierre No  : ";
ARM GAS  C:\Users\Lenovo\AppData\Local\Temp\ccVx5qP5.s 			page 10


  46:printer.c     **** uint8 msn_venta[13]       = "Venta No   : ";
  47:printer.c     **** uint8 msn_numero[13]      = "Consecutivo: ";
  48:printer.c     **** uint8 PRN_BALANCE[13]     = "Saldo      : ";
  49:printer.c     **** uint8 PRN_COMPANY[13]     = "Empresa    : ";
  50:printer.c     **** uint8 PRN_ACCOUNT[13]     = "Cuenta     : ";
  51:printer.c     **** uint8 PRN_SERIAL[13]      = "Serial     : ";
  52:printer.c     **** uint8 PRN_ACCOUNTTYPE[13] = "Tipo Cuenta: ";
  53:printer.c     **** uint8 PRN_VISITSDAY[13]   = "Visitas Dia: ";
  54:printer.c     **** uint8 PRN_VISITSWEEK[13]  = "Visitas Sem: ";
  55:printer.c     **** uint8 PRN_VISITSMONTH[13] = "Visitas Mes: ";
  56:printer.c     **** uint8 PRN_VOLUMEDAY[13]   = "Volumen Dia: ";
  57:printer.c     **** uint8 PRN_VOLUMEWEEK[13]  = "Volumen Sem: ";
  58:printer.c     **** uint8 PRN_VOLUMEMONTH[13] = "Volumen Mes: ";
  59:printer.c     **** uint8 PRN_MONEYDAY[13]    = "Dinero Dia : ";
  60:printer.c     **** uint8 PRN_MONEYWEEK[13]   = "Dinero Sem : ";
  61:printer.c     **** uint8 PRN_MONEYMONTH[13]  = "Dinero Mes : ";
  62:printer.c     **** uint8 PRN_PRESET[13]      = "Valor Prog.: ";
  63:printer.c     **** uint8 PRN_SIGNATURE[13]   = "Firma      : ";
  64:printer.c     **** uint8 PRN_ID[13]          = "Cedula     : ";
  65:printer.c     **** uint8 PRN_CURRENCY[1]     = "$";
  66:printer.c     **** uint8 msn_lecact[16]      ="Volumen actual: ";
  67:printer.c     **** uint8 msn_lecaan[16]      ="Vol. anterior:  ";
  68:printer.c     **** uint8 msn_dif[18]         ="Vol. dispensado:  ";
  69:printer.c     **** uint8 SEPARATOR[24]       = "************************";
  70:printer.c     **** uint8 ASK_TIME[]={0x5A, 0xA5, 0x03, 0x81, 0x20, 0x07};
  71:printer.c     **** 
  72:printer.c     **** 
  73:printer.c     **** 
  74:printer.c     **** void PrintReceipt(uint8 address){
 335              		.loc 1 74 0
 336              		.cfi_startproc
 337              		@ args = 0, pretend = 0, frame = 72
 338              		@ frame_needed = 1, uses_anonymous_args = 0
 339 0000 90B5     		push	{r4, r7, lr}
 340              		.cfi_def_cfa_offset 12
 341              		.cfi_offset 4, -12
 342              		.cfi_offset 7, -8
 343              		.cfi_offset 14, -4
 344 0002 93B0     		sub	sp, sp, #76
 345              		.cfi_def_cfa_offset 88
 346 0004 00AF     		add	r7, sp, #0
 347              		.cfi_def_cfa_register 7
 348 0006 0346     		mov	r3, r0
 349 0008 FB71     		strb	r3, [r7, #7]
  75:printer.c     ****     int8 screen_size;
  76:printer.c     ****     int_salenumber++;
 350              		.loc 1 76 0
 351 000a C04B     		ldr	r3, .L125
 352 000c 1B78     		ldrb	r3, [r3]	@ zero_extendqisi2
 353 000e 0133     		adds	r3, r3, #1
 354 0010 DAB2     		uxtb	r2, r3
 355 0012 BE4B     		ldr	r3, .L125
 356 0014 1A70     		strb	r2, [r3]
  77:printer.c     ****     sale_number[5]=(int_salenumber/10000)+48;
 357              		.loc 1 77 0
 358 0016 BD4B     		ldr	r3, .L125
 359 0018 1B78     		ldrb	r3, [r3]	@ zero_extendqisi2
ARM GAS  C:\Users\Lenovo\AppData\Local\Temp\ccVx5qP5.s 			page 11


 360 001a BD4A     		ldr	r2, .L125+4
 361 001c 82FB0312 		smull	r1, r2, r2, r3
 362 0020 1213     		asrs	r2, r2, #12
 363 0022 DB17     		asrs	r3, r3, #31
 364 0024 D31A     		subs	r3, r2, r3
 365 0026 DBB2     		uxtb	r3, r3
 366 0028 3033     		adds	r3, r3, #48
 367 002a DAB2     		uxtb	r2, r3
 368 002c B94B     		ldr	r3, .L125+8
 369 002e 5A71     		strb	r2, [r3, #5]
  78:printer.c     **** 	sale_number[4]=((int_salenumber%10000)/1000)+48;
 370              		.loc 1 78 0
 371 0030 B64B     		ldr	r3, .L125
 372 0032 1B78     		ldrb	r3, [r3]	@ zero_extendqisi2
 373 0034 1A46     		mov	r2, r3
 374 0036 B64B     		ldr	r3, .L125+4
 375 0038 83FB0213 		smull	r1, r3, r3, r2
 376 003c 1913     		asrs	r1, r3, #12
 377 003e D317     		asrs	r3, r2, #31
 378 0040 CB1A     		subs	r3, r1, r3
 379 0042 42F21071 		movw	r1, #10000
 380 0046 01FB03F3 		mul	r3, r1, r3
 381 004a D31A     		subs	r3, r2, r3
 382 004c B24A     		ldr	r2, .L125+12
 383 004e 82FB0312 		smull	r1, r2, r2, r3
 384 0052 9211     		asrs	r2, r2, #6
 385 0054 DB17     		asrs	r3, r3, #31
 386 0056 D31A     		subs	r3, r2, r3
 387 0058 DBB2     		uxtb	r3, r3
 388 005a 3033     		adds	r3, r3, #48
 389 005c DAB2     		uxtb	r2, r3
 390 005e AD4B     		ldr	r3, .L125+8
 391 0060 1A71     		strb	r2, [r3, #4]
  79:printer.c     **** 	sale_number[3]=(((int_salenumber%10000)%1000)/100)+48;
 392              		.loc 1 79 0
 393 0062 AA4B     		ldr	r3, .L125
 394 0064 1B78     		ldrb	r3, [r3]	@ zero_extendqisi2
 395 0066 1A46     		mov	r2, r3
 396 0068 A94B     		ldr	r3, .L125+4
 397 006a 83FB0213 		smull	r1, r3, r3, r2
 398 006e 1913     		asrs	r1, r3, #12
 399 0070 D317     		asrs	r3, r2, #31
 400 0072 CB1A     		subs	r3, r1, r3
 401 0074 42F21071 		movw	r1, #10000
 402 0078 01FB03F3 		mul	r3, r1, r3
 403 007c D31A     		subs	r3, r2, r3
 404 007e A64A     		ldr	r2, .L125+12
 405 0080 82FB0312 		smull	r1, r2, r2, r3
 406 0084 9111     		asrs	r1, r2, #6
 407 0086 DA17     		asrs	r2, r3, #31
 408 0088 8A1A     		subs	r2, r1, r2
 409 008a 4FF47A71 		mov	r1, #1000
 410 008e 01FB02F2 		mul	r2, r1, r2
 411 0092 9A1A     		subs	r2, r3, r2
 412 0094 A14B     		ldr	r3, .L125+16
 413 0096 83FB0213 		smull	r1, r3, r3, r2
 414 009a 5911     		asrs	r1, r3, #5
ARM GAS  C:\Users\Lenovo\AppData\Local\Temp\ccVx5qP5.s 			page 12


 415 009c D317     		asrs	r3, r2, #31
 416 009e CB1A     		subs	r3, r1, r3
 417 00a0 DBB2     		uxtb	r3, r3
 418 00a2 3033     		adds	r3, r3, #48
 419 00a4 DAB2     		uxtb	r2, r3
 420 00a6 9B4B     		ldr	r3, .L125+8
 421 00a8 DA70     		strb	r2, [r3, #3]
  80:printer.c     **** 	sale_number[2]=((((int_salenumber%10000)%1000)%100)/10)+48;	
 422              		.loc 1 80 0
 423 00aa 984B     		ldr	r3, .L125
 424 00ac 1B78     		ldrb	r3, [r3]	@ zero_extendqisi2
 425 00ae 984A     		ldr	r2, .L125+4
 426 00b0 82FB0312 		smull	r1, r2, r2, r3
 427 00b4 1113     		asrs	r1, r2, #12
 428 00b6 DA17     		asrs	r2, r3, #31
 429 00b8 8A1A     		subs	r2, r1, r2
 430 00ba 42F21071 		movw	r1, #10000
 431 00be 01FB02F2 		mul	r2, r1, r2
 432 00c2 9A1A     		subs	r2, r3, r2
 433 00c4 944B     		ldr	r3, .L125+12
 434 00c6 83FB0213 		smull	r1, r3, r3, r2
 435 00ca 9911     		asrs	r1, r3, #6
 436 00cc D317     		asrs	r3, r2, #31
 437 00ce CB1A     		subs	r3, r1, r3
 438 00d0 4FF47A71 		mov	r1, #1000
 439 00d4 01FB03F3 		mul	r3, r1, r3
 440 00d8 D31A     		subs	r3, r2, r3
 441 00da 904A     		ldr	r2, .L125+16
 442 00dc 82FB0312 		smull	r1, r2, r2, r3
 443 00e0 5111     		asrs	r1, r2, #5
 444 00e2 DA17     		asrs	r2, r3, #31
 445 00e4 8A1A     		subs	r2, r1, r2
 446 00e6 6421     		movs	r1, #100
 447 00e8 01FB02F2 		mul	r2, r1, r2
 448 00ec 9A1A     		subs	r2, r3, r2
 449 00ee 8C4B     		ldr	r3, .L125+20
 450 00f0 83FB0213 		smull	r1, r3, r3, r2
 451 00f4 9910     		asrs	r1, r3, #2
 452 00f6 D317     		asrs	r3, r2, #31
 453 00f8 CB1A     		subs	r3, r1, r3
 454 00fa DBB2     		uxtb	r3, r3
 455 00fc 3033     		adds	r3, r3, #48
 456 00fe DAB2     		uxtb	r2, r3
 457 0100 844B     		ldr	r3, .L125+8
 458 0102 9A70     		strb	r2, [r3, #2]
  81:printer.c     **** 	sale_number[1]=((((int_salenumber%10000)%1000)%100)%10)+48;
 459              		.loc 1 81 0
 460 0104 814B     		ldr	r3, .L125
 461 0106 1B78     		ldrb	r3, [r3]	@ zero_extendqisi2
 462 0108 814A     		ldr	r2, .L125+4
 463 010a 82FB0312 		smull	r1, r2, r2, r3
 464 010e 1113     		asrs	r1, r2, #12
 465 0110 DA17     		asrs	r2, r3, #31
 466 0112 8A1A     		subs	r2, r1, r2
 467 0114 42F21071 		movw	r1, #10000
 468 0118 01FB02F2 		mul	r2, r1, r2
 469 011c 9A1A     		subs	r2, r3, r2
ARM GAS  C:\Users\Lenovo\AppData\Local\Temp\ccVx5qP5.s 			page 13


 470 011e 7E4B     		ldr	r3, .L125+12
 471 0120 83FB0213 		smull	r1, r3, r3, r2
 472 0124 9911     		asrs	r1, r3, #6
 473 0126 D317     		asrs	r3, r2, #31
 474 0128 CB1A     		subs	r3, r1, r3
 475 012a 4FF47A71 		mov	r1, #1000
 476 012e 01FB03F3 		mul	r3, r1, r3
 477 0132 D31A     		subs	r3, r2, r3
 478 0134 794A     		ldr	r2, .L125+16
 479 0136 82FB0312 		smull	r1, r2, r2, r3
 480 013a 5111     		asrs	r1, r2, #5
 481 013c DA17     		asrs	r2, r3, #31
 482 013e 8A1A     		subs	r2, r1, r2
 483 0140 6421     		movs	r1, #100
 484 0142 01FB02F2 		mul	r2, r1, r2
 485 0146 9A1A     		subs	r2, r3, r2
 486 0148 754B     		ldr	r3, .L125+20
 487 014a 83FB0213 		smull	r1, r3, r3, r2
 488 014e 9910     		asrs	r1, r3, #2
 489 0150 D317     		asrs	r3, r2, #31
 490 0152 C91A     		subs	r1, r1, r3
 491 0154 0B46     		mov	r3, r1
 492 0156 9B00     		lsls	r3, r3, #2
 493 0158 0B44     		add	r3, r3, r1
 494 015a 5B00     		lsls	r3, r3, #1
 495 015c D11A     		subs	r1, r2, r3
 496 015e CBB2     		uxtb	r3, r1
 497 0160 3033     		adds	r3, r3, #48
 498 0162 DAB2     		uxtb	r2, r3
 499 0164 6B4B     		ldr	r3, .L125+8
 500 0166 5A70     		strb	r2, [r3, #1]
 501              	.LBB2:
  82:printer.c     ****     for(uint8 i = 1; i<6; i++){
 502              		.loc 1 82 0
 503 0168 0123     		movs	r3, #1
 504 016a 87F84730 		strb	r3, [r7, #71]
 505 016e 0FE0     		b	.L2
 506              	.L3:
  83:printer.c     ****         EEPROM_1_WriteByte(sale_number[i],i);
 507              		.loc 1 83 0 discriminator 3
 508 0170 97F84730 		ldrb	r3, [r7, #71]	@ zero_extendqisi2
 509 0174 674A     		ldr	r2, .L125+8
 510 0176 D35C     		ldrb	r3, [r2, r3]	@ zero_extendqisi2
 511 0178 97F84720 		ldrb	r2, [r7, #71]	@ zero_extendqisi2
 512 017c 92B2     		uxth	r2, r2
 513 017e 1146     		mov	r1, r2
 514 0180 1846     		mov	r0, r3
 515 0182 FFF7FEFF 		bl	EEPROM_1_WriteByte
  82:printer.c     ****     for(uint8 i = 1; i<6; i++){
 516              		.loc 1 82 0 discriminator 3
 517 0186 97F84730 		ldrb	r3, [r7, #71]	@ zero_extendqisi2
 518 018a 0133     		adds	r3, r3, #1
 519 018c 87F84730 		strb	r3, [r7, #71]
 520              	.L2:
  82:printer.c     ****     for(uint8 i = 1; i<6; i++){
 521              		.loc 1 82 0 is_stmt 0 discriminator 1
 522 0190 97F84730 		ldrb	r3, [r7, #71]	@ zero_extendqisi2
ARM GAS  C:\Users\Lenovo\AppData\Local\Temp\ccVx5qP5.s 			page 14


 523 0194 052B     		cmp	r3, #5
 524 0196 EBD9     		bls	.L3
 525              	.LBE2:
 526              	.LBB3:
  84:printer.c     ****     }
  85:printer.c     ****     for(uint8 LCDRx = 0; LCDRx < 6; LCDRx++){
 527              		.loc 1 85 0 is_stmt 1
 528 0198 0023     		movs	r3, #0
 529 019a 87F84630 		strb	r3, [r7, #70]
 530 019e 0BE0     		b	.L4
 531              	.L5:
  86:printer.c     ****         screen_PutChar(ASK_TIME[LCDRx]);
 532              		.loc 1 86 0 discriminator 3
 533 01a0 97F84630 		ldrb	r3, [r7, #70]	@ zero_extendqisi2
 534 01a4 5F4A     		ldr	r2, .L125+24
 535 01a6 D35C     		ldrb	r3, [r2, r3]	@ zero_extendqisi2
 536 01a8 1846     		mov	r0, r3
 537 01aa FFF7FEFF 		bl	screen_PutChar
  85:printer.c     ****         screen_PutChar(ASK_TIME[LCDRx]);
 538              		.loc 1 85 0 discriminator 3
 539 01ae 97F84630 		ldrb	r3, [r7, #70]	@ zero_extendqisi2
 540 01b2 0133     		adds	r3, r3, #1
 541 01b4 87F84630 		strb	r3, [r7, #70]
 542              	.L4:
  85:printer.c     ****         screen_PutChar(ASK_TIME[LCDRx]);
 543              		.loc 1 85 0 is_stmt 0 discriminator 1
 544 01b8 97F84630 		ldrb	r3, [r7, #70]	@ zero_extendqisi2
 545 01bc 052B     		cmp	r3, #5
 546 01be EFD9     		bls	.L5
 547              	.LBE3:
  87:printer.c     ****     }
  88:printer.c     ****     CyDelay(4);
 548              		.loc 1 88 0 is_stmt 1
 549 01c0 0420     		movs	r0, #4
 550 01c2 FFF7FEFF 		bl	CyDelay
  89:printer.c     ****     screen_size = screen_GetRxBufferSize();
 551              		.loc 1 89 0
 552 01c6 FFF7FEFF 		bl	screen_GetRxBufferSize
 553 01ca 0346     		mov	r3, r0
 554 01cc BB73     		strb	r3, [r7, #14]
  90:printer.c     ****     if(screen_size >= 13 ){
 555              		.loc 1 90 0
 556 01ce 97F90E30 		ldrsb	r3, [r7, #14]
 557 01d2 0C2B     		cmp	r3, #12
 558 01d4 18DD     		ble	.L6
 559              	.LBB4:
  91:printer.c     ****         for(uint8 LCDRx = 0; LCDRx < screen_size; LCDRx++){
 560              		.loc 1 91 0
 561 01d6 0023     		movs	r3, #0
 562 01d8 87F84530 		strb	r3, [r7, #69]
 563 01dc 0CE0     		b	.L7
 564              	.L8:
  92:printer.c     ****             touch1[LCDRx] = screen_ReadRxData();
 565              		.loc 1 92 0 discriminator 3
 566 01de 97F84540 		ldrb	r4, [r7, #69]	@ zero_extendqisi2
 567 01e2 FFF7FEFF 		bl	screen_ReadRxData
 568 01e6 0346     		mov	r3, r0
ARM GAS  C:\Users\Lenovo\AppData\Local\Temp\ccVx5qP5.s 			page 15


 569 01e8 1A46     		mov	r2, r3
 570 01ea 4F4B     		ldr	r3, .L125+28
 571 01ec 1A55     		strb	r2, [r3, r4]
  91:printer.c     ****         for(uint8 LCDRx = 0; LCDRx < screen_size; LCDRx++){
 572              		.loc 1 91 0 discriminator 3
 573 01ee 97F84530 		ldrb	r3, [r7, #69]	@ zero_extendqisi2
 574 01f2 0133     		adds	r3, r3, #1
 575 01f4 87F84530 		strb	r3, [r7, #69]
 576              	.L7:
  91:printer.c     ****         for(uint8 LCDRx = 0; LCDRx < screen_size; LCDRx++){
 577              		.loc 1 91 0 is_stmt 0 discriminator 1
 578 01f8 97F84520 		ldrb	r2, [r7, #69]	@ zero_extendqisi2
 579 01fc 97F90E30 		ldrsb	r3, [r7, #14]
 580 0200 9A42     		cmp	r2, r3
 581 0202 ECDB     		blt	.L8
 582              	.LBE4:
  93:printer.c     ****         }
  94:printer.c     ****         screen_size = 0;
 583              		.loc 1 94 0 is_stmt 1
 584 0204 0023     		movs	r3, #0
 585 0206 BB73     		strb	r3, [r7, #14]
 586              	.L6:
 587              	.LBB5:
  95:printer.c     ****     }
  96:printer.c     **** 	for(uint8 x = 0; x < 22; x ++){
 588              		.loc 1 96 0
 589 0208 0023     		movs	r3, #0
 590 020a 87F84430 		strb	r3, [r7, #68]
 591 020e 0BE0     		b	.L9
 592              	.L10:
  97:printer.c     **** 		UART_3_PutChar(msn_EDS[x]);
 593              		.loc 1 97 0 discriminator 3
 594 0210 97F84430 		ldrb	r3, [r7, #68]	@ zero_extendqisi2
 595 0214 454A     		ldr	r2, .L125+32
 596 0216 D35C     		ldrb	r3, [r2, r3]	@ zero_extendqisi2
 597 0218 1846     		mov	r0, r3
 598 021a FFF7FEFF 		bl	UART_3_PutChar
  96:printer.c     **** 		UART_3_PutChar(msn_EDS[x]);
 599              		.loc 1 96 0 discriminator 3
 600 021e 97F84430 		ldrb	r3, [r7, #68]	@ zero_extendqisi2
 601 0222 0133     		adds	r3, r3, #1
 602 0224 87F84430 		strb	r3, [r7, #68]
 603              	.L9:
  96:printer.c     **** 		UART_3_PutChar(msn_EDS[x]);
 604              		.loc 1 96 0 is_stmt 0 discriminator 1
 605 0228 97F84430 		ldrb	r3, [r7, #68]	@ zero_extendqisi2
 606 022c 152B     		cmp	r3, #21
 607 022e EFD9     		bls	.L10
 608              	.LBE5:
  98:printer.c     **** 	}
  99:printer.c     ****     UART_3_PutChar(LINE_FEED);
 609              		.loc 1 99 0 is_stmt 1
 610 0230 3F4B     		ldr	r3, .L125+36
 611 0232 1B78     		ldrb	r3, [r3]	@ zero_extendqisi2
 612 0234 1846     		mov	r0, r3
 613 0236 FFF7FEFF 		bl	UART_3_PutChar
 614              	.LBB6:
ARM GAS  C:\Users\Lenovo\AppData\Local\Temp\ccVx5qP5.s 			page 16


 100:printer.c     **** 	for(uint8 x = 0; x < 22; x ++){
 615              		.loc 1 100 0
 616 023a 0023     		movs	r3, #0
 617 023c 87F84330 		strb	r3, [r7, #67]
 618 0240 0BE0     		b	.L11
 619              	.L12:
 101:printer.c     **** 		UART_3_PutChar(msn_EDS2[x]);
 620              		.loc 1 101 0 discriminator 3
 621 0242 97F84330 		ldrb	r3, [r7, #67]	@ zero_extendqisi2
 622 0246 3B4A     		ldr	r2, .L125+40
 623 0248 D35C     		ldrb	r3, [r2, r3]	@ zero_extendqisi2
 624 024a 1846     		mov	r0, r3
 625 024c FFF7FEFF 		bl	UART_3_PutChar
 100:printer.c     **** 	for(uint8 x = 0; x < 22; x ++){
 626              		.loc 1 100 0 discriminator 3
 627 0250 97F84330 		ldrb	r3, [r7, #67]	@ zero_extendqisi2
 628 0254 0133     		adds	r3, r3, #1
 629 0256 87F84330 		strb	r3, [r7, #67]
 630              	.L11:
 100:printer.c     **** 	for(uint8 x = 0; x < 22; x ++){
 631              		.loc 1 100 0 is_stmt 0 discriminator 1
 632 025a 97F84330 		ldrb	r3, [r7, #67]	@ zero_extendqisi2
 633 025e 152B     		cmp	r3, #21
 634 0260 EFD9     		bls	.L12
 635              	.LBE6:
 102:printer.c     **** 	}
 103:printer.c     **** 	UART_3_PutChar(LINE_FEED);
 636              		.loc 1 103 0 is_stmt 1
 637 0262 334B     		ldr	r3, .L125+36
 638 0264 1B78     		ldrb	r3, [r3]	@ zero_extendqisi2
 639 0266 1846     		mov	r0, r3
 640 0268 FFF7FEFF 		bl	UART_3_PutChar
 641              	.LBB7:
 104:printer.c     **** 	for(uint8 x = 0; x < 22; x ++){
 642              		.loc 1 104 0
 643 026c 0023     		movs	r3, #0
 644 026e 87F84230 		strb	r3, [r7, #66]
 645 0272 0BE0     		b	.L13
 646              	.L14:
 105:printer.c     **** 		UART_3_PutChar(msn_EDS3[x]);
 647              		.loc 1 105 0 discriminator 3
 648 0274 97F84230 		ldrb	r3, [r7, #66]	@ zero_extendqisi2
 649 0278 2F4A     		ldr	r2, .L125+44
 650 027a D35C     		ldrb	r3, [r2, r3]	@ zero_extendqisi2
 651 027c 1846     		mov	r0, r3
 652 027e FFF7FEFF 		bl	UART_3_PutChar
 104:printer.c     **** 	for(uint8 x = 0; x < 22; x ++){
 653              		.loc 1 104 0 discriminator 3
 654 0282 97F84230 		ldrb	r3, [r7, #66]	@ zero_extendqisi2
 655 0286 0133     		adds	r3, r3, #1
 656 0288 87F84230 		strb	r3, [r7, #66]
 657              	.L13:
 104:printer.c     **** 	for(uint8 x = 0; x < 22; x ++){
 658              		.loc 1 104 0 is_stmt 0 discriminator 1
 659 028c 97F84230 		ldrb	r3, [r7, #66]	@ zero_extendqisi2
 660 0290 152B     		cmp	r3, #21
 661 0292 EFD9     		bls	.L14
ARM GAS  C:\Users\Lenovo\AppData\Local\Temp\ccVx5qP5.s 			page 17


 662              	.LBE7:
 106:printer.c     **** 	}
 107:printer.c     **** 	UART_3_PutChar(LINE_FEED);
 663              		.loc 1 107 0 is_stmt 1
 664 0294 264B     		ldr	r3, .L125+36
 665 0296 1B78     		ldrb	r3, [r3]	@ zero_extendqisi2
 666 0298 1846     		mov	r0, r3
 667 029a FFF7FEFF 		bl	UART_3_PutChar
 668              	.LBB8:
 108:printer.c     **** 	for(uint8 x = 0; x < 22; x ++){
 669              		.loc 1 108 0
 670 029e 0023     		movs	r3, #0
 671 02a0 87F84130 		strb	r3, [r7, #65]
 672 02a4 0BE0     		b	.L15
 673              	.L16:
 109:printer.c     **** 		UART_3_PutChar(msn_EDS4[x]);
 674              		.loc 1 109 0 discriminator 3
 675 02a6 97F84130 		ldrb	r3, [r7, #65]	@ zero_extendqisi2
 676 02aa 244A     		ldr	r2, .L125+48
 677 02ac D35C     		ldrb	r3, [r2, r3]	@ zero_extendqisi2
 678 02ae 1846     		mov	r0, r3
 679 02b0 FFF7FEFF 		bl	UART_3_PutChar
 108:printer.c     **** 	for(uint8 x = 0; x < 22; x ++){
 680              		.loc 1 108 0 discriminator 3
 681 02b4 97F84130 		ldrb	r3, [r7, #65]	@ zero_extendqisi2
 682 02b8 0133     		adds	r3, r3, #1
 683 02ba 87F84130 		strb	r3, [r7, #65]
 684              	.L15:
 108:printer.c     **** 	for(uint8 x = 0; x < 22; x ++){
 685              		.loc 1 108 0 is_stmt 0 discriminator 1
 686 02be 97F84130 		ldrb	r3, [r7, #65]	@ zero_extendqisi2
 687 02c2 152B     		cmp	r3, #21
 688 02c4 EFD9     		bls	.L16
 689              	.LBE8:
 110:printer.c     **** 	}
 111:printer.c     ****     UART_3_PutChar(LINE_FEED);
 690              		.loc 1 111 0 is_stmt 1
 691 02c6 1A4B     		ldr	r3, .L125+36
 692 02c8 1B78     		ldrb	r3, [r3]	@ zero_extendqisi2
 693 02ca 1846     		mov	r0, r3
 694 02cc FFF7FEFF 		bl	UART_3_PutChar
 695              	.LBB9:
 112:printer.c     **** 	for(uint8 x = 0; x < 24; x ++){
 696              		.loc 1 112 0
 697 02d0 0023     		movs	r3, #0
 698 02d2 87F84030 		strb	r3, [r7, #64]
 699 02d6 0BE0     		b	.L17
 700              	.L18:
 113:printer.c     **** 		UART_3_PutChar(SEPARATOR[x]);
 701              		.loc 1 113 0 discriminator 3
 702 02d8 97F84030 		ldrb	r3, [r7, #64]	@ zero_extendqisi2
 703 02dc 184A     		ldr	r2, .L125+52
 704 02de D35C     		ldrb	r3, [r2, r3]	@ zero_extendqisi2
 705 02e0 1846     		mov	r0, r3
 706 02e2 FFF7FEFF 		bl	UART_3_PutChar
 112:printer.c     **** 	for(uint8 x = 0; x < 24; x ++){
 707              		.loc 1 112 0 discriminator 3
ARM GAS  C:\Users\Lenovo\AppData\Local\Temp\ccVx5qP5.s 			page 18


 708 02e6 97F84030 		ldrb	r3, [r7, #64]	@ zero_extendqisi2
 709 02ea 0133     		adds	r3, r3, #1
 710 02ec 87F84030 		strb	r3, [r7, #64]
 711              	.L17:
 112:printer.c     **** 	for(uint8 x = 0; x < 24; x ++){
 712              		.loc 1 112 0 is_stmt 0 discriminator 1
 713 02f0 97F84030 		ldrb	r3, [r7, #64]	@ zero_extendqisi2
 714 02f4 172B     		cmp	r3, #23
 715 02f6 EFD9     		bls	.L18
 716              	.LBE9:
 114:printer.c     **** 	}
 115:printer.c     ****     UART_3_PutChar(LINE_FEED);
 717              		.loc 1 115 0 is_stmt 1
 718 02f8 0D4B     		ldr	r3, .L125+36
 719 02fa 1B78     		ldrb	r3, [r3]	@ zero_extendqisi2
 720 02fc 1846     		mov	r0, r3
 721 02fe FFF7FEFF 		bl	UART_3_PutChar
 722              	.LBB10:
 116:printer.c     ****     /********** FECHA ***************/
 117:printer.c     **** 	for(uint8 x = 0; x < 13; x ++){
 723              		.loc 1 117 0
 724 0302 0023     		movs	r3, #0
 725 0304 87F83F30 		strb	r3, [r7, #63]
 726 0308 28E0     		b	.L19
 727              	.L126:
 728 030a 00BF     		.align	2
 729              	.L125:
 730 030c 00000000 		.word	int_salenumber
 731 0310 AD8BDB68 		.word	1759218605
 732 0314 00000000 		.word	sale_number
 733 0318 D34D6210 		.word	274877907
 734 031c 1F85EB51 		.word	1374389535
 735 0320 67666666 		.word	1717986919
 736 0324 00000000 		.word	ASK_TIME
 737 0328 00000000 		.word	touch1
 738 032c 00000000 		.word	msn_EDS
 739 0330 00000000 		.word	LINE_FEED
 740 0334 00000000 		.word	msn_EDS2
 741 0338 00000000 		.word	msn_EDS3
 742 033c 00000000 		.word	msn_EDS4
 743 0340 00000000 		.word	SEPARATOR
 744              	.L20:
 118:printer.c     **** 		UART_3_PutChar(msn_fecha[x]);
 745              		.loc 1 118 0 discriminator 3
 746 0344 97F83F30 		ldrb	r3, [r7, #63]	@ zero_extendqisi2
 747 0348 C44A     		ldr	r2, .L127
 748 034a D35C     		ldrb	r3, [r2, r3]	@ zero_extendqisi2
 749 034c 1846     		mov	r0, r3
 750 034e FFF7FEFF 		bl	UART_3_PutChar
 117:printer.c     **** 		UART_3_PutChar(msn_fecha[x]);
 751              		.loc 1 117 0 discriminator 3
 752 0352 97F83F30 		ldrb	r3, [r7, #63]	@ zero_extendqisi2
 753 0356 0133     		adds	r3, r3, #1
 754 0358 87F83F30 		strb	r3, [r7, #63]
 755              	.L19:
 117:printer.c     **** 		UART_3_PutChar(msn_fecha[x]);
 756              		.loc 1 117 0 is_stmt 0 discriminator 1
ARM GAS  C:\Users\Lenovo\AppData\Local\Temp\ccVx5qP5.s 			page 19


 757 035c 97F83F30 		ldrb	r3, [r7, #63]	@ zero_extendqisi2
 758 0360 0C2B     		cmp	r3, #12
 759 0362 EFD9     		bls	.L20
 760              	.LBE10:
 119:printer.c     **** 	}
 120:printer.c     ****     UART_3_PutChar(((touch1[6] >> 4) + 0x30));
 761              		.loc 1 120 0 is_stmt 1
 762 0364 BE4B     		ldr	r3, .L127+4
 763 0366 9B79     		ldrb	r3, [r3, #6]	@ zero_extendqisi2
 764 0368 1B09     		lsrs	r3, r3, #4
 765 036a DBB2     		uxtb	r3, r3
 766 036c 3033     		adds	r3, r3, #48
 767 036e DBB2     		uxtb	r3, r3
 768 0370 1846     		mov	r0, r3
 769 0372 FFF7FEFF 		bl	UART_3_PutChar
 121:printer.c     ****     UART_3_PutChar(((touch1[6] & 0x0F) + 0x30));
 770              		.loc 1 121 0
 771 0376 BA4B     		ldr	r3, .L127+4
 772 0378 9B79     		ldrb	r3, [r3, #6]	@ zero_extendqisi2
 773 037a 03F00F03 		and	r3, r3, #15
 774 037e DBB2     		uxtb	r3, r3
 775 0380 3033     		adds	r3, r3, #48
 776 0382 DBB2     		uxtb	r3, r3
 777 0384 1846     		mov	r0, r3
 778 0386 FFF7FEFF 		bl	UART_3_PutChar
 122:printer.c     ****     UART_3_PutChar('/');
 779              		.loc 1 122 0
 780 038a 2F20     		movs	r0, #47
 781 038c FFF7FEFF 		bl	UART_3_PutChar
 123:printer.c     ****     UART_3_PutChar(((touch1[7] >> 4) + 0x30)) ;
 782              		.loc 1 123 0
 783 0390 B34B     		ldr	r3, .L127+4
 784 0392 DB79     		ldrb	r3, [r3, #7]	@ zero_extendqisi2
 785 0394 1B09     		lsrs	r3, r3, #4
 786 0396 DBB2     		uxtb	r3, r3
 787 0398 3033     		adds	r3, r3, #48
 788 039a DBB2     		uxtb	r3, r3
 789 039c 1846     		mov	r0, r3
 790 039e FFF7FEFF 		bl	UART_3_PutChar
 124:printer.c     ****     UART_3_PutChar(((touch1[7] & 0x0F) + 0x30));
 791              		.loc 1 124 0
 792 03a2 AF4B     		ldr	r3, .L127+4
 793 03a4 DB79     		ldrb	r3, [r3, #7]	@ zero_extendqisi2
 794 03a6 03F00F03 		and	r3, r3, #15
 795 03aa DBB2     		uxtb	r3, r3
 796 03ac 3033     		adds	r3, r3, #48
 797 03ae DBB2     		uxtb	r3, r3
 798 03b0 1846     		mov	r0, r3
 799 03b2 FFF7FEFF 		bl	UART_3_PutChar
 125:printer.c     ****     UART_3_PutChar('/');
 800              		.loc 1 125 0
 801 03b6 2F20     		movs	r0, #47
 802 03b8 FFF7FEFF 		bl	UART_3_PutChar
 126:printer.c     ****     UART_3_PutChar(((touch1[8] >> 4) + 0x30)) ;
 803              		.loc 1 126 0
 804 03bc A84B     		ldr	r3, .L127+4
 805 03be 1B7A     		ldrb	r3, [r3, #8]	@ zero_extendqisi2
ARM GAS  C:\Users\Lenovo\AppData\Local\Temp\ccVx5qP5.s 			page 20


 806 03c0 1B09     		lsrs	r3, r3, #4
 807 03c2 DBB2     		uxtb	r3, r3
 808 03c4 3033     		adds	r3, r3, #48
 809 03c6 DBB2     		uxtb	r3, r3
 810 03c8 1846     		mov	r0, r3
 811 03ca FFF7FEFF 		bl	UART_3_PutChar
 127:printer.c     **** 	UART_3_PutChar(((touch1[8] & 0x0F) + 0x30));
 812              		.loc 1 127 0
 813 03ce A44B     		ldr	r3, .L127+4
 814 03d0 1B7A     		ldrb	r3, [r3, #8]	@ zero_extendqisi2
 815 03d2 03F00F03 		and	r3, r3, #15
 816 03d6 DBB2     		uxtb	r3, r3
 817 03d8 3033     		adds	r3, r3, #48
 818 03da DBB2     		uxtb	r3, r3
 819 03dc 1846     		mov	r0, r3
 820 03de FFF7FEFF 		bl	UART_3_PutChar
 128:printer.c     **** 
 129:printer.c     **** 	UART_3_PutChar(LINE_FEED);
 821              		.loc 1 129 0
 822 03e2 A04B     		ldr	r3, .L127+8
 823 03e4 1B78     		ldrb	r3, [r3]	@ zero_extendqisi2
 824 03e6 1846     		mov	r0, r3
 825 03e8 FFF7FEFF 		bl	UART_3_PutChar
 826              	.LBB11:
 130:printer.c     ****     /********** HORA ***************/
 131:printer.c     **** 	for(uint8 x = 0; x < 13; x ++){
 827              		.loc 1 131 0
 828 03ec 0023     		movs	r3, #0
 829 03ee 87F83E30 		strb	r3, [r7, #62]
 830 03f2 0BE0     		b	.L21
 831              	.L22:
 132:printer.c     **** 		UART_3_PutChar(msn_hora[x]);
 832              		.loc 1 132 0 discriminator 3
 833 03f4 97F83E30 		ldrb	r3, [r7, #62]	@ zero_extendqisi2
 834 03f8 9B4A     		ldr	r2, .L127+12
 835 03fa D35C     		ldrb	r3, [r2, r3]	@ zero_extendqisi2
 836 03fc 1846     		mov	r0, r3
 837 03fe FFF7FEFF 		bl	UART_3_PutChar
 131:printer.c     **** 		UART_3_PutChar(msn_hora[x]);
 838              		.loc 1 131 0 discriminator 3
 839 0402 97F83E30 		ldrb	r3, [r7, #62]	@ zero_extendqisi2
 840 0406 0133     		adds	r3, r3, #1
 841 0408 87F83E30 		strb	r3, [r7, #62]
 842              	.L21:
 131:printer.c     **** 		UART_3_PutChar(msn_hora[x]);
 843              		.loc 1 131 0 is_stmt 0 discriminator 1
 844 040c 97F83E30 		ldrb	r3, [r7, #62]	@ zero_extendqisi2
 845 0410 0C2B     		cmp	r3, #12
 846 0412 EFD9     		bls	.L22
 847              	.LBE11:
 133:printer.c     **** 	}
 134:printer.c     ****     UART_3_PutChar(((touch1[10] >> 4) + 0x30)) ;
 848              		.loc 1 134 0 is_stmt 1
 849 0414 924B     		ldr	r3, .L127+4
 850 0416 9B7A     		ldrb	r3, [r3, #10]	@ zero_extendqisi2
 851 0418 1B09     		lsrs	r3, r3, #4
 852 041a DBB2     		uxtb	r3, r3
ARM GAS  C:\Users\Lenovo\AppData\Local\Temp\ccVx5qP5.s 			page 21


 853 041c 3033     		adds	r3, r3, #48
 854 041e DBB2     		uxtb	r3, r3
 855 0420 1846     		mov	r0, r3
 856 0422 FFF7FEFF 		bl	UART_3_PutChar
 135:printer.c     ****     UART_3_PutChar(((touch1[10] & 0x0F) + 0x30));
 857              		.loc 1 135 0
 858 0426 8E4B     		ldr	r3, .L127+4
 859 0428 9B7A     		ldrb	r3, [r3, #10]	@ zero_extendqisi2
 860 042a 03F00F03 		and	r3, r3, #15
 861 042e DBB2     		uxtb	r3, r3
 862 0430 3033     		adds	r3, r3, #48
 863 0432 DBB2     		uxtb	r3, r3
 864 0434 1846     		mov	r0, r3
 865 0436 FFF7FEFF 		bl	UART_3_PutChar
 136:printer.c     ****     UART_3_PutChar(':');
 866              		.loc 1 136 0
 867 043a 3A20     		movs	r0, #58
 868 043c FFF7FEFF 		bl	UART_3_PutChar
 137:printer.c     ****     UART_3_PutChar(((touch1[11] >> 4) + 0x30)) ;
 869              		.loc 1 137 0
 870 0440 874B     		ldr	r3, .L127+4
 871 0442 DB7A     		ldrb	r3, [r3, #11]	@ zero_extendqisi2
 872 0444 1B09     		lsrs	r3, r3, #4
 873 0446 DBB2     		uxtb	r3, r3
 874 0448 3033     		adds	r3, r3, #48
 875 044a DBB2     		uxtb	r3, r3
 876 044c 1846     		mov	r0, r3
 877 044e FFF7FEFF 		bl	UART_3_PutChar
 138:printer.c     ****     UART_3_PutChar(((touch1[11] & 0x0F) + 0x30));
 878              		.loc 1 138 0
 879 0452 834B     		ldr	r3, .L127+4
 880 0454 DB7A     		ldrb	r3, [r3, #11]	@ zero_extendqisi2
 881 0456 03F00F03 		and	r3, r3, #15
 882 045a DBB2     		uxtb	r3, r3
 883 045c 3033     		adds	r3, r3, #48
 884 045e DBB2     		uxtb	r3, r3
 885 0460 1846     		mov	r0, r3
 886 0462 FFF7FEFF 		bl	UART_3_PutChar
 139:printer.c     ****     UART_3_PutChar(':');
 887              		.loc 1 139 0
 888 0466 3A20     		movs	r0, #58
 889 0468 FFF7FEFF 		bl	UART_3_PutChar
 140:printer.c     ****     UART_3_PutChar(((touch1[12] >> 4) + 0x30));
 890              		.loc 1 140 0
 891 046c 7C4B     		ldr	r3, .L127+4
 892 046e 1B7B     		ldrb	r3, [r3, #12]	@ zero_extendqisi2
 893 0470 1B09     		lsrs	r3, r3, #4
 894 0472 DBB2     		uxtb	r3, r3
 895 0474 3033     		adds	r3, r3, #48
 896 0476 DBB2     		uxtb	r3, r3
 897 0478 1846     		mov	r0, r3
 898 047a FFF7FEFF 		bl	UART_3_PutChar
 141:printer.c     **** 	UART_3_PutChar(((touch1[12] & 0x0F) + 0x30));
 899              		.loc 1 141 0
 900 047e 784B     		ldr	r3, .L127+4
 901 0480 1B7B     		ldrb	r3, [r3, #12]	@ zero_extendqisi2
 902 0482 03F00F03 		and	r3, r3, #15
ARM GAS  C:\Users\Lenovo\AppData\Local\Temp\ccVx5qP5.s 			page 22


 903 0486 DBB2     		uxtb	r3, r3
 904 0488 3033     		adds	r3, r3, #48
 905 048a DBB2     		uxtb	r3, r3
 906 048c 1846     		mov	r0, r3
 907 048e FFF7FEFF 		bl	UART_3_PutChar
 142:printer.c     **** 	
 143:printer.c     ****     UART_3_PutChar(LINE_FEED);
 908              		.loc 1 143 0
 909 0492 744B     		ldr	r3, .L127+8
 910 0494 1B78     		ldrb	r3, [r3]	@ zero_extendqisi2
 911 0496 1846     		mov	r0, r3
 912 0498 FFF7FEFF 		bl	UART_3_PutChar
 913              	.LBB12:
 144:printer.c     ****     for(uint8 x = 0; x < 24; x ++){
 914              		.loc 1 144 0
 915 049c 0023     		movs	r3, #0
 916 049e 87F83D30 		strb	r3, [r7, #61]
 917 04a2 0BE0     		b	.L23
 918              	.L24:
 145:printer.c     **** 		UART_3_PutChar(SEPARATOR[x]);
 919              		.loc 1 145 0 discriminator 3
 920 04a4 97F83D30 		ldrb	r3, [r7, #61]	@ zero_extendqisi2
 921 04a8 704A     		ldr	r2, .L127+16
 922 04aa D35C     		ldrb	r3, [r2, r3]	@ zero_extendqisi2
 923 04ac 1846     		mov	r0, r3
 924 04ae FFF7FEFF 		bl	UART_3_PutChar
 144:printer.c     ****     for(uint8 x = 0; x < 24; x ++){
 925              		.loc 1 144 0 discriminator 3
 926 04b2 97F83D30 		ldrb	r3, [r7, #61]	@ zero_extendqisi2
 927 04b6 0133     		adds	r3, r3, #1
 928 04b8 87F83D30 		strb	r3, [r7, #61]
 929              	.L23:
 144:printer.c     ****     for(uint8 x = 0; x < 24; x ++){
 930              		.loc 1 144 0 is_stmt 0 discriminator 1
 931 04bc 97F83D30 		ldrb	r3, [r7, #61]	@ zero_extendqisi2
 932 04c0 172B     		cmp	r3, #23
 933 04c2 EFD9     		bls	.L24
 934              	.LBE12:
 146:printer.c     **** 	}
 147:printer.c     ****     UART_3_PutChar(LINE_FEED); 
 935              		.loc 1 147 0 is_stmt 1
 936 04c4 674B     		ldr	r3, .L127+8
 937 04c6 1B78     		ldrb	r3, [r3]	@ zero_extendqisi2
 938 04c8 1846     		mov	r0, r3
 939 04ca FFF7FEFF 		bl	UART_3_PutChar
 940              	.LBB13:
 148:printer.c     ****     for(uint8 x = 0; x < 13; x ++){
 941              		.loc 1 148 0
 942 04ce 0023     		movs	r3, #0
 943 04d0 87F83C30 		strb	r3, [r7, #60]
 944 04d4 0BE0     		b	.L25
 945              	.L26:
 149:printer.c     **** 		UART_3_PutChar(msn_venta[x]);
 946              		.loc 1 149 0 discriminator 3
 947 04d6 97F83C30 		ldrb	r3, [r7, #60]	@ zero_extendqisi2
 948 04da 654A     		ldr	r2, .L127+20
 949 04dc D35C     		ldrb	r3, [r2, r3]	@ zero_extendqisi2
ARM GAS  C:\Users\Lenovo\AppData\Local\Temp\ccVx5qP5.s 			page 23


 950 04de 1846     		mov	r0, r3
 951 04e0 FFF7FEFF 		bl	UART_3_PutChar
 148:printer.c     ****     for(uint8 x = 0; x < 13; x ++){
 952              		.loc 1 148 0 discriminator 3
 953 04e4 97F83C30 		ldrb	r3, [r7, #60]	@ zero_extendqisi2
 954 04e8 0133     		adds	r3, r3, #1
 955 04ea 87F83C30 		strb	r3, [r7, #60]
 956              	.L25:
 148:printer.c     ****     for(uint8 x = 0; x < 13; x ++){
 957              		.loc 1 148 0 is_stmt 0 discriminator 1
 958 04ee 97F83C30 		ldrb	r3, [r7, #60]	@ zero_extendqisi2
 959 04f2 0C2B     		cmp	r3, #12
 960 04f4 EFD9     		bls	.L26
 961              	.LBE13:
 962              	.LBB14:
 150:printer.c     **** 	}
 151:printer.c     ****     for(uint8 x = 5; x > 0; x --){
 963              		.loc 1 151 0 is_stmt 1
 964 04f6 0523     		movs	r3, #5
 965 04f8 87F83B30 		strb	r3, [r7, #59]
 966 04fc 0BE0     		b	.L27
 967              	.L28:
 152:printer.c     **** 		UART_3_PutChar(sale_number[x]);
 968              		.loc 1 152 0 discriminator 3
 969 04fe 97F83B30 		ldrb	r3, [r7, #59]	@ zero_extendqisi2
 970 0502 5C4A     		ldr	r2, .L127+24
 971 0504 D35C     		ldrb	r3, [r2, r3]	@ zero_extendqisi2
 972 0506 1846     		mov	r0, r3
 973 0508 FFF7FEFF 		bl	UART_3_PutChar
 151:printer.c     **** 		UART_3_PutChar(sale_number[x]);
 974              		.loc 1 151 0 discriminator 3
 975 050c 97F83B30 		ldrb	r3, [r7, #59]	@ zero_extendqisi2
 976 0510 013B     		subs	r3, r3, #1
 977 0512 87F83B30 		strb	r3, [r7, #59]
 978              	.L27:
 151:printer.c     **** 		UART_3_PutChar(sale_number[x]);
 979              		.loc 1 151 0 is_stmt 0 discriminator 1
 980 0516 97F83B30 		ldrb	r3, [r7, #59]	@ zero_extendqisi2
 981 051a 002B     		cmp	r3, #0
 982 051c EFD1     		bne	.L28
 983              	.LBE14:
 153:printer.c     **** 	}
 154:printer.c     ****     UART_3_PutChar(LINE_FEED);
 984              		.loc 1 154 0 is_stmt 1
 985 051e 514B     		ldr	r3, .L127+8
 986 0520 1B78     		ldrb	r3, [r3]	@ zero_extendqisi2
 987 0522 1846     		mov	r0, r3
 988 0524 FFF7FEFF 		bl	UART_3_PutChar
 989              	.LBB15:
 155:printer.c     **** 	for(uint8 x = 0; x < 13; x ++){
 990              		.loc 1 155 0
 991 0528 0023     		movs	r3, #0
 992 052a 87F83A30 		strb	r3, [r7, #58]
 993 052e 0BE0     		b	.L29
 994              	.L30:
 156:printer.c     **** 		UART_3_PutChar(msn_placa[x]);
 995              		.loc 1 156 0 discriminator 3
ARM GAS  C:\Users\Lenovo\AppData\Local\Temp\ccVx5qP5.s 			page 24


 996 0530 97F83A30 		ldrb	r3, [r7, #58]	@ zero_extendqisi2
 997 0534 504A     		ldr	r2, .L127+28
 998 0536 D35C     		ldrb	r3, [r2, r3]	@ zero_extendqisi2
 999 0538 1846     		mov	r0, r3
 1000 053a FFF7FEFF 		bl	UART_3_PutChar
 155:printer.c     **** 	for(uint8 x = 0; x < 13; x ++){
 1001              		.loc 1 155 0 discriminator 3
 1002 053e 97F83A30 		ldrb	r3, [r7, #58]	@ zero_extendqisi2
 1003 0542 0133     		adds	r3, r3, #1
 1004 0544 87F83A30 		strb	r3, [r7, #58]
 1005              	.L29:
 155:printer.c     **** 	for(uint8 x = 0; x < 13; x ++){
 1006              		.loc 1 155 0 is_stmt 0 discriminator 1
 1007 0548 97F83A30 		ldrb	r3, [r7, #58]	@ zero_extendqisi2
 1008 054c 0C2B     		cmp	r3, #12
 1009 054e EFD9     		bls	.L30
 1010              	.LBE15:
 157:printer.c     **** 	}
 158:printer.c     **** 	/***** body ******/
 159:printer.c     **** 	if(address == side.a.dir){
 1011              		.loc 1 159 0 is_stmt 1
 1012 0550 4A4B     		ldr	r3, .L127+32
 1013 0552 1B78     		ldrb	r3, [r3]	@ zero_extendqisi2
 1014 0554 FA79     		ldrb	r2, [r7, #7]	@ zero_extendqisi2
 1015 0556 9A42     		cmp	r2, r3
 1016 0558 40F03281 		bne	.L31
 1017              	.LBB16:
 160:printer.c     **** 		for(uint8 x = 0; x < 8; x ++){
 1018              		.loc 1 160 0
 1019 055c 0023     		movs	r3, #0
 1020 055e 87F83930 		strb	r3, [r7, #57]
 1021 0562 0DE0     		b	.L32
 1022              	.L33:
 161:printer.c     **** 			UART_3_PutChar(side.a.msn_plate[x]);
 1023              		.loc 1 161 0 discriminator 3
 1024 0564 97F83930 		ldrb	r3, [r7, #57]	@ zero_extendqisi2
 1025 0568 444A     		ldr	r2, .L127+32
 1026 056a 1344     		add	r3, r3, r2
 1027 056c 93F82331 		ldrb	r3, [r3, #291]	@ zero_extendqisi2
 1028 0570 1846     		mov	r0, r3
 1029 0572 FFF7FEFF 		bl	UART_3_PutChar
 160:printer.c     **** 		for(uint8 x = 0; x < 8; x ++){
 1030              		.loc 1 160 0 discriminator 3
 1031 0576 97F83930 		ldrb	r3, [r7, #57]	@ zero_extendqisi2
 1032 057a 0133     		adds	r3, r3, #1
 1033 057c 87F83930 		strb	r3, [r7, #57]
 1034              	.L32:
 160:printer.c     **** 		for(uint8 x = 0; x < 8; x ++){
 1035              		.loc 1 160 0 is_stmt 0 discriminator 1
 1036 0580 97F83930 		ldrb	r3, [r7, #57]	@ zero_extendqisi2
 1037 0584 072B     		cmp	r3, #7
 1038 0586 EDD9     		bls	.L33
 1039              	.LBE16:
 162:printer.c     **** 		}  
 163:printer.c     ****         UART_3_PutChar(LINE_FEED);
 1040              		.loc 1 163 0 is_stmt 1
 1041 0588 364B     		ldr	r3, .L127+8
ARM GAS  C:\Users\Lenovo\AppData\Local\Temp\ccVx5qP5.s 			page 25


 1042 058a 1B78     		ldrb	r3, [r3]	@ zero_extendqisi2
 1043 058c 1846     		mov	r0, r3
 1044 058e FFF7FEFF 		bl	UART_3_PutChar
 1045              	.LBB17:
 164:printer.c     **** 		for(uint8 x = 0; x < 13; x ++){
 1046              		.loc 1 164 0
 1047 0592 0023     		movs	r3, #0
 1048 0594 87F83830 		strb	r3, [r7, #56]
 1049 0598 0BE0     		b	.L34
 1050              	.L35:
 165:printer.c     **** 			UART_3_PutChar(msn_pos[x]);
 1051              		.loc 1 165 0 discriminator 3
 1052 059a 97F83830 		ldrb	r3, [r7, #56]	@ zero_extendqisi2
 1053 059e 384A     		ldr	r2, .L127+36
 1054 05a0 D35C     		ldrb	r3, [r2, r3]	@ zero_extendqisi2
 1055 05a2 1846     		mov	r0, r3
 1056 05a4 FFF7FEFF 		bl	UART_3_PutChar
 164:printer.c     **** 		for(uint8 x = 0; x < 13; x ++){
 1057              		.loc 1 164 0 discriminator 3
 1058 05a8 97F83830 		ldrb	r3, [r7, #56]	@ zero_extendqisi2
 1059 05ac 0133     		adds	r3, r3, #1
 1060 05ae 87F83830 		strb	r3, [r7, #56]
 1061              	.L34:
 164:printer.c     **** 		for(uint8 x = 0; x < 13; x ++){
 1062              		.loc 1 164 0 is_stmt 0 discriminator 1
 1063 05b2 97F83830 		ldrb	r3, [r7, #56]	@ zero_extendqisi2
 1064 05b6 0C2B     		cmp	r3, #12
 1065 05b8 EFD9     		bls	.L35
 1066              	.LBE17:
 166:printer.c     **** 		}
 167:printer.c     **** 		UART_3_PutChar((side.a.dir)+ 0x31);
 1067              		.loc 1 167 0 is_stmt 1
 1068 05ba 304B     		ldr	r3, .L127+32
 1069 05bc 1B78     		ldrb	r3, [r3]	@ zero_extendqisi2
 1070 05be 3133     		adds	r3, r3, #49
 1071 05c0 DBB2     		uxtb	r3, r3
 1072 05c2 1846     		mov	r0, r3
 1073 05c4 FFF7FEFF 		bl	UART_3_PutChar
 168:printer.c     **** 		UART_3_PutChar(LINE_FEED);
 1074              		.loc 1 168 0
 1075 05c8 264B     		ldr	r3, .L127+8
 1076 05ca 1B78     		ldrb	r3, [r3]	@ zero_extendqisi2
 1077 05cc 1846     		mov	r0, r3
 1078 05ce FFF7FEFF 		bl	UART_3_PutChar
 1079              	.LBB18:
 169:printer.c     **** 		for(uint8 x = 0; x < 13; x ++){
 1080              		.loc 1 169 0
 1081 05d2 0023     		movs	r3, #0
 1082 05d4 87F83730 		strb	r3, [r7, #55]
 1083 05d8 0BE0     		b	.L36
 1084              	.L37:
 170:printer.c     **** 			UART_3_PutChar(msn_product[x]);
 1085              		.loc 1 170 0 discriminator 3
 1086 05da 97F83730 		ldrb	r3, [r7, #55]	@ zero_extendqisi2
 1087 05de 294A     		ldr	r2, .L127+40
 1088 05e0 D35C     		ldrb	r3, [r2, r3]	@ zero_extendqisi2
 1089 05e2 1846     		mov	r0, r3
ARM GAS  C:\Users\Lenovo\AppData\Local\Temp\ccVx5qP5.s 			page 26


 1090 05e4 FFF7FEFF 		bl	UART_3_PutChar
 169:printer.c     **** 		for(uint8 x = 0; x < 13; x ++){
 1091              		.loc 1 169 0 discriminator 3
 1092 05e8 97F83730 		ldrb	r3, [r7, #55]	@ zero_extendqisi2
 1093 05ec 0133     		adds	r3, r3, #1
 1094 05ee 87F83730 		strb	r3, [r7, #55]
 1095              	.L36:
 169:printer.c     **** 		for(uint8 x = 0; x < 13; x ++){
 1096              		.loc 1 169 0 is_stmt 0 discriminator 1
 1097 05f2 97F83730 		ldrb	r3, [r7, #55]	@ zero_extendqisi2
 1098 05f6 0C2B     		cmp	r3, #12
 1099 05f8 EFD9     		bls	.L37
 1100              	.LBE18:
 1101              	.LBB19:
 171:printer.c     **** 		}
 172:printer.c     **** 		for(uint8 x = 0; x < 8; x ++){
 1102              		.loc 1 172 0 is_stmt 1
 1103 05fa 0023     		movs	r3, #0
 1104 05fc 87F83630 		strb	r3, [r7, #54]
 1105 0600 0BE0     		b	.L38
 1106              	.L39:
 173:printer.c     **** 			UART_3_PutChar(msn_diesel[x]);
 1107              		.loc 1 173 0 discriminator 3
 1108 0602 97F83630 		ldrb	r3, [r7, #54]	@ zero_extendqisi2
 1109 0606 204A     		ldr	r2, .L127+44
 1110 0608 D35C     		ldrb	r3, [r2, r3]	@ zero_extendqisi2
 1111 060a 1846     		mov	r0, r3
 1112 060c FFF7FEFF 		bl	UART_3_PutChar
 172:printer.c     **** 			UART_3_PutChar(msn_diesel[x]);
 1113              		.loc 1 172 0 discriminator 3
 1114 0610 97F83630 		ldrb	r3, [r7, #54]	@ zero_extendqisi2
 1115 0614 0133     		adds	r3, r3, #1
 1116 0616 87F83630 		strb	r3, [r7, #54]
 1117              	.L38:
 172:printer.c     **** 			UART_3_PutChar(msn_diesel[x]);
 1118              		.loc 1 172 0 is_stmt 0 discriminator 1
 1119 061a 97F83630 		ldrb	r3, [r7, #54]	@ zero_extendqisi2
 1120 061e 072B     		cmp	r3, #7
 1121 0620 EFD9     		bls	.L39
 1122              	.LBE19:
 174:printer.c     **** 		}
 175:printer.c     ****         UART_3_PutChar(LINE_FEED);
 1123              		.loc 1 175 0 is_stmt 1
 1124 0622 104B     		ldr	r3, .L127+8
 1125 0624 1B78     		ldrb	r3, [r3]	@ zero_extendqisi2
 1126 0626 1846     		mov	r0, r3
 1127 0628 FFF7FEFF 		bl	UART_3_PutChar
 1128              	.LBB20:
 176:printer.c     **** 		for(uint8 x = 0; x < 13; x ++){
 1129              		.loc 1 176 0
 1130 062c 0023     		movs	r3, #0
 1131 062e 87F83530 		strb	r3, [r7, #53]
 1132 0632 0BE0     		b	.L40
 1133              	.L41:
 177:printer.c     **** 			UART_3_PutChar(msn_vol[x]);
 1134              		.loc 1 177 0 discriminator 3
 1135 0634 97F83530 		ldrb	r3, [r7, #53]	@ zero_extendqisi2
ARM GAS  C:\Users\Lenovo\AppData\Local\Temp\ccVx5qP5.s 			page 27


 1136 0638 144A     		ldr	r2, .L127+48
 1137 063a D35C     		ldrb	r3, [r2, r3]	@ zero_extendqisi2
 1138 063c 1846     		mov	r0, r3
 1139 063e FFF7FEFF 		bl	UART_3_PutChar
 176:printer.c     **** 		for(uint8 x = 0; x < 13; x ++){
 1140              		.loc 1 176 0 discriminator 3
 1141 0642 97F83530 		ldrb	r3, [r7, #53]	@ zero_extendqisi2
 1142 0646 0133     		adds	r3, r3, #1
 1143 0648 87F83530 		strb	r3, [r7, #53]
 1144              	.L40:
 176:printer.c     **** 		for(uint8 x = 0; x < 13; x ++){
 1145              		.loc 1 176 0 is_stmt 0 discriminator 1
 1146 064c 97F83530 		ldrb	r3, [r7, #53]	@ zero_extendqisi2
 1147 0650 0C2B     		cmp	r3, #12
 1148 0652 EFD9     		bls	.L41
 1149              	.LBE20:
 1150              	.LBB21:
 178:printer.c     **** 		}
 179:printer.c     **** 		for(uint8 x = 0; x < 8; x ++){
 1151              		.loc 1 179 0 is_stmt 1
 1152 0654 0023     		movs	r3, #0
 1153 0656 87F83430 		strb	r3, [r7, #52]
 1154 065a 32E0     		b	.L42
 1155              	.L128:
 1156              		.align	2
 1157              	.L127:
 1158 065c 00000000 		.word	msn_fecha
 1159 0660 00000000 		.word	touch1
 1160 0664 00000000 		.word	LINE_FEED
 1161 0668 00000000 		.word	msn_hora
 1162 066c 00000000 		.word	SEPARATOR
 1163 0670 00000000 		.word	msn_venta
 1164 0674 00000000 		.word	sale_number
 1165 0678 00000000 		.word	msn_placa
 1166 067c 00000000 		.word	side
 1167 0680 00000000 		.word	msn_pos
 1168 0684 00000000 		.word	msn_product
 1169 0688 00000000 		.word	msn_diesel
 1170 068c 00000000 		.word	msn_vol
 1171              	.L44:
 180:printer.c     **** 			if((8-x) == DecVol)
 1172              		.loc 1 180 0
 1173 0690 97F83430 		ldrb	r3, [r7, #52]	@ zero_extendqisi2
 1174 0694 C3F10803 		rsb	r3, r3, #8
 1175 0698 CE4A     		ldr	r2, .L129
 1176 069a 1278     		ldrb	r2, [r2]	@ zero_extendqisi2
 1177 069c 9342     		cmp	r3, r2
 1178 069e 02D1     		bne	.L43
 181:printer.c     **** 				UART_3_PutChar('.');
 1179              		.loc 1 181 0
 1180 06a0 2E20     		movs	r0, #46
 1181 06a2 FFF7FEFF 		bl	UART_3_PutChar
 1182              	.L43:
 182:printer.c     **** 			UART_3_PutChar(side.a.ProcessedvolumeSale[x]);        
 1183              		.loc 1 182 0 discriminator 2
 1184 06a6 97F83430 		ldrb	r3, [r7, #52]	@ zero_extendqisi2
 1185 06aa CB4A     		ldr	r2, .L129+4
ARM GAS  C:\Users\Lenovo\AppData\Local\Temp\ccVx5qP5.s 			page 28


 1186 06ac 1344     		add	r3, r3, r2
 1187 06ae 93F80331 		ldrb	r3, [r3, #259]	@ zero_extendqisi2
 1188 06b2 1846     		mov	r0, r3
 1189 06b4 FFF7FEFF 		bl	UART_3_PutChar
 179:printer.c     **** 			if((8-x) == DecVol)
 1190              		.loc 1 179 0 discriminator 2
 1191 06b8 97F83430 		ldrb	r3, [r7, #52]	@ zero_extendqisi2
 1192 06bc 0133     		adds	r3, r3, #1
 1193 06be 87F83430 		strb	r3, [r7, #52]
 1194              	.L42:
 179:printer.c     **** 			if((8-x) == DecVol)
 1195              		.loc 1 179 0 is_stmt 0 discriminator 1
 1196 06c2 97F83430 		ldrb	r3, [r7, #52]	@ zero_extendqisi2
 1197 06c6 072B     		cmp	r3, #7
 1198 06c8 E2D9     		bls	.L44
 1199              	.LBE21:
 183:printer.c     **** 		}
 184:printer.c     **** 		UART_3_PutChar(' ');
 1200              		.loc 1 184 0 is_stmt 1
 1201 06ca 2020     		movs	r0, #32
 1202 06cc FFF7FEFF 		bl	UART_3_PutChar
 185:printer.c     **** 		UART_3_PutChar(VolSimbol[0]);
 1203              		.loc 1 185 0
 1204 06d0 C24B     		ldr	r3, .L129+8
 1205 06d2 1B78     		ldrb	r3, [r3]	@ zero_extendqisi2
 1206 06d4 1846     		mov	r0, r3
 1207 06d6 FFF7FEFF 		bl	UART_3_PutChar
 186:printer.c     **** 		UART_3_PutChar(LINE_FEED); 
 1208              		.loc 1 186 0
 1209 06da C14B     		ldr	r3, .L129+12
 1210 06dc 1B78     		ldrb	r3, [r3]	@ zero_extendqisi2
 1211 06de 1846     		mov	r0, r3
 1212 06e0 FFF7FEFF 		bl	UART_3_PutChar
 1213              	.LBB22:
 187:printer.c     **** 		for(uint8 x = 0; x < 13; x ++){
 1214              		.loc 1 187 0
 1215 06e4 0023     		movs	r3, #0
 1216 06e6 87F83330 		strb	r3, [r7, #51]
 1217 06ea 0BE0     		b	.L45
 1218              	.L46:
 188:printer.c     **** 			UART_3_PutChar(msn_din[x]);
 1219              		.loc 1 188 0 discriminator 3
 1220 06ec 97F83330 		ldrb	r3, [r7, #51]	@ zero_extendqisi2
 1221 06f0 BC4A     		ldr	r2, .L129+16
 1222 06f2 D35C     		ldrb	r3, [r2, r3]	@ zero_extendqisi2
 1223 06f4 1846     		mov	r0, r3
 1224 06f6 FFF7FEFF 		bl	UART_3_PutChar
 187:printer.c     **** 		for(uint8 x = 0; x < 13; x ++){
 1225              		.loc 1 187 0 discriminator 3
 1226 06fa 97F83330 		ldrb	r3, [r7, #51]	@ zero_extendqisi2
 1227 06fe 0133     		adds	r3, r3, #1
 1228 0700 87F83330 		strb	r3, [r7, #51]
 1229              	.L45:
 187:printer.c     **** 		for(uint8 x = 0; x < 13; x ++){
 1230              		.loc 1 187 0 is_stmt 0 discriminator 1
 1231 0704 97F83330 		ldrb	r3, [r7, #51]	@ zero_extendqisi2
 1232 0708 0C2B     		cmp	r3, #12
ARM GAS  C:\Users\Lenovo\AppData\Local\Temp\ccVx5qP5.s 			page 29


 1233 070a EFD9     		bls	.L46
 1234              	.LBE22:
 189:printer.c     **** 		}     
 190:printer.c     **** 		UART_3_PutChar(PRN_CURRENCY[0]);  
 1235              		.loc 1 190 0 is_stmt 1
 1236 070c B64B     		ldr	r3, .L129+20
 1237 070e 1B78     		ldrb	r3, [r3]	@ zero_extendqisi2
 1238 0710 1846     		mov	r0, r3
 1239 0712 FFF7FEFF 		bl	UART_3_PutChar
 191:printer.c     **** 		UART_3_PutChar(' ');
 1240              		.loc 1 191 0
 1241 0716 2020     		movs	r0, #32
 1242 0718 FFF7FEFF 		bl	UART_3_PutChar
 1243              	.LBB23:
 192:printer.c     **** 		for(uint8 x = 0; x < 8; x ++){
 1244              		.loc 1 192 0
 1245 071c 0023     		movs	r3, #0
 1246 071e 87F83230 		strb	r3, [r7, #50]
 1247 0722 0DE0     		b	.L47
 1248              	.L48:
 193:printer.c     **** 			UART_3_PutChar(side.a.ProcessedmoneySale[x]);
 1249              		.loc 1 193 0 discriminator 3
 1250 0724 97F83230 		ldrb	r3, [r7, #50]	@ zero_extendqisi2
 1251 0728 AB4A     		ldr	r2, .L129+4
 1252 072a 1344     		add	r3, r3, r2
 1253 072c 93F8FB30 		ldrb	r3, [r3, #251]	@ zero_extendqisi2
 1254 0730 1846     		mov	r0, r3
 1255 0732 FFF7FEFF 		bl	UART_3_PutChar
 192:printer.c     **** 		for(uint8 x = 0; x < 8; x ++){
 1256              		.loc 1 192 0 discriminator 3
 1257 0736 97F83230 		ldrb	r3, [r7, #50]	@ zero_extendqisi2
 1258 073a 0133     		adds	r3, r3, #1
 1259 073c 87F83230 		strb	r3, [r7, #50]
 1260              	.L47:
 192:printer.c     **** 		for(uint8 x = 0; x < 8; x ++){
 1261              		.loc 1 192 0 is_stmt 0 discriminator 1
 1262 0740 97F83230 		ldrb	r3, [r7, #50]	@ zero_extendqisi2
 1263 0744 072B     		cmp	r3, #7
 1264 0746 EDD9     		bls	.L48
 1265              	.LBE23:
 194:printer.c     **** 		}
 195:printer.c     **** 		UART_3_PutChar(LINE_FEED); 	
 1266              		.loc 1 195 0 is_stmt 1
 1267 0748 A54B     		ldr	r3, .L129+12
 1268 074a 1B78     		ldrb	r3, [r3]	@ zero_extendqisi2
 1269 074c 1846     		mov	r0, r3
 1270 074e FFF7FEFF 		bl	UART_3_PutChar
 1271              	.LBB24:
 196:printer.c     **** 		for(uint8 x = 0; x < 13; x ++){
 1272              		.loc 1 196 0
 1273 0752 0023     		movs	r3, #0
 1274 0754 87F83130 		strb	r3, [r7, #49]
 1275 0758 0BE0     		b	.L49
 1276              	.L50:
 197:printer.c     **** 			UART_3_PutChar(msn_ppu[x]);
 1277              		.loc 1 197 0 discriminator 3
 1278 075a 97F83130 		ldrb	r3, [r7, #49]	@ zero_extendqisi2
ARM GAS  C:\Users\Lenovo\AppData\Local\Temp\ccVx5qP5.s 			page 30


 1279 075e A34A     		ldr	r2, .L129+24
 1280 0760 D35C     		ldrb	r3, [r2, r3]	@ zero_extendqisi2
 1281 0762 1846     		mov	r0, r3
 1282 0764 FFF7FEFF 		bl	UART_3_PutChar
 196:printer.c     **** 		for(uint8 x = 0; x < 13; x ++){
 1283              		.loc 1 196 0 discriminator 3
 1284 0768 97F83130 		ldrb	r3, [r7, #49]	@ zero_extendqisi2
 1285 076c 0133     		adds	r3, r3, #1
 1286 076e 87F83130 		strb	r3, [r7, #49]
 1287              	.L49:
 196:printer.c     **** 		for(uint8 x = 0; x < 13; x ++){
 1288              		.loc 1 196 0 is_stmt 0 discriminator 1
 1289 0772 97F83130 		ldrb	r3, [r7, #49]	@ zero_extendqisi2
 1290 0776 0C2B     		cmp	r3, #12
 1291 0778 EFD9     		bls	.L50
 1292              	.LBE24:
 198:printer.c     **** 		}
 199:printer.c     **** 		UART_3_PutChar(PRN_CURRENCY[0]);  
 1293              		.loc 1 199 0 is_stmt 1
 1294 077a 9B4B     		ldr	r3, .L129+20
 1295 077c 1B78     		ldrb	r3, [r3]	@ zero_extendqisi2
 1296 077e 1846     		mov	r0, r3
 1297 0780 FFF7FEFF 		bl	UART_3_PutChar
 200:printer.c     **** 		UART_3_PutChar(' ');
 1298              		.loc 1 200 0
 1299 0784 2020     		movs	r0, #32
 1300 0786 FFF7FEFF 		bl	UART_3_PutChar
 1301              	.LBB25:
 201:printer.c     **** 		for(uint8 x = 1; x < 6; x ++){
 1302              		.loc 1 201 0
 1303 078a 0123     		movs	r3, #1
 1304 078c 87F83030 		strb	r3, [r7, #48]
 1305 0790 0DE0     		b	.L51
 1306              	.L52:
 202:printer.c     **** 			UART_3_PutChar(side.a.ProcessedPPU[0][x]);
 1307              		.loc 1 202 0 discriminator 3
 1308 0792 97F83030 		ldrb	r3, [r7, #48]	@ zero_extendqisi2
 1309 0796 904A     		ldr	r2, .L129+4
 1310 0798 1344     		add	r3, r3, r2
 1311 079a 93F80B31 		ldrb	r3, [r3, #267]	@ zero_extendqisi2
 1312 079e 1846     		mov	r0, r3
 1313 07a0 FFF7FEFF 		bl	UART_3_PutChar
 201:printer.c     **** 		for(uint8 x = 1; x < 6; x ++){
 1314              		.loc 1 201 0 discriminator 3
 1315 07a4 97F83030 		ldrb	r3, [r7, #48]	@ zero_extendqisi2
 1316 07a8 0133     		adds	r3, r3, #1
 1317 07aa 87F83030 		strb	r3, [r7, #48]
 1318              	.L51:
 201:printer.c     **** 		for(uint8 x = 1; x < 6; x ++){
 1319              		.loc 1 201 0 is_stmt 0 discriminator 1
 1320 07ae 97F83030 		ldrb	r3, [r7, #48]	@ zero_extendqisi2
 1321 07b2 052B     		cmp	r3, #5
 1322 07b4 EDD9     		bls	.L52
 1323              	.LBE25:
 203:printer.c     **** 		}
 204:printer.c     **** 		UART_3_PutChar(LINE_FEED);
 1324              		.loc 1 204 0 is_stmt 1
ARM GAS  C:\Users\Lenovo\AppData\Local\Temp\ccVx5qP5.s 			page 31


 1325 07b6 8A4B     		ldr	r3, .L129+12
 1326 07b8 1B78     		ldrb	r3, [r3]	@ zero_extendqisi2
 1327 07ba 1846     		mov	r0, r3
 1328 07bc FFF7FEFF 		bl	UART_3_PutChar
 1329              	.L31:
 205:printer.c     **** 	}
 206:printer.c     **** 	
 207:printer.c     **** 	if(address == side.b.dir){
 1330              		.loc 1 207 0
 1331 07c0 854B     		ldr	r3, .L129+4
 1332 07c2 93F82B31 		ldrb	r3, [r3, #299]	@ zero_extendqisi2
 1333 07c6 FA79     		ldrb	r2, [r7, #7]	@ zero_extendqisi2
 1334 07c8 9A42     		cmp	r2, r3
 1335 07ca 40F03081 		bne	.L53
 1336              	.LBB26:
 208:printer.c     **** 		for(uint8 x = 0; x < 8; x ++){
 1337              		.loc 1 208 0
 1338 07ce 0023     		movs	r3, #0
 1339 07d0 87F82F30 		strb	r3, [r7, #47]
 1340 07d4 0DE0     		b	.L54
 1341              	.L55:
 209:printer.c     **** 			UART_3_PutChar(side.b.msn_plate[x]);
 1342              		.loc 1 209 0 discriminator 3
 1343 07d6 97F82F30 		ldrb	r3, [r7, #47]	@ zero_extendqisi2
 1344 07da 7F4A     		ldr	r2, .L129+4
 1345 07dc 1344     		add	r3, r3, r2
 1346 07de 93F84E32 		ldrb	r3, [r3, #590]	@ zero_extendqisi2
 1347 07e2 1846     		mov	r0, r3
 1348 07e4 FFF7FEFF 		bl	UART_3_PutChar
 208:printer.c     **** 		for(uint8 x = 0; x < 8; x ++){
 1349              		.loc 1 208 0 discriminator 3
 1350 07e8 97F82F30 		ldrb	r3, [r7, #47]	@ zero_extendqisi2
 1351 07ec 0133     		adds	r3, r3, #1
 1352 07ee 87F82F30 		strb	r3, [r7, #47]
 1353              	.L54:
 208:printer.c     **** 		for(uint8 x = 0; x < 8; x ++){
 1354              		.loc 1 208 0 is_stmt 0 discriminator 1
 1355 07f2 97F82F30 		ldrb	r3, [r7, #47]	@ zero_extendqisi2
 1356 07f6 072B     		cmp	r3, #7
 1357 07f8 EDD9     		bls	.L55
 1358              	.LBE26:
 210:printer.c     **** 		}
 211:printer.c     ****         UART_3_PutChar(LINE_FEED);
 1359              		.loc 1 211 0 is_stmt 1
 1360 07fa 794B     		ldr	r3, .L129+12
 1361 07fc 1B78     		ldrb	r3, [r3]	@ zero_extendqisi2
 1362 07fe 1846     		mov	r0, r3
 1363 0800 FFF7FEFF 		bl	UART_3_PutChar
 1364              	.LBB27:
 212:printer.c     **** 		for(uint8 x = 0; x < 13; x ++){
 1365              		.loc 1 212 0
 1366 0804 0023     		movs	r3, #0
 1367 0806 87F82E30 		strb	r3, [r7, #46]
 1368 080a 0BE0     		b	.L56
 1369              	.L57:
 213:printer.c     **** 			UART_3_PutChar(msn_pos[x]);
 1370              		.loc 1 213 0 discriminator 3
ARM GAS  C:\Users\Lenovo\AppData\Local\Temp\ccVx5qP5.s 			page 32


 1371 080c 97F82E30 		ldrb	r3, [r7, #46]	@ zero_extendqisi2
 1372 0810 774A     		ldr	r2, .L129+28
 1373 0812 D35C     		ldrb	r3, [r2, r3]	@ zero_extendqisi2
 1374 0814 1846     		mov	r0, r3
 1375 0816 FFF7FEFF 		bl	UART_3_PutChar
 212:printer.c     **** 		for(uint8 x = 0; x < 13; x ++){
 1376              		.loc 1 212 0 discriminator 3
 1377 081a 97F82E30 		ldrb	r3, [r7, #46]	@ zero_extendqisi2
 1378 081e 0133     		adds	r3, r3, #1
 1379 0820 87F82E30 		strb	r3, [r7, #46]
 1380              	.L56:
 212:printer.c     **** 		for(uint8 x = 0; x < 13; x ++){
 1381              		.loc 1 212 0 is_stmt 0 discriminator 1
 1382 0824 97F82E30 		ldrb	r3, [r7, #46]	@ zero_extendqisi2
 1383 0828 0C2B     		cmp	r3, #12
 1384 082a EFD9     		bls	.L57
 1385              	.LBE27:
 214:printer.c     **** 		}
 215:printer.c     **** 		UART_3_PutChar((side.b.dir)+ 0x31);
 1386              		.loc 1 215 0 is_stmt 1
 1387 082c 6A4B     		ldr	r3, .L129+4
 1388 082e 93F82B31 		ldrb	r3, [r3, #299]	@ zero_extendqisi2
 1389 0832 3133     		adds	r3, r3, #49
 1390 0834 DBB2     		uxtb	r3, r3
 1391 0836 1846     		mov	r0, r3
 1392 0838 FFF7FEFF 		bl	UART_3_PutChar
 216:printer.c     **** 		UART_3_PutChar(LINE_FEED);
 1393              		.loc 1 216 0
 1394 083c 684B     		ldr	r3, .L129+12
 1395 083e 1B78     		ldrb	r3, [r3]	@ zero_extendqisi2
 1396 0840 1846     		mov	r0, r3
 1397 0842 FFF7FEFF 		bl	UART_3_PutChar
 1398              	.LBB28:
 217:printer.c     **** 		for(uint8 x = 0; x < 13; x ++){
 1399              		.loc 1 217 0
 1400 0846 0023     		movs	r3, #0
 1401 0848 87F82D30 		strb	r3, [r7, #45]
 1402 084c 0BE0     		b	.L58
 1403              	.L59:
 218:printer.c     **** 			UART_3_PutChar(msn_product[x]);
 1404              		.loc 1 218 0 discriminator 3
 1405 084e 97F82D30 		ldrb	r3, [r7, #45]	@ zero_extendqisi2
 1406 0852 684A     		ldr	r2, .L129+32
 1407 0854 D35C     		ldrb	r3, [r2, r3]	@ zero_extendqisi2
 1408 0856 1846     		mov	r0, r3
 1409 0858 FFF7FEFF 		bl	UART_3_PutChar
 217:printer.c     **** 		for(uint8 x = 0; x < 13; x ++){
 1410              		.loc 1 217 0 discriminator 3
 1411 085c 97F82D30 		ldrb	r3, [r7, #45]	@ zero_extendqisi2
 1412 0860 0133     		adds	r3, r3, #1
 1413 0862 87F82D30 		strb	r3, [r7, #45]
 1414              	.L58:
 217:printer.c     **** 		for(uint8 x = 0; x < 13; x ++){
 1415              		.loc 1 217 0 is_stmt 0 discriminator 1
 1416 0866 97F82D30 		ldrb	r3, [r7, #45]	@ zero_extendqisi2
 1417 086a 0C2B     		cmp	r3, #12
 1418 086c EFD9     		bls	.L59
ARM GAS  C:\Users\Lenovo\AppData\Local\Temp\ccVx5qP5.s 			page 33


 1419              	.LBE28:
 1420              	.LBB29:
 219:printer.c     **** 		}
 220:printer.c     **** 		for(uint8 x = 0; x < 8; x ++){
 1421              		.loc 1 220 0 is_stmt 1
 1422 086e 0023     		movs	r3, #0
 1423 0870 87F82C30 		strb	r3, [r7, #44]
 1424 0874 0BE0     		b	.L60
 1425              	.L61:
 221:printer.c     **** 			UART_3_PutChar(msn_diesel[x]);
 1426              		.loc 1 221 0 discriminator 3
 1427 0876 97F82C30 		ldrb	r3, [r7, #44]	@ zero_extendqisi2
 1428 087a 5F4A     		ldr	r2, .L129+36
 1429 087c D35C     		ldrb	r3, [r2, r3]	@ zero_extendqisi2
 1430 087e 1846     		mov	r0, r3
 1431 0880 FFF7FEFF 		bl	UART_3_PutChar
 220:printer.c     **** 			UART_3_PutChar(msn_diesel[x]);
 1432              		.loc 1 220 0 discriminator 3
 1433 0884 97F82C30 		ldrb	r3, [r7, #44]	@ zero_extendqisi2
 1434 0888 0133     		adds	r3, r3, #1
 1435 088a 87F82C30 		strb	r3, [r7, #44]
 1436              	.L60:
 220:printer.c     **** 			UART_3_PutChar(msn_diesel[x]);
 1437              		.loc 1 220 0 is_stmt 0 discriminator 1
 1438 088e 97F82C30 		ldrb	r3, [r7, #44]	@ zero_extendqisi2
 1439 0892 072B     		cmp	r3, #7
 1440 0894 EFD9     		bls	.L61
 1441              	.LBE29:
 222:printer.c     **** 		}
 223:printer.c     ****         UART_3_PutChar(LINE_FEED);
 1442              		.loc 1 223 0 is_stmt 1
 1443 0896 524B     		ldr	r3, .L129+12
 1444 0898 1B78     		ldrb	r3, [r3]	@ zero_extendqisi2
 1445 089a 1846     		mov	r0, r3
 1446 089c FFF7FEFF 		bl	UART_3_PutChar
 1447              	.LBB30:
 224:printer.c     **** 		for(uint8 x = 0; x < 13; x ++){
 1448              		.loc 1 224 0
 1449 08a0 0023     		movs	r3, #0
 1450 08a2 87F82B30 		strb	r3, [r7, #43]
 1451 08a6 0BE0     		b	.L62
 1452              	.L63:
 225:printer.c     **** 			UART_3_PutChar(msn_vol[x]);
 1453              		.loc 1 225 0 discriminator 3
 1454 08a8 97F82B30 		ldrb	r3, [r7, #43]	@ zero_extendqisi2
 1455 08ac 534A     		ldr	r2, .L129+40
 1456 08ae D35C     		ldrb	r3, [r2, r3]	@ zero_extendqisi2
 1457 08b0 1846     		mov	r0, r3
 1458 08b2 FFF7FEFF 		bl	UART_3_PutChar
 224:printer.c     **** 		for(uint8 x = 0; x < 13; x ++){
 1459              		.loc 1 224 0 discriminator 3
 1460 08b6 97F82B30 		ldrb	r3, [r7, #43]	@ zero_extendqisi2
 1461 08ba 0133     		adds	r3, r3, #1
 1462 08bc 87F82B30 		strb	r3, [r7, #43]
 1463              	.L62:
 224:printer.c     **** 		for(uint8 x = 0; x < 13; x ++){
 1464              		.loc 1 224 0 is_stmt 0 discriminator 1
ARM GAS  C:\Users\Lenovo\AppData\Local\Temp\ccVx5qP5.s 			page 34


 1465 08c0 97F82B30 		ldrb	r3, [r7, #43]	@ zero_extendqisi2
 1466 08c4 0C2B     		cmp	r3, #12
 1467 08c6 EFD9     		bls	.L63
 1468              	.LBE30:
 1469              	.LBB31:
 226:printer.c     **** 		}
 227:printer.c     **** 		for(uint8 x = 0; x < 8; x ++){
 1470              		.loc 1 227 0 is_stmt 1
 1471 08c8 0023     		movs	r3, #0
 1472 08ca 87F82A30 		strb	r3, [r7, #42]
 1473 08ce 18E0     		b	.L64
 1474              	.L66:
 228:printer.c     **** 			if((8-x) == DecVol)
 1475              		.loc 1 228 0
 1476 08d0 97F82A30 		ldrb	r3, [r7, #42]	@ zero_extendqisi2
 1477 08d4 C3F10803 		rsb	r3, r3, #8
 1478 08d8 3E4A     		ldr	r2, .L129
 1479 08da 1278     		ldrb	r2, [r2]	@ zero_extendqisi2
 1480 08dc 9342     		cmp	r3, r2
 1481 08de 02D1     		bne	.L65
 229:printer.c     **** 				UART_3_PutChar('.');
 1482              		.loc 1 229 0
 1483 08e0 2E20     		movs	r0, #46
 1484 08e2 FFF7FEFF 		bl	UART_3_PutChar
 1485              	.L65:
 230:printer.c     **** 			UART_3_PutChar(side.b.ProcessedvolumeSale[x]);        
 1486              		.loc 1 230 0 discriminator 2
 1487 08e6 97F82A30 		ldrb	r3, [r7, #42]	@ zero_extendqisi2
 1488 08ea 3B4A     		ldr	r2, .L129+4
 1489 08ec 1344     		add	r3, r3, r2
 1490 08ee 93F82E32 		ldrb	r3, [r3, #558]	@ zero_extendqisi2
 1491 08f2 1846     		mov	r0, r3
 1492 08f4 FFF7FEFF 		bl	UART_3_PutChar
 227:printer.c     **** 			if((8-x) == DecVol)
 1493              		.loc 1 227 0 discriminator 2
 1494 08f8 97F82A30 		ldrb	r3, [r7, #42]	@ zero_extendqisi2
 1495 08fc 0133     		adds	r3, r3, #1
 1496 08fe 87F82A30 		strb	r3, [r7, #42]
 1497              	.L64:
 227:printer.c     **** 			if((8-x) == DecVol)
 1498              		.loc 1 227 0 is_stmt 0 discriminator 1
 1499 0902 97F82A30 		ldrb	r3, [r7, #42]	@ zero_extendqisi2
 1500 0906 072B     		cmp	r3, #7
 1501 0908 E2D9     		bls	.L66
 1502              	.LBE31:
 231:printer.c     **** 		}
 232:printer.c     **** 		UART_3_PutChar(' ');
 1503              		.loc 1 232 0 is_stmt 1
 1504 090a 2020     		movs	r0, #32
 1505 090c FFF7FEFF 		bl	UART_3_PutChar
 233:printer.c     **** 		UART_3_PutChar(VolSimbol[0]);
 1506              		.loc 1 233 0
 1507 0910 324B     		ldr	r3, .L129+8
 1508 0912 1B78     		ldrb	r3, [r3]	@ zero_extendqisi2
 1509 0914 1846     		mov	r0, r3
 1510 0916 FFF7FEFF 		bl	UART_3_PutChar
 234:printer.c     **** 		UART_3_PutChar(LINE_FEED); 
ARM GAS  C:\Users\Lenovo\AppData\Local\Temp\ccVx5qP5.s 			page 35


 1511              		.loc 1 234 0
 1512 091a 314B     		ldr	r3, .L129+12
 1513 091c 1B78     		ldrb	r3, [r3]	@ zero_extendqisi2
 1514 091e 1846     		mov	r0, r3
 1515 0920 FFF7FEFF 		bl	UART_3_PutChar
 1516              	.LBB32:
 235:printer.c     **** 		for(uint8 x = 0; x < 13; x ++){
 1517              		.loc 1 235 0
 1518 0924 0023     		movs	r3, #0
 1519 0926 87F82930 		strb	r3, [r7, #41]
 1520 092a 0BE0     		b	.L67
 1521              	.L68:
 236:printer.c     **** 			UART_3_PutChar(msn_din[x]);
 1522              		.loc 1 236 0 discriminator 3
 1523 092c 97F82930 		ldrb	r3, [r7, #41]	@ zero_extendqisi2
 1524 0930 2C4A     		ldr	r2, .L129+16
 1525 0932 D35C     		ldrb	r3, [r2, r3]	@ zero_extendqisi2
 1526 0934 1846     		mov	r0, r3
 1527 0936 FFF7FEFF 		bl	UART_3_PutChar
 235:printer.c     **** 		for(uint8 x = 0; x < 13; x ++){
 1528              		.loc 1 235 0 discriminator 3
 1529 093a 97F82930 		ldrb	r3, [r7, #41]	@ zero_extendqisi2
 1530 093e 0133     		adds	r3, r3, #1
 1531 0940 87F82930 		strb	r3, [r7, #41]
 1532              	.L67:
 235:printer.c     **** 		for(uint8 x = 0; x < 13; x ++){
 1533              		.loc 1 235 0 is_stmt 0 discriminator 1
 1534 0944 97F82930 		ldrb	r3, [r7, #41]	@ zero_extendqisi2
 1535 0948 0C2B     		cmp	r3, #12
 1536 094a EFD9     		bls	.L68
 1537              	.LBE32:
 237:printer.c     **** 		}     
 238:printer.c     **** 		UART_3_PutChar(PRN_CURRENCY[0]);  
 1538              		.loc 1 238 0 is_stmt 1
 1539 094c 264B     		ldr	r3, .L129+20
 1540 094e 1B78     		ldrb	r3, [r3]	@ zero_extendqisi2
 1541 0950 1846     		mov	r0, r3
 1542 0952 FFF7FEFF 		bl	UART_3_PutChar
 239:printer.c     **** 		UART_3_PutChar(' ');
 1543              		.loc 1 239 0
 1544 0956 2020     		movs	r0, #32
 1545 0958 FFF7FEFF 		bl	UART_3_PutChar
 1546              	.LBB33:
 240:printer.c     **** 		for(uint8 x = 0; x < 8; x ++){
 1547              		.loc 1 240 0
 1548 095c 0023     		movs	r3, #0
 1549 095e 87F82830 		strb	r3, [r7, #40]
 1550 0962 0DE0     		b	.L69
 1551              	.L70:
 241:printer.c     **** 			UART_3_PutChar(side.b.ProcessedmoneySale[x]);
 1552              		.loc 1 241 0 discriminator 3
 1553 0964 97F82830 		ldrb	r3, [r7, #40]	@ zero_extendqisi2
 1554 0968 1B4A     		ldr	r2, .L129+4
 1555 096a 1344     		add	r3, r3, r2
 1556 096c 93F82632 		ldrb	r3, [r3, #550]	@ zero_extendqisi2
 1557 0970 1846     		mov	r0, r3
 1558 0972 FFF7FEFF 		bl	UART_3_PutChar
ARM GAS  C:\Users\Lenovo\AppData\Local\Temp\ccVx5qP5.s 			page 36


 240:printer.c     **** 		for(uint8 x = 0; x < 8; x ++){
 1559              		.loc 1 240 0 discriminator 3
 1560 0976 97F82830 		ldrb	r3, [r7, #40]	@ zero_extendqisi2
 1561 097a 0133     		adds	r3, r3, #1
 1562 097c 87F82830 		strb	r3, [r7, #40]
 1563              	.L69:
 240:printer.c     **** 		for(uint8 x = 0; x < 8; x ++){
 1564              		.loc 1 240 0 is_stmt 0 discriminator 1
 1565 0980 97F82830 		ldrb	r3, [r7, #40]	@ zero_extendqisi2
 1566 0984 072B     		cmp	r3, #7
 1567 0986 EDD9     		bls	.L70
 1568              	.LBE33:
 242:printer.c     **** 		}
 243:printer.c     **** 		UART_3_PutChar(LINE_FEED); 	
 1569              		.loc 1 243 0 is_stmt 1
 1570 0988 154B     		ldr	r3, .L129+12
 1571 098a 1B78     		ldrb	r3, [r3]	@ zero_extendqisi2
 1572 098c 1846     		mov	r0, r3
 1573 098e FFF7FEFF 		bl	UART_3_PutChar
 1574              	.LBB34:
 244:printer.c     **** 		for(uint8 x = 0; x < 13; x ++){
 1575              		.loc 1 244 0
 1576 0992 0023     		movs	r3, #0
 1577 0994 87F82730 		strb	r3, [r7, #39]
 1578 0998 0BE0     		b	.L71
 1579              	.L72:
 245:printer.c     **** 			UART_3_PutChar(msn_ppu[x]);
 1580              		.loc 1 245 0 discriminator 3
 1581 099a 97F82730 		ldrb	r3, [r7, #39]	@ zero_extendqisi2
 1582 099e 134A     		ldr	r2, .L129+24
 1583 09a0 D35C     		ldrb	r3, [r2, r3]	@ zero_extendqisi2
 1584 09a2 1846     		mov	r0, r3
 1585 09a4 FFF7FEFF 		bl	UART_3_PutChar
 244:printer.c     **** 		for(uint8 x = 0; x < 13; x ++){
 1586              		.loc 1 244 0 discriminator 3
 1587 09a8 97F82730 		ldrb	r3, [r7, #39]	@ zero_extendqisi2
 1588 09ac 0133     		adds	r3, r3, #1
 1589 09ae 87F82730 		strb	r3, [r7, #39]
 1590              	.L71:
 244:printer.c     **** 		for(uint8 x = 0; x < 13; x ++){
 1591              		.loc 1 244 0 is_stmt 0 discriminator 1
 1592 09b2 97F82730 		ldrb	r3, [r7, #39]	@ zero_extendqisi2
 1593 09b6 0C2B     		cmp	r3, #12
 1594 09b8 EFD9     		bls	.L72
 1595              	.LBE34:
 246:printer.c     **** 		}
 247:printer.c     **** 		UART_3_PutChar(PRN_CURRENCY[0]);  
 1596              		.loc 1 247 0 is_stmt 1
 1597 09ba 0B4B     		ldr	r3, .L129+20
 1598 09bc 1B78     		ldrb	r3, [r3]	@ zero_extendqisi2
 1599 09be 1846     		mov	r0, r3
 1600 09c0 FFF7FEFF 		bl	UART_3_PutChar
 248:printer.c     **** 		UART_3_PutChar(' ');
 1601              		.loc 1 248 0
 1602 09c4 2020     		movs	r0, #32
 1603 09c6 FFF7FEFF 		bl	UART_3_PutChar
 1604              	.LBB35:
ARM GAS  C:\Users\Lenovo\AppData\Local\Temp\ccVx5qP5.s 			page 37


 249:printer.c     **** 		for(uint8 x = 1; x < 6; x ++){
 1605              		.loc 1 249 0
 1606 09ca 0123     		movs	r3, #1
 1607 09cc 87F82630 		strb	r3, [r7, #38]
 1608 09d0 24E0     		b	.L73
 1609              	.L130:
 1610 09d2 00BF     		.align	2
 1611              	.L129:
 1612 09d4 00000000 		.word	DecVol
 1613 09d8 00000000 		.word	side
 1614 09dc 00000000 		.word	VolSimbol
 1615 09e0 00000000 		.word	LINE_FEED
 1616 09e4 00000000 		.word	msn_din
 1617 09e8 00000000 		.word	PRN_CURRENCY
 1618 09ec 00000000 		.word	msn_ppu
 1619 09f0 00000000 		.word	msn_pos
 1620 09f4 00000000 		.word	msn_product
 1621 09f8 00000000 		.word	msn_diesel
 1622 09fc 00000000 		.word	msn_vol
 1623              	.L74:
 250:printer.c     **** 			UART_3_PutChar(side.b.ProcessedPPU[0][x]);
 1624              		.loc 1 250 0 discriminator 3
 1625 0a00 97F82630 		ldrb	r3, [r7, #38]	@ zero_extendqisi2
 1626 0a04 BD4A     		ldr	r2, .L131
 1627 0a06 1344     		add	r3, r3, r2
 1628 0a08 93F83632 		ldrb	r3, [r3, #566]	@ zero_extendqisi2
 1629 0a0c 1846     		mov	r0, r3
 1630 0a0e FFF7FEFF 		bl	UART_3_PutChar
 249:printer.c     **** 		for(uint8 x = 1; x < 6; x ++){
 1631              		.loc 1 249 0 discriminator 3
 1632 0a12 97F82630 		ldrb	r3, [r7, #38]	@ zero_extendqisi2
 1633 0a16 0133     		adds	r3, r3, #1
 1634 0a18 87F82630 		strb	r3, [r7, #38]
 1635              	.L73:
 249:printer.c     **** 		for(uint8 x = 1; x < 6; x ++){
 1636              		.loc 1 249 0 is_stmt 0 discriminator 1
 1637 0a1c 97F82630 		ldrb	r3, [r7, #38]	@ zero_extendqisi2
 1638 0a20 052B     		cmp	r3, #5
 1639 0a22 EDD9     		bls	.L74
 1640              	.LBE35:
 251:printer.c     **** 		}
 252:printer.c     **** 		UART_3_PutChar(LINE_FEED);
 1641              		.loc 1 252 0 is_stmt 1
 1642 0a24 B64B     		ldr	r3, .L131+4
 1643 0a26 1B78     		ldrb	r3, [r3]	@ zero_extendqisi2
 1644 0a28 1846     		mov	r0, r3
 1645 0a2a FFF7FEFF 		bl	UART_3_PutChar
 1646              	.L53:
 253:printer.c     **** 	}
 254:printer.c     **** 	
 255:printer.c     **** 	if(address == side.c.dir){
 1647              		.loc 1 255 0
 1648 0a2e B34B     		ldr	r3, .L131
 1649 0a30 93F85632 		ldrb	r3, [r3, #598]	@ zero_extendqisi2
 1650 0a34 FA79     		ldrb	r2, [r7, #7]	@ zero_extendqisi2
 1651 0a36 9A42     		cmp	r2, r3
 1652 0a38 40F00581 		bne	.L75
ARM GAS  C:\Users\Lenovo\AppData\Local\Temp\ccVx5qP5.s 			page 38


 1653              	.LBB36:
 256:printer.c     **** 		for(uint8 x = 0; x < 8; x ++){
 1654              		.loc 1 256 0
 1655 0a3c 0023     		movs	r3, #0
 1656 0a3e 87F82530 		strb	r3, [r7, #37]
 1657 0a42 0DE0     		b	.L76
 1658              	.L77:
 257:printer.c     **** 			UART_3_PutChar(side.c.msn_plate[x]);
 1659              		.loc 1 257 0 discriminator 3
 1660 0a44 97F82530 		ldrb	r3, [r7, #37]	@ zero_extendqisi2
 1661 0a48 AC4A     		ldr	r2, .L131
 1662 0a4a 1344     		add	r3, r3, r2
 1663 0a4c 93F87933 		ldrb	r3, [r3, #889]	@ zero_extendqisi2
 1664 0a50 1846     		mov	r0, r3
 1665 0a52 FFF7FEFF 		bl	UART_3_PutChar
 256:printer.c     **** 		for(uint8 x = 0; x < 8; x ++){
 1666              		.loc 1 256 0 discriminator 3
 1667 0a56 97F82530 		ldrb	r3, [r7, #37]	@ zero_extendqisi2
 1668 0a5a 0133     		adds	r3, r3, #1
 1669 0a5c 87F82530 		strb	r3, [r7, #37]
 1670              	.L76:
 256:printer.c     **** 		for(uint8 x = 0; x < 8; x ++){
 1671              		.loc 1 256 0 is_stmt 0 discriminator 1
 1672 0a60 97F82530 		ldrb	r3, [r7, #37]	@ zero_extendqisi2
 1673 0a64 072B     		cmp	r3, #7
 1674 0a66 EDD9     		bls	.L77
 1675              	.LBE36:
 258:printer.c     **** 		}  
 259:printer.c     ****         UART_3_PutChar(LINE_FEED);
 1676              		.loc 1 259 0 is_stmt 1
 1677 0a68 A54B     		ldr	r3, .L131+4
 1678 0a6a 1B78     		ldrb	r3, [r3]	@ zero_extendqisi2
 1679 0a6c 1846     		mov	r0, r3
 1680 0a6e FFF7FEFF 		bl	UART_3_PutChar
 1681              	.LBB37:
 260:printer.c     **** 		for(uint8 x = 0; x < 13; x ++){
 1682              		.loc 1 260 0
 1683 0a72 0023     		movs	r3, #0
 1684 0a74 87F82430 		strb	r3, [r7, #36]
 1685 0a78 0BE0     		b	.L78
 1686              	.L79:
 261:printer.c     **** 			UART_3_PutChar(msn_pos[x]);
 1687              		.loc 1 261 0 discriminator 3
 1688 0a7a 97F82430 		ldrb	r3, [r7, #36]	@ zero_extendqisi2
 1689 0a7e A14A     		ldr	r2, .L131+8
 1690 0a80 D35C     		ldrb	r3, [r2, r3]	@ zero_extendqisi2
 1691 0a82 1846     		mov	r0, r3
 1692 0a84 FFF7FEFF 		bl	UART_3_PutChar
 260:printer.c     **** 		for(uint8 x = 0; x < 13; x ++){
 1693              		.loc 1 260 0 discriminator 3
 1694 0a88 97F82430 		ldrb	r3, [r7, #36]	@ zero_extendqisi2
 1695 0a8c 0133     		adds	r3, r3, #1
 1696 0a8e 87F82430 		strb	r3, [r7, #36]
 1697              	.L78:
 260:printer.c     **** 		for(uint8 x = 0; x < 13; x ++){
 1698              		.loc 1 260 0 is_stmt 0 discriminator 1
 1699 0a92 97F82430 		ldrb	r3, [r7, #36]	@ zero_extendqisi2
ARM GAS  C:\Users\Lenovo\AppData\Local\Temp\ccVx5qP5.s 			page 39


 1700 0a96 0C2B     		cmp	r3, #12
 1701 0a98 EFD9     		bls	.L79
 1702              	.LBE37:
 262:printer.c     **** 		}
 263:printer.c     **** 		UART_3_PutChar((side.c.dir)+ 0x31);
 1703              		.loc 1 263 0 is_stmt 1
 1704 0a9a 984B     		ldr	r3, .L131
 1705 0a9c 93F85632 		ldrb	r3, [r3, #598]	@ zero_extendqisi2
 1706 0aa0 3133     		adds	r3, r3, #49
 1707 0aa2 DBB2     		uxtb	r3, r3
 1708 0aa4 1846     		mov	r0, r3
 1709 0aa6 FFF7FEFF 		bl	UART_3_PutChar
 264:printer.c     **** 		UART_3_PutChar(LINE_FEED);
 1710              		.loc 1 264 0
 1711 0aaa 954B     		ldr	r3, .L131+4
 1712 0aac 1B78     		ldrb	r3, [r3]	@ zero_extendqisi2
 1713 0aae 1846     		mov	r0, r3
 1714 0ab0 FFF7FEFF 		bl	UART_3_PutChar
 1715              	.LBB38:
 265:printer.c     **** 		for(uint8 x = 0; x < 13; x ++){
 1716              		.loc 1 265 0
 1717 0ab4 0023     		movs	r3, #0
 1718 0ab6 87F82330 		strb	r3, [r7, #35]
 1719 0aba 0BE0     		b	.L80
 1720              	.L81:
 266:printer.c     **** 			UART_3_PutChar(msn_product[x]);
 1721              		.loc 1 266 0 discriminator 3
 1722 0abc 97F82330 		ldrb	r3, [r7, #35]	@ zero_extendqisi2
 1723 0ac0 914A     		ldr	r2, .L131+12
 1724 0ac2 D35C     		ldrb	r3, [r2, r3]	@ zero_extendqisi2
 1725 0ac4 1846     		mov	r0, r3
 1726 0ac6 FFF7FEFF 		bl	UART_3_PutChar
 265:printer.c     **** 		for(uint8 x = 0; x < 13; x ++){
 1727              		.loc 1 265 0 discriminator 3
 1728 0aca 97F82330 		ldrb	r3, [r7, #35]	@ zero_extendqisi2
 1729 0ace 0133     		adds	r3, r3, #1
 1730 0ad0 87F82330 		strb	r3, [r7, #35]
 1731              	.L80:
 265:printer.c     **** 		for(uint8 x = 0; x < 13; x ++){
 1732              		.loc 1 265 0 is_stmt 0 discriminator 1
 1733 0ad4 97F82330 		ldrb	r3, [r7, #35]	@ zero_extendqisi2
 1734 0ad8 0C2B     		cmp	r3, #12
 1735 0ada EFD9     		bls	.L81
 1736              	.LBE38:
 1737              	.LBB39:
 267:printer.c     **** 		}
 268:printer.c     **** 		for(uint8 x = 0; x < 8; x ++){
 1738              		.loc 1 268 0 is_stmt 1
 1739 0adc 0023     		movs	r3, #0
 1740 0ade 87F82230 		strb	r3, [r7, #34]
 1741 0ae2 0BE0     		b	.L82
 1742              	.L83:
 269:printer.c     **** 			UART_3_PutChar(msn_diesel[x]);
 1743              		.loc 1 269 0 discriminator 3
 1744 0ae4 97F82230 		ldrb	r3, [r7, #34]	@ zero_extendqisi2
 1745 0ae8 884A     		ldr	r2, .L131+16
 1746 0aea D35C     		ldrb	r3, [r2, r3]	@ zero_extendqisi2
ARM GAS  C:\Users\Lenovo\AppData\Local\Temp\ccVx5qP5.s 			page 40


 1747 0aec 1846     		mov	r0, r3
 1748 0aee FFF7FEFF 		bl	UART_3_PutChar
 268:printer.c     **** 			UART_3_PutChar(msn_diesel[x]);
 1749              		.loc 1 268 0 discriminator 3
 1750 0af2 97F82230 		ldrb	r3, [r7, #34]	@ zero_extendqisi2
 1751 0af6 0133     		adds	r3, r3, #1
 1752 0af8 87F82230 		strb	r3, [r7, #34]
 1753              	.L82:
 268:printer.c     **** 			UART_3_PutChar(msn_diesel[x]);
 1754              		.loc 1 268 0 is_stmt 0 discriminator 1
 1755 0afc 97F82230 		ldrb	r3, [r7, #34]	@ zero_extendqisi2
 1756 0b00 072B     		cmp	r3, #7
 1757 0b02 EFD9     		bls	.L83
 1758              	.LBE39:
 270:printer.c     **** 		}
 271:printer.c     ****         UART_3_PutChar(LINE_FEED);
 1759              		.loc 1 271 0 is_stmt 1
 1760 0b04 7E4B     		ldr	r3, .L131+4
 1761 0b06 1B78     		ldrb	r3, [r3]	@ zero_extendqisi2
 1762 0b08 1846     		mov	r0, r3
 1763 0b0a FFF7FEFF 		bl	UART_3_PutChar
 1764              	.LBB40:
 272:printer.c     **** 		for(uint8 x = 0; x < 13; x ++){
 1765              		.loc 1 272 0
 1766 0b0e 0023     		movs	r3, #0
 1767 0b10 87F82130 		strb	r3, [r7, #33]
 1768 0b14 0BE0     		b	.L84
 1769              	.L85:
 273:printer.c     **** 			UART_3_PutChar(msn_vol[x]);
 1770              		.loc 1 273 0 discriminator 3
 1771 0b16 97F82130 		ldrb	r3, [r7, #33]	@ zero_extendqisi2
 1772 0b1a 7D4A     		ldr	r2, .L131+20
 1773 0b1c D35C     		ldrb	r3, [r2, r3]	@ zero_extendqisi2
 1774 0b1e 1846     		mov	r0, r3
 1775 0b20 FFF7FEFF 		bl	UART_3_PutChar
 272:printer.c     **** 		for(uint8 x = 0; x < 13; x ++){
 1776              		.loc 1 272 0 discriminator 3
 1777 0b24 97F82130 		ldrb	r3, [r7, #33]	@ zero_extendqisi2
 1778 0b28 0133     		adds	r3, r3, #1
 1779 0b2a 87F82130 		strb	r3, [r7, #33]
 1780              	.L84:
 272:printer.c     **** 		for(uint8 x = 0; x < 13; x ++){
 1781              		.loc 1 272 0 is_stmt 0 discriminator 1
 1782 0b2e 97F82130 		ldrb	r3, [r7, #33]	@ zero_extendqisi2
 1783 0b32 0C2B     		cmp	r3, #12
 1784 0b34 EFD9     		bls	.L85
 1785              	.LBE40:
 1786              	.LBB41:
 274:printer.c     **** 		}
 275:printer.c     **** 		for(uint8 x = 0; x < 8; x ++){
 1787              		.loc 1 275 0 is_stmt 1
 1788 0b36 0023     		movs	r3, #0
 1789 0b38 87F82030 		strb	r3, [r7, #32]
 1790 0b3c 18E0     		b	.L86
 1791              	.L88:
 276:printer.c     **** 			if((8-x) == DecVol)
 1792              		.loc 1 276 0
ARM GAS  C:\Users\Lenovo\AppData\Local\Temp\ccVx5qP5.s 			page 41


 1793 0b3e 97F82030 		ldrb	r3, [r7, #32]	@ zero_extendqisi2
 1794 0b42 C3F10803 		rsb	r3, r3, #8
 1795 0b46 734A     		ldr	r2, .L131+24
 1796 0b48 1278     		ldrb	r2, [r2]	@ zero_extendqisi2
 1797 0b4a 9342     		cmp	r3, r2
 1798 0b4c 02D1     		bne	.L87
 277:printer.c     **** 				UART_3_PutChar('.');
 1799              		.loc 1 277 0
 1800 0b4e 2E20     		movs	r0, #46
 1801 0b50 FFF7FEFF 		bl	UART_3_PutChar
 1802              	.L87:
 278:printer.c     **** 			UART_3_PutChar(side.c.ProcessedvolumeSale[x]);        
 1803              		.loc 1 278 0 discriminator 2
 1804 0b54 97F82030 		ldrb	r3, [r7, #32]	@ zero_extendqisi2
 1805 0b58 684A     		ldr	r2, .L131
 1806 0b5a 1344     		add	r3, r3, r2
 1807 0b5c 93F85933 		ldrb	r3, [r3, #857]	@ zero_extendqisi2
 1808 0b60 1846     		mov	r0, r3
 1809 0b62 FFF7FEFF 		bl	UART_3_PutChar
 275:printer.c     **** 			if((8-x) == DecVol)
 1810              		.loc 1 275 0 discriminator 2
 1811 0b66 97F82030 		ldrb	r3, [r7, #32]	@ zero_extendqisi2
 1812 0b6a 0133     		adds	r3, r3, #1
 1813 0b6c 87F82030 		strb	r3, [r7, #32]
 1814              	.L86:
 275:printer.c     **** 			if((8-x) == DecVol)
 1815              		.loc 1 275 0 is_stmt 0 discriminator 1
 1816 0b70 97F82030 		ldrb	r3, [r7, #32]	@ zero_extendqisi2
 1817 0b74 072B     		cmp	r3, #7
 1818 0b76 E2D9     		bls	.L88
 1819              	.LBE41:
 279:printer.c     **** 		}
 280:printer.c     **** 		UART_3_PutChar(' ');
 1820              		.loc 1 280 0 is_stmt 1
 1821 0b78 2020     		movs	r0, #32
 1822 0b7a FFF7FEFF 		bl	UART_3_PutChar
 281:printer.c     **** 		UART_3_PutChar(VolSimbol[0]);
 1823              		.loc 1 281 0
 1824 0b7e 664B     		ldr	r3, .L131+28
 1825 0b80 1B78     		ldrb	r3, [r3]	@ zero_extendqisi2
 1826 0b82 1846     		mov	r0, r3
 1827 0b84 FFF7FEFF 		bl	UART_3_PutChar
 282:printer.c     **** 		UART_3_PutChar(LINE_FEED); 
 1828              		.loc 1 282 0
 1829 0b88 5D4B     		ldr	r3, .L131+4
 1830 0b8a 1B78     		ldrb	r3, [r3]	@ zero_extendqisi2
 1831 0b8c 1846     		mov	r0, r3
 1832 0b8e FFF7FEFF 		bl	UART_3_PutChar
 1833              	.LBB42:
 283:printer.c     **** 		for(uint8 x = 0; x < 13; x ++){
 1834              		.loc 1 283 0
 1835 0b92 0023     		movs	r3, #0
 1836 0b94 FB77     		strb	r3, [r7, #31]
 1837 0b96 08E0     		b	.L89
 1838              	.L90:
 284:printer.c     **** 			UART_3_PutChar(msn_din[x]);
 1839              		.loc 1 284 0 discriminator 3
ARM GAS  C:\Users\Lenovo\AppData\Local\Temp\ccVx5qP5.s 			page 42


 1840 0b98 FB7F     		ldrb	r3, [r7, #31]	@ zero_extendqisi2
 1841 0b9a 604A     		ldr	r2, .L131+32
 1842 0b9c D35C     		ldrb	r3, [r2, r3]	@ zero_extendqisi2
 1843 0b9e 1846     		mov	r0, r3
 1844 0ba0 FFF7FEFF 		bl	UART_3_PutChar
 283:printer.c     **** 		for(uint8 x = 0; x < 13; x ++){
 1845              		.loc 1 283 0 discriminator 3
 1846 0ba4 FB7F     		ldrb	r3, [r7, #31]	@ zero_extendqisi2
 1847 0ba6 0133     		adds	r3, r3, #1
 1848 0ba8 FB77     		strb	r3, [r7, #31]
 1849              	.L89:
 283:printer.c     **** 		for(uint8 x = 0; x < 13; x ++){
 1850              		.loc 1 283 0 is_stmt 0 discriminator 1
 1851 0baa FB7F     		ldrb	r3, [r7, #31]	@ zero_extendqisi2
 1852 0bac 0C2B     		cmp	r3, #12
 1853 0bae F3D9     		bls	.L90
 1854              	.LBE42:
 285:printer.c     **** 		}     
 286:printer.c     **** 		UART_3_PutChar(PRN_CURRENCY[0]);  
 1855              		.loc 1 286 0 is_stmt 1
 1856 0bb0 5B4B     		ldr	r3, .L131+36
 1857 0bb2 1B78     		ldrb	r3, [r3]	@ zero_extendqisi2
 1858 0bb4 1846     		mov	r0, r3
 1859 0bb6 FFF7FEFF 		bl	UART_3_PutChar
 287:printer.c     **** 		UART_3_PutChar(' ');
 1860              		.loc 1 287 0
 1861 0bba 2020     		movs	r0, #32
 1862 0bbc FFF7FEFF 		bl	UART_3_PutChar
 1863              	.LBB43:
 288:printer.c     **** 		for(uint8 x = 0; x < 8; x ++){
 1864              		.loc 1 288 0
 1865 0bc0 0023     		movs	r3, #0
 1866 0bc2 BB77     		strb	r3, [r7, #30]
 1867 0bc4 0AE0     		b	.L91
 1868              	.L92:
 289:printer.c     **** 			UART_3_PutChar(side.c.ProcessedmoneySale[x]);
 1869              		.loc 1 289 0 discriminator 3
 1870 0bc6 BB7F     		ldrb	r3, [r7, #30]	@ zero_extendqisi2
 1871 0bc8 4C4A     		ldr	r2, .L131
 1872 0bca 1344     		add	r3, r3, r2
 1873 0bcc 93F85133 		ldrb	r3, [r3, #849]	@ zero_extendqisi2
 1874 0bd0 1846     		mov	r0, r3
 1875 0bd2 FFF7FEFF 		bl	UART_3_PutChar
 288:printer.c     **** 		for(uint8 x = 0; x < 8; x ++){
 1876              		.loc 1 288 0 discriminator 3
 1877 0bd6 BB7F     		ldrb	r3, [r7, #30]	@ zero_extendqisi2
 1878 0bd8 0133     		adds	r3, r3, #1
 1879 0bda BB77     		strb	r3, [r7, #30]
 1880              	.L91:
 288:printer.c     **** 		for(uint8 x = 0; x < 8; x ++){
 1881              		.loc 1 288 0 is_stmt 0 discriminator 1
 1882 0bdc BB7F     		ldrb	r3, [r7, #30]	@ zero_extendqisi2
 1883 0bde 072B     		cmp	r3, #7
 1884 0be0 F1D9     		bls	.L92
 1885              	.LBE43:
 290:printer.c     **** 		}
 291:printer.c     **** 		UART_3_PutChar(LINE_FEED); 	
ARM GAS  C:\Users\Lenovo\AppData\Local\Temp\ccVx5qP5.s 			page 43


 1886              		.loc 1 291 0 is_stmt 1
 1887 0be2 474B     		ldr	r3, .L131+4
 1888 0be4 1B78     		ldrb	r3, [r3]	@ zero_extendqisi2
 1889 0be6 1846     		mov	r0, r3
 1890 0be8 FFF7FEFF 		bl	UART_3_PutChar
 1891              	.LBB44:
 292:printer.c     **** 		for(uint8 x = 0; x < 13; x ++){
 1892              		.loc 1 292 0
 1893 0bec 0023     		movs	r3, #0
 1894 0bee 7B77     		strb	r3, [r7, #29]
 1895 0bf0 08E0     		b	.L93
 1896              	.L94:
 293:printer.c     **** 			UART_3_PutChar(msn_ppu[x]);
 1897              		.loc 1 293 0 discriminator 3
 1898 0bf2 7B7F     		ldrb	r3, [r7, #29]	@ zero_extendqisi2
 1899 0bf4 4B4A     		ldr	r2, .L131+40
 1900 0bf6 D35C     		ldrb	r3, [r2, r3]	@ zero_extendqisi2
 1901 0bf8 1846     		mov	r0, r3
 1902 0bfa FFF7FEFF 		bl	UART_3_PutChar
 292:printer.c     **** 		for(uint8 x = 0; x < 13; x ++){
 1903              		.loc 1 292 0 discriminator 3
 1904 0bfe 7B7F     		ldrb	r3, [r7, #29]	@ zero_extendqisi2
 1905 0c00 0133     		adds	r3, r3, #1
 1906 0c02 7B77     		strb	r3, [r7, #29]
 1907              	.L93:
 292:printer.c     **** 		for(uint8 x = 0; x < 13; x ++){
 1908              		.loc 1 292 0 is_stmt 0 discriminator 1
 1909 0c04 7B7F     		ldrb	r3, [r7, #29]	@ zero_extendqisi2
 1910 0c06 0C2B     		cmp	r3, #12
 1911 0c08 F3D9     		bls	.L94
 1912              	.LBE44:
 294:printer.c     **** 		}
 295:printer.c     **** 		UART_3_PutChar(PRN_CURRENCY[0]);  
 1913              		.loc 1 295 0 is_stmt 1
 1914 0c0a 454B     		ldr	r3, .L131+36
 1915 0c0c 1B78     		ldrb	r3, [r3]	@ zero_extendqisi2
 1916 0c0e 1846     		mov	r0, r3
 1917 0c10 FFF7FEFF 		bl	UART_3_PutChar
 296:printer.c     **** 		UART_3_PutChar(' ');
 1918              		.loc 1 296 0
 1919 0c14 2020     		movs	r0, #32
 1920 0c16 FFF7FEFF 		bl	UART_3_PutChar
 1921              	.LBB45:
 297:printer.c     **** 		for(uint8 x = 1; x < 6; x ++){
 1922              		.loc 1 297 0
 1923 0c1a 0123     		movs	r3, #1
 1924 0c1c 3B77     		strb	r3, [r7, #28]
 1925 0c1e 0AE0     		b	.L95
 1926              	.L96:
 298:printer.c     **** 			UART_3_PutChar(side.c.ProcessedPPU[0][x]);
 1927              		.loc 1 298 0 discriminator 3
 1928 0c20 3B7F     		ldrb	r3, [r7, #28]	@ zero_extendqisi2
 1929 0c22 364A     		ldr	r2, .L131
 1930 0c24 1344     		add	r3, r3, r2
 1931 0c26 93F86133 		ldrb	r3, [r3, #865]	@ zero_extendqisi2
 1932 0c2a 1846     		mov	r0, r3
 1933 0c2c FFF7FEFF 		bl	UART_3_PutChar
ARM GAS  C:\Users\Lenovo\AppData\Local\Temp\ccVx5qP5.s 			page 44


 297:printer.c     **** 		for(uint8 x = 1; x < 6; x ++){
 1934              		.loc 1 297 0 discriminator 3
 1935 0c30 3B7F     		ldrb	r3, [r7, #28]	@ zero_extendqisi2
 1936 0c32 0133     		adds	r3, r3, #1
 1937 0c34 3B77     		strb	r3, [r7, #28]
 1938              	.L95:
 297:printer.c     **** 		for(uint8 x = 1; x < 6; x ++){
 1939              		.loc 1 297 0 is_stmt 0 discriminator 1
 1940 0c36 3B7F     		ldrb	r3, [r7, #28]	@ zero_extendqisi2
 1941 0c38 052B     		cmp	r3, #5
 1942 0c3a F1D9     		bls	.L96
 1943              	.LBE45:
 299:printer.c     **** 		}
 300:printer.c     **** 		UART_3_PutChar(LINE_FEED);
 1944              		.loc 1 300 0 is_stmt 1
 1945 0c3c 304B     		ldr	r3, .L131+4
 1946 0c3e 1B78     		ldrb	r3, [r3]	@ zero_extendqisi2
 1947 0c40 1846     		mov	r0, r3
 1948 0c42 FFF7FEFF 		bl	UART_3_PutChar
 1949              	.L75:
 301:printer.c     **** 	}
 302:printer.c     **** 	
 303:printer.c     ****     if(address == side.d.dir){
 1950              		.loc 1 303 0
 1951 0c46 2D4B     		ldr	r3, .L131
 1952 0c48 93F88133 		ldrb	r3, [r3, #897]	@ zero_extendqisi2
 1953 0c4c FA79     		ldrb	r2, [r7, #7]	@ zero_extendqisi2
 1954 0c4e 9A42     		cmp	r2, r3
 1955 0c50 40F0F880 		bne	.L97
 1956              	.LBB46:
 304:printer.c     **** 		for(uint8 x = 0; x < 8; x ++){
 1957              		.loc 1 304 0
 1958 0c54 0023     		movs	r3, #0
 1959 0c56 FB76     		strb	r3, [r7, #27]
 1960 0c58 0AE0     		b	.L98
 1961              	.L99:
 305:printer.c     **** 			UART_3_PutChar(side.d.msn_plate[x]);
 1962              		.loc 1 305 0 discriminator 3
 1963 0c5a FB7E     		ldrb	r3, [r7, #27]	@ zero_extendqisi2
 1964 0c5c 274A     		ldr	r2, .L131
 1965 0c5e 1344     		add	r3, r3, r2
 1966 0c60 93F8A434 		ldrb	r3, [r3, #1188]	@ zero_extendqisi2
 1967 0c64 1846     		mov	r0, r3
 1968 0c66 FFF7FEFF 		bl	UART_3_PutChar
 304:printer.c     **** 		for(uint8 x = 0; x < 8; x ++){
 1969              		.loc 1 304 0 discriminator 3
 1970 0c6a FB7E     		ldrb	r3, [r7, #27]	@ zero_extendqisi2
 1971 0c6c 0133     		adds	r3, r3, #1
 1972 0c6e FB76     		strb	r3, [r7, #27]
 1973              	.L98:
 304:printer.c     **** 		for(uint8 x = 0; x < 8; x ++){
 1974              		.loc 1 304 0 is_stmt 0 discriminator 1
 1975 0c70 FB7E     		ldrb	r3, [r7, #27]	@ zero_extendqisi2
 1976 0c72 072B     		cmp	r3, #7
 1977 0c74 F1D9     		bls	.L99
 1978              	.LBE46:
 1979              	.LBB47:
ARM GAS  C:\Users\Lenovo\AppData\Local\Temp\ccVx5qP5.s 			page 45


 306:printer.c     **** 		}  
 307:printer.c     **** 		for(uint8 x = 0; x < 13; x ++){
 1980              		.loc 1 307 0 is_stmt 1
 1981 0c76 0023     		movs	r3, #0
 1982 0c78 BB76     		strb	r3, [r7, #26]
 1983 0c7a 08E0     		b	.L100
 1984              	.L101:
 308:printer.c     **** 			UART_3_PutChar(msn_pos[x]);
 1985              		.loc 1 308 0 discriminator 3
 1986 0c7c BB7E     		ldrb	r3, [r7, #26]	@ zero_extendqisi2
 1987 0c7e 214A     		ldr	r2, .L131+8
 1988 0c80 D35C     		ldrb	r3, [r2, r3]	@ zero_extendqisi2
 1989 0c82 1846     		mov	r0, r3
 1990 0c84 FFF7FEFF 		bl	UART_3_PutChar
 307:printer.c     **** 			UART_3_PutChar(msn_pos[x]);
 1991              		.loc 1 307 0 discriminator 3
 1992 0c88 BB7E     		ldrb	r3, [r7, #26]	@ zero_extendqisi2
 1993 0c8a 0133     		adds	r3, r3, #1
 1994 0c8c BB76     		strb	r3, [r7, #26]
 1995              	.L100:
 307:printer.c     **** 			UART_3_PutChar(msn_pos[x]);
 1996              		.loc 1 307 0 is_stmt 0 discriminator 1
 1997 0c8e BB7E     		ldrb	r3, [r7, #26]	@ zero_extendqisi2
 1998 0c90 0C2B     		cmp	r3, #12
 1999 0c92 F3D9     		bls	.L101
 2000              	.LBE47:
 309:printer.c     **** 		}
 310:printer.c     **** 		UART_3_PutChar((side.d.dir)+ 0x31);
 2001              		.loc 1 310 0 is_stmt 1
 2002 0c94 194B     		ldr	r3, .L131
 2003 0c96 93F88133 		ldrb	r3, [r3, #897]	@ zero_extendqisi2
 2004 0c9a 3133     		adds	r3, r3, #49
 2005 0c9c DBB2     		uxtb	r3, r3
 2006 0c9e 1846     		mov	r0, r3
 2007 0ca0 FFF7FEFF 		bl	UART_3_PutChar
 311:printer.c     **** 		UART_3_PutChar(LINE_FEED);
 2008              		.loc 1 311 0
 2009 0ca4 164B     		ldr	r3, .L131+4
 2010 0ca6 1B78     		ldrb	r3, [r3]	@ zero_extendqisi2
 2011 0ca8 1846     		mov	r0, r3
 2012 0caa FFF7FEFF 		bl	UART_3_PutChar
 312:printer.c     **** 		UART_3_PutChar(LINE_FEED);
 2013              		.loc 1 312 0
 2014 0cae 144B     		ldr	r3, .L131+4
 2015 0cb0 1B78     		ldrb	r3, [r3]	@ zero_extendqisi2
 2016 0cb2 1846     		mov	r0, r3
 2017 0cb4 FFF7FEFF 		bl	UART_3_PutChar
 2018              	.LBB48:
 313:printer.c     **** 		for(uint8 x = 0; x < 13; x ++){
 2019              		.loc 1 313 0
 2020 0cb8 0023     		movs	r3, #0
 2021 0cba 7B76     		strb	r3, [r7, #25]
 2022 0cbc 08E0     		b	.L102
 2023              	.L103:
 314:printer.c     **** 			UART_3_PutChar(msn_product[x]);
 2024              		.loc 1 314 0 discriminator 3
 2025 0cbe 7B7E     		ldrb	r3, [r7, #25]	@ zero_extendqisi2
ARM GAS  C:\Users\Lenovo\AppData\Local\Temp\ccVx5qP5.s 			page 46


 2026 0cc0 114A     		ldr	r2, .L131+12
 2027 0cc2 D35C     		ldrb	r3, [r2, r3]	@ zero_extendqisi2
 2028 0cc4 1846     		mov	r0, r3
 2029 0cc6 FFF7FEFF 		bl	UART_3_PutChar
 313:printer.c     **** 		for(uint8 x = 0; x < 13; x ++){
 2030              		.loc 1 313 0 discriminator 3
 2031 0cca 7B7E     		ldrb	r3, [r7, #25]	@ zero_extendqisi2
 2032 0ccc 0133     		adds	r3, r3, #1
 2033 0cce 7B76     		strb	r3, [r7, #25]
 2034              	.L102:
 313:printer.c     **** 		for(uint8 x = 0; x < 13; x ++){
 2035              		.loc 1 313 0 is_stmt 0 discriminator 1
 2036 0cd0 7B7E     		ldrb	r3, [r7, #25]	@ zero_extendqisi2
 2037 0cd2 0C2B     		cmp	r3, #12
 2038 0cd4 F3D9     		bls	.L103
 2039              	.LBE48:
 2040              	.LBB49:
 315:printer.c     **** 		}
 316:printer.c     **** 		for(uint8 x = 0; x < 8; x ++){
 2041              		.loc 1 316 0 is_stmt 1
 2042 0cd6 0023     		movs	r3, #0
 2043 0cd8 3B76     		strb	r3, [r7, #24]
 2044 0cda 08E0     		b	.L104
 2045              	.L105:
 317:printer.c     **** 			UART_3_PutChar(msn_diesel[x]);
 2046              		.loc 1 317 0 discriminator 3
 2047 0cdc 3B7E     		ldrb	r3, [r7, #24]	@ zero_extendqisi2
 2048 0cde 0B4A     		ldr	r2, .L131+16
 2049 0ce0 D35C     		ldrb	r3, [r2, r3]	@ zero_extendqisi2
 2050 0ce2 1846     		mov	r0, r3
 2051 0ce4 FFF7FEFF 		bl	UART_3_PutChar
 316:printer.c     **** 			UART_3_PutChar(msn_diesel[x]);
 2052              		.loc 1 316 0 discriminator 3
 2053 0ce8 3B7E     		ldrb	r3, [r7, #24]	@ zero_extendqisi2
 2054 0cea 0133     		adds	r3, r3, #1
 2055 0cec 3B76     		strb	r3, [r7, #24]
 2056              	.L104:
 316:printer.c     **** 			UART_3_PutChar(msn_diesel[x]);
 2057              		.loc 1 316 0 is_stmt 0 discriminator 1
 2058 0cee 3B7E     		ldrb	r3, [r7, #24]	@ zero_extendqisi2
 2059 0cf0 072B     		cmp	r3, #7
 2060 0cf2 F3D9     		bls	.L105
 2061              	.LBE49:
 2062              	.LBB50:
 318:printer.c     **** 		}
 319:printer.c     **** 		for(uint8 x = 0; x < 13; x ++){
 2063              		.loc 1 319 0 is_stmt 1
 2064 0cf4 0023     		movs	r3, #0
 2065 0cf6 FB75     		strb	r3, [r7, #23]
 2066 0cf8 1FE0     		b	.L106
 2067              	.L132:
 2068 0cfa 00BF     		.align	2
 2069              	.L131:
 2070 0cfc 00000000 		.word	side
 2071 0d00 00000000 		.word	LINE_FEED
 2072 0d04 00000000 		.word	msn_pos
 2073 0d08 00000000 		.word	msn_product
ARM GAS  C:\Users\Lenovo\AppData\Local\Temp\ccVx5qP5.s 			page 47


 2074 0d0c 00000000 		.word	msn_diesel
 2075 0d10 00000000 		.word	msn_vol
 2076 0d14 00000000 		.word	DecVol
 2077 0d18 00000000 		.word	VolSimbol
 2078 0d1c 00000000 		.word	msn_din
 2079 0d20 00000000 		.word	PRN_CURRENCY
 2080 0d24 00000000 		.word	msn_ppu
 2081              	.L107:
 320:printer.c     **** 			UART_3_PutChar(msn_vol[x]);
 2082              		.loc 1 320 0 discriminator 3
 2083 0d28 FB7D     		ldrb	r3, [r7, #23]	@ zero_extendqisi2
 2084 0d2a 704A     		ldr	r2, .L133
 2085 0d2c D35C     		ldrb	r3, [r2, r3]	@ zero_extendqisi2
 2086 0d2e 1846     		mov	r0, r3
 2087 0d30 FFF7FEFF 		bl	UART_3_PutChar
 319:printer.c     **** 			UART_3_PutChar(msn_vol[x]);
 2088              		.loc 1 319 0 discriminator 3
 2089 0d34 FB7D     		ldrb	r3, [r7, #23]	@ zero_extendqisi2
 2090 0d36 0133     		adds	r3, r3, #1
 2091 0d38 FB75     		strb	r3, [r7, #23]
 2092              	.L106:
 319:printer.c     **** 			UART_3_PutChar(msn_vol[x]);
 2093              		.loc 1 319 0 is_stmt 0 discriminator 1
 2094 0d3a FB7D     		ldrb	r3, [r7, #23]	@ zero_extendqisi2
 2095 0d3c 0C2B     		cmp	r3, #12
 2096 0d3e F3D9     		bls	.L107
 2097              	.LBE50:
 2098              	.LBB51:
 321:printer.c     **** 		}
 322:printer.c     **** 		for(uint8 x = 0; x < 8; x ++){
 2099              		.loc 1 322 0 is_stmt 1
 2100 0d40 0023     		movs	r3, #0
 2101 0d42 BB75     		strb	r3, [r7, #22]
 2102 0d44 14E0     		b	.L108
 2103              	.L110:
 323:printer.c     **** 			if((8-x) == DecVol)
 2104              		.loc 1 323 0
 2105 0d46 BB7D     		ldrb	r3, [r7, #22]	@ zero_extendqisi2
 2106 0d48 C3F10803 		rsb	r3, r3, #8
 2107 0d4c 684A     		ldr	r2, .L133+4
 2108 0d4e 1278     		ldrb	r2, [r2]	@ zero_extendqisi2
 2109 0d50 9342     		cmp	r3, r2
 2110 0d52 02D1     		bne	.L109
 324:printer.c     **** 				UART_3_PutChar('.');
 2111              		.loc 1 324 0
 2112 0d54 2E20     		movs	r0, #46
 2113 0d56 FFF7FEFF 		bl	UART_3_PutChar
 2114              	.L109:
 325:printer.c     **** 			UART_3_PutChar(side.d.ProcessedvolumeSale[x]);        
 2115              		.loc 1 325 0 discriminator 2
 2116 0d5a BB7D     		ldrb	r3, [r7, #22]	@ zero_extendqisi2
 2117 0d5c 654A     		ldr	r2, .L133+8
 2118 0d5e 1344     		add	r3, r3, r2
 2119 0d60 93F88434 		ldrb	r3, [r3, #1156]	@ zero_extendqisi2
 2120 0d64 1846     		mov	r0, r3
 2121 0d66 FFF7FEFF 		bl	UART_3_PutChar
 322:printer.c     **** 			if((8-x) == DecVol)
ARM GAS  C:\Users\Lenovo\AppData\Local\Temp\ccVx5qP5.s 			page 48


 2122              		.loc 1 322 0 discriminator 2
 2123 0d6a BB7D     		ldrb	r3, [r7, #22]	@ zero_extendqisi2
 2124 0d6c 0133     		adds	r3, r3, #1
 2125 0d6e BB75     		strb	r3, [r7, #22]
 2126              	.L108:
 322:printer.c     **** 			if((8-x) == DecVol)
 2127              		.loc 1 322 0 is_stmt 0 discriminator 1
 2128 0d70 BB7D     		ldrb	r3, [r7, #22]	@ zero_extendqisi2
 2129 0d72 072B     		cmp	r3, #7
 2130 0d74 E7D9     		bls	.L110
 2131              	.LBE51:
 326:printer.c     **** 		}
 327:printer.c     **** 		UART_3_PutChar(' ');
 2132              		.loc 1 327 0 is_stmt 1
 2133 0d76 2020     		movs	r0, #32
 2134 0d78 FFF7FEFF 		bl	UART_3_PutChar
 328:printer.c     **** 		UART_3_PutChar(VolSimbol[0]);
 2135              		.loc 1 328 0
 2136 0d7c 5E4B     		ldr	r3, .L133+12
 2137 0d7e 1B78     		ldrb	r3, [r3]	@ zero_extendqisi2
 2138 0d80 1846     		mov	r0, r3
 2139 0d82 FFF7FEFF 		bl	UART_3_PutChar
 329:printer.c     **** 		UART_3_PutChar(LINE_FEED); 
 2140              		.loc 1 329 0
 2141 0d86 5D4B     		ldr	r3, .L133+16
 2142 0d88 1B78     		ldrb	r3, [r3]	@ zero_extendqisi2
 2143 0d8a 1846     		mov	r0, r3
 2144 0d8c FFF7FEFF 		bl	UART_3_PutChar
 2145              	.LBB52:
 330:printer.c     **** 		for(uint8 x = 0; x < 13; x ++){
 2146              		.loc 1 330 0
 2147 0d90 0023     		movs	r3, #0
 2148 0d92 7B75     		strb	r3, [r7, #21]
 2149 0d94 08E0     		b	.L111
 2150              	.L112:
 331:printer.c     **** 			UART_3_PutChar(msn_din[x]);
 2151              		.loc 1 331 0 discriminator 3
 2152 0d96 7B7D     		ldrb	r3, [r7, #21]	@ zero_extendqisi2
 2153 0d98 594A     		ldr	r2, .L133+20
 2154 0d9a D35C     		ldrb	r3, [r2, r3]	@ zero_extendqisi2
 2155 0d9c 1846     		mov	r0, r3
 2156 0d9e FFF7FEFF 		bl	UART_3_PutChar
 330:printer.c     **** 		for(uint8 x = 0; x < 13; x ++){
 2157              		.loc 1 330 0 discriminator 3
 2158 0da2 7B7D     		ldrb	r3, [r7, #21]	@ zero_extendqisi2
 2159 0da4 0133     		adds	r3, r3, #1
 2160 0da6 7B75     		strb	r3, [r7, #21]
 2161              	.L111:
 330:printer.c     **** 		for(uint8 x = 0; x < 13; x ++){
 2162              		.loc 1 330 0 is_stmt 0 discriminator 1
 2163 0da8 7B7D     		ldrb	r3, [r7, #21]	@ zero_extendqisi2
 2164 0daa 0C2B     		cmp	r3, #12
 2165 0dac F3D9     		bls	.L112
 2166              	.LBE52:
 332:printer.c     **** 		}     
 333:printer.c     **** 		UART_3_PutChar(PRN_CURRENCY[0]);  
 2167              		.loc 1 333 0 is_stmt 1
ARM GAS  C:\Users\Lenovo\AppData\Local\Temp\ccVx5qP5.s 			page 49


 2168 0dae 554B     		ldr	r3, .L133+24
 2169 0db0 1B78     		ldrb	r3, [r3]	@ zero_extendqisi2
 2170 0db2 1846     		mov	r0, r3
 2171 0db4 FFF7FEFF 		bl	UART_3_PutChar
 334:printer.c     **** 		UART_3_PutChar(' ');
 2172              		.loc 1 334 0
 2173 0db8 2020     		movs	r0, #32
 2174 0dba FFF7FEFF 		bl	UART_3_PutChar
 2175              	.LBB53:
 335:printer.c     **** 		for(uint8 x = 0; x < 8; x ++){
 2176              		.loc 1 335 0
 2177 0dbe 0023     		movs	r3, #0
 2178 0dc0 3B75     		strb	r3, [r7, #20]
 2179 0dc2 0AE0     		b	.L113
 2180              	.L114:
 336:printer.c     **** 			UART_3_PutChar(side.d.ProcessedmoneySale[x]);
 2181              		.loc 1 336 0 discriminator 3
 2182 0dc4 3B7D     		ldrb	r3, [r7, #20]	@ zero_extendqisi2
 2183 0dc6 4B4A     		ldr	r2, .L133+8
 2184 0dc8 1344     		add	r3, r3, r2
 2185 0dca 93F87C34 		ldrb	r3, [r3, #1148]	@ zero_extendqisi2
 2186 0dce 1846     		mov	r0, r3
 2187 0dd0 FFF7FEFF 		bl	UART_3_PutChar
 335:printer.c     **** 		for(uint8 x = 0; x < 8; x ++){
 2188              		.loc 1 335 0 discriminator 3
 2189 0dd4 3B7D     		ldrb	r3, [r7, #20]	@ zero_extendqisi2
 2190 0dd6 0133     		adds	r3, r3, #1
 2191 0dd8 3B75     		strb	r3, [r7, #20]
 2192              	.L113:
 335:printer.c     **** 		for(uint8 x = 0; x < 8; x ++){
 2193              		.loc 1 335 0 is_stmt 0 discriminator 1
 2194 0dda 3B7D     		ldrb	r3, [r7, #20]	@ zero_extendqisi2
 2195 0ddc 072B     		cmp	r3, #7
 2196 0dde F1D9     		bls	.L114
 2197              	.LBE53:
 337:printer.c     **** 		}
 338:printer.c     **** 		UART_3_PutChar(LINE_FEED); 	
 2198              		.loc 1 338 0 is_stmt 1
 2199 0de0 464B     		ldr	r3, .L133+16
 2200 0de2 1B78     		ldrb	r3, [r3]	@ zero_extendqisi2
 2201 0de4 1846     		mov	r0, r3
 2202 0de6 FFF7FEFF 		bl	UART_3_PutChar
 2203              	.LBB54:
 339:printer.c     **** 		for(uint8 x = 0; x < 13; x ++){
 2204              		.loc 1 339 0
 2205 0dea 0023     		movs	r3, #0
 2206 0dec FB74     		strb	r3, [r7, #19]
 2207 0dee 08E0     		b	.L115
 2208              	.L116:
 340:printer.c     **** 			UART_3_PutChar(msn_ppu[x]);
 2209              		.loc 1 340 0 discriminator 3
 2210 0df0 FB7C     		ldrb	r3, [r7, #19]	@ zero_extendqisi2
 2211 0df2 454A     		ldr	r2, .L133+28
 2212 0df4 D35C     		ldrb	r3, [r2, r3]	@ zero_extendqisi2
 2213 0df6 1846     		mov	r0, r3
 2214 0df8 FFF7FEFF 		bl	UART_3_PutChar
 339:printer.c     **** 		for(uint8 x = 0; x < 13; x ++){
ARM GAS  C:\Users\Lenovo\AppData\Local\Temp\ccVx5qP5.s 			page 50


 2215              		.loc 1 339 0 discriminator 3
 2216 0dfc FB7C     		ldrb	r3, [r7, #19]	@ zero_extendqisi2
 2217 0dfe 0133     		adds	r3, r3, #1
 2218 0e00 FB74     		strb	r3, [r7, #19]
 2219              	.L115:
 339:printer.c     **** 		for(uint8 x = 0; x < 13; x ++){
 2220              		.loc 1 339 0 is_stmt 0 discriminator 1
 2221 0e02 FB7C     		ldrb	r3, [r7, #19]	@ zero_extendqisi2
 2222 0e04 0C2B     		cmp	r3, #12
 2223 0e06 F3D9     		bls	.L116
 2224              	.LBE54:
 341:printer.c     **** 		}
 342:printer.c     **** 		UART_3_PutChar(PRN_CURRENCY[0]);  
 2225              		.loc 1 342 0 is_stmt 1
 2226 0e08 3E4B     		ldr	r3, .L133+24
 2227 0e0a 1B78     		ldrb	r3, [r3]	@ zero_extendqisi2
 2228 0e0c 1846     		mov	r0, r3
 2229 0e0e FFF7FEFF 		bl	UART_3_PutChar
 343:printer.c     **** 		UART_3_PutChar(' ');
 2230              		.loc 1 343 0
 2231 0e12 2020     		movs	r0, #32
 2232 0e14 FFF7FEFF 		bl	UART_3_PutChar
 2233              	.LBB55:
 344:printer.c     **** 		for(uint8 x = 1; x < 6; x ++){
 2234              		.loc 1 344 0
 2235 0e18 0123     		movs	r3, #1
 2236 0e1a BB74     		strb	r3, [r7, #18]
 2237 0e1c 0AE0     		b	.L117
 2238              	.L118:
 345:printer.c     **** 			UART_3_PutChar(side.d.ProcessedPPU[0][x]);
 2239              		.loc 1 345 0 discriminator 3
 2240 0e1e BB7C     		ldrb	r3, [r7, #18]	@ zero_extendqisi2
 2241 0e20 344A     		ldr	r2, .L133+8
 2242 0e22 1344     		add	r3, r3, r2
 2243 0e24 93F88C34 		ldrb	r3, [r3, #1164]	@ zero_extendqisi2
 2244 0e28 1846     		mov	r0, r3
 2245 0e2a FFF7FEFF 		bl	UART_3_PutChar
 344:printer.c     **** 		for(uint8 x = 1; x < 6; x ++){
 2246              		.loc 1 344 0 discriminator 3
 2247 0e2e BB7C     		ldrb	r3, [r7, #18]	@ zero_extendqisi2
 2248 0e30 0133     		adds	r3, r3, #1
 2249 0e32 BB74     		strb	r3, [r7, #18]
 2250              	.L117:
 344:printer.c     **** 		for(uint8 x = 1; x < 6; x ++){
 2251              		.loc 1 344 0 is_stmt 0 discriminator 1
 2252 0e34 BB7C     		ldrb	r3, [r7, #18]	@ zero_extendqisi2
 2253 0e36 052B     		cmp	r3, #5
 2254 0e38 F1D9     		bls	.L118
 2255              	.LBE55:
 346:printer.c     **** 		}
 347:printer.c     **** 		UART_3_PutChar(LINE_FEED);
 2256              		.loc 1 347 0 is_stmt 1
 2257 0e3a 304B     		ldr	r3, .L133+16
 2258 0e3c 1B78     		ldrb	r3, [r3]	@ zero_extendqisi2
 2259 0e3e 1846     		mov	r0, r3
 2260 0e40 FFF7FEFF 		bl	UART_3_PutChar
 2261              	.L97:
ARM GAS  C:\Users\Lenovo\AppData\Local\Temp\ccVx5qP5.s 			page 51


 2262              	.LBB56:
 348:printer.c     **** 	}
 349:printer.c     **** 	
 350:printer.c     **** 	/******FOOTER*****/
 351:printer.c     **** 	for(uint8 x = 0; x < 24; x ++){
 2263              		.loc 1 351 0
 2264 0e44 0023     		movs	r3, #0
 2265 0e46 7B74     		strb	r3, [r7, #17]
 2266 0e48 08E0     		b	.L119
 2267              	.L120:
 352:printer.c     **** 		UART_3_PutChar(SEPARATOR[x]);
 2268              		.loc 1 352 0 discriminator 3
 2269 0e4a 7B7C     		ldrb	r3, [r7, #17]	@ zero_extendqisi2
 2270 0e4c 2F4A     		ldr	r2, .L133+32
 2271 0e4e D35C     		ldrb	r3, [r2, r3]	@ zero_extendqisi2
 2272 0e50 1846     		mov	r0, r3
 2273 0e52 FFF7FEFF 		bl	UART_3_PutChar
 351:printer.c     **** 		UART_3_PutChar(SEPARATOR[x]);
 2274              		.loc 1 351 0 discriminator 3
 2275 0e56 7B7C     		ldrb	r3, [r7, #17]	@ zero_extendqisi2
 2276 0e58 0133     		adds	r3, r3, #1
 2277 0e5a 7B74     		strb	r3, [r7, #17]
 2278              	.L119:
 351:printer.c     **** 		UART_3_PutChar(SEPARATOR[x]);
 2279              		.loc 1 351 0 is_stmt 0 discriminator 1
 2280 0e5c 7B7C     		ldrb	r3, [r7, #17]	@ zero_extendqisi2
 2281 0e5e 172B     		cmp	r3, #23
 2282 0e60 F3D9     		bls	.L120
 2283              	.LBE56:
 353:printer.c     **** 	}
 354:printer.c     **** 	UART_3_PutChar(LINE_FEED);
 2284              		.loc 1 354 0 is_stmt 1
 2285 0e62 264B     		ldr	r3, .L133+16
 2286 0e64 1B78     		ldrb	r3, [r3]	@ zero_extendqisi2
 2287 0e66 1846     		mov	r0, r3
 2288 0e68 FFF7FEFF 		bl	UART_3_PutChar
 2289              	.LBB57:
 355:printer.c     **** 	for(uint8 x = 0; x < 22; x ++){
 2290              		.loc 1 355 0
 2291 0e6c 0023     		movs	r3, #0
 2292 0e6e 3B74     		strb	r3, [r7, #16]
 2293 0e70 08E0     		b	.L121
 2294              	.L122:
 356:printer.c     **** 		UART_3_PutChar(msn_footer[x]);
 2295              		.loc 1 356 0 discriminator 3
 2296 0e72 3B7C     		ldrb	r3, [r7, #16]	@ zero_extendqisi2
 2297 0e74 264A     		ldr	r2, .L133+36
 2298 0e76 D35C     		ldrb	r3, [r2, r3]	@ zero_extendqisi2
 2299 0e78 1846     		mov	r0, r3
 2300 0e7a FFF7FEFF 		bl	UART_3_PutChar
 355:printer.c     **** 	for(uint8 x = 0; x < 22; x ++){
 2301              		.loc 1 355 0 discriminator 3
 2302 0e7e 3B7C     		ldrb	r3, [r7, #16]	@ zero_extendqisi2
 2303 0e80 0133     		adds	r3, r3, #1
 2304 0e82 3B74     		strb	r3, [r7, #16]
 2305              	.L121:
 355:printer.c     **** 	for(uint8 x = 0; x < 22; x ++){
ARM GAS  C:\Users\Lenovo\AppData\Local\Temp\ccVx5qP5.s 			page 52


 2306              		.loc 1 355 0 is_stmt 0 discriminator 1
 2307 0e84 3B7C     		ldrb	r3, [r7, #16]	@ zero_extendqisi2
 2308 0e86 152B     		cmp	r3, #21
 2309 0e88 F3D9     		bls	.L122
 2310              	.LBE57:
 357:printer.c     **** 	}
 358:printer.c     **** 	UART_3_PutChar(LINE_FEED);
 2311              		.loc 1 358 0 is_stmt 1
 2312 0e8a 1C4B     		ldr	r3, .L133+16
 2313 0e8c 1B78     		ldrb	r3, [r3]	@ zero_extendqisi2
 2314 0e8e 1846     		mov	r0, r3
 2315 0e90 FFF7FEFF 		bl	UART_3_PutChar
 2316              	.LBB58:
 359:printer.c     **** 	for(uint8 x = 0; x < 22; x ++){
 2317              		.loc 1 359 0
 2318 0e94 0023     		movs	r3, #0
 2319 0e96 FB73     		strb	r3, [r7, #15]
 2320 0e98 08E0     		b	.L123
 2321              	.L124:
 360:printer.c     **** 		UART_3_PutChar(msn_footer2[x]);
 2322              		.loc 1 360 0 discriminator 3
 2323 0e9a FB7B     		ldrb	r3, [r7, #15]	@ zero_extendqisi2
 2324 0e9c 1D4A     		ldr	r2, .L133+40
 2325 0e9e D35C     		ldrb	r3, [r2, r3]	@ zero_extendqisi2
 2326 0ea0 1846     		mov	r0, r3
 2327 0ea2 FFF7FEFF 		bl	UART_3_PutChar
 359:printer.c     **** 	for(uint8 x = 0; x < 22; x ++){
 2328              		.loc 1 359 0 discriminator 3
 2329 0ea6 FB7B     		ldrb	r3, [r7, #15]	@ zero_extendqisi2
 2330 0ea8 0133     		adds	r3, r3, #1
 2331 0eaa FB73     		strb	r3, [r7, #15]
 2332              	.L123:
 359:printer.c     **** 	for(uint8 x = 0; x < 22; x ++){
 2333              		.loc 1 359 0 is_stmt 0 discriminator 1
 2334 0eac FB7B     		ldrb	r3, [r7, #15]	@ zero_extendqisi2
 2335 0eae 152B     		cmp	r3, #21
 2336 0eb0 F3D9     		bls	.L124
 2337              	.LBE58:
 361:printer.c     **** 	}
 362:printer.c     ****         
 363:printer.c     ****     UART_3_PutChar(LINE_FEED);
 2338              		.loc 1 363 0 is_stmt 1
 2339 0eb2 124B     		ldr	r3, .L133+16
 2340 0eb4 1B78     		ldrb	r3, [r3]	@ zero_extendqisi2
 2341 0eb6 1846     		mov	r0, r3
 2342 0eb8 FFF7FEFF 		bl	UART_3_PutChar
 364:printer.c     ****     UART_3_PutChar(LINE_FEED);
 2343              		.loc 1 364 0
 2344 0ebc 0F4B     		ldr	r3, .L133+16
 2345 0ebe 1B78     		ldrb	r3, [r3]	@ zero_extendqisi2
 2346 0ec0 1846     		mov	r0, r3
 2347 0ec2 FFF7FEFF 		bl	UART_3_PutChar
 365:printer.c     ****     UART_3_PutChar(LINE_FEED);
 2348              		.loc 1 365 0
 2349 0ec6 0D4B     		ldr	r3, .L133+16
 2350 0ec8 1B78     		ldrb	r3, [r3]	@ zero_extendqisi2
 2351 0eca 1846     		mov	r0, r3
ARM GAS  C:\Users\Lenovo\AppData\Local\Temp\ccVx5qP5.s 			page 53


 2352 0ecc FFF7FEFF 		bl	UART_3_PutChar
 366:printer.c     ****     UART_3_PutChar(LINE_FEED);
 2353              		.loc 1 366 0
 2354 0ed0 0A4B     		ldr	r3, .L133+16
 2355 0ed2 1B78     		ldrb	r3, [r3]	@ zero_extendqisi2
 2356 0ed4 1846     		mov	r0, r3
 2357 0ed6 FFF7FEFF 		bl	UART_3_PutChar
 367:printer.c     ****     UART_3_PutChar(LINE_FEED);
 2358              		.loc 1 367 0
 2359 0eda 084B     		ldr	r3, .L133+16
 2360 0edc 1B78     		ldrb	r3, [r3]	@ zero_extendqisi2
 2361 0ede 1846     		mov	r0, r3
 2362 0ee0 FFF7FEFF 		bl	UART_3_PutChar
 368:printer.c     **** }
 2363              		.loc 1 368 0
 2364 0ee4 00BF     		nop
 2365 0ee6 4C37     		adds	r7, r7, #76
 2366              		.cfi_def_cfa_offset 12
 2367 0ee8 BD46     		mov	sp, r7
 2368              		.cfi_def_cfa_register 13
 2369              		@ sp needed
 2370 0eea 90BD     		pop	{r4, r7, pc}
 2371              	.L134:
 2372              		.align	2
 2373              	.L133:
 2374 0eec 00000000 		.word	msn_vol
 2375 0ef0 00000000 		.word	DecVol
 2376 0ef4 00000000 		.word	side
 2377 0ef8 00000000 		.word	VolSimbol
 2378 0efc 00000000 		.word	LINE_FEED
 2379 0f00 00000000 		.word	msn_din
 2380 0f04 00000000 		.word	PRN_CURRENCY
 2381 0f08 00000000 		.word	msn_ppu
 2382 0f0c 00000000 		.word	SEPARATOR
 2383 0f10 00000000 		.word	msn_footer
 2384 0f14 00000000 		.word	msn_footer2
 2385              		.cfi_endproc
 2386              	.LFE64:
 2387              		.size	PrintReceipt, .-PrintReceipt
 2388              		.section	.text.PrintShift,"ax",%progbits
 2389              		.align	2
 2390              		.global	PrintShift
 2391              		.thumb
 2392              		.thumb_func
 2393              		.type	PrintShift, %function
 2394              	PrintShift:
 2395              	.LFB65:
 369:printer.c     **** 
 370:printer.c     **** void PrintShift(void){
 2396              		.loc 1 370 0
 2397              		.cfi_startproc
 2398              		@ args = 0, pretend = 0, frame = 112
 2399              		@ frame_needed = 1, uses_anonymous_args = 0
 2400 0000 90B5     		push	{r4, r7, lr}
 2401              		.cfi_def_cfa_offset 12
 2402              		.cfi_offset 4, -12
 2403              		.cfi_offset 7, -8
ARM GAS  C:\Users\Lenovo\AppData\Local\Temp\ccVx5qP5.s 			page 54


 2404              		.cfi_offset 14, -4
 2405 0002 9DB0     		sub	sp, sp, #116
 2406              		.cfi_def_cfa_offset 128
 2407 0004 00AF     		add	r7, sp, #0
 2408              		.cfi_def_cfa_register 7
 2409              	.LBB59:
 371:printer.c     ****     uint8 screen_size,pos;
 372:printer.c     ****     char8 lectanterior[10],lectactual[10],memoria[10],resultado[10];
 373:printer.c     ****     uint32 actual,anterior,resta;
 374:printer.c     ****     for(uint8 LCDRx = 0; LCDRx < 6; LCDRx++){
 2410              		.loc 1 374 0
 2411 0006 0023     		movs	r3, #0
 2412 0008 87F86E30 		strb	r3, [r7, #110]
 2413 000c 0BE0     		b	.L136
 2414              	.L137:
 375:printer.c     ****         screen_PutChar(ASK_TIME[LCDRx]);
 2415              		.loc 1 375 0 discriminator 3
 2416 000e 97F86E30 		ldrb	r3, [r7, #110]	@ zero_extendqisi2
 2417 0012 BE4A     		ldr	r2, .L243
 2418 0014 D35C     		ldrb	r3, [r2, r3]	@ zero_extendqisi2
 2419 0016 1846     		mov	r0, r3
 2420 0018 FFF7FEFF 		bl	screen_PutChar
 374:printer.c     ****         screen_PutChar(ASK_TIME[LCDRx]);
 2421              		.loc 1 374 0 discriminator 3
 2422 001c 97F86E30 		ldrb	r3, [r7, #110]	@ zero_extendqisi2
 2423 0020 0133     		adds	r3, r3, #1
 2424 0022 87F86E30 		strb	r3, [r7, #110]
 2425              	.L136:
 374:printer.c     ****         screen_PutChar(ASK_TIME[LCDRx]);
 2426              		.loc 1 374 0 is_stmt 0 discriminator 1
 2427 0026 97F86E30 		ldrb	r3, [r7, #110]	@ zero_extendqisi2
 2428 002a 052B     		cmp	r3, #5
 2429 002c EFD9     		bls	.L137
 2430              	.LBE59:
 376:printer.c     ****     }
 377:printer.c     ****     CyDelay(10);
 2431              		.loc 1 377 0 is_stmt 1
 2432 002e 0A20     		movs	r0, #10
 2433 0030 FFF7FEFF 		bl	CyDelay
 378:printer.c     ****     screen_size = screen_GetRxBufferSize();
 2434              		.loc 1 378 0
 2435 0034 FFF7FEFF 		bl	screen_GetRxBufferSize
 2436 0038 0346     		mov	r3, r0
 2437 003a 87F83F30 		strb	r3, [r7, #63]
 379:printer.c     ****     if(screen_size >= 13 ){
 2438              		.loc 1 379 0
 2439 003e 97F83F30 		ldrb	r3, [r7, #63]	@ zero_extendqisi2
 2440 0042 0C2B     		cmp	r3, #12
 2441 0044 19D9     		bls	.L138
 2442              	.LBB60:
 380:printer.c     ****         for(uint8 LCDRx = 0; LCDRx < screen_size; LCDRx++){
 2443              		.loc 1 380 0
 2444 0046 0023     		movs	r3, #0
 2445 0048 87F86D30 		strb	r3, [r7, #109]
 2446 004c 0CE0     		b	.L139
 2447              	.L140:
 381:printer.c     ****             touch1[LCDRx] = screen_ReadRxData();
ARM GAS  C:\Users\Lenovo\AppData\Local\Temp\ccVx5qP5.s 			page 55


 2448              		.loc 1 381 0 discriminator 3
 2449 004e 97F86D40 		ldrb	r4, [r7, #109]	@ zero_extendqisi2
 2450 0052 FFF7FEFF 		bl	screen_ReadRxData
 2451 0056 0346     		mov	r3, r0
 2452 0058 1A46     		mov	r2, r3
 2453 005a AD4B     		ldr	r3, .L243+4
 2454 005c 1A55     		strb	r2, [r3, r4]
 380:printer.c     ****         for(uint8 LCDRx = 0; LCDRx < screen_size; LCDRx++){
 2455              		.loc 1 380 0 discriminator 3
 2456 005e 97F86D30 		ldrb	r3, [r7, #109]	@ zero_extendqisi2
 2457 0062 0133     		adds	r3, r3, #1
 2458 0064 87F86D30 		strb	r3, [r7, #109]
 2459              	.L139:
 380:printer.c     ****         for(uint8 LCDRx = 0; LCDRx < screen_size; LCDRx++){
 2460              		.loc 1 380 0 is_stmt 0 discriminator 1
 2461 0068 97F86D20 		ldrb	r2, [r7, #109]	@ zero_extendqisi2
 2462 006c 97F83F30 		ldrb	r3, [r7, #63]	@ zero_extendqisi2
 2463 0070 9A42     		cmp	r2, r3
 2464 0072 ECD3     		bcc	.L140
 2465              	.LBE60:
 382:printer.c     ****         }
 383:printer.c     ****         screen_size = 0;
 2466              		.loc 1 383 0 is_stmt 1
 2467 0074 0023     		movs	r3, #0
 2468 0076 87F83F30 		strb	r3, [r7, #63]
 2469              	.L138:
 384:printer.c     ****     }
 385:printer.c     ****     
 386:printer.c     ****     int_shiftnumber++;
 2470              		.loc 1 386 0
 2471 007a A64B     		ldr	r3, .L243+8
 2472 007c 1B78     		ldrb	r3, [r3]	@ zero_extendqisi2
 2473 007e 0133     		adds	r3, r3, #1
 2474 0080 DAB2     		uxtb	r2, r3
 2475 0082 A44B     		ldr	r3, .L243+8
 2476 0084 1A70     		strb	r2, [r3]
 387:printer.c     ****     shift_number[5]=(int_shiftnumber/10000)+48;
 2477              		.loc 1 387 0
 2478 0086 A34B     		ldr	r3, .L243+8
 2479 0088 1B78     		ldrb	r3, [r3]	@ zero_extendqisi2
 2480 008a A34A     		ldr	r2, .L243+12
 2481 008c 82FB0312 		smull	r1, r2, r2, r3
 2482 0090 1213     		asrs	r2, r2, #12
 2483 0092 DB17     		asrs	r3, r3, #31
 2484 0094 D31A     		subs	r3, r2, r3
 2485 0096 DBB2     		uxtb	r3, r3
 2486 0098 3033     		adds	r3, r3, #48
 2487 009a DAB2     		uxtb	r2, r3
 2488 009c 9F4B     		ldr	r3, .L243+16
 2489 009e 5A71     		strb	r2, [r3, #5]
 388:printer.c     **** 	shift_number[4]=((int_shiftnumber%10000)/1000)+48;
 2490              		.loc 1 388 0
 2491 00a0 9C4B     		ldr	r3, .L243+8
 2492 00a2 1B78     		ldrb	r3, [r3]	@ zero_extendqisi2
 2493 00a4 1A46     		mov	r2, r3
 2494 00a6 9C4B     		ldr	r3, .L243+12
 2495 00a8 83FB0213 		smull	r1, r3, r3, r2
ARM GAS  C:\Users\Lenovo\AppData\Local\Temp\ccVx5qP5.s 			page 56


 2496 00ac 1913     		asrs	r1, r3, #12
 2497 00ae D317     		asrs	r3, r2, #31
 2498 00b0 CB1A     		subs	r3, r1, r3
 2499 00b2 42F21071 		movw	r1, #10000
 2500 00b6 01FB03F3 		mul	r3, r1, r3
 2501 00ba D31A     		subs	r3, r2, r3
 2502 00bc 984A     		ldr	r2, .L243+20
 2503 00be 82FB0312 		smull	r1, r2, r2, r3
 2504 00c2 9211     		asrs	r2, r2, #6
 2505 00c4 DB17     		asrs	r3, r3, #31
 2506 00c6 D31A     		subs	r3, r2, r3
 2507 00c8 DBB2     		uxtb	r3, r3
 2508 00ca 3033     		adds	r3, r3, #48
 2509 00cc DAB2     		uxtb	r2, r3
 2510 00ce 934B     		ldr	r3, .L243+16
 2511 00d0 1A71     		strb	r2, [r3, #4]
 389:printer.c     **** 	shift_number[3]=(((int_shiftnumber%10000)%1000)/100)+48;
 2512              		.loc 1 389 0
 2513 00d2 904B     		ldr	r3, .L243+8
 2514 00d4 1B78     		ldrb	r3, [r3]	@ zero_extendqisi2
 2515 00d6 1A46     		mov	r2, r3
 2516 00d8 8F4B     		ldr	r3, .L243+12
 2517 00da 83FB0213 		smull	r1, r3, r3, r2
 2518 00de 1913     		asrs	r1, r3, #12
 2519 00e0 D317     		asrs	r3, r2, #31
 2520 00e2 CB1A     		subs	r3, r1, r3
 2521 00e4 42F21071 		movw	r1, #10000
 2522 00e8 01FB03F3 		mul	r3, r1, r3
 2523 00ec D31A     		subs	r3, r2, r3
 2524 00ee 8C4A     		ldr	r2, .L243+20
 2525 00f0 82FB0312 		smull	r1, r2, r2, r3
 2526 00f4 9111     		asrs	r1, r2, #6
 2527 00f6 DA17     		asrs	r2, r3, #31
 2528 00f8 8A1A     		subs	r2, r1, r2
 2529 00fa 4FF47A71 		mov	r1, #1000
 2530 00fe 01FB02F2 		mul	r2, r1, r2
 2531 0102 9A1A     		subs	r2, r3, r2
 2532 0104 874B     		ldr	r3, .L243+24
 2533 0106 83FB0213 		smull	r1, r3, r3, r2
 2534 010a 5911     		asrs	r1, r3, #5
 2535 010c D317     		asrs	r3, r2, #31
 2536 010e CB1A     		subs	r3, r1, r3
 2537 0110 DBB2     		uxtb	r3, r3
 2538 0112 3033     		adds	r3, r3, #48
 2539 0114 DAB2     		uxtb	r2, r3
 2540 0116 814B     		ldr	r3, .L243+16
 2541 0118 DA70     		strb	r2, [r3, #3]
 390:printer.c     **** 	shift_number[2]=((((int_shiftnumber%10000)%1000)%100)/10)+48;	
 2542              		.loc 1 390 0
 2543 011a 7E4B     		ldr	r3, .L243+8
 2544 011c 1B78     		ldrb	r3, [r3]	@ zero_extendqisi2
 2545 011e 7E4A     		ldr	r2, .L243+12
 2546 0120 82FB0312 		smull	r1, r2, r2, r3
 2547 0124 1113     		asrs	r1, r2, #12
 2548 0126 DA17     		asrs	r2, r3, #31
 2549 0128 8A1A     		subs	r2, r1, r2
 2550 012a 42F21071 		movw	r1, #10000
ARM GAS  C:\Users\Lenovo\AppData\Local\Temp\ccVx5qP5.s 			page 57


 2551 012e 01FB02F2 		mul	r2, r1, r2
 2552 0132 9A1A     		subs	r2, r3, r2
 2553 0134 7A4B     		ldr	r3, .L243+20
 2554 0136 83FB0213 		smull	r1, r3, r3, r2
 2555 013a 9911     		asrs	r1, r3, #6
 2556 013c D317     		asrs	r3, r2, #31
 2557 013e CB1A     		subs	r3, r1, r3
 2558 0140 4FF47A71 		mov	r1, #1000
 2559 0144 01FB03F3 		mul	r3, r1, r3
 2560 0148 D31A     		subs	r3, r2, r3
 2561 014a 764A     		ldr	r2, .L243+24
 2562 014c 82FB0312 		smull	r1, r2, r2, r3
 2563 0150 5111     		asrs	r1, r2, #5
 2564 0152 DA17     		asrs	r2, r3, #31
 2565 0154 8A1A     		subs	r2, r1, r2
 2566 0156 6421     		movs	r1, #100
 2567 0158 01FB02F2 		mul	r2, r1, r2
 2568 015c 9A1A     		subs	r2, r3, r2
 2569 015e 724B     		ldr	r3, .L243+28
 2570 0160 83FB0213 		smull	r1, r3, r3, r2
 2571 0164 9910     		asrs	r1, r3, #2
 2572 0166 D317     		asrs	r3, r2, #31
 2573 0168 CB1A     		subs	r3, r1, r3
 2574 016a DBB2     		uxtb	r3, r3
 2575 016c 3033     		adds	r3, r3, #48
 2576 016e DAB2     		uxtb	r2, r3
 2577 0170 6A4B     		ldr	r3, .L243+16
 2578 0172 9A70     		strb	r2, [r3, #2]
 391:printer.c     **** 	shift_number[1]=((((int_shiftnumber%10000)%1000)%100)%10)+48;
 2579              		.loc 1 391 0
 2580 0174 674B     		ldr	r3, .L243+8
 2581 0176 1B78     		ldrb	r3, [r3]	@ zero_extendqisi2
 2582 0178 674A     		ldr	r2, .L243+12
 2583 017a 82FB0312 		smull	r1, r2, r2, r3
 2584 017e 1113     		asrs	r1, r2, #12
 2585 0180 DA17     		asrs	r2, r3, #31
 2586 0182 8A1A     		subs	r2, r1, r2
 2587 0184 42F21071 		movw	r1, #10000
 2588 0188 01FB02F2 		mul	r2, r1, r2
 2589 018c 9A1A     		subs	r2, r3, r2
 2590 018e 644B     		ldr	r3, .L243+20
 2591 0190 83FB0213 		smull	r1, r3, r3, r2
 2592 0194 9911     		asrs	r1, r3, #6
 2593 0196 D317     		asrs	r3, r2, #31
 2594 0198 CB1A     		subs	r3, r1, r3
 2595 019a 4FF47A71 		mov	r1, #1000
 2596 019e 01FB03F3 		mul	r3, r1, r3
 2597 01a2 D31A     		subs	r3, r2, r3
 2598 01a4 5F4A     		ldr	r2, .L243+24
 2599 01a6 82FB0312 		smull	r1, r2, r2, r3
 2600 01aa 5111     		asrs	r1, r2, #5
 2601 01ac DA17     		asrs	r2, r3, #31
 2602 01ae 8A1A     		subs	r2, r1, r2
 2603 01b0 6421     		movs	r1, #100
 2604 01b2 01FB02F2 		mul	r2, r1, r2
 2605 01b6 9A1A     		subs	r2, r3, r2
 2606 01b8 5B4B     		ldr	r3, .L243+28
ARM GAS  C:\Users\Lenovo\AppData\Local\Temp\ccVx5qP5.s 			page 58


 2607 01ba 83FB0213 		smull	r1, r3, r3, r2
 2608 01be 9910     		asrs	r1, r3, #2
 2609 01c0 D317     		asrs	r3, r2, #31
 2610 01c2 C91A     		subs	r1, r1, r3
 2611 01c4 0B46     		mov	r3, r1
 2612 01c6 9B00     		lsls	r3, r3, #2
 2613 01c8 0B44     		add	r3, r3, r1
 2614 01ca 5B00     		lsls	r3, r3, #1
 2615 01cc D11A     		subs	r1, r2, r3
 2616 01ce CBB2     		uxtb	r3, r1
 2617 01d0 3033     		adds	r3, r3, #48
 2618 01d2 DAB2     		uxtb	r2, r3
 2619 01d4 514B     		ldr	r3, .L243+16
 2620 01d6 5A70     		strb	r2, [r3, #1]
 2621              	.LBB61:
 392:printer.c     ****     for(uint8 i = 7; i<13; i++){
 2622              		.loc 1 392 0
 2623 01d8 0723     		movs	r3, #7
 2624 01da 87F86C30 		strb	r3, [r7, #108]
 2625 01de 10E0     		b	.L141
 2626              	.L142:
 393:printer.c     ****         EEPROM_1_WriteByte(shift_number[i-6],i);
 2627              		.loc 1 393 0 discriminator 3
 2628 01e0 97F86C30 		ldrb	r3, [r7, #108]	@ zero_extendqisi2
 2629 01e4 063B     		subs	r3, r3, #6
 2630 01e6 4D4A     		ldr	r2, .L243+16
 2631 01e8 D35C     		ldrb	r3, [r2, r3]	@ zero_extendqisi2
 2632 01ea 97F86C20 		ldrb	r2, [r7, #108]	@ zero_extendqisi2
 2633 01ee 92B2     		uxth	r2, r2
 2634 01f0 1146     		mov	r1, r2
 2635 01f2 1846     		mov	r0, r3
 2636 01f4 FFF7FEFF 		bl	EEPROM_1_WriteByte
 392:printer.c     ****     for(uint8 i = 7; i<13; i++){
 2637              		.loc 1 392 0 discriminator 3
 2638 01f8 97F86C30 		ldrb	r3, [r7, #108]	@ zero_extendqisi2
 2639 01fc 0133     		adds	r3, r3, #1
 2640 01fe 87F86C30 		strb	r3, [r7, #108]
 2641              	.L141:
 392:printer.c     ****     for(uint8 i = 7; i<13; i++){
 2642              		.loc 1 392 0 is_stmt 0 discriminator 1
 2643 0202 97F86C30 		ldrb	r3, [r7, #108]	@ zero_extendqisi2
 2644 0206 0C2B     		cmp	r3, #12
 2645 0208 EAD9     		bls	.L142
 2646              	.LBE61:
 394:printer.c     ****     }
 395:printer.c     ****     UART_3_PutChar(LINE_FEED);
 2647              		.loc 1 395 0 is_stmt 1
 2648 020a 484B     		ldr	r3, .L243+32
 2649 020c 1B78     		ldrb	r3, [r3]	@ zero_extendqisi2
 2650 020e 1846     		mov	r0, r3
 2651 0210 FFF7FEFF 		bl	UART_3_PutChar
 2652              	.LBB62:
 396:printer.c     **** 	for(uint8 x = 0; x < 22; x ++){
 2653              		.loc 1 396 0
 2654 0214 0023     		movs	r3, #0
 2655 0216 87F86B30 		strb	r3, [r7, #107]
 2656 021a 0BE0     		b	.L143
ARM GAS  C:\Users\Lenovo\AppData\Local\Temp\ccVx5qP5.s 			page 59


 2657              	.L144:
 397:printer.c     **** 		UART_3_PutChar(msn_EDS[x]);   // Encabezado de estacin
 2658              		.loc 1 397 0 discriminator 3
 2659 021c 97F86B30 		ldrb	r3, [r7, #107]	@ zero_extendqisi2
 2660 0220 434A     		ldr	r2, .L243+36
 2661 0222 D35C     		ldrb	r3, [r2, r3]	@ zero_extendqisi2
 2662 0224 1846     		mov	r0, r3
 2663 0226 FFF7FEFF 		bl	UART_3_PutChar
 396:printer.c     **** 	for(uint8 x = 0; x < 22; x ++){
 2664              		.loc 1 396 0 discriminator 3
 2665 022a 97F86B30 		ldrb	r3, [r7, #107]	@ zero_extendqisi2
 2666 022e 0133     		adds	r3, r3, #1
 2667 0230 87F86B30 		strb	r3, [r7, #107]
 2668              	.L143:
 396:printer.c     **** 	for(uint8 x = 0; x < 22; x ++){
 2669              		.loc 1 396 0 is_stmt 0 discriminator 1
 2670 0234 97F86B30 		ldrb	r3, [r7, #107]	@ zero_extendqisi2
 2671 0238 152B     		cmp	r3, #21
 2672 023a EFD9     		bls	.L144
 2673              	.LBE62:
 398:printer.c     **** 	}
 399:printer.c     **** 	UART_3_PutChar(LINE_FEED);
 2674              		.loc 1 399 0 is_stmt 1
 2675 023c 3B4B     		ldr	r3, .L243+32
 2676 023e 1B78     		ldrb	r3, [r3]	@ zero_extendqisi2
 2677 0240 1846     		mov	r0, r3
 2678 0242 FFF7FEFF 		bl	UART_3_PutChar
 2679              	.LBB63:
 400:printer.c     **** 	for(uint8 x = 0; x < 22; x ++){
 2680              		.loc 1 400 0
 2681 0246 0023     		movs	r3, #0
 2682 0248 87F86A30 		strb	r3, [r7, #106]
 2683 024c 0BE0     		b	.L145
 2684              	.L146:
 401:printer.c     **** 		UART_3_PutChar(msn_EDS2[x]);
 2685              		.loc 1 401 0 discriminator 3
 2686 024e 97F86A30 		ldrb	r3, [r7, #106]	@ zero_extendqisi2
 2687 0252 384A     		ldr	r2, .L243+40
 2688 0254 D35C     		ldrb	r3, [r2, r3]	@ zero_extendqisi2
 2689 0256 1846     		mov	r0, r3
 2690 0258 FFF7FEFF 		bl	UART_3_PutChar
 400:printer.c     **** 	for(uint8 x = 0; x < 22; x ++){
 2691              		.loc 1 400 0 discriminator 3
 2692 025c 97F86A30 		ldrb	r3, [r7, #106]	@ zero_extendqisi2
 2693 0260 0133     		adds	r3, r3, #1
 2694 0262 87F86A30 		strb	r3, [r7, #106]
 2695              	.L145:
 400:printer.c     **** 	for(uint8 x = 0; x < 22; x ++){
 2696              		.loc 1 400 0 is_stmt 0 discriminator 1
 2697 0266 97F86A30 		ldrb	r3, [r7, #106]	@ zero_extendqisi2
 2698 026a 152B     		cmp	r3, #21
 2699 026c EFD9     		bls	.L146
 2700              	.LBE63:
 402:printer.c     **** 	}
 403:printer.c     **** 	UART_3_PutChar(LINE_FEED);
 2701              		.loc 1 403 0 is_stmt 1
 2702 026e 2F4B     		ldr	r3, .L243+32
ARM GAS  C:\Users\Lenovo\AppData\Local\Temp\ccVx5qP5.s 			page 60


 2703 0270 1B78     		ldrb	r3, [r3]	@ zero_extendqisi2
 2704 0272 1846     		mov	r0, r3
 2705 0274 FFF7FEFF 		bl	UART_3_PutChar
 2706              	.LBB64:
 404:printer.c     **** 	for(uint8 x = 0; x < 22; x ++){
 2707              		.loc 1 404 0
 2708 0278 0023     		movs	r3, #0
 2709 027a 87F86930 		strb	r3, [r7, #105]
 2710 027e 0BE0     		b	.L147
 2711              	.L148:
 405:printer.c     **** 		UART_3_PutChar(msn_EDS3[x]);
 2712              		.loc 1 405 0 discriminator 3
 2713 0280 97F86930 		ldrb	r3, [r7, #105]	@ zero_extendqisi2
 2714 0284 2C4A     		ldr	r2, .L243+44
 2715 0286 D35C     		ldrb	r3, [r2, r3]	@ zero_extendqisi2
 2716 0288 1846     		mov	r0, r3
 2717 028a FFF7FEFF 		bl	UART_3_PutChar
 404:printer.c     **** 	for(uint8 x = 0; x < 22; x ++){
 2718              		.loc 1 404 0 discriminator 3
 2719 028e 97F86930 		ldrb	r3, [r7, #105]	@ zero_extendqisi2
 2720 0292 0133     		adds	r3, r3, #1
 2721 0294 87F86930 		strb	r3, [r7, #105]
 2722              	.L147:
 404:printer.c     **** 	for(uint8 x = 0; x < 22; x ++){
 2723              		.loc 1 404 0 is_stmt 0 discriminator 1
 2724 0298 97F86930 		ldrb	r3, [r7, #105]	@ zero_extendqisi2
 2725 029c 152B     		cmp	r3, #21
 2726 029e EFD9     		bls	.L148
 2727              	.LBE64:
 406:printer.c     **** 	}
 407:printer.c     **** 	UART_3_PutChar(LINE_FEED);
 2728              		.loc 1 407 0 is_stmt 1
 2729 02a0 224B     		ldr	r3, .L243+32
 2730 02a2 1B78     		ldrb	r3, [r3]	@ zero_extendqisi2
 2731 02a4 1846     		mov	r0, r3
 2732 02a6 FFF7FEFF 		bl	UART_3_PutChar
 2733              	.LBB65:
 408:printer.c     **** 	for(uint8 x = 0; x < 22; x ++){
 2734              		.loc 1 408 0
 2735 02aa 0023     		movs	r3, #0
 2736 02ac 87F86830 		strb	r3, [r7, #104]
 2737 02b0 0BE0     		b	.L149
 2738              	.L150:
 409:printer.c     **** 		UART_3_PutChar(msn_EDS4[x]);
 2739              		.loc 1 409 0 discriminator 3
 2740 02b2 97F86830 		ldrb	r3, [r7, #104]	@ zero_extendqisi2
 2741 02b6 214A     		ldr	r2, .L243+48
 2742 02b8 D35C     		ldrb	r3, [r2, r3]	@ zero_extendqisi2
 2743 02ba 1846     		mov	r0, r3
 2744 02bc FFF7FEFF 		bl	UART_3_PutChar
 408:printer.c     **** 	for(uint8 x = 0; x < 22; x ++){
 2745              		.loc 1 408 0 discriminator 3
 2746 02c0 97F86830 		ldrb	r3, [r7, #104]	@ zero_extendqisi2
 2747 02c4 0133     		adds	r3, r3, #1
 2748 02c6 87F86830 		strb	r3, [r7, #104]
 2749              	.L149:
 408:printer.c     **** 	for(uint8 x = 0; x < 22; x ++){
ARM GAS  C:\Users\Lenovo\AppData\Local\Temp\ccVx5qP5.s 			page 61


 2750              		.loc 1 408 0 is_stmt 0 discriminator 1
 2751 02ca 97F86830 		ldrb	r3, [r7, #104]	@ zero_extendqisi2
 2752 02ce 152B     		cmp	r3, #21
 2753 02d0 EFD9     		bls	.L150
 2754              	.LBE65:
 410:printer.c     **** 	}
 411:printer.c     **** 	UART_3_PutChar(LINE_FEED);  
 2755              		.loc 1 411 0 is_stmt 1
 2756 02d2 164B     		ldr	r3, .L243+32
 2757 02d4 1B78     		ldrb	r3, [r3]	@ zero_extendqisi2
 2758 02d6 1846     		mov	r0, r3
 2759 02d8 FFF7FEFF 		bl	UART_3_PutChar
 2760              	.LBB66:
 412:printer.c     **** 	for(uint8 x = 0; x < 24; x ++){
 2761              		.loc 1 412 0
 2762 02dc 0023     		movs	r3, #0
 2763 02de 87F86730 		strb	r3, [r7, #103]
 2764 02e2 0BE0     		b	.L151
 2765              	.L152:
 413:printer.c     **** 		UART_3_PutChar(SEPARATOR[x]); //Separador de seccin
 2766              		.loc 1 413 0 discriminator 3
 2767 02e4 97F86730 		ldrb	r3, [r7, #103]	@ zero_extendqisi2
 2768 02e8 154A     		ldr	r2, .L243+52
 2769 02ea D35C     		ldrb	r3, [r2, r3]	@ zero_extendqisi2
 2770 02ec 1846     		mov	r0, r3
 2771 02ee FFF7FEFF 		bl	UART_3_PutChar
 412:printer.c     **** 	for(uint8 x = 0; x < 24; x ++){
 2772              		.loc 1 412 0 discriminator 3
 2773 02f2 97F86730 		ldrb	r3, [r7, #103]	@ zero_extendqisi2
 2774 02f6 0133     		adds	r3, r3, #1
 2775 02f8 87F86730 		strb	r3, [r7, #103]
 2776              	.L151:
 412:printer.c     **** 	for(uint8 x = 0; x < 24; x ++){
 2777              		.loc 1 412 0 is_stmt 0 discriminator 1
 2778 02fc 97F86730 		ldrb	r3, [r7, #103]	@ zero_extendqisi2
 2779 0300 172B     		cmp	r3, #23
 2780 0302 EFD9     		bls	.L152
 2781              	.LBE66:
 2782              	.LBB67:
 414:printer.c     **** 	}
 415:printer.c     ****     /********** FECHA ***************/
 416:printer.c     **** 	for(uint8 x = 0; x < 13; x ++){
 2783              		.loc 1 416 0 is_stmt 1
 2784 0304 0023     		movs	r3, #0
 2785 0306 87F86630 		strb	r3, [r7, #102]
 2786 030a 27E0     		b	.L153
 2787              	.L244:
 2788              		.align	2
 2789              	.L243:
 2790 030c 00000000 		.word	ASK_TIME
 2791 0310 00000000 		.word	touch1
 2792 0314 00000000 		.word	int_shiftnumber
 2793 0318 AD8BDB68 		.word	1759218605
 2794 031c 00000000 		.word	shift_number
 2795 0320 D34D6210 		.word	274877907
 2796 0324 1F85EB51 		.word	1374389535
 2797 0328 67666666 		.word	1717986919
ARM GAS  C:\Users\Lenovo\AppData\Local\Temp\ccVx5qP5.s 			page 62


 2798 032c 00000000 		.word	LINE_FEED
 2799 0330 00000000 		.word	msn_EDS
 2800 0334 00000000 		.word	msn_EDS2
 2801 0338 00000000 		.word	msn_EDS3
 2802 033c 00000000 		.word	msn_EDS4
 2803 0340 00000000 		.word	SEPARATOR
 2804              	.L154:
 417:printer.c     **** 		UART_3_PutChar(msn_fecha[x]);
 2805              		.loc 1 417 0 discriminator 3
 2806 0344 97F86630 		ldrb	r3, [r7, #102]	@ zero_extendqisi2
 2807 0348 C34A     		ldr	r2, .L245
 2808 034a D35C     		ldrb	r3, [r2, r3]	@ zero_extendqisi2
 2809 034c 1846     		mov	r0, r3
 2810 034e FFF7FEFF 		bl	UART_3_PutChar
 416:printer.c     **** 		UART_3_PutChar(msn_fecha[x]);
 2811              		.loc 1 416 0 discriminator 3
 2812 0352 97F86630 		ldrb	r3, [r7, #102]	@ zero_extendqisi2
 2813 0356 0133     		adds	r3, r3, #1
 2814 0358 87F86630 		strb	r3, [r7, #102]
 2815              	.L153:
 416:printer.c     **** 		UART_3_PutChar(msn_fecha[x]);
 2816              		.loc 1 416 0 is_stmt 0 discriminator 1
 2817 035c 97F86630 		ldrb	r3, [r7, #102]	@ zero_extendqisi2
 2818 0360 0C2B     		cmp	r3, #12
 2819 0362 EFD9     		bls	.L154
 2820              	.LBE67:
 418:printer.c     **** 	}
 419:printer.c     ****     UART_3_PutChar(((touch1[6] >> 4) + 0x30));
 2821              		.loc 1 419 0 is_stmt 1
 2822 0364 BD4B     		ldr	r3, .L245+4
 2823 0366 9B79     		ldrb	r3, [r3, #6]	@ zero_extendqisi2
 2824 0368 1B09     		lsrs	r3, r3, #4
 2825 036a DBB2     		uxtb	r3, r3
 2826 036c 3033     		adds	r3, r3, #48
 2827 036e DBB2     		uxtb	r3, r3
 2828 0370 1846     		mov	r0, r3
 2829 0372 FFF7FEFF 		bl	UART_3_PutChar
 420:printer.c     ****     UART_3_PutChar(((touch1[6] & 0x0F) + 0x30));
 2830              		.loc 1 420 0
 2831 0376 B94B     		ldr	r3, .L245+4
 2832 0378 9B79     		ldrb	r3, [r3, #6]	@ zero_extendqisi2
 2833 037a 03F00F03 		and	r3, r3, #15
 2834 037e DBB2     		uxtb	r3, r3
 2835 0380 3033     		adds	r3, r3, #48
 2836 0382 DBB2     		uxtb	r3, r3
 2837 0384 1846     		mov	r0, r3
 2838 0386 FFF7FEFF 		bl	UART_3_PutChar
 421:printer.c     ****     UART_3_PutChar('/');
 2839              		.loc 1 421 0
 2840 038a 2F20     		movs	r0, #47
 2841 038c FFF7FEFF 		bl	UART_3_PutChar
 422:printer.c     ****     UART_3_PutChar(((touch1[7] >> 4) + 0x30)) ;
 2842              		.loc 1 422 0
 2843 0390 B24B     		ldr	r3, .L245+4
 2844 0392 DB79     		ldrb	r3, [r3, #7]	@ zero_extendqisi2
 2845 0394 1B09     		lsrs	r3, r3, #4
 2846 0396 DBB2     		uxtb	r3, r3
ARM GAS  C:\Users\Lenovo\AppData\Local\Temp\ccVx5qP5.s 			page 63


 2847 0398 3033     		adds	r3, r3, #48
 2848 039a DBB2     		uxtb	r3, r3
 2849 039c 1846     		mov	r0, r3
 2850 039e FFF7FEFF 		bl	UART_3_PutChar
 423:printer.c     ****     UART_3_PutChar(((touch1[7] & 0x0F) + 0x30));
 2851              		.loc 1 423 0
 2852 03a2 AE4B     		ldr	r3, .L245+4
 2853 03a4 DB79     		ldrb	r3, [r3, #7]	@ zero_extendqisi2
 2854 03a6 03F00F03 		and	r3, r3, #15
 2855 03aa DBB2     		uxtb	r3, r3
 2856 03ac 3033     		adds	r3, r3, #48
 2857 03ae DBB2     		uxtb	r3, r3
 2858 03b0 1846     		mov	r0, r3
 2859 03b2 FFF7FEFF 		bl	UART_3_PutChar
 424:printer.c     ****     UART_3_PutChar('/');
 2860              		.loc 1 424 0
 2861 03b6 2F20     		movs	r0, #47
 2862 03b8 FFF7FEFF 		bl	UART_3_PutChar
 425:printer.c     ****     UART_3_PutChar(((touch1[8] >> 4) + 0x30)) ;
 2863              		.loc 1 425 0
 2864 03bc A74B     		ldr	r3, .L245+4
 2865 03be 1B7A     		ldrb	r3, [r3, #8]	@ zero_extendqisi2
 2866 03c0 1B09     		lsrs	r3, r3, #4
 2867 03c2 DBB2     		uxtb	r3, r3
 2868 03c4 3033     		adds	r3, r3, #48
 2869 03c6 DBB2     		uxtb	r3, r3
 2870 03c8 1846     		mov	r0, r3
 2871 03ca FFF7FEFF 		bl	UART_3_PutChar
 426:printer.c     **** 	UART_3_PutChar(((touch1[8] & 0x0F) + 0x30));
 2872              		.loc 1 426 0
 2873 03ce A34B     		ldr	r3, .L245+4
 2874 03d0 1B7A     		ldrb	r3, [r3, #8]	@ zero_extendqisi2
 2875 03d2 03F00F03 		and	r3, r3, #15
 2876 03d6 DBB2     		uxtb	r3, r3
 2877 03d8 3033     		adds	r3, r3, #48
 2878 03da DBB2     		uxtb	r3, r3
 2879 03dc 1846     		mov	r0, r3
 2880 03de FFF7FEFF 		bl	UART_3_PutChar
 427:printer.c     **** 
 428:printer.c     **** 	UART_3_PutChar(LINE_FEED);
 2881              		.loc 1 428 0
 2882 03e2 9F4B     		ldr	r3, .L245+8
 2883 03e4 1B78     		ldrb	r3, [r3]	@ zero_extendqisi2
 2884 03e6 1846     		mov	r0, r3
 2885 03e8 FFF7FEFF 		bl	UART_3_PutChar
 2886              	.LBB68:
 429:printer.c     ****     /********** HORA ***************/
 430:printer.c     **** 	for(uint8 x = 0; x < 13; x ++){
 2887              		.loc 1 430 0
 2888 03ec 0023     		movs	r3, #0
 2889 03ee 87F86530 		strb	r3, [r7, #101]
 2890 03f2 0BE0     		b	.L155
 2891              	.L156:
 431:printer.c     **** 		UART_3_PutChar(msn_hora[x]);
 2892              		.loc 1 431 0 discriminator 3
 2893 03f4 97F86530 		ldrb	r3, [r7, #101]	@ zero_extendqisi2
 2894 03f8 9A4A     		ldr	r2, .L245+12
ARM GAS  C:\Users\Lenovo\AppData\Local\Temp\ccVx5qP5.s 			page 64


 2895 03fa D35C     		ldrb	r3, [r2, r3]	@ zero_extendqisi2
 2896 03fc 1846     		mov	r0, r3
 2897 03fe FFF7FEFF 		bl	UART_3_PutChar
 430:printer.c     **** 		UART_3_PutChar(msn_hora[x]);
 2898              		.loc 1 430 0 discriminator 3
 2899 0402 97F86530 		ldrb	r3, [r7, #101]	@ zero_extendqisi2
 2900 0406 0133     		adds	r3, r3, #1
 2901 0408 87F86530 		strb	r3, [r7, #101]
 2902              	.L155:
 430:printer.c     **** 		UART_3_PutChar(msn_hora[x]);
 2903              		.loc 1 430 0 is_stmt 0 discriminator 1
 2904 040c 97F86530 		ldrb	r3, [r7, #101]	@ zero_extendqisi2
 2905 0410 0C2B     		cmp	r3, #12
 2906 0412 EFD9     		bls	.L156
 2907              	.LBE68:
 432:printer.c     **** 	}
 433:printer.c     ****     UART_3_PutChar(((touch1[10] >> 4) + 0x30)) ;
 2908              		.loc 1 433 0 is_stmt 1
 2909 0414 914B     		ldr	r3, .L245+4
 2910 0416 9B7A     		ldrb	r3, [r3, #10]	@ zero_extendqisi2
 2911 0418 1B09     		lsrs	r3, r3, #4
 2912 041a DBB2     		uxtb	r3, r3
 2913 041c 3033     		adds	r3, r3, #48
 2914 041e DBB2     		uxtb	r3, r3
 2915 0420 1846     		mov	r0, r3
 2916 0422 FFF7FEFF 		bl	UART_3_PutChar
 434:printer.c     ****     UART_3_PutChar(((touch1[10] & 0x0F) + 0x30));
 2917              		.loc 1 434 0
 2918 0426 8D4B     		ldr	r3, .L245+4
 2919 0428 9B7A     		ldrb	r3, [r3, #10]	@ zero_extendqisi2
 2920 042a 03F00F03 		and	r3, r3, #15
 2921 042e DBB2     		uxtb	r3, r3
 2922 0430 3033     		adds	r3, r3, #48
 2923 0432 DBB2     		uxtb	r3, r3
 2924 0434 1846     		mov	r0, r3
 2925 0436 FFF7FEFF 		bl	UART_3_PutChar
 435:printer.c     ****     UART_3_PutChar(':');
 2926              		.loc 1 435 0
 2927 043a 3A20     		movs	r0, #58
 2928 043c FFF7FEFF 		bl	UART_3_PutChar
 436:printer.c     ****     UART_3_PutChar(((touch1[11] >> 4) + 0x30)) ;
 2929              		.loc 1 436 0
 2930 0440 864B     		ldr	r3, .L245+4
 2931 0442 DB7A     		ldrb	r3, [r3, #11]	@ zero_extendqisi2
 2932 0444 1B09     		lsrs	r3, r3, #4
 2933 0446 DBB2     		uxtb	r3, r3
 2934 0448 3033     		adds	r3, r3, #48
 2935 044a DBB2     		uxtb	r3, r3
 2936 044c 1846     		mov	r0, r3
 2937 044e FFF7FEFF 		bl	UART_3_PutChar
 437:printer.c     ****     UART_3_PutChar(((touch1[11] & 0x0F) + 0x30));
 2938              		.loc 1 437 0
 2939 0452 824B     		ldr	r3, .L245+4
 2940 0454 DB7A     		ldrb	r3, [r3, #11]	@ zero_extendqisi2
 2941 0456 03F00F03 		and	r3, r3, #15
 2942 045a DBB2     		uxtb	r3, r3
 2943 045c 3033     		adds	r3, r3, #48
ARM GAS  C:\Users\Lenovo\AppData\Local\Temp\ccVx5qP5.s 			page 65


 2944 045e DBB2     		uxtb	r3, r3
 2945 0460 1846     		mov	r0, r3
 2946 0462 FFF7FEFF 		bl	UART_3_PutChar
 438:printer.c     ****     UART_3_PutChar(':');
 2947              		.loc 1 438 0
 2948 0466 3A20     		movs	r0, #58
 2949 0468 FFF7FEFF 		bl	UART_3_PutChar
 439:printer.c     ****     UART_3_PutChar(((touch1[12] >> 4) + 0x30));
 2950              		.loc 1 439 0
 2951 046c 7B4B     		ldr	r3, .L245+4
 2952 046e 1B7B     		ldrb	r3, [r3, #12]	@ zero_extendqisi2
 2953 0470 1B09     		lsrs	r3, r3, #4
 2954 0472 DBB2     		uxtb	r3, r3
 2955 0474 3033     		adds	r3, r3, #48
 2956 0476 DBB2     		uxtb	r3, r3
 2957 0478 1846     		mov	r0, r3
 2958 047a FFF7FEFF 		bl	UART_3_PutChar
 440:printer.c     **** 	UART_3_PutChar(((touch1[12] & 0x0F) + 0x30));
 2959              		.loc 1 440 0
 2960 047e 774B     		ldr	r3, .L245+4
 2961 0480 1B7B     		ldrb	r3, [r3, #12]	@ zero_extendqisi2
 2962 0482 03F00F03 		and	r3, r3, #15
 2963 0486 DBB2     		uxtb	r3, r3
 2964 0488 3033     		adds	r3, r3, #48
 2965 048a DBB2     		uxtb	r3, r3
 2966 048c 1846     		mov	r0, r3
 2967 048e FFF7FEFF 		bl	UART_3_PutChar
 441:printer.c     ****     UART_3_PutChar(LINE_FEED);
 2968              		.loc 1 441 0
 2969 0492 734B     		ldr	r3, .L245+8
 2970 0494 1B78     		ldrb	r3, [r3]	@ zero_extendqisi2
 2971 0496 1846     		mov	r0, r3
 2972 0498 FFF7FEFF 		bl	UART_3_PutChar
 2973              	.LBB69:
 442:printer.c     ****     for(uint8 x = 0; x < 24; x ++){
 2974              		.loc 1 442 0
 2975 049c 0023     		movs	r3, #0
 2976 049e 87F86430 		strb	r3, [r7, #100]
 2977 04a2 0BE0     		b	.L157
 2978              	.L158:
 443:printer.c     **** 		UART_3_PutChar(SEPARATOR[x]);
 2979              		.loc 1 443 0 discriminator 3
 2980 04a4 97F86430 		ldrb	r3, [r7, #100]	@ zero_extendqisi2
 2981 04a8 6F4A     		ldr	r2, .L245+16
 2982 04aa D35C     		ldrb	r3, [r2, r3]	@ zero_extendqisi2
 2983 04ac 1846     		mov	r0, r3
 2984 04ae FFF7FEFF 		bl	UART_3_PutChar
 442:printer.c     ****     for(uint8 x = 0; x < 24; x ++){
 2985              		.loc 1 442 0 discriminator 3
 2986 04b2 97F86430 		ldrb	r3, [r7, #100]	@ zero_extendqisi2
 2987 04b6 0133     		adds	r3, r3, #1
 2988 04b8 87F86430 		strb	r3, [r7, #100]
 2989              	.L157:
 442:printer.c     ****     for(uint8 x = 0; x < 24; x ++){
 2990              		.loc 1 442 0 is_stmt 0 discriminator 1
 2991 04bc 97F86430 		ldrb	r3, [r7, #100]	@ zero_extendqisi2
 2992 04c0 172B     		cmp	r3, #23
ARM GAS  C:\Users\Lenovo\AppData\Local\Temp\ccVx5qP5.s 			page 66


 2993 04c2 EFD9     		bls	.L158
 2994              	.LBE69:
 2995              	.LBB70:
 444:printer.c     **** 	} 
 445:printer.c     ****     ////////////////////////////////////////
 446:printer.c     **** 	for(uint8 x = 0; x < 13; x ++){
 2996              		.loc 1 446 0 is_stmt 1
 2997 04c4 0023     		movs	r3, #0
 2998 04c6 87F86330 		strb	r3, [r7, #99]
 2999 04ca 0BE0     		b	.L159
 3000              	.L160:
 447:printer.c     **** 		UART_3_PutChar(msn_cierre[x]);
 3001              		.loc 1 447 0 discriminator 3
 3002 04cc 97F86330 		ldrb	r3, [r7, #99]	@ zero_extendqisi2
 3003 04d0 664A     		ldr	r2, .L245+20
 3004 04d2 D35C     		ldrb	r3, [r2, r3]	@ zero_extendqisi2
 3005 04d4 1846     		mov	r0, r3
 3006 04d6 FFF7FEFF 		bl	UART_3_PutChar
 446:printer.c     **** 		UART_3_PutChar(msn_cierre[x]);
 3007              		.loc 1 446 0 discriminator 3
 3008 04da 97F86330 		ldrb	r3, [r7, #99]	@ zero_extendqisi2
 3009 04de 0133     		adds	r3, r3, #1
 3010 04e0 87F86330 		strb	r3, [r7, #99]
 3011              	.L159:
 446:printer.c     **** 		UART_3_PutChar(msn_cierre[x]);
 3012              		.loc 1 446 0 is_stmt 0 discriminator 1
 3013 04e4 97F86330 		ldrb	r3, [r7, #99]	@ zero_extendqisi2
 3014 04e8 0C2B     		cmp	r3, #12
 3015 04ea EFD9     		bls	.L160
 3016              	.LBE70:
 3017              	.LBB71:
 448:printer.c     **** 	}     
 449:printer.c     **** 	for(uint8 x = 5; x > 0; x --){
 3018              		.loc 1 449 0 is_stmt 1
 3019 04ec 0523     		movs	r3, #5
 3020 04ee 87F86230 		strb	r3, [r7, #98]
 3021 04f2 0BE0     		b	.L161
 3022              	.L162:
 450:printer.c     **** 		UART_3_PutChar(shift_number[x]);   //Nmero de cierre
 3023              		.loc 1 450 0 discriminator 3
 3024 04f4 97F86230 		ldrb	r3, [r7, #98]	@ zero_extendqisi2
 3025 04f8 5D4A     		ldr	r2, .L245+24
 3026 04fa D35C     		ldrb	r3, [r2, r3]	@ zero_extendqisi2
 3027 04fc 1846     		mov	r0, r3
 3028 04fe FFF7FEFF 		bl	UART_3_PutChar
 449:printer.c     **** 		UART_3_PutChar(shift_number[x]);   //Nmero de cierre
 3029              		.loc 1 449 0 discriminator 3
 3030 0502 97F86230 		ldrb	r3, [r7, #98]	@ zero_extendqisi2
 3031 0506 013B     		subs	r3, r3, #1
 3032 0508 87F86230 		strb	r3, [r7, #98]
 3033              	.L161:
 449:printer.c     **** 		UART_3_PutChar(shift_number[x]);   //Nmero de cierre
 3034              		.loc 1 449 0 is_stmt 0 discriminator 1
 3035 050c 97F86230 		ldrb	r3, [r7, #98]	@ zero_extendqisi2
 3036 0510 002B     		cmp	r3, #0
 3037 0512 EFD1     		bne	.L162
 3038              	.LBE71:
ARM GAS  C:\Users\Lenovo\AppData\Local\Temp\ccVx5qP5.s 			page 67


 451:printer.c     **** 	}
 452:printer.c     **** 	UART_3_PutChar(LINE_FEED);
 3039              		.loc 1 452 0 is_stmt 1
 3040 0514 524B     		ldr	r3, .L245+8
 3041 0516 1B78     		ldrb	r3, [r3]	@ zero_extendqisi2
 3042 0518 1846     		mov	r0, r3
 3043 051a FFF7FEFF 		bl	UART_3_PutChar
 453:printer.c     ****     UART_3_PutChar(LINE_FEED);
 3044              		.loc 1 453 0
 3045 051e 504B     		ldr	r3, .L245+8
 3046 0520 1B78     		ldrb	r3, [r3]	@ zero_extendqisi2
 3047 0522 1846     		mov	r0, r3
 3048 0524 FFF7FEFF 		bl	UART_3_PutChar
 3049              	.LBB72:
 454:printer.c     ****     for(uint8 x = 0; x < 13; x ++){
 3050              		.loc 1 454 0
 3051 0528 0023     		movs	r3, #0
 3052 052a 87F86130 		strb	r3, [r7, #97]
 3053 052e 0BE0     		b	.L163
 3054              	.L164:
 455:printer.c     ****         UART_3_PutChar(msn_pos[x]);
 3055              		.loc 1 455 0 discriminator 3
 3056 0530 97F86130 		ldrb	r3, [r7, #97]	@ zero_extendqisi2
 3057 0534 4F4A     		ldr	r2, .L245+28
 3058 0536 D35C     		ldrb	r3, [r2, r3]	@ zero_extendqisi2
 3059 0538 1846     		mov	r0, r3
 3060 053a FFF7FEFF 		bl	UART_3_PutChar
 454:printer.c     ****     for(uint8 x = 0; x < 13; x ++){
 3061              		.loc 1 454 0 discriminator 3
 3062 053e 97F86130 		ldrb	r3, [r7, #97]	@ zero_extendqisi2
 3063 0542 0133     		adds	r3, r3, #1
 3064 0544 87F86130 		strb	r3, [r7, #97]
 3065              	.L163:
 454:printer.c     ****     for(uint8 x = 0; x < 13; x ++){
 3066              		.loc 1 454 0 is_stmt 0 discriminator 1
 3067 0548 97F86130 		ldrb	r3, [r7, #97]	@ zero_extendqisi2
 3068 054c 0C2B     		cmp	r3, #12
 3069 054e EFD9     		bls	.L164
 3070              	.LBE72:
 456:printer.c     ****     }
 457:printer.c     ****     UART_3_PutChar(side.a.dir + 0x31);
 3071              		.loc 1 457 0 is_stmt 1
 3072 0550 494B     		ldr	r3, .L245+32
 3073 0552 1B78     		ldrb	r3, [r3]	@ zero_extendqisi2
 3074 0554 3133     		adds	r3, r3, #49
 3075 0556 DBB2     		uxtb	r3, r3
 3076 0558 1846     		mov	r0, r3
 3077 055a FFF7FEFF 		bl	UART_3_PutChar
 458:printer.c     ****     UART_3_PutChar(LINE_FEED);
 3078              		.loc 1 458 0
 3079 055e 404B     		ldr	r3, .L245+8
 3080 0560 1B78     		ldrb	r3, [r3]	@ zero_extendqisi2
 3081 0562 1846     		mov	r0, r3
 3082 0564 FFF7FEFF 		bl	UART_3_PutChar
 3083              	.LBB73:
 459:printer.c     **** 	for(uint8 x = 0; x < 16; x ++){
 3084              		.loc 1 459 0
ARM GAS  C:\Users\Lenovo\AppData\Local\Temp\ccVx5qP5.s 			page 68


 3085 0568 0023     		movs	r3, #0
 3086 056a 87F86030 		strb	r3, [r7, #96]
 3087 056e 0BE0     		b	.L165
 3088              	.L166:
 460:printer.c     **** 		UART_3_PutChar(msn_lecact[x]);
 3089              		.loc 1 460 0 discriminator 3
 3090 0570 97F86030 		ldrb	r3, [r7, #96]	@ zero_extendqisi2
 3091 0574 414A     		ldr	r2, .L245+36
 3092 0576 D35C     		ldrb	r3, [r2, r3]	@ zero_extendqisi2
 3093 0578 1846     		mov	r0, r3
 3094 057a FFF7FEFF 		bl	UART_3_PutChar
 459:printer.c     **** 	for(uint8 x = 0; x < 16; x ++){
 3095              		.loc 1 459 0 discriminator 3
 3096 057e 97F86030 		ldrb	r3, [r7, #96]	@ zero_extendqisi2
 3097 0582 0133     		adds	r3, r3, #1
 3098 0584 87F86030 		strb	r3, [r7, #96]
 3099              	.L165:
 459:printer.c     **** 	for(uint8 x = 0; x < 16; x ++){
 3100              		.loc 1 459 0 is_stmt 0 discriminator 1
 3101 0588 97F86030 		ldrb	r3, [r7, #96]	@ zero_extendqisi2
 3102 058c 0F2B     		cmp	r3, #15
 3103 058e EFD9     		bls	.L166
 3104              	.LBE73:
 461:printer.c     **** 	}
 462:printer.c     **** 	UART_3_PutChar(LINE_FEED);	
 3105              		.loc 1 462 0 is_stmt 1
 3106 0590 334B     		ldr	r3, .L245+8
 3107 0592 1B78     		ldrb	r3, [r3]	@ zero_extendqisi2
 3108 0594 1846     		mov	r0, r3
 3109 0596 FFF7FEFF 		bl	UART_3_PutChar
 3110              	.LBB74:
 463:printer.c     ****                           
 464:printer.c     ****     for(uint8 x = 0; x < 10; x ++){ 
 3111              		.loc 1 464 0
 3112 059a 0023     		movs	r3, #0
 3113 059c 87F85F30 		strb	r3, [r7, #95]
 3114 05a0 18E0     		b	.L167
 3115              	.L169:
 465:printer.c     ****         if((10-x) == DecVol)
 3116              		.loc 1 465 0
 3117 05a2 97F85F30 		ldrb	r3, [r7, #95]	@ zero_extendqisi2
 3118 05a6 C3F10A03 		rsb	r3, r3, #10
 3119 05aa 354A     		ldr	r2, .L245+40
 3120 05ac 1278     		ldrb	r2, [r2]	@ zero_extendqisi2
 3121 05ae 9342     		cmp	r3, r2
 3122 05b0 02D1     		bne	.L168
 466:printer.c     ****             UART_3_PutChar('.');
 3123              		.loc 1 466 0
 3124 05b2 2E20     		movs	r0, #46
 3125 05b4 FFF7FEFF 		bl	UART_3_PutChar
 3126              	.L168:
 467:printer.c     ****         UART_3_PutChar(side.a.ProcessedTotals[0][0][x]);
 3127              		.loc 1 467 0 discriminator 2
 3128 05b8 97F85F30 		ldrb	r3, [r7, #95]	@ zero_extendqisi2
 3129 05bc 2E4A     		ldr	r2, .L245+32
 3130 05be 1344     		add	r3, r3, r2
 3131 05c0 93F88330 		ldrb	r3, [r3, #131]	@ zero_extendqisi2
ARM GAS  C:\Users\Lenovo\AppData\Local\Temp\ccVx5qP5.s 			page 69


 3132 05c4 1846     		mov	r0, r3
 3133 05c6 FFF7FEFF 		bl	UART_3_PutChar
 464:printer.c     ****         if((10-x) == DecVol)
 3134              		.loc 1 464 0 discriminator 2
 3135 05ca 97F85F30 		ldrb	r3, [r7, #95]	@ zero_extendqisi2
 3136 05ce 0133     		adds	r3, r3, #1
 3137 05d0 87F85F30 		strb	r3, [r7, #95]
 3138              	.L167:
 464:printer.c     ****         if((10-x) == DecVol)
 3139              		.loc 1 464 0 is_stmt 0 discriminator 1
 3140 05d4 97F85F30 		ldrb	r3, [r7, #95]	@ zero_extendqisi2
 3141 05d8 092B     		cmp	r3, #9
 3142 05da E2D9     		bls	.L169
 3143              	.LBE74:
 468:printer.c     ****     }
 469:printer.c     ****     UART_3_PutChar(LINE_FEED);
 3144              		.loc 1 469 0 is_stmt 1
 3145 05dc 204B     		ldr	r3, .L245+8
 3146 05de 1B78     		ldrb	r3, [r3]	@ zero_extendqisi2
 3147 05e0 1846     		mov	r0, r3
 3148 05e2 FFF7FEFF 		bl	UART_3_PutChar
 3149              	.LBB75:
 470:printer.c     ****     for(uint8 x = 0; x < 10; x++){
 3150              		.loc 1 470 0
 3151 05e6 0023     		movs	r3, #0
 3152 05e8 87F85E30 		strb	r3, [r7, #94]
 3153 05ec 10E0     		b	.L170
 3154              	.L173:
 471:printer.c     ****         pos = x;
 3155              		.loc 1 471 0
 3156 05ee 97F85E30 		ldrb	r3, [r7, #94]
 3157 05f2 87F86F30 		strb	r3, [r7, #111]
 472:printer.c     ****         if(side.a.ProcessedTotals[0][0][x] != 0x00 )
 3158              		.loc 1 472 0
 3159 05f6 97F85E30 		ldrb	r3, [r7, #94]	@ zero_extendqisi2
 3160 05fa 1F4A     		ldr	r2, .L245+32
 3161 05fc 1344     		add	r3, r3, r2
 3162 05fe 93F88330 		ldrb	r3, [r3, #131]	@ zero_extendqisi2
 3163 0602 002B     		cmp	r3, #0
 3164 0604 09D1     		bne	.L242
 470:printer.c     ****     for(uint8 x = 0; x < 10; x++){
 3165              		.loc 1 470 0 discriminator 2
 3166 0606 97F85E30 		ldrb	r3, [r7, #94]	@ zero_extendqisi2
 3167 060a 0133     		adds	r3, r3, #1
 3168 060c 87F85E30 		strb	r3, [r7, #94]
 3169              	.L170:
 470:printer.c     ****     for(uint8 x = 0; x < 10; x++){
 3170              		.loc 1 470 0 is_stmt 0 discriminator 1
 3171 0610 97F85E30 		ldrb	r3, [r7, #94]	@ zero_extendqisi2
 3172 0614 092B     		cmp	r3, #9
 3173 0616 EAD9     		bls	.L173
 3174 0618 00E0     		b	.L172
 3175              	.L242:
 473:printer.c     ****             break;
 3176              		.loc 1 473 0 is_stmt 1
 3177 061a 00BF     		nop
 3178              	.L172:
ARM GAS  C:\Users\Lenovo\AppData\Local\Temp\ccVx5qP5.s 			page 70


 3179              	.LBE75:
 3180              	.LBB76:
 474:printer.c     ****     }
 475:printer.c     **** 	for(uint8 x = 0; x < 16; x ++){
 3181              		.loc 1 475 0
 3182 061c 0023     		movs	r3, #0
 3183 061e 87F85D30 		strb	r3, [r7, #93]
 3184 0622 0BE0     		b	.L174
 3185              	.L175:
 476:printer.c     **** 		UART_3_PutChar(msn_lecaan[x]);
 3186              		.loc 1 476 0 discriminator 3
 3187 0624 97F85D30 		ldrb	r3, [r7, #93]	@ zero_extendqisi2
 3188 0628 164A     		ldr	r2, .L245+44
 3189 062a D35C     		ldrb	r3, [r2, r3]	@ zero_extendqisi2
 3190 062c 1846     		mov	r0, r3
 3191 062e FFF7FEFF 		bl	UART_3_PutChar
 475:printer.c     **** 		UART_3_PutChar(msn_lecaan[x]);
 3192              		.loc 1 475 0 discriminator 3
 3193 0632 97F85D30 		ldrb	r3, [r7, #93]	@ zero_extendqisi2
 3194 0636 0133     		adds	r3, r3, #1
 3195 0638 87F85D30 		strb	r3, [r7, #93]
 3196              	.L174:
 475:printer.c     **** 		UART_3_PutChar(msn_lecaan[x]);
 3197              		.loc 1 475 0 is_stmt 0 discriminator 1
 3198 063c 97F85D30 		ldrb	r3, [r7, #93]	@ zero_extendqisi2
 3199 0640 0F2B     		cmp	r3, #15
 3200 0642 EFD9     		bls	.L175
 3201              	.LBE76:
 477:printer.c     **** 	}
 478:printer.c     ****     UART_3_PutChar(LINE_FEED);
 3202              		.loc 1 478 0 is_stmt 1
 3203 0644 064B     		ldr	r3, .L245+8
 3204 0646 1B78     		ldrb	r3, [r3]	@ zero_extendqisi2
 3205 0648 1846     		mov	r0, r3
 3206 064a FFF7FEFF 		bl	UART_3_PutChar
 3207              	.LBB77:
 479:printer.c     ****     for(uint8 x = 0; x < 10; x ++){
 3208              		.loc 1 479 0
 3209 064e 0023     		movs	r3, #0
 3210 0650 87F85C30 		strb	r3, [r7, #92]
 3211 0654 2EE0     		b	.L176
 3212              	.L246:
 3213 0656 00BF     		.align	2
 3214              	.L245:
 3215 0658 00000000 		.word	msn_fecha
 3216 065c 00000000 		.word	touch1
 3217 0660 00000000 		.word	LINE_FEED
 3218 0664 00000000 		.word	msn_hora
 3219 0668 00000000 		.word	SEPARATOR
 3220 066c 00000000 		.word	msn_cierre
 3221 0670 00000000 		.word	shift_number
 3222 0674 00000000 		.word	msn_pos
 3223 0678 00000000 		.word	side
 3224 067c 00000000 		.word	msn_lecact
 3225 0680 00000000 		.word	DecVol
 3226 0684 00000000 		.word	msn_lecaan
 3227              	.L177:
ARM GAS  C:\Users\Lenovo\AppData\Local\Temp\ccVx5qP5.s 			page 71


 480:printer.c     ****         memoria[x] = EEPROM_1_ReadByte(36+x);
 3228              		.loc 1 480 0 discriminator 3
 3229 0688 97F85C40 		ldrb	r4, [r7, #92]	@ zero_extendqisi2
 3230 068c 97F85C30 		ldrb	r3, [r7, #92]	@ zero_extendqisi2
 3231 0690 9BB2     		uxth	r3, r3
 3232 0692 2433     		adds	r3, r3, #36
 3233 0694 9BB2     		uxth	r3, r3
 3234 0696 1846     		mov	r0, r3
 3235 0698 FFF7FEFF 		bl	EEPROM_1_ReadByte
 3236 069c 0346     		mov	r3, r0
 3237 069e 1A46     		mov	r2, r3
 3238 06a0 07F17003 		add	r3, r7, #112
 3239 06a4 2344     		add	r3, r3, r4
 3240 06a6 03F8642C 		strb	r2, [r3, #-100]
 479:printer.c     ****     for(uint8 x = 0; x < 10; x ++){
 3241              		.loc 1 479 0 discriminator 3
 3242 06aa 97F85C30 		ldrb	r3, [r7, #92]	@ zero_extendqisi2
 3243 06ae 0133     		adds	r3, r3, #1
 3244 06b0 87F85C30 		strb	r3, [r7, #92]
 3245              	.L176:
 479:printer.c     ****     for(uint8 x = 0; x < 10; x ++){
 3246              		.loc 1 479 0 is_stmt 0 discriminator 1
 3247 06b4 97F85C30 		ldrb	r3, [r7, #92]	@ zero_extendqisi2
 3248 06b8 092B     		cmp	r3, #9
 3249 06ba E5D9     		bls	.L177
 3250              	.LBE77:
 3251              	.LBB78:
 481:printer.c     ****     }
 482:printer.c     ****     for(uint8 x = 0; x < 10; x ++){ 
 3252              		.loc 1 482 0 is_stmt 1
 3253 06bc 0023     		movs	r3, #0
 3254 06be 87F85B30 		strb	r3, [r7, #91]
 3255 06c2 19E0     		b	.L178
 3256              	.L180:
 483:printer.c     ****         if((10-x) == DecVol)
 3257              		.loc 1 483 0
 3258 06c4 97F85B30 		ldrb	r3, [r7, #91]	@ zero_extendqisi2
 3259 06c8 C3F10A03 		rsb	r3, r3, #10
 3260 06cc C44A     		ldr	r2, .L247
 3261 06ce 1278     		ldrb	r2, [r2]	@ zero_extendqisi2
 3262 06d0 9342     		cmp	r3, r2
 3263 06d2 02D1     		bne	.L179
 484:printer.c     ****             UART_3_PutChar('.');
 3264              		.loc 1 484 0
 3265 06d4 2E20     		movs	r0, #46
 3266 06d6 FFF7FEFF 		bl	UART_3_PutChar
 3267              	.L179:
 485:printer.c     ****         UART_3_PutChar(memoria[x]);
 3268              		.loc 1 485 0 discriminator 2
 3269 06da 97F85B30 		ldrb	r3, [r7, #91]	@ zero_extendqisi2
 3270 06de 07F17002 		add	r2, r7, #112
 3271 06e2 1344     		add	r3, r3, r2
 3272 06e4 13F8643C 		ldrb	r3, [r3, #-100]	@ zero_extendqisi2
 3273 06e8 1846     		mov	r0, r3
 3274 06ea FFF7FEFF 		bl	UART_3_PutChar
 482:printer.c     ****         if((10-x) == DecVol)
 3275              		.loc 1 482 0 discriminator 2
ARM GAS  C:\Users\Lenovo\AppData\Local\Temp\ccVx5qP5.s 			page 72


 3276 06ee 97F85B30 		ldrb	r3, [r7, #91]	@ zero_extendqisi2
 3277 06f2 0133     		adds	r3, r3, #1
 3278 06f4 87F85B30 		strb	r3, [r7, #91]
 3279              	.L178:
 482:printer.c     ****         if((10-x) == DecVol)
 3280              		.loc 1 482 0 is_stmt 0 discriminator 1
 3281 06f8 97F85B30 		ldrb	r3, [r7, #91]	@ zero_extendqisi2
 3282 06fc 092B     		cmp	r3, #9
 3283 06fe E1D9     		bls	.L180
 3284              	.LBE78:
 486:printer.c     ****     }
 487:printer.c     ****     UART_3_PutChar(LINE_FEED);
 3285              		.loc 1 487 0 is_stmt 1
 3286 0700 B84B     		ldr	r3, .L247+4
 3287 0702 1B78     		ldrb	r3, [r3]	@ zero_extendqisi2
 3288 0704 1846     		mov	r0, r3
 3289 0706 FFF7FEFF 		bl	UART_3_PutChar
 3290              	.LBB79:
 488:printer.c     ****     
 489:printer.c     ****     for(uint8 x = pos; x < 10; x++ ){
 3291              		.loc 1 489 0
 3292 070a 97F86F30 		ldrb	r3, [r7, #111]
 3293 070e 87F85A30 		strb	r3, [r7, #90]
 3294 0712 2DE0     		b	.L181
 3295              	.L182:
 490:printer.c     ****         lectactual[x-pos] = side.a.ProcessedTotals[0][0][x];
 3296              		.loc 1 490 0 discriminator 3
 3297 0714 97F85A20 		ldrb	r2, [r7, #90]	@ zero_extendqisi2
 3298 0718 97F86F30 		ldrb	r3, [r7, #111]	@ zero_extendqisi2
 3299 071c D31A     		subs	r3, r2, r3
 3300 071e 97F85A20 		ldrb	r2, [r7, #90]	@ zero_extendqisi2
 3301 0722 B149     		ldr	r1, .L247+8
 3302 0724 0A44     		add	r2, r2, r1
 3303 0726 92F88320 		ldrb	r2, [r2, #131]	@ zero_extendqisi2
 3304 072a 07F17001 		add	r1, r7, #112
 3305 072e 0B44     		add	r3, r3, r1
 3306 0730 03F8582C 		strb	r2, [r3, #-88]
 491:printer.c     ****         lectanterior[x-pos] = memoria[x];
 3307              		.loc 1 491 0 discriminator 3
 3308 0734 97F85A20 		ldrb	r2, [r7, #90]	@ zero_extendqisi2
 3309 0738 97F86F30 		ldrb	r3, [r7, #111]	@ zero_extendqisi2
 3310 073c D31A     		subs	r3, r2, r3
 3311 073e 97F85A20 		ldrb	r2, [r7, #90]	@ zero_extendqisi2
 3312 0742 07F17001 		add	r1, r7, #112
 3313 0746 0A44     		add	r2, r2, r1
 3314 0748 12F8642C 		ldrb	r2, [r2, #-100]	@ zero_extendqisi2
 3315 074c 07F17001 		add	r1, r7, #112
 3316 0750 0B44     		add	r3, r3, r1
 3317 0752 03F84C2C 		strb	r2, [r3, #-76]
 492:printer.c     ****         resultado[x] = 0x00;
 3318              		.loc 1 492 0 discriminator 3
 3319 0756 97F85A30 		ldrb	r3, [r7, #90]	@ zero_extendqisi2
 3320 075a 07F17002 		add	r2, r7, #112
 3321 075e 1344     		add	r3, r3, r2
 3322 0760 0022     		movs	r2, #0
 3323 0762 03F8702C 		strb	r2, [r3, #-112]
 489:printer.c     ****         lectactual[x-pos] = side.a.ProcessedTotals[0][0][x];
ARM GAS  C:\Users\Lenovo\AppData\Local\Temp\ccVx5qP5.s 			page 73


 3324              		.loc 1 489 0 discriminator 3
 3325 0766 97F85A30 		ldrb	r3, [r7, #90]	@ zero_extendqisi2
 3326 076a 0133     		adds	r3, r3, #1
 3327 076c 87F85A30 		strb	r3, [r7, #90]
 3328              	.L181:
 489:printer.c     ****         lectactual[x-pos] = side.a.ProcessedTotals[0][0][x];
 3329              		.loc 1 489 0 is_stmt 0 discriminator 1
 3330 0770 97F85A30 		ldrb	r3, [r7, #90]	@ zero_extendqisi2
 3331 0774 092B     		cmp	r3, #9
 3332 0776 CDD9     		bls	.L182
 3333              	.LBE79:
 493:printer.c     ****     }
 494:printer.c     ****     
 495:printer.c     ****     anterior = atoi(lectanterior);
 3334              		.loc 1 495 0 is_stmt 1
 3335 0778 07F12403 		add	r3, r7, #36
 3336 077c 1846     		mov	r0, r3
 3337 077e FFF7FEFF 		bl	atoi
 3338 0782 0346     		mov	r3, r0
 3339 0784 BB63     		str	r3, [r7, #56]
 496:printer.c     ****     actual = atoi(lectactual);
 3340              		.loc 1 496 0
 3341 0786 07F11803 		add	r3, r7, #24
 3342 078a 1846     		mov	r0, r3
 3343 078c FFF7FEFF 		bl	atoi
 3344 0790 0346     		mov	r3, r0
 3345 0792 7B63     		str	r3, [r7, #52]
 497:printer.c     ****     resta =  actual - anterior;
 3346              		.loc 1 497 0
 3347 0794 7A6B     		ldr	r2, [r7, #52]
 3348 0796 BB6B     		ldr	r3, [r7, #56]
 3349 0798 D31A     		subs	r3, r2, r3
 3350 079a 3B63     		str	r3, [r7, #48]
 498:printer.c     ****     itoa(resta,resultado,10);
 3351              		.loc 1 498 0
 3352 079c 3B6B     		ldr	r3, [r7, #48]
 3353 079e 3946     		mov	r1, r7
 3354 07a0 0A22     		movs	r2, #10
 3355 07a2 1846     		mov	r0, r3
 3356 07a4 FFF7FEFF 		bl	itoa
 3357              	.LBB80:
 499:printer.c     ****     
 500:printer.c     ****     for(uint8 x = 0; x < 18; x ++){
 3358              		.loc 1 500 0
 3359 07a8 0023     		movs	r3, #0
 3360 07aa 87F85930 		strb	r3, [r7, #89]
 3361 07ae 0BE0     		b	.L183
 3362              	.L184:
 501:printer.c     ****         UART_3_PutChar(msn_dif[x]);
 3363              		.loc 1 501 0 discriminator 3
 3364 07b0 97F85930 		ldrb	r3, [r7, #89]	@ zero_extendqisi2
 3365 07b4 8D4A     		ldr	r2, .L247+12
 3366 07b6 D35C     		ldrb	r3, [r2, r3]	@ zero_extendqisi2
 3367 07b8 1846     		mov	r0, r3
 3368 07ba FFF7FEFF 		bl	UART_3_PutChar
 500:printer.c     ****         UART_3_PutChar(msn_dif[x]);
 3369              		.loc 1 500 0 discriminator 3
ARM GAS  C:\Users\Lenovo\AppData\Local\Temp\ccVx5qP5.s 			page 74


 3370 07be 97F85930 		ldrb	r3, [r7, #89]	@ zero_extendqisi2
 3371 07c2 0133     		adds	r3, r3, #1
 3372 07c4 87F85930 		strb	r3, [r7, #89]
 3373              	.L183:
 500:printer.c     ****         UART_3_PutChar(msn_dif[x]);
 3374              		.loc 1 500 0 is_stmt 0 discriminator 1
 3375 07c8 97F85930 		ldrb	r3, [r7, #89]	@ zero_extendqisi2
 3376 07cc 112B     		cmp	r3, #17
 3377 07ce EFD9     		bls	.L184
 3378              	.LBE80:
 502:printer.c     ****     }
 503:printer.c     ****     UART_3_PutChar(LINE_FEED);
 3379              		.loc 1 503 0 is_stmt 1
 3380 07d0 844B     		ldr	r3, .L247+4
 3381 07d2 1B78     		ldrb	r3, [r3]	@ zero_extendqisi2
 3382 07d4 1846     		mov	r0, r3
 3383 07d6 FFF7FEFF 		bl	UART_3_PutChar
 3384              	.LBB81:
 504:printer.c     ****     for(uint8 x = 0; x < 10; x ++){
 3385              		.loc 1 504 0
 3386 07da 0023     		movs	r3, #0
 3387 07dc 87F85830 		strb	r3, [r7, #88]
 3388 07e0 19E0     		b	.L185
 3389              	.L187:
 505:printer.c     ****         if((10-x) == DecVol)
 3390              		.loc 1 505 0
 3391 07e2 97F85830 		ldrb	r3, [r7, #88]	@ zero_extendqisi2
 3392 07e6 C3F10A03 		rsb	r3, r3, #10
 3393 07ea 7D4A     		ldr	r2, .L247
 3394 07ec 1278     		ldrb	r2, [r2]	@ zero_extendqisi2
 3395 07ee 9342     		cmp	r3, r2
 3396 07f0 02D1     		bne	.L186
 506:printer.c     ****             UART_3_PutChar('.');
 3397              		.loc 1 506 0
 3398 07f2 2E20     		movs	r0, #46
 3399 07f4 FFF7FEFF 		bl	UART_3_PutChar
 3400              	.L186:
 507:printer.c     ****         UART_3_PutChar(resultado[x]);
 3401              		.loc 1 507 0 discriminator 2
 3402 07f8 97F85830 		ldrb	r3, [r7, #88]	@ zero_extendqisi2
 3403 07fc 07F17002 		add	r2, r7, #112
 3404 0800 1344     		add	r3, r3, r2
 3405 0802 13F8703C 		ldrb	r3, [r3, #-112]	@ zero_extendqisi2
 3406 0806 1846     		mov	r0, r3
 3407 0808 FFF7FEFF 		bl	UART_3_PutChar
 504:printer.c     ****         if((10-x) == DecVol)
 3408              		.loc 1 504 0 discriminator 2
 3409 080c 97F85830 		ldrb	r3, [r7, #88]	@ zero_extendqisi2
 3410 0810 0133     		adds	r3, r3, #1
 3411 0812 87F85830 		strb	r3, [r7, #88]
 3412              	.L185:
 504:printer.c     ****         if((10-x) == DecVol)
 3413              		.loc 1 504 0 is_stmt 0 discriminator 1
 3414 0816 97F85830 		ldrb	r3, [r7, #88]	@ zero_extendqisi2
 3415 081a 092B     		cmp	r3, #9
 3416 081c E1D9     		bls	.L187
 3417              	.LBE81:
ARM GAS  C:\Users\Lenovo\AppData\Local\Temp\ccVx5qP5.s 			page 75


 508:printer.c     ****     }
 509:printer.c     ****     UART_3_PutChar(LINE_FEED);
 3418              		.loc 1 509 0 is_stmt 1
 3419 081e 714B     		ldr	r3, .L247+4
 3420 0820 1B78     		ldrb	r3, [r3]	@ zero_extendqisi2
 3421 0822 1846     		mov	r0, r3
 3422 0824 FFF7FEFF 		bl	UART_3_PutChar
 3423              	.LBB82:
 510:printer.c     ****     for(uint8 x = 0; x < 24; x ++){
 3424              		.loc 1 510 0
 3425 0828 0023     		movs	r3, #0
 3426 082a 87F85730 		strb	r3, [r7, #87]
 3427 082e 0BE0     		b	.L188
 3428              	.L189:
 511:printer.c     ****         UART_3_PutChar(SEPARATOR[x]);
 3429              		.loc 1 511 0 discriminator 3
 3430 0830 97F85730 		ldrb	r3, [r7, #87]	@ zero_extendqisi2
 3431 0834 6E4A     		ldr	r2, .L247+16
 3432 0836 D35C     		ldrb	r3, [r2, r3]	@ zero_extendqisi2
 3433 0838 1846     		mov	r0, r3
 3434 083a FFF7FEFF 		bl	UART_3_PutChar
 510:printer.c     ****     for(uint8 x = 0; x < 24; x ++){
 3435              		.loc 1 510 0 discriminator 3
 3436 083e 97F85730 		ldrb	r3, [r7, #87]	@ zero_extendqisi2
 3437 0842 0133     		adds	r3, r3, #1
 3438 0844 87F85730 		strb	r3, [r7, #87]
 3439              	.L188:
 510:printer.c     ****     for(uint8 x = 0; x < 24; x ++){
 3440              		.loc 1 510 0 is_stmt 0 discriminator 1
 3441 0848 97F85730 		ldrb	r3, [r7, #87]	@ zero_extendqisi2
 3442 084c 172B     		cmp	r3, #23
 3443 084e EFD9     		bls	.L189
 3444              	.LBE82:
 512:printer.c     ****     }  
 513:printer.c     ****     UART_3_PutChar(LINE_FEED);
 3445              		.loc 1 513 0 is_stmt 1
 3446 0850 644B     		ldr	r3, .L247+4
 3447 0852 1B78     		ldrb	r3, [r3]	@ zero_extendqisi2
 3448 0854 1846     		mov	r0, r3
 3449 0856 FFF7FEFF 		bl	UART_3_PutChar
 3450              	.LBB83:
 514:printer.c     ****     for(uint8 x = 0; x < 13; x ++){
 3451              		.loc 1 514 0
 3452 085a 0023     		movs	r3, #0
 3453 085c 87F85630 		strb	r3, [r7, #86]
 3454 0860 0BE0     		b	.L190
 3455              	.L191:
 515:printer.c     ****         UART_3_PutChar(msn_pos[x]);
 3456              		.loc 1 515 0 discriminator 3
 3457 0862 97F85630 		ldrb	r3, [r7, #86]	@ zero_extendqisi2
 3458 0866 634A     		ldr	r2, .L247+20
 3459 0868 D35C     		ldrb	r3, [r2, r3]	@ zero_extendqisi2
 3460 086a 1846     		mov	r0, r3
 3461 086c FFF7FEFF 		bl	UART_3_PutChar
 514:printer.c     ****     for(uint8 x = 0; x < 13; x ++){
 3462              		.loc 1 514 0 discriminator 3
 3463 0870 97F85630 		ldrb	r3, [r7, #86]	@ zero_extendqisi2
ARM GAS  C:\Users\Lenovo\AppData\Local\Temp\ccVx5qP5.s 			page 76


 3464 0874 0133     		adds	r3, r3, #1
 3465 0876 87F85630 		strb	r3, [r7, #86]
 3466              	.L190:
 514:printer.c     ****     for(uint8 x = 0; x < 13; x ++){
 3467              		.loc 1 514 0 is_stmt 0 discriminator 1
 3468 087a 97F85630 		ldrb	r3, [r7, #86]	@ zero_extendqisi2
 3469 087e 0C2B     		cmp	r3, #12
 3470 0880 EFD9     		bls	.L191
 3471              	.LBE83:
 516:printer.c     ****     }
 517:printer.c     ****     UART_3_PutChar(side.b.dir + 0x31);
 3472              		.loc 1 517 0 is_stmt 1
 3473 0882 594B     		ldr	r3, .L247+8
 3474 0884 93F82B31 		ldrb	r3, [r3, #299]	@ zero_extendqisi2
 3475 0888 3133     		adds	r3, r3, #49
 3476 088a DBB2     		uxtb	r3, r3
 3477 088c 1846     		mov	r0, r3
 3478 088e FFF7FEFF 		bl	UART_3_PutChar
 518:printer.c     ****     UART_3_PutChar(LINE_FEED);
 3479              		.loc 1 518 0
 3480 0892 544B     		ldr	r3, .L247+4
 3481 0894 1B78     		ldrb	r3, [r3]	@ zero_extendqisi2
 3482 0896 1846     		mov	r0, r3
 3483 0898 FFF7FEFF 		bl	UART_3_PutChar
 3484              	.LBB84:
 519:printer.c     ****     for(uint8 x = 0; x < 16; x ++){
 3485              		.loc 1 519 0
 3486 089c 0023     		movs	r3, #0
 3487 089e 87F85530 		strb	r3, [r7, #85]
 3488 08a2 0BE0     		b	.L192
 3489              	.L193:
 520:printer.c     **** 		UART_3_PutChar(msn_lecact[x]);
 3490              		.loc 1 520 0 discriminator 3
 3491 08a4 97F85530 		ldrb	r3, [r7, #85]	@ zero_extendqisi2
 3492 08a8 534A     		ldr	r2, .L247+24
 3493 08aa D35C     		ldrb	r3, [r2, r3]	@ zero_extendqisi2
 3494 08ac 1846     		mov	r0, r3
 3495 08ae FFF7FEFF 		bl	UART_3_PutChar
 519:printer.c     ****     for(uint8 x = 0; x < 16; x ++){
 3496              		.loc 1 519 0 discriminator 3
 3497 08b2 97F85530 		ldrb	r3, [r7, #85]	@ zero_extendqisi2
 3498 08b6 0133     		adds	r3, r3, #1
 3499 08b8 87F85530 		strb	r3, [r7, #85]
 3500              	.L192:
 519:printer.c     ****     for(uint8 x = 0; x < 16; x ++){
 3501              		.loc 1 519 0 is_stmt 0 discriminator 1
 3502 08bc 97F85530 		ldrb	r3, [r7, #85]	@ zero_extendqisi2
 3503 08c0 0F2B     		cmp	r3, #15
 3504 08c2 EFD9     		bls	.L193
 3505              	.LBE84:
 521:printer.c     **** 	}
 522:printer.c     **** 	UART_3_PutChar(LINE_FEED);
 3506              		.loc 1 522 0 is_stmt 1
 3507 08c4 474B     		ldr	r3, .L247+4
 3508 08c6 1B78     		ldrb	r3, [r3]	@ zero_extendqisi2
 3509 08c8 1846     		mov	r0, r3
 3510 08ca FFF7FEFF 		bl	UART_3_PutChar
ARM GAS  C:\Users\Lenovo\AppData\Local\Temp\ccVx5qP5.s 			page 77


 3511              	.LBB85:
 523:printer.c     ****     for(uint8 x = 0; x < 10; x ++){ 
 3512              		.loc 1 523 0
 3513 08ce 0023     		movs	r3, #0
 3514 08d0 87F85430 		strb	r3, [r7, #84]
 3515 08d4 18E0     		b	.L194
 3516              	.L196:
 524:printer.c     ****         if((10-x) == DecVol)
 3517              		.loc 1 524 0
 3518 08d6 97F85430 		ldrb	r3, [r7, #84]	@ zero_extendqisi2
 3519 08da C3F10A03 		rsb	r3, r3, #10
 3520 08de 404A     		ldr	r2, .L247
 3521 08e0 1278     		ldrb	r2, [r2]	@ zero_extendqisi2
 3522 08e2 9342     		cmp	r3, r2
 3523 08e4 02D1     		bne	.L195
 525:printer.c     ****             UART_3_PutChar('.');
 3524              		.loc 1 525 0
 3525 08e6 2E20     		movs	r0, #46
 3526 08e8 FFF7FEFF 		bl	UART_3_PutChar
 3527              	.L195:
 526:printer.c     ****         UART_3_PutChar(side.b.ProcessedTotals[0][0][x]);
 3528              		.loc 1 526 0 discriminator 2
 3529 08ec 97F85430 		ldrb	r3, [r7, #84]	@ zero_extendqisi2
 3530 08f0 3D4A     		ldr	r2, .L247+8
 3531 08f2 1344     		add	r3, r3, r2
 3532 08f4 93F8AE31 		ldrb	r3, [r3, #430]	@ zero_extendqisi2
 3533 08f8 1846     		mov	r0, r3
 3534 08fa FFF7FEFF 		bl	UART_3_PutChar
 523:printer.c     ****         if((10-x) == DecVol)
 3535              		.loc 1 523 0 discriminator 2
 3536 08fe 97F85430 		ldrb	r3, [r7, #84]	@ zero_extendqisi2
 3537 0902 0133     		adds	r3, r3, #1
 3538 0904 87F85430 		strb	r3, [r7, #84]
 3539              	.L194:
 523:printer.c     ****         if((10-x) == DecVol)
 3540              		.loc 1 523 0 is_stmt 0 discriminator 1
 3541 0908 97F85430 		ldrb	r3, [r7, #84]	@ zero_extendqisi2
 3542 090c 092B     		cmp	r3, #9
 3543 090e E2D9     		bls	.L196
 3544              	.LBE85:
 527:printer.c     ****     }
 528:printer.c     ****     UART_3_PutChar(LINE_FEED);
 3545              		.loc 1 528 0 is_stmt 1
 3546 0910 344B     		ldr	r3, .L247+4
 3547 0912 1B78     		ldrb	r3, [r3]	@ zero_extendqisi2
 3548 0914 1846     		mov	r0, r3
 3549 0916 FFF7FEFF 		bl	UART_3_PutChar
 3550              	.LBB86:
 529:printer.c     **** 	for(uint8 x = 0; x < 16; x ++){
 3551              		.loc 1 529 0
 3552 091a 0023     		movs	r3, #0
 3553 091c 87F85330 		strb	r3, [r7, #83]
 3554 0920 0BE0     		b	.L197
 3555              	.L198:
 530:printer.c     **** 		UART_3_PutChar(msn_lecaan[x]);
 3556              		.loc 1 530 0 discriminator 3
 3557 0922 97F85330 		ldrb	r3, [r7, #83]	@ zero_extendqisi2
ARM GAS  C:\Users\Lenovo\AppData\Local\Temp\ccVx5qP5.s 			page 78


 3558 0926 354A     		ldr	r2, .L247+28
 3559 0928 D35C     		ldrb	r3, [r2, r3]	@ zero_extendqisi2
 3560 092a 1846     		mov	r0, r3
 3561 092c FFF7FEFF 		bl	UART_3_PutChar
 529:printer.c     **** 	for(uint8 x = 0; x < 16; x ++){
 3562              		.loc 1 529 0 discriminator 3
 3563 0930 97F85330 		ldrb	r3, [r7, #83]	@ zero_extendqisi2
 3564 0934 0133     		adds	r3, r3, #1
 3565 0936 87F85330 		strb	r3, [r7, #83]
 3566              	.L197:
 529:printer.c     **** 	for(uint8 x = 0; x < 16; x ++){
 3567              		.loc 1 529 0 is_stmt 0 discriminator 1
 3568 093a 97F85330 		ldrb	r3, [r7, #83]	@ zero_extendqisi2
 3569 093e 0F2B     		cmp	r3, #15
 3570 0940 EFD9     		bls	.L198
 3571              	.LBE86:
 531:printer.c     **** 	}
 532:printer.c     ****     UART_3_PutChar(LINE_FEED);
 3572              		.loc 1 532 0 is_stmt 1
 3573 0942 284B     		ldr	r3, .L247+4
 3574 0944 1B78     		ldrb	r3, [r3]	@ zero_extendqisi2
 3575 0946 1846     		mov	r0, r3
 3576 0948 FFF7FEFF 		bl	UART_3_PutChar
 3577              	.LBB87:
 533:printer.c     ****     for(uint8 x = 0; x < 10; x ++){
 3578              		.loc 1 533 0
 3579 094c 0023     		movs	r3, #0
 3580 094e 87F85230 		strb	r3, [r7, #82]
 3581 0952 15E0     		b	.L199
 3582              	.L200:
 534:printer.c     ****         memoria[x] = EEPROM_1_ReadByte(46+x);
 3583              		.loc 1 534 0 discriminator 3
 3584 0954 97F85240 		ldrb	r4, [r7, #82]	@ zero_extendqisi2
 3585 0958 97F85230 		ldrb	r3, [r7, #82]	@ zero_extendqisi2
 3586 095c 9BB2     		uxth	r3, r3
 3587 095e 2E33     		adds	r3, r3, #46
 3588 0960 9BB2     		uxth	r3, r3
 3589 0962 1846     		mov	r0, r3
 3590 0964 FFF7FEFF 		bl	EEPROM_1_ReadByte
 3591 0968 0346     		mov	r3, r0
 3592 096a 1A46     		mov	r2, r3
 3593 096c 07F17003 		add	r3, r7, #112
 3594 0970 2344     		add	r3, r3, r4
 3595 0972 03F8642C 		strb	r2, [r3, #-100]
 533:printer.c     ****     for(uint8 x = 0; x < 10; x ++){
 3596              		.loc 1 533 0 discriminator 3
 3597 0976 97F85230 		ldrb	r3, [r7, #82]	@ zero_extendqisi2
 3598 097a 0133     		adds	r3, r3, #1
 3599 097c 87F85230 		strb	r3, [r7, #82]
 3600              	.L199:
 533:printer.c     ****     for(uint8 x = 0; x < 10; x ++){
 3601              		.loc 1 533 0 is_stmt 0 discriminator 1
 3602 0980 97F85230 		ldrb	r3, [r7, #82]	@ zero_extendqisi2
 3603 0984 092B     		cmp	r3, #9
 3604 0986 E5D9     		bls	.L200
 3605              	.LBE87:
 3606              	.LBB88:
ARM GAS  C:\Users\Lenovo\AppData\Local\Temp\ccVx5qP5.s 			page 79


 535:printer.c     ****     }
 536:printer.c     ****     for(uint8 x = 0; x < 10; x ++){ 
 3607              		.loc 1 536 0 is_stmt 1
 3608 0988 0023     		movs	r3, #0
 3609 098a 87F85130 		strb	r3, [r7, #81]
 3610 098e 19E0     		b	.L201
 3611              	.L203:
 537:printer.c     ****         if((10-x) == DecVol)
 3612              		.loc 1 537 0
 3613 0990 97F85130 		ldrb	r3, [r7, #81]	@ zero_extendqisi2
 3614 0994 C3F10A03 		rsb	r3, r3, #10
 3615 0998 114A     		ldr	r2, .L247
 3616 099a 1278     		ldrb	r2, [r2]	@ zero_extendqisi2
 3617 099c 9342     		cmp	r3, r2
 3618 099e 02D1     		bne	.L202
 538:printer.c     ****             UART_3_PutChar('.');
 3619              		.loc 1 538 0
 3620 09a0 2E20     		movs	r0, #46
 3621 09a2 FFF7FEFF 		bl	UART_3_PutChar
 3622              	.L202:
 539:printer.c     ****         UART_3_PutChar(memoria[x]);
 3623              		.loc 1 539 0 discriminator 2
 3624 09a6 97F85130 		ldrb	r3, [r7, #81]	@ zero_extendqisi2
 3625 09aa 07F17002 		add	r2, r7, #112
 3626 09ae 1344     		add	r3, r3, r2
 3627 09b0 13F8643C 		ldrb	r3, [r3, #-100]	@ zero_extendqisi2
 3628 09b4 1846     		mov	r0, r3
 3629 09b6 FFF7FEFF 		bl	UART_3_PutChar
 536:printer.c     ****         if((10-x) == DecVol)
 3630              		.loc 1 536 0 discriminator 2
 3631 09ba 97F85130 		ldrb	r3, [r7, #81]	@ zero_extendqisi2
 3632 09be 0133     		adds	r3, r3, #1
 3633 09c0 87F85130 		strb	r3, [r7, #81]
 3634              	.L201:
 536:printer.c     ****         if((10-x) == DecVol)
 3635              		.loc 1 536 0 is_stmt 0 discriminator 1
 3636 09c4 97F85130 		ldrb	r3, [r7, #81]	@ zero_extendqisi2
 3637 09c8 092B     		cmp	r3, #9
 3638 09ca E1D9     		bls	.L203
 3639              	.LBE88:
 540:printer.c     ****     }
 541:printer.c     ****     UART_3_PutChar(LINE_FEED);
 3640              		.loc 1 541 0 is_stmt 1
 3641 09cc 054B     		ldr	r3, .L247+4
 3642 09ce 1B78     		ldrb	r3, [r3]	@ zero_extendqisi2
 3643 09d0 1846     		mov	r0, r3
 3644 09d2 FFF7FEFF 		bl	UART_3_PutChar
 3645              	.LBB89:
 542:printer.c     ****     for(uint8 x = pos; x < 10; x++ ){
 3646              		.loc 1 542 0
 3647 09d6 97F86F30 		ldrb	r3, [r7, #111]
 3648 09da 87F85030 		strb	r3, [r7, #80]
 3649 09de 3DE0     		b	.L204
 3650              	.L248:
 3651              		.align	2
 3652              	.L247:
 3653 09e0 00000000 		.word	DecVol
ARM GAS  C:\Users\Lenovo\AppData\Local\Temp\ccVx5qP5.s 			page 80


 3654 09e4 00000000 		.word	LINE_FEED
 3655 09e8 00000000 		.word	side
 3656 09ec 00000000 		.word	msn_dif
 3657 09f0 00000000 		.word	SEPARATOR
 3658 09f4 00000000 		.word	msn_pos
 3659 09f8 00000000 		.word	msn_lecact
 3660 09fc 00000000 		.word	msn_lecaan
 3661              	.L205:
 543:printer.c     ****         lectactual[x-pos] = side.b.ProcessedTotals[0][0][x];
 3662              		.loc 1 543 0 discriminator 3
 3663 0a00 97F85020 		ldrb	r2, [r7, #80]	@ zero_extendqisi2
 3664 0a04 97F86F30 		ldrb	r3, [r7, #111]	@ zero_extendqisi2
 3665 0a08 D31A     		subs	r3, r2, r3
 3666 0a0a 97F85020 		ldrb	r2, [r7, #80]	@ zero_extendqisi2
 3667 0a0e C949     		ldr	r1, .L249
 3668 0a10 0A44     		add	r2, r2, r1
 3669 0a12 92F8AE21 		ldrb	r2, [r2, #430]	@ zero_extendqisi2
 3670 0a16 07F17001 		add	r1, r7, #112
 3671 0a1a 0B44     		add	r3, r3, r1
 3672 0a1c 03F8582C 		strb	r2, [r3, #-88]
 544:printer.c     ****         lectanterior[x-pos] = memoria[x];
 3673              		.loc 1 544 0 discriminator 3
 3674 0a20 97F85020 		ldrb	r2, [r7, #80]	@ zero_extendqisi2
 3675 0a24 97F86F30 		ldrb	r3, [r7, #111]	@ zero_extendqisi2
 3676 0a28 D31A     		subs	r3, r2, r3
 3677 0a2a 97F85020 		ldrb	r2, [r7, #80]	@ zero_extendqisi2
 3678 0a2e 07F17001 		add	r1, r7, #112
 3679 0a32 0A44     		add	r2, r2, r1
 3680 0a34 12F8642C 		ldrb	r2, [r2, #-100]	@ zero_extendqisi2
 3681 0a38 07F17001 		add	r1, r7, #112
 3682 0a3c 0B44     		add	r3, r3, r1
 3683 0a3e 03F84C2C 		strb	r2, [r3, #-76]
 545:printer.c     ****         resultado[x] = 0x00;
 3684              		.loc 1 545 0 discriminator 3
 3685 0a42 97F85030 		ldrb	r3, [r7, #80]	@ zero_extendqisi2
 3686 0a46 07F17002 		add	r2, r7, #112
 3687 0a4a 1344     		add	r3, r3, r2
 3688 0a4c 0022     		movs	r2, #0
 3689 0a4e 03F8702C 		strb	r2, [r3, #-112]
 542:printer.c     ****         lectactual[x-pos] = side.b.ProcessedTotals[0][0][x];
 3690              		.loc 1 542 0 discriminator 3
 3691 0a52 97F85030 		ldrb	r3, [r7, #80]	@ zero_extendqisi2
 3692 0a56 0133     		adds	r3, r3, #1
 3693 0a58 87F85030 		strb	r3, [r7, #80]
 3694              	.L204:
 542:printer.c     ****         lectactual[x-pos] = side.b.ProcessedTotals[0][0][x];
 3695              		.loc 1 542 0 is_stmt 0 discriminator 1
 3696 0a5c 97F85030 		ldrb	r3, [r7, #80]	@ zero_extendqisi2
 3697 0a60 092B     		cmp	r3, #9
 3698 0a62 CDD9     		bls	.L205
 3699              	.LBE89:
 546:printer.c     ****     }
 547:printer.c     ****     
 548:printer.c     ****     anterior = atoi(lectanterior);
 3700              		.loc 1 548 0 is_stmt 1
 3701 0a64 07F12403 		add	r3, r7, #36
 3702 0a68 1846     		mov	r0, r3
ARM GAS  C:\Users\Lenovo\AppData\Local\Temp\ccVx5qP5.s 			page 81


 3703 0a6a FFF7FEFF 		bl	atoi
 3704 0a6e 0346     		mov	r3, r0
 3705 0a70 BB63     		str	r3, [r7, #56]
 549:printer.c     ****     actual = atoi(lectactual);
 3706              		.loc 1 549 0
 3707 0a72 07F11803 		add	r3, r7, #24
 3708 0a76 1846     		mov	r0, r3
 3709 0a78 FFF7FEFF 		bl	atoi
 3710 0a7c 0346     		mov	r3, r0
 3711 0a7e 7B63     		str	r3, [r7, #52]
 550:printer.c     ****     resta =  actual - anterior;
 3712              		.loc 1 550 0
 3713 0a80 7A6B     		ldr	r2, [r7, #52]
 3714 0a82 BB6B     		ldr	r3, [r7, #56]
 3715 0a84 D31A     		subs	r3, r2, r3
 3716 0a86 3B63     		str	r3, [r7, #48]
 551:printer.c     ****     itoa(resta,resultado,10);
 3717              		.loc 1 551 0
 3718 0a88 3B6B     		ldr	r3, [r7, #48]
 3719 0a8a 3946     		mov	r1, r7
 3720 0a8c 0A22     		movs	r2, #10
 3721 0a8e 1846     		mov	r0, r3
 3722 0a90 FFF7FEFF 		bl	itoa
 3723              	.LBB90:
 552:printer.c     ****     for(uint8 x = 0; x < 18; x ++){
 3724              		.loc 1 552 0
 3725 0a94 0023     		movs	r3, #0
 3726 0a96 87F84F30 		strb	r3, [r7, #79]
 3727 0a9a 0BE0     		b	.L206
 3728              	.L207:
 553:printer.c     ****         UART_3_PutChar(msn_dif[x]);
 3729              		.loc 1 553 0 discriminator 3
 3730 0a9c 97F84F30 		ldrb	r3, [r7, #79]	@ zero_extendqisi2
 3731 0aa0 A54A     		ldr	r2, .L249+4
 3732 0aa2 D35C     		ldrb	r3, [r2, r3]	@ zero_extendqisi2
 3733 0aa4 1846     		mov	r0, r3
 3734 0aa6 FFF7FEFF 		bl	UART_3_PutChar
 552:printer.c     ****     for(uint8 x = 0; x < 18; x ++){
 3735              		.loc 1 552 0 discriminator 3
 3736 0aaa 97F84F30 		ldrb	r3, [r7, #79]	@ zero_extendqisi2
 3737 0aae 0133     		adds	r3, r3, #1
 3738 0ab0 87F84F30 		strb	r3, [r7, #79]
 3739              	.L206:
 552:printer.c     ****     for(uint8 x = 0; x < 18; x ++){
 3740              		.loc 1 552 0 is_stmt 0 discriminator 1
 3741 0ab4 97F84F30 		ldrb	r3, [r7, #79]	@ zero_extendqisi2
 3742 0ab8 112B     		cmp	r3, #17
 3743 0aba EFD9     		bls	.L207
 3744              	.LBE90:
 554:printer.c     ****     }
 555:printer.c     ****     UART_3_PutChar(LINE_FEED);
 3745              		.loc 1 555 0 is_stmt 1
 3746 0abc 9F4B     		ldr	r3, .L249+8
 3747 0abe 1B78     		ldrb	r3, [r3]	@ zero_extendqisi2
 3748 0ac0 1846     		mov	r0, r3
 3749 0ac2 FFF7FEFF 		bl	UART_3_PutChar
 3750              	.LBB91:
ARM GAS  C:\Users\Lenovo\AppData\Local\Temp\ccVx5qP5.s 			page 82


 556:printer.c     ****     for(uint8 x = 0; x < 10; x ++){
 3751              		.loc 1 556 0
 3752 0ac6 0023     		movs	r3, #0
 3753 0ac8 87F84E30 		strb	r3, [r7, #78]
 3754 0acc 19E0     		b	.L208
 3755              	.L210:
 557:printer.c     ****         if((10-x) == DecVol)
 3756              		.loc 1 557 0
 3757 0ace 97F84E30 		ldrb	r3, [r7, #78]	@ zero_extendqisi2
 3758 0ad2 C3F10A03 		rsb	r3, r3, #10
 3759 0ad6 9A4A     		ldr	r2, .L249+12
 3760 0ad8 1278     		ldrb	r2, [r2]	@ zero_extendqisi2
 3761 0ada 9342     		cmp	r3, r2
 3762 0adc 02D1     		bne	.L209
 558:printer.c     ****             UART_3_PutChar('.');
 3763              		.loc 1 558 0
 3764 0ade 2E20     		movs	r0, #46
 3765 0ae0 FFF7FEFF 		bl	UART_3_PutChar
 3766              	.L209:
 559:printer.c     ****         UART_3_PutChar(resultado[x]);
 3767              		.loc 1 559 0 discriminator 2
 3768 0ae4 97F84E30 		ldrb	r3, [r7, #78]	@ zero_extendqisi2
 3769 0ae8 07F17002 		add	r2, r7, #112
 3770 0aec 1344     		add	r3, r3, r2
 3771 0aee 13F8703C 		ldrb	r3, [r3, #-112]	@ zero_extendqisi2
 3772 0af2 1846     		mov	r0, r3
 3773 0af4 FFF7FEFF 		bl	UART_3_PutChar
 556:printer.c     ****         if((10-x) == DecVol)
 3774              		.loc 1 556 0 discriminator 2
 3775 0af8 97F84E30 		ldrb	r3, [r7, #78]	@ zero_extendqisi2
 3776 0afc 0133     		adds	r3, r3, #1
 3777 0afe 87F84E30 		strb	r3, [r7, #78]
 3778              	.L208:
 556:printer.c     ****         if((10-x) == DecVol)
 3779              		.loc 1 556 0 is_stmt 0 discriminator 1
 3780 0b02 97F84E30 		ldrb	r3, [r7, #78]	@ zero_extendqisi2
 3781 0b06 092B     		cmp	r3, #9
 3782 0b08 E1D9     		bls	.L210
 3783              	.LBE91:
 560:printer.c     ****     }
 561:printer.c     ****     UART_3_PutChar(LINE_FEED);
 3784              		.loc 1 561 0 is_stmt 1
 3785 0b0a 8C4B     		ldr	r3, .L249+8
 3786 0b0c 1B78     		ldrb	r3, [r3]	@ zero_extendqisi2
 3787 0b0e 1846     		mov	r0, r3
 3788 0b10 FFF7FEFF 		bl	UART_3_PutChar
 562:printer.c     ****     
 563:printer.c     ****     if((Positions-1)>= 3){
 3789              		.loc 1 563 0
 3790 0b14 8B4B     		ldr	r3, .L249+16
 3791 0b16 1B78     		ldrb	r3, [r3]	@ zero_extendqisi2
 3792 0b18 013B     		subs	r3, r3, #1
 3793 0b1a 022B     		cmp	r3, #2
 3794 0b1c 40F30681 		ble	.L211
 3795              	.LBB92:
 564:printer.c     ****         for(uint8 x = 0; x < 24; x ++){
 3796              		.loc 1 564 0
ARM GAS  C:\Users\Lenovo\AppData\Local\Temp\ccVx5qP5.s 			page 83


 3797 0b20 0023     		movs	r3, #0
 3798 0b22 87F84D30 		strb	r3, [r7, #77]
 3799 0b26 0BE0     		b	.L212
 3800              	.L213:
 565:printer.c     ****             UART_3_PutChar(SEPARATOR[x]);
 3801              		.loc 1 565 0 discriminator 3
 3802 0b28 97F84D30 		ldrb	r3, [r7, #77]	@ zero_extendqisi2
 3803 0b2c 864A     		ldr	r2, .L249+20
 3804 0b2e D35C     		ldrb	r3, [r2, r3]	@ zero_extendqisi2
 3805 0b30 1846     		mov	r0, r3
 3806 0b32 FFF7FEFF 		bl	UART_3_PutChar
 564:printer.c     ****         for(uint8 x = 0; x < 24; x ++){
 3807              		.loc 1 564 0 discriminator 3
 3808 0b36 97F84D30 		ldrb	r3, [r7, #77]	@ zero_extendqisi2
 3809 0b3a 0133     		adds	r3, r3, #1
 3810 0b3c 87F84D30 		strb	r3, [r7, #77]
 3811              	.L212:
 564:printer.c     ****         for(uint8 x = 0; x < 24; x ++){
 3812              		.loc 1 564 0 is_stmt 0 discriminator 1
 3813 0b40 97F84D30 		ldrb	r3, [r7, #77]	@ zero_extendqisi2
 3814 0b44 172B     		cmp	r3, #23
 3815 0b46 EFD9     		bls	.L213
 3816              	.LBE92:
 566:printer.c     ****         }           
 567:printer.c     ****         UART_3_PutChar(LINE_FEED);
 3817              		.loc 1 567 0 is_stmt 1
 3818 0b48 7C4B     		ldr	r3, .L249+8
 3819 0b4a 1B78     		ldrb	r3, [r3]	@ zero_extendqisi2
 3820 0b4c 1846     		mov	r0, r3
 3821 0b4e FFF7FEFF 		bl	UART_3_PutChar
 3822              	.LBB93:
 568:printer.c     ****         for(uint8 x = 0; x < 13; x ++){
 3823              		.loc 1 568 0
 3824 0b52 0023     		movs	r3, #0
 3825 0b54 87F84C30 		strb	r3, [r7, #76]
 3826 0b58 0BE0     		b	.L214
 3827              	.L215:
 569:printer.c     ****             UART_3_PutChar(msn_pos[x]);
 3828              		.loc 1 569 0 discriminator 3
 3829 0b5a 97F84C30 		ldrb	r3, [r7, #76]	@ zero_extendqisi2
 3830 0b5e 7B4A     		ldr	r2, .L249+24
 3831 0b60 D35C     		ldrb	r3, [r2, r3]	@ zero_extendqisi2
 3832 0b62 1846     		mov	r0, r3
 3833 0b64 FFF7FEFF 		bl	UART_3_PutChar
 568:printer.c     ****         for(uint8 x = 0; x < 13; x ++){
 3834              		.loc 1 568 0 discriminator 3
 3835 0b68 97F84C30 		ldrb	r3, [r7, #76]	@ zero_extendqisi2
 3836 0b6c 0133     		adds	r3, r3, #1
 3837 0b6e 87F84C30 		strb	r3, [r7, #76]
 3838              	.L214:
 568:printer.c     ****         for(uint8 x = 0; x < 13; x ++){
 3839              		.loc 1 568 0 is_stmt 0 discriminator 1
 3840 0b72 97F84C30 		ldrb	r3, [r7, #76]	@ zero_extendqisi2
 3841 0b76 0C2B     		cmp	r3, #12
 3842 0b78 EFD9     		bls	.L215
 3843              	.LBE93:
 570:printer.c     ****         }
ARM GAS  C:\Users\Lenovo\AppData\Local\Temp\ccVx5qP5.s 			page 84


 571:printer.c     ****         UART_3_PutChar(side.c.dir + 0x31);
 3844              		.loc 1 571 0 is_stmt 1
 3845 0b7a 6E4B     		ldr	r3, .L249
 3846 0b7c 93F85632 		ldrb	r3, [r3, #598]	@ zero_extendqisi2
 3847 0b80 3133     		adds	r3, r3, #49
 3848 0b82 DBB2     		uxtb	r3, r3
 3849 0b84 1846     		mov	r0, r3
 3850 0b86 FFF7FEFF 		bl	UART_3_PutChar
 572:printer.c     ****         UART_3_PutChar(LINE_FEED);              
 3851              		.loc 1 572 0
 3852 0b8a 6C4B     		ldr	r3, .L249+8
 3853 0b8c 1B78     		ldrb	r3, [r3]	@ zero_extendqisi2
 3854 0b8e 1846     		mov	r0, r3
 3855 0b90 FFF7FEFF 		bl	UART_3_PutChar
 3856              	.LBB94:
 573:printer.c     ****         for(uint8 x = 0; x < 10; x ++){ 
 3857              		.loc 1 573 0
 3858 0b94 0023     		movs	r3, #0
 3859 0b96 87F84B30 		strb	r3, [r7, #75]
 3860 0b9a 18E0     		b	.L216
 3861              	.L218:
 574:printer.c     ****             if((10-x) == DecVol)
 3862              		.loc 1 574 0
 3863 0b9c 97F84B30 		ldrb	r3, [r7, #75]	@ zero_extendqisi2
 3864 0ba0 C3F10A03 		rsb	r3, r3, #10
 3865 0ba4 664A     		ldr	r2, .L249+12
 3866 0ba6 1278     		ldrb	r2, [r2]	@ zero_extendqisi2
 3867 0ba8 9342     		cmp	r3, r2
 3868 0baa 02D1     		bne	.L217
 575:printer.c     ****                 UART_3_PutChar('.');
 3869              		.loc 1 575 0
 3870 0bac 2E20     		movs	r0, #46
 3871 0bae FFF7FEFF 		bl	UART_3_PutChar
 3872              	.L217:
 576:printer.c     ****             UART_3_PutChar(side.c.ProcessedTotals[0][0][x]);
 3873              		.loc 1 576 0 discriminator 2
 3874 0bb2 97F84B30 		ldrb	r3, [r7, #75]	@ zero_extendqisi2
 3875 0bb6 5F4A     		ldr	r2, .L249
 3876 0bb8 1344     		add	r3, r3, r2
 3877 0bba 93F8D932 		ldrb	r3, [r3, #729]	@ zero_extendqisi2
 3878 0bbe 1846     		mov	r0, r3
 3879 0bc0 FFF7FEFF 		bl	UART_3_PutChar
 573:printer.c     ****             if((10-x) == DecVol)
 3880              		.loc 1 573 0 discriminator 2
 3881 0bc4 97F84B30 		ldrb	r3, [r7, #75]	@ zero_extendqisi2
 3882 0bc8 0133     		adds	r3, r3, #1
 3883 0bca 87F84B30 		strb	r3, [r7, #75]
 3884              	.L216:
 573:printer.c     ****             if((10-x) == DecVol)
 3885              		.loc 1 573 0 is_stmt 0 discriminator 1
 3886 0bce 97F84B30 		ldrb	r3, [r7, #75]	@ zero_extendqisi2
 3887 0bd2 092B     		cmp	r3, #9
 3888 0bd4 E2D9     		bls	.L218
 3889              	.LBE94:
 577:printer.c     ****         }
 578:printer.c     ****         UART_3_PutChar(LINE_FEED);
 3890              		.loc 1 578 0 is_stmt 1
ARM GAS  C:\Users\Lenovo\AppData\Local\Temp\ccVx5qP5.s 			page 85


 3891 0bd6 594B     		ldr	r3, .L249+8
 3892 0bd8 1B78     		ldrb	r3, [r3]	@ zero_extendqisi2
 3893 0bda 1846     		mov	r0, r3
 3894 0bdc FFF7FEFF 		bl	UART_3_PutChar
 3895              	.LBB95:
 579:printer.c     ****     	for(uint8 x = 0; x < 16; x ++){
 3896              		.loc 1 579 0
 3897 0be0 0023     		movs	r3, #0
 3898 0be2 87F84A30 		strb	r3, [r7, #74]
 3899 0be6 0BE0     		b	.L219
 3900              	.L220:
 580:printer.c     ****     		UART_3_PutChar(msn_lecaan[x]);
 3901              		.loc 1 580 0 discriminator 3
 3902 0be8 97F84A30 		ldrb	r3, [r7, #74]	@ zero_extendqisi2
 3903 0bec 584A     		ldr	r2, .L249+28
 3904 0bee D35C     		ldrb	r3, [r2, r3]	@ zero_extendqisi2
 3905 0bf0 1846     		mov	r0, r3
 3906 0bf2 FFF7FEFF 		bl	UART_3_PutChar
 579:printer.c     ****     	for(uint8 x = 0; x < 16; x ++){
 3907              		.loc 1 579 0 discriminator 3
 3908 0bf6 97F84A30 		ldrb	r3, [r7, #74]	@ zero_extendqisi2
 3909 0bfa 0133     		adds	r3, r3, #1
 3910 0bfc 87F84A30 		strb	r3, [r7, #74]
 3911              	.L219:
 579:printer.c     ****     	for(uint8 x = 0; x < 16; x ++){
 3912              		.loc 1 579 0 is_stmt 0 discriminator 1
 3913 0c00 97F84A30 		ldrb	r3, [r7, #74]	@ zero_extendqisi2
 3914 0c04 0F2B     		cmp	r3, #15
 3915 0c06 EFD9     		bls	.L220
 3916              	.LBE95:
 581:printer.c     ****     	}
 582:printer.c     ****         UART_3_PutChar(LINE_FEED);
 3917              		.loc 1 582 0 is_stmt 1
 3918 0c08 4C4B     		ldr	r3, .L249+8
 3919 0c0a 1B78     		ldrb	r3, [r3]	@ zero_extendqisi2
 3920 0c0c 1846     		mov	r0, r3
 3921 0c0e FFF7FEFF 		bl	UART_3_PutChar
 3922              	.LBB96:
 583:printer.c     ****         for(uint8 x = 0; x < 24; x ++){
 3923              		.loc 1 583 0
 3924 0c12 0023     		movs	r3, #0
 3925 0c14 87F84930 		strb	r3, [r7, #73]
 3926 0c18 0BE0     		b	.L221
 3927              	.L222:
 584:printer.c     ****             UART_3_PutChar(SEPARATOR[x]);
 3928              		.loc 1 584 0 discriminator 3
 3929 0c1a 97F84930 		ldrb	r3, [r7, #73]	@ zero_extendqisi2
 3930 0c1e 4A4A     		ldr	r2, .L249+20
 3931 0c20 D35C     		ldrb	r3, [r2, r3]	@ zero_extendqisi2
 3932 0c22 1846     		mov	r0, r3
 3933 0c24 FFF7FEFF 		bl	UART_3_PutChar
 583:printer.c     ****         for(uint8 x = 0; x < 24; x ++){
 3934              		.loc 1 583 0 discriminator 3
 3935 0c28 97F84930 		ldrb	r3, [r7, #73]	@ zero_extendqisi2
 3936 0c2c 0133     		adds	r3, r3, #1
 3937 0c2e 87F84930 		strb	r3, [r7, #73]
 3938              	.L221:
ARM GAS  C:\Users\Lenovo\AppData\Local\Temp\ccVx5qP5.s 			page 86


 583:printer.c     ****         for(uint8 x = 0; x < 24; x ++){
 3939              		.loc 1 583 0 is_stmt 0 discriminator 1
 3940 0c32 97F84930 		ldrb	r3, [r7, #73]	@ zero_extendqisi2
 3941 0c36 172B     		cmp	r3, #23
 3942 0c38 EFD9     		bls	.L222
 3943              	.LBE96:
 585:printer.c     ****         }   
 586:printer.c     ****         UART_3_PutChar(LINE_FEED);
 3944              		.loc 1 586 0 is_stmt 1
 3945 0c3a 404B     		ldr	r3, .L249+8
 3946 0c3c 1B78     		ldrb	r3, [r3]	@ zero_extendqisi2
 3947 0c3e 1846     		mov	r0, r3
 3948 0c40 FFF7FEFF 		bl	UART_3_PutChar
 3949              	.LBB97:
 587:printer.c     ****     	for(uint8 x = 0; x < 13; x ++){
 3950              		.loc 1 587 0
 3951 0c44 0023     		movs	r3, #0
 3952 0c46 87F84830 		strb	r3, [r7, #72]
 3953 0c4a 0BE0     		b	.L223
 3954              	.L224:
 588:printer.c     ****             UART_3_PutChar(msn_pos[x]);
 3955              		.loc 1 588 0 discriminator 3
 3956 0c4c 97F84830 		ldrb	r3, [r7, #72]	@ zero_extendqisi2
 3957 0c50 3E4A     		ldr	r2, .L249+24
 3958 0c52 D35C     		ldrb	r3, [r2, r3]	@ zero_extendqisi2
 3959 0c54 1846     		mov	r0, r3
 3960 0c56 FFF7FEFF 		bl	UART_3_PutChar
 587:printer.c     ****     	for(uint8 x = 0; x < 13; x ++){
 3961              		.loc 1 587 0 discriminator 3
 3962 0c5a 97F84830 		ldrb	r3, [r7, #72]	@ zero_extendqisi2
 3963 0c5e 0133     		adds	r3, r3, #1
 3964 0c60 87F84830 		strb	r3, [r7, #72]
 3965              	.L223:
 587:printer.c     ****     	for(uint8 x = 0; x < 13; x ++){
 3966              		.loc 1 587 0 is_stmt 0 discriminator 1
 3967 0c64 97F84830 		ldrb	r3, [r7, #72]	@ zero_extendqisi2
 3968 0c68 0C2B     		cmp	r3, #12
 3969 0c6a EFD9     		bls	.L224
 3970              	.LBE97:
 589:printer.c     ****         }
 590:printer.c     ****         UART_3_PutChar(side.d.dir + 0x31);
 3971              		.loc 1 590 0 is_stmt 1
 3972 0c6c 314B     		ldr	r3, .L249
 3973 0c6e 93F88133 		ldrb	r3, [r3, #897]	@ zero_extendqisi2
 3974 0c72 3133     		adds	r3, r3, #49
 3975 0c74 DBB2     		uxtb	r3, r3
 3976 0c76 1846     		mov	r0, r3
 3977 0c78 FFF7FEFF 		bl	UART_3_PutChar
 591:printer.c     ****         UART_3_PutChar(LINE_FEED);                      
 3978              		.loc 1 591 0
 3979 0c7c 2F4B     		ldr	r3, .L249+8
 3980 0c7e 1B78     		ldrb	r3, [r3]	@ zero_extendqisi2
 3981 0c80 1846     		mov	r0, r3
 3982 0c82 FFF7FEFF 		bl	UART_3_PutChar
 3983              	.LBB98:
 592:printer.c     ****         for(uint8 x = 0; x < 10; x ++){ 
 3984              		.loc 1 592 0
ARM GAS  C:\Users\Lenovo\AppData\Local\Temp\ccVx5qP5.s 			page 87


 3985 0c86 0023     		movs	r3, #0
 3986 0c88 87F84730 		strb	r3, [r7, #71]
 3987 0c8c 18E0     		b	.L225
 3988              	.L227:
 593:printer.c     ****             if((10-x) == DecVol)
 3989              		.loc 1 593 0
 3990 0c8e 97F84730 		ldrb	r3, [r7, #71]	@ zero_extendqisi2
 3991 0c92 C3F10A03 		rsb	r3, r3, #10
 3992 0c96 2A4A     		ldr	r2, .L249+12
 3993 0c98 1278     		ldrb	r2, [r2]	@ zero_extendqisi2
 3994 0c9a 9342     		cmp	r3, r2
 3995 0c9c 02D1     		bne	.L226
 594:printer.c     ****                 UART_3_PutChar('.');
 3996              		.loc 1 594 0
 3997 0c9e 2E20     		movs	r0, #46
 3998 0ca0 FFF7FEFF 		bl	UART_3_PutChar
 3999              	.L226:
 595:printer.c     ****             UART_3_PutChar(side.d.ProcessedTotals[0][0][x]);
 4000              		.loc 1 595 0 discriminator 2
 4001 0ca4 97F84730 		ldrb	r3, [r7, #71]	@ zero_extendqisi2
 4002 0ca8 224A     		ldr	r2, .L249
 4003 0caa 1344     		add	r3, r3, r2
 4004 0cac 93F80434 		ldrb	r3, [r3, #1028]	@ zero_extendqisi2
 4005 0cb0 1846     		mov	r0, r3
 4006 0cb2 FFF7FEFF 		bl	UART_3_PutChar
 592:printer.c     ****             if((10-x) == DecVol)
 4007              		.loc 1 592 0 discriminator 2
 4008 0cb6 97F84730 		ldrb	r3, [r7, #71]	@ zero_extendqisi2
 4009 0cba 0133     		adds	r3, r3, #1
 4010 0cbc 87F84730 		strb	r3, [r7, #71]
 4011              	.L225:
 592:printer.c     ****             if((10-x) == DecVol)
 4012              		.loc 1 592 0 is_stmt 0 discriminator 1
 4013 0cc0 97F84730 		ldrb	r3, [r7, #71]	@ zero_extendqisi2
 4014 0cc4 092B     		cmp	r3, #9
 4015 0cc6 E2D9     		bls	.L227
 4016              	.LBE98:
 596:printer.c     ****         }
 597:printer.c     ****         UART_3_PutChar(LINE_FEED);
 4017              		.loc 1 597 0 is_stmt 1
 4018 0cc8 1C4B     		ldr	r3, .L249+8
 4019 0cca 1B78     		ldrb	r3, [r3]	@ zero_extendqisi2
 4020 0ccc 1846     		mov	r0, r3
 4021 0cce FFF7FEFF 		bl	UART_3_PutChar
 4022              	.LBB99:
 598:printer.c     ****     	for(uint8 x = 0; x < 16; x ++){
 4023              		.loc 1 598 0
 4024 0cd2 0023     		movs	r3, #0
 4025 0cd4 87F84630 		strb	r3, [r7, #70]
 4026 0cd8 0BE0     		b	.L228
 4027              	.L229:
 599:printer.c     ****     		UART_3_PutChar(msn_lecaan[x]);
 4028              		.loc 1 599 0 discriminator 3
 4029 0cda 97F84630 		ldrb	r3, [r7, #70]	@ zero_extendqisi2
 4030 0cde 1C4A     		ldr	r2, .L249+28
 4031 0ce0 D35C     		ldrb	r3, [r2, r3]	@ zero_extendqisi2
 4032 0ce2 1846     		mov	r0, r3
ARM GAS  C:\Users\Lenovo\AppData\Local\Temp\ccVx5qP5.s 			page 88


 4033 0ce4 FFF7FEFF 		bl	UART_3_PutChar
 598:printer.c     ****     	for(uint8 x = 0; x < 16; x ++){
 4034              		.loc 1 598 0 discriminator 3
 4035 0ce8 97F84630 		ldrb	r3, [r7, #70]	@ zero_extendqisi2
 4036 0cec 0133     		adds	r3, r3, #1
 4037 0cee 87F84630 		strb	r3, [r7, #70]
 4038              	.L228:
 598:printer.c     ****     	for(uint8 x = 0; x < 16; x ++){
 4039              		.loc 1 598 0 is_stmt 0 discriminator 1
 4040 0cf2 97F84630 		ldrb	r3, [r7, #70]	@ zero_extendqisi2
 4041 0cf6 0F2B     		cmp	r3, #15
 4042 0cf8 EFD9     		bls	.L229
 4043              	.LBE99:
 4044              	.LBB100:
 600:printer.c     ****     	}
 601:printer.c     ****         
 602:printer.c     ****         for(uint8 x = 0; x < 24; x ++){
 4045              		.loc 1 602 0 is_stmt 1
 4046 0cfa 0023     		movs	r3, #0
 4047 0cfc 87F84530 		strb	r3, [r7, #69]
 4048 0d00 0BE0     		b	.L230
 4049              	.L231:
 603:printer.c     ****             UART_3_PutChar(SEPARATOR[x]);
 4050              		.loc 1 603 0 discriminator 3
 4051 0d02 97F84530 		ldrb	r3, [r7, #69]	@ zero_extendqisi2
 4052 0d06 104A     		ldr	r2, .L249+20
 4053 0d08 D35C     		ldrb	r3, [r2, r3]	@ zero_extendqisi2
 4054 0d0a 1846     		mov	r0, r3
 4055 0d0c FFF7FEFF 		bl	UART_3_PutChar
 602:printer.c     ****             UART_3_PutChar(SEPARATOR[x]);
 4056              		.loc 1 602 0 discriminator 3
 4057 0d10 97F84530 		ldrb	r3, [r7, #69]	@ zero_extendqisi2
 4058 0d14 0133     		adds	r3, r3, #1
 4059 0d16 87F84530 		strb	r3, [r7, #69]
 4060              	.L230:
 602:printer.c     ****             UART_3_PutChar(SEPARATOR[x]);
 4061              		.loc 1 602 0 is_stmt 0 discriminator 1
 4062 0d1a 97F84530 		ldrb	r3, [r7, #69]	@ zero_extendqisi2
 4063 0d1e 172B     		cmp	r3, #23
 4064 0d20 EFD9     		bls	.L231
 4065              	.LBE100:
 604:printer.c     ****         }            
 605:printer.c     **** 	    UART_3_PutChar(LINE_FEED);
 4066              		.loc 1 605 0 is_stmt 1
 4067 0d22 064B     		ldr	r3, .L249+8
 4068 0d24 1B78     		ldrb	r3, [r3]	@ zero_extendqisi2
 4069 0d26 1846     		mov	r0, r3
 4070 0d28 FFF7FEFF 		bl	UART_3_PutChar
 4071              	.L211:
 4072              	.LBB101:
 606:printer.c     ****     } 
 607:printer.c     ****     /******FOOTER*****/
 608:printer.c     **** 	for(uint8 x = 0; x < 24; x ++){
 4073              		.loc 1 608 0
 4074 0d2c 0023     		movs	r3, #0
 4075 0d2e 87F84430 		strb	r3, [r7, #68]
 4076 0d32 1BE0     		b	.L232
ARM GAS  C:\Users\Lenovo\AppData\Local\Temp\ccVx5qP5.s 			page 89


 4077              	.L250:
 4078              		.align	2
 4079              	.L249:
 4080 0d34 00000000 		.word	side
 4081 0d38 00000000 		.word	msn_dif
 4082 0d3c 00000000 		.word	LINE_FEED
 4083 0d40 00000000 		.word	DecVol
 4084 0d44 00000000 		.word	Positions
 4085 0d48 00000000 		.word	SEPARATOR
 4086 0d4c 00000000 		.word	msn_pos
 4087 0d50 00000000 		.word	msn_lecaan
 4088              	.L233:
 609:printer.c     **** 		UART_3_PutChar(SEPARATOR[x]);
 4089              		.loc 1 609 0 discriminator 3
 4090 0d54 97F84430 		ldrb	r3, [r7, #68]	@ zero_extendqisi2
 4091 0d58 4A4A     		ldr	r2, .L251
 4092 0d5a D35C     		ldrb	r3, [r2, r3]	@ zero_extendqisi2
 4093 0d5c 1846     		mov	r0, r3
 4094 0d5e FFF7FEFF 		bl	UART_3_PutChar
 608:printer.c     **** 		UART_3_PutChar(SEPARATOR[x]);
 4095              		.loc 1 608 0 discriminator 3
 4096 0d62 97F84430 		ldrb	r3, [r7, #68]	@ zero_extendqisi2
 4097 0d66 0133     		adds	r3, r3, #1
 4098 0d68 87F84430 		strb	r3, [r7, #68]
 4099              	.L232:
 608:printer.c     **** 		UART_3_PutChar(SEPARATOR[x]);
 4100              		.loc 1 608 0 is_stmt 0 discriminator 1
 4101 0d6c 97F84430 		ldrb	r3, [r7, #68]	@ zero_extendqisi2
 4102 0d70 172B     		cmp	r3, #23
 4103 0d72 EFD9     		bls	.L233
 4104              	.LBE101:
 610:printer.c     **** 	}
 611:printer.c     **** 	UART_3_PutChar(LINE_FEED);
 4105              		.loc 1 611 0 is_stmt 1
 4106 0d74 444B     		ldr	r3, .L251+4
 4107 0d76 1B78     		ldrb	r3, [r3]	@ zero_extendqisi2
 4108 0d78 1846     		mov	r0, r3
 4109 0d7a FFF7FEFF 		bl	UART_3_PutChar
 4110              	.LBB102:
 612:printer.c     **** 	for(uint8 x = 0; x < 22; x ++){
 4111              		.loc 1 612 0
 4112 0d7e 0023     		movs	r3, #0
 4113 0d80 87F84330 		strb	r3, [r7, #67]
 4114 0d84 0BE0     		b	.L234
 4115              	.L235:
 613:printer.c     **** 		UART_3_PutChar(msn_footer[x]);
 4116              		.loc 1 613 0 discriminator 3
 4117 0d86 97F84330 		ldrb	r3, [r7, #67]	@ zero_extendqisi2
 4118 0d8a 404A     		ldr	r2, .L251+8
 4119 0d8c D35C     		ldrb	r3, [r2, r3]	@ zero_extendqisi2
 4120 0d8e 1846     		mov	r0, r3
 4121 0d90 FFF7FEFF 		bl	UART_3_PutChar
 612:printer.c     **** 	for(uint8 x = 0; x < 22; x ++){
 4122              		.loc 1 612 0 discriminator 3
 4123 0d94 97F84330 		ldrb	r3, [r7, #67]	@ zero_extendqisi2
 4124 0d98 0133     		adds	r3, r3, #1
 4125 0d9a 87F84330 		strb	r3, [r7, #67]
ARM GAS  C:\Users\Lenovo\AppData\Local\Temp\ccVx5qP5.s 			page 90


 4126              	.L234:
 612:printer.c     **** 	for(uint8 x = 0; x < 22; x ++){
 4127              		.loc 1 612 0 is_stmt 0 discriminator 1
 4128 0d9e 97F84330 		ldrb	r3, [r7, #67]	@ zero_extendqisi2
 4129 0da2 152B     		cmp	r3, #21
 4130 0da4 EFD9     		bls	.L235
 4131              	.LBE102:
 614:printer.c     **** 	}
 615:printer.c     **** 	UART_3_PutChar(LINE_FEED);
 4132              		.loc 1 615 0 is_stmt 1
 4133 0da6 384B     		ldr	r3, .L251+4
 4134 0da8 1B78     		ldrb	r3, [r3]	@ zero_extendqisi2
 4135 0daa 1846     		mov	r0, r3
 4136 0dac FFF7FEFF 		bl	UART_3_PutChar
 4137              	.LBB103:
 616:printer.c     **** 	for(uint8 x = 0; x < 22; x ++){
 4138              		.loc 1 616 0
 4139 0db0 0023     		movs	r3, #0
 4140 0db2 87F84230 		strb	r3, [r7, #66]
 4141 0db6 0BE0     		b	.L236
 4142              	.L237:
 617:printer.c     **** 		UART_3_PutChar(msn_footer2[x]);
 4143              		.loc 1 617 0 discriminator 3
 4144 0db8 97F84230 		ldrb	r3, [r7, #66]	@ zero_extendqisi2
 4145 0dbc 344A     		ldr	r2, .L251+12
 4146 0dbe D35C     		ldrb	r3, [r2, r3]	@ zero_extendqisi2
 4147 0dc0 1846     		mov	r0, r3
 4148 0dc2 FFF7FEFF 		bl	UART_3_PutChar
 616:printer.c     **** 	for(uint8 x = 0; x < 22; x ++){
 4149              		.loc 1 616 0 discriminator 3
 4150 0dc6 97F84230 		ldrb	r3, [r7, #66]	@ zero_extendqisi2
 4151 0dca 0133     		adds	r3, r3, #1
 4152 0dcc 87F84230 		strb	r3, [r7, #66]
 4153              	.L236:
 616:printer.c     **** 	for(uint8 x = 0; x < 22; x ++){
 4154              		.loc 1 616 0 is_stmt 0 discriminator 1
 4155 0dd0 97F84230 		ldrb	r3, [r7, #66]	@ zero_extendqisi2
 4156 0dd4 152B     		cmp	r3, #21
 4157 0dd6 EFD9     		bls	.L237
 4158              	.LBE103:
 618:printer.c     **** 	}           
 619:printer.c     ****     UART_3_PutChar(LINE_FEED);
 4159              		.loc 1 619 0 is_stmt 1
 4160 0dd8 2B4B     		ldr	r3, .L251+4
 4161 0dda 1B78     		ldrb	r3, [r3]	@ zero_extendqisi2
 4162 0ddc 1846     		mov	r0, r3
 4163 0dde FFF7FEFF 		bl	UART_3_PutChar
 620:printer.c     ****     UART_3_PutChar(LINE_FEED);
 4164              		.loc 1 620 0
 4165 0de2 294B     		ldr	r3, .L251+4
 4166 0de4 1B78     		ldrb	r3, [r3]	@ zero_extendqisi2
 4167 0de6 1846     		mov	r0, r3
 4168 0de8 FFF7FEFF 		bl	UART_3_PutChar
 621:printer.c     ****     UART_3_PutChar(LINE_FEED);
 4169              		.loc 1 621 0
 4170 0dec 264B     		ldr	r3, .L251+4
 4171 0dee 1B78     		ldrb	r3, [r3]	@ zero_extendqisi2
ARM GAS  C:\Users\Lenovo\AppData\Local\Temp\ccVx5qP5.s 			page 91


 4172 0df0 1846     		mov	r0, r3
 4173 0df2 FFF7FEFF 		bl	UART_3_PutChar
 622:printer.c     ****     UART_3_PutChar(LINE_FEED);
 4174              		.loc 1 622 0
 4175 0df6 244B     		ldr	r3, .L251+4
 4176 0df8 1B78     		ldrb	r3, [r3]	@ zero_extendqisi2
 4177 0dfa 1846     		mov	r0, r3
 4178 0dfc FFF7FEFF 		bl	UART_3_PutChar
 623:printer.c     ****     UART_3_PutChar(LINE_FEED);
 4179              		.loc 1 623 0
 4180 0e00 214B     		ldr	r3, .L251+4
 4181 0e02 1B78     		ldrb	r3, [r3]	@ zero_extendqisi2
 4182 0e04 1846     		mov	r0, r3
 4183 0e06 FFF7FEFF 		bl	UART_3_PutChar
 4184              	.LBB104:
 624:printer.c     ****     for(uint8 x = 0; x < 10; x++){
 4185              		.loc 1 624 0
 4186 0e0a 0023     		movs	r3, #0
 4187 0e0c 87F84130 		strb	r3, [r7, #65]
 4188 0e10 13E0     		b	.L238
 4189              	.L239:
 625:printer.c     ****         EEPROM_1_WriteByte(side.a.ProcessedTotals[0][0][x],36+x);        
 4190              		.loc 1 625 0 discriminator 3
 4191 0e12 97F84130 		ldrb	r3, [r7, #65]	@ zero_extendqisi2
 4192 0e16 1F4A     		ldr	r2, .L251+16
 4193 0e18 1344     		add	r3, r3, r2
 4194 0e1a 93F88320 		ldrb	r2, [r3, #131]	@ zero_extendqisi2
 4195 0e1e 97F84130 		ldrb	r3, [r7, #65]	@ zero_extendqisi2
 4196 0e22 9BB2     		uxth	r3, r3
 4197 0e24 2433     		adds	r3, r3, #36
 4198 0e26 9BB2     		uxth	r3, r3
 4199 0e28 1946     		mov	r1, r3
 4200 0e2a 1046     		mov	r0, r2
 4201 0e2c FFF7FEFF 		bl	EEPROM_1_WriteByte
 624:printer.c     ****     for(uint8 x = 0; x < 10; x++){
 4202              		.loc 1 624 0 discriminator 3
 4203 0e30 97F84130 		ldrb	r3, [r7, #65]	@ zero_extendqisi2
 4204 0e34 0133     		adds	r3, r3, #1
 4205 0e36 87F84130 		strb	r3, [r7, #65]
 4206              	.L238:
 624:printer.c     ****     for(uint8 x = 0; x < 10; x++){
 4207              		.loc 1 624 0 is_stmt 0 discriminator 1
 4208 0e3a 97F84130 		ldrb	r3, [r7, #65]	@ zero_extendqisi2
 4209 0e3e 092B     		cmp	r3, #9
 4210 0e40 E7D9     		bls	.L239
 4211              	.LBE104:
 4212              	.LBB105:
 626:printer.c     ****     }
 627:printer.c     ****     for(uint8 x = 0; x < 10; x++){
 4213              		.loc 1 627 0 is_stmt 1
 4214 0e42 0023     		movs	r3, #0
 4215 0e44 87F84030 		strb	r3, [r7, #64]
 4216 0e48 13E0     		b	.L240
 4217              	.L241:
 628:printer.c     ****         EEPROM_1_WriteByte(side.b.ProcessedTotals[0][0][x],46+x);
 4218              		.loc 1 628 0 discriminator 3
 4219 0e4a 97F84030 		ldrb	r3, [r7, #64]	@ zero_extendqisi2
ARM GAS  C:\Users\Lenovo\AppData\Local\Temp\ccVx5qP5.s 			page 92


 4220 0e4e 114A     		ldr	r2, .L251+16
 4221 0e50 1344     		add	r3, r3, r2
 4222 0e52 93F8AE21 		ldrb	r2, [r3, #430]	@ zero_extendqisi2
 4223 0e56 97F84030 		ldrb	r3, [r7, #64]	@ zero_extendqisi2
 4224 0e5a 9BB2     		uxth	r3, r3
 4225 0e5c 2E33     		adds	r3, r3, #46
 4226 0e5e 9BB2     		uxth	r3, r3
 4227 0e60 1946     		mov	r1, r3
 4228 0e62 1046     		mov	r0, r2
 4229 0e64 FFF7FEFF 		bl	EEPROM_1_WriteByte
 627:printer.c     ****         EEPROM_1_WriteByte(side.b.ProcessedTotals[0][0][x],46+x);
 4230              		.loc 1 627 0 discriminator 3
 4231 0e68 97F84030 		ldrb	r3, [r7, #64]	@ zero_extendqisi2
 4232 0e6c 0133     		adds	r3, r3, #1
 4233 0e6e 87F84030 		strb	r3, [r7, #64]
 4234              	.L240:
 627:printer.c     ****         EEPROM_1_WriteByte(side.b.ProcessedTotals[0][0][x],46+x);
 4235              		.loc 1 627 0 is_stmt 0 discriminator 1
 4236 0e72 97F84030 		ldrb	r3, [r7, #64]	@ zero_extendqisi2
 4237 0e76 092B     		cmp	r3, #9
 4238 0e78 E7D9     		bls	.L241
 4239              	.LBE105:
 629:printer.c     ****     }
 630:printer.c     ****     
 631:printer.c     **** }
 4240              		.loc 1 631 0 is_stmt 1
 4241 0e7a 00BF     		nop
 4242 0e7c 7437     		adds	r7, r7, #116
 4243              		.cfi_def_cfa_offset 12
 4244 0e7e BD46     		mov	sp, r7
 4245              		.cfi_def_cfa_register 13
 4246              		@ sp needed
 4247 0e80 90BD     		pop	{r4, r7, pc}
 4248              	.L252:
 4249 0e82 00BF     		.align	2
 4250              	.L251:
 4251 0e84 00000000 		.word	SEPARATOR
 4252 0e88 00000000 		.word	LINE_FEED
 4253 0e8c 00000000 		.word	msn_footer
 4254 0e90 00000000 		.word	msn_footer2
 4255 0e94 00000000 		.word	side
 4256              		.cfi_endproc
 4257              	.LFE65:
 4258              		.size	PrintShift, .-PrintShift
 4259              		.text
 4260              	.Letext0:
 4261              		.file 2 "c:\\program files (x86)\\cypress\\psoc creator\\4.2\\psoc creator\\import\\gnu\\arm\\5.4.
 4262              		.file 3 "c:\\program files (x86)\\cypress\\psoc creator\\4.2\\psoc creator\\import\\gnu\\arm\\5.4.
 4263              		.file 4 "Generated_Source\\PSoC5/cytypes.h"
 4264              		.file 5 "./GVar.h"
 4265              		.file 6 "Generated_Source\\PSoC5/core_cm3.h"
 4266              		.section	.debug_info,"",%progbits
 4267              	.Ldebug_info0:
 4268 0000 80130000 		.4byte	0x1380
 4269 0004 0400     		.2byte	0x4
 4270 0006 00000000 		.4byte	.Ldebug_abbrev0
 4271 000a 04       		.byte	0x4
ARM GAS  C:\Users\Lenovo\AppData\Local\Temp\ccVx5qP5.s 			page 93


 4272 000b 01       		.uleb128 0x1
 4273 000c 39000000 		.4byte	.LASF114
 4274 0010 0C       		.byte	0xc
 4275 0011 E3040000 		.4byte	.LASF115
 4276 0015 63020000 		.4byte	.LASF116
 4277 0019 00000000 		.4byte	.Ldebug_ranges0+0
 4278 001d 00000000 		.4byte	0
 4279 0021 00000000 		.4byte	.Ldebug_line0
 4280 0025 02       		.uleb128 0x2
 4281 0026 01       		.byte	0x1
 4282 0027 06       		.byte	0x6
 4283 0028 08050000 		.4byte	.LASF0
 4284 002c 02       		.uleb128 0x2
 4285 002d 01       		.byte	0x1
 4286 002e 08       		.byte	0x8
 4287 002f 80040000 		.4byte	.LASF1
 4288 0033 02       		.uleb128 0x2
 4289 0034 02       		.byte	0x2
 4290 0035 05       		.byte	0x5
 4291 0036 8D030000 		.4byte	.LASF2
 4292 003a 02       		.uleb128 0x2
 4293 003b 02       		.byte	0x2
 4294 003c 07       		.byte	0x7
 4295 003d 14050000 		.4byte	.LASF3
 4296 0041 03       		.uleb128 0x3
 4297 0042 28000000 		.4byte	.LASF9
 4298 0046 02       		.byte	0x2
 4299 0047 3F       		.byte	0x3f
 4300 0048 4C000000 		.4byte	0x4c
 4301 004c 02       		.uleb128 0x2
 4302 004d 04       		.byte	0x4
 4303 004e 05       		.byte	0x5
 4304 004f 9E030000 		.4byte	.LASF4
 4305 0053 02       		.uleb128 0x2
 4306 0054 04       		.byte	0x4
 4307 0055 07       		.byte	0x7
 4308 0056 2B040000 		.4byte	.LASF5
 4309 005a 02       		.uleb128 0x2
 4310 005b 08       		.byte	0x8
 4311 005c 05       		.byte	0x5
 4312 005d E4020000 		.4byte	.LASF6
 4313 0061 02       		.uleb128 0x2
 4314 0062 08       		.byte	0x8
 4315 0063 07       		.byte	0x7
 4316 0064 6A010000 		.4byte	.LASF7
 4317 0068 04       		.uleb128 0x4
 4318 0069 04       		.byte	0x4
 4319 006a 05       		.byte	0x5
 4320 006b 696E7400 		.ascii	"int\000"
 4321 006f 02       		.uleb128 0x2
 4322 0070 04       		.byte	0x4
 4323 0071 07       		.byte	0x7
 4324 0072 1B000000 		.4byte	.LASF8
 4325 0076 03       		.uleb128 0x3
 4326 0077 45040000 		.4byte	.LASF10
 4327 007b 03       		.byte	0x3
 4328 007c 2C       		.byte	0x2c
ARM GAS  C:\Users\Lenovo\AppData\Local\Temp\ccVx5qP5.s 			page 94


 4329 007d 41000000 		.4byte	0x41
 4330 0081 05       		.uleb128 0x5
 4331 0082 6A050000 		.4byte	.LASF11
 4332 0086 04       		.byte	0x4
 4333 0087 E401     		.2byte	0x1e4
 4334 0089 2C000000 		.4byte	0x2c
 4335 008d 05       		.uleb128 0x5
 4336 008e A6020000 		.4byte	.LASF12
 4337 0092 04       		.byte	0x4
 4338 0093 E501     		.2byte	0x1e5
 4339 0095 3A000000 		.4byte	0x3a
 4340 0099 05       		.uleb128 0x5
 4341 009a 2A030000 		.4byte	.LASF13
 4342 009e 04       		.byte	0x4
 4343 009f E601     		.2byte	0x1e6
 4344 00a1 53000000 		.4byte	0x53
 4345 00a5 05       		.uleb128 0x5
 4346 00a6 AD020000 		.4byte	.LASF14
 4347 00aa 04       		.byte	0x4
 4348 00ab E701     		.2byte	0x1e7
 4349 00ad 25000000 		.4byte	0x25
 4350 00b1 02       		.uleb128 0x2
 4351 00b2 04       		.byte	0x4
 4352 00b3 04       		.byte	0x4
 4353 00b4 38010000 		.4byte	.LASF15
 4354 00b8 02       		.uleb128 0x2
 4355 00b9 08       		.byte	0x8
 4356 00ba 04       		.byte	0x4
 4357 00bb 70050000 		.4byte	.LASF16
 4358 00bf 05       		.uleb128 0x5
 4359 00c0 BD020000 		.4byte	.LASF17
 4360 00c4 04       		.byte	0x4
 4361 00c5 F501     		.2byte	0x1f5
 4362 00c7 CB000000 		.4byte	0xcb
 4363 00cb 02       		.uleb128 0x2
 4364 00cc 01       		.byte	0x1
 4365 00cd 08       		.byte	0x8
 4366 00ce 5E020000 		.4byte	.LASF18
 4367 00d2 02       		.uleb128 0x2
 4368 00d3 08       		.byte	0x8
 4369 00d4 04       		.byte	0x4
 4370 00d5 62030000 		.4byte	.LASF19
 4371 00d9 02       		.uleb128 0x2
 4372 00da 04       		.byte	0x4
 4373 00db 07       		.byte	0x7
 4374 00dc 22040000 		.4byte	.LASF20
 4375 00e0 06       		.uleb128 0x6
 4376 00e1 A0050000 		.4byte	.LASF34
 4377 00e5 2B01     		.2byte	0x12b
 4378 00e7 05       		.byte	0x5
 4379 00e8 21       		.byte	0x21
 4380 00e9 99010000 		.4byte	0x199
 4381 00ed 07       		.uleb128 0x7
 4382 00ee 64697200 		.ascii	"dir\000"
 4383 00f2 05       		.byte	0x5
 4384 00f3 22       		.byte	0x22
 4385 00f4 81000000 		.4byte	0x81
ARM GAS  C:\Users\Lenovo\AppData\Local\Temp\ccVx5qP5.s 			page 95


 4386 00f8 00       		.byte	0
 4387 00f9 08       		.uleb128 0x8
 4388 00fa FA030000 		.4byte	.LASF21
 4389 00fe 05       		.byte	0x5
 4390 00ff 23       		.byte	0x23
 4391 0100 99010000 		.4byte	0x199
 4392 0104 01       		.byte	0x1
 4393 0105 08       		.uleb128 0x8
 4394 0106 06030000 		.4byte	.LASF22
 4395 010a 05       		.byte	0x5
 4396 010b 24       		.byte	0x24
 4397 010c B5010000 		.4byte	0x1b5
 4398 0110 29       		.byte	0x29
 4399 0111 08       		.uleb128 0x8
 4400 0112 DA020000 		.4byte	.LASF23
 4401 0116 05       		.byte	0x5
 4402 0117 25       		.byte	0x25
 4403 0118 CB010000 		.4byte	0x1cb
 4404 011c 35       		.byte	0x35
 4405 011d 08       		.uleb128 0x8
 4406 011e F6040000 		.4byte	.LASF24
 4407 0122 05       		.byte	0x5
 4408 0123 26       		.byte	0x26
 4409 0124 CB010000 		.4byte	0x1cb
 4410 0128 39       		.byte	0x39
 4411 0129 08       		.uleb128 0x8
 4412 012a F2020000 		.4byte	.LASF25
 4413 012e 05       		.byte	0x5
 4414 012f 27       		.byte	0x27
 4415 0130 DB010000 		.4byte	0x1db
 4416 0134 3D       		.byte	0x3d
 4417 0135 08       		.uleb128 0x8
 4418 0136 43050000 		.4byte	.LASF26
 4419 013a 05       		.byte	0x5
 4420 013b 28       		.byte	0x28
 4421 013c 81000000 		.4byte	0x81
 4422 0140 4B       		.byte	0x4b
 4423 0141 08       		.uleb128 0x8
 4424 0142 57020000 		.4byte	.LASF27
 4425 0146 05       		.byte	0x5
 4426 0147 29       		.byte	0x29
 4427 0148 EB010000 		.4byte	0x1eb
 4428 014c 4C       		.byte	0x4c
 4429 014d 08       		.uleb128 0x8
 4430 014e 49030000 		.4byte	.LASF28
 4431 0152 05       		.byte	0x5
 4432 0153 2A       		.byte	0x2a
 4433 0154 FB010000 		.4byte	0x1fb
 4434 0158 51       		.byte	0x51
 4435 0159 08       		.uleb128 0x8
 4436 015a B4030000 		.4byte	.LASF29
 4437 015e 05       		.byte	0x5
 4438 015f 2B       		.byte	0x2b
 4439 0160 0B020000 		.4byte	0x20b
 4440 0164 83       		.byte	0x83
 4441 0165 08       		.uleb128 0x8
 4442 0166 2F020000 		.4byte	.LASF30
ARM GAS  C:\Users\Lenovo\AppData\Local\Temp\ccVx5qP5.s 			page 96


 4443 016a 05       		.byte	0x5
 4444 016b 2C       		.byte	0x2c
 4445 016c 27020000 		.4byte	0x227
 4446 0170 FB       		.byte	0xfb
 4447 0171 09       		.uleb128 0x9
 4448 0172 D8000000 		.4byte	.LASF31
 4449 0176 05       		.byte	0x5
 4450 0177 2D       		.byte	0x2d
 4451 0178 27020000 		.4byte	0x227
 4452 017c 0301     		.2byte	0x103
 4453 017e 09       		.uleb128 0x9
 4454 017f 08010000 		.4byte	.LASF32
 4455 0183 05       		.byte	0x5
 4456 0184 2E       		.byte	0x2e
 4457 0185 37020000 		.4byte	0x237
 4458 0189 0B01     		.2byte	0x10b
 4459 018b 09       		.uleb128 0x9
 4460 018c E0010000 		.4byte	.LASF33
 4461 0190 05       		.byte	0x5
 4462 0191 2F       		.byte	0x2f
 4463 0192 27020000 		.4byte	0x227
 4464 0196 2301     		.2byte	0x123
 4465 0198 00       		.byte	0
 4466 0199 0A       		.uleb128 0xa
 4467 019a 81000000 		.4byte	0x81
 4468 019e B5010000 		.4byte	0x1b5
 4469 01a2 0B       		.uleb128 0xb
 4470 01a3 D9000000 		.4byte	0xd9
 4471 01a7 03       		.byte	0x3
 4472 01a8 0B       		.uleb128 0xb
 4473 01a9 D9000000 		.4byte	0xd9
 4474 01ad 01       		.byte	0x1
 4475 01ae 0B       		.uleb128 0xb
 4476 01af D9000000 		.4byte	0xd9
 4477 01b3 04       		.byte	0x4
 4478 01b4 00       		.byte	0
 4479 01b5 0A       		.uleb128 0xa
 4480 01b6 81000000 		.4byte	0x81
 4481 01ba CB010000 		.4byte	0x1cb
 4482 01be 0B       		.uleb128 0xb
 4483 01bf D9000000 		.4byte	0xd9
 4484 01c3 03       		.byte	0x3
 4485 01c4 0B       		.uleb128 0xb
 4486 01c5 D9000000 		.4byte	0xd9
 4487 01c9 02       		.byte	0x2
 4488 01ca 00       		.byte	0
 4489 01cb 0A       		.uleb128 0xa
 4490 01cc 81000000 		.4byte	0x81
 4491 01d0 DB010000 		.4byte	0x1db
 4492 01d4 0B       		.uleb128 0xb
 4493 01d5 D9000000 		.4byte	0xd9
 4494 01d9 03       		.byte	0x3
 4495 01da 00       		.byte	0
 4496 01db 0A       		.uleb128 0xa
 4497 01dc 81000000 		.4byte	0x81
 4498 01e0 EB010000 		.4byte	0x1eb
 4499 01e4 0B       		.uleb128 0xb
ARM GAS  C:\Users\Lenovo\AppData\Local\Temp\ccVx5qP5.s 			page 97


 4500 01e5 D9000000 		.4byte	0xd9
 4501 01e9 0D       		.byte	0xd
 4502 01ea 00       		.byte	0
 4503 01eb 0A       		.uleb128 0xa
 4504 01ec 81000000 		.4byte	0x81
 4505 01f0 FB010000 		.4byte	0x1fb
 4506 01f4 0B       		.uleb128 0xb
 4507 01f5 D9000000 		.4byte	0xd9
 4508 01f9 04       		.byte	0x4
 4509 01fa 00       		.byte	0
 4510 01fb 0A       		.uleb128 0xa
 4511 01fc 81000000 		.4byte	0x81
 4512 0200 0B020000 		.4byte	0x20b
 4513 0204 0B       		.uleb128 0xb
 4514 0205 D9000000 		.4byte	0xd9
 4515 0209 31       		.byte	0x31
 4516 020a 00       		.byte	0
 4517 020b 0A       		.uleb128 0xa
 4518 020c BF000000 		.4byte	0xbf
 4519 0210 27020000 		.4byte	0x227
 4520 0214 0B       		.uleb128 0xb
 4521 0215 D9000000 		.4byte	0xd9
 4522 0219 03       		.byte	0x3
 4523 021a 0B       		.uleb128 0xb
 4524 021b D9000000 		.4byte	0xd9
 4525 021f 02       		.byte	0x2
 4526 0220 0B       		.uleb128 0xb
 4527 0221 D9000000 		.4byte	0xd9
 4528 0225 09       		.byte	0x9
 4529 0226 00       		.byte	0
 4530 0227 0A       		.uleb128 0xa
 4531 0228 81000000 		.4byte	0x81
 4532 022c 37020000 		.4byte	0x237
 4533 0230 0B       		.uleb128 0xb
 4534 0231 D9000000 		.4byte	0xd9
 4535 0235 07       		.byte	0x7
 4536 0236 00       		.byte	0
 4537 0237 0A       		.uleb128 0xa
 4538 0238 81000000 		.4byte	0x81
 4539 023c 4D020000 		.4byte	0x24d
 4540 0240 0B       		.uleb128 0xb
 4541 0241 D9000000 		.4byte	0xd9
 4542 0245 03       		.byte	0x3
 4543 0246 0B       		.uleb128 0xb
 4544 0247 D9000000 		.4byte	0xd9
 4545 024b 05       		.byte	0x5
 4546 024c 00       		.byte	0
 4547 024d 06       		.uleb128 0x6
 4548 024e D2040000 		.4byte	.LASF35
 4549 0252 AC04     		.2byte	0x4ac
 4550 0254 05       		.byte	0x5
 4551 0255 33       		.byte	0x33
 4552 0256 86020000 		.4byte	0x286
 4553 025a 07       		.uleb128 0x7
 4554 025b 6100     		.ascii	"a\000"
 4555 025d 05       		.byte	0x5
 4556 025e 34       		.byte	0x34
ARM GAS  C:\Users\Lenovo\AppData\Local\Temp\ccVx5qP5.s 			page 98


 4557 025f E0000000 		.4byte	0xe0
 4558 0263 00       		.byte	0
 4559 0264 0C       		.uleb128 0xc
 4560 0265 6200     		.ascii	"b\000"
 4561 0267 05       		.byte	0x5
 4562 0268 35       		.byte	0x35
 4563 0269 E0000000 		.4byte	0xe0
 4564 026d 2B01     		.2byte	0x12b
 4565 026f 0C       		.uleb128 0xc
 4566 0270 6300     		.ascii	"c\000"
 4567 0272 05       		.byte	0x5
 4568 0273 36       		.byte	0x36
 4569 0274 E0000000 		.4byte	0xe0
 4570 0278 5602     		.2byte	0x256
 4571 027a 0C       		.uleb128 0xc
 4572 027b 6400     		.ascii	"d\000"
 4573 027d 05       		.byte	0x5
 4574 027e 37       		.byte	0x37
 4575 027f E0000000 		.4byte	0xe0
 4576 0283 8103     		.2byte	0x381
 4577 0285 00       		.byte	0
 4578 0286 0D       		.uleb128 0xd
 4579 0287 57040000 		.4byte	.LASF38
 4580 028b 01       		.byte	0x1
 4581 028c 4A       		.byte	0x4a
 4582 028d 00000000 		.4byte	.LFB64
 4583 0291 180F0000 		.4byte	.LFE64-.LFB64
 4584 0295 01       		.uleb128 0x1
 4585 0296 9C       		.byte	0x9c
 4586 0297 A4080000 		.4byte	0x8a4
 4587 029b 0E       		.uleb128 0xe
 4588 029c 3D040000 		.4byte	.LASF117
 4589 02a0 01       		.byte	0x1
 4590 02a1 4A       		.byte	0x4a
 4591 02a2 81000000 		.4byte	0x81
 4592 02a6 03       		.uleb128 0x3
 4593 02a7 91       		.byte	0x91
 4594 02a8 AF7F     		.sleb128 -81
 4595 02aa 0F       		.uleb128 0xf
 4596 02ab 64040000 		.4byte	.LASF36
 4597 02af 01       		.byte	0x1
 4598 02b0 4B       		.byte	0x4b
 4599 02b1 A5000000 		.4byte	0xa5
 4600 02b5 03       		.uleb128 0x3
 4601 02b6 91       		.byte	0x91
 4602 02b7 B67F     		.sleb128 -74
 4603 02b9 10       		.uleb128 0x10
 4604 02ba 68010000 		.4byte	.LBB2
 4605 02be 30000000 		.4byte	.LBE2-.LBB2
 4606 02c2 D3020000 		.4byte	0x2d3
 4607 02c6 11       		.uleb128 0x11
 4608 02c7 6900     		.ascii	"i\000"
 4609 02c9 01       		.byte	0x1
 4610 02ca 52       		.byte	0x52
 4611 02cb 81000000 		.4byte	0x81
 4612 02cf 02       		.uleb128 0x2
 4613 02d0 91       		.byte	0x91
ARM GAS  C:\Users\Lenovo\AppData\Local\Temp\ccVx5qP5.s 			page 99


 4614 02d1 6F       		.sleb128 -17
 4615 02d2 00       		.byte	0
 4616 02d3 10       		.uleb128 0x10
 4617 02d4 98010000 		.4byte	.LBB3
 4618 02d8 28000000 		.4byte	.LBE3-.LBB3
 4619 02dc EF020000 		.4byte	0x2ef
 4620 02e0 0F       		.uleb128 0xf
 4621 02e1 B1010000 		.4byte	.LASF37
 4622 02e5 01       		.byte	0x1
 4623 02e6 55       		.byte	0x55
 4624 02e7 81000000 		.4byte	0x81
 4625 02eb 02       		.uleb128 0x2
 4626 02ec 91       		.byte	0x91
 4627 02ed 6E       		.sleb128 -18
 4628 02ee 00       		.byte	0
 4629 02ef 10       		.uleb128 0x10
 4630 02f0 D6010000 		.4byte	.LBB4
 4631 02f4 2E000000 		.4byte	.LBE4-.LBB4
 4632 02f8 0B030000 		.4byte	0x30b
 4633 02fc 0F       		.uleb128 0xf
 4634 02fd B1010000 		.4byte	.LASF37
 4635 0301 01       		.byte	0x1
 4636 0302 5B       		.byte	0x5b
 4637 0303 81000000 		.4byte	0x81
 4638 0307 02       		.uleb128 0x2
 4639 0308 91       		.byte	0x91
 4640 0309 6D       		.sleb128 -19
 4641 030a 00       		.byte	0
 4642 030b 10       		.uleb128 0x10
 4643 030c 08020000 		.4byte	.LBB5
 4644 0310 28000000 		.4byte	.LBE5-.LBB5
 4645 0314 25030000 		.4byte	0x325
 4646 0318 11       		.uleb128 0x11
 4647 0319 7800     		.ascii	"x\000"
 4648 031b 01       		.byte	0x1
 4649 031c 60       		.byte	0x60
 4650 031d 81000000 		.4byte	0x81
 4651 0321 02       		.uleb128 0x2
 4652 0322 91       		.byte	0x91
 4653 0323 6C       		.sleb128 -20
 4654 0324 00       		.byte	0
 4655 0325 10       		.uleb128 0x10
 4656 0326 3A020000 		.4byte	.LBB6
 4657 032a 28000000 		.4byte	.LBE6-.LBB6
 4658 032e 3F030000 		.4byte	0x33f
 4659 0332 11       		.uleb128 0x11
 4660 0333 7800     		.ascii	"x\000"
 4661 0335 01       		.byte	0x1
 4662 0336 64       		.byte	0x64
 4663 0337 81000000 		.4byte	0x81
 4664 033b 02       		.uleb128 0x2
 4665 033c 91       		.byte	0x91
 4666 033d 6B       		.sleb128 -21
 4667 033e 00       		.byte	0
 4668 033f 10       		.uleb128 0x10
 4669 0340 6C020000 		.4byte	.LBB7
 4670 0344 28000000 		.4byte	.LBE7-.LBB7
ARM GAS  C:\Users\Lenovo\AppData\Local\Temp\ccVx5qP5.s 			page 100


 4671 0348 59030000 		.4byte	0x359
 4672 034c 11       		.uleb128 0x11
 4673 034d 7800     		.ascii	"x\000"
 4674 034f 01       		.byte	0x1
 4675 0350 68       		.byte	0x68
 4676 0351 81000000 		.4byte	0x81
 4677 0355 02       		.uleb128 0x2
 4678 0356 91       		.byte	0x91
 4679 0357 6A       		.sleb128 -22
 4680 0358 00       		.byte	0
 4681 0359 10       		.uleb128 0x10
 4682 035a 9E020000 		.4byte	.LBB8
 4683 035e 28000000 		.4byte	.LBE8-.LBB8
 4684 0362 73030000 		.4byte	0x373
 4685 0366 11       		.uleb128 0x11
 4686 0367 7800     		.ascii	"x\000"
 4687 0369 01       		.byte	0x1
 4688 036a 6C       		.byte	0x6c
 4689 036b 81000000 		.4byte	0x81
 4690 036f 02       		.uleb128 0x2
 4691 0370 91       		.byte	0x91
 4692 0371 69       		.sleb128 -23
 4693 0372 00       		.byte	0
 4694 0373 10       		.uleb128 0x10
 4695 0374 D0020000 		.4byte	.LBB9
 4696 0378 28000000 		.4byte	.LBE9-.LBB9
 4697 037c 8D030000 		.4byte	0x38d
 4698 0380 11       		.uleb128 0x11
 4699 0381 7800     		.ascii	"x\000"
 4700 0383 01       		.byte	0x1
 4701 0384 70       		.byte	0x70
 4702 0385 81000000 		.4byte	0x81
 4703 0389 02       		.uleb128 0x2
 4704 038a 91       		.byte	0x91
 4705 038b 68       		.sleb128 -24
 4706 038c 00       		.byte	0
 4707 038d 10       		.uleb128 0x10
 4708 038e 02030000 		.4byte	.LBB10
 4709 0392 62000000 		.4byte	.LBE10-.LBB10
 4710 0396 A7030000 		.4byte	0x3a7
 4711 039a 11       		.uleb128 0x11
 4712 039b 7800     		.ascii	"x\000"
 4713 039d 01       		.byte	0x1
 4714 039e 75       		.byte	0x75
 4715 039f 81000000 		.4byte	0x81
 4716 03a3 02       		.uleb128 0x2
 4717 03a4 91       		.byte	0x91
 4718 03a5 67       		.sleb128 -25
 4719 03a6 00       		.byte	0
 4720 03a7 10       		.uleb128 0x10
 4721 03a8 EC030000 		.4byte	.LBB11
 4722 03ac 28000000 		.4byte	.LBE11-.LBB11
 4723 03b0 C1030000 		.4byte	0x3c1
 4724 03b4 11       		.uleb128 0x11
 4725 03b5 7800     		.ascii	"x\000"
 4726 03b7 01       		.byte	0x1
 4727 03b8 83       		.byte	0x83
ARM GAS  C:\Users\Lenovo\AppData\Local\Temp\ccVx5qP5.s 			page 101


 4728 03b9 81000000 		.4byte	0x81
 4729 03bd 02       		.uleb128 0x2
 4730 03be 91       		.byte	0x91
 4731 03bf 66       		.sleb128 -26
 4732 03c0 00       		.byte	0
 4733 03c1 10       		.uleb128 0x10
 4734 03c2 9C040000 		.4byte	.LBB12
 4735 03c6 28000000 		.4byte	.LBE12-.LBB12
 4736 03ca DB030000 		.4byte	0x3db
 4737 03ce 11       		.uleb128 0x11
 4738 03cf 7800     		.ascii	"x\000"
 4739 03d1 01       		.byte	0x1
 4740 03d2 90       		.byte	0x90
 4741 03d3 81000000 		.4byte	0x81
 4742 03d7 02       		.uleb128 0x2
 4743 03d8 91       		.byte	0x91
 4744 03d9 65       		.sleb128 -27
 4745 03da 00       		.byte	0
 4746 03db 10       		.uleb128 0x10
 4747 03dc CE040000 		.4byte	.LBB13
 4748 03e0 28000000 		.4byte	.LBE13-.LBB13
 4749 03e4 F5030000 		.4byte	0x3f5
 4750 03e8 11       		.uleb128 0x11
 4751 03e9 7800     		.ascii	"x\000"
 4752 03eb 01       		.byte	0x1
 4753 03ec 94       		.byte	0x94
 4754 03ed 81000000 		.4byte	0x81
 4755 03f1 02       		.uleb128 0x2
 4756 03f2 91       		.byte	0x91
 4757 03f3 64       		.sleb128 -28
 4758 03f4 00       		.byte	0
 4759 03f5 10       		.uleb128 0x10
 4760 03f6 F6040000 		.4byte	.LBB14
 4761 03fa 28000000 		.4byte	.LBE14-.LBB14
 4762 03fe 0F040000 		.4byte	0x40f
 4763 0402 11       		.uleb128 0x11
 4764 0403 7800     		.ascii	"x\000"
 4765 0405 01       		.byte	0x1
 4766 0406 97       		.byte	0x97
 4767 0407 81000000 		.4byte	0x81
 4768 040b 02       		.uleb128 0x2
 4769 040c 91       		.byte	0x91
 4770 040d 63       		.sleb128 -29
 4771 040e 00       		.byte	0
 4772 040f 10       		.uleb128 0x10
 4773 0410 28050000 		.4byte	.LBB15
 4774 0414 28000000 		.4byte	.LBE15-.LBB15
 4775 0418 29040000 		.4byte	0x429
 4776 041c 11       		.uleb128 0x11
 4777 041d 7800     		.ascii	"x\000"
 4778 041f 01       		.byte	0x1
 4779 0420 9B       		.byte	0x9b
 4780 0421 81000000 		.4byte	0x81
 4781 0425 02       		.uleb128 0x2
 4782 0426 91       		.byte	0x91
 4783 0427 62       		.sleb128 -30
 4784 0428 00       		.byte	0
ARM GAS  C:\Users\Lenovo\AppData\Local\Temp\ccVx5qP5.s 			page 102


 4785 0429 10       		.uleb128 0x10
 4786 042a 5C050000 		.4byte	.LBB16
 4787 042e 2C000000 		.4byte	.LBE16-.LBB16
 4788 0432 43040000 		.4byte	0x443
 4789 0436 11       		.uleb128 0x11
 4790 0437 7800     		.ascii	"x\000"
 4791 0439 01       		.byte	0x1
 4792 043a A0       		.byte	0xa0
 4793 043b 81000000 		.4byte	0x81
 4794 043f 02       		.uleb128 0x2
 4795 0440 91       		.byte	0x91
 4796 0441 61       		.sleb128 -31
 4797 0442 00       		.byte	0
 4798 0443 10       		.uleb128 0x10
 4799 0444 92050000 		.4byte	.LBB17
 4800 0448 28000000 		.4byte	.LBE17-.LBB17
 4801 044c 5D040000 		.4byte	0x45d
 4802 0450 11       		.uleb128 0x11
 4803 0451 7800     		.ascii	"x\000"
 4804 0453 01       		.byte	0x1
 4805 0454 A4       		.byte	0xa4
 4806 0455 81000000 		.4byte	0x81
 4807 0459 02       		.uleb128 0x2
 4808 045a 91       		.byte	0x91
 4809 045b 60       		.sleb128 -32
 4810 045c 00       		.byte	0
 4811 045d 10       		.uleb128 0x10
 4812 045e D2050000 		.4byte	.LBB18
 4813 0462 28000000 		.4byte	.LBE18-.LBB18
 4814 0466 77040000 		.4byte	0x477
 4815 046a 11       		.uleb128 0x11
 4816 046b 7800     		.ascii	"x\000"
 4817 046d 01       		.byte	0x1
 4818 046e A9       		.byte	0xa9
 4819 046f 81000000 		.4byte	0x81
 4820 0473 02       		.uleb128 0x2
 4821 0474 91       		.byte	0x91
 4822 0475 5F       		.sleb128 -33
 4823 0476 00       		.byte	0
 4824 0477 10       		.uleb128 0x10
 4825 0478 FA050000 		.4byte	.LBB19
 4826 047c 28000000 		.4byte	.LBE19-.LBB19
 4827 0480 91040000 		.4byte	0x491
 4828 0484 11       		.uleb128 0x11
 4829 0485 7800     		.ascii	"x\000"
 4830 0487 01       		.byte	0x1
 4831 0488 AC       		.byte	0xac
 4832 0489 81000000 		.4byte	0x81
 4833 048d 02       		.uleb128 0x2
 4834 048e 91       		.byte	0x91
 4835 048f 5E       		.sleb128 -34
 4836 0490 00       		.byte	0
 4837 0491 10       		.uleb128 0x10
 4838 0492 2C060000 		.4byte	.LBB20
 4839 0496 28000000 		.4byte	.LBE20-.LBB20
 4840 049a AB040000 		.4byte	0x4ab
 4841 049e 11       		.uleb128 0x11
ARM GAS  C:\Users\Lenovo\AppData\Local\Temp\ccVx5qP5.s 			page 103


 4842 049f 7800     		.ascii	"x\000"
 4843 04a1 01       		.byte	0x1
 4844 04a2 B0       		.byte	0xb0
 4845 04a3 81000000 		.4byte	0x81
 4846 04a7 02       		.uleb128 0x2
 4847 04a8 91       		.byte	0x91
 4848 04a9 5D       		.sleb128 -35
 4849 04aa 00       		.byte	0
 4850 04ab 10       		.uleb128 0x10
 4851 04ac 54060000 		.4byte	.LBB21
 4852 04b0 76000000 		.4byte	.LBE21-.LBB21
 4853 04b4 C5040000 		.4byte	0x4c5
 4854 04b8 11       		.uleb128 0x11
 4855 04b9 7800     		.ascii	"x\000"
 4856 04bb 01       		.byte	0x1
 4857 04bc B3       		.byte	0xb3
 4858 04bd 81000000 		.4byte	0x81
 4859 04c1 02       		.uleb128 0x2
 4860 04c2 91       		.byte	0x91
 4861 04c3 5C       		.sleb128 -36
 4862 04c4 00       		.byte	0
 4863 04c5 10       		.uleb128 0x10
 4864 04c6 E4060000 		.4byte	.LBB22
 4865 04ca 28000000 		.4byte	.LBE22-.LBB22
 4866 04ce DF040000 		.4byte	0x4df
 4867 04d2 11       		.uleb128 0x11
 4868 04d3 7800     		.ascii	"x\000"
 4869 04d5 01       		.byte	0x1
 4870 04d6 BB       		.byte	0xbb
 4871 04d7 81000000 		.4byte	0x81
 4872 04db 02       		.uleb128 0x2
 4873 04dc 91       		.byte	0x91
 4874 04dd 5B       		.sleb128 -37
 4875 04de 00       		.byte	0
 4876 04df 10       		.uleb128 0x10
 4877 04e0 1C070000 		.4byte	.LBB23
 4878 04e4 2C000000 		.4byte	.LBE23-.LBB23
 4879 04e8 F9040000 		.4byte	0x4f9
 4880 04ec 11       		.uleb128 0x11
 4881 04ed 7800     		.ascii	"x\000"
 4882 04ef 01       		.byte	0x1
 4883 04f0 C0       		.byte	0xc0
 4884 04f1 81000000 		.4byte	0x81
 4885 04f5 02       		.uleb128 0x2
 4886 04f6 91       		.byte	0x91
 4887 04f7 5A       		.sleb128 -38
 4888 04f8 00       		.byte	0
 4889 04f9 10       		.uleb128 0x10
 4890 04fa 52070000 		.4byte	.LBB24
 4891 04fe 28000000 		.4byte	.LBE24-.LBB24
 4892 0502 13050000 		.4byte	0x513
 4893 0506 11       		.uleb128 0x11
 4894 0507 7800     		.ascii	"x\000"
 4895 0509 01       		.byte	0x1
 4896 050a C4       		.byte	0xc4
 4897 050b 81000000 		.4byte	0x81
 4898 050f 02       		.uleb128 0x2
ARM GAS  C:\Users\Lenovo\AppData\Local\Temp\ccVx5qP5.s 			page 104


 4899 0510 91       		.byte	0x91
 4900 0511 59       		.sleb128 -39
 4901 0512 00       		.byte	0
 4902 0513 10       		.uleb128 0x10
 4903 0514 8A070000 		.4byte	.LBB25
 4904 0518 2C000000 		.4byte	.LBE25-.LBB25
 4905 051c 2D050000 		.4byte	0x52d
 4906 0520 11       		.uleb128 0x11
 4907 0521 7800     		.ascii	"x\000"
 4908 0523 01       		.byte	0x1
 4909 0524 C9       		.byte	0xc9
 4910 0525 81000000 		.4byte	0x81
 4911 0529 02       		.uleb128 0x2
 4912 052a 91       		.byte	0x91
 4913 052b 58       		.sleb128 -40
 4914 052c 00       		.byte	0
 4915 052d 10       		.uleb128 0x10
 4916 052e CE070000 		.4byte	.LBB26
 4917 0532 2C000000 		.4byte	.LBE26-.LBB26
 4918 0536 47050000 		.4byte	0x547
 4919 053a 11       		.uleb128 0x11
 4920 053b 7800     		.ascii	"x\000"
 4921 053d 01       		.byte	0x1
 4922 053e D0       		.byte	0xd0
 4923 053f 81000000 		.4byte	0x81
 4924 0543 02       		.uleb128 0x2
 4925 0544 91       		.byte	0x91
 4926 0545 57       		.sleb128 -41
 4927 0546 00       		.byte	0
 4928 0547 10       		.uleb128 0x10
 4929 0548 04080000 		.4byte	.LBB27
 4930 054c 28000000 		.4byte	.LBE27-.LBB27
 4931 0550 61050000 		.4byte	0x561
 4932 0554 11       		.uleb128 0x11
 4933 0555 7800     		.ascii	"x\000"
 4934 0557 01       		.byte	0x1
 4935 0558 D4       		.byte	0xd4
 4936 0559 81000000 		.4byte	0x81
 4937 055d 02       		.uleb128 0x2
 4938 055e 91       		.byte	0x91
 4939 055f 56       		.sleb128 -42
 4940 0560 00       		.byte	0
 4941 0561 10       		.uleb128 0x10
 4942 0562 46080000 		.4byte	.LBB28
 4943 0566 28000000 		.4byte	.LBE28-.LBB28
 4944 056a 7B050000 		.4byte	0x57b
 4945 056e 11       		.uleb128 0x11
 4946 056f 7800     		.ascii	"x\000"
 4947 0571 01       		.byte	0x1
 4948 0572 D9       		.byte	0xd9
 4949 0573 81000000 		.4byte	0x81
 4950 0577 02       		.uleb128 0x2
 4951 0578 91       		.byte	0x91
 4952 0579 55       		.sleb128 -43
 4953 057a 00       		.byte	0
 4954 057b 10       		.uleb128 0x10
 4955 057c 6E080000 		.4byte	.LBB29
ARM GAS  C:\Users\Lenovo\AppData\Local\Temp\ccVx5qP5.s 			page 105


 4956 0580 28000000 		.4byte	.LBE29-.LBB29
 4957 0584 95050000 		.4byte	0x595
 4958 0588 11       		.uleb128 0x11
 4959 0589 7800     		.ascii	"x\000"
 4960 058b 01       		.byte	0x1
 4961 058c DC       		.byte	0xdc
 4962 058d 81000000 		.4byte	0x81
 4963 0591 02       		.uleb128 0x2
 4964 0592 91       		.byte	0x91
 4965 0593 54       		.sleb128 -44
 4966 0594 00       		.byte	0
 4967 0595 10       		.uleb128 0x10
 4968 0596 A0080000 		.4byte	.LBB30
 4969 059a 28000000 		.4byte	.LBE30-.LBB30
 4970 059e AF050000 		.4byte	0x5af
 4971 05a2 11       		.uleb128 0x11
 4972 05a3 7800     		.ascii	"x\000"
 4973 05a5 01       		.byte	0x1
 4974 05a6 E0       		.byte	0xe0
 4975 05a7 81000000 		.4byte	0x81
 4976 05ab 02       		.uleb128 0x2
 4977 05ac 91       		.byte	0x91
 4978 05ad 53       		.sleb128 -45
 4979 05ae 00       		.byte	0
 4980 05af 10       		.uleb128 0x10
 4981 05b0 C8080000 		.4byte	.LBB31
 4982 05b4 42000000 		.4byte	.LBE31-.LBB31
 4983 05b8 C9050000 		.4byte	0x5c9
 4984 05bc 11       		.uleb128 0x11
 4985 05bd 7800     		.ascii	"x\000"
 4986 05bf 01       		.byte	0x1
 4987 05c0 E3       		.byte	0xe3
 4988 05c1 81000000 		.4byte	0x81
 4989 05c5 02       		.uleb128 0x2
 4990 05c6 91       		.byte	0x91
 4991 05c7 52       		.sleb128 -46
 4992 05c8 00       		.byte	0
 4993 05c9 10       		.uleb128 0x10
 4994 05ca 24090000 		.4byte	.LBB32
 4995 05ce 28000000 		.4byte	.LBE32-.LBB32
 4996 05d2 E3050000 		.4byte	0x5e3
 4997 05d6 11       		.uleb128 0x11
 4998 05d7 7800     		.ascii	"x\000"
 4999 05d9 01       		.byte	0x1
 5000 05da EB       		.byte	0xeb
 5001 05db 81000000 		.4byte	0x81
 5002 05df 02       		.uleb128 0x2
 5003 05e0 91       		.byte	0x91
 5004 05e1 51       		.sleb128 -47
 5005 05e2 00       		.byte	0
 5006 05e3 10       		.uleb128 0x10
 5007 05e4 5C090000 		.4byte	.LBB33
 5008 05e8 2C000000 		.4byte	.LBE33-.LBB33
 5009 05ec FD050000 		.4byte	0x5fd
 5010 05f0 11       		.uleb128 0x11
 5011 05f1 7800     		.ascii	"x\000"
 5012 05f3 01       		.byte	0x1
ARM GAS  C:\Users\Lenovo\AppData\Local\Temp\ccVx5qP5.s 			page 106


 5013 05f4 F0       		.byte	0xf0
 5014 05f5 81000000 		.4byte	0x81
 5015 05f9 02       		.uleb128 0x2
 5016 05fa 91       		.byte	0x91
 5017 05fb 50       		.sleb128 -48
 5018 05fc 00       		.byte	0
 5019 05fd 10       		.uleb128 0x10
 5020 05fe 92090000 		.4byte	.LBB34
 5021 0602 28000000 		.4byte	.LBE34-.LBB34
 5022 0606 17060000 		.4byte	0x617
 5023 060a 11       		.uleb128 0x11
 5024 060b 7800     		.ascii	"x\000"
 5025 060d 01       		.byte	0x1
 5026 060e F4       		.byte	0xf4
 5027 060f 81000000 		.4byte	0x81
 5028 0613 02       		.uleb128 0x2
 5029 0614 91       		.byte	0x91
 5030 0615 4F       		.sleb128 -49
 5031 0616 00       		.byte	0
 5032 0617 10       		.uleb128 0x10
 5033 0618 CA090000 		.4byte	.LBB35
 5034 061c 5A000000 		.4byte	.LBE35-.LBB35
 5035 0620 31060000 		.4byte	0x631
 5036 0624 11       		.uleb128 0x11
 5037 0625 7800     		.ascii	"x\000"
 5038 0627 01       		.byte	0x1
 5039 0628 F9       		.byte	0xf9
 5040 0629 81000000 		.4byte	0x81
 5041 062d 02       		.uleb128 0x2
 5042 062e 91       		.byte	0x91
 5043 062f 4E       		.sleb128 -50
 5044 0630 00       		.byte	0
 5045 0631 10       		.uleb128 0x10
 5046 0632 3C0A0000 		.4byte	.LBB36
 5047 0636 2C000000 		.4byte	.LBE36-.LBB36
 5048 063a 4C060000 		.4byte	0x64c
 5049 063e 12       		.uleb128 0x12
 5050 063f 7800     		.ascii	"x\000"
 5051 0641 01       		.byte	0x1
 5052 0642 0001     		.2byte	0x100
 5053 0644 81000000 		.4byte	0x81
 5054 0648 02       		.uleb128 0x2
 5055 0649 91       		.byte	0x91
 5056 064a 4D       		.sleb128 -51
 5057 064b 00       		.byte	0
 5058 064c 10       		.uleb128 0x10
 5059 064d 720A0000 		.4byte	.LBB37
 5060 0651 28000000 		.4byte	.LBE37-.LBB37
 5061 0655 67060000 		.4byte	0x667
 5062 0659 12       		.uleb128 0x12
 5063 065a 7800     		.ascii	"x\000"
 5064 065c 01       		.byte	0x1
 5065 065d 0401     		.2byte	0x104
 5066 065f 81000000 		.4byte	0x81
 5067 0663 02       		.uleb128 0x2
 5068 0664 91       		.byte	0x91
 5069 0665 4C       		.sleb128 -52
ARM GAS  C:\Users\Lenovo\AppData\Local\Temp\ccVx5qP5.s 			page 107


 5070 0666 00       		.byte	0
 5071 0667 10       		.uleb128 0x10
 5072 0668 B40A0000 		.4byte	.LBB38
 5073 066c 28000000 		.4byte	.LBE38-.LBB38
 5074 0670 82060000 		.4byte	0x682
 5075 0674 12       		.uleb128 0x12
 5076 0675 7800     		.ascii	"x\000"
 5077 0677 01       		.byte	0x1
 5078 0678 0901     		.2byte	0x109
 5079 067a 81000000 		.4byte	0x81
 5080 067e 02       		.uleb128 0x2
 5081 067f 91       		.byte	0x91
 5082 0680 4B       		.sleb128 -53
 5083 0681 00       		.byte	0
 5084 0682 10       		.uleb128 0x10
 5085 0683 DC0A0000 		.4byte	.LBB39
 5086 0687 28000000 		.4byte	.LBE39-.LBB39
 5087 068b 9D060000 		.4byte	0x69d
 5088 068f 12       		.uleb128 0x12
 5089 0690 7800     		.ascii	"x\000"
 5090 0692 01       		.byte	0x1
 5091 0693 0C01     		.2byte	0x10c
 5092 0695 81000000 		.4byte	0x81
 5093 0699 02       		.uleb128 0x2
 5094 069a 91       		.byte	0x91
 5095 069b 4A       		.sleb128 -54
 5096 069c 00       		.byte	0
 5097 069d 10       		.uleb128 0x10
 5098 069e 0E0B0000 		.4byte	.LBB40
 5099 06a2 28000000 		.4byte	.LBE40-.LBB40
 5100 06a6 B8060000 		.4byte	0x6b8
 5101 06aa 12       		.uleb128 0x12
 5102 06ab 7800     		.ascii	"x\000"
 5103 06ad 01       		.byte	0x1
 5104 06ae 1001     		.2byte	0x110
 5105 06b0 81000000 		.4byte	0x81
 5106 06b4 02       		.uleb128 0x2
 5107 06b5 91       		.byte	0x91
 5108 06b6 49       		.sleb128 -55
 5109 06b7 00       		.byte	0
 5110 06b8 10       		.uleb128 0x10
 5111 06b9 360B0000 		.4byte	.LBB41
 5112 06bd 42000000 		.4byte	.LBE41-.LBB41
 5113 06c1 D3060000 		.4byte	0x6d3
 5114 06c5 12       		.uleb128 0x12
 5115 06c6 7800     		.ascii	"x\000"
 5116 06c8 01       		.byte	0x1
 5117 06c9 1301     		.2byte	0x113
 5118 06cb 81000000 		.4byte	0x81
 5119 06cf 02       		.uleb128 0x2
 5120 06d0 91       		.byte	0x91
 5121 06d1 48       		.sleb128 -56
 5122 06d2 00       		.byte	0
 5123 06d3 10       		.uleb128 0x10
 5124 06d4 920B0000 		.4byte	.LBB42
 5125 06d8 1E000000 		.4byte	.LBE42-.LBB42
 5126 06dc EE060000 		.4byte	0x6ee
ARM GAS  C:\Users\Lenovo\AppData\Local\Temp\ccVx5qP5.s 			page 108


 5127 06e0 12       		.uleb128 0x12
 5128 06e1 7800     		.ascii	"x\000"
 5129 06e3 01       		.byte	0x1
 5130 06e4 1B01     		.2byte	0x11b
 5131 06e6 81000000 		.4byte	0x81
 5132 06ea 02       		.uleb128 0x2
 5133 06eb 91       		.byte	0x91
 5134 06ec 47       		.sleb128 -57
 5135 06ed 00       		.byte	0
 5136 06ee 10       		.uleb128 0x10
 5137 06ef C00B0000 		.4byte	.LBB43
 5138 06f3 22000000 		.4byte	.LBE43-.LBB43
 5139 06f7 09070000 		.4byte	0x709
 5140 06fb 12       		.uleb128 0x12
 5141 06fc 7800     		.ascii	"x\000"
 5142 06fe 01       		.byte	0x1
 5143 06ff 2001     		.2byte	0x120
 5144 0701 81000000 		.4byte	0x81
 5145 0705 02       		.uleb128 0x2
 5146 0706 91       		.byte	0x91
 5147 0707 46       		.sleb128 -58
 5148 0708 00       		.byte	0
 5149 0709 10       		.uleb128 0x10
 5150 070a EC0B0000 		.4byte	.LBB44
 5151 070e 1E000000 		.4byte	.LBE44-.LBB44
 5152 0712 24070000 		.4byte	0x724
 5153 0716 12       		.uleb128 0x12
 5154 0717 7800     		.ascii	"x\000"
 5155 0719 01       		.byte	0x1
 5156 071a 2401     		.2byte	0x124
 5157 071c 81000000 		.4byte	0x81
 5158 0720 02       		.uleb128 0x2
 5159 0721 91       		.byte	0x91
 5160 0722 45       		.sleb128 -59
 5161 0723 00       		.byte	0
 5162 0724 10       		.uleb128 0x10
 5163 0725 1A0C0000 		.4byte	.LBB45
 5164 0729 22000000 		.4byte	.LBE45-.LBB45
 5165 072d 3F070000 		.4byte	0x73f
 5166 0731 12       		.uleb128 0x12
 5167 0732 7800     		.ascii	"x\000"
 5168 0734 01       		.byte	0x1
 5169 0735 2901     		.2byte	0x129
 5170 0737 81000000 		.4byte	0x81
 5171 073b 02       		.uleb128 0x2
 5172 073c 91       		.byte	0x91
 5173 073d 44       		.sleb128 -60
 5174 073e 00       		.byte	0
 5175 073f 10       		.uleb128 0x10
 5176 0740 540C0000 		.4byte	.LBB46
 5177 0744 22000000 		.4byte	.LBE46-.LBB46
 5178 0748 5A070000 		.4byte	0x75a
 5179 074c 12       		.uleb128 0x12
 5180 074d 7800     		.ascii	"x\000"
 5181 074f 01       		.byte	0x1
 5182 0750 3001     		.2byte	0x130
 5183 0752 81000000 		.4byte	0x81
ARM GAS  C:\Users\Lenovo\AppData\Local\Temp\ccVx5qP5.s 			page 109


 5184 0756 02       		.uleb128 0x2
 5185 0757 91       		.byte	0x91
 5186 0758 43       		.sleb128 -61
 5187 0759 00       		.byte	0
 5188 075a 10       		.uleb128 0x10
 5189 075b 760C0000 		.4byte	.LBB47
 5190 075f 1E000000 		.4byte	.LBE47-.LBB47
 5191 0763 75070000 		.4byte	0x775
 5192 0767 12       		.uleb128 0x12
 5193 0768 7800     		.ascii	"x\000"
 5194 076a 01       		.byte	0x1
 5195 076b 3301     		.2byte	0x133
 5196 076d 81000000 		.4byte	0x81
 5197 0771 02       		.uleb128 0x2
 5198 0772 91       		.byte	0x91
 5199 0773 42       		.sleb128 -62
 5200 0774 00       		.byte	0
 5201 0775 10       		.uleb128 0x10
 5202 0776 B80C0000 		.4byte	.LBB48
 5203 077a 1E000000 		.4byte	.LBE48-.LBB48
 5204 077e 90070000 		.4byte	0x790
 5205 0782 12       		.uleb128 0x12
 5206 0783 7800     		.ascii	"x\000"
 5207 0785 01       		.byte	0x1
 5208 0786 3901     		.2byte	0x139
 5209 0788 81000000 		.4byte	0x81
 5210 078c 02       		.uleb128 0x2
 5211 078d 91       		.byte	0x91
 5212 078e 41       		.sleb128 -63
 5213 078f 00       		.byte	0
 5214 0790 10       		.uleb128 0x10
 5215 0791 D60C0000 		.4byte	.LBB49
 5216 0795 1E000000 		.4byte	.LBE49-.LBB49
 5217 0799 AB070000 		.4byte	0x7ab
 5218 079d 12       		.uleb128 0x12
 5219 079e 7800     		.ascii	"x\000"
 5220 07a0 01       		.byte	0x1
 5221 07a1 3C01     		.2byte	0x13c
 5222 07a3 81000000 		.4byte	0x81
 5223 07a7 02       		.uleb128 0x2
 5224 07a8 91       		.byte	0x91
 5225 07a9 40       		.sleb128 -64
 5226 07aa 00       		.byte	0
 5227 07ab 10       		.uleb128 0x10
 5228 07ac F40C0000 		.4byte	.LBB50
 5229 07b0 4C000000 		.4byte	.LBE50-.LBB50
 5230 07b4 C7070000 		.4byte	0x7c7
 5231 07b8 12       		.uleb128 0x12
 5232 07b9 7800     		.ascii	"x\000"
 5233 07bb 01       		.byte	0x1
 5234 07bc 3F01     		.2byte	0x13f
 5235 07be 81000000 		.4byte	0x81
 5236 07c2 03       		.uleb128 0x3
 5237 07c3 91       		.byte	0x91
 5238 07c4 BF7F     		.sleb128 -65
 5239 07c6 00       		.byte	0
 5240 07c7 10       		.uleb128 0x10
ARM GAS  C:\Users\Lenovo\AppData\Local\Temp\ccVx5qP5.s 			page 110


 5241 07c8 400D0000 		.4byte	.LBB51
 5242 07cc 36000000 		.4byte	.LBE51-.LBB51
 5243 07d0 E3070000 		.4byte	0x7e3
 5244 07d4 12       		.uleb128 0x12
 5245 07d5 7800     		.ascii	"x\000"
 5246 07d7 01       		.byte	0x1
 5247 07d8 4201     		.2byte	0x142
 5248 07da 81000000 		.4byte	0x81
 5249 07de 03       		.uleb128 0x3
 5250 07df 91       		.byte	0x91
 5251 07e0 BE7F     		.sleb128 -66
 5252 07e2 00       		.byte	0
 5253 07e3 10       		.uleb128 0x10
 5254 07e4 900D0000 		.4byte	.LBB52
 5255 07e8 1E000000 		.4byte	.LBE52-.LBB52
 5256 07ec FF070000 		.4byte	0x7ff
 5257 07f0 12       		.uleb128 0x12
 5258 07f1 7800     		.ascii	"x\000"
 5259 07f3 01       		.byte	0x1
 5260 07f4 4A01     		.2byte	0x14a
 5261 07f6 81000000 		.4byte	0x81
 5262 07fa 03       		.uleb128 0x3
 5263 07fb 91       		.byte	0x91
 5264 07fc BD7F     		.sleb128 -67
 5265 07fe 00       		.byte	0
 5266 07ff 10       		.uleb128 0x10
 5267 0800 BE0D0000 		.4byte	.LBB53
 5268 0804 22000000 		.4byte	.LBE53-.LBB53
 5269 0808 1B080000 		.4byte	0x81b
 5270 080c 12       		.uleb128 0x12
 5271 080d 7800     		.ascii	"x\000"
 5272 080f 01       		.byte	0x1
 5273 0810 4F01     		.2byte	0x14f
 5274 0812 81000000 		.4byte	0x81
 5275 0816 03       		.uleb128 0x3
 5276 0817 91       		.byte	0x91
 5277 0818 BC7F     		.sleb128 -68
 5278 081a 00       		.byte	0
 5279 081b 10       		.uleb128 0x10
 5280 081c EA0D0000 		.4byte	.LBB54
 5281 0820 1E000000 		.4byte	.LBE54-.LBB54
 5282 0824 37080000 		.4byte	0x837
 5283 0828 12       		.uleb128 0x12
 5284 0829 7800     		.ascii	"x\000"
 5285 082b 01       		.byte	0x1
 5286 082c 5301     		.2byte	0x153
 5287 082e 81000000 		.4byte	0x81
 5288 0832 03       		.uleb128 0x3
 5289 0833 91       		.byte	0x91
 5290 0834 BB7F     		.sleb128 -69
 5291 0836 00       		.byte	0
 5292 0837 10       		.uleb128 0x10
 5293 0838 180E0000 		.4byte	.LBB55
 5294 083c 22000000 		.4byte	.LBE55-.LBB55
 5295 0840 53080000 		.4byte	0x853
 5296 0844 12       		.uleb128 0x12
 5297 0845 7800     		.ascii	"x\000"
ARM GAS  C:\Users\Lenovo\AppData\Local\Temp\ccVx5qP5.s 			page 111


 5298 0847 01       		.byte	0x1
 5299 0848 5801     		.2byte	0x158
 5300 084a 81000000 		.4byte	0x81
 5301 084e 03       		.uleb128 0x3
 5302 084f 91       		.byte	0x91
 5303 0850 BA7F     		.sleb128 -70
 5304 0852 00       		.byte	0
 5305 0853 10       		.uleb128 0x10
 5306 0854 440E0000 		.4byte	.LBB56
 5307 0858 1E000000 		.4byte	.LBE56-.LBB56
 5308 085c 6F080000 		.4byte	0x86f
 5309 0860 12       		.uleb128 0x12
 5310 0861 7800     		.ascii	"x\000"
 5311 0863 01       		.byte	0x1
 5312 0864 5F01     		.2byte	0x15f
 5313 0866 81000000 		.4byte	0x81
 5314 086a 03       		.uleb128 0x3
 5315 086b 91       		.byte	0x91
 5316 086c B97F     		.sleb128 -71
 5317 086e 00       		.byte	0
 5318 086f 10       		.uleb128 0x10
 5319 0870 6C0E0000 		.4byte	.LBB57
 5320 0874 1E000000 		.4byte	.LBE57-.LBB57
 5321 0878 8B080000 		.4byte	0x88b
 5322 087c 12       		.uleb128 0x12
 5323 087d 7800     		.ascii	"x\000"
 5324 087f 01       		.byte	0x1
 5325 0880 6301     		.2byte	0x163
 5326 0882 81000000 		.4byte	0x81
 5327 0886 03       		.uleb128 0x3
 5328 0887 91       		.byte	0x91
 5329 0888 B87F     		.sleb128 -72
 5330 088a 00       		.byte	0
 5331 088b 13       		.uleb128 0x13
 5332 088c 940E0000 		.4byte	.LBB58
 5333 0890 1E000000 		.4byte	.LBE58-.LBB58
 5334 0894 12       		.uleb128 0x12
 5335 0895 7800     		.ascii	"x\000"
 5336 0897 01       		.byte	0x1
 5337 0898 6701     		.2byte	0x167
 5338 089a 81000000 		.4byte	0x81
 5339 089e 03       		.uleb128 0x3
 5340 089f 91       		.byte	0x91
 5341 08a0 B77F     		.sleb128 -73
 5342 08a2 00       		.byte	0
 5343 08a3 00       		.byte	0
 5344 08a4 14       		.uleb128 0x14
 5345 08a5 F4000000 		.4byte	.LASF39
 5346 08a9 01       		.byte	0x1
 5347 08aa 7201     		.2byte	0x172
 5348 08ac 00000000 		.4byte	.LFB65
 5349 08b0 980E0000 		.4byte	.LFE65-.LFB65
 5350 08b4 01       		.uleb128 0x1
 5351 08b5 9C       		.byte	0x9c
 5352 08b6 3F0E0000 		.4byte	0xe3f
 5353 08ba 15       		.uleb128 0x15
 5354 08bb 64040000 		.4byte	.LASF36
ARM GAS  C:\Users\Lenovo\AppData\Local\Temp\ccVx5qP5.s 			page 112


 5355 08bf 01       		.byte	0x1
 5356 08c0 7301     		.2byte	0x173
 5357 08c2 81000000 		.4byte	0x81
 5358 08c6 03       		.uleb128 0x3
 5359 08c7 91       		.byte	0x91
 5360 08c8 BF7F     		.sleb128 -65
 5361 08ca 12       		.uleb128 0x12
 5362 08cb 706F7300 		.ascii	"pos\000"
 5363 08cf 01       		.byte	0x1
 5364 08d0 7301     		.2byte	0x173
 5365 08d2 81000000 		.4byte	0x81
 5366 08d6 02       		.uleb128 0x2
 5367 08d7 91       		.byte	0x91
 5368 08d8 6F       		.sleb128 -17
 5369 08d9 15       		.uleb128 0x15
 5370 08da D9030000 		.4byte	.LASF40
 5371 08de 01       		.byte	0x1
 5372 08df 7401     		.2byte	0x174
 5373 08e1 3F0E0000 		.4byte	0xe3f
 5374 08e5 03       		.uleb128 0x3
 5375 08e6 91       		.byte	0x91
 5376 08e7 A47F     		.sleb128 -92
 5377 08e9 15       		.uleb128 0x15
 5378 08ea 10030000 		.4byte	.LASF41
 5379 08ee 01       		.byte	0x1
 5380 08ef 7401     		.2byte	0x174
 5381 08f1 3F0E0000 		.4byte	0xe3f
 5382 08f5 03       		.uleb128 0x3
 5383 08f6 91       		.byte	0x91
 5384 08f7 987F     		.sleb128 -104
 5385 08f9 15       		.uleb128 0x15
 5386 08fa CA030000 		.4byte	.LASF42
 5387 08fe 01       		.byte	0x1
 5388 08ff 7401     		.2byte	0x174
 5389 0901 3F0E0000 		.4byte	0xe3f
 5390 0905 03       		.uleb128 0x3
 5391 0906 91       		.byte	0x91
 5392 0907 8C7F     		.sleb128 -116
 5393 0909 15       		.uleb128 0x15
 5394 090a BC040000 		.4byte	.LASF43
 5395 090e 01       		.byte	0x1
 5396 090f 7401     		.2byte	0x174
 5397 0911 3F0E0000 		.4byte	0xe3f
 5398 0915 03       		.uleb128 0x3
 5399 0916 91       		.byte	0x91
 5400 0917 807F     		.sleb128 -128
 5401 0919 15       		.uleb128 0x15
 5402 091a 23030000 		.4byte	.LASF44
 5403 091e 01       		.byte	0x1
 5404 091f 7501     		.2byte	0x175
 5405 0921 99000000 		.4byte	0x99
 5406 0925 03       		.uleb128 0x3
 5407 0926 91       		.byte	0x91
 5408 0927 B47F     		.sleb128 -76
 5409 0929 15       		.uleb128 0x15
 5410 092a ED040000 		.4byte	.LASF45
 5411 092e 01       		.byte	0x1
ARM GAS  C:\Users\Lenovo\AppData\Local\Temp\ccVx5qP5.s 			page 113


 5412 092f 7501     		.2byte	0x175
 5413 0931 99000000 		.4byte	0x99
 5414 0935 03       		.uleb128 0x3
 5415 0936 91       		.byte	0x91
 5416 0937 B87F     		.sleb128 -72
 5417 0939 15       		.uleb128 0x15
 5418 093a C4030000 		.4byte	.LASF46
 5419 093e 01       		.byte	0x1
 5420 093f 7501     		.2byte	0x175
 5421 0941 99000000 		.4byte	0x99
 5422 0945 03       		.uleb128 0x3
 5423 0946 91       		.byte	0x91
 5424 0947 B07F     		.sleb128 -80
 5425 0949 10       		.uleb128 0x10
 5426 094a 06000000 		.4byte	.LBB59
 5427 094e 28000000 		.4byte	.LBE59-.LBB59
 5428 0952 66090000 		.4byte	0x966
 5429 0956 15       		.uleb128 0x15
 5430 0957 B1010000 		.4byte	.LASF37
 5431 095b 01       		.byte	0x1
 5432 095c 7601     		.2byte	0x176
 5433 095e 81000000 		.4byte	0x81
 5434 0962 02       		.uleb128 0x2
 5435 0963 91       		.byte	0x91
 5436 0964 6E       		.sleb128 -18
 5437 0965 00       		.byte	0
 5438 0966 10       		.uleb128 0x10
 5439 0967 46000000 		.4byte	.LBB60
 5440 096b 2E000000 		.4byte	.LBE60-.LBB60
 5441 096f 83090000 		.4byte	0x983
 5442 0973 15       		.uleb128 0x15
 5443 0974 B1010000 		.4byte	.LASF37
 5444 0978 01       		.byte	0x1
 5445 0979 7C01     		.2byte	0x17c
 5446 097b 81000000 		.4byte	0x81
 5447 097f 02       		.uleb128 0x2
 5448 0980 91       		.byte	0x91
 5449 0981 6D       		.sleb128 -19
 5450 0982 00       		.byte	0
 5451 0983 10       		.uleb128 0x10
 5452 0984 D8010000 		.4byte	.LBB61
 5453 0988 32000000 		.4byte	.LBE61-.LBB61
 5454 098c 9E090000 		.4byte	0x99e
 5455 0990 12       		.uleb128 0x12
 5456 0991 6900     		.ascii	"i\000"
 5457 0993 01       		.byte	0x1
 5458 0994 8801     		.2byte	0x188
 5459 0996 81000000 		.4byte	0x81
 5460 099a 02       		.uleb128 0x2
 5461 099b 91       		.byte	0x91
 5462 099c 6C       		.sleb128 -20
 5463 099d 00       		.byte	0
 5464 099e 10       		.uleb128 0x10
 5465 099f 14020000 		.4byte	.LBB62
 5466 09a3 28000000 		.4byte	.LBE62-.LBB62
 5467 09a7 B9090000 		.4byte	0x9b9
 5468 09ab 12       		.uleb128 0x12
ARM GAS  C:\Users\Lenovo\AppData\Local\Temp\ccVx5qP5.s 			page 114


 5469 09ac 7800     		.ascii	"x\000"
 5470 09ae 01       		.byte	0x1
 5471 09af 8C01     		.2byte	0x18c
 5472 09b1 81000000 		.4byte	0x81
 5473 09b5 02       		.uleb128 0x2
 5474 09b6 91       		.byte	0x91
 5475 09b7 6B       		.sleb128 -21
 5476 09b8 00       		.byte	0
 5477 09b9 10       		.uleb128 0x10
 5478 09ba 46020000 		.4byte	.LBB63
 5479 09be 28000000 		.4byte	.LBE63-.LBB63
 5480 09c2 D4090000 		.4byte	0x9d4
 5481 09c6 12       		.uleb128 0x12
 5482 09c7 7800     		.ascii	"x\000"
 5483 09c9 01       		.byte	0x1
 5484 09ca 9001     		.2byte	0x190
 5485 09cc 81000000 		.4byte	0x81
 5486 09d0 02       		.uleb128 0x2
 5487 09d1 91       		.byte	0x91
 5488 09d2 6A       		.sleb128 -22
 5489 09d3 00       		.byte	0
 5490 09d4 10       		.uleb128 0x10
 5491 09d5 78020000 		.4byte	.LBB64
 5492 09d9 28000000 		.4byte	.LBE64-.LBB64
 5493 09dd EF090000 		.4byte	0x9ef
 5494 09e1 12       		.uleb128 0x12
 5495 09e2 7800     		.ascii	"x\000"
 5496 09e4 01       		.byte	0x1
 5497 09e5 9401     		.2byte	0x194
 5498 09e7 81000000 		.4byte	0x81
 5499 09eb 02       		.uleb128 0x2
 5500 09ec 91       		.byte	0x91
 5501 09ed 69       		.sleb128 -23
 5502 09ee 00       		.byte	0
 5503 09ef 10       		.uleb128 0x10
 5504 09f0 AA020000 		.4byte	.LBB65
 5505 09f4 28000000 		.4byte	.LBE65-.LBB65
 5506 09f8 0A0A0000 		.4byte	0xa0a
 5507 09fc 12       		.uleb128 0x12
 5508 09fd 7800     		.ascii	"x\000"
 5509 09ff 01       		.byte	0x1
 5510 0a00 9801     		.2byte	0x198
 5511 0a02 81000000 		.4byte	0x81
 5512 0a06 02       		.uleb128 0x2
 5513 0a07 91       		.byte	0x91
 5514 0a08 68       		.sleb128 -24
 5515 0a09 00       		.byte	0
 5516 0a0a 10       		.uleb128 0x10
 5517 0a0b DC020000 		.4byte	.LBB66
 5518 0a0f 28000000 		.4byte	.LBE66-.LBB66
 5519 0a13 250A0000 		.4byte	0xa25
 5520 0a17 12       		.uleb128 0x12
 5521 0a18 7800     		.ascii	"x\000"
 5522 0a1a 01       		.byte	0x1
 5523 0a1b 9C01     		.2byte	0x19c
 5524 0a1d 81000000 		.4byte	0x81
 5525 0a21 02       		.uleb128 0x2
ARM GAS  C:\Users\Lenovo\AppData\Local\Temp\ccVx5qP5.s 			page 115


 5526 0a22 91       		.byte	0x91
 5527 0a23 67       		.sleb128 -25
 5528 0a24 00       		.byte	0
 5529 0a25 10       		.uleb128 0x10
 5530 0a26 04030000 		.4byte	.LBB67
 5531 0a2a 60000000 		.4byte	.LBE67-.LBB67
 5532 0a2e 400A0000 		.4byte	0xa40
 5533 0a32 12       		.uleb128 0x12
 5534 0a33 7800     		.ascii	"x\000"
 5535 0a35 01       		.byte	0x1
 5536 0a36 A001     		.2byte	0x1a0
 5537 0a38 81000000 		.4byte	0x81
 5538 0a3c 02       		.uleb128 0x2
 5539 0a3d 91       		.byte	0x91
 5540 0a3e 66       		.sleb128 -26
 5541 0a3f 00       		.byte	0
 5542 0a40 10       		.uleb128 0x10
 5543 0a41 EC030000 		.4byte	.LBB68
 5544 0a45 28000000 		.4byte	.LBE68-.LBB68
 5545 0a49 5B0A0000 		.4byte	0xa5b
 5546 0a4d 12       		.uleb128 0x12
 5547 0a4e 7800     		.ascii	"x\000"
 5548 0a50 01       		.byte	0x1
 5549 0a51 AE01     		.2byte	0x1ae
 5550 0a53 81000000 		.4byte	0x81
 5551 0a57 02       		.uleb128 0x2
 5552 0a58 91       		.byte	0x91
 5553 0a59 65       		.sleb128 -27
 5554 0a5a 00       		.byte	0
 5555 0a5b 10       		.uleb128 0x10
 5556 0a5c 9C040000 		.4byte	.LBB69
 5557 0a60 28000000 		.4byte	.LBE69-.LBB69
 5558 0a64 760A0000 		.4byte	0xa76
 5559 0a68 12       		.uleb128 0x12
 5560 0a69 7800     		.ascii	"x\000"
 5561 0a6b 01       		.byte	0x1
 5562 0a6c BA01     		.2byte	0x1ba
 5563 0a6e 81000000 		.4byte	0x81
 5564 0a72 02       		.uleb128 0x2
 5565 0a73 91       		.byte	0x91
 5566 0a74 64       		.sleb128 -28
 5567 0a75 00       		.byte	0
 5568 0a76 10       		.uleb128 0x10
 5569 0a77 C4040000 		.4byte	.LBB70
 5570 0a7b 28000000 		.4byte	.LBE70-.LBB70
 5571 0a7f 910A0000 		.4byte	0xa91
 5572 0a83 12       		.uleb128 0x12
 5573 0a84 7800     		.ascii	"x\000"
 5574 0a86 01       		.byte	0x1
 5575 0a87 BE01     		.2byte	0x1be
 5576 0a89 81000000 		.4byte	0x81
 5577 0a8d 02       		.uleb128 0x2
 5578 0a8e 91       		.byte	0x91
 5579 0a8f 63       		.sleb128 -29
 5580 0a90 00       		.byte	0
 5581 0a91 10       		.uleb128 0x10
 5582 0a92 EC040000 		.4byte	.LBB71
ARM GAS  C:\Users\Lenovo\AppData\Local\Temp\ccVx5qP5.s 			page 116


 5583 0a96 28000000 		.4byte	.LBE71-.LBB71
 5584 0a9a AC0A0000 		.4byte	0xaac
 5585 0a9e 12       		.uleb128 0x12
 5586 0a9f 7800     		.ascii	"x\000"
 5587 0aa1 01       		.byte	0x1
 5588 0aa2 C101     		.2byte	0x1c1
 5589 0aa4 81000000 		.4byte	0x81
 5590 0aa8 02       		.uleb128 0x2
 5591 0aa9 91       		.byte	0x91
 5592 0aaa 62       		.sleb128 -30
 5593 0aab 00       		.byte	0
 5594 0aac 10       		.uleb128 0x10
 5595 0aad 28050000 		.4byte	.LBB72
 5596 0ab1 28000000 		.4byte	.LBE72-.LBB72
 5597 0ab5 C70A0000 		.4byte	0xac7
 5598 0ab9 12       		.uleb128 0x12
 5599 0aba 7800     		.ascii	"x\000"
 5600 0abc 01       		.byte	0x1
 5601 0abd C601     		.2byte	0x1c6
 5602 0abf 81000000 		.4byte	0x81
 5603 0ac3 02       		.uleb128 0x2
 5604 0ac4 91       		.byte	0x91
 5605 0ac5 61       		.sleb128 -31
 5606 0ac6 00       		.byte	0
 5607 0ac7 10       		.uleb128 0x10
 5608 0ac8 68050000 		.4byte	.LBB73
 5609 0acc 28000000 		.4byte	.LBE73-.LBB73
 5610 0ad0 E20A0000 		.4byte	0xae2
 5611 0ad4 12       		.uleb128 0x12
 5612 0ad5 7800     		.ascii	"x\000"
 5613 0ad7 01       		.byte	0x1
 5614 0ad8 CB01     		.2byte	0x1cb
 5615 0ada 81000000 		.4byte	0x81
 5616 0ade 02       		.uleb128 0x2
 5617 0adf 91       		.byte	0x91
 5618 0ae0 60       		.sleb128 -32
 5619 0ae1 00       		.byte	0
 5620 0ae2 10       		.uleb128 0x10
 5621 0ae3 9A050000 		.4byte	.LBB74
 5622 0ae7 42000000 		.4byte	.LBE74-.LBB74
 5623 0aeb FD0A0000 		.4byte	0xafd
 5624 0aef 12       		.uleb128 0x12
 5625 0af0 7800     		.ascii	"x\000"
 5626 0af2 01       		.byte	0x1
 5627 0af3 D001     		.2byte	0x1d0
 5628 0af5 81000000 		.4byte	0x81
 5629 0af9 02       		.uleb128 0x2
 5630 0afa 91       		.byte	0x91
 5631 0afb 5F       		.sleb128 -33
 5632 0afc 00       		.byte	0
 5633 0afd 10       		.uleb128 0x10
 5634 0afe E6050000 		.4byte	.LBB75
 5635 0b02 36000000 		.4byte	.LBE75-.LBB75
 5636 0b06 180B0000 		.4byte	0xb18
 5637 0b0a 12       		.uleb128 0x12
 5638 0b0b 7800     		.ascii	"x\000"
 5639 0b0d 01       		.byte	0x1
ARM GAS  C:\Users\Lenovo\AppData\Local\Temp\ccVx5qP5.s 			page 117


 5640 0b0e D601     		.2byte	0x1d6
 5641 0b10 81000000 		.4byte	0x81
 5642 0b14 02       		.uleb128 0x2
 5643 0b15 91       		.byte	0x91
 5644 0b16 5E       		.sleb128 -34
 5645 0b17 00       		.byte	0
 5646 0b18 10       		.uleb128 0x10
 5647 0b19 1C060000 		.4byte	.LBB76
 5648 0b1d 28000000 		.4byte	.LBE76-.LBB76
 5649 0b21 330B0000 		.4byte	0xb33
 5650 0b25 12       		.uleb128 0x12
 5651 0b26 7800     		.ascii	"x\000"
 5652 0b28 01       		.byte	0x1
 5653 0b29 DB01     		.2byte	0x1db
 5654 0b2b 81000000 		.4byte	0x81
 5655 0b2f 02       		.uleb128 0x2
 5656 0b30 91       		.byte	0x91
 5657 0b31 5D       		.sleb128 -35
 5658 0b32 00       		.byte	0
 5659 0b33 10       		.uleb128 0x10
 5660 0b34 4E060000 		.4byte	.LBB77
 5661 0b38 6E000000 		.4byte	.LBE77-.LBB77
 5662 0b3c 4E0B0000 		.4byte	0xb4e
 5663 0b40 12       		.uleb128 0x12
 5664 0b41 7800     		.ascii	"x\000"
 5665 0b43 01       		.byte	0x1
 5666 0b44 DF01     		.2byte	0x1df
 5667 0b46 81000000 		.4byte	0x81
 5668 0b4a 02       		.uleb128 0x2
 5669 0b4b 91       		.byte	0x91
 5670 0b4c 5C       		.sleb128 -36
 5671 0b4d 00       		.byte	0
 5672 0b4e 10       		.uleb128 0x10
 5673 0b4f BC060000 		.4byte	.LBB78
 5674 0b53 44000000 		.4byte	.LBE78-.LBB78
 5675 0b57 690B0000 		.4byte	0xb69
 5676 0b5b 12       		.uleb128 0x12
 5677 0b5c 7800     		.ascii	"x\000"
 5678 0b5e 01       		.byte	0x1
 5679 0b5f E201     		.2byte	0x1e2
 5680 0b61 81000000 		.4byte	0x81
 5681 0b65 02       		.uleb128 0x2
 5682 0b66 91       		.byte	0x91
 5683 0b67 5B       		.sleb128 -37
 5684 0b68 00       		.byte	0
 5685 0b69 10       		.uleb128 0x10
 5686 0b6a 0A070000 		.4byte	.LBB79
 5687 0b6e 6E000000 		.4byte	.LBE79-.LBB79
 5688 0b72 840B0000 		.4byte	0xb84
 5689 0b76 12       		.uleb128 0x12
 5690 0b77 7800     		.ascii	"x\000"
 5691 0b79 01       		.byte	0x1
 5692 0b7a E901     		.2byte	0x1e9
 5693 0b7c 81000000 		.4byte	0x81
 5694 0b80 02       		.uleb128 0x2
 5695 0b81 91       		.byte	0x91
 5696 0b82 5A       		.sleb128 -38
ARM GAS  C:\Users\Lenovo\AppData\Local\Temp\ccVx5qP5.s 			page 118


 5697 0b83 00       		.byte	0
 5698 0b84 10       		.uleb128 0x10
 5699 0b85 A8070000 		.4byte	.LBB80
 5700 0b89 28000000 		.4byte	.LBE80-.LBB80
 5701 0b8d 9F0B0000 		.4byte	0xb9f
 5702 0b91 12       		.uleb128 0x12
 5703 0b92 7800     		.ascii	"x\000"
 5704 0b94 01       		.byte	0x1
 5705 0b95 F401     		.2byte	0x1f4
 5706 0b97 81000000 		.4byte	0x81
 5707 0b9b 02       		.uleb128 0x2
 5708 0b9c 91       		.byte	0x91
 5709 0b9d 59       		.sleb128 -39
 5710 0b9e 00       		.byte	0
 5711 0b9f 10       		.uleb128 0x10
 5712 0ba0 DA070000 		.4byte	.LBB81
 5713 0ba4 44000000 		.4byte	.LBE81-.LBB81
 5714 0ba8 BA0B0000 		.4byte	0xbba
 5715 0bac 12       		.uleb128 0x12
 5716 0bad 7800     		.ascii	"x\000"
 5717 0baf 01       		.byte	0x1
 5718 0bb0 F801     		.2byte	0x1f8
 5719 0bb2 81000000 		.4byte	0x81
 5720 0bb6 02       		.uleb128 0x2
 5721 0bb7 91       		.byte	0x91
 5722 0bb8 58       		.sleb128 -40
 5723 0bb9 00       		.byte	0
 5724 0bba 10       		.uleb128 0x10
 5725 0bbb 28080000 		.4byte	.LBB82
 5726 0bbf 28000000 		.4byte	.LBE82-.LBB82
 5727 0bc3 D50B0000 		.4byte	0xbd5
 5728 0bc7 12       		.uleb128 0x12
 5729 0bc8 7800     		.ascii	"x\000"
 5730 0bca 01       		.byte	0x1
 5731 0bcb FE01     		.2byte	0x1fe
 5732 0bcd 81000000 		.4byte	0x81
 5733 0bd1 02       		.uleb128 0x2
 5734 0bd2 91       		.byte	0x91
 5735 0bd3 57       		.sleb128 -41
 5736 0bd4 00       		.byte	0
 5737 0bd5 10       		.uleb128 0x10
 5738 0bd6 5A080000 		.4byte	.LBB83
 5739 0bda 28000000 		.4byte	.LBE83-.LBB83
 5740 0bde F00B0000 		.4byte	0xbf0
 5741 0be2 12       		.uleb128 0x12
 5742 0be3 7800     		.ascii	"x\000"
 5743 0be5 01       		.byte	0x1
 5744 0be6 0202     		.2byte	0x202
 5745 0be8 81000000 		.4byte	0x81
 5746 0bec 02       		.uleb128 0x2
 5747 0bed 91       		.byte	0x91
 5748 0bee 56       		.sleb128 -42
 5749 0bef 00       		.byte	0
 5750 0bf0 10       		.uleb128 0x10
 5751 0bf1 9C080000 		.4byte	.LBB84
 5752 0bf5 28000000 		.4byte	.LBE84-.LBB84
 5753 0bf9 0B0C0000 		.4byte	0xc0b
ARM GAS  C:\Users\Lenovo\AppData\Local\Temp\ccVx5qP5.s 			page 119


 5754 0bfd 12       		.uleb128 0x12
 5755 0bfe 7800     		.ascii	"x\000"
 5756 0c00 01       		.byte	0x1
 5757 0c01 0702     		.2byte	0x207
 5758 0c03 81000000 		.4byte	0x81
 5759 0c07 02       		.uleb128 0x2
 5760 0c08 91       		.byte	0x91
 5761 0c09 55       		.sleb128 -43
 5762 0c0a 00       		.byte	0
 5763 0c0b 10       		.uleb128 0x10
 5764 0c0c CE080000 		.4byte	.LBB85
 5765 0c10 42000000 		.4byte	.LBE85-.LBB85
 5766 0c14 260C0000 		.4byte	0xc26
 5767 0c18 12       		.uleb128 0x12
 5768 0c19 7800     		.ascii	"x\000"
 5769 0c1b 01       		.byte	0x1
 5770 0c1c 0B02     		.2byte	0x20b
 5771 0c1e 81000000 		.4byte	0x81
 5772 0c22 02       		.uleb128 0x2
 5773 0c23 91       		.byte	0x91
 5774 0c24 54       		.sleb128 -44
 5775 0c25 00       		.byte	0
 5776 0c26 10       		.uleb128 0x10
 5777 0c27 1A090000 		.4byte	.LBB86
 5778 0c2b 28000000 		.4byte	.LBE86-.LBB86
 5779 0c2f 410C0000 		.4byte	0xc41
 5780 0c33 12       		.uleb128 0x12
 5781 0c34 7800     		.ascii	"x\000"
 5782 0c36 01       		.byte	0x1
 5783 0c37 1102     		.2byte	0x211
 5784 0c39 81000000 		.4byte	0x81
 5785 0c3d 02       		.uleb128 0x2
 5786 0c3e 91       		.byte	0x91
 5787 0c3f 53       		.sleb128 -45
 5788 0c40 00       		.byte	0
 5789 0c41 10       		.uleb128 0x10
 5790 0c42 4C090000 		.4byte	.LBB87
 5791 0c46 3C000000 		.4byte	.LBE87-.LBB87
 5792 0c4a 5C0C0000 		.4byte	0xc5c
 5793 0c4e 12       		.uleb128 0x12
 5794 0c4f 7800     		.ascii	"x\000"
 5795 0c51 01       		.byte	0x1
 5796 0c52 1502     		.2byte	0x215
 5797 0c54 81000000 		.4byte	0x81
 5798 0c58 02       		.uleb128 0x2
 5799 0c59 91       		.byte	0x91
 5800 0c5a 52       		.sleb128 -46
 5801 0c5b 00       		.byte	0
 5802 0c5c 10       		.uleb128 0x10
 5803 0c5d 88090000 		.4byte	.LBB88
 5804 0c61 44000000 		.4byte	.LBE88-.LBB88
 5805 0c65 770C0000 		.4byte	0xc77
 5806 0c69 12       		.uleb128 0x12
 5807 0c6a 7800     		.ascii	"x\000"
 5808 0c6c 01       		.byte	0x1
 5809 0c6d 1802     		.2byte	0x218
 5810 0c6f 81000000 		.4byte	0x81
ARM GAS  C:\Users\Lenovo\AppData\Local\Temp\ccVx5qP5.s 			page 120


 5811 0c73 02       		.uleb128 0x2
 5812 0c74 91       		.byte	0x91
 5813 0c75 51       		.sleb128 -47
 5814 0c76 00       		.byte	0
 5815 0c77 10       		.uleb128 0x10
 5816 0c78 D6090000 		.4byte	.LBB89
 5817 0c7c 8E000000 		.4byte	.LBE89-.LBB89
 5818 0c80 920C0000 		.4byte	0xc92
 5819 0c84 12       		.uleb128 0x12
 5820 0c85 7800     		.ascii	"x\000"
 5821 0c87 01       		.byte	0x1
 5822 0c88 1E02     		.2byte	0x21e
 5823 0c8a 81000000 		.4byte	0x81
 5824 0c8e 02       		.uleb128 0x2
 5825 0c8f 91       		.byte	0x91
 5826 0c90 50       		.sleb128 -48
 5827 0c91 00       		.byte	0
 5828 0c92 10       		.uleb128 0x10
 5829 0c93 940A0000 		.4byte	.LBB90
 5830 0c97 28000000 		.4byte	.LBE90-.LBB90
 5831 0c9b AD0C0000 		.4byte	0xcad
 5832 0c9f 12       		.uleb128 0x12
 5833 0ca0 7800     		.ascii	"x\000"
 5834 0ca2 01       		.byte	0x1
 5835 0ca3 2802     		.2byte	0x228
 5836 0ca5 81000000 		.4byte	0x81
 5837 0ca9 02       		.uleb128 0x2
 5838 0caa 91       		.byte	0x91
 5839 0cab 4F       		.sleb128 -49
 5840 0cac 00       		.byte	0
 5841 0cad 10       		.uleb128 0x10
 5842 0cae C60A0000 		.4byte	.LBB91
 5843 0cb2 44000000 		.4byte	.LBE91-.LBB91
 5844 0cb6 C80C0000 		.4byte	0xcc8
 5845 0cba 12       		.uleb128 0x12
 5846 0cbb 7800     		.ascii	"x\000"
 5847 0cbd 01       		.byte	0x1
 5848 0cbe 2C02     		.2byte	0x22c
 5849 0cc0 81000000 		.4byte	0x81
 5850 0cc4 02       		.uleb128 0x2
 5851 0cc5 91       		.byte	0x91
 5852 0cc6 4E       		.sleb128 -50
 5853 0cc7 00       		.byte	0
 5854 0cc8 10       		.uleb128 0x10
 5855 0cc9 200B0000 		.4byte	.LBB92
 5856 0ccd 28000000 		.4byte	.LBE92-.LBB92
 5857 0cd1 E30C0000 		.4byte	0xce3
 5858 0cd5 12       		.uleb128 0x12
 5859 0cd6 7800     		.ascii	"x\000"
 5860 0cd8 01       		.byte	0x1
 5861 0cd9 3402     		.2byte	0x234
 5862 0cdb 81000000 		.4byte	0x81
 5863 0cdf 02       		.uleb128 0x2
 5864 0ce0 91       		.byte	0x91
 5865 0ce1 4D       		.sleb128 -51
 5866 0ce2 00       		.byte	0
 5867 0ce3 10       		.uleb128 0x10
ARM GAS  C:\Users\Lenovo\AppData\Local\Temp\ccVx5qP5.s 			page 121


 5868 0ce4 520B0000 		.4byte	.LBB93
 5869 0ce8 28000000 		.4byte	.LBE93-.LBB93
 5870 0cec FE0C0000 		.4byte	0xcfe
 5871 0cf0 12       		.uleb128 0x12
 5872 0cf1 7800     		.ascii	"x\000"
 5873 0cf3 01       		.byte	0x1
 5874 0cf4 3802     		.2byte	0x238
 5875 0cf6 81000000 		.4byte	0x81
 5876 0cfa 02       		.uleb128 0x2
 5877 0cfb 91       		.byte	0x91
 5878 0cfc 4C       		.sleb128 -52
 5879 0cfd 00       		.byte	0
 5880 0cfe 10       		.uleb128 0x10
 5881 0cff 940B0000 		.4byte	.LBB94
 5882 0d03 42000000 		.4byte	.LBE94-.LBB94
 5883 0d07 190D0000 		.4byte	0xd19
 5884 0d0b 12       		.uleb128 0x12
 5885 0d0c 7800     		.ascii	"x\000"
 5886 0d0e 01       		.byte	0x1
 5887 0d0f 3D02     		.2byte	0x23d
 5888 0d11 81000000 		.4byte	0x81
 5889 0d15 02       		.uleb128 0x2
 5890 0d16 91       		.byte	0x91
 5891 0d17 4B       		.sleb128 -53
 5892 0d18 00       		.byte	0
 5893 0d19 10       		.uleb128 0x10
 5894 0d1a E00B0000 		.4byte	.LBB95
 5895 0d1e 28000000 		.4byte	.LBE95-.LBB95
 5896 0d22 340D0000 		.4byte	0xd34
 5897 0d26 12       		.uleb128 0x12
 5898 0d27 7800     		.ascii	"x\000"
 5899 0d29 01       		.byte	0x1
 5900 0d2a 4302     		.2byte	0x243
 5901 0d2c 81000000 		.4byte	0x81
 5902 0d30 02       		.uleb128 0x2
 5903 0d31 91       		.byte	0x91
 5904 0d32 4A       		.sleb128 -54
 5905 0d33 00       		.byte	0
 5906 0d34 10       		.uleb128 0x10
 5907 0d35 120C0000 		.4byte	.LBB96
 5908 0d39 28000000 		.4byte	.LBE96-.LBB96
 5909 0d3d 4F0D0000 		.4byte	0xd4f
 5910 0d41 12       		.uleb128 0x12
 5911 0d42 7800     		.ascii	"x\000"
 5912 0d44 01       		.byte	0x1
 5913 0d45 4702     		.2byte	0x247
 5914 0d47 81000000 		.4byte	0x81
 5915 0d4b 02       		.uleb128 0x2
 5916 0d4c 91       		.byte	0x91
 5917 0d4d 49       		.sleb128 -55
 5918 0d4e 00       		.byte	0
 5919 0d4f 10       		.uleb128 0x10
 5920 0d50 440C0000 		.4byte	.LBB97
 5921 0d54 28000000 		.4byte	.LBE97-.LBB97
 5922 0d58 6A0D0000 		.4byte	0xd6a
 5923 0d5c 12       		.uleb128 0x12
 5924 0d5d 7800     		.ascii	"x\000"
ARM GAS  C:\Users\Lenovo\AppData\Local\Temp\ccVx5qP5.s 			page 122


 5925 0d5f 01       		.byte	0x1
 5926 0d60 4B02     		.2byte	0x24b
 5927 0d62 81000000 		.4byte	0x81
 5928 0d66 02       		.uleb128 0x2
 5929 0d67 91       		.byte	0x91
 5930 0d68 48       		.sleb128 -56
 5931 0d69 00       		.byte	0
 5932 0d6a 10       		.uleb128 0x10
 5933 0d6b 860C0000 		.4byte	.LBB98
 5934 0d6f 42000000 		.4byte	.LBE98-.LBB98
 5935 0d73 850D0000 		.4byte	0xd85
 5936 0d77 12       		.uleb128 0x12
 5937 0d78 7800     		.ascii	"x\000"
 5938 0d7a 01       		.byte	0x1
 5939 0d7b 5002     		.2byte	0x250
 5940 0d7d 81000000 		.4byte	0x81
 5941 0d81 02       		.uleb128 0x2
 5942 0d82 91       		.byte	0x91
 5943 0d83 47       		.sleb128 -57
 5944 0d84 00       		.byte	0
 5945 0d85 10       		.uleb128 0x10
 5946 0d86 D20C0000 		.4byte	.LBB99
 5947 0d8a 28000000 		.4byte	.LBE99-.LBB99
 5948 0d8e A00D0000 		.4byte	0xda0
 5949 0d92 12       		.uleb128 0x12
 5950 0d93 7800     		.ascii	"x\000"
 5951 0d95 01       		.byte	0x1
 5952 0d96 5602     		.2byte	0x256
 5953 0d98 81000000 		.4byte	0x81
 5954 0d9c 02       		.uleb128 0x2
 5955 0d9d 91       		.byte	0x91
 5956 0d9e 46       		.sleb128 -58
 5957 0d9f 00       		.byte	0
 5958 0da0 10       		.uleb128 0x10
 5959 0da1 FA0C0000 		.4byte	.LBB100
 5960 0da5 28000000 		.4byte	.LBE100-.LBB100
 5961 0da9 BB0D0000 		.4byte	0xdbb
 5962 0dad 12       		.uleb128 0x12
 5963 0dae 7800     		.ascii	"x\000"
 5964 0db0 01       		.byte	0x1
 5965 0db1 5A02     		.2byte	0x25a
 5966 0db3 81000000 		.4byte	0x81
 5967 0db7 02       		.uleb128 0x2
 5968 0db8 91       		.byte	0x91
 5969 0db9 45       		.sleb128 -59
 5970 0dba 00       		.byte	0
 5971 0dbb 10       		.uleb128 0x10
 5972 0dbc 2C0D0000 		.4byte	.LBB101
 5973 0dc0 48000000 		.4byte	.LBE101-.LBB101
 5974 0dc4 D60D0000 		.4byte	0xdd6
 5975 0dc8 12       		.uleb128 0x12
 5976 0dc9 7800     		.ascii	"x\000"
 5977 0dcb 01       		.byte	0x1
 5978 0dcc 6002     		.2byte	0x260
 5979 0dce 81000000 		.4byte	0x81
 5980 0dd2 02       		.uleb128 0x2
 5981 0dd3 91       		.byte	0x91
ARM GAS  C:\Users\Lenovo\AppData\Local\Temp\ccVx5qP5.s 			page 123


 5982 0dd4 44       		.sleb128 -60
 5983 0dd5 00       		.byte	0
 5984 0dd6 10       		.uleb128 0x10
 5985 0dd7 7E0D0000 		.4byte	.LBB102
 5986 0ddb 28000000 		.4byte	.LBE102-.LBB102
 5987 0ddf F10D0000 		.4byte	0xdf1
 5988 0de3 12       		.uleb128 0x12
 5989 0de4 7800     		.ascii	"x\000"
 5990 0de6 01       		.byte	0x1
 5991 0de7 6402     		.2byte	0x264
 5992 0de9 81000000 		.4byte	0x81
 5993 0ded 02       		.uleb128 0x2
 5994 0dee 91       		.byte	0x91
 5995 0def 43       		.sleb128 -61
 5996 0df0 00       		.byte	0
 5997 0df1 10       		.uleb128 0x10
 5998 0df2 B00D0000 		.4byte	.LBB103
 5999 0df6 28000000 		.4byte	.LBE103-.LBB103
 6000 0dfa 0C0E0000 		.4byte	0xe0c
 6001 0dfe 12       		.uleb128 0x12
 6002 0dff 7800     		.ascii	"x\000"
 6003 0e01 01       		.byte	0x1
 6004 0e02 6802     		.2byte	0x268
 6005 0e04 81000000 		.4byte	0x81
 6006 0e08 02       		.uleb128 0x2
 6007 0e09 91       		.byte	0x91
 6008 0e0a 42       		.sleb128 -62
 6009 0e0b 00       		.byte	0
 6010 0e0c 10       		.uleb128 0x10
 6011 0e0d 0A0E0000 		.4byte	.LBB104
 6012 0e11 38000000 		.4byte	.LBE104-.LBB104
 6013 0e15 270E0000 		.4byte	0xe27
 6014 0e19 12       		.uleb128 0x12
 6015 0e1a 7800     		.ascii	"x\000"
 6016 0e1c 01       		.byte	0x1
 6017 0e1d 7002     		.2byte	0x270
 6018 0e1f 81000000 		.4byte	0x81
 6019 0e23 02       		.uleb128 0x2
 6020 0e24 91       		.byte	0x91
 6021 0e25 41       		.sleb128 -63
 6022 0e26 00       		.byte	0
 6023 0e27 13       		.uleb128 0x13
 6024 0e28 420E0000 		.4byte	.LBB105
 6025 0e2c 38000000 		.4byte	.LBE105-.LBB105
 6026 0e30 12       		.uleb128 0x12
 6027 0e31 7800     		.ascii	"x\000"
 6028 0e33 01       		.byte	0x1
 6029 0e34 7302     		.2byte	0x273
 6030 0e36 81000000 		.4byte	0x81
 6031 0e3a 02       		.uleb128 0x2
 6032 0e3b 91       		.byte	0x91
 6033 0e3c 40       		.sleb128 -64
 6034 0e3d 00       		.byte	0
 6035 0e3e 00       		.byte	0
 6036 0e3f 0A       		.uleb128 0xa
 6037 0e40 BF000000 		.4byte	0xbf
 6038 0e44 4F0E0000 		.4byte	0xe4f
ARM GAS  C:\Users\Lenovo\AppData\Local\Temp\ccVx5qP5.s 			page 124


 6039 0e48 0B       		.uleb128 0xb
 6040 0e49 D9000000 		.4byte	0xd9
 6041 0e4d 09       		.byte	0x9
 6042 0e4e 00       		.byte	0
 6043 0e4f 16       		.uleb128 0x16
 6044 0e50 A7030000 		.4byte	.LASF47
 6045 0e54 06       		.byte	0x6
 6046 0e55 1207     		.2byte	0x712
 6047 0e57 5B0E0000 		.4byte	0xe5b
 6048 0e5b 17       		.uleb128 0x17
 6049 0e5c 76000000 		.4byte	0x76
 6050 0e60 18       		.uleb128 0x18
 6051 0e61 FA020000 		.4byte	.LASF48
 6052 0e65 05       		.byte	0x5
 6053 0e66 10       		.byte	0x10
 6054 0e67 8D000000 		.4byte	0x8d
 6055 0e6b 05       		.uleb128 0x5
 6056 0e6c 03       		.byte	0x3
 6057 0e6d 00000000 		.4byte	PollCounter
 6058 0e71 18       		.uleb128 0x18
 6059 0e72 55030000 		.4byte	.LASF49
 6060 0e76 05       		.byte	0x5
 6061 0e77 11       		.byte	0x11
 6062 0e78 81000000 		.4byte	0x81
 6063 0e7c 05       		.uleb128 0x5
 6064 0e7d 03       		.byte	0x3
 6065 0e7e 00000000 		.4byte	CurrentState
 6066 0e82 18       		.uleb128 0x18
 6067 0e83 15010000 		.4byte	.LASF50
 6068 0e87 05       		.byte	0x5
 6069 0e88 12       		.byte	0x12
 6070 0e89 81000000 		.4byte	0x81
 6071 0e8d 05       		.uleb128 0x5
 6072 0e8e 03       		.byte	0x3
 6073 0e8f 00000000 		.4byte	Receipt
 6074 0e93 0A       		.uleb128 0xa
 6075 0e94 81000000 		.4byte	0x81
 6076 0e98 A30E0000 		.4byte	0xea3
 6077 0e9c 0B       		.uleb128 0xb
 6078 0e9d D9000000 		.4byte	0xd9
 6079 0ea1 05       		.byte	0x5
 6080 0ea2 00       		.byte	0
 6081 0ea3 18       		.uleb128 0x18
 6082 0ea4 C6040000 		.4byte	.LASF51
 6083 0ea8 05       		.byte	0x5
 6084 0ea9 13       		.byte	0x13
 6085 0eaa 930E0000 		.4byte	0xe93
 6086 0eae 05       		.uleb128 0x5
 6087 0eaf 03       		.byte	0x3
 6088 0eb0 00000000 		.4byte	sale_number
 6089 0eb4 18       		.uleb128 0x18
 6090 0eb5 0C000000 		.4byte	.LASF52
 6091 0eb9 05       		.byte	0x5
 6092 0eba 14       		.byte	0x14
 6093 0ebb 81000000 		.4byte	0x81
 6094 0ebf 05       		.uleb128 0x5
 6095 0ec0 03       		.byte	0x3
ARM GAS  C:\Users\Lenovo\AppData\Local\Temp\ccVx5qP5.s 			page 125


 6096 0ec1 00000000 		.4byte	int_salenumber
 6097 0ec5 18       		.uleb128 0x18
 6098 0ec6 99040000 		.4byte	.LASF53
 6099 0eca 05       		.byte	0x5
 6100 0ecb 15       		.byte	0x15
 6101 0ecc 930E0000 		.4byte	0xe93
 6102 0ed0 05       		.uleb128 0x5
 6103 0ed1 03       		.byte	0x3
 6104 0ed2 00000000 		.4byte	shift_number
 6105 0ed6 18       		.uleb128 0x18
 6106 0ed7 F5010000 		.4byte	.LASF54
 6107 0edb 05       		.byte	0x5
 6108 0edc 16       		.byte	0x16
 6109 0edd 81000000 		.4byte	0x81
 6110 0ee1 05       		.uleb128 0x5
 6111 0ee2 03       		.byte	0x3
 6112 0ee3 00000000 		.4byte	int_shiftnumber
 6113 0ee7 18       		.uleb128 0x18
 6114 0ee8 05020000 		.4byte	.LASF55
 6115 0eec 05       		.byte	0x5
 6116 0eed 17       		.byte	0x17
 6117 0eee 81000000 		.4byte	0x81
 6118 0ef2 05       		.uleb128 0x5
 6119 0ef3 03       		.byte	0x3
 6120 0ef4 00000000 		.4byte	LCDhose
 6121 0ef8 18       		.uleb128 0x18
 6122 0ef9 C7000000 		.4byte	.LASF56
 6123 0efd 05       		.byte	0x5
 6124 0efe 3A       		.byte	0x3a
 6125 0eff 4D020000 		.4byte	0x24d
 6126 0f03 05       		.uleb128 0x5
 6127 0f04 03       		.byte	0x3
 6128 0f05 00000000 		.4byte	side
 6129 0f09 18       		.uleb128 0x18
 6130 0f0a 07040000 		.4byte	.LASF57
 6131 0f0e 05       		.byte	0x5
 6132 0f0f 43       		.byte	0x43
 6133 0f10 FB010000 		.4byte	0x1fb
 6134 0f14 05       		.uleb128 0x5
 6135 0f15 03       		.byte	0x3
 6136 0f16 00000000 		.4byte	MepsanResponse
 6137 0f1a 18       		.uleb128 0x18
 6138 0f1b 31030000 		.4byte	.LASF58
 6139 0f1f 05       		.byte	0x5
 6140 0f20 44       		.byte	0x44
 6141 0f21 FB010000 		.4byte	0x1fb
 6142 0f25 05       		.uleb128 0x5
 6143 0f26 03       		.byte	0x3
 6144 0f27 00000000 		.4byte	MepsanSendTo
 6145 0f2b 0A       		.uleb128 0xa
 6146 0f2c 81000000 		.4byte	0x81
 6147 0f30 3B0F0000 		.4byte	0xf3b
 6148 0f34 0B       		.uleb128 0xb
 6149 0f35 D9000000 		.4byte	0xd9
 6150 0f39 0E       		.byte	0xe
 6151 0f3a 00       		.byte	0
 6152 0f3b 18       		.uleb128 0x18
ARM GAS  C:\Users\Lenovo\AppData\Local\Temp\ccVx5qP5.s 			page 126


 6153 0f3c 00000000 		.4byte	.LASF59
 6154 0f40 05       		.byte	0x5
 6155 0f41 45       		.byte	0x45
 6156 0f42 2B0F0000 		.4byte	0xf2b
 6157 0f46 05       		.uleb128 0x5
 6158 0f47 03       		.byte	0x3
 6159 0f48 00000000 		.4byte	PumpAddress
 6160 0f4c 19       		.uleb128 0x19
 6161 0f4d 43524300 		.ascii	"CRC\000"
 6162 0f51 05       		.byte	0x5
 6163 0f52 46       		.byte	0x46
 6164 0f53 8D000000 		.4byte	0x8d
 6165 0f57 05       		.uleb128 0x5
 6166 0f58 03       		.byte	0x3
 6167 0f59 00000000 		.4byte	CRC
 6168 0f5d 18       		.uleb128 0x18
 6169 0f5e F3030000 		.4byte	.LASF60
 6170 0f62 05       		.byte	0x5
 6171 0f63 47       		.byte	0x47
 6172 0f64 81000000 		.4byte	0x81
 6173 0f68 05       		.uleb128 0x5
 6174 0f69 03       		.byte	0x3
 6175 0f6a 00000000 		.4byte	crc_lo
 6176 0f6e 18       		.uleb128 0x18
 6177 0f6f 97030000 		.4byte	.LASF61
 6178 0f73 05       		.byte	0x5
 6179 0f74 47       		.byte	0x47
 6180 0f75 81000000 		.4byte	0x81
 6181 0f79 05       		.uleb128 0x5
 6182 0f7a 03       		.byte	0x3
 6183 0f7b 00000000 		.4byte	crc_hi
 6184 0f7f 18       		.uleb128 0x18
 6185 0f80 C3020000 		.4byte	.LASF62
 6186 0f84 05       		.byte	0x5
 6187 0f85 48       		.byte	0x48
 6188 0f86 81000000 		.4byte	0x81
 6189 0f8a 05       		.uleb128 0x5
 6190 0f8b 03       		.byte	0x3
 6191 0f8c 00000000 		.4byte	Positions
 6192 0f90 18       		.uleb128 0x18
 6193 0f91 A0010000 		.4byte	.LASF63
 6194 0f95 05       		.byte	0x5
 6195 0f96 49       		.byte	0x49
 6196 0f97 81000000 		.4byte	0x81
 6197 0f9b 05       		.uleb128 0x5
 6198 0f9c 03       		.byte	0x3
 6199 0f9d 00000000 		.4byte	TotalRequestType
 6200 0fa1 18       		.uleb128 0x18
 6201 0fa2 32000000 		.4byte	.LASF64
 6202 0fa6 05       		.byte	0x5
 6203 0fa7 4A       		.byte	0x4a
 6204 0fa8 81000000 		.4byte	0x81
 6205 0fac 05       		.uleb128 0x5
 6206 0fad 03       		.byte	0x3
 6207 0fae 00000000 		.4byte	DecVol
 6208 0fb2 0A       		.uleb128 0xa
 6209 0fb3 81000000 		.4byte	0x81
ARM GAS  C:\Users\Lenovo\AppData\Local\Temp\ccVx5qP5.s 			page 127


 6210 0fb7 C20F0000 		.4byte	0xfc2
 6211 0fbb 0B       		.uleb128 0xb
 6212 0fbc D9000000 		.4byte	0xd9
 6213 0fc0 13       		.byte	0x13
 6214 0fc1 00       		.byte	0
 6215 0fc2 18       		.uleb128 0x18
 6216 0fc3 D2030000 		.4byte	.LASF65
 6217 0fc7 05       		.byte	0x5
 6218 0fc8 53       		.byte	0x53
 6219 0fc9 B20F0000 		.4byte	0xfb2
 6220 0fcd 05       		.uleb128 0x5
 6221 0fce 03       		.byte	0x3
 6222 0fcf 00000000 		.4byte	touch1
 6223 0fd3 18       		.uleb128 0x18
 6224 0fd4 82050000 		.4byte	.LASF66
 6225 0fd8 05       		.byte	0x5
 6226 0fd9 5C       		.byte	0x5c
 6227 0fda 81000000 		.4byte	0x81
 6228 0fde 05       		.uleb128 0x5
 6229 0fdf 03       		.byte	0x3
 6230 0fe0 00000000 		.4byte	dirGbr
 6231 0fe4 18       		.uleb128 0x18
 6232 0fe5 A6040000 		.4byte	.LASF67
 6233 0fe9 01       		.byte	0x1
 6234 0fea 12       		.byte	0x12
 6235 0feb 81000000 		.4byte	0x81
 6236 0fef 05       		.uleb128 0x5
 6237 0ff0 03       		.byte	0x3
 6238 0ff1 00000000 		.4byte	LINE_FEED
 6239 0ff5 0A       		.uleb128 0xa
 6240 0ff6 CB000000 		.4byte	0xcb
 6241 0ffa 05100000 		.4byte	0x1005
 6242 0ffe 0B       		.uleb128 0xb
 6243 0fff D9000000 		.4byte	0xd9
 6244 1003 00       		.byte	0
 6245 1004 00       		.byte	0
 6246 1005 18       		.uleb128 0x18
 6247 1006 96050000 		.4byte	.LASF68
 6248 100a 01       		.byte	0x1
 6249 100b 13       		.byte	0x13
 6250 100c F50F0000 		.4byte	0xff5
 6251 1010 05       		.uleb128 0x5
 6252 1011 03       		.byte	0x3
 6253 1012 00000000 		.4byte	VolSimbol
 6254 1016 0A       		.uleb128 0xa
 6255 1017 81000000 		.4byte	0x81
 6256 101b 26100000 		.4byte	0x1026
 6257 101f 0B       		.uleb128 0xb
 6258 1020 D9000000 		.4byte	0xd9
 6259 1024 15       		.byte	0x15
 6260 1025 00       		.byte	0
 6261 1026 18       		.uleb128 0x18
 6262 1027 81010000 		.4byte	.LASF69
 6263 102b 01       		.byte	0x1
 6264 102c 17       		.byte	0x17
 6265 102d 16100000 		.4byte	0x1016
 6266 1031 05       		.uleb128 0x5
ARM GAS  C:\Users\Lenovo\AppData\Local\Temp\ccVx5qP5.s 			page 128


 6267 1032 03       		.byte	0x3
 6268 1033 00000000 		.4byte	msn_EDS
 6269 1037 18       		.uleb128 0x18
 6270 1038 4F050000 		.4byte	.LASF70
 6271 103c 01       		.byte	0x1
 6272 103d 18       		.byte	0x18
 6273 103e 16100000 		.4byte	0x1016
 6274 1042 05       		.uleb128 0x5
 6275 1043 03       		.byte	0x3
 6276 1044 00000000 		.4byte	msn_EDS2
 6277 1048 18       		.uleb128 0x18
 6278 1049 58050000 		.4byte	.LASF71
 6279 104d 01       		.byte	0x1
 6280 104e 19       		.byte	0x19
 6281 104f 16100000 		.4byte	0x1016
 6282 1053 05       		.uleb128 0x5
 6283 1054 03       		.byte	0x3
 6284 1055 00000000 		.4byte	msn_EDS3
 6285 1059 18       		.uleb128 0x18
 6286 105a 61050000 		.4byte	.LASF72
 6287 105e 01       		.byte	0x1
 6288 105f 1A       		.byte	0x1a
 6289 1060 16100000 		.4byte	0x1016
 6290 1064 05       		.uleb128 0x5
 6291 1065 03       		.byte	0x3
 6292 1066 00000000 		.4byte	msn_EDS4
 6293 106a 18       		.uleb128 0x18
 6294 106b 8E040000 		.4byte	.LASF73
 6295 106f 01       		.byte	0x1
 6296 1070 1B       		.byte	0x1b
 6297 1071 16100000 		.4byte	0x1016
 6298 1075 05       		.uleb128 0x5
 6299 1076 03       		.byte	0x3
 6300 1077 00000000 		.4byte	msn_footer
 6301 107b 18       		.uleb128 0x18
 6302 107c CC000000 		.4byte	.LASF74
 6303 1080 01       		.byte	0x1
 6304 1081 1C       		.byte	0x1c
 6305 1082 16100000 		.4byte	0x1016
 6306 1086 05       		.uleb128 0x5
 6307 1087 03       		.byte	0x3
 6308 1088 00000000 		.4byte	msn_footer2
 6309 108c 18       		.uleb128 0x18
 6310 108d 3E030000 		.4byte	.LASF75
 6311 1091 01       		.byte	0x1
 6312 1092 1D       		.byte	0x1d
 6313 1093 27020000 		.4byte	0x227
 6314 1097 05       		.uleb128 0x5
 6315 1098 03       		.byte	0x3
 6316 1099 00000000 		.4byte	msn_diesel
 6317 109d 0A       		.uleb128 0xa
 6318 109e 81000000 		.4byte	0x81
 6319 10a2 AD100000 		.4byte	0x10ad
 6320 10a6 0B       		.uleb128 0xb
 6321 10a7 D9000000 		.4byte	0xd9
 6322 10ab 08       		.byte	0x8
 6323 10ac 00       		.byte	0
ARM GAS  C:\Users\Lenovo\AppData\Local\Temp\ccVx5qP5.s 			page 129


 6324 10ad 18       		.uleb128 0x18
 6325 10ae CD020000 		.4byte	.LASF76
 6326 10b2 01       		.byte	0x1
 6327 10b3 1E       		.byte	0x1e
 6328 10b4 9D100000 		.4byte	0x109d
 6329 10b8 05       		.uleb128 0x5
 6330 10b9 03       		.byte	0x3
 6331 10ba 00000000 		.4byte	msn_gasoline
 6332 10be 0A       		.uleb128 0xa
 6333 10bf 81000000 		.4byte	0x81
 6334 10c3 CE100000 		.4byte	0x10ce
 6335 10c7 0B       		.uleb128 0xb
 6336 10c8 D9000000 		.4byte	0xd9
 6337 10cc 0C       		.byte	0xc
 6338 10cd 00       		.byte	0
 6339 10ce 18       		.uleb128 0x18
 6340 10cf 4D040000 		.4byte	.LASF77
 6341 10d3 01       		.byte	0x1
 6342 10d4 22       		.byte	0x22
 6343 10d5 BE100000 		.4byte	0x10be
 6344 10d9 05       		.uleb128 0x5
 6345 10da 03       		.byte	0x3
 6346 10db 00000000 		.4byte	msn_fecha
 6347 10df 18       		.uleb128 0x18
 6348 10e0 89010000 		.4byte	.LASF78
 6349 10e4 01       		.byte	0x1
 6350 10e5 23       		.byte	0x23
 6351 10e6 BE100000 		.4byte	0x10be
 6352 10ea 05       		.uleb128 0x5
 6353 10eb 03       		.byte	0x3
 6354 10ec 00000000 		.4byte	msn_hora
 6355 10f0 18       		.uleb128 0x18
 6356 10f1 51010000 		.4byte	.LASF79
 6357 10f5 01       		.byte	0x1
 6358 10f6 24       		.byte	0x24
 6359 10f7 BE100000 		.4byte	0x10be
 6360 10fb 05       		.uleb128 0x5
 6361 10fc 03       		.byte	0x3
 6362 10fd 00000000 		.4byte	msn_placa
 6363 1101 18       		.uleb128 0x18
 6364 1102 17020000 		.4byte	.LASF80
 6365 1106 01       		.byte	0x1
 6366 1107 25       		.byte	0x25
 6367 1108 BE100000 		.4byte	0x10be
 6368 110c 05       		.uleb128 0x5
 6369 110d 03       		.byte	0x3
 6370 110e 00000000 		.4byte	PRN_MILLEAGE
 6371 1112 18       		.uleb128 0x18
 6372 1113 92010000 		.4byte	.LASF81
 6373 1117 01       		.byte	0x1
 6374 1118 26       		.byte	0x26
 6375 1119 BE100000 		.4byte	0x10be
 6376 111d 05       		.uleb128 0x5
 6377 111e 03       		.byte	0x3
 6378 111f 00000000 		.4byte	PRN_TRANSTYPE
 6379 1123 18       		.uleb128 0x18
 6380 1124 EC000000 		.4byte	.LASF82
ARM GAS  C:\Users\Lenovo\AppData\Local\Temp\ccVx5qP5.s 			page 130


 6381 1128 01       		.byte	0x1
 6382 1129 27       		.byte	0x27
 6383 112a BE100000 		.4byte	0x10be
 6384 112e 05       		.uleb128 0x5
 6385 112f 03       		.byte	0x3
 6386 1130 00000000 		.4byte	msn_pos
 6387 1134 18       		.uleb128 0x18
 6388 1135 16040000 		.4byte	.LASF83
 6389 1139 01       		.byte	0x1
 6390 113a 28       		.byte	0x28
 6391 113b BE100000 		.4byte	0x10be
 6392 113f 05       		.uleb128 0x5
 6393 1140 03       		.byte	0x3
 6394 1141 00000000 		.4byte	msn_product
 6395 1145 18       		.uleb128 0x18
 6396 1146 49010000 		.4byte	.LASF84
 6397 114a 01       		.byte	0x1
 6398 114b 29       		.byte	0x29
 6399 114c BE100000 		.4byte	0x10be
 6400 1150 05       		.uleb128 0x5
 6401 1151 03       		.byte	0x3
 6402 1152 00000000 		.4byte	msn_ppu
 6403 1156 18       		.uleb128 0x18
 6404 1157 1B030000 		.4byte	.LASF85
 6405 115b 01       		.byte	0x1
 6406 115c 2A       		.byte	0x2a
 6407 115d BE100000 		.4byte	0x10be
 6408 1161 05       		.uleb128 0x5
 6409 1162 03       		.byte	0x3
 6410 1163 00000000 		.4byte	msn_vol
 6411 1167 18       		.uleb128 0x18
 6412 1168 B2020000 		.4byte	.LASF86
 6413 116c 01       		.byte	0x1
 6414 116d 2B       		.byte	0x2b
 6415 116e BE100000 		.4byte	0x10be
 6416 1172 05       		.uleb128 0x5
 6417 1173 03       		.byte	0x3
 6418 1174 00000000 		.4byte	msn_voltot
 6419 1178 18       		.uleb128 0x18
 6420 1179 B1050000 		.4byte	.LASF87
 6421 117d 01       		.byte	0x1
 6422 117e 2C       		.byte	0x2c
 6423 117f BE100000 		.4byte	0x10be
 6424 1183 05       		.uleb128 0x5
 6425 1184 03       		.byte	0x3
 6426 1185 00000000 		.4byte	msn_din
 6427 1189 18       		.uleb128 0x18
 6428 118a 42020000 		.4byte	.LASF88
 6429 118e 01       		.byte	0x1
 6430 118f 2D       		.byte	0x2d
 6431 1190 BE100000 		.4byte	0x10be
 6432 1194 05       		.uleb128 0x5
 6433 1195 03       		.byte	0x3
 6434 1196 00000000 		.4byte	msn_cierre
 6435 119a 18       		.uleb128 0x18
 6436 119b 0D020000 		.4byte	.LASF89
 6437 119f 01       		.byte	0x1
ARM GAS  C:\Users\Lenovo\AppData\Local\Temp\ccVx5qP5.s 			page 131


 6438 11a0 2E       		.byte	0x2e
 6439 11a1 BE100000 		.4byte	0x10be
 6440 11a5 05       		.uleb128 0x5
 6441 11a6 03       		.byte	0x3
 6442 11a7 00000000 		.4byte	msn_venta
 6443 11ab 18       		.uleb128 0x18
 6444 11ac 24020000 		.4byte	.LASF90
 6445 11b0 01       		.byte	0x1
 6446 11b1 2F       		.byte	0x2f
 6447 11b2 BE100000 		.4byte	0x10be
 6448 11b6 05       		.uleb128 0x5
 6449 11b7 03       		.byte	0x3
 6450 11b8 00000000 		.4byte	msn_numero
 6451 11bc 18       		.uleb128 0x18
 6452 11bd D7040000 		.4byte	.LASF91
 6453 11c1 01       		.byte	0x1
 6454 11c2 30       		.byte	0x30
 6455 11c3 BE100000 		.4byte	0x10be
 6456 11c7 05       		.uleb128 0x5
 6457 11c8 03       		.byte	0x3
 6458 11c9 00000000 		.4byte	PRN_BALANCE
 6459 11cd 18       		.uleb128 0x18
 6460 11ce B0040000 		.4byte	.LASF92
 6461 11d2 01       		.byte	0x1
 6462 11d3 31       		.byte	0x31
 6463 11d4 BE100000 		.4byte	0x10be
 6464 11d8 05       		.uleb128 0x5
 6465 11d9 03       		.byte	0x3
 6466 11da 00000000 		.4byte	PRN_COMPANY
 6467 11de 18       		.uleb128 0x18
 6468 11df C6010000 		.4byte	.LASF93
 6469 11e3 01       		.byte	0x1
 6470 11e4 32       		.byte	0x32
 6471 11e5 BE100000 		.4byte	0x10be
 6472 11e9 05       		.uleb128 0x5
 6473 11ea 03       		.byte	0x3
 6474 11eb 00000000 		.4byte	PRN_ACCOUNT
 6475 11ef 18       		.uleb128 0x18
 6476 11f0 77050000 		.4byte	.LASF94
 6477 11f4 01       		.byte	0x1
 6478 11f5 33       		.byte	0x33
 6479 11f6 BE100000 		.4byte	0x10be
 6480 11fa 05       		.uleb128 0x5
 6481 11fb 03       		.byte	0x3
 6482 11fc 00000000 		.4byte	PRN_SERIAL
 6483 1200 18       		.uleb128 0x18
 6484 1201 6E030000 		.4byte	.LASF95
 6485 1205 01       		.byte	0x1
 6486 1206 34       		.byte	0x34
 6487 1207 BE100000 		.4byte	0x10be
 6488 120b 05       		.uleb128 0x5
 6489 120c 03       		.byte	0x3
 6490 120d 00000000 		.4byte	PRN_ACCOUNTTYPE
 6491 1211 18       		.uleb128 0x18
 6492 1212 98020000 		.4byte	.LASF96
 6493 1216 01       		.byte	0x1
 6494 1217 35       		.byte	0x35
ARM GAS  C:\Users\Lenovo\AppData\Local\Temp\ccVx5qP5.s 			page 132


 6495 1218 BE100000 		.4byte	0x10be
 6496 121c 05       		.uleb128 0x5
 6497 121d 03       		.byte	0x3
 6498 121e 00000000 		.4byte	PRN_VISITSDAY
 6499 1222 18       		.uleb128 0x18
 6500 1223 7E030000 		.4byte	.LASF97
 6501 1227 01       		.byte	0x1
 6502 1228 36       		.byte	0x36
 6503 1229 BE100000 		.4byte	0x10be
 6504 122d 05       		.uleb128 0x5
 6505 122e 03       		.byte	0x3
 6506 122f 00000000 		.4byte	PRN_VISITSWEEK
 6507 1233 18       		.uleb128 0x18
 6508 1234 70040000 		.4byte	.LASF98
 6509 1238 01       		.byte	0x1
 6510 1239 37       		.byte	0x37
 6511 123a BE100000 		.4byte	0x10be
 6512 123e 05       		.uleb128 0x5
 6513 123f 03       		.byte	0x3
 6514 1240 00000000 		.4byte	PRN_VISITSMONTH
 6515 1244 18       		.uleb128 0x18
 6516 1245 D2010000 		.4byte	.LASF99
 6517 1249 01       		.byte	0x1
 6518 124a 38       		.byte	0x38
 6519 124b BE100000 		.4byte	0x10be
 6520 124f 05       		.uleb128 0x5
 6521 1250 03       		.byte	0x3
 6522 1251 00000000 		.4byte	PRN_VOLUMEDAY
 6523 1255 18       		.uleb128 0x18
 6524 1256 5B010000 		.4byte	.LASF100
 6525 125a 01       		.byte	0x1
 6526 125b 39       		.byte	0x39
 6527 125c BE100000 		.4byte	0x10be
 6528 1260 05       		.uleb128 0x5
 6529 1261 03       		.byte	0x3
 6530 1262 00000000 		.4byte	PRN_VOLUMEWEEK
 6531 1266 18       		.uleb128 0x18
 6532 1267 28010000 		.4byte	.LASF101
 6533 126b 01       		.byte	0x1
 6534 126c 3A       		.byte	0x3a
 6535 126d BE100000 		.4byte	0x10be
 6536 1271 05       		.uleb128 0x5
 6537 1272 03       		.byte	0x3
 6538 1273 00000000 		.4byte	PRN_VOLUMEMONTH
 6539 1277 18       		.uleb128 0x18
 6540 1278 E6030000 		.4byte	.LASF102
 6541 127c 01       		.byte	0x1
 6542 127d 3B       		.byte	0x3b
 6543 127e BE100000 		.4byte	0x10be
 6544 1282 05       		.uleb128 0x5
 6545 1283 03       		.byte	0x3
 6546 1284 00000000 		.4byte	PRN_MONEYDAY
 6547 1288 18       		.uleb128 0x18
 6548 1289 35050000 		.4byte	.LASF103
 6549 128d 01       		.byte	0x1
 6550 128e 3C       		.byte	0x3c
 6551 128f BE100000 		.4byte	0x10be
ARM GAS  C:\Users\Lenovo\AppData\Local\Temp\ccVx5qP5.s 			page 133


 6552 1293 05       		.uleb128 0x5
 6553 1294 03       		.byte	0x3
 6554 1295 00000000 		.4byte	PRN_MONEYWEEK
 6555 1299 18       		.uleb128 0x18
 6556 129a B7010000 		.4byte	.LASF104
 6557 129e 01       		.byte	0x1
 6558 129f 3D       		.byte	0x3d
 6559 12a0 BE100000 		.4byte	0x10be
 6560 12a4 05       		.uleb128 0x5
 6561 12a5 03       		.byte	0x3
 6562 12a6 00000000 		.4byte	PRN_MONEYMONTH
 6563 12aa 18       		.uleb128 0x18
 6564 12ab 1D010000 		.4byte	.LASF105
 6565 12af 01       		.byte	0x1
 6566 12b0 3E       		.byte	0x3e
 6567 12b1 BE100000 		.4byte	0x10be
 6568 12b5 05       		.uleb128 0x5
 6569 12b6 03       		.byte	0x3
 6570 12b7 00000000 		.4byte	PRN_PRESET
 6571 12bb 18       		.uleb128 0x18
 6572 12bc 27050000 		.4byte	.LASF106
 6573 12c0 01       		.byte	0x1
 6574 12c1 3F       		.byte	0x3f
 6575 12c2 BE100000 		.4byte	0x10be
 6576 12c6 05       		.uleb128 0x5
 6577 12c7 03       		.byte	0x3
 6578 12c8 00000000 		.4byte	PRN_SIGNATURE
 6579 12cc 18       		.uleb128 0x18
 6580 12cd 01050000 		.4byte	.LASF107
 6581 12d1 01       		.byte	0x1
 6582 12d2 40       		.byte	0x40
 6583 12d3 BE100000 		.4byte	0x10be
 6584 12d7 05       		.uleb128 0x5
 6585 12d8 03       		.byte	0x3
 6586 12d9 00000000 		.4byte	PRN_ID
 6587 12dd 0A       		.uleb128 0xa
 6588 12de 81000000 		.4byte	0x81
 6589 12e2 ED120000 		.4byte	0x12ed
 6590 12e6 0B       		.uleb128 0xb
 6591 12e7 D9000000 		.4byte	0xd9
 6592 12eb 00       		.byte	0
 6593 12ec 00       		.byte	0
 6594 12ed 18       		.uleb128 0x18
 6595 12ee 89050000 		.4byte	.LASF108
 6596 12f2 01       		.byte	0x1
 6597 12f3 41       		.byte	0x41
 6598 12f4 DD120000 		.4byte	0x12dd
 6599 12f8 05       		.uleb128 0x5
 6600 12f9 03       		.byte	0x3
 6601 12fa 00000000 		.4byte	PRN_CURRENCY
 6602 12fe 0A       		.uleb128 0xa
 6603 12ff 81000000 		.4byte	0x81
 6604 1303 0E130000 		.4byte	0x130e
 6605 1307 0B       		.uleb128 0xb
 6606 1308 D9000000 		.4byte	0xd9
 6607 130c 0F       		.byte	0xf
 6608 130d 00       		.byte	0
ARM GAS  C:\Users\Lenovo\AppData\Local\Temp\ccVx5qP5.s 			page 134


 6609 130e 18       		.uleb128 0x18
 6610 130f EA010000 		.4byte	.LASF109
 6611 1313 01       		.byte	0x1
 6612 1314 42       		.byte	0x42
 6613 1315 FE120000 		.4byte	0x12fe
 6614 1319 05       		.uleb128 0x5
 6615 131a 03       		.byte	0x3
 6616 131b 00000000 		.4byte	msn_lecact
 6617 131f 18       		.uleb128 0x18
 6618 1320 3E010000 		.4byte	.LASF110
 6619 1324 01       		.byte	0x1
 6620 1325 43       		.byte	0x43
 6621 1326 FE120000 		.4byte	0x12fe
 6622 132a 05       		.uleb128 0x5
 6623 132b 03       		.byte	0x3
 6624 132c 00000000 		.4byte	msn_lecaan
 6625 1330 0A       		.uleb128 0xa
 6626 1331 81000000 		.4byte	0x81
 6627 1335 40130000 		.4byte	0x1340
 6628 1339 0B       		.uleb128 0xb
 6629 133a D9000000 		.4byte	0xd9
 6630 133e 11       		.byte	0x11
 6631 133f 00       		.byte	0
 6632 1340 18       		.uleb128 0x18
 6633 1341 A9050000 		.4byte	.LASF111
 6634 1345 01       		.byte	0x1
 6635 1346 44       		.byte	0x44
 6636 1347 30130000 		.4byte	0x1330
 6637 134b 05       		.uleb128 0x5
 6638 134c 03       		.byte	0x3
 6639 134d 00000000 		.4byte	msn_dif
 6640 1351 0A       		.uleb128 0xa
 6641 1352 81000000 		.4byte	0x81
 6642 1356 61130000 		.4byte	0x1361
 6643 135a 0B       		.uleb128 0xb
 6644 135b D9000000 		.4byte	0xd9
 6645 135f 17       		.byte	0x17
 6646 1360 00       		.byte	0
 6647 1361 18       		.uleb128 0x18
 6648 1362 4D020000 		.4byte	.LASF112
 6649 1366 01       		.byte	0x1
 6650 1367 45       		.byte	0x45
 6651 1368 51130000 		.4byte	0x1351
 6652 136c 05       		.uleb128 0x5
 6653 136d 03       		.byte	0x3
 6654 136e 00000000 		.4byte	SEPARATOR
 6655 1372 18       		.uleb128 0x18
 6656 1373 FF000000 		.4byte	.LASF113
 6657 1377 01       		.byte	0x1
 6658 1378 46       		.byte	0x46
 6659 1379 930E0000 		.4byte	0xe93
 6660 137d 05       		.uleb128 0x5
 6661 137e 03       		.byte	0x3
 6662 137f 00000000 		.4byte	ASK_TIME
 6663 1383 00       		.byte	0
 6664              		.section	.debug_abbrev,"",%progbits
 6665              	.Ldebug_abbrev0:
ARM GAS  C:\Users\Lenovo\AppData\Local\Temp\ccVx5qP5.s 			page 135


 6666 0000 01       		.uleb128 0x1
 6667 0001 11       		.uleb128 0x11
 6668 0002 01       		.byte	0x1
 6669 0003 25       		.uleb128 0x25
 6670 0004 0E       		.uleb128 0xe
 6671 0005 13       		.uleb128 0x13
 6672 0006 0B       		.uleb128 0xb
 6673 0007 03       		.uleb128 0x3
 6674 0008 0E       		.uleb128 0xe
 6675 0009 1B       		.uleb128 0x1b
 6676 000a 0E       		.uleb128 0xe
 6677 000b 55       		.uleb128 0x55
 6678 000c 17       		.uleb128 0x17
 6679 000d 11       		.uleb128 0x11
 6680 000e 01       		.uleb128 0x1
 6681 000f 10       		.uleb128 0x10
 6682 0010 17       		.uleb128 0x17
 6683 0011 00       		.byte	0
 6684 0012 00       		.byte	0
 6685 0013 02       		.uleb128 0x2
 6686 0014 24       		.uleb128 0x24
 6687 0015 00       		.byte	0
 6688 0016 0B       		.uleb128 0xb
 6689 0017 0B       		.uleb128 0xb
 6690 0018 3E       		.uleb128 0x3e
 6691 0019 0B       		.uleb128 0xb
 6692 001a 03       		.uleb128 0x3
 6693 001b 0E       		.uleb128 0xe
 6694 001c 00       		.byte	0
 6695 001d 00       		.byte	0
 6696 001e 03       		.uleb128 0x3
 6697 001f 16       		.uleb128 0x16
 6698 0020 00       		.byte	0
 6699 0021 03       		.uleb128 0x3
 6700 0022 0E       		.uleb128 0xe
 6701 0023 3A       		.uleb128 0x3a
 6702 0024 0B       		.uleb128 0xb
 6703 0025 3B       		.uleb128 0x3b
 6704 0026 0B       		.uleb128 0xb
 6705 0027 49       		.uleb128 0x49
 6706 0028 13       		.uleb128 0x13
 6707 0029 00       		.byte	0
 6708 002a 00       		.byte	0
 6709 002b 04       		.uleb128 0x4
 6710 002c 24       		.uleb128 0x24
 6711 002d 00       		.byte	0
 6712 002e 0B       		.uleb128 0xb
 6713 002f 0B       		.uleb128 0xb
 6714 0030 3E       		.uleb128 0x3e
 6715 0031 0B       		.uleb128 0xb
 6716 0032 03       		.uleb128 0x3
 6717 0033 08       		.uleb128 0x8
 6718 0034 00       		.byte	0
 6719 0035 00       		.byte	0
 6720 0036 05       		.uleb128 0x5
 6721 0037 16       		.uleb128 0x16
 6722 0038 00       		.byte	0
ARM GAS  C:\Users\Lenovo\AppData\Local\Temp\ccVx5qP5.s 			page 136


 6723 0039 03       		.uleb128 0x3
 6724 003a 0E       		.uleb128 0xe
 6725 003b 3A       		.uleb128 0x3a
 6726 003c 0B       		.uleb128 0xb
 6727 003d 3B       		.uleb128 0x3b
 6728 003e 05       		.uleb128 0x5
 6729 003f 49       		.uleb128 0x49
 6730 0040 13       		.uleb128 0x13
 6731 0041 00       		.byte	0
 6732 0042 00       		.byte	0
 6733 0043 06       		.uleb128 0x6
 6734 0044 13       		.uleb128 0x13
 6735 0045 01       		.byte	0x1
 6736 0046 03       		.uleb128 0x3
 6737 0047 0E       		.uleb128 0xe
 6738 0048 0B       		.uleb128 0xb
 6739 0049 05       		.uleb128 0x5
 6740 004a 3A       		.uleb128 0x3a
 6741 004b 0B       		.uleb128 0xb
 6742 004c 3B       		.uleb128 0x3b
 6743 004d 0B       		.uleb128 0xb
 6744 004e 01       		.uleb128 0x1
 6745 004f 13       		.uleb128 0x13
 6746 0050 00       		.byte	0
 6747 0051 00       		.byte	0
 6748 0052 07       		.uleb128 0x7
 6749 0053 0D       		.uleb128 0xd
 6750 0054 00       		.byte	0
 6751 0055 03       		.uleb128 0x3
 6752 0056 08       		.uleb128 0x8
 6753 0057 3A       		.uleb128 0x3a
 6754 0058 0B       		.uleb128 0xb
 6755 0059 3B       		.uleb128 0x3b
 6756 005a 0B       		.uleb128 0xb
 6757 005b 49       		.uleb128 0x49
 6758 005c 13       		.uleb128 0x13
 6759 005d 38       		.uleb128 0x38
 6760 005e 0B       		.uleb128 0xb
 6761 005f 00       		.byte	0
 6762 0060 00       		.byte	0
 6763 0061 08       		.uleb128 0x8
 6764 0062 0D       		.uleb128 0xd
 6765 0063 00       		.byte	0
 6766 0064 03       		.uleb128 0x3
 6767 0065 0E       		.uleb128 0xe
 6768 0066 3A       		.uleb128 0x3a
 6769 0067 0B       		.uleb128 0xb
 6770 0068 3B       		.uleb128 0x3b
 6771 0069 0B       		.uleb128 0xb
 6772 006a 49       		.uleb128 0x49
 6773 006b 13       		.uleb128 0x13
 6774 006c 38       		.uleb128 0x38
 6775 006d 0B       		.uleb128 0xb
 6776 006e 00       		.byte	0
 6777 006f 00       		.byte	0
 6778 0070 09       		.uleb128 0x9
 6779 0071 0D       		.uleb128 0xd
ARM GAS  C:\Users\Lenovo\AppData\Local\Temp\ccVx5qP5.s 			page 137


 6780 0072 00       		.byte	0
 6781 0073 03       		.uleb128 0x3
 6782 0074 0E       		.uleb128 0xe
 6783 0075 3A       		.uleb128 0x3a
 6784 0076 0B       		.uleb128 0xb
 6785 0077 3B       		.uleb128 0x3b
 6786 0078 0B       		.uleb128 0xb
 6787 0079 49       		.uleb128 0x49
 6788 007a 13       		.uleb128 0x13
 6789 007b 38       		.uleb128 0x38
 6790 007c 05       		.uleb128 0x5
 6791 007d 00       		.byte	0
 6792 007e 00       		.byte	0
 6793 007f 0A       		.uleb128 0xa
 6794 0080 01       		.uleb128 0x1
 6795 0081 01       		.byte	0x1
 6796 0082 49       		.uleb128 0x49
 6797 0083 13       		.uleb128 0x13
 6798 0084 01       		.uleb128 0x1
 6799 0085 13       		.uleb128 0x13
 6800 0086 00       		.byte	0
 6801 0087 00       		.byte	0
 6802 0088 0B       		.uleb128 0xb
 6803 0089 21       		.uleb128 0x21
 6804 008a 00       		.byte	0
 6805 008b 49       		.uleb128 0x49
 6806 008c 13       		.uleb128 0x13
 6807 008d 2F       		.uleb128 0x2f
 6808 008e 0B       		.uleb128 0xb
 6809 008f 00       		.byte	0
 6810 0090 00       		.byte	0
 6811 0091 0C       		.uleb128 0xc
 6812 0092 0D       		.uleb128 0xd
 6813 0093 00       		.byte	0
 6814 0094 03       		.uleb128 0x3
 6815 0095 08       		.uleb128 0x8
 6816 0096 3A       		.uleb128 0x3a
 6817 0097 0B       		.uleb128 0xb
 6818 0098 3B       		.uleb128 0x3b
 6819 0099 0B       		.uleb128 0xb
 6820 009a 49       		.uleb128 0x49
 6821 009b 13       		.uleb128 0x13
 6822 009c 38       		.uleb128 0x38
 6823 009d 05       		.uleb128 0x5
 6824 009e 00       		.byte	0
 6825 009f 00       		.byte	0
 6826 00a0 0D       		.uleb128 0xd
 6827 00a1 2E       		.uleb128 0x2e
 6828 00a2 01       		.byte	0x1
 6829 00a3 3F       		.uleb128 0x3f
 6830 00a4 19       		.uleb128 0x19
 6831 00a5 03       		.uleb128 0x3
 6832 00a6 0E       		.uleb128 0xe
 6833 00a7 3A       		.uleb128 0x3a
 6834 00a8 0B       		.uleb128 0xb
 6835 00a9 3B       		.uleb128 0x3b
 6836 00aa 0B       		.uleb128 0xb
ARM GAS  C:\Users\Lenovo\AppData\Local\Temp\ccVx5qP5.s 			page 138


 6837 00ab 27       		.uleb128 0x27
 6838 00ac 19       		.uleb128 0x19
 6839 00ad 11       		.uleb128 0x11
 6840 00ae 01       		.uleb128 0x1
 6841 00af 12       		.uleb128 0x12
 6842 00b0 06       		.uleb128 0x6
 6843 00b1 40       		.uleb128 0x40
 6844 00b2 18       		.uleb128 0x18
 6845 00b3 9642     		.uleb128 0x2116
 6846 00b5 19       		.uleb128 0x19
 6847 00b6 01       		.uleb128 0x1
 6848 00b7 13       		.uleb128 0x13
 6849 00b8 00       		.byte	0
 6850 00b9 00       		.byte	0
 6851 00ba 0E       		.uleb128 0xe
 6852 00bb 05       		.uleb128 0x5
 6853 00bc 00       		.byte	0
 6854 00bd 03       		.uleb128 0x3
 6855 00be 0E       		.uleb128 0xe
 6856 00bf 3A       		.uleb128 0x3a
 6857 00c0 0B       		.uleb128 0xb
 6858 00c1 3B       		.uleb128 0x3b
 6859 00c2 0B       		.uleb128 0xb
 6860 00c3 49       		.uleb128 0x49
 6861 00c4 13       		.uleb128 0x13
 6862 00c5 02       		.uleb128 0x2
 6863 00c6 18       		.uleb128 0x18
 6864 00c7 00       		.byte	0
 6865 00c8 00       		.byte	0
 6866 00c9 0F       		.uleb128 0xf
 6867 00ca 34       		.uleb128 0x34
 6868 00cb 00       		.byte	0
 6869 00cc 03       		.uleb128 0x3
 6870 00cd 0E       		.uleb128 0xe
 6871 00ce 3A       		.uleb128 0x3a
 6872 00cf 0B       		.uleb128 0xb
 6873 00d0 3B       		.uleb128 0x3b
 6874 00d1 0B       		.uleb128 0xb
 6875 00d2 49       		.uleb128 0x49
 6876 00d3 13       		.uleb128 0x13
 6877 00d4 02       		.uleb128 0x2
 6878 00d5 18       		.uleb128 0x18
 6879 00d6 00       		.byte	0
 6880 00d7 00       		.byte	0
 6881 00d8 10       		.uleb128 0x10
 6882 00d9 0B       		.uleb128 0xb
 6883 00da 01       		.byte	0x1
 6884 00db 11       		.uleb128 0x11
 6885 00dc 01       		.uleb128 0x1
 6886 00dd 12       		.uleb128 0x12
 6887 00de 06       		.uleb128 0x6
 6888 00df 01       		.uleb128 0x1
 6889 00e0 13       		.uleb128 0x13
 6890 00e1 00       		.byte	0
 6891 00e2 00       		.byte	0
 6892 00e3 11       		.uleb128 0x11
 6893 00e4 34       		.uleb128 0x34
ARM GAS  C:\Users\Lenovo\AppData\Local\Temp\ccVx5qP5.s 			page 139


 6894 00e5 00       		.byte	0
 6895 00e6 03       		.uleb128 0x3
 6896 00e7 08       		.uleb128 0x8
 6897 00e8 3A       		.uleb128 0x3a
 6898 00e9 0B       		.uleb128 0xb
 6899 00ea 3B       		.uleb128 0x3b
 6900 00eb 0B       		.uleb128 0xb
 6901 00ec 49       		.uleb128 0x49
 6902 00ed 13       		.uleb128 0x13
 6903 00ee 02       		.uleb128 0x2
 6904 00ef 18       		.uleb128 0x18
 6905 00f0 00       		.byte	0
 6906 00f1 00       		.byte	0
 6907 00f2 12       		.uleb128 0x12
 6908 00f3 34       		.uleb128 0x34
 6909 00f4 00       		.byte	0
 6910 00f5 03       		.uleb128 0x3
 6911 00f6 08       		.uleb128 0x8
 6912 00f7 3A       		.uleb128 0x3a
 6913 00f8 0B       		.uleb128 0xb
 6914 00f9 3B       		.uleb128 0x3b
 6915 00fa 05       		.uleb128 0x5
 6916 00fb 49       		.uleb128 0x49
 6917 00fc 13       		.uleb128 0x13
 6918 00fd 02       		.uleb128 0x2
 6919 00fe 18       		.uleb128 0x18
 6920 00ff 00       		.byte	0
 6921 0100 00       		.byte	0
 6922 0101 13       		.uleb128 0x13
 6923 0102 0B       		.uleb128 0xb
 6924 0103 01       		.byte	0x1
 6925 0104 11       		.uleb128 0x11
 6926 0105 01       		.uleb128 0x1
 6927 0106 12       		.uleb128 0x12
 6928 0107 06       		.uleb128 0x6
 6929 0108 00       		.byte	0
 6930 0109 00       		.byte	0
 6931 010a 14       		.uleb128 0x14
 6932 010b 2E       		.uleb128 0x2e
 6933 010c 01       		.byte	0x1
 6934 010d 3F       		.uleb128 0x3f
 6935 010e 19       		.uleb128 0x19
 6936 010f 03       		.uleb128 0x3
 6937 0110 0E       		.uleb128 0xe
 6938 0111 3A       		.uleb128 0x3a
 6939 0112 0B       		.uleb128 0xb
 6940 0113 3B       		.uleb128 0x3b
 6941 0114 05       		.uleb128 0x5
 6942 0115 27       		.uleb128 0x27
 6943 0116 19       		.uleb128 0x19
 6944 0117 11       		.uleb128 0x11
 6945 0118 01       		.uleb128 0x1
 6946 0119 12       		.uleb128 0x12
 6947 011a 06       		.uleb128 0x6
 6948 011b 40       		.uleb128 0x40
 6949 011c 18       		.uleb128 0x18
 6950 011d 9642     		.uleb128 0x2116
ARM GAS  C:\Users\Lenovo\AppData\Local\Temp\ccVx5qP5.s 			page 140


 6951 011f 19       		.uleb128 0x19
 6952 0120 01       		.uleb128 0x1
 6953 0121 13       		.uleb128 0x13
 6954 0122 00       		.byte	0
 6955 0123 00       		.byte	0
 6956 0124 15       		.uleb128 0x15
 6957 0125 34       		.uleb128 0x34
 6958 0126 00       		.byte	0
 6959 0127 03       		.uleb128 0x3
 6960 0128 0E       		.uleb128 0xe
 6961 0129 3A       		.uleb128 0x3a
 6962 012a 0B       		.uleb128 0xb
 6963 012b 3B       		.uleb128 0x3b
 6964 012c 05       		.uleb128 0x5
 6965 012d 49       		.uleb128 0x49
 6966 012e 13       		.uleb128 0x13
 6967 012f 02       		.uleb128 0x2
 6968 0130 18       		.uleb128 0x18
 6969 0131 00       		.byte	0
 6970 0132 00       		.byte	0
 6971 0133 16       		.uleb128 0x16
 6972 0134 34       		.uleb128 0x34
 6973 0135 00       		.byte	0
 6974 0136 03       		.uleb128 0x3
 6975 0137 0E       		.uleb128 0xe
 6976 0138 3A       		.uleb128 0x3a
 6977 0139 0B       		.uleb128 0xb
 6978 013a 3B       		.uleb128 0x3b
 6979 013b 05       		.uleb128 0x5
 6980 013c 49       		.uleb128 0x49
 6981 013d 13       		.uleb128 0x13
 6982 013e 3F       		.uleb128 0x3f
 6983 013f 19       		.uleb128 0x19
 6984 0140 3C       		.uleb128 0x3c
 6985 0141 19       		.uleb128 0x19
 6986 0142 00       		.byte	0
 6987 0143 00       		.byte	0
 6988 0144 17       		.uleb128 0x17
 6989 0145 35       		.uleb128 0x35
 6990 0146 00       		.byte	0
 6991 0147 49       		.uleb128 0x49
 6992 0148 13       		.uleb128 0x13
 6993 0149 00       		.byte	0
 6994 014a 00       		.byte	0
 6995 014b 18       		.uleb128 0x18
 6996 014c 34       		.uleb128 0x34
 6997 014d 00       		.byte	0
 6998 014e 03       		.uleb128 0x3
 6999 014f 0E       		.uleb128 0xe
 7000 0150 3A       		.uleb128 0x3a
 7001 0151 0B       		.uleb128 0xb
 7002 0152 3B       		.uleb128 0x3b
 7003 0153 0B       		.uleb128 0xb
 7004 0154 49       		.uleb128 0x49
 7005 0155 13       		.uleb128 0x13
 7006 0156 3F       		.uleb128 0x3f
 7007 0157 19       		.uleb128 0x19
ARM GAS  C:\Users\Lenovo\AppData\Local\Temp\ccVx5qP5.s 			page 141


 7008 0158 02       		.uleb128 0x2
 7009 0159 18       		.uleb128 0x18
 7010 015a 00       		.byte	0
 7011 015b 00       		.byte	0
 7012 015c 19       		.uleb128 0x19
 7013 015d 34       		.uleb128 0x34
 7014 015e 00       		.byte	0
 7015 015f 03       		.uleb128 0x3
 7016 0160 08       		.uleb128 0x8
 7017 0161 3A       		.uleb128 0x3a
 7018 0162 0B       		.uleb128 0xb
 7019 0163 3B       		.uleb128 0x3b
 7020 0164 0B       		.uleb128 0xb
 7021 0165 49       		.uleb128 0x49
 7022 0166 13       		.uleb128 0x13
 7023 0167 3F       		.uleb128 0x3f
 7024 0168 19       		.uleb128 0x19
 7025 0169 02       		.uleb128 0x2
 7026 016a 18       		.uleb128 0x18
 7027 016b 00       		.byte	0
 7028 016c 00       		.byte	0
 7029 016d 00       		.byte	0
 7030              		.section	.debug_aranges,"",%progbits
 7031 0000 24000000 		.4byte	0x24
 7032 0004 0200     		.2byte	0x2
 7033 0006 00000000 		.4byte	.Ldebug_info0
 7034 000a 04       		.byte	0x4
 7035 000b 00       		.byte	0
 7036 000c 0000     		.2byte	0
 7037 000e 0000     		.2byte	0
 7038 0010 00000000 		.4byte	.LFB64
 7039 0014 180F0000 		.4byte	.LFE64-.LFB64
 7040 0018 00000000 		.4byte	.LFB65
 7041 001c 980E0000 		.4byte	.LFE65-.LFB65
 7042 0020 00000000 		.4byte	0
 7043 0024 00000000 		.4byte	0
 7044              		.section	.debug_ranges,"",%progbits
 7045              	.Ldebug_ranges0:
 7046 0000 00000000 		.4byte	.LFB64
 7047 0004 180F0000 		.4byte	.LFE64
 7048 0008 00000000 		.4byte	.LFB65
 7049 000c 980E0000 		.4byte	.LFE65
 7050 0010 00000000 		.4byte	0
 7051 0014 00000000 		.4byte	0
 7052              		.section	.debug_line,"",%progbits
 7053              	.Ldebug_line0:
 7054 0000 C4090000 		.section	.debug_str,"MS",%progbits,1
 7054      02005B01 
 7054      00000201 
 7054      FB0E0D00 
 7054      01010101 
 7055              	.LASF59:
 7056 0000 50756D70 		.ascii	"PumpAddress\000"
 7056      41646472 
 7056      65737300 
 7057              	.LASF52:
 7058 000c 696E745F 		.ascii	"int_salenumber\000"
ARM GAS  C:\Users\Lenovo\AppData\Local\Temp\ccVx5qP5.s 			page 142


 7058      73616C65 
 7058      6E756D62 
 7058      657200
 7059              	.LASF8:
 7060 001b 756E7369 		.ascii	"unsigned int\000"
 7060      676E6564 
 7060      20696E74 
 7060      00
 7061              	.LASF9:
 7062 0028 5F5F696E 		.ascii	"__int32_t\000"
 7062      7433325F 
 7062      7400
 7063              	.LASF64:
 7064 0032 44656356 		.ascii	"DecVol\000"
 7064      6F6C00
 7065              	.LASF114:
 7066 0039 474E5520 		.ascii	"GNU C11 5.4.1 20160609 (release) [ARM/embedded-5-br"
 7066      43313120 
 7066      352E342E 
 7066      31203230 
 7066      31363036 
 7067 006c 616E6368 		.ascii	"anch revision 237715] -mcpu=cortex-m3 -mthumb -g -O"
 7067      20726576 
 7067      6973696F 
 7067      6E203233 
 7067      37373135 
 7068 009f 30202D66 		.ascii	"0 -ffunction-sections -ffat-lto-objects\000"
 7068      66756E63 
 7068      74696F6E 
 7068      2D736563 
 7068      74696F6E 
 7069              	.LASF56:
 7070 00c7 73696465 		.ascii	"side\000"
 7070      00
 7071              	.LASF74:
 7072 00cc 6D736E5F 		.ascii	"msn_footer2\000"
 7072      666F6F74 
 7072      65723200 
 7073              	.LASF31:
 7074 00d8 50726F63 		.ascii	"ProcessedvolumeSale\000"
 7074      65737365 
 7074      64766F6C 
 7074      756D6553 
 7074      616C6500 
 7075              	.LASF82:
 7076 00ec 6D736E5F 		.ascii	"msn_pos\000"
 7076      706F7300 
 7077              	.LASF39:
 7078 00f4 5072696E 		.ascii	"PrintShift\000"
 7078      74536869 
 7078      667400
 7079              	.LASF113:
 7080 00ff 41534B5F 		.ascii	"ASK_TIME\000"
 7080      54494D45 
 7080      00
 7081              	.LASF32:
 7082 0108 50726F63 		.ascii	"ProcessedPPU\000"
ARM GAS  C:\Users\Lenovo\AppData\Local\Temp\ccVx5qP5.s 			page 143


 7082      65737365 
 7082      64505055 
 7082      00
 7083              	.LASF50:
 7084 0115 52656365 		.ascii	"Receipt\000"
 7084      69707400 
 7085              	.LASF105:
 7086 011d 50524E5F 		.ascii	"PRN_PRESET\000"
 7086      50524553 
 7086      455400
 7087              	.LASF101:
 7088 0128 50524E5F 		.ascii	"PRN_VOLUMEMONTH\000"
 7088      564F4C55 
 7088      4D454D4F 
 7088      4E544800 
 7089              	.LASF15:
 7090 0138 666C6F61 		.ascii	"float\000"
 7090      7400
 7091              	.LASF110:
 7092 013e 6D736E5F 		.ascii	"msn_lecaan\000"
 7092      6C656361 
 7092      616E00
 7093              	.LASF84:
 7094 0149 6D736E5F 		.ascii	"msn_ppu\000"
 7094      70707500 
 7095              	.LASF79:
 7096 0151 6D736E5F 		.ascii	"msn_placa\000"
 7096      706C6163 
 7096      6100
 7097              	.LASF100:
 7098 015b 50524E5F 		.ascii	"PRN_VOLUMEWEEK\000"
 7098      564F4C55 
 7098      4D455745 
 7098      454B00
 7099              	.LASF7:
 7100 016a 6C6F6E67 		.ascii	"long long unsigned int\000"
 7100      206C6F6E 
 7100      6720756E 
 7100      7369676E 
 7100      65642069 
 7101              	.LASF69:
 7102 0181 6D736E5F 		.ascii	"msn_EDS\000"
 7102      45445300 
 7103              	.LASF78:
 7104 0189 6D736E5F 		.ascii	"msn_hora\000"
 7104      686F7261 
 7104      00
 7105              	.LASF81:
 7106 0192 50524E5F 		.ascii	"PRN_TRANSTYPE\000"
 7106      5452414E 
 7106      53545950 
 7106      4500
 7107              	.LASF63:
 7108 01a0 546F7461 		.ascii	"TotalRequestType\000"
 7108      6C526571 
 7108      75657374 
 7108      54797065 
ARM GAS  C:\Users\Lenovo\AppData\Local\Temp\ccVx5qP5.s 			page 144


 7108      00
 7109              	.LASF37:
 7110 01b1 4C434452 		.ascii	"LCDRx\000"
 7110      7800
 7111              	.LASF104:
 7112 01b7 50524E5F 		.ascii	"PRN_MONEYMONTH\000"
 7112      4D4F4E45 
 7112      594D4F4E 
 7112      544800
 7113              	.LASF93:
 7114 01c6 50524E5F 		.ascii	"PRN_ACCOUNT\000"
 7114      4143434F 
 7114      554E5400 
 7115              	.LASF99:
 7116 01d2 50524E5F 		.ascii	"PRN_VOLUMEDAY\000"
 7116      564F4C55 
 7116      4D454441 
 7116      5900
 7117              	.LASF33:
 7118 01e0 6D736E5F 		.ascii	"msn_plate\000"
 7118      706C6174 
 7118      6500
 7119              	.LASF109:
 7120 01ea 6D736E5F 		.ascii	"msn_lecact\000"
 7120      6C656361 
 7120      637400
 7121              	.LASF54:
 7122 01f5 696E745F 		.ascii	"int_shiftnumber\000"
 7122      73686966 
 7122      746E756D 
 7122      62657200 
 7123              	.LASF55:
 7124 0205 4C434468 		.ascii	"LCDhose\000"
 7124      6F736500 
 7125              	.LASF89:
 7126 020d 6D736E5F 		.ascii	"msn_venta\000"
 7126      76656E74 
 7126      6100
 7127              	.LASF80:
 7128 0217 50524E5F 		.ascii	"PRN_MILLEAGE\000"
 7128      4D494C4C 
 7128      45414745 
 7128      00
 7129              	.LASF90:
 7130 0224 6D736E5F 		.ascii	"msn_numero\000"
 7130      6E756D65 
 7130      726F00
 7131              	.LASF30:
 7132 022f 50726F63 		.ascii	"ProcessedmoneySale\000"
 7132      65737365 
 7132      646D6F6E 
 7132      65795361 
 7132      6C6500
 7133              	.LASF88:
 7134 0242 6D736E5F 		.ascii	"msn_cierre\000"
 7134      63696572 
 7134      726500
ARM GAS  C:\Users\Lenovo\AppData\Local\Temp\ccVx5qP5.s 			page 145


 7135              	.LASF112:
 7136 024d 53455041 		.ascii	"SEPARATOR\000"
 7136      5241544F 
 7136      5200
 7137              	.LASF27:
 7138 0257 73746174 		.ascii	"states\000"
 7138      657300
 7139              	.LASF18:
 7140 025e 63686172 		.ascii	"char\000"
 7140      00
 7141              	.LASF116:
 7142 0263 433A5C55 		.ascii	"C:\\Users\\Lenovo\\Documents\\GitHub\\Mepsan\\Mepsa"
 7142      73657273 
 7142      5C4C656E 
 7142      6F766F5C 
 7142      446F6375 
 7143 0290 6E2E6379 		.ascii	"n.cydsn\000"
 7143      64736E00 
 7144              	.LASF96:
 7145 0298 50524E5F 		.ascii	"PRN_VISITSDAY\000"
 7145      56495349 
 7145      54534441 
 7145      5900
 7146              	.LASF12:
 7147 02a6 75696E74 		.ascii	"uint16\000"
 7147      313600
 7148              	.LASF14:
 7149 02ad 696E7438 		.ascii	"int8\000"
 7149      00
 7150              	.LASF86:
 7151 02b2 6D736E5F 		.ascii	"msn_voltot\000"
 7151      766F6C74 
 7151      6F7400
 7152              	.LASF17:
 7153 02bd 63686172 		.ascii	"char8\000"
 7153      3800
 7154              	.LASF62:
 7155 02c3 506F7369 		.ascii	"Positions\000"
 7155      74696F6E 
 7155      7300
 7156              	.LASF76:
 7157 02cd 6D736E5F 		.ascii	"msn_gasoline\000"
 7157      6761736F 
 7157      6C696E65 
 7157      00
 7158              	.LASF23:
 7159 02da 6D6F6E65 		.ascii	"moneySale\000"
 7159      7953616C 
 7159      6500
 7160              	.LASF6:
 7161 02e4 6C6F6E67 		.ascii	"long long int\000"
 7161      206C6F6E 
 7161      6720696E 
 7161      7400
 7162              	.LASF25:
 7163 02f2 70707553 		.ascii	"ppuSale\000"
 7163      616C6500 
ARM GAS  C:\Users\Lenovo\AppData\Local\Temp\ccVx5qP5.s 			page 146


 7164              	.LASF48:
 7165 02fa 506F6C6C 		.ascii	"PollCounter\000"
 7165      436F756E 
 7165      74657200 
 7166              	.LASF22:
 7167 0306 7070754E 		.ascii	"ppuNozzle\000"
 7167      6F7A7A6C 
 7167      6500
 7168              	.LASF41:
 7169 0310 6C656374 		.ascii	"lectactual\000"
 7169      61637475 
 7169      616C00
 7170              	.LASF85:
 7171 031b 6D736E5F 		.ascii	"msn_vol\000"
 7171      766F6C00 
 7172              	.LASF44:
 7173 0323 61637475 		.ascii	"actual\000"
 7173      616C00
 7174              	.LASF13:
 7175 032a 75696E74 		.ascii	"uint32\000"
 7175      333200
 7176              	.LASF58:
 7177 0331 4D657073 		.ascii	"MepsanSendTo\000"
 7177      616E5365 
 7177      6E64546F 
 7177      00
 7178              	.LASF75:
 7179 033e 6D736E5F 		.ascii	"msn_diesel\000"
 7179      64696573 
 7179      656C00
 7180              	.LASF28:
 7181 0349 4D657073 		.ascii	"MepsanStore\000"
 7181      616E5374 
 7181      6F726500 
 7182              	.LASF49:
 7183 0355 43757272 		.ascii	"CurrentState\000"
 7183      656E7453 
 7183      74617465 
 7183      00
 7184              	.LASF19:
 7185 0362 6C6F6E67 		.ascii	"long double\000"
 7185      20646F75 
 7185      626C6500 
 7186              	.LASF95:
 7187 036e 50524E5F 		.ascii	"PRN_ACCOUNTTYPE\000"
 7187      4143434F 
 7187      554E5454 
 7187      59504500 
 7188              	.LASF97:
 7189 037e 50524E5F 		.ascii	"PRN_VISITSWEEK\000"
 7189      56495349 
 7189      54535745 
 7189      454B00
 7190              	.LASF2:
 7191 038d 73686F72 		.ascii	"short int\000"
 7191      7420696E 
 7191      7400
ARM GAS  C:\Users\Lenovo\AppData\Local\Temp\ccVx5qP5.s 			page 147


 7192              	.LASF61:
 7193 0397 6372635F 		.ascii	"crc_hi\000"
 7193      686900
 7194              	.LASF4:
 7195 039e 6C6F6E67 		.ascii	"long int\000"
 7195      20696E74 
 7195      00
 7196              	.LASF47:
 7197 03a7 49544D5F 		.ascii	"ITM_RxBuffer\000"
 7197      52784275 
 7197      66666572 
 7197      00
 7198              	.LASF29:
 7199 03b4 50726F63 		.ascii	"ProcessedTotals\000"
 7199      65737365 
 7199      64546F74 
 7199      616C7300 
 7200              	.LASF46:
 7201 03c4 72657374 		.ascii	"resta\000"
 7201      6100
 7202              	.LASF42:
 7203 03ca 6D656D6F 		.ascii	"memoria\000"
 7203      72696100 
 7204              	.LASF65:
 7205 03d2 746F7563 		.ascii	"touch1\000"
 7205      683100
 7206              	.LASF40:
 7207 03d9 6C656374 		.ascii	"lectanterior\000"
 7207      616E7465 
 7207      72696F72 
 7207      00
 7208              	.LASF102:
 7209 03e6 50524E5F 		.ascii	"PRN_MONEYDAY\000"
 7209      4D4F4E45 
 7209      59444159 
 7209      00
 7210              	.LASF60:
 7211 03f3 6372635F 		.ascii	"crc_lo\000"
 7211      6C6F00
 7212              	.LASF21:
 7213 03fa 746F7461 		.ascii	"totalsNozzle\000"
 7213      6C734E6F 
 7213      7A7A6C65 
 7213      00
 7214              	.LASF57:
 7215 0407 4D657073 		.ascii	"MepsanResponse\000"
 7215      616E5265 
 7215      73706F6E 
 7215      736500
 7216              	.LASF83:
 7217 0416 6D736E5F 		.ascii	"msn_product\000"
 7217      70726F64 
 7217      75637400 
 7218              	.LASF20:
 7219 0422 73697A65 		.ascii	"sizetype\000"
 7219      74797065 
 7219      00
ARM GAS  C:\Users\Lenovo\AppData\Local\Temp\ccVx5qP5.s 			page 148


 7220              	.LASF5:
 7221 042b 6C6F6E67 		.ascii	"long unsigned int\000"
 7221      20756E73 
 7221      69676E65 
 7221      6420696E 
 7221      7400
 7222              	.LASF117:
 7223 043d 61646472 		.ascii	"address\000"
 7223      65737300 
 7224              	.LASF10:
 7225 0445 696E7433 		.ascii	"int32_t\000"
 7225      325F7400 
 7226              	.LASF77:
 7227 044d 6D736E5F 		.ascii	"msn_fecha\000"
 7227      66656368 
 7227      6100
 7228              	.LASF38:
 7229 0457 5072696E 		.ascii	"PrintReceipt\000"
 7229      74526563 
 7229      65697074 
 7229      00
 7230              	.LASF36:
 7231 0464 73637265 		.ascii	"screen_size\000"
 7231      656E5F73 
 7231      697A6500 
 7232              	.LASF98:
 7233 0470 50524E5F 		.ascii	"PRN_VISITSMONTH\000"
 7233      56495349 
 7233      54534D4F 
 7233      4E544800 
 7234              	.LASF1:
 7235 0480 756E7369 		.ascii	"unsigned char\000"
 7235      676E6564 
 7235      20636861 
 7235      7200
 7236              	.LASF73:
 7237 048e 6D736E5F 		.ascii	"msn_footer\000"
 7237      666F6F74 
 7237      657200
 7238              	.LASF53:
 7239 0499 73686966 		.ascii	"shift_number\000"
 7239      745F6E75 
 7239      6D626572 
 7239      00
 7240              	.LASF67:
 7241 04a6 4C494E45 		.ascii	"LINE_FEED\000"
 7241      5F464545 
 7241      4400
 7242              	.LASF92:
 7243 04b0 50524E5F 		.ascii	"PRN_COMPANY\000"
 7243      434F4D50 
 7243      414E5900 
 7244              	.LASF43:
 7245 04bc 72657375 		.ascii	"resultado\000"
 7245      6C746164 
 7245      6F00
 7246              	.LASF51:
ARM GAS  C:\Users\Lenovo\AppData\Local\Temp\ccVx5qP5.s 			page 149


 7247 04c6 73616C65 		.ascii	"sale_number\000"
 7247      5F6E756D 
 7247      62657200 
 7248              	.LASF35:
 7249 04d2 70756D70 		.ascii	"pump\000"
 7249      00
 7250              	.LASF91:
 7251 04d7 50524E5F 		.ascii	"PRN_BALANCE\000"
 7251      42414C41 
 7251      4E434500 
 7252              	.LASF115:
 7253 04e3 7072696E 		.ascii	"printer.c\000"
 7253      7465722E 
 7253      6300
 7254              	.LASF45:
 7255 04ed 616E7465 		.ascii	"anterior\000"
 7255      72696F72 
 7255      00
 7256              	.LASF24:
 7257 04f6 766F6C75 		.ascii	"volumeSale\000"
 7257      6D655361 
 7257      6C6500
 7258              	.LASF107:
 7259 0501 50524E5F 		.ascii	"PRN_ID\000"
 7259      494400
 7260              	.LASF0:
 7261 0508 7369676E 		.ascii	"signed char\000"
 7261      65642063 
 7261      68617200 
 7262              	.LASF3:
 7263 0514 73686F72 		.ascii	"short unsigned int\000"
 7263      7420756E 
 7263      7369676E 
 7263      65642069 
 7263      6E7400
 7264              	.LASF106:
 7265 0527 50524E5F 		.ascii	"PRN_SIGNATURE\000"
 7265      5349474E 
 7265      41545552 
 7265      4500
 7266              	.LASF103:
 7267 0535 50524E5F 		.ascii	"PRN_MONEYWEEK\000"
 7267      4D4F4E45 
 7267      59574545 
 7267      4B00
 7268              	.LASF26:
 7269 0543 70726F64 		.ascii	"productSale\000"
 7269      75637453 
 7269      616C6500 
 7270              	.LASF70:
 7271 054f 6D736E5F 		.ascii	"msn_EDS2\000"
 7271      45445332 
 7271      00
 7272              	.LASF71:
 7273 0558 6D736E5F 		.ascii	"msn_EDS3\000"
 7273      45445333 
 7273      00
ARM GAS  C:\Users\Lenovo\AppData\Local\Temp\ccVx5qP5.s 			page 150


 7274              	.LASF72:
 7275 0561 6D736E5F 		.ascii	"msn_EDS4\000"
 7275      45445334 
 7275      00
 7276              	.LASF11:
 7277 056a 75696E74 		.ascii	"uint8\000"
 7277      3800
 7278              	.LASF16:
 7279 0570 646F7562 		.ascii	"double\000"
 7279      6C6500
 7280              	.LASF94:
 7281 0577 50524E5F 		.ascii	"PRN_SERIAL\000"
 7281      53455249 
 7281      414C00
 7282              	.LASF66:
 7283 0582 64697247 		.ascii	"dirGbr\000"
 7283      627200
 7284              	.LASF108:
 7285 0589 50524E5F 		.ascii	"PRN_CURRENCY\000"
 7285      43555252 
 7285      454E4359 
 7285      00
 7286              	.LASF68:
 7287 0596 566F6C53 		.ascii	"VolSimbol\000"
 7287      696D626F 
 7287      6C00
 7288              	.LASF34:
 7289 05a0 706F7369 		.ascii	"position\000"
 7289      74696F6E 
 7289      00
 7290              	.LASF111:
 7291 05a9 6D736E5F 		.ascii	"msn_dif\000"
 7291      64696600 
 7292              	.LASF87:
 7293 05b1 6D736E5F 		.ascii	"msn_din\000"
 7293      64696E00 
 7294              		.ident	"GCC: (GNU Tools for ARM Embedded Processors) 5.4.1 20160609 (release) [ARM/embedded-5-bran
