ARM GAS  C:\Users\Diego\AppData\Local\Temp\ccIAJaV8.s 			page 1


   1              		.syntax unified
   2              		.cpu cortex-m3
   3              		.fpu softvfp
   4              		.eabi_attribute 20, 1
   5              		.eabi_attribute 21, 1
   6              		.eabi_attribute 23, 3
   7              		.eabi_attribute 24, 1
   8              		.eabi_attribute 25, 1
   9              		.eabi_attribute 26, 1
  10              		.eabi_attribute 30, 6
  11              		.eabi_attribute 34, 1
  12              		.eabi_attribute 18, 4
  13              		.thumb
  14              		.syntax unified
  15              		.file	"printer.c"
  16              		.text
  17              	.Ltext0:
  18              		.cfi_sections	.debug_frame
  19              		.comm	PollCounter,2,2
  20              		.comm	CurrentState,1,1
  21              		.comm	Receipt,1,1
  22              		.comm	sale_number,6,4
  23              		.comm	sale_number_copy,6,4
  24              		.comm	hour_copy,6,4
  25              		.comm	date_copy,6,4
  26              		.comm	int_salenumber,1,1
  27              		.comm	shift_number,6,4
  28              		.comm	int_shiftnumber,1,1
  29              		.comm	LCDhose,1,1
  30              		.comm	side,1236,4
  31              		.comm	MepsanResponse,50,4
  32              		.comm	MepsanSendTo,50,4
  33              		.comm	PumpAddress,15,4
  34              		.comm	CRC,2,2
  35              		.comm	crc_lo,1,1
  36              		.comm	crc_hi,1,1
  37              		.comm	Positions,1,1
  38              		.comm	TotalRequestType,1,1
  39              		.comm	DecVol,1,1
  40              		.comm	touch1,20,4
  41              		.comm	dirGbr,1,1
  42              		.global	LINE_FEED
  43              		.data
  44              		.type	LINE_FEED, %object
  45              		.size	LINE_FEED, 1
  46              	LINE_FEED:
  47 0000 0A       		.byte	10
  48              		.global	VolSimbol
  49 0001 000000   		.align	2
  50              		.type	VolSimbol, %object
  51              		.size	VolSimbol, 1
  52              	VolSimbol:
  53 0004 47       		.ascii	"G"
  54              		.global	msn_POS
  55 0005 000000   		.align	2
  56              		.type	msn_POS, %object
  57              		.size	msn_POS, 32
ARM GAS  C:\Users\Diego\AppData\Local\Temp\ccIAJaV8.s 			page 2


  58              	msn_POS:
  59 0008 20202020 		.ascii	"      TIQUETE SISTEMA POS       "
  59      20205449 
  59      51554554 
  59      45205349 
  59      5354454D 
  60              		.global	msn_EDS
  61              		.align	2
  62              		.type	msn_EDS, %object
  63              		.size	msn_EDS, 32
  64              	msn_EDS:
  65 0028 20455354 		.ascii	" ESTACION DE SERVICIO EL OASIS  "
  65      4143494F 
  65      4E204445 
  65      20534552 
  65      56494349 
  66              		.global	msn_EDS2
  67              		.align	2
  68              		.type	msn_EDS2, %object
  69              		.size	msn_EDS2, 32
  70              	msn_EDS2:
  71 0048 20202020 		.ascii	"     Oscar Javier Gonzalez      "
  71      204F7363 
  71      6172204A 
  71      61766965 
  71      7220476F 
  72              		.global	msn_EDS3
  73              		.align	2
  74              		.type	msn_EDS3, %object
  75              		.size	msn_EDS3, 32
  76              	msn_EDS3:
  77 0068 20202020 		.ascii	"       NIT: 7.819.086-5         "
  77      2020204E 
  77      49543A20 
  77      372E3831 
  77      392E3038 
  78              		.global	msn_EDS4
  79              		.align	2
  80              		.type	msn_EDS4, %object
  81              		.size	msn_EDS4, 32
  82              	msn_EDS4:
  83 0088 20202020 		.ascii	"        Cra 10 No. 4-26         "
  83      20202020 
  83      43726120 
  83      3130204E 
  83      6F2E2034 
  84              		.global	msn_EDS5
  85              		.align	2
  86              		.type	msn_EDS5, %object
  87              		.size	msn_EDS5, 32
  88              	msn_EDS5:
  89 00a8 20202020 		.ascii	"        Tel: 3157886265         "
  89      20202020 
  89      54656C3A 
  89      20333135 
  89      37383836 
  90              		.global	msn_EDS6
ARM GAS  C:\Users\Diego\AppData\Local\Temp\ccIAJaV8.s 			page 3


  91              		.align	2
  92              		.type	msn_EDS6, %object
  93              		.size	msn_EDS6, 32
  94              	msn_EDS6:
  95 00c8 20202020 		.ascii	"      Puerto Lleras - Meta      "
  95      20205075 
  95      6572746F 
  95      204C6C65 
  95      72617320 
  96              		.global	msn_footer
  97              		.align	2
  98              		.type	msn_footer, %object
  99              		.size	msn_footer, 32
 100              	msn_footer:
 101 00e8 20202020 		.ascii	"      GRACIAS POR SU COMPRA     "
 101      20204752 
 101      41434941 
 101      5320504F 
 101      52205355 
 102              		.global	msn_footer2
 103              		.align	2
 104              		.type	msn_footer2, %object
 105              		.size	msn_footer2, 32
 106              	msn_footer2:
 107 0108 20202020 		.ascii	"          VUELVA PRONTO         "
 107      20202020 
 107      20205655 
 107      454C5641 
 107      2050524F 
 108              		.global	msn_footer3
 109              		.align	2
 110              		.type	msn_footer3, %object
 111              		.size	msn_footer3, 32
 112              	msn_footer3:
 113 0128 4669726D 		.ascii	"Firma:                          "
 113      613A2020 
 113      20202020 
 113      20202020 
 113      20202020 
 114              		.global	msn_footer4
 115              		.align	2
 116              		.type	msn_footer4, %object
 117              		.size	msn_footer4, 32
 118              	msn_footer4:
 119 0148 5F5F5F5F 		.ascii	"________________________________"
 119      5F5F5F5F 
 119      5F5F5F5F 
 119      5F5F5F5F 
 119      5F5F5F5F 
 120              		.global	msn_copy
 121              		.align	2
 122              		.type	msn_copy, %object
 123              		.size	msn_copy, 32
 124              	msn_copy:
 125 0168 20202020 		.ascii	"             COPIA              "
 125      20202020 
 125      20202020 
ARM GAS  C:\Users\Diego\AppData\Local\Temp\ccIAJaV8.s 			page 4


 125      20434F50 
 125      49412020 
 126              		.global	msn_original
 127              		.align	2
 128              		.type	msn_original, %object
 129              		.size	msn_original, 32
 130              	msn_original:
 131 0188 20202020 		.ascii	"            ORIGINAL            "
 131      20202020 
 131      20202020 
 131      4F524947 
 131      494E414C 
 132              		.global	msn_diesel
 133              		.align	2
 134              		.type	msn_diesel, %object
 135              		.size	msn_diesel, 9
 136              	msn_diesel:
 137 01a8 44696573 		.ascii	"Diesel   "
 137      656C2020 
 137      20
 138              		.global	msn_gasoline
 139 01b1 000000   		.align	2
 140              		.type	msn_gasoline, %object
 141              		.size	msn_gasoline, 10
 142              	msn_gasoline:
 143 01b4 436F7272 		.ascii	"Corriente "
 143      69656E74 
 143      6520
 144              		.global	msn_extra
 145 01be 0000     		.align	2
 146              		.type	msn_extra, %object
 147              		.size	msn_extra, 9
 148              	msn_extra:
 149 01c0 45787472 		.ascii	"Extra    "
 149      61202020 
 149      20
 150              		.global	msn_POS2
 151 01c9 000000   		.align	2
 152              		.type	msn_POS2, %object
 153              		.size	msn_POS2, 13
 154              	msn_POS2:
 155 01cc 436C6965 		.ascii	"Cliente:     "
 155      6E74653A 
 155      20202020 
 155      20
 156              		.global	msn_POS3
 157 01d9 000000   		.align	2
 158              		.type	msn_POS3, %object
 159              		.size	msn_POS3, 13
 160              	msn_POS3:
 161 01dc 432E432F 		.ascii	"C.C/NIT:     "
 161      4E49543A 
 161      20202020 
 161      20
 162              		.global	msn_POS4
 163 01e9 000000   		.align	2
 164              		.type	msn_POS4, %object
ARM GAS  C:\Users\Diego\AppData\Local\Temp\ccIAJaV8.s 			page 5


 165              		.size	msn_POS4, 32
 166              	msn_POS4:
 167 01ec 436F6469 		.ascii	"Codigo                          "
 167      676F2020 
 167      20202020 
 167      20202020 
 167      20202020 
 168              		.global	msn_POS5
 169              		.align	2
 170              		.type	msn_POS5, %object
 171              		.size	msn_POS5, 32
 172              	msn_POS5:
 173 020c 44657363 		.ascii	"Descripcion de item             "
 173      72697063 
 173      696F6E20 
 173      64652069 
 173      74656D20 
 174              		.global	msn_POS6
 175              		.align	2
 176              		.type	msn_POS6, %object
 177              		.size	msn_POS6, 32
 178              	msn_POS6:
 179 022c 43616E74 		.ascii	"Cantidad     PPU      Valor     "
 179      69646164 
 179      20202020 
 179      20505055 
 179      20202020 
 180              		.global	msn_POS7
 181              		.align	2
 182              		.type	msn_POS7, %object
 183              		.size	msn_POS7, 32
 184              	msn_POS7:
 185 024c 44697363 		.ascii	"Discriminacion de impuestos     "
 185      72696D69 
 185      6E616369 
 185      6F6E2064 
 185      6520696D 
 186              		.global	msn_POS8
 187              		.align	2
 188              		.type	msn_POS8, %object
 189              		.size	msn_POS8, 32
 190              	msn_POS8:
 191 026c 20202020 		.ascii	"             Base       Impuesto"
 191      20202020 
 191      20202020 
 191      20426173 
 191      65202020 
 192              		.global	msn_POS9
 193              		.align	2
 194              		.type	msn_POS9, %object
 195              		.size	msn_POS9, 13
 196              	msn_POS9:
 197 028c 45202049 		.ascii	"E  IVA  0%  \000"
 197      56412020 
 197      30252020 
 197      00
 198              		.global	msn_POS10
ARM GAS  C:\Users\Diego\AppData\Local\Temp\ccIAJaV8.s 			page 6


 199 0299 000000   		.align	2
 200              		.type	msn_POS10, %object
 201              		.size	msn_POS10, 13
 202              	msn_POS10:
 203 029c 53554254 		.ascii	"SUBTOTAL   :\000"
 203      4F54414C 
 203      2020203A 
 203      00
 204              		.global	msn_POS11
 205 02a9 000000   		.align	2
 206              		.type	msn_POS11, %object
 207              		.size	msn_POS11, 13
 208              	msn_POS11:
 209 02ac 49564120 		.ascii	"IVA        :\000"
 209      20202020 
 209      2020203A 
 209      00
 210              		.global	msn_POS12
 211 02b9 000000   		.align	2
 212              		.type	msn_POS12, %object
 213              		.size	msn_POS12, 13
 214              	msn_POS12:
 215 02bc 544F5441 		.ascii	"TOTAL      :\000"
 215      4C202020 
 215      2020203A 
 215      00
 216              		.global	msn_POS13
 217 02c9 000000   		.align	2
 218              		.type	msn_POS13, %object
 219              		.size	msn_POS13, 32
 220              	msn_POS13:
 221 02cc 4167656E 		.ascii	"Agente retenedor de IVA         "
 221      74652072 
 221      6574656E 
 221      65646F72 
 221      20646520 
 222              		.global	msn_POS14
 223              		.align	2
 224              		.type	msn_POS14, %object
 225              		.size	msn_POS14, 32
 226              	msn_POS14:
 227 02ec 5265732E 		.ascii	"Res. DIAN No. 123456789         "
 227      20444941 
 227      4E204E6F 
 227      2E203132 
 227      33343536 
 228              		.global	msn_POS15
 229              		.align	2
 230              		.type	msn_POS15, %object
 231              		.size	msn_POS15, 32
 232              	msn_POS15:
 233 030c 44656C20 		.ascii	"Del 2020/09/01                  "
 233      32303230 
 233      2F30392F 
 233      30312020 
 233      20202020 
 234              		.global	msn_POS16
ARM GAS  C:\Users\Diego\AppData\Local\Temp\ccIAJaV8.s 			page 7


 235              		.align	2
 236              		.type	msn_POS16, %object
 237              		.size	msn_POS16, 32
 238              	msn_POS16:
 239 032c 416C2020 		.ascii	"Al  2022/09/01                  "
 239      32303232 
 239      2F30392F 
 239      30312020 
 239      20202020 
 240              		.global	msn_POS17
 241              		.align	2
 242              		.type	msn_POS17, %object
 243              		.size	msn_POS17, 32
 244              	msn_POS17:
 245 034c 4175746F 		.ascii	"Autoriza de SUF-00              "
 245      72697A61 
 245      20646520 
 245      5355462D 
 245      30302020 
 246              		.global	msn_POS18
 247              		.align	2
 248              		.type	msn_POS18, %object
 249              		.size	msn_POS18, 32
 250              	msn_POS18:
 251 036c 416C2020 		.ascii	"Al  SUF-1300000000              "
 251      5355462D 
 251      31333030 
 251      30303030 
 251      30302020 
 252              		.global	msn_POS19
 253              		.align	2
 254              		.type	msn_POS19, %object
 255              		.size	msn_POS19, 32
 256              	msn_POS19:
 257 038c 56696765 		.ascii	"Vigencia: 24 meses              "
 257      6E636961 
 257      3A203234 
 257      206D6573 
 257      65732020 
 258              		.global	prefijo
 259              		.align	2
 260              		.type	prefijo, %object
 261              		.size	prefijo, 4
 262              	prefijo:
 263 03ac 5355462D 		.ascii	"SUF-"
 264              		.global	equipo
 265              		.align	2
 266              		.type	equipo, %object
 267              		.size	equipo, 13
 268              	equipo:
 269 03b0 45717569 		.ascii	"Equipo   : 1 "
 269      706F2020 
 269      203A2031 
 269      20
 270              		.global	msn_fecha
 271 03bd 000000   		.align	2
 272              		.type	msn_fecha, %object
ARM GAS  C:\Users\Diego\AppData\Local\Temp\ccIAJaV8.s 			page 8


 273              		.size	msn_fecha, 13
 274              	msn_fecha:
 275 03c0 46656368 		.ascii	"Fecha      : "
 275      61202020 
 275      2020203A 
 275      20
 276              		.global	msn_hora
 277 03cd 000000   		.align	2
 278              		.type	msn_hora, %object
 279              		.size	msn_hora, 13
 280              	msn_hora:
 281 03d0 486F7261 		.ascii	"Hora       : "
 281      20202020 
 281      2020203A 
 281      20
 282              		.global	msn_placa
 283 03dd 000000   		.align	2
 284              		.type	msn_placa, %object
 285              		.size	msn_placa, 13
 286              	msn_placa:
 287 03e0 506C6163 		.ascii	"Placa      : "
 287      61202020 
 287      2020203A 
 287      20
 288              		.global	PRN_MILLEAGE
 289 03ed 000000   		.align	2
 290              		.type	PRN_MILLEAGE, %object
 291              		.size	PRN_MILLEAGE, 13
 292              	PRN_MILLEAGE:
 293 03f0 4B696C6F 		.ascii	"Kilometraje: "
 293      6D657472 
 293      616A653A 
 293      20
 294              		.global	PRN_TRANSTYPE
 295 03fd 000000   		.align	2
 296              		.type	PRN_TRANSTYPE, %object
 297              		.size	PRN_TRANSTYPE, 13
 298              	PRN_TRANSTYPE:
 299 0400 5469706F 		.ascii	"Tipo       : "
 299      20202020 
 299      2020203A 
 299      20
 300              		.global	msn_pos
 301 040d 000000   		.align	2
 302              		.type	msn_pos, %object
 303              		.size	msn_pos, 13
 304              	msn_pos:
 305 0410 506F7369 		.ascii	"Posicion   : "
 305      63696F6E 
 305      2020203A 
 305      20
 306              		.global	msn_product
 307 041d 000000   		.align	2
 308              		.type	msn_product, %object
 309              		.size	msn_product, 13
 310              	msn_product:
 311 0420 50726F64 		.ascii	"Producto   : "
ARM GAS  C:\Users\Diego\AppData\Local\Temp\ccIAJaV8.s 			page 9


 311      7563746F 
 311      2020203A 
 311      20
 312              		.global	msn_ppu
 313 042d 000000   		.align	2
 314              		.type	msn_ppu, %object
 315              		.size	msn_ppu, 13
 316              	msn_ppu:
 317 0430 50505520 		.ascii	"PPU        : "
 317      20202020 
 317      2020203A 
 317      20
 318              		.global	msn_vol
 319 043d 000000   		.align	2
 320              		.type	msn_vol, %object
 321              		.size	msn_vol, 13
 322              	msn_vol:
 323 0440 566F6C75 		.ascii	"Volumen    : "
 323      6D656E20 
 323      2020203A 
 323      20
 324              		.global	msn_voltot
 325 044d 000000   		.align	2
 326              		.type	msn_voltot, %object
 327              		.size	msn_voltot, 13
 328              	msn_voltot:
 329 0450 546F742E 		.ascii	"Tot.Vol    : "
 329      566F6C20 
 329      2020203A 
 329      20
 330              		.global	msn_din
 331 045d 000000   		.align	2
 332              		.type	msn_din, %object
 333              		.size	msn_din, 13
 334              	msn_din:
 335 0460 496D706F 		.ascii	"Importe    : "
 335      72746520 
 335      2020203A 
 335      20
 336              		.global	msn_cierre
 337 046d 000000   		.align	2
 338              		.type	msn_cierre, %object
 339              		.size	msn_cierre, 13
 340              	msn_cierre:
 341 0470 43696572 		.ascii	"Cierre No  : "
 341      7265204E 
 341      6F20203A 
 341      20
 342              		.global	msn_venta
 343 047d 000000   		.align	2
 344              		.type	msn_venta, %object
 345              		.size	msn_venta, 13
 346              	msn_venta:
 347 0480 4E6F2020 		.ascii	"No         : "
 347      20202020 
 347      2020203A 
 347      20
ARM GAS  C:\Users\Diego\AppData\Local\Temp\ccIAJaV8.s 			page 10


 348              		.global	msn_numero
 349 048d 000000   		.align	2
 350              		.type	msn_numero, %object
 351              		.size	msn_numero, 13
 352              	msn_numero:
 353 0490 436F6E73 		.ascii	"Consecutivo: "
 353      65637574 
 353      69766F3A 
 353      20
 354              		.global	PRN_BALANCE
 355 049d 000000   		.align	2
 356              		.type	PRN_BALANCE, %object
 357              		.size	PRN_BALANCE, 13
 358              	PRN_BALANCE:
 359 04a0 53616C64 		.ascii	"Saldo      : "
 359      6F202020 
 359      2020203A 
 359      20
 360              		.global	PRN_COMPANY
 361 04ad 000000   		.align	2
 362              		.type	PRN_COMPANY, %object
 363              		.size	PRN_COMPANY, 13
 364              	PRN_COMPANY:
 365 04b0 456D7072 		.ascii	"Empresa    : "
 365      65736120 
 365      2020203A 
 365      20
 366              		.global	PRN_ACCOUNT
 367 04bd 000000   		.align	2
 368              		.type	PRN_ACCOUNT, %object
 369              		.size	PRN_ACCOUNT, 13
 370              	PRN_ACCOUNT:
 371 04c0 4375656E 		.ascii	"Cuenta     : "
 371      74612020 
 371      2020203A 
 371      20
 372              		.global	PRN_SERIAL
 373 04cd 000000   		.align	2
 374              		.type	PRN_SERIAL, %object
 375              		.size	PRN_SERIAL, 13
 376              	PRN_SERIAL:
 377 04d0 53657269 		.ascii	"Serial     : "
 377      616C2020 
 377      2020203A 
 377      20
 378              		.global	PRN_ACCOUNTTYPE
 379 04dd 000000   		.align	2
 380              		.type	PRN_ACCOUNTTYPE, %object
 381              		.size	PRN_ACCOUNTTYPE, 13
 382              	PRN_ACCOUNTTYPE:
 383 04e0 5469706F 		.ascii	"Tipo Cuenta: "
 383      20437565 
 383      6E74613A 
 383      20
 384              		.global	PRN_VISITSDAY
 385 04ed 000000   		.align	2
 386              		.type	PRN_VISITSDAY, %object
ARM GAS  C:\Users\Diego\AppData\Local\Temp\ccIAJaV8.s 			page 11


 387              		.size	PRN_VISITSDAY, 13
 388              	PRN_VISITSDAY:
 389 04f0 56697369 		.ascii	"Visitas Dia: "
 389      74617320 
 389      4469613A 
 389      20
 390              		.global	PRN_VISITSWEEK
 391 04fd 000000   		.align	2
 392              		.type	PRN_VISITSWEEK, %object
 393              		.size	PRN_VISITSWEEK, 13
 394              	PRN_VISITSWEEK:
 395 0500 56697369 		.ascii	"Visitas Sem: "
 395      74617320 
 395      53656D3A 
 395      20
 396              		.global	PRN_VISITSMONTH
 397 050d 000000   		.align	2
 398              		.type	PRN_VISITSMONTH, %object
 399              		.size	PRN_VISITSMONTH, 13
 400              	PRN_VISITSMONTH:
 401 0510 56697369 		.ascii	"Visitas Mes: "
 401      74617320 
 401      4D65733A 
 401      20
 402              		.global	PRN_VOLUMEDAY
 403 051d 000000   		.align	2
 404              		.type	PRN_VOLUMEDAY, %object
 405              		.size	PRN_VOLUMEDAY, 13
 406              	PRN_VOLUMEDAY:
 407 0520 566F6C75 		.ascii	"Volumen Dia: "
 407      6D656E20 
 407      4469613A 
 407      20
 408              		.global	PRN_VOLUMEWEEK
 409 052d 000000   		.align	2
 410              		.type	PRN_VOLUMEWEEK, %object
 411              		.size	PRN_VOLUMEWEEK, 13
 412              	PRN_VOLUMEWEEK:
 413 0530 566F6C75 		.ascii	"Volumen Sem: "
 413      6D656E20 
 413      53656D3A 
 413      20
 414              		.global	PRN_VOLUMEMONTH
 415 053d 000000   		.align	2
 416              		.type	PRN_VOLUMEMONTH, %object
 417              		.size	PRN_VOLUMEMONTH, 13
 418              	PRN_VOLUMEMONTH:
 419 0540 566F6C75 		.ascii	"Volumen Mes: "
 419      6D656E20 
 419      4D65733A 
 419      20
 420              		.global	PRN_MONEYDAY
 421 054d 000000   		.align	2
 422              		.type	PRN_MONEYDAY, %object
 423              		.size	PRN_MONEYDAY, 13
 424              	PRN_MONEYDAY:
 425 0550 44696E65 		.ascii	"Dinero Dia : "
ARM GAS  C:\Users\Diego\AppData\Local\Temp\ccIAJaV8.s 			page 12


 425      726F2044 
 425      6961203A 
 425      20
 426              		.global	PRN_MONEYWEEK
 427 055d 000000   		.align	2
 428              		.type	PRN_MONEYWEEK, %object
 429              		.size	PRN_MONEYWEEK, 13
 430              	PRN_MONEYWEEK:
 431 0560 44696E65 		.ascii	"Dinero Sem : "
 431      726F2053 
 431      656D203A 
 431      20
 432              		.global	PRN_MONEYMONTH
 433 056d 000000   		.align	2
 434              		.type	PRN_MONEYMONTH, %object
 435              		.size	PRN_MONEYMONTH, 13
 436              	PRN_MONEYMONTH:
 437 0570 44696E65 		.ascii	"Dinero Mes : "
 437      726F204D 
 437      6573203A 
 437      20
 438              		.global	PRN_PRESET
 439 057d 000000   		.align	2
 440              		.type	PRN_PRESET, %object
 441              		.size	PRN_PRESET, 13
 442              	PRN_PRESET:
 443 0580 56616C6F 		.ascii	"Valor Prog.: "
 443      72205072 
 443      6F672E3A 
 443      20
 444              		.global	PRN_SIGNATURE
 445 058d 000000   		.align	2
 446              		.type	PRN_SIGNATURE, %object
 447              		.size	PRN_SIGNATURE, 13
 448              	PRN_SIGNATURE:
 449 0590 4669726D 		.ascii	"Firma      : "
 449      61202020 
 449      2020203A 
 449      20
 450              		.global	PRN_ID
 451 059d 000000   		.align	2
 452              		.type	PRN_ID, %object
 453              		.size	PRN_ID, 13
 454              	PRN_ID:
 455 05a0 43656475 		.ascii	"Cedula     : "
 455      6C612020 
 455      2020203A 
 455      20
 456              		.global	PRN_CURRENCY
 457 05ad 000000   		.align	2
 458              		.type	PRN_CURRENCY, %object
 459              		.size	PRN_CURRENCY, 1
 460              	PRN_CURRENCY:
 461 05b0 24       		.ascii	"$"
 462              		.global	msn_lecact
 463 05b1 000000   		.align	2
 464              		.type	msn_lecact, %object
ARM GAS  C:\Users\Diego\AppData\Local\Temp\ccIAJaV8.s 			page 13


 465              		.size	msn_lecact, 16
 466              	msn_lecact:
 467 05b4 566F6C75 		.ascii	"Volumen actual: "
 467      6D656E20 
 467      61637475 
 467      616C3A20 
 468              		.global	msn_lecaan
 469              		.align	2
 470              		.type	msn_lecaan, %object
 471              		.size	msn_lecaan, 16
 472              	msn_lecaan:
 473 05c4 566F6C2E 		.ascii	"Vol. anterior:  "
 473      20616E74 
 473      6572696F 
 473      723A2020 
 474              		.global	msn_dif
 475              		.align	2
 476              		.type	msn_dif, %object
 477              		.size	msn_dif, 18
 478              	msn_dif:
 479 05d4 566F6C2E 		.ascii	"Vol. dispensado:  "
 479      20646973 
 479      70656E73 
 479      61646F3A 
 479      2020
 480              		.global	SEPARATOR
 481 05e6 0000     		.align	2
 482              		.type	SEPARATOR, %object
 483              		.size	SEPARATOR, 32
 484              	SEPARATOR:
 485 05e8 2D2D2D2D 		.ascii	"--------------------------------"
 485      2D2D2D2D 
 485      2D2D2D2D 
 485      2D2D2D2D 
 485      2D2D2D2D 
 486              		.global	ASK_TIME
 487              		.align	2
 488              		.type	ASK_TIME, %object
 489              		.size	ASK_TIME, 6
 490              	ASK_TIME:
 491 0608 5A       		.byte	90
 492 0609 A5       		.byte	-91
 493 060a 03       		.byte	3
 494 060b 81       		.byte	-127
 495 060c 20       		.byte	32
 496 060d 07       		.byte	7
 497              		.section	.text.PrintReceipt,"ax",%progbits
 498              		.align	2
 499              		.global	PrintReceipt
 500              		.thumb
 501              		.thumb_func
 502              		.type	PrintReceipt, %function
 503              	PrintReceipt:
 504              	.LFB64:
 505              		.file 1 "printer.c"
   1:printer.c     **** /* ========================================
   2:printer.c     ****  *
ARM GAS  C:\Users\Diego\AppData\Local\Temp\ccIAJaV8.s 			page 14


   3:printer.c     ****  * Copyright YOUR COMPANY, THE YEAR
   4:printer.c     ****  * All Rights Reserved
   5:printer.c     ****  * UNPUBLISHED, LICENSED SOFTWARE.
   6:printer.c     ****  *
   7:printer.c     ****  * CONFIDENTIAL AND PROPRIETARY INFORMATION
   8:printer.c     ****  * WHICH IS THE PROPERTY OF your company.
   9:printer.c     ****  *
  10:printer.c     ****  * ========================================
  11:printer.c     **** */
  12:printer.c     **** #include <project.h>
  13:printer.c     **** #include <GVar.h>
  14:printer.c     **** #include <stdio.h>
  15:printer.c     **** #include <stdlib.h>
  16:printer.c     **** #include <string.h>
  17:printer.c     **** 
  18:printer.c     **** uint8 LINE_FEED = 0x0A;
  19:printer.c     **** char VolSimbol[1] = "G";
  20:printer.c     **** 
  21:printer.c     **** 
  22:printer.c     **** //uint8 msn_EDS0[32]      = "      JUAN ELIECER CORTES       ";
  23:printer.c     **** /***********  Temporal messages ******************/
  24:printer.c     **** uint8 msn_POS[32]       = "      TIQUETE SISTEMA POS       ";
  25:printer.c     **** uint8 msn_EDS[32]       = " ESTACION DE SERVICIO EL OASIS  ";
  26:printer.c     **** uint8 msn_EDS2[32]      = "     Oscar Javier Gonzalez      ";
  27:printer.c     **** uint8 msn_EDS3[32]      = "       NIT: 7.819.086-5         ";
  28:printer.c     **** uint8 msn_EDS4[32]      = "        Cra 10 No. 4-26         ";
  29:printer.c     **** uint8 msn_EDS5[32]      = "        Tel: 3157886265         "; 
  30:printer.c     **** uint8 msn_EDS6[32]      = "      Puerto Lleras - Meta      ";
  31:printer.c     **** uint8 msn_footer[32]    = "      GRACIAS POR SU COMPRA     ";
  32:printer.c     **** uint8 msn_footer2[32]   = "          VUELVA PRONTO         ";
  33:printer.c     **** uint8 msn_footer3[32]   = "Firma:                          ";
  34:printer.c     **** uint8 msn_footer4[32]   = "________________________________";
  35:printer.c     **** uint8 msn_copy[32]      = "             COPIA              ";
  36:printer.c     **** uint8 msn_original[32]  = "            ORIGINAL            ";
  37:printer.c     **** uint8 msn_diesel[9]     = "Diesel   ";
  38:printer.c     **** uint8 msn_gasoline[10]  = "Corriente ";
  39:printer.c     **** uint8 msn_extra[9]      = "Extra    ";
  40:printer.c     **** uint8 msn_POS2[13]      = "Cliente:     ";
  41:printer.c     **** uint8 msn_POS3[13]      = "C.C/NIT:     ";
  42:printer.c     **** uint8 msn_POS4[32]      = "Codigo                          ";
  43:printer.c     **** uint8 msn_POS5[32]      = "Descripcion de item             ";
  44:printer.c     **** uint8 msn_POS6[32]      = "Cantidad     PPU      Valor     ";
  45:printer.c     **** uint8 msn_POS7[32]      = "Discriminacion de impuestos     ";
  46:printer.c     **** uint8 msn_POS8[32]      = "             Base       Impuesto";
  47:printer.c     **** uint8 msn_POS9[13]      = "E  IVA  0%  ";
  48:printer.c     **** uint8 msn_POS10[13]     = "SUBTOTAL   :";
  49:printer.c     **** uint8 msn_POS11[13]     = "IVA        :";
  50:printer.c     **** uint8 msn_POS12[13]     = "TOTAL      :";
  51:printer.c     **** uint8 msn_POS13[32]     = "Agente retenedor de IVA         ";
  52:printer.c     **** uint8 msn_POS14[32]     = "Res. DIAN No. 123456789         ";
  53:printer.c     **** uint8 msn_POS15[32]     = "Del 2020/09/01                  ";
  54:printer.c     **** uint8 msn_POS16[32]     = "Al  2022/09/01                  ";
  55:printer.c     **** uint8 msn_POS17[32]     = "Autoriza de SUF-00              ";
  56:printer.c     **** uint8 msn_POS18[32]     = "Al  SUF-1300000000              ";
  57:printer.c     **** uint8 msn_POS19[32]     = "Vigencia: 24 meses              ";
  58:printer.c     **** uint8 prefijo[4]        = "SUF-";
  59:printer.c     **** uint8 equipo[13]        = "Equipo   : 1 ";
ARM GAS  C:\Users\Diego\AppData\Local\Temp\ccIAJaV8.s 			page 15


  60:printer.c     **** 
  61:printer.c     **** /*********** informative messages ****************/
  62:printer.c     **** 
  63:printer.c     **** uint8 msn_fecha[13]       = "Fecha      : ";
  64:printer.c     **** uint8 msn_hora[13]        = "Hora       : ";
  65:printer.c     **** uint8 msn_placa[13]       = "Placa      : ";
  66:printer.c     **** uint8 PRN_MILLEAGE[13]    = "Kilometraje: ";
  67:printer.c     **** uint8 PRN_TRANSTYPE[13]   = "Tipo       : ";
  68:printer.c     **** uint8 msn_pos[13]         = "Posicion   : ";
  69:printer.c     **** uint8 msn_product[13]     = "Producto   : ";
  70:printer.c     **** uint8 msn_ppu[13]         = "PPU        : ";
  71:printer.c     **** uint8 msn_vol[13]         = "Volumen    : ";
  72:printer.c     **** uint8 msn_voltot[13]      = "Tot.Vol    : ";
  73:printer.c     **** uint8 msn_din[13]         = "Importe    : ";
  74:printer.c     **** uint8 msn_cierre[13]      = "Cierre No  : ";
  75:printer.c     **** uint8 msn_venta[13]       = "No         : ";
  76:printer.c     **** uint8 msn_numero[13]      = "Consecutivo: ";
  77:printer.c     **** uint8 PRN_BALANCE[13]     = "Saldo      : ";
  78:printer.c     **** uint8 PRN_COMPANY[13]     = "Empresa    : ";
  79:printer.c     **** uint8 PRN_ACCOUNT[13]     = "Cuenta     : ";
  80:printer.c     **** uint8 PRN_SERIAL[13]      = "Serial     : ";
  81:printer.c     **** uint8 PRN_ACCOUNTTYPE[13] = "Tipo Cuenta: ";
  82:printer.c     **** uint8 PRN_VISITSDAY[13]   = "Visitas Dia: ";
  83:printer.c     **** uint8 PRN_VISITSWEEK[13]  = "Visitas Sem: ";
  84:printer.c     **** uint8 PRN_VISITSMONTH[13] = "Visitas Mes: ";
  85:printer.c     **** uint8 PRN_VOLUMEDAY[13]   = "Volumen Dia: ";
  86:printer.c     **** uint8 PRN_VOLUMEWEEK[13]  = "Volumen Sem: ";
  87:printer.c     **** uint8 PRN_VOLUMEMONTH[13] = "Volumen Mes: ";
  88:printer.c     **** uint8 PRN_MONEYDAY[13]    = "Dinero Dia : ";
  89:printer.c     **** uint8 PRN_MONEYWEEK[13]   = "Dinero Sem : ";
  90:printer.c     **** uint8 PRN_MONEYMONTH[13]  = "Dinero Mes : ";
  91:printer.c     **** uint8 PRN_PRESET[13]      = "Valor Prog.: ";
  92:printer.c     **** uint8 PRN_SIGNATURE[13]   = "Firma      : ";
  93:printer.c     **** uint8 PRN_ID[13]          = "Cedula     : ";
  94:printer.c     **** uint8 PRN_CURRENCY[1]     = "$";
  95:printer.c     **** uint8 msn_lecact[16]      ="Volumen actual: ";
  96:printer.c     **** uint8 msn_lecaan[16]      ="Vol. anterior:  ";
  97:printer.c     **** uint8 msn_dif[18]         ="Vol. dispensado:  ";
  98:printer.c     **** uint8 SEPARATOR[32]       = "--------------------------------";
  99:printer.c     **** uint8 ASK_TIME[]={0x5A, 0xA5, 0x03, 0x81, 0x20, 0x07};
 100:printer.c     **** 
 101:printer.c     **** 
 102:printer.c     **** 
 103:printer.c     **** void PrintReceipt(uint8 address){
 506              		.loc 1 103 0
 507              		.cfi_startproc
 508              		@ args = 0, pretend = 0, frame = 80
 509              		@ frame_needed = 1, uses_anonymous_args = 0
 510 0000 90B5     		push	{r4, r7, lr}
 511              		.cfi_def_cfa_offset 12
 512              		.cfi_offset 4, -12
 513              		.cfi_offset 7, -8
 514              		.cfi_offset 14, -4
 515 0002 95B0     		sub	sp, sp, #84
 516              		.cfi_def_cfa_offset 96
 517 0004 00AF     		add	r7, sp, #0
 518              		.cfi_def_cfa_register 7
ARM GAS  C:\Users\Diego\AppData\Local\Temp\ccIAJaV8.s 			page 16


 519 0006 0346     		mov	r3, r0
 520 0008 FB71     		strb	r3, [r7, #7]
 104:printer.c     ****     int8 screen_size, date_sum;  
 105:printer.c     ****     screen_size = 0;
 521              		.loc 1 105 0
 522 000a 0023     		movs	r3, #0
 523 000c 87F84F30 		strb	r3, [r7, #79]
 106:printer.c     ****     sale_number[5]=(int_salenumber/10000)+48;
 524              		.loc 1 106 0
 525 0010 C14B     		ldr	r3, .L161
 526 0012 1B78     		ldrb	r3, [r3]	@ zero_extendqisi2
 527 0014 C14A     		ldr	r2, .L161+4
 528 0016 82FB0312 		smull	r1, r2, r2, r3
 529 001a 1213     		asrs	r2, r2, #12
 530 001c DB17     		asrs	r3, r3, #31
 531 001e D31A     		subs	r3, r2, r3
 532 0020 DBB2     		uxtb	r3, r3
 533 0022 3033     		adds	r3, r3, #48
 534 0024 DAB2     		uxtb	r2, r3
 535 0026 BE4B     		ldr	r3, .L161+8
 536 0028 5A71     		strb	r2, [r3, #5]
 107:printer.c     **** 	sale_number[4]=((int_salenumber%10000)/1000)+48;
 537              		.loc 1 107 0
 538 002a BB4B     		ldr	r3, .L161
 539 002c 1B78     		ldrb	r3, [r3]	@ zero_extendqisi2
 540 002e 1A46     		mov	r2, r3
 541 0030 BA4B     		ldr	r3, .L161+4
 542 0032 83FB0213 		smull	r1, r3, r3, r2
 543 0036 1913     		asrs	r1, r3, #12
 544 0038 D317     		asrs	r3, r2, #31
 545 003a CB1A     		subs	r3, r1, r3
 546 003c 42F21071 		movw	r1, #10000
 547 0040 01FB03F3 		mul	r3, r1, r3
 548 0044 D31A     		subs	r3, r2, r3
 549 0046 B74A     		ldr	r2, .L161+12
 550 0048 82FB0312 		smull	r1, r2, r2, r3
 551 004c 9211     		asrs	r2, r2, #6
 552 004e DB17     		asrs	r3, r3, #31
 553 0050 D31A     		subs	r3, r2, r3
 554 0052 DBB2     		uxtb	r3, r3
 555 0054 3033     		adds	r3, r3, #48
 556 0056 DAB2     		uxtb	r2, r3
 557 0058 B14B     		ldr	r3, .L161+8
 558 005a 1A71     		strb	r2, [r3, #4]
 108:printer.c     **** 	sale_number[3]=(((int_salenumber%10000)%1000)/100)+48;
 559              		.loc 1 108 0
 560 005c AE4B     		ldr	r3, .L161
 561 005e 1B78     		ldrb	r3, [r3]	@ zero_extendqisi2
 562 0060 1A46     		mov	r2, r3
 563 0062 AE4B     		ldr	r3, .L161+4
 564 0064 83FB0213 		smull	r1, r3, r3, r2
 565 0068 1913     		asrs	r1, r3, #12
 566 006a D317     		asrs	r3, r2, #31
 567 006c CB1A     		subs	r3, r1, r3
 568 006e 42F21071 		movw	r1, #10000
 569 0072 01FB03F3 		mul	r3, r1, r3
 570 0076 D31A     		subs	r3, r2, r3
ARM GAS  C:\Users\Diego\AppData\Local\Temp\ccIAJaV8.s 			page 17


 571 0078 AA4A     		ldr	r2, .L161+12
 572 007a 82FB0312 		smull	r1, r2, r2, r3
 573 007e 9111     		asrs	r1, r2, #6
 574 0080 DA17     		asrs	r2, r3, #31
 575 0082 8A1A     		subs	r2, r1, r2
 576 0084 4FF47A71 		mov	r1, #1000
 577 0088 01FB02F2 		mul	r2, r1, r2
 578 008c 9A1A     		subs	r2, r3, r2
 579 008e A64B     		ldr	r3, .L161+16
 580 0090 83FB0213 		smull	r1, r3, r3, r2
 581 0094 5911     		asrs	r1, r3, #5
 582 0096 D317     		asrs	r3, r2, #31
 583 0098 CB1A     		subs	r3, r1, r3
 584 009a DBB2     		uxtb	r3, r3
 585 009c 3033     		adds	r3, r3, #48
 586 009e DAB2     		uxtb	r2, r3
 587 00a0 9F4B     		ldr	r3, .L161+8
 588 00a2 DA70     		strb	r2, [r3, #3]
 109:printer.c     **** 	sale_number[2]=((((int_salenumber%10000)%1000)%100)/10)+48;	
 589              		.loc 1 109 0
 590 00a4 9C4B     		ldr	r3, .L161
 591 00a6 1B78     		ldrb	r3, [r3]	@ zero_extendqisi2
 592 00a8 9C4A     		ldr	r2, .L161+4
 593 00aa 82FB0312 		smull	r1, r2, r2, r3
 594 00ae 1113     		asrs	r1, r2, #12
 595 00b0 DA17     		asrs	r2, r3, #31
 596 00b2 8A1A     		subs	r2, r1, r2
 597 00b4 42F21071 		movw	r1, #10000
 598 00b8 01FB02F2 		mul	r2, r1, r2
 599 00bc 9A1A     		subs	r2, r3, r2
 600 00be 994B     		ldr	r3, .L161+12
 601 00c0 83FB0213 		smull	r1, r3, r3, r2
 602 00c4 9911     		asrs	r1, r3, #6
 603 00c6 D317     		asrs	r3, r2, #31
 604 00c8 CB1A     		subs	r3, r1, r3
 605 00ca 4FF47A71 		mov	r1, #1000
 606 00ce 01FB03F3 		mul	r3, r1, r3
 607 00d2 D31A     		subs	r3, r2, r3
 608 00d4 944A     		ldr	r2, .L161+16
 609 00d6 82FB0312 		smull	r1, r2, r2, r3
 610 00da 5111     		asrs	r1, r2, #5
 611 00dc DA17     		asrs	r2, r3, #31
 612 00de 8A1A     		subs	r2, r1, r2
 613 00e0 6421     		movs	r1, #100
 614 00e2 01FB02F2 		mul	r2, r1, r2
 615 00e6 9A1A     		subs	r2, r3, r2
 616 00e8 904B     		ldr	r3, .L161+20
 617 00ea 83FB0213 		smull	r1, r3, r3, r2
 618 00ee 9910     		asrs	r1, r3, #2
 619 00f0 D317     		asrs	r3, r2, #31
 620 00f2 CB1A     		subs	r3, r1, r3
 621 00f4 DBB2     		uxtb	r3, r3
 622 00f6 3033     		adds	r3, r3, #48
 623 00f8 DAB2     		uxtb	r2, r3
 624 00fa 894B     		ldr	r3, .L161+8
 625 00fc 9A70     		strb	r2, [r3, #2]
 110:printer.c     **** 	sale_number[1]=((((int_salenumber%10000)%1000)%100)%10)+48;
ARM GAS  C:\Users\Diego\AppData\Local\Temp\ccIAJaV8.s 			page 18


 626              		.loc 1 110 0
 627 00fe 864B     		ldr	r3, .L161
 628 0100 1B78     		ldrb	r3, [r3]	@ zero_extendqisi2
 629 0102 864A     		ldr	r2, .L161+4
 630 0104 82FB0312 		smull	r1, r2, r2, r3
 631 0108 1113     		asrs	r1, r2, #12
 632 010a DA17     		asrs	r2, r3, #31
 633 010c 8A1A     		subs	r2, r1, r2
 634 010e 42F21071 		movw	r1, #10000
 635 0112 01FB02F2 		mul	r2, r1, r2
 636 0116 9A1A     		subs	r2, r3, r2
 637 0118 824B     		ldr	r3, .L161+12
 638 011a 83FB0213 		smull	r1, r3, r3, r2
 639 011e 9911     		asrs	r1, r3, #6
 640 0120 D317     		asrs	r3, r2, #31
 641 0122 CB1A     		subs	r3, r1, r3
 642 0124 4FF47A71 		mov	r1, #1000
 643 0128 01FB03F3 		mul	r3, r1, r3
 644 012c D31A     		subs	r3, r2, r3
 645 012e 7E4A     		ldr	r2, .L161+16
 646 0130 82FB0312 		smull	r1, r2, r2, r3
 647 0134 5111     		asrs	r1, r2, #5
 648 0136 DA17     		asrs	r2, r3, #31
 649 0138 8A1A     		subs	r2, r1, r2
 650 013a 6421     		movs	r1, #100
 651 013c 01FB02F2 		mul	r2, r1, r2
 652 0140 9A1A     		subs	r2, r3, r2
 653 0142 7A4B     		ldr	r3, .L161+20
 654 0144 83FB0213 		smull	r1, r3, r3, r2
 655 0148 9910     		asrs	r1, r3, #2
 656 014a D317     		asrs	r3, r2, #31
 657 014c C91A     		subs	r1, r1, r3
 658 014e 0B46     		mov	r3, r1
 659 0150 9B00     		lsls	r3, r3, #2
 660 0152 0B44     		add	r3, r3, r1
 661 0154 5B00     		lsls	r3, r3, #1
 662 0156 D11A     		subs	r1, r2, r3
 663 0158 CBB2     		uxtb	r3, r1
 664 015a 3033     		adds	r3, r3, #48
 665 015c DAB2     		uxtb	r2, r3
 666 015e 704B     		ldr	r3, .L161+8
 667 0160 5A70     		strb	r2, [r3, #1]
 668              	.LBB2:
 111:printer.c     ****     for(uint8 i = 1; i<6; i++){
 669              		.loc 1 111 0
 670 0162 0123     		movs	r3, #1
 671 0164 87F84E30 		strb	r3, [r7, #78]
 672 0168 0FE0     		b	.L2
 673              	.L3:
 112:printer.c     ****         EEPROM_1_WriteByte(sale_number[i],i);
 674              		.loc 1 112 0 discriminator 3
 675 016a 97F84E30 		ldrb	r3, [r7, #78]	@ zero_extendqisi2
 676 016e 6C4A     		ldr	r2, .L161+8
 677 0170 D35C     		ldrb	r3, [r2, r3]	@ zero_extendqisi2
 678 0172 97F84E20 		ldrb	r2, [r7, #78]	@ zero_extendqisi2
 679 0176 92B2     		uxth	r2, r2
 680 0178 1146     		mov	r1, r2
ARM GAS  C:\Users\Diego\AppData\Local\Temp\ccIAJaV8.s 			page 19


 681 017a 1846     		mov	r0, r3
 682 017c FFF7FEFF 		bl	EEPROM_1_WriteByte
 111:printer.c     ****     for(uint8 i = 1; i<6; i++){
 683              		.loc 1 111 0 discriminator 3
 684 0180 97F84E30 		ldrb	r3, [r7, #78]	@ zero_extendqisi2
 685 0184 0133     		adds	r3, r3, #1
 686 0186 87F84E30 		strb	r3, [r7, #78]
 687              	.L2:
 111:printer.c     ****     for(uint8 i = 1; i<6; i++){
 688              		.loc 1 111 0 is_stmt 0 discriminator 1
 689 018a 97F84E30 		ldrb	r3, [r7, #78]	@ zero_extendqisi2
 690 018e 052B     		cmp	r3, #5
 691 0190 EBD9     		bls	.L3
 692              	.LBE2:
 113:printer.c     ****     }
 114:printer.c     ****     while(screen_size == 0){
 693              		.loc 1 114 0 is_stmt 1
 694 0192 1BE0     		b	.L4
 695              	.L7:
 696              	.LBB3:
 115:printer.c     ****         for(uint8 LCDRx = 0; LCDRx < 6; LCDRx++){
 697              		.loc 1 115 0
 698 0194 0023     		movs	r3, #0
 699 0196 87F84D30 		strb	r3, [r7, #77]
 700 019a 0BE0     		b	.L5
 701              	.L6:
 116:printer.c     ****             screen_PutChar(ASK_TIME[LCDRx]);
 702              		.loc 1 116 0 discriminator 3
 703 019c 97F84D30 		ldrb	r3, [r7, #77]	@ zero_extendqisi2
 704 01a0 634A     		ldr	r2, .L161+24
 705 01a2 D35C     		ldrb	r3, [r2, r3]	@ zero_extendqisi2
 706 01a4 1846     		mov	r0, r3
 707 01a6 FFF7FEFF 		bl	screen_PutChar
 115:printer.c     ****         for(uint8 LCDRx = 0; LCDRx < 6; LCDRx++){
 708              		.loc 1 115 0 discriminator 3
 709 01aa 97F84D30 		ldrb	r3, [r7, #77]	@ zero_extendqisi2
 710 01ae 0133     		adds	r3, r3, #1
 711 01b0 87F84D30 		strb	r3, [r7, #77]
 712              	.L5:
 115:printer.c     ****         for(uint8 LCDRx = 0; LCDRx < 6; LCDRx++){
 713              		.loc 1 115 0 is_stmt 0 discriminator 1
 714 01b4 97F84D30 		ldrb	r3, [r7, #77]	@ zero_extendqisi2
 715 01b8 052B     		cmp	r3, #5
 716 01ba EFD9     		bls	.L6
 717              	.LBE3:
 117:printer.c     ****         }
 118:printer.c     ****         CyDelay(4);
 718              		.loc 1 118 0 is_stmt 1
 719 01bc 0420     		movs	r0, #4
 720 01be FFF7FEFF 		bl	CyDelay
 119:printer.c     ****         screen_size = screen_GetRxBufferSize();
 721              		.loc 1 119 0
 722 01c2 FFF7FEFF 		bl	screen_GetRxBufferSize
 723 01c6 0346     		mov	r3, r0
 724 01c8 87F84F30 		strb	r3, [r7, #79]
 725              	.L4:
 114:printer.c     ****         for(uint8 LCDRx = 0; LCDRx < 6; LCDRx++){
ARM GAS  C:\Users\Diego\AppData\Local\Temp\ccIAJaV8.s 			page 20


 726              		.loc 1 114 0
 727 01cc 97F94F30 		ldrsb	r3, [r7, #79]
 728 01d0 002B     		cmp	r3, #0
 729 01d2 DFD0     		beq	.L7
 120:printer.c     ****     }
 121:printer.c     ****     if(screen_size >= 13 ){
 730              		.loc 1 121 0
 731 01d4 97F94F30 		ldrsb	r3, [r7, #79]
 732 01d8 0C2B     		cmp	r3, #12
 733 01da 19DD     		ble	.L8
 734              	.LBB4:
 122:printer.c     ****         for(uint8 LCDRx = 0; LCDRx < screen_size; LCDRx++){
 735              		.loc 1 122 0
 736 01dc 0023     		movs	r3, #0
 737 01de 87F84C30 		strb	r3, [r7, #76]
 738 01e2 0CE0     		b	.L9
 739              	.L10:
 123:printer.c     ****             touch1[LCDRx] = screen_ReadRxData();
 740              		.loc 1 123 0 discriminator 3
 741 01e4 97F84C40 		ldrb	r4, [r7, #76]	@ zero_extendqisi2
 742 01e8 FFF7FEFF 		bl	screen_ReadRxData
 743 01ec 0346     		mov	r3, r0
 744 01ee 1A46     		mov	r2, r3
 745 01f0 504B     		ldr	r3, .L161+28
 746 01f2 1A55     		strb	r2, [r3, r4]
 122:printer.c     ****         for(uint8 LCDRx = 0; LCDRx < screen_size; LCDRx++){
 747              		.loc 1 122 0 discriminator 3
 748 01f4 97F84C30 		ldrb	r3, [r7, #76]	@ zero_extendqisi2
 749 01f8 0133     		adds	r3, r3, #1
 750 01fa 87F84C30 		strb	r3, [r7, #76]
 751              	.L9:
 122:printer.c     ****         for(uint8 LCDRx = 0; LCDRx < screen_size; LCDRx++){
 752              		.loc 1 122 0 is_stmt 0 discriminator 1
 753 01fe 97F84C20 		ldrb	r2, [r7, #76]	@ zero_extendqisi2
 754 0202 97F94F30 		ldrsb	r3, [r7, #79]
 755 0206 9A42     		cmp	r2, r3
 756 0208 ECDB     		blt	.L10
 757              	.LBE4:
 124:printer.c     ****         }
 125:printer.c     ****         screen_size = 0;
 758              		.loc 1 125 0 is_stmt 1
 759 020a 0023     		movs	r3, #0
 760 020c 87F84F30 		strb	r3, [r7, #79]
 761              	.L8:
 126:printer.c     ****     }
 127:printer.c     ****     date_sum = touch1[6] + touch1[7] + touch1[8];
 762              		.loc 1 127 0
 763 0210 484B     		ldr	r3, .L161+28
 764 0212 9A79     		ldrb	r2, [r3, #6]	@ zero_extendqisi2
 765 0214 474B     		ldr	r3, .L161+28
 766 0216 DB79     		ldrb	r3, [r3, #7]	@ zero_extendqisi2
 767 0218 1344     		add	r3, r3, r2
 768 021a DAB2     		uxtb	r2, r3
 769 021c 454B     		ldr	r3, .L161+28
 770 021e 1B7A     		ldrb	r3, [r3, #8]	@ zero_extendqisi2
 771 0220 1344     		add	r3, r3, r2
 772 0222 DBB2     		uxtb	r3, r3
ARM GAS  C:\Users\Diego\AppData\Local\Temp\ccIAJaV8.s 			page 21


 773 0224 BB72     		strb	r3, [r7, #10]
 128:printer.c     ****     while(touch1[8] == 0x00 || touch1[6] == 00){
 774              		.loc 1 128 0
 775 0226 39E0     		b	.L11
 776              	.L16:
 777              	.LBB5:
 129:printer.c     ****         for(uint8 LCDRx = 0; LCDRx < 6; LCDRx++){
 778              		.loc 1 129 0
 779 0228 0023     		movs	r3, #0
 780 022a 87F84B30 		strb	r3, [r7, #75]
 781 022e 0BE0     		b	.L12
 782              	.L13:
 130:printer.c     ****             screen_PutChar(ASK_TIME[LCDRx]);
 783              		.loc 1 130 0 discriminator 3
 784 0230 97F84B30 		ldrb	r3, [r7, #75]	@ zero_extendqisi2
 785 0234 3E4A     		ldr	r2, .L161+24
 786 0236 D35C     		ldrb	r3, [r2, r3]	@ zero_extendqisi2
 787 0238 1846     		mov	r0, r3
 788 023a FFF7FEFF 		bl	screen_PutChar
 129:printer.c     ****         for(uint8 LCDRx = 0; LCDRx < 6; LCDRx++){
 789              		.loc 1 129 0 discriminator 3
 790 023e 97F84B30 		ldrb	r3, [r7, #75]	@ zero_extendqisi2
 791 0242 0133     		adds	r3, r3, #1
 792 0244 87F84B30 		strb	r3, [r7, #75]
 793              	.L12:
 129:printer.c     ****         for(uint8 LCDRx = 0; LCDRx < 6; LCDRx++){
 794              		.loc 1 129 0 is_stmt 0 discriminator 1
 795 0248 97F84B30 		ldrb	r3, [r7, #75]	@ zero_extendqisi2
 796 024c 052B     		cmp	r3, #5
 797 024e EFD9     		bls	.L13
 798              	.LBE5:
 131:printer.c     ****         }
 132:printer.c     ****         CyDelay(4);
 799              		.loc 1 132 0 is_stmt 1
 800 0250 0420     		movs	r0, #4
 801 0252 FFF7FEFF 		bl	CyDelay
 133:printer.c     ****         screen_size = screen_GetRxBufferSize();
 802              		.loc 1 133 0
 803 0256 FFF7FEFF 		bl	screen_GetRxBufferSize
 804 025a 0346     		mov	r3, r0
 805 025c 87F84F30 		strb	r3, [r7, #79]
 134:printer.c     ****         if(screen_size >= 13 ){                        
 806              		.loc 1 134 0
 807 0260 97F94F30 		ldrsb	r3, [r7, #79]
 808 0264 0C2B     		cmp	r3, #12
 809 0266 19DD     		ble	.L11
 810              	.LBB6:
 135:printer.c     ****             for(uint8 LCDRx = 0; LCDRx < screen_size; LCDRx++){
 811              		.loc 1 135 0
 812 0268 0023     		movs	r3, #0
 813 026a 87F84A30 		strb	r3, [r7, #74]
 814 026e 0CE0     		b	.L14
 815              	.L15:
 136:printer.c     ****                 touch1[LCDRx] = screen_ReadRxData();
 816              		.loc 1 136 0 discriminator 3
 817 0270 97F84A40 		ldrb	r4, [r7, #74]	@ zero_extendqisi2
 818 0274 FFF7FEFF 		bl	screen_ReadRxData
ARM GAS  C:\Users\Diego\AppData\Local\Temp\ccIAJaV8.s 			page 22


 819 0278 0346     		mov	r3, r0
 820 027a 1A46     		mov	r2, r3
 821 027c 2D4B     		ldr	r3, .L161+28
 822 027e 1A55     		strb	r2, [r3, r4]
 135:printer.c     ****             for(uint8 LCDRx = 0; LCDRx < screen_size; LCDRx++){
 823              		.loc 1 135 0 discriminator 3
 824 0280 97F84A30 		ldrb	r3, [r7, #74]	@ zero_extendqisi2
 825 0284 0133     		adds	r3, r3, #1
 826 0286 87F84A30 		strb	r3, [r7, #74]
 827              	.L14:
 135:printer.c     ****             for(uint8 LCDRx = 0; LCDRx < screen_size; LCDRx++){
 828              		.loc 1 135 0 is_stmt 0 discriminator 1
 829 028a 97F84A20 		ldrb	r2, [r7, #74]	@ zero_extendqisi2
 830 028e 97F94F30 		ldrsb	r3, [r7, #79]
 831 0292 9A42     		cmp	r2, r3
 832 0294 ECDB     		blt	.L15
 833              	.LBE6:
 137:printer.c     ****             }
 138:printer.c     ****             screen_size = 0;
 834              		.loc 1 138 0 is_stmt 1
 835 0296 0023     		movs	r3, #0
 836 0298 87F84F30 		strb	r3, [r7, #79]
 837              	.L11:
 128:printer.c     ****         for(uint8 LCDRx = 0; LCDRx < 6; LCDRx++){
 838              		.loc 1 128 0
 839 029c 254B     		ldr	r3, .L161+28
 840 029e 1B7A     		ldrb	r3, [r3, #8]	@ zero_extendqisi2
 841 02a0 002B     		cmp	r3, #0
 842 02a2 C1D0     		beq	.L16
 128:printer.c     ****         for(uint8 LCDRx = 0; LCDRx < 6; LCDRx++){
 843              		.loc 1 128 0 is_stmt 0 discriminator 1
 844 02a4 234B     		ldr	r3, .L161+28
 845 02a6 9B79     		ldrb	r3, [r3, #6]	@ zero_extendqisi2
 846 02a8 002B     		cmp	r3, #0
 847 02aa BDD0     		beq	.L16
 848              	.LBB7:
 139:printer.c     ****         }
 140:printer.c     ****     }    
 141:printer.c     **** 	for(uint8 x = 0; x < 32; x ++){
 849              		.loc 1 141 0 is_stmt 1
 850 02ac 0023     		movs	r3, #0
 851 02ae 87F84930 		strb	r3, [r7, #73]
 852 02b2 0BE0     		b	.L17
 853              	.L18:
 142:printer.c     **** 		PRINTER_A_PutChar(msn_EDS[x]);
 854              		.loc 1 142 0 discriminator 3
 855 02b4 97F84930 		ldrb	r3, [r7, #73]	@ zero_extendqisi2
 856 02b8 1F4A     		ldr	r2, .L161+32
 857 02ba D35C     		ldrb	r3, [r2, r3]	@ zero_extendqisi2
 858 02bc 1846     		mov	r0, r3
 859 02be FFF7FEFF 		bl	PRINTER_A_PutChar
 141:printer.c     **** 		PRINTER_A_PutChar(msn_EDS[x]);
 860              		.loc 1 141 0 discriminator 3
 861 02c2 97F84930 		ldrb	r3, [r7, #73]	@ zero_extendqisi2
 862 02c6 0133     		adds	r3, r3, #1
 863 02c8 87F84930 		strb	r3, [r7, #73]
 864              	.L17:
ARM GAS  C:\Users\Diego\AppData\Local\Temp\ccIAJaV8.s 			page 23


 141:printer.c     **** 		PRINTER_A_PutChar(msn_EDS[x]);
 865              		.loc 1 141 0 is_stmt 0 discriminator 1
 866 02cc 97F84930 		ldrb	r3, [r7, #73]	@ zero_extendqisi2
 867 02d0 1F2B     		cmp	r3, #31
 868 02d2 EFD9     		bls	.L18
 869              	.LBE7:
 143:printer.c     **** 	}
 144:printer.c     ****     PRINTER_A_PutChar(LINE_FEED);
 870              		.loc 1 144 0 is_stmt 1
 871 02d4 194B     		ldr	r3, .L161+36
 872 02d6 1B78     		ldrb	r3, [r3]	@ zero_extendqisi2
 873 02d8 1846     		mov	r0, r3
 874 02da FFF7FEFF 		bl	PRINTER_A_PutChar
 875              	.LBB8:
 145:printer.c     **** 	for(uint8 x = 0; x < 32; x ++){
 876              		.loc 1 145 0
 877 02de 0023     		movs	r3, #0
 878 02e0 87F84830 		strb	r3, [r7, #72]
 879 02e4 0BE0     		b	.L19
 880              	.L20:
 146:printer.c     **** 		PRINTER_A_PutChar(msn_EDS2[x]);
 881              		.loc 1 146 0 discriminator 3
 882 02e6 97F84830 		ldrb	r3, [r7, #72]	@ zero_extendqisi2
 883 02ea 154A     		ldr	r2, .L161+40
 884 02ec D35C     		ldrb	r3, [r2, r3]	@ zero_extendqisi2
 885 02ee 1846     		mov	r0, r3
 886 02f0 FFF7FEFF 		bl	PRINTER_A_PutChar
 145:printer.c     **** 	for(uint8 x = 0; x < 32; x ++){
 887              		.loc 1 145 0 discriminator 3
 888 02f4 97F84830 		ldrb	r3, [r7, #72]	@ zero_extendqisi2
 889 02f8 0133     		adds	r3, r3, #1
 890 02fa 87F84830 		strb	r3, [r7, #72]
 891              	.L19:
 145:printer.c     **** 	for(uint8 x = 0; x < 32; x ++){
 892              		.loc 1 145 0 is_stmt 0 discriminator 1
 893 02fe 97F84830 		ldrb	r3, [r7, #72]	@ zero_extendqisi2
 894 0302 1F2B     		cmp	r3, #31
 895 0304 EFD9     		bls	.L20
 896              	.LBE8:
 147:printer.c     **** 	}
 148:printer.c     **** 	PRINTER_A_PutChar(LINE_FEED);
 897              		.loc 1 148 0 is_stmt 1
 898 0306 0D4B     		ldr	r3, .L161+36
 899 0308 1B78     		ldrb	r3, [r3]	@ zero_extendqisi2
 900 030a 1846     		mov	r0, r3
 901 030c FFF7FEFF 		bl	PRINTER_A_PutChar
 902              	.LBB9:
 149:printer.c     **** //    for(uint8 x = 0; x < 32; x ++){
 150:printer.c     **** //		PRINTER_A_PutChar(msn_EDS0[x]);
 151:printer.c     **** //	}
 152:printer.c     **** //	PRINTER_A_PutChar(LINE_FEED);
 153:printer.c     **** 	for(uint8 x = 0; x < 32; x ++){
 903              		.loc 1 153 0
 904 0310 0023     		movs	r3, #0
 905 0312 87F84730 		strb	r3, [r7, #71]
 906 0316 21E0     		b	.L21
 907              	.L162:
ARM GAS  C:\Users\Diego\AppData\Local\Temp\ccIAJaV8.s 			page 24


 908              		.align	2
 909              	.L161:
 910 0318 00000000 		.word	int_salenumber
 911 031c AD8BDB68 		.word	1759218605
 912 0320 00000000 		.word	sale_number
 913 0324 D34D6210 		.word	274877907
 914 0328 1F85EB51 		.word	1374389535
 915 032c 67666666 		.word	1717986919
 916 0330 00000000 		.word	ASK_TIME
 917 0334 00000000 		.word	touch1
 918 0338 00000000 		.word	msn_EDS
 919 033c 00000000 		.word	LINE_FEED
 920 0340 00000000 		.word	msn_EDS2
 921              	.L22:
 154:printer.c     **** 		PRINTER_A_PutChar(msn_EDS3[x]);
 922              		.loc 1 154 0 discriminator 3
 923 0344 97F84730 		ldrb	r3, [r7, #71]	@ zero_extendqisi2
 924 0348 B34A     		ldr	r2, .L163
 925 034a D35C     		ldrb	r3, [r2, r3]	@ zero_extendqisi2
 926 034c 1846     		mov	r0, r3
 927 034e FFF7FEFF 		bl	PRINTER_A_PutChar
 153:printer.c     **** 		PRINTER_A_PutChar(msn_EDS3[x]);
 928              		.loc 1 153 0 discriminator 3
 929 0352 97F84730 		ldrb	r3, [r7, #71]	@ zero_extendqisi2
 930 0356 0133     		adds	r3, r3, #1
 931 0358 87F84730 		strb	r3, [r7, #71]
 932              	.L21:
 153:printer.c     **** 		PRINTER_A_PutChar(msn_EDS3[x]);
 933              		.loc 1 153 0 is_stmt 0 discriminator 1
 934 035c 97F84730 		ldrb	r3, [r7, #71]	@ zero_extendqisi2
 935 0360 1F2B     		cmp	r3, #31
 936 0362 EFD9     		bls	.L22
 937              	.LBE9:
 155:printer.c     **** 	}
 156:printer.c     **** 	PRINTER_A_PutChar(LINE_FEED);
 938              		.loc 1 156 0 is_stmt 1
 939 0364 AD4B     		ldr	r3, .L163+4
 940 0366 1B78     		ldrb	r3, [r3]	@ zero_extendqisi2
 941 0368 1846     		mov	r0, r3
 942 036a FFF7FEFF 		bl	PRINTER_A_PutChar
 943              	.LBB10:
 157:printer.c     **** 	for(uint8 x = 0; x < 32; x ++){
 944              		.loc 1 157 0
 945 036e 0023     		movs	r3, #0
 946 0370 87F84630 		strb	r3, [r7, #70]
 947 0374 0BE0     		b	.L23
 948              	.L24:
 158:printer.c     **** 		PRINTER_A_PutChar(msn_EDS4[x]);
 949              		.loc 1 158 0 discriminator 3
 950 0376 97F84630 		ldrb	r3, [r7, #70]	@ zero_extendqisi2
 951 037a A94A     		ldr	r2, .L163+8
 952 037c D35C     		ldrb	r3, [r2, r3]	@ zero_extendqisi2
 953 037e 1846     		mov	r0, r3
 954 0380 FFF7FEFF 		bl	PRINTER_A_PutChar
 157:printer.c     **** 	for(uint8 x = 0; x < 32; x ++){
 955              		.loc 1 157 0 discriminator 3
 956 0384 97F84630 		ldrb	r3, [r7, #70]	@ zero_extendqisi2
ARM GAS  C:\Users\Diego\AppData\Local\Temp\ccIAJaV8.s 			page 25


 957 0388 0133     		adds	r3, r3, #1
 958 038a 87F84630 		strb	r3, [r7, #70]
 959              	.L23:
 157:printer.c     **** 	for(uint8 x = 0; x < 32; x ++){
 960              		.loc 1 157 0 is_stmt 0 discriminator 1
 961 038e 97F84630 		ldrb	r3, [r7, #70]	@ zero_extendqisi2
 962 0392 1F2B     		cmp	r3, #31
 963 0394 EFD9     		bls	.L24
 964              	.LBE10:
 159:printer.c     **** 	}
 160:printer.c     ****     PRINTER_A_PutChar(LINE_FEED);
 965              		.loc 1 160 0 is_stmt 1
 966 0396 A14B     		ldr	r3, .L163+4
 967 0398 1B78     		ldrb	r3, [r3]	@ zero_extendqisi2
 968 039a 1846     		mov	r0, r3
 969 039c FFF7FEFF 		bl	PRINTER_A_PutChar
 970              	.LBB11:
 161:printer.c     ****     for(uint8 x = 0; x < 32; x ++){
 971              		.loc 1 161 0
 972 03a0 0023     		movs	r3, #0
 973 03a2 87F84530 		strb	r3, [r7, #69]
 974 03a6 0BE0     		b	.L25
 975              	.L26:
 162:printer.c     **** 		PRINTER_A_PutChar(msn_EDS5[x]);
 976              		.loc 1 162 0 discriminator 3
 977 03a8 97F84530 		ldrb	r3, [r7, #69]	@ zero_extendqisi2
 978 03ac 9D4A     		ldr	r2, .L163+12
 979 03ae D35C     		ldrb	r3, [r2, r3]	@ zero_extendqisi2
 980 03b0 1846     		mov	r0, r3
 981 03b2 FFF7FEFF 		bl	PRINTER_A_PutChar
 161:printer.c     ****     for(uint8 x = 0; x < 32; x ++){
 982              		.loc 1 161 0 discriminator 3
 983 03b6 97F84530 		ldrb	r3, [r7, #69]	@ zero_extendqisi2
 984 03ba 0133     		adds	r3, r3, #1
 985 03bc 87F84530 		strb	r3, [r7, #69]
 986              	.L25:
 161:printer.c     ****     for(uint8 x = 0; x < 32; x ++){
 987              		.loc 1 161 0 is_stmt 0 discriminator 1
 988 03c0 97F84530 		ldrb	r3, [r7, #69]	@ zero_extendqisi2
 989 03c4 1F2B     		cmp	r3, #31
 990 03c6 EFD9     		bls	.L26
 991              	.LBE11:
 163:printer.c     **** 	}
 164:printer.c     ****     PRINTER_A_PutChar(LINE_FEED);
 992              		.loc 1 164 0 is_stmt 1
 993 03c8 944B     		ldr	r3, .L163+4
 994 03ca 1B78     		ldrb	r3, [r3]	@ zero_extendqisi2
 995 03cc 1846     		mov	r0, r3
 996 03ce FFF7FEFF 		bl	PRINTER_A_PutChar
 997              	.LBB12:
 165:printer.c     ****     for(uint8 x = 0; x < 32; x ++){
 998              		.loc 1 165 0
 999 03d2 0023     		movs	r3, #0
 1000 03d4 87F84430 		strb	r3, [r7, #68]
 1001 03d8 0BE0     		b	.L27
 1002              	.L28:
 166:printer.c     **** 		PRINTER_A_PutChar(msn_EDS6[x]);
ARM GAS  C:\Users\Diego\AppData\Local\Temp\ccIAJaV8.s 			page 26


 1003              		.loc 1 166 0 discriminator 3
 1004 03da 97F84430 		ldrb	r3, [r7, #68]	@ zero_extendqisi2
 1005 03de 924A     		ldr	r2, .L163+16
 1006 03e0 D35C     		ldrb	r3, [r2, r3]	@ zero_extendqisi2
 1007 03e2 1846     		mov	r0, r3
 1008 03e4 FFF7FEFF 		bl	PRINTER_A_PutChar
 165:printer.c     ****     for(uint8 x = 0; x < 32; x ++){
 1009              		.loc 1 165 0 discriminator 3
 1010 03e8 97F84430 		ldrb	r3, [r7, #68]	@ zero_extendqisi2
 1011 03ec 0133     		adds	r3, r3, #1
 1012 03ee 87F84430 		strb	r3, [r7, #68]
 1013              	.L27:
 165:printer.c     ****     for(uint8 x = 0; x < 32; x ++){
 1014              		.loc 1 165 0 is_stmt 0 discriminator 1
 1015 03f2 97F84430 		ldrb	r3, [r7, #68]	@ zero_extendqisi2
 1016 03f6 1F2B     		cmp	r3, #31
 1017 03f8 EFD9     		bls	.L28
 1018              	.LBE12:
 167:printer.c     **** 	}    
 168:printer.c     ****     PRINTER_A_PutChar(LINE_FEED);
 1019              		.loc 1 168 0 is_stmt 1
 1020 03fa 884B     		ldr	r3, .L163+4
 1021 03fc 1B78     		ldrb	r3, [r3]	@ zero_extendqisi2
 1022 03fe 1846     		mov	r0, r3
 1023 0400 FFF7FEFF 		bl	PRINTER_A_PutChar
 1024              	.LBB13:
 169:printer.c     **** 	for(uint8 x = 0; x < 32; x ++){
 1025              		.loc 1 169 0
 1026 0404 0023     		movs	r3, #0
 1027 0406 87F84330 		strb	r3, [r7, #67]
 1028 040a 0BE0     		b	.L29
 1029              	.L30:
 170:printer.c     **** 		PRINTER_A_PutChar(SEPARATOR[x]);
 1030              		.loc 1 170 0 discriminator 3
 1031 040c 97F84330 		ldrb	r3, [r7, #67]	@ zero_extendqisi2
 1032 0410 864A     		ldr	r2, .L163+20
 1033 0412 D35C     		ldrb	r3, [r2, r3]	@ zero_extendqisi2
 1034 0414 1846     		mov	r0, r3
 1035 0416 FFF7FEFF 		bl	PRINTER_A_PutChar
 169:printer.c     **** 	for(uint8 x = 0; x < 32; x ++){
 1036              		.loc 1 169 0 discriminator 3
 1037 041a 97F84330 		ldrb	r3, [r7, #67]	@ zero_extendqisi2
 1038 041e 0133     		adds	r3, r3, #1
 1039 0420 87F84330 		strb	r3, [r7, #67]
 1040              	.L29:
 169:printer.c     **** 	for(uint8 x = 0; x < 32; x ++){
 1041              		.loc 1 169 0 is_stmt 0 discriminator 1
 1042 0424 97F84330 		ldrb	r3, [r7, #67]	@ zero_extendqisi2
 1043 0428 1F2B     		cmp	r3, #31
 1044 042a EFD9     		bls	.L30
 1045              	.LBE13:
 171:printer.c     **** 	}
 172:printer.c     ****     PRINTER_A_PutChar(LINE_FEED);
 1046              		.loc 1 172 0 is_stmt 1
 1047 042c 7B4B     		ldr	r3, .L163+4
 1048 042e 1B78     		ldrb	r3, [r3]	@ zero_extendqisi2
 1049 0430 1846     		mov	r0, r3
ARM GAS  C:\Users\Diego\AppData\Local\Temp\ccIAJaV8.s 			page 27


 1050 0432 FFF7FEFF 		bl	PRINTER_A_PutChar
 1051              	.LBB14:
 173:printer.c     ****     /********** FECHA ***************/
 174:printer.c     **** 	for(uint8 x = 0; x < 13; x ++){
 1052              		.loc 1 174 0
 1053 0436 0023     		movs	r3, #0
 1054 0438 87F84230 		strb	r3, [r7, #66]
 1055 043c 0BE0     		b	.L31
 1056              	.L32:
 175:printer.c     **** 		PRINTER_A_PutChar(msn_fecha[x]);
 1057              		.loc 1 175 0 discriminator 3
 1058 043e 97F84230 		ldrb	r3, [r7, #66]	@ zero_extendqisi2
 1059 0442 7B4A     		ldr	r2, .L163+24
 1060 0444 D35C     		ldrb	r3, [r2, r3]	@ zero_extendqisi2
 1061 0446 1846     		mov	r0, r3
 1062 0448 FFF7FEFF 		bl	PRINTER_A_PutChar
 174:printer.c     **** 		PRINTER_A_PutChar(msn_fecha[x]);
 1063              		.loc 1 174 0 discriminator 3
 1064 044c 97F84230 		ldrb	r3, [r7, #66]	@ zero_extendqisi2
 1065 0450 0133     		adds	r3, r3, #1
 1066 0452 87F84230 		strb	r3, [r7, #66]
 1067              	.L31:
 174:printer.c     **** 		PRINTER_A_PutChar(msn_fecha[x]);
 1068              		.loc 1 174 0 is_stmt 0 discriminator 1
 1069 0456 97F84230 		ldrb	r3, [r7, #66]	@ zero_extendqisi2
 1070 045a 0C2B     		cmp	r3, #12
 1071 045c EFD9     		bls	.L32
 1072              	.LBE14:
 176:printer.c     **** 	}
 177:printer.c     ****     
 178:printer.c     ****     date_copy[0] = (touch1[8] >> 4) + 0x30;
 1073              		.loc 1 178 0 is_stmt 1
 1074 045e 754B     		ldr	r3, .L163+28
 1075 0460 1B7A     		ldrb	r3, [r3, #8]	@ zero_extendqisi2
 1076 0462 1B09     		lsrs	r3, r3, #4
 1077 0464 DBB2     		uxtb	r3, r3
 1078 0466 3033     		adds	r3, r3, #48
 1079 0468 DAB2     		uxtb	r2, r3
 1080 046a 734B     		ldr	r3, .L163+32
 1081 046c 1A70     		strb	r2, [r3]
 179:printer.c     ****     date_copy[1] = (touch1[8] & 0x0F) + 0x30;
 1082              		.loc 1 179 0
 1083 046e 714B     		ldr	r3, .L163+28
 1084 0470 1B7A     		ldrb	r3, [r3, #8]	@ zero_extendqisi2
 1085 0472 03F00F03 		and	r3, r3, #15
 1086 0476 DBB2     		uxtb	r3, r3
 1087 0478 3033     		adds	r3, r3, #48
 1088 047a DAB2     		uxtb	r2, r3
 1089 047c 6E4B     		ldr	r3, .L163+32
 1090 047e 5A70     		strb	r2, [r3, #1]
 180:printer.c     ****     date_copy[2] = (touch1[7] >> 4) + 0x30;
 1091              		.loc 1 180 0
 1092 0480 6C4B     		ldr	r3, .L163+28
 1093 0482 DB79     		ldrb	r3, [r3, #7]	@ zero_extendqisi2
 1094 0484 1B09     		lsrs	r3, r3, #4
 1095 0486 DBB2     		uxtb	r3, r3
 1096 0488 3033     		adds	r3, r3, #48
ARM GAS  C:\Users\Diego\AppData\Local\Temp\ccIAJaV8.s 			page 28


 1097 048a DAB2     		uxtb	r2, r3
 1098 048c 6A4B     		ldr	r3, .L163+32
 1099 048e 9A70     		strb	r2, [r3, #2]
 181:printer.c     ****     date_copy[3] = (touch1[7] & 0x0F) + 0x30;
 1100              		.loc 1 181 0
 1101 0490 684B     		ldr	r3, .L163+28
 1102 0492 DB79     		ldrb	r3, [r3, #7]	@ zero_extendqisi2
 1103 0494 03F00F03 		and	r3, r3, #15
 1104 0498 DBB2     		uxtb	r3, r3
 1105 049a 3033     		adds	r3, r3, #48
 1106 049c DAB2     		uxtb	r2, r3
 1107 049e 664B     		ldr	r3, .L163+32
 1108 04a0 DA70     		strb	r2, [r3, #3]
 182:printer.c     ****     date_copy[4] = (touch1[6] >> 4) + 0x30;
 1109              		.loc 1 182 0
 1110 04a2 644B     		ldr	r3, .L163+28
 1111 04a4 9B79     		ldrb	r3, [r3, #6]	@ zero_extendqisi2
 1112 04a6 1B09     		lsrs	r3, r3, #4
 1113 04a8 DBB2     		uxtb	r3, r3
 1114 04aa 3033     		adds	r3, r3, #48
 1115 04ac DAB2     		uxtb	r2, r3
 1116 04ae 624B     		ldr	r3, .L163+32
 1117 04b0 1A71     		strb	r2, [r3, #4]
 183:printer.c     ****     date_copy[5] = (touch1[6] & 0x0F) + 0x30;
 1118              		.loc 1 183 0
 1119 04b2 604B     		ldr	r3, .L163+28
 1120 04b4 9B79     		ldrb	r3, [r3, #6]	@ zero_extendqisi2
 1121 04b6 03F00F03 		and	r3, r3, #15
 1122 04ba DBB2     		uxtb	r3, r3
 1123 04bc 3033     		adds	r3, r3, #48
 1124 04be DAB2     		uxtb	r2, r3
 1125 04c0 5D4B     		ldr	r3, .L163+32
 1126 04c2 5A71     		strb	r2, [r3, #5]
 184:printer.c     ****         
 185:printer.c     ****     
 186:printer.c     ****     hour_copy[0] = (touch1[10] >> 4) + 0x30;
 1127              		.loc 1 186 0
 1128 04c4 5B4B     		ldr	r3, .L163+28
 1129 04c6 9B7A     		ldrb	r3, [r3, #10]	@ zero_extendqisi2
 1130 04c8 1B09     		lsrs	r3, r3, #4
 1131 04ca DBB2     		uxtb	r3, r3
 1132 04cc 3033     		adds	r3, r3, #48
 1133 04ce DAB2     		uxtb	r2, r3
 1134 04d0 5A4B     		ldr	r3, .L163+36
 1135 04d2 1A70     		strb	r2, [r3]
 187:printer.c     ****     hour_copy[1] = (touch1[10] & 0x0F) + 0x30;
 1136              		.loc 1 187 0
 1137 04d4 574B     		ldr	r3, .L163+28
 1138 04d6 9B7A     		ldrb	r3, [r3, #10]	@ zero_extendqisi2
 1139 04d8 03F00F03 		and	r3, r3, #15
 1140 04dc DBB2     		uxtb	r3, r3
 1141 04de 3033     		adds	r3, r3, #48
 1142 04e0 DAB2     		uxtb	r2, r3
 1143 04e2 564B     		ldr	r3, .L163+36
 1144 04e4 5A70     		strb	r2, [r3, #1]
 188:printer.c     ****     hour_copy[2] = (touch1[11] >> 4) + 0x30;
 1145              		.loc 1 188 0
ARM GAS  C:\Users\Diego\AppData\Local\Temp\ccIAJaV8.s 			page 29


 1146 04e6 534B     		ldr	r3, .L163+28
 1147 04e8 DB7A     		ldrb	r3, [r3, #11]	@ zero_extendqisi2
 1148 04ea 1B09     		lsrs	r3, r3, #4
 1149 04ec DBB2     		uxtb	r3, r3
 1150 04ee 3033     		adds	r3, r3, #48
 1151 04f0 DAB2     		uxtb	r2, r3
 1152 04f2 524B     		ldr	r3, .L163+36
 1153 04f4 9A70     		strb	r2, [r3, #2]
 189:printer.c     ****     hour_copy[3] = (touch1[11] & 0x0F) + 0x30;
 1154              		.loc 1 189 0
 1155 04f6 4F4B     		ldr	r3, .L163+28
 1156 04f8 DB7A     		ldrb	r3, [r3, #11]	@ zero_extendqisi2
 1157 04fa 03F00F03 		and	r3, r3, #15
 1158 04fe DBB2     		uxtb	r3, r3
 1159 0500 3033     		adds	r3, r3, #48
 1160 0502 DAB2     		uxtb	r2, r3
 1161 0504 4D4B     		ldr	r3, .L163+36
 1162 0506 DA70     		strb	r2, [r3, #3]
 190:printer.c     ****     hour_copy[4] = (touch1[12] >> 4) + 0x30;
 1163              		.loc 1 190 0
 1164 0508 4A4B     		ldr	r3, .L163+28
 1165 050a 1B7B     		ldrb	r3, [r3, #12]	@ zero_extendqisi2
 1166 050c 1B09     		lsrs	r3, r3, #4
 1167 050e DBB2     		uxtb	r3, r3
 1168 0510 3033     		adds	r3, r3, #48
 1169 0512 DAB2     		uxtb	r2, r3
 1170 0514 494B     		ldr	r3, .L163+36
 1171 0516 1A71     		strb	r2, [r3, #4]
 191:printer.c     ****     hour_copy[5] = (touch1[12] & 0x0F) + 0x30;
 1172              		.loc 1 191 0
 1173 0518 464B     		ldr	r3, .L163+28
 1174 051a 1B7B     		ldrb	r3, [r3, #12]	@ zero_extendqisi2
 1175 051c 03F00F03 		and	r3, r3, #15
 1176 0520 DBB2     		uxtb	r3, r3
 1177 0522 3033     		adds	r3, r3, #48
 1178 0524 DAB2     		uxtb	r2, r3
 1179 0526 454B     		ldr	r3, .L163+36
 1180 0528 5A71     		strb	r2, [r3, #5]
 192:printer.c     ****     
 193:printer.c     ****         
 194:printer.c     ****             
 195:printer.c     **** 	/***** body ******/
 196:printer.c     **** 	if(address == side.a.dir){
 1181              		.loc 1 196 0
 1182 052a 454B     		ldr	r3, .L163+40
 1183 052c 1B78     		ldrb	r3, [r3]	@ zero_extendqisi2
 1184 052e FA79     		ldrb	r2, [r7, #7]	@ zero_extendqisi2
 1185 0530 9A42     		cmp	r2, r3
 1186 0532 40F08283 		bne	.L33
 197:printer.c     ****         if(side.a.Copy == 1){
 1187              		.loc 1 197 0
 1188 0536 424B     		ldr	r3, .L163+40
 1189 0538 93F83431 		ldrb	r3, [r3, #308]	@ zero_extendqisi2
 1190 053c 012B     		cmp	r3, #1
 1191 053e 40F0C180 		bne	.L34
 198:printer.c     ****             
 199:printer.c     ****             PRINTER_A_PutChar(date_copy[0]);
ARM GAS  C:\Users\Diego\AppData\Local\Temp\ccIAJaV8.s 			page 30


 1192              		.loc 1 199 0
 1193 0542 3D4B     		ldr	r3, .L163+32
 1194 0544 1B78     		ldrb	r3, [r3]	@ zero_extendqisi2
 1195 0546 1846     		mov	r0, r3
 1196 0548 FFF7FEFF 		bl	PRINTER_A_PutChar
 200:printer.c     ****             PRINTER_A_PutChar(date_copy[1]);
 1197              		.loc 1 200 0
 1198 054c 3A4B     		ldr	r3, .L163+32
 1199 054e 5B78     		ldrb	r3, [r3, #1]	@ zero_extendqisi2
 1200 0550 1846     		mov	r0, r3
 1201 0552 FFF7FEFF 		bl	PRINTER_A_PutChar
 201:printer.c     ****             PRINTER_A_PutChar('/');
 1202              		.loc 1 201 0
 1203 0556 2F20     		movs	r0, #47
 1204 0558 FFF7FEFF 		bl	PRINTER_A_PutChar
 202:printer.c     ****             PRINTER_A_PutChar(date_copy[2]);
 1205              		.loc 1 202 0
 1206 055c 364B     		ldr	r3, .L163+32
 1207 055e 9B78     		ldrb	r3, [r3, #2]	@ zero_extendqisi2
 1208 0560 1846     		mov	r0, r3
 1209 0562 FFF7FEFF 		bl	PRINTER_A_PutChar
 203:printer.c     ****             PRINTER_A_PutChar(date_copy[3]);
 1210              		.loc 1 203 0
 1211 0566 344B     		ldr	r3, .L163+32
 1212 0568 DB78     		ldrb	r3, [r3, #3]	@ zero_extendqisi2
 1213 056a 1846     		mov	r0, r3
 1214 056c FFF7FEFF 		bl	PRINTER_A_PutChar
 204:printer.c     ****             PRINTER_A_PutChar('/');
 1215              		.loc 1 204 0
 1216 0570 2F20     		movs	r0, #47
 1217 0572 FFF7FEFF 		bl	PRINTER_A_PutChar
 205:printer.c     ****             PRINTER_A_PutChar(date_copy[4]);
 1218              		.loc 1 205 0
 1219 0576 304B     		ldr	r3, .L163+32
 1220 0578 1B79     		ldrb	r3, [r3, #4]	@ zero_extendqisi2
 1221 057a 1846     		mov	r0, r3
 1222 057c FFF7FEFF 		bl	PRINTER_A_PutChar
 206:printer.c     ****             PRINTER_A_PutChar(date_copy[5]);
 1223              		.loc 1 206 0
 1224 0580 2D4B     		ldr	r3, .L163+32
 1225 0582 5B79     		ldrb	r3, [r3, #5]	@ zero_extendqisi2
 1226 0584 1846     		mov	r0, r3
 1227 0586 FFF7FEFF 		bl	PRINTER_A_PutChar
 207:printer.c     ****             
 208:printer.c     ****             PRINTER_A_PutChar(LINE_FEED);
 1228              		.loc 1 208 0
 1229 058a 244B     		ldr	r3, .L163+4
 1230 058c 1B78     		ldrb	r3, [r3]	@ zero_extendqisi2
 1231 058e 1846     		mov	r0, r3
 1232 0590 FFF7FEFF 		bl	PRINTER_A_PutChar
 1233              	.LBB15:
 209:printer.c     ****             
 210:printer.c     ****             /********** HORA ***************/
 211:printer.c     ****         	for(uint8 x = 0; x < 13; x ++){
 1234              		.loc 1 211 0
 1235 0594 0023     		movs	r3, #0
 1236 0596 87F84130 		strb	r3, [r7, #65]
ARM GAS  C:\Users\Diego\AppData\Local\Temp\ccIAJaV8.s 			page 31


 1237 059a 0BE0     		b	.L35
 1238              	.L36:
 212:printer.c     ****         		PRINTER_A_PutChar(msn_hora[x]);
 1239              		.loc 1 212 0 discriminator 3
 1240 059c 97F84130 		ldrb	r3, [r7, #65]	@ zero_extendqisi2
 1241 05a0 284A     		ldr	r2, .L163+44
 1242 05a2 D35C     		ldrb	r3, [r2, r3]	@ zero_extendqisi2
 1243 05a4 1846     		mov	r0, r3
 1244 05a6 FFF7FEFF 		bl	PRINTER_A_PutChar
 211:printer.c     ****         		PRINTER_A_PutChar(msn_hora[x]);
 1245              		.loc 1 211 0 discriminator 3
 1246 05aa 97F84130 		ldrb	r3, [r7, #65]	@ zero_extendqisi2
 1247 05ae 0133     		adds	r3, r3, #1
 1248 05b0 87F84130 		strb	r3, [r7, #65]
 1249              	.L35:
 211:printer.c     ****         		PRINTER_A_PutChar(msn_hora[x]);
 1250              		.loc 1 211 0 is_stmt 0 discriminator 1
 1251 05b4 97F84130 		ldrb	r3, [r7, #65]	@ zero_extendqisi2
 1252 05b8 0C2B     		cmp	r3, #12
 1253 05ba EFD9     		bls	.L36
 1254              	.LBE15:
 213:printer.c     ****         	}
 214:printer.c     ****             
 215:printer.c     ****             PRINTER_A_PutChar(hour_copy[0]);
 1255              		.loc 1 215 0 is_stmt 1
 1256 05bc 1F4B     		ldr	r3, .L163+36
 1257 05be 1B78     		ldrb	r3, [r3]	@ zero_extendqisi2
 1258 05c0 1846     		mov	r0, r3
 1259 05c2 FFF7FEFF 		bl	PRINTER_A_PutChar
 216:printer.c     ****             PRINTER_A_PutChar(hour_copy[1]);
 1260              		.loc 1 216 0
 1261 05c6 1D4B     		ldr	r3, .L163+36
 1262 05c8 5B78     		ldrb	r3, [r3, #1]	@ zero_extendqisi2
 1263 05ca 1846     		mov	r0, r3
 1264 05cc FFF7FEFF 		bl	PRINTER_A_PutChar
 217:printer.c     ****             PRINTER_A_PutChar(':');
 1265              		.loc 1 217 0
 1266 05d0 3A20     		movs	r0, #58
 1267 05d2 FFF7FEFF 		bl	PRINTER_A_PutChar
 218:printer.c     ****             PRINTER_A_PutChar(hour_copy[2]);
 1268              		.loc 1 218 0
 1269 05d6 194B     		ldr	r3, .L163+36
 1270 05d8 9B78     		ldrb	r3, [r3, #2]	@ zero_extendqisi2
 1271 05da 1846     		mov	r0, r3
 1272 05dc FFF7FEFF 		bl	PRINTER_A_PutChar
 219:printer.c     ****             PRINTER_A_PutChar(hour_copy[3]);
 1273              		.loc 1 219 0
 1274 05e0 164B     		ldr	r3, .L163+36
 1275 05e2 DB78     		ldrb	r3, [r3, #3]	@ zero_extendqisi2
 1276 05e4 1846     		mov	r0, r3
 1277 05e6 FFF7FEFF 		bl	PRINTER_A_PutChar
 220:printer.c     ****             PRINTER_A_PutChar(':');
 1278              		.loc 1 220 0
 1279 05ea 3A20     		movs	r0, #58
 1280 05ec FFF7FEFF 		bl	PRINTER_A_PutChar
 221:printer.c     ****             PRINTER_A_PutChar(hour_copy[4]);
 1281              		.loc 1 221 0
ARM GAS  C:\Users\Diego\AppData\Local\Temp\ccIAJaV8.s 			page 32


 1282 05f0 124B     		ldr	r3, .L163+36
 1283 05f2 1B79     		ldrb	r3, [r3, #4]	@ zero_extendqisi2
 1284 05f4 1846     		mov	r0, r3
 1285 05f6 FFF7FEFF 		bl	PRINTER_A_PutChar
 222:printer.c     ****             PRINTER_A_PutChar(hour_copy[5]);
 1286              		.loc 1 222 0
 1287 05fa 104B     		ldr	r3, .L163+36
 1288 05fc 5B79     		ldrb	r3, [r3, #5]	@ zero_extendqisi2
 1289 05fe 1846     		mov	r0, r3
 1290 0600 FFF7FEFF 		bl	PRINTER_A_PutChar
 223:printer.c     ****             
 224:printer.c     ****             PRINTER_A_PutChar(LINE_FEED);
 1291              		.loc 1 224 0
 1292 0604 054B     		ldr	r3, .L163+4
 1293 0606 1B78     		ldrb	r3, [r3]	@ zero_extendqisi2
 1294 0608 1846     		mov	r0, r3
 1295 060a FFF7FEFF 		bl	PRINTER_A_PutChar
 1296              	.LBB16:
 225:printer.c     ****             
 226:printer.c     ****             for(uint8 x = 0; x < 32; x ++){
 1297              		.loc 1 226 0
 1298 060e 0023     		movs	r3, #0
 1299 0610 87F84030 		strb	r3, [r7, #64]
 1300 0614 24E0     		b	.L37
 1301              	.L164:
 1302 0616 00BF     		.align	2
 1303              	.L163:
 1304 0618 00000000 		.word	msn_EDS3
 1305 061c 00000000 		.word	LINE_FEED
 1306 0620 00000000 		.word	msn_EDS4
 1307 0624 00000000 		.word	msn_EDS5
 1308 0628 00000000 		.word	msn_EDS6
 1309 062c 00000000 		.word	SEPARATOR
 1310 0630 00000000 		.word	msn_fecha
 1311 0634 00000000 		.word	touch1
 1312 0638 00000000 		.word	date_copy
 1313 063c 00000000 		.word	hour_copy
 1314 0640 00000000 		.word	side
 1315 0644 00000000 		.word	msn_hora
 1316              	.L38:
 227:printer.c     ****         		PRINTER_A_PutChar(SEPARATOR[x]);
 1317              		.loc 1 227 0 discriminator 3
 1318 0648 97F84030 		ldrb	r3, [r7, #64]	@ zero_extendqisi2
 1319 064c C24A     		ldr	r2, .L165
 1320 064e D35C     		ldrb	r3, [r2, r3]	@ zero_extendqisi2
 1321 0650 1846     		mov	r0, r3
 1322 0652 FFF7FEFF 		bl	PRINTER_A_PutChar
 226:printer.c     ****         		PRINTER_A_PutChar(SEPARATOR[x]);
 1323              		.loc 1 226 0 discriminator 3
 1324 0656 97F84030 		ldrb	r3, [r7, #64]	@ zero_extendqisi2
 1325 065a 0133     		adds	r3, r3, #1
 1326 065c 87F84030 		strb	r3, [r7, #64]
 1327              	.L37:
 226:printer.c     ****         		PRINTER_A_PutChar(SEPARATOR[x]);
 1328              		.loc 1 226 0 is_stmt 0 discriminator 1
 1329 0660 97F84030 		ldrb	r3, [r7, #64]	@ zero_extendqisi2
 1330 0664 1F2B     		cmp	r3, #31
ARM GAS  C:\Users\Diego\AppData\Local\Temp\ccIAJaV8.s 			page 33


 1331 0666 EFD9     		bls	.L38
 1332              	.LBE16:
 1333              	.LBB17:
 228:printer.c     ****         	}
 229:printer.c     ****             
 230:printer.c     ****             for(uint8 x = 0; x < 32; x ++){
 1334              		.loc 1 230 0 is_stmt 1
 1335 0668 0023     		movs	r3, #0
 1336 066a 87F83F30 		strb	r3, [r7, #63]
 1337 066e 0BE0     		b	.L39
 1338              	.L40:
 231:printer.c     ****         		PRINTER_A_PutChar(msn_copy[x]);
 1339              		.loc 1 231 0 discriminator 3
 1340 0670 97F83F30 		ldrb	r3, [r7, #63]	@ zero_extendqisi2
 1341 0674 B94A     		ldr	r2, .L165+4
 1342 0676 D35C     		ldrb	r3, [r2, r3]	@ zero_extendqisi2
 1343 0678 1846     		mov	r0, r3
 1344 067a FFF7FEFF 		bl	PRINTER_A_PutChar
 230:printer.c     ****         		PRINTER_A_PutChar(msn_copy[x]);
 1345              		.loc 1 230 0 discriminator 3
 1346 067e 97F83F30 		ldrb	r3, [r7, #63]	@ zero_extendqisi2
 1347 0682 0133     		adds	r3, r3, #1
 1348 0684 87F83F30 		strb	r3, [r7, #63]
 1349              	.L39:
 230:printer.c     ****         		PRINTER_A_PutChar(msn_copy[x]);
 1350              		.loc 1 230 0 is_stmt 0 discriminator 1
 1351 0688 97F83F30 		ldrb	r3, [r7, #63]	@ zero_extendqisi2
 1352 068c 1F2B     		cmp	r3, #31
 1353 068e EFD9     		bls	.L40
 1354              	.LBE17:
 232:printer.c     ****         	}
 233:printer.c     ****             PRINTER_A_PutChar(LINE_FEED);
 1355              		.loc 1 233 0 is_stmt 1
 1356 0690 B34B     		ldr	r3, .L165+8
 1357 0692 1B78     		ldrb	r3, [r3]	@ zero_extendqisi2
 1358 0694 1846     		mov	r0, r3
 1359 0696 FFF7FEFF 		bl	PRINTER_A_PutChar
 1360              	.LBB18:
 234:printer.c     ****             for(uint8 x = 0; x < 32; x ++){
 1361              		.loc 1 234 0
 1362 069a 0023     		movs	r3, #0
 1363 069c 87F83E30 		strb	r3, [r7, #62]
 1364 06a0 0BE0     		b	.L41
 1365              	.L42:
 235:printer.c     ****         		PRINTER_A_PutChar(SEPARATOR[x]);
 1366              		.loc 1 235 0 discriminator 3
 1367 06a2 97F83E30 		ldrb	r3, [r7, #62]	@ zero_extendqisi2
 1368 06a6 AC4A     		ldr	r2, .L165
 1369 06a8 D35C     		ldrb	r3, [r2, r3]	@ zero_extendqisi2
 1370 06aa 1846     		mov	r0, r3
 1371 06ac FFF7FEFF 		bl	PRINTER_A_PutChar
 234:printer.c     ****             for(uint8 x = 0; x < 32; x ++){
 1372              		.loc 1 234 0 discriminator 3
 1373 06b0 97F83E30 		ldrb	r3, [r7, #62]	@ zero_extendqisi2
 1374 06b4 0133     		adds	r3, r3, #1
 1375 06b6 87F83E30 		strb	r3, [r7, #62]
 1376              	.L41:
ARM GAS  C:\Users\Diego\AppData\Local\Temp\ccIAJaV8.s 			page 34


 234:printer.c     ****             for(uint8 x = 0; x < 32; x ++){
 1377              		.loc 1 234 0 is_stmt 0 discriminator 1
 1378 06ba 97F83E30 		ldrb	r3, [r7, #62]	@ zero_extendqisi2
 1379 06be 1F2B     		cmp	r3, #31
 1380 06c0 EFD9     		bls	.L42
 1381 06c2 AFE0     		b	.L43
 1382              	.L34:
 1383              	.LBE18:
 236:printer.c     ****         	}            
 237:printer.c     ****         }
 238:printer.c     ****         else{
 239:printer.c     ****             
 240:printer.c     ****             PRINTER_A_PutChar(((touch1[8] >> 4) + 0x30)) ;
 1384              		.loc 1 240 0 is_stmt 1
 1385 06c4 A74B     		ldr	r3, .L165+12
 1386 06c6 1B7A     		ldrb	r3, [r3, #8]	@ zero_extendqisi2
 1387 06c8 1B09     		lsrs	r3, r3, #4
 1388 06ca DBB2     		uxtb	r3, r3
 1389 06cc 3033     		adds	r3, r3, #48
 1390 06ce DBB2     		uxtb	r3, r3
 1391 06d0 1846     		mov	r0, r3
 1392 06d2 FFF7FEFF 		bl	PRINTER_A_PutChar
 241:printer.c     **** 	        PRINTER_A_PutChar(((touch1[8] & 0x0F) + 0x30));
 1393              		.loc 1 241 0
 1394 06d6 A34B     		ldr	r3, .L165+12
 1395 06d8 1B7A     		ldrb	r3, [r3, #8]	@ zero_extendqisi2
 1396 06da 03F00F03 		and	r3, r3, #15
 1397 06de DBB2     		uxtb	r3, r3
 1398 06e0 3033     		adds	r3, r3, #48
 1399 06e2 DBB2     		uxtb	r3, r3
 1400 06e4 1846     		mov	r0, r3
 1401 06e6 FFF7FEFF 		bl	PRINTER_A_PutChar
 242:printer.c     ****             PRINTER_A_PutChar('/');
 1402              		.loc 1 242 0
 1403 06ea 2F20     		movs	r0, #47
 1404 06ec FFF7FEFF 		bl	PRINTER_A_PutChar
 243:printer.c     ****             PRINTER_A_PutChar(((touch1[7] >> 4) + 0x30)) ;
 1405              		.loc 1 243 0
 1406 06f0 9C4B     		ldr	r3, .L165+12
 1407 06f2 DB79     		ldrb	r3, [r3, #7]	@ zero_extendqisi2
 1408 06f4 1B09     		lsrs	r3, r3, #4
 1409 06f6 DBB2     		uxtb	r3, r3
 1410 06f8 3033     		adds	r3, r3, #48
 1411 06fa DBB2     		uxtb	r3, r3
 1412 06fc 1846     		mov	r0, r3
 1413 06fe FFF7FEFF 		bl	PRINTER_A_PutChar
 244:printer.c     ****             PRINTER_A_PutChar(((touch1[7] & 0x0F) + 0x30));
 1414              		.loc 1 244 0
 1415 0702 984B     		ldr	r3, .L165+12
 1416 0704 DB79     		ldrb	r3, [r3, #7]	@ zero_extendqisi2
 1417 0706 03F00F03 		and	r3, r3, #15
 1418 070a DBB2     		uxtb	r3, r3
 1419 070c 3033     		adds	r3, r3, #48
 1420 070e DBB2     		uxtb	r3, r3
 1421 0710 1846     		mov	r0, r3
 1422 0712 FFF7FEFF 		bl	PRINTER_A_PutChar
 245:printer.c     ****             PRINTER_A_PutChar('/');    
ARM GAS  C:\Users\Diego\AppData\Local\Temp\ccIAJaV8.s 			page 35


 1423              		.loc 1 245 0
 1424 0716 2F20     		movs	r0, #47
 1425 0718 FFF7FEFF 		bl	PRINTER_A_PutChar
 246:printer.c     ****             PRINTER_A_PutChar(((touch1[6] >> 4) + 0x30));
 1426              		.loc 1 246 0
 1427 071c 914B     		ldr	r3, .L165+12
 1428 071e 9B79     		ldrb	r3, [r3, #6]	@ zero_extendqisi2
 1429 0720 1B09     		lsrs	r3, r3, #4
 1430 0722 DBB2     		uxtb	r3, r3
 1431 0724 3033     		adds	r3, r3, #48
 1432 0726 DBB2     		uxtb	r3, r3
 1433 0728 1846     		mov	r0, r3
 1434 072a FFF7FEFF 		bl	PRINTER_A_PutChar
 247:printer.c     ****             PRINTER_A_PutChar(((touch1[6] & 0x0F) + 0x30));    
 1435              		.loc 1 247 0
 1436 072e 8D4B     		ldr	r3, .L165+12
 1437 0730 9B79     		ldrb	r3, [r3, #6]	@ zero_extendqisi2
 1438 0732 03F00F03 		and	r3, r3, #15
 1439 0736 DBB2     		uxtb	r3, r3
 1440 0738 3033     		adds	r3, r3, #48
 1441 073a DBB2     		uxtb	r3, r3
 1442 073c 1846     		mov	r0, r3
 1443 073e FFF7FEFF 		bl	PRINTER_A_PutChar
 248:printer.c     ****     
 249:printer.c     **** 	        PRINTER_A_PutChar(LINE_FEED);
 1444              		.loc 1 249 0
 1445 0742 874B     		ldr	r3, .L165+8
 1446 0744 1B78     		ldrb	r3, [r3]	@ zero_extendqisi2
 1447 0746 1846     		mov	r0, r3
 1448 0748 FFF7FEFF 		bl	PRINTER_A_PutChar
 1449              	.LBB19:
 250:printer.c     ****             
 251:printer.c     ****             /********** HORA ***************/
 252:printer.c     ****         	for(uint8 x = 0; x < 13; x ++){
 1450              		.loc 1 252 0
 1451 074c 0023     		movs	r3, #0
 1452 074e 87F83D30 		strb	r3, [r7, #61]
 1453 0752 0BE0     		b	.L44
 1454              	.L45:
 253:printer.c     ****         		PRINTER_A_PutChar(msn_hora[x]);
 1455              		.loc 1 253 0 discriminator 3
 1456 0754 97F83D30 		ldrb	r3, [r7, #61]	@ zero_extendqisi2
 1457 0758 834A     		ldr	r2, .L165+16
 1458 075a D35C     		ldrb	r3, [r2, r3]	@ zero_extendqisi2
 1459 075c 1846     		mov	r0, r3
 1460 075e FFF7FEFF 		bl	PRINTER_A_PutChar
 252:printer.c     ****         		PRINTER_A_PutChar(msn_hora[x]);
 1461              		.loc 1 252 0 discriminator 3
 1462 0762 97F83D30 		ldrb	r3, [r7, #61]	@ zero_extendqisi2
 1463 0766 0133     		adds	r3, r3, #1
 1464 0768 87F83D30 		strb	r3, [r7, #61]
 1465              	.L44:
 252:printer.c     ****         		PRINTER_A_PutChar(msn_hora[x]);
 1466              		.loc 1 252 0 is_stmt 0 discriminator 1
 1467 076c 97F83D30 		ldrb	r3, [r7, #61]	@ zero_extendqisi2
 1468 0770 0C2B     		cmp	r3, #12
 1469 0772 EFD9     		bls	.L45
ARM GAS  C:\Users\Diego\AppData\Local\Temp\ccIAJaV8.s 			page 36


 1470              	.LBE19:
 254:printer.c     ****         	}
 255:printer.c     ****             PRINTER_A_PutChar(((touch1[10] >> 4) + 0x30)) ;
 1471              		.loc 1 255 0 is_stmt 1
 1472 0774 7B4B     		ldr	r3, .L165+12
 1473 0776 9B7A     		ldrb	r3, [r3, #10]	@ zero_extendqisi2
 1474 0778 1B09     		lsrs	r3, r3, #4
 1475 077a DBB2     		uxtb	r3, r3
 1476 077c 3033     		adds	r3, r3, #48
 1477 077e DBB2     		uxtb	r3, r3
 1478 0780 1846     		mov	r0, r3
 1479 0782 FFF7FEFF 		bl	PRINTER_A_PutChar
 256:printer.c     ****             PRINTER_A_PutChar(((touch1[10] & 0x0F) + 0x30));
 1480              		.loc 1 256 0
 1481 0786 774B     		ldr	r3, .L165+12
 1482 0788 9B7A     		ldrb	r3, [r3, #10]	@ zero_extendqisi2
 1483 078a 03F00F03 		and	r3, r3, #15
 1484 078e DBB2     		uxtb	r3, r3
 1485 0790 3033     		adds	r3, r3, #48
 1486 0792 DBB2     		uxtb	r3, r3
 1487 0794 1846     		mov	r0, r3
 1488 0796 FFF7FEFF 		bl	PRINTER_A_PutChar
 257:printer.c     ****             PRINTER_A_PutChar(':');
 1489              		.loc 1 257 0
 1490 079a 3A20     		movs	r0, #58
 1491 079c FFF7FEFF 		bl	PRINTER_A_PutChar
 258:printer.c     ****             PRINTER_A_PutChar(((touch1[11] >> 4) + 0x30)) ;
 1492              		.loc 1 258 0
 1493 07a0 704B     		ldr	r3, .L165+12
 1494 07a2 DB7A     		ldrb	r3, [r3, #11]	@ zero_extendqisi2
 1495 07a4 1B09     		lsrs	r3, r3, #4
 1496 07a6 DBB2     		uxtb	r3, r3
 1497 07a8 3033     		adds	r3, r3, #48
 1498 07aa DBB2     		uxtb	r3, r3
 1499 07ac 1846     		mov	r0, r3
 1500 07ae FFF7FEFF 		bl	PRINTER_A_PutChar
 259:printer.c     ****             PRINTER_A_PutChar(((touch1[11] & 0x0F) + 0x30));
 1501              		.loc 1 259 0
 1502 07b2 6C4B     		ldr	r3, .L165+12
 1503 07b4 DB7A     		ldrb	r3, [r3, #11]	@ zero_extendqisi2
 1504 07b6 03F00F03 		and	r3, r3, #15
 1505 07ba DBB2     		uxtb	r3, r3
 1506 07bc 3033     		adds	r3, r3, #48
 1507 07be DBB2     		uxtb	r3, r3
 1508 07c0 1846     		mov	r0, r3
 1509 07c2 FFF7FEFF 		bl	PRINTER_A_PutChar
 260:printer.c     ****             PRINTER_A_PutChar(':');
 1510              		.loc 1 260 0
 1511 07c6 3A20     		movs	r0, #58
 1512 07c8 FFF7FEFF 		bl	PRINTER_A_PutChar
 261:printer.c     ****             PRINTER_A_PutChar(((touch1[12] >> 4) + 0x30));
 1513              		.loc 1 261 0
 1514 07cc 654B     		ldr	r3, .L165+12
 1515 07ce 1B7B     		ldrb	r3, [r3, #12]	@ zero_extendqisi2
 1516 07d0 1B09     		lsrs	r3, r3, #4
 1517 07d2 DBB2     		uxtb	r3, r3
 1518 07d4 3033     		adds	r3, r3, #48
ARM GAS  C:\Users\Diego\AppData\Local\Temp\ccIAJaV8.s 			page 37


 1519 07d6 DBB2     		uxtb	r3, r3
 1520 07d8 1846     		mov	r0, r3
 1521 07da FFF7FEFF 		bl	PRINTER_A_PutChar
 262:printer.c     ****         	PRINTER_A_PutChar(((touch1[12] & 0x0F) + 0x30));
 1522              		.loc 1 262 0
 1523 07de 614B     		ldr	r3, .L165+12
 1524 07e0 1B7B     		ldrb	r3, [r3, #12]	@ zero_extendqisi2
 1525 07e2 03F00F03 		and	r3, r3, #15
 1526 07e6 DBB2     		uxtb	r3, r3
 1527 07e8 3033     		adds	r3, r3, #48
 1528 07ea DBB2     		uxtb	r3, r3
 1529 07ec 1846     		mov	r0, r3
 1530 07ee FFF7FEFF 		bl	PRINTER_A_PutChar
 263:printer.c     **** 	
 264:printer.c     ****             PRINTER_A_PutChar(LINE_FEED);
 1531              		.loc 1 264 0
 1532 07f2 5B4B     		ldr	r3, .L165+8
 1533 07f4 1B78     		ldrb	r3, [r3]	@ zero_extendqisi2
 1534 07f6 1846     		mov	r0, r3
 1535 07f8 FFF7FEFF 		bl	PRINTER_A_PutChar
 1536              	.LBB20:
 265:printer.c     ****             for(uint8 x = 0; x < 32; x ++){
 1537              		.loc 1 265 0
 1538 07fc 0023     		movs	r3, #0
 1539 07fe 87F83C30 		strb	r3, [r7, #60]
 1540 0802 0BE0     		b	.L46
 1541              	.L47:
 266:printer.c     ****         		PRINTER_A_PutChar(SEPARATOR[x]);
 1542              		.loc 1 266 0 discriminator 3
 1543 0804 97F83C30 		ldrb	r3, [r7, #60]	@ zero_extendqisi2
 1544 0808 534A     		ldr	r2, .L165
 1545 080a D35C     		ldrb	r3, [r2, r3]	@ zero_extendqisi2
 1546 080c 1846     		mov	r0, r3
 1547 080e FFF7FEFF 		bl	PRINTER_A_PutChar
 265:printer.c     ****             for(uint8 x = 0; x < 32; x ++){
 1548              		.loc 1 265 0 discriminator 3
 1549 0812 97F83C30 		ldrb	r3, [r7, #60]	@ zero_extendqisi2
 1550 0816 0133     		adds	r3, r3, #1
 1551 0818 87F83C30 		strb	r3, [r7, #60]
 1552              	.L46:
 265:printer.c     ****             for(uint8 x = 0; x < 32; x ++){
 1553              		.loc 1 265 0 is_stmt 0 discriminator 1
 1554 081c 97F83C30 		ldrb	r3, [r7, #60]	@ zero_extendqisi2
 1555 0820 1F2B     		cmp	r3, #31
 1556 0822 EFD9     		bls	.L47
 1557              	.L43:
 1558              	.LBE20:
 267:printer.c     ****         	}
 268:printer.c     ****                 
 269:printer.c     ****         }
 270:printer.c     ****         
 271:printer.c     ****         PRINTER_A_PutChar(LINE_FEED);
 1559              		.loc 1 271 0 is_stmt 1
 1560 0824 4E4B     		ldr	r3, .L165+8
 1561 0826 1B78     		ldrb	r3, [r3]	@ zero_extendqisi2
 1562 0828 1846     		mov	r0, r3
 1563 082a FFF7FEFF 		bl	PRINTER_A_PutChar
ARM GAS  C:\Users\Diego\AppData\Local\Temp\ccIAJaV8.s 			page 38


 1564              	.LBB21:
 272:printer.c     ****         for(uint8 x = 0; x < 13; x ++){
 1565              		.loc 1 272 0
 1566 082e 0023     		movs	r3, #0
 1567 0830 87F83B30 		strb	r3, [r7, #59]
 1568 0834 0BE0     		b	.L48
 1569              	.L49:
 273:printer.c     ****     		PRINTER_A_PutChar(msn_venta[x]);
 1570              		.loc 1 273 0 discriminator 3
 1571 0836 97F83B30 		ldrb	r3, [r7, #59]	@ zero_extendqisi2
 1572 083a 4C4A     		ldr	r2, .L165+20
 1573 083c D35C     		ldrb	r3, [r2, r3]	@ zero_extendqisi2
 1574 083e 1846     		mov	r0, r3
 1575 0840 FFF7FEFF 		bl	PRINTER_A_PutChar
 272:printer.c     ****         for(uint8 x = 0; x < 13; x ++){
 1576              		.loc 1 272 0 discriminator 3
 1577 0844 97F83B30 		ldrb	r3, [r7, #59]	@ zero_extendqisi2
 1578 0848 0133     		adds	r3, r3, #1
 1579 084a 87F83B30 		strb	r3, [r7, #59]
 1580              	.L48:
 272:printer.c     ****         for(uint8 x = 0; x < 13; x ++){
 1581              		.loc 1 272 0 is_stmt 0 discriminator 1
 1582 084e 97F83B30 		ldrb	r3, [r7, #59]	@ zero_extendqisi2
 1583 0852 0C2B     		cmp	r3, #12
 1584 0854 EFD9     		bls	.L49
 1585              	.LBE21:
 274:printer.c     ****     	}
 275:printer.c     ****         if(side.a.Copy == 1){
 1586              		.loc 1 275 0 is_stmt 1
 1587 0856 464B     		ldr	r3, .L165+24
 1588 0858 93F83431 		ldrb	r3, [r3, #308]	@ zero_extendqisi2
 1589 085c 012B     		cmp	r3, #1
 1590 085e 14D1     		bne	.L50
 1591              	.LBB22:
 276:printer.c     ****            for(uint8 x = 5; x > 0; x --){
 1592              		.loc 1 276 0
 1593 0860 0523     		movs	r3, #5
 1594 0862 87F83A30 		strb	r3, [r7, #58]
 1595 0866 0BE0     		b	.L51
 1596              	.L52:
 277:printer.c     ****         		PRINTER_A_PutChar(sale_number_copy[x]);
 1597              		.loc 1 277 0 discriminator 3
 1598 0868 97F83A30 		ldrb	r3, [r7, #58]	@ zero_extendqisi2
 1599 086c 414A     		ldr	r2, .L165+28
 1600 086e D35C     		ldrb	r3, [r2, r3]	@ zero_extendqisi2
 1601 0870 1846     		mov	r0, r3
 1602 0872 FFF7FEFF 		bl	PRINTER_A_PutChar
 276:printer.c     ****            for(uint8 x = 5; x > 0; x --){
 1603              		.loc 1 276 0 discriminator 3
 1604 0876 97F83A30 		ldrb	r3, [r7, #58]	@ zero_extendqisi2
 1605 087a 013B     		subs	r3, r3, #1
 1606 087c 87F83A30 		strb	r3, [r7, #58]
 1607              	.L51:
 276:printer.c     ****            for(uint8 x = 5; x > 0; x --){
 1608              		.loc 1 276 0 is_stmt 0 discriminator 1
 1609 0880 97F83A30 		ldrb	r3, [r7, #58]	@ zero_extendqisi2
 1610 0884 002B     		cmp	r3, #0
ARM GAS  C:\Users\Diego\AppData\Local\Temp\ccIAJaV8.s 			page 39


 1611 0886 EFD1     		bne	.L52
 1612 0888 19E0     		b	.L53
 1613              	.L50:
 1614              	.LBE22:
 1615              	.LBB23:
 278:printer.c     ****         	} 
 279:printer.c     ****         }else{
 280:printer.c     ****             for(uint8 x = 5; x > 0; x --){
 1616              		.loc 1 280 0 is_stmt 1
 1617 088a 0523     		movs	r3, #5
 1618 088c 87F83930 		strb	r3, [r7, #57]
 1619 0890 0BE0     		b	.L54
 1620              	.L55:
 281:printer.c     ****         		PRINTER_A_PutChar(sale_number[x]);
 1621              		.loc 1 281 0 discriminator 3
 1622 0892 97F83930 		ldrb	r3, [r7, #57]	@ zero_extendqisi2
 1623 0896 384A     		ldr	r2, .L165+32
 1624 0898 D35C     		ldrb	r3, [r2, r3]	@ zero_extendqisi2
 1625 089a 1846     		mov	r0, r3
 1626 089c FFF7FEFF 		bl	PRINTER_A_PutChar
 280:printer.c     ****         		PRINTER_A_PutChar(sale_number[x]);
 1627              		.loc 1 280 0 discriminator 3
 1628 08a0 97F83930 		ldrb	r3, [r7, #57]	@ zero_extendqisi2
 1629 08a4 013B     		subs	r3, r3, #1
 1630 08a6 87F83930 		strb	r3, [r7, #57]
 1631              	.L54:
 280:printer.c     ****         		PRINTER_A_PutChar(sale_number[x]);
 1632              		.loc 1 280 0 is_stmt 0 discriminator 1
 1633 08aa 97F83930 		ldrb	r3, [r7, #57]	@ zero_extendqisi2
 1634 08ae 002B     		cmp	r3, #0
 1635 08b0 EFD1     		bne	.L55
 1636              	.LBE23:
 282:printer.c     ****         	}
 283:printer.c     ****             int_salenumber++;
 1637              		.loc 1 283 0 is_stmt 1
 1638 08b2 324B     		ldr	r3, .L165+36
 1639 08b4 1B78     		ldrb	r3, [r3]	@ zero_extendqisi2
 1640 08b6 0133     		adds	r3, r3, #1
 1641 08b8 DAB2     		uxtb	r2, r3
 1642 08ba 304B     		ldr	r3, .L165+36
 1643 08bc 1A70     		strb	r2, [r3]
 1644              	.L53:
 284:printer.c     ****         }
 285:printer.c     ****         PRINTER_A_PutChar(LINE_FEED);
 1645              		.loc 1 285 0
 1646 08be 284B     		ldr	r3, .L165+8
 1647 08c0 1B78     		ldrb	r3, [r3]	@ zero_extendqisi2
 1648 08c2 1846     		mov	r0, r3
 1649 08c4 FFF7FEFF 		bl	PRINTER_A_PutChar
 1650              	.LBB24:
 286:printer.c     ****     	for(uint8 x = 0; x < 13; x ++){
 1651              		.loc 1 286 0
 1652 08c8 0023     		movs	r3, #0
 1653 08ca 87F83830 		strb	r3, [r7, #56]
 1654 08ce 0BE0     		b	.L56
 1655              	.L57:
 287:printer.c     ****     		PRINTER_A_PutChar(msn_placa[x]);
ARM GAS  C:\Users\Diego\AppData\Local\Temp\ccIAJaV8.s 			page 40


 1656              		.loc 1 287 0 discriminator 3
 1657 08d0 97F83830 		ldrb	r3, [r7, #56]	@ zero_extendqisi2
 1658 08d4 2A4A     		ldr	r2, .L165+40
 1659 08d6 D35C     		ldrb	r3, [r2, r3]	@ zero_extendqisi2
 1660 08d8 1846     		mov	r0, r3
 1661 08da FFF7FEFF 		bl	PRINTER_A_PutChar
 286:printer.c     ****     	for(uint8 x = 0; x < 13; x ++){
 1662              		.loc 1 286 0 discriminator 3
 1663 08de 97F83830 		ldrb	r3, [r7, #56]	@ zero_extendqisi2
 1664 08e2 0133     		adds	r3, r3, #1
 1665 08e4 87F83830 		strb	r3, [r7, #56]
 1666              	.L56:
 286:printer.c     ****     	for(uint8 x = 0; x < 13; x ++){
 1667              		.loc 1 286 0 is_stmt 0 discriminator 1
 1668 08e8 97F83830 		ldrb	r3, [r7, #56]	@ zero_extendqisi2
 1669 08ec 0C2B     		cmp	r3, #12
 1670 08ee EFD9     		bls	.L57
 1671              	.LBE24:
 1672              	.LBB25:
 288:printer.c     ****     	}
 289:printer.c     **** 		for(uint8 x = 0; x < 8; x ++){
 1673              		.loc 1 289 0 is_stmt 1
 1674 08f0 0023     		movs	r3, #0
 1675 08f2 87F83730 		strb	r3, [r7, #55]
 1676 08f6 0DE0     		b	.L58
 1677              	.L59:
 290:printer.c     **** 			PRINTER_A_PutChar(side.a.msn_plate[x]);
 1678              		.loc 1 290 0 discriminator 3
 1679 08f8 97F83730 		ldrb	r3, [r7, #55]	@ zero_extendqisi2
 1680 08fc 1C4A     		ldr	r2, .L165+24
 1681 08fe 1344     		add	r3, r3, r2
 1682 0900 93F82331 		ldrb	r3, [r3, #291]	@ zero_extendqisi2
 1683 0904 1846     		mov	r0, r3
 1684 0906 FFF7FEFF 		bl	PRINTER_A_PutChar
 289:printer.c     **** 			PRINTER_A_PutChar(side.a.msn_plate[x]);
 1685              		.loc 1 289 0 discriminator 3
 1686 090a 97F83730 		ldrb	r3, [r7, #55]	@ zero_extendqisi2
 1687 090e 0133     		adds	r3, r3, #1
 1688 0910 87F83730 		strb	r3, [r7, #55]
 1689              	.L58:
 289:printer.c     **** 			PRINTER_A_PutChar(side.a.msn_plate[x]);
 1690              		.loc 1 289 0 is_stmt 0 discriminator 1
 1691 0914 97F83730 		ldrb	r3, [r7, #55]	@ zero_extendqisi2
 1692 0918 072B     		cmp	r3, #7
 1693 091a EDD9     		bls	.L59
 1694              	.LBE25:
 291:printer.c     **** 		}  
 292:printer.c     ****         PRINTER_A_PutChar(LINE_FEED);
 1695              		.loc 1 292 0 is_stmt 1
 1696 091c 104B     		ldr	r3, .L165+8
 1697 091e 1B78     		ldrb	r3, [r3]	@ zero_extendqisi2
 1698 0920 1846     		mov	r0, r3
 1699 0922 FFF7FEFF 		bl	PRINTER_A_PutChar
 1700              	.LBB26:
 293:printer.c     ****         for(uint8 x = 0; x < 13; x ++){
 1701              		.loc 1 293 0
 1702 0926 0023     		movs	r3, #0
ARM GAS  C:\Users\Diego\AppData\Local\Temp\ccIAJaV8.s 			page 41


 1703 0928 87F83630 		strb	r3, [r7, #54]
 1704 092c 0BE0     		b	.L60
 1705              	.L61:
 294:printer.c     **** 			PRINTER_A_PutChar(PRN_MILLEAGE[x]);
 1706              		.loc 1 294 0 discriminator 3
 1707 092e 97F83630 		ldrb	r3, [r7, #54]	@ zero_extendqisi2
 1708 0932 144A     		ldr	r2, .L165+44
 1709 0934 D35C     		ldrb	r3, [r2, r3]	@ zero_extendqisi2
 1710 0936 1846     		mov	r0, r3
 1711 0938 FFF7FEFF 		bl	PRINTER_A_PutChar
 293:printer.c     ****         for(uint8 x = 0; x < 13; x ++){
 1712              		.loc 1 293 0 discriminator 3
 1713 093c 97F83630 		ldrb	r3, [r7, #54]	@ zero_extendqisi2
 1714 0940 0133     		adds	r3, r3, #1
 1715 0942 87F83630 		strb	r3, [r7, #54]
 1716              	.L60:
 293:printer.c     ****         for(uint8 x = 0; x < 13; x ++){
 1717              		.loc 1 293 0 is_stmt 0 discriminator 1
 1718 0946 97F83630 		ldrb	r3, [r7, #54]	@ zero_extendqisi2
 1719 094a 0C2B     		cmp	r3, #12
 1720 094c EFD9     		bls	.L61
 1721              	.LBE26:
 1722              	.LBB27:
 295:printer.c     **** 		}          
 296:printer.c     ****         for(uint8 x = 0; x <6; x ++){
 1723              		.loc 1 296 0 is_stmt 1
 1724 094e 0023     		movs	r3, #0
 1725 0950 87F83530 		strb	r3, [r7, #53]
 1726 0954 26E0     		b	.L62
 1727              	.L166:
 1728 0956 00BF     		.align	2
 1729              	.L165:
 1730 0958 00000000 		.word	SEPARATOR
 1731 095c 00000000 		.word	msn_copy
 1732 0960 00000000 		.word	LINE_FEED
 1733 0964 00000000 		.word	touch1
 1734 0968 00000000 		.word	msn_hora
 1735 096c 00000000 		.word	msn_venta
 1736 0970 00000000 		.word	side
 1737 0974 00000000 		.word	sale_number_copy
 1738 0978 00000000 		.word	sale_number
 1739 097c 00000000 		.word	int_salenumber
 1740 0980 00000000 		.word	msn_placa
 1741 0984 00000000 		.word	PRN_MILLEAGE
 1742              	.L63:
 297:printer.c     **** 			PRINTER_A_PutChar(side.a.km[x]);
 1743              		.loc 1 297 0 discriminator 3
 1744 0988 97F83530 		ldrb	r3, [r7, #53]	@ zero_extendqisi2
 1745 098c C84A     		ldr	r2, .L167
 1746 098e 1344     		add	r3, r3, r2
 1747 0990 93F82D31 		ldrb	r3, [r3, #301]	@ zero_extendqisi2
 1748 0994 1846     		mov	r0, r3
 1749 0996 FFF7FEFF 		bl	PRINTER_A_PutChar
 296:printer.c     **** 			PRINTER_A_PutChar(side.a.km[x]);
 1750              		.loc 1 296 0 discriminator 3
 1751 099a 97F83530 		ldrb	r3, [r7, #53]	@ zero_extendqisi2
 1752 099e 0133     		adds	r3, r3, #1
ARM GAS  C:\Users\Diego\AppData\Local\Temp\ccIAJaV8.s 			page 42


 1753 09a0 87F83530 		strb	r3, [r7, #53]
 1754              	.L62:
 296:printer.c     **** 			PRINTER_A_PutChar(side.a.km[x]);
 1755              		.loc 1 296 0 is_stmt 0 discriminator 1
 1756 09a4 97F83530 		ldrb	r3, [r7, #53]	@ zero_extendqisi2
 1757 09a8 052B     		cmp	r3, #5
 1758 09aa EDD9     		bls	.L63
 1759              	.LBE27:
 298:printer.c     **** 		}  
 299:printer.c     ****         PRINTER_A_PutChar(LINE_FEED);
 1760              		.loc 1 299 0 is_stmt 1
 1761 09ac C14B     		ldr	r3, .L167+4
 1762 09ae 1B78     		ldrb	r3, [r3]	@ zero_extendqisi2
 1763 09b0 1846     		mov	r0, r3
 1764 09b2 FFF7FEFF 		bl	PRINTER_A_PutChar
 1765              	.LBB28:
 300:printer.c     **** 		for(uint8 x = 0; x < 13; x ++){
 1766              		.loc 1 300 0
 1767 09b6 0023     		movs	r3, #0
 1768 09b8 87F83430 		strb	r3, [r7, #52]
 1769 09bc 0BE0     		b	.L64
 1770              	.L65:
 301:printer.c     **** 			PRINTER_A_PutChar(msn_pos[x]);
 1771              		.loc 1 301 0 discriminator 3
 1772 09be 97F83430 		ldrb	r3, [r7, #52]	@ zero_extendqisi2
 1773 09c2 BD4A     		ldr	r2, .L167+8
 1774 09c4 D35C     		ldrb	r3, [r2, r3]	@ zero_extendqisi2
 1775 09c6 1846     		mov	r0, r3
 1776 09c8 FFF7FEFF 		bl	PRINTER_A_PutChar
 300:printer.c     **** 		for(uint8 x = 0; x < 13; x ++){
 1777              		.loc 1 300 0 discriminator 3
 1778 09cc 97F83430 		ldrb	r3, [r7, #52]	@ zero_extendqisi2
 1779 09d0 0133     		adds	r3, r3, #1
 1780 09d2 87F83430 		strb	r3, [r7, #52]
 1781              	.L64:
 300:printer.c     **** 		for(uint8 x = 0; x < 13; x ++){
 1782              		.loc 1 300 0 is_stmt 0 discriminator 1
 1783 09d6 97F83430 		ldrb	r3, [r7, #52]	@ zero_extendqisi2
 1784 09da 0C2B     		cmp	r3, #12
 1785 09dc EFD9     		bls	.L65
 1786              	.LBE28:
 302:printer.c     **** 		}
 303:printer.c     **** 		PRINTER_A_PutChar((side.a.dir)+ 0x31);
 1787              		.loc 1 303 0 is_stmt 1
 1788 09de B44B     		ldr	r3, .L167
 1789 09e0 1B78     		ldrb	r3, [r3]	@ zero_extendqisi2
 1790 09e2 3133     		adds	r3, r3, #49
 1791 09e4 DBB2     		uxtb	r3, r3
 1792 09e6 1846     		mov	r0, r3
 1793 09e8 FFF7FEFF 		bl	PRINTER_A_PutChar
 304:printer.c     **** 		PRINTER_A_PutChar(LINE_FEED);
 1794              		.loc 1 304 0
 1795 09ec B14B     		ldr	r3, .L167+4
 1796 09ee 1B78     		ldrb	r3, [r3]	@ zero_extendqisi2
 1797 09f0 1846     		mov	r0, r3
 1798 09f2 FFF7FEFF 		bl	PRINTER_A_PutChar
 1799              	.LBB29:
ARM GAS  C:\Users\Diego\AppData\Local\Temp\ccIAJaV8.s 			page 43


 305:printer.c     **** 		for(uint8 x = 0; x < 13; x ++){
 1800              		.loc 1 305 0
 1801 09f6 0023     		movs	r3, #0
 1802 09f8 87F83330 		strb	r3, [r7, #51]
 1803 09fc 0BE0     		b	.L66
 1804              	.L67:
 306:printer.c     **** 			PRINTER_A_PutChar(msn_product[x]);
 1805              		.loc 1 306 0 discriminator 3
 1806 09fe 97F83330 		ldrb	r3, [r7, #51]	@ zero_extendqisi2
 1807 0a02 AE4A     		ldr	r2, .L167+12
 1808 0a04 D35C     		ldrb	r3, [r2, r3]	@ zero_extendqisi2
 1809 0a06 1846     		mov	r0, r3
 1810 0a08 FFF7FEFF 		bl	PRINTER_A_PutChar
 305:printer.c     **** 		for(uint8 x = 0; x < 13; x ++){
 1811              		.loc 1 305 0 discriminator 3
 1812 0a0c 97F83330 		ldrb	r3, [r7, #51]	@ zero_extendqisi2
 1813 0a10 0133     		adds	r3, r3, #1
 1814 0a12 87F83330 		strb	r3, [r7, #51]
 1815              	.L66:
 305:printer.c     **** 		for(uint8 x = 0; x < 13; x ++){
 1816              		.loc 1 305 0 is_stmt 0 discriminator 1
 1817 0a16 97F83330 		ldrb	r3, [r7, #51]	@ zero_extendqisi2
 1818 0a1a 0C2B     		cmp	r3, #12
 1819 0a1c EFD9     		bls	.L67
 1820              	.LBE29:
 307:printer.c     **** 		}
 308:printer.c     ****         if(side.a.Nozzle == 0x01){
 1821              		.loc 1 308 0 is_stmt 1
 1822 0a1e A44B     		ldr	r3, .L167
 1823 0a20 93F82C31 		ldrb	r3, [r3, #300]	@ zero_extendqisi2
 1824 0a24 012B     		cmp	r3, #1
 1825 0a26 13D1     		bne	.L68
 1826              	.LBB30:
 309:printer.c     ****     		for(uint8 x = 0; x < 9; x ++){
 1827              		.loc 1 309 0
 1828 0a28 0023     		movs	r3, #0
 1829 0a2a 87F83230 		strb	r3, [r7, #50]
 1830 0a2e 0BE0     		b	.L69
 1831              	.L70:
 310:printer.c     ****     			PRINTER_A_PutChar(msn_diesel[x]);
 1832              		.loc 1 310 0 discriminator 3
 1833 0a30 97F83230 		ldrb	r3, [r7, #50]	@ zero_extendqisi2
 1834 0a34 A24A     		ldr	r2, .L167+16
 1835 0a36 D35C     		ldrb	r3, [r2, r3]	@ zero_extendqisi2
 1836 0a38 1846     		mov	r0, r3
 1837 0a3a FFF7FEFF 		bl	PRINTER_A_PutChar
 309:printer.c     ****     		for(uint8 x = 0; x < 9; x ++){
 1838              		.loc 1 309 0 discriminator 3
 1839 0a3e 97F83230 		ldrb	r3, [r7, #50]	@ zero_extendqisi2
 1840 0a42 0133     		adds	r3, r3, #1
 1841 0a44 87F83230 		strb	r3, [r7, #50]
 1842              	.L69:
 309:printer.c     ****     		for(uint8 x = 0; x < 9; x ++){
 1843              		.loc 1 309 0 is_stmt 0 discriminator 1
 1844 0a48 97F83230 		ldrb	r3, [r7, #50]	@ zero_extendqisi2
 1845 0a4c 082B     		cmp	r3, #8
 1846 0a4e EFD9     		bls	.L70
ARM GAS  C:\Users\Diego\AppData\Local\Temp\ccIAJaV8.s 			page 44


 1847              	.L68:
 1848              	.LBE30:
 311:printer.c     ****     		}
 312:printer.c     ****         }
 313:printer.c     ****         if(side.a.Nozzle == 0x02){
 1849              		.loc 1 313 0 is_stmt 1
 1850 0a50 974B     		ldr	r3, .L167
 1851 0a52 93F82C31 		ldrb	r3, [r3, #300]	@ zero_extendqisi2
 1852 0a56 022B     		cmp	r3, #2
 1853 0a58 13D1     		bne	.L71
 1854              	.LBB31:
 314:printer.c     ****             for(uint8 x = 0; x < 9; x ++){
 1855              		.loc 1 314 0
 1856 0a5a 0023     		movs	r3, #0
 1857 0a5c 87F83130 		strb	r3, [r7, #49]
 1858 0a60 0BE0     		b	.L72
 1859              	.L73:
 315:printer.c     ****     			PRINTER_A_PutChar(msn_gasoline[x]);
 1860              		.loc 1 315 0 discriminator 3
 1861 0a62 97F83130 		ldrb	r3, [r7, #49]	@ zero_extendqisi2
 1862 0a66 974A     		ldr	r2, .L167+20
 1863 0a68 D35C     		ldrb	r3, [r2, r3]	@ zero_extendqisi2
 1864 0a6a 1846     		mov	r0, r3
 1865 0a6c FFF7FEFF 		bl	PRINTER_A_PutChar
 314:printer.c     ****             for(uint8 x = 0; x < 9; x ++){
 1866              		.loc 1 314 0 discriminator 3
 1867 0a70 97F83130 		ldrb	r3, [r7, #49]	@ zero_extendqisi2
 1868 0a74 0133     		adds	r3, r3, #1
 1869 0a76 87F83130 		strb	r3, [r7, #49]
 1870              	.L72:
 314:printer.c     ****             for(uint8 x = 0; x < 9; x ++){
 1871              		.loc 1 314 0 is_stmt 0 discriminator 1
 1872 0a7a 97F83130 		ldrb	r3, [r7, #49]	@ zero_extendqisi2
 1873 0a7e 082B     		cmp	r3, #8
 1874 0a80 EFD9     		bls	.L73
 1875              	.L71:
 1876              	.LBE31:
 316:printer.c     ****     		}
 317:printer.c     ****         }
 318:printer.c     ****         if(side.a.Nozzle == 0x03){
 1877              		.loc 1 318 0 is_stmt 1
 1878 0a82 8B4B     		ldr	r3, .L167
 1879 0a84 93F82C31 		ldrb	r3, [r3, #300]	@ zero_extendqisi2
 1880 0a88 032B     		cmp	r3, #3
 1881 0a8a 13D1     		bne	.L74
 1882              	.LBB32:
 319:printer.c     ****             for(uint8 x = 0; x < 9; x ++){
 1883              		.loc 1 319 0
 1884 0a8c 0023     		movs	r3, #0
 1885 0a8e 87F83030 		strb	r3, [r7, #48]
 1886 0a92 0BE0     		b	.L75
 1887              	.L76:
 320:printer.c     ****     			
 321:printer.c     ****                 PRINTER_A_PutChar(msn_extra[x]);
 1888              		.loc 1 321 0 discriminator 3
 1889 0a94 97F83030 		ldrb	r3, [r7, #48]	@ zero_extendqisi2
 1890 0a98 8B4A     		ldr	r2, .L167+24
ARM GAS  C:\Users\Diego\AppData\Local\Temp\ccIAJaV8.s 			page 45


 1891 0a9a D35C     		ldrb	r3, [r2, r3]	@ zero_extendqisi2
 1892 0a9c 1846     		mov	r0, r3
 1893 0a9e FFF7FEFF 		bl	PRINTER_A_PutChar
 319:printer.c     ****             for(uint8 x = 0; x < 9; x ++){
 1894              		.loc 1 319 0 discriminator 3
 1895 0aa2 97F83030 		ldrb	r3, [r7, #48]	@ zero_extendqisi2
 1896 0aa6 0133     		adds	r3, r3, #1
 1897 0aa8 87F83030 		strb	r3, [r7, #48]
 1898              	.L75:
 319:printer.c     ****             for(uint8 x = 0; x < 9; x ++){
 1899              		.loc 1 319 0 is_stmt 0 discriminator 1
 1900 0aac 97F83030 		ldrb	r3, [r7, #48]	@ zero_extendqisi2
 1901 0ab0 082B     		cmp	r3, #8
 1902 0ab2 EFD9     		bls	.L76
 1903              	.L74:
 1904              	.LBE32:
 322:printer.c     ****     		}
 323:printer.c     ****         } 
 324:printer.c     ****         PRINTER_A_PutChar(LINE_FEED); 	
 1905              		.loc 1 324 0 is_stmt 1
 1906 0ab4 7F4B     		ldr	r3, .L167+4
 1907 0ab6 1B78     		ldrb	r3, [r3]	@ zero_extendqisi2
 1908 0ab8 1846     		mov	r0, r3
 1909 0aba FFF7FEFF 		bl	PRINTER_A_PutChar
 1910              	.LBB33:
 325:printer.c     **** 		for(uint8 x = 0; x < 13; x ++){
 1911              		.loc 1 325 0
 1912 0abe 0023     		movs	r3, #0
 1913 0ac0 87F82F30 		strb	r3, [r7, #47]
 1914 0ac4 0BE0     		b	.L77
 1915              	.L78:
 326:printer.c     **** 			PRINTER_A_PutChar(msn_ppu[x]);
 1916              		.loc 1 326 0 discriminator 3
 1917 0ac6 97F82F30 		ldrb	r3, [r7, #47]	@ zero_extendqisi2
 1918 0aca 804A     		ldr	r2, .L167+28
 1919 0acc D35C     		ldrb	r3, [r2, r3]	@ zero_extendqisi2
 1920 0ace 1846     		mov	r0, r3
 1921 0ad0 FFF7FEFF 		bl	PRINTER_A_PutChar
 325:printer.c     **** 		for(uint8 x = 0; x < 13; x ++){
 1922              		.loc 1 325 0 discriminator 3
 1923 0ad4 97F82F30 		ldrb	r3, [r7, #47]	@ zero_extendqisi2
 1924 0ad8 0133     		adds	r3, r3, #1
 1925 0ada 87F82F30 		strb	r3, [r7, #47]
 1926              	.L77:
 325:printer.c     **** 		for(uint8 x = 0; x < 13; x ++){
 1927              		.loc 1 325 0 is_stmt 0 discriminator 1
 1928 0ade 97F82F30 		ldrb	r3, [r7, #47]	@ zero_extendqisi2
 1929 0ae2 0C2B     		cmp	r3, #12
 1930 0ae4 EFD9     		bls	.L78
 1931              	.LBE33:
 327:printer.c     **** 		}
 328:printer.c     **** 		PRINTER_A_PutChar(PRN_CURRENCY[0]);  
 1932              		.loc 1 328 0 is_stmt 1
 1933 0ae6 7A4B     		ldr	r3, .L167+32
 1934 0ae8 1B78     		ldrb	r3, [r3]	@ zero_extendqisi2
 1935 0aea 1846     		mov	r0, r3
 1936 0aec FFF7FEFF 		bl	PRINTER_A_PutChar
ARM GAS  C:\Users\Diego\AppData\Local\Temp\ccIAJaV8.s 			page 46


 329:printer.c     **** 		PRINTER_A_PutChar(' ');
 1937              		.loc 1 329 0
 1938 0af0 2020     		movs	r0, #32
 1939 0af2 FFF7FEFF 		bl	PRINTER_A_PutChar
 1940              	.LBB34:
 330:printer.c     **** 		for(uint8 x = 1; x < 6; x ++){
 1941              		.loc 1 330 0
 1942 0af6 0123     		movs	r3, #1
 1943 0af8 87F82E30 		strb	r3, [r7, #46]
 1944 0afc 17E0     		b	.L79
 1945              	.L80:
 331:printer.c     **** 			PRINTER_A_PutChar(side.a.ProcessedPPU[side.a.Nozzle-1][x]);
 1946              		.loc 1 331 0 discriminator 3
 1947 0afe 6C4B     		ldr	r3, .L167
 1948 0b00 93F82C31 		ldrb	r3, [r3, #300]	@ zero_extendqisi2
 1949 0b04 5A1E     		subs	r2, r3, #1
 1950 0b06 97F82E10 		ldrb	r1, [r7, #46]	@ zero_extendqisi2
 1951 0b0a 6948     		ldr	r0, .L167
 1952 0b0c 1346     		mov	r3, r2
 1953 0b0e 5B00     		lsls	r3, r3, #1
 1954 0b10 1344     		add	r3, r3, r2
 1955 0b12 5B00     		lsls	r3, r3, #1
 1956 0b14 0344     		add	r3, r3, r0
 1957 0b16 0B44     		add	r3, r3, r1
 1958 0b18 03F20B13 		addw	r3, r3, #267
 1959 0b1c 1B78     		ldrb	r3, [r3]	@ zero_extendqisi2
 1960 0b1e 1846     		mov	r0, r3
 1961 0b20 FFF7FEFF 		bl	PRINTER_A_PutChar
 330:printer.c     **** 		for(uint8 x = 1; x < 6; x ++){
 1962              		.loc 1 330 0 discriminator 3
 1963 0b24 97F82E30 		ldrb	r3, [r7, #46]	@ zero_extendqisi2
 1964 0b28 0133     		adds	r3, r3, #1
 1965 0b2a 87F82E30 		strb	r3, [r7, #46]
 1966              	.L79:
 330:printer.c     **** 		for(uint8 x = 1; x < 6; x ++){
 1967              		.loc 1 330 0 is_stmt 0 discriminator 1
 1968 0b2e 97F82E30 		ldrb	r3, [r7, #46]	@ zero_extendqisi2
 1969 0b32 052B     		cmp	r3, #5
 1970 0b34 E3D9     		bls	.L80
 1971              	.LBE34:
 332:printer.c     **** 		}
 333:printer.c     ****         PRINTER_A_PutChar(LINE_FEED);
 1972              		.loc 1 333 0 is_stmt 1
 1973 0b36 5F4B     		ldr	r3, .L167+4
 1974 0b38 1B78     		ldrb	r3, [r3]	@ zero_extendqisi2
 1975 0b3a 1846     		mov	r0, r3
 1976 0b3c FFF7FEFF 		bl	PRINTER_A_PutChar
 1977              	.LBB35:
 334:printer.c     **** 		for(uint8 x = 0; x < 13; x ++){
 1978              		.loc 1 334 0
 1979 0b40 0023     		movs	r3, #0
 1980 0b42 87F82D30 		strb	r3, [r7, #45]
 1981 0b46 0BE0     		b	.L81
 1982              	.L82:
 335:printer.c     **** 			PRINTER_A_PutChar(msn_vol[x]);
 1983              		.loc 1 335 0 discriminator 3
 1984 0b48 97F82D30 		ldrb	r3, [r7, #45]	@ zero_extendqisi2
ARM GAS  C:\Users\Diego\AppData\Local\Temp\ccIAJaV8.s 			page 47


 1985 0b4c 614A     		ldr	r2, .L167+36
 1986 0b4e D35C     		ldrb	r3, [r2, r3]	@ zero_extendqisi2
 1987 0b50 1846     		mov	r0, r3
 1988 0b52 FFF7FEFF 		bl	PRINTER_A_PutChar
 334:printer.c     **** 		for(uint8 x = 0; x < 13; x ++){
 1989              		.loc 1 334 0 discriminator 3
 1990 0b56 97F82D30 		ldrb	r3, [r7, #45]	@ zero_extendqisi2
 1991 0b5a 0133     		adds	r3, r3, #1
 1992 0b5c 87F82D30 		strb	r3, [r7, #45]
 1993              	.L81:
 334:printer.c     **** 		for(uint8 x = 0; x < 13; x ++){
 1994              		.loc 1 334 0 is_stmt 0 discriminator 1
 1995 0b60 97F82D30 		ldrb	r3, [r7, #45]	@ zero_extendqisi2
 1996 0b64 0C2B     		cmp	r3, #12
 1997 0b66 EFD9     		bls	.L82
 1998              	.LBE35:
 1999              	.LBB36:
 336:printer.c     **** 		}
 337:printer.c     **** 		for(uint8 x = 0; x < 8; x ++){
 2000              		.loc 1 337 0 is_stmt 1
 2001 0b68 0023     		movs	r3, #0
 2002 0b6a 87F82C30 		strb	r3, [r7, #44]
 2003 0b6e 18E0     		b	.L83
 2004              	.L85:
 338:printer.c     **** 			if((8-x) == DecVol)
 2005              		.loc 1 338 0
 2006 0b70 97F82C30 		ldrb	r3, [r7, #44]	@ zero_extendqisi2
 2007 0b74 C3F10803 		rsb	r3, r3, #8
 2008 0b78 574A     		ldr	r2, .L167+40
 2009 0b7a 1278     		ldrb	r2, [r2]	@ zero_extendqisi2
 2010 0b7c 9342     		cmp	r3, r2
 2011 0b7e 02D1     		bne	.L84
 339:printer.c     **** 				PRINTER_A_PutChar('.');
 2012              		.loc 1 339 0
 2013 0b80 2E20     		movs	r0, #46
 2014 0b82 FFF7FEFF 		bl	PRINTER_A_PutChar
 2015              	.L84:
 340:printer.c     **** 			PRINTER_A_PutChar(side.a.ProcessedvolumeSale[x]);        
 2016              		.loc 1 340 0 discriminator 2
 2017 0b86 97F82C30 		ldrb	r3, [r7, #44]	@ zero_extendqisi2
 2018 0b8a 494A     		ldr	r2, .L167
 2019 0b8c 1344     		add	r3, r3, r2
 2020 0b8e 93F80331 		ldrb	r3, [r3, #259]	@ zero_extendqisi2
 2021 0b92 1846     		mov	r0, r3
 2022 0b94 FFF7FEFF 		bl	PRINTER_A_PutChar
 337:printer.c     **** 			if((8-x) == DecVol)
 2023              		.loc 1 337 0 discriminator 2
 2024 0b98 97F82C30 		ldrb	r3, [r7, #44]	@ zero_extendqisi2
 2025 0b9c 0133     		adds	r3, r3, #1
 2026 0b9e 87F82C30 		strb	r3, [r7, #44]
 2027              	.L83:
 337:printer.c     **** 			if((8-x) == DecVol)
 2028              		.loc 1 337 0 is_stmt 0 discriminator 1
 2029 0ba2 97F82C30 		ldrb	r3, [r7, #44]	@ zero_extendqisi2
 2030 0ba6 072B     		cmp	r3, #7
 2031 0ba8 E2D9     		bls	.L85
 2032              	.LBE36:
ARM GAS  C:\Users\Diego\AppData\Local\Temp\ccIAJaV8.s 			page 48


 341:printer.c     **** 		}
 342:printer.c     **** 		PRINTER_A_PutChar(' ');
 2033              		.loc 1 342 0 is_stmt 1
 2034 0baa 2020     		movs	r0, #32
 2035 0bac FFF7FEFF 		bl	PRINTER_A_PutChar
 343:printer.c     **** 		PRINTER_A_PutChar(VolSimbol[0]);
 2036              		.loc 1 343 0
 2037 0bb0 4A4B     		ldr	r3, .L167+44
 2038 0bb2 1B78     		ldrb	r3, [r3]	@ zero_extendqisi2
 2039 0bb4 1846     		mov	r0, r3
 2040 0bb6 FFF7FEFF 		bl	PRINTER_A_PutChar
 344:printer.c     **** 		PRINTER_A_PutChar(LINE_FEED); 
 2041              		.loc 1 344 0
 2042 0bba 3E4B     		ldr	r3, .L167+4
 2043 0bbc 1B78     		ldrb	r3, [r3]	@ zero_extendqisi2
 2044 0bbe 1846     		mov	r0, r3
 2045 0bc0 FFF7FEFF 		bl	PRINTER_A_PutChar
 2046              	.LBB37:
 345:printer.c     **** 		for(uint8 x = 0; x < 13; x ++){
 2047              		.loc 1 345 0
 2048 0bc4 0023     		movs	r3, #0
 2049 0bc6 87F82B30 		strb	r3, [r7, #43]
 2050 0bca 0BE0     		b	.L86
 2051              	.L87:
 346:printer.c     **** 			PRINTER_A_PutChar(msn_din[x]);
 2052              		.loc 1 346 0 discriminator 3
 2053 0bcc 97F82B30 		ldrb	r3, [r7, #43]	@ zero_extendqisi2
 2054 0bd0 434A     		ldr	r2, .L167+48
 2055 0bd2 D35C     		ldrb	r3, [r2, r3]	@ zero_extendqisi2
 2056 0bd4 1846     		mov	r0, r3
 2057 0bd6 FFF7FEFF 		bl	PRINTER_A_PutChar
 345:printer.c     **** 		for(uint8 x = 0; x < 13; x ++){
 2058              		.loc 1 345 0 discriminator 3
 2059 0bda 97F82B30 		ldrb	r3, [r7, #43]	@ zero_extendqisi2
 2060 0bde 0133     		adds	r3, r3, #1
 2061 0be0 87F82B30 		strb	r3, [r7, #43]
 2062              	.L86:
 345:printer.c     **** 		for(uint8 x = 0; x < 13; x ++){
 2063              		.loc 1 345 0 is_stmt 0 discriminator 1
 2064 0be4 97F82B30 		ldrb	r3, [r7, #43]	@ zero_extendqisi2
 2065 0be8 0C2B     		cmp	r3, #12
 2066 0bea EFD9     		bls	.L87
 2067              	.LBE37:
 347:printer.c     **** 		}     
 348:printer.c     **** 		PRINTER_A_PutChar(PRN_CURRENCY[0]);  
 2068              		.loc 1 348 0 is_stmt 1
 2069 0bec 384B     		ldr	r3, .L167+32
 2070 0bee 1B78     		ldrb	r3, [r3]	@ zero_extendqisi2
 2071 0bf0 1846     		mov	r0, r3
 2072 0bf2 FFF7FEFF 		bl	PRINTER_A_PutChar
 349:printer.c     **** 		PRINTER_A_PutChar(' ');
 2073              		.loc 1 349 0
 2074 0bf6 2020     		movs	r0, #32
 2075 0bf8 FFF7FEFF 		bl	PRINTER_A_PutChar
 2076              	.LBB38:
 350:printer.c     **** 
 351:printer.c     **** 		for(uint8 x = 0; x < 7; x ++){
ARM GAS  C:\Users\Diego\AppData\Local\Temp\ccIAJaV8.s 			page 49


 2077              		.loc 1 351 0
 2078 0bfc 0023     		movs	r3, #0
 2079 0bfe 87F82A30 		strb	r3, [r7, #42]
 2080 0c02 0DE0     		b	.L88
 2081              	.L89:
 352:printer.c     **** 			PRINTER_A_PutChar(side.a.ProcessedmoneySale[x]);
 2082              		.loc 1 352 0 discriminator 3
 2083 0c04 97F82A30 		ldrb	r3, [r7, #42]	@ zero_extendqisi2
 2084 0c08 294A     		ldr	r2, .L167
 2085 0c0a 1344     		add	r3, r3, r2
 2086 0c0c 93F8FB30 		ldrb	r3, [r3, #251]	@ zero_extendqisi2
 2087 0c10 1846     		mov	r0, r3
 2088 0c12 FFF7FEFF 		bl	PRINTER_A_PutChar
 351:printer.c     **** 			PRINTER_A_PutChar(side.a.ProcessedmoneySale[x]);
 2089              		.loc 1 351 0 discriminator 3
 2090 0c16 97F82A30 		ldrb	r3, [r7, #42]	@ zero_extendqisi2
 2091 0c1a 0133     		adds	r3, r3, #1
 2092 0c1c 87F82A30 		strb	r3, [r7, #42]
 2093              	.L88:
 351:printer.c     **** 			PRINTER_A_PutChar(side.a.ProcessedmoneySale[x]);
 2094              		.loc 1 351 0 is_stmt 0 discriminator 1
 2095 0c20 97F82A30 		ldrb	r3, [r7, #42]	@ zero_extendqisi2
 2096 0c24 062B     		cmp	r3, #6
 2097 0c26 EDD9     		bls	.L89
 2098              	.LBE38:
 353:printer.c     **** 		}		
 354:printer.c     **** 		PRINTER_A_PutChar(LINE_FEED);
 2099              		.loc 1 354 0 is_stmt 1
 2100 0c28 224B     		ldr	r3, .L167+4
 2101 0c2a 1B78     		ldrb	r3, [r3]	@ zero_extendqisi2
 2102 0c2c 1846     		mov	r0, r3
 2103 0c2e FFF7FEFF 		bl	PRINTER_A_PutChar
 355:printer.c     ****         side.a.Copy = 1;
 2104              		.loc 1 355 0
 2105 0c32 1F4B     		ldr	r3, .L167
 2106 0c34 0122     		movs	r2, #1
 2107 0c36 83F83421 		strb	r2, [r3, #308]
 2108              	.L33:
 356:printer.c     **** 	}	
 357:printer.c     **** 	if(address == side.b.dir){
 2109              		.loc 1 357 0
 2110 0c3a 1D4B     		ldr	r3, .L167
 2111 0c3c 93F83531 		ldrb	r3, [r3, #309]	@ zero_extendqisi2
 2112 0c40 FA79     		ldrb	r2, [r7, #7]	@ zero_extendqisi2
 2113 0c42 9A42     		cmp	r2, r3
 2114 0c44 40F03E83 		bne	.L90
 358:printer.c     **** 		if(side.b.Copy == 1) {
 2115              		.loc 1 358 0
 2116 0c48 194B     		ldr	r3, .L167
 2117 0c4a 93F86932 		ldrb	r3, [r3, #617]	@ zero_extendqisi2
 2118 0c4e 012B     		cmp	r3, #1
 2119 0c50 40F0C580 		bne	.L91
 359:printer.c     ****             
 360:printer.c     ****             PRINTER_A_PutChar(date_copy[0]);
 2120              		.loc 1 360 0
 2121 0c54 234B     		ldr	r3, .L167+52
 2122 0c56 1B78     		ldrb	r3, [r3]	@ zero_extendqisi2
ARM GAS  C:\Users\Diego\AppData\Local\Temp\ccIAJaV8.s 			page 50


 2123 0c58 1846     		mov	r0, r3
 2124 0c5a FFF7FEFF 		bl	PRINTER_A_PutChar
 361:printer.c     ****             PRINTER_A_PutChar(date_copy[1]);
 2125              		.loc 1 361 0
 2126 0c5e 214B     		ldr	r3, .L167+52
 2127 0c60 5B78     		ldrb	r3, [r3, #1]	@ zero_extendqisi2
 2128 0c62 1846     		mov	r0, r3
 2129 0c64 FFF7FEFF 		bl	PRINTER_A_PutChar
 362:printer.c     ****             PRINTER_A_PutChar('/');
 2130              		.loc 1 362 0
 2131 0c68 2F20     		movs	r0, #47
 2132 0c6a FFF7FEFF 		bl	PRINTER_A_PutChar
 363:printer.c     ****             PRINTER_A_PutChar(date_copy[2]);
 2133              		.loc 1 363 0
 2134 0c6e 1D4B     		ldr	r3, .L167+52
 2135 0c70 9B78     		ldrb	r3, [r3, #2]	@ zero_extendqisi2
 2136 0c72 1846     		mov	r0, r3
 2137 0c74 FFF7FEFF 		bl	PRINTER_A_PutChar
 364:printer.c     ****             PRINTER_A_PutChar(date_copy[3]);
 2138              		.loc 1 364 0
 2139 0c78 1A4B     		ldr	r3, .L167+52
 2140 0c7a DB78     		ldrb	r3, [r3, #3]	@ zero_extendqisi2
 2141 0c7c 1846     		mov	r0, r3
 2142 0c7e FFF7FEFF 		bl	PRINTER_A_PutChar
 365:printer.c     ****             PRINTER_A_PutChar('/');
 2143              		.loc 1 365 0
 2144 0c82 2F20     		movs	r0, #47
 2145 0c84 FFF7FEFF 		bl	PRINTER_A_PutChar
 366:printer.c     ****             PRINTER_A_PutChar(date_copy[4]);
 2146              		.loc 1 366 0
 2147 0c88 164B     		ldr	r3, .L167+52
 2148 0c8a 1B79     		ldrb	r3, [r3, #4]	@ zero_extendqisi2
 2149 0c8c 1846     		mov	r0, r3
 2150 0c8e FFF7FEFF 		bl	PRINTER_A_PutChar
 367:printer.c     ****             PRINTER_A_PutChar(date_copy[5]);
 2151              		.loc 1 367 0
 2152 0c92 144B     		ldr	r3, .L167+52
 2153 0c94 5B79     		ldrb	r3, [r3, #5]	@ zero_extendqisi2
 2154 0c96 1846     		mov	r0, r3
 2155 0c98 FFF7FEFF 		bl	PRINTER_A_PutChar
 368:printer.c     ****             
 369:printer.c     ****             PRINTER_A_PutChar(LINE_FEED);
 2156              		.loc 1 369 0
 2157 0c9c 054B     		ldr	r3, .L167+4
 2158 0c9e 1B78     		ldrb	r3, [r3]	@ zero_extendqisi2
 2159 0ca0 1846     		mov	r0, r3
 2160 0ca2 FFF7FEFF 		bl	PRINTER_A_PutChar
 2161              	.LBB39:
 370:printer.c     ****             
 371:printer.c     ****             /********** HORA ***************/
 372:printer.c     ****         	for(uint8 x = 0; x < 13; x ++){
 2162              		.loc 1 372 0
 2163 0ca6 0023     		movs	r3, #0
 2164 0ca8 87F82930 		strb	r3, [r7, #41]
 2165 0cac 28E0     		b	.L92
 2166              	.L168:
 2167 0cae 00BF     		.align	2
ARM GAS  C:\Users\Diego\AppData\Local\Temp\ccIAJaV8.s 			page 51


 2168              	.L167:
 2169 0cb0 00000000 		.word	side
 2170 0cb4 00000000 		.word	LINE_FEED
 2171 0cb8 00000000 		.word	msn_pos
 2172 0cbc 00000000 		.word	msn_product
 2173 0cc0 00000000 		.word	msn_diesel
 2174 0cc4 00000000 		.word	msn_gasoline
 2175 0cc8 00000000 		.word	msn_extra
 2176 0ccc 00000000 		.word	msn_ppu
 2177 0cd0 00000000 		.word	PRN_CURRENCY
 2178 0cd4 00000000 		.word	msn_vol
 2179 0cd8 00000000 		.word	DecVol
 2180 0cdc 00000000 		.word	VolSimbol
 2181 0ce0 00000000 		.word	msn_din
 2182 0ce4 00000000 		.word	date_copy
 2183              	.L93:
 373:printer.c     ****         		PRINTER_A_PutChar(msn_hora[x]);
 2184              		.loc 1 373 0 discriminator 3
 2185 0ce8 97F82930 		ldrb	r3, [r7, #41]	@ zero_extendqisi2
 2186 0cec BF4A     		ldr	r2, .L169
 2187 0cee D35C     		ldrb	r3, [r2, r3]	@ zero_extendqisi2
 2188 0cf0 1846     		mov	r0, r3
 2189 0cf2 FFF7FEFF 		bl	PRINTER_A_PutChar
 372:printer.c     ****         		PRINTER_A_PutChar(msn_hora[x]);
 2190              		.loc 1 372 0 discriminator 3
 2191 0cf6 97F82930 		ldrb	r3, [r7, #41]	@ zero_extendqisi2
 2192 0cfa 0133     		adds	r3, r3, #1
 2193 0cfc 87F82930 		strb	r3, [r7, #41]
 2194              	.L92:
 372:printer.c     ****         		PRINTER_A_PutChar(msn_hora[x]);
 2195              		.loc 1 372 0 is_stmt 0 discriminator 1
 2196 0d00 97F82930 		ldrb	r3, [r7, #41]	@ zero_extendqisi2
 2197 0d04 0C2B     		cmp	r3, #12
 2198 0d06 EFD9     		bls	.L93
 2199              	.LBE39:
 374:printer.c     ****         	}
 375:printer.c     ****             
 376:printer.c     ****             PRINTER_A_PutChar(hour_copy[0]);
 2200              		.loc 1 376 0 is_stmt 1
 2201 0d08 B94B     		ldr	r3, .L169+4
 2202 0d0a 1B78     		ldrb	r3, [r3]	@ zero_extendqisi2
 2203 0d0c 1846     		mov	r0, r3
 2204 0d0e FFF7FEFF 		bl	PRINTER_A_PutChar
 377:printer.c     ****             PRINTER_A_PutChar(hour_copy[1]);
 2205              		.loc 1 377 0
 2206 0d12 B74B     		ldr	r3, .L169+4
 2207 0d14 5B78     		ldrb	r3, [r3, #1]	@ zero_extendqisi2
 2208 0d16 1846     		mov	r0, r3
 2209 0d18 FFF7FEFF 		bl	PRINTER_A_PutChar
 378:printer.c     ****             PRINTER_A_PutChar(':');
 2210              		.loc 1 378 0
 2211 0d1c 3A20     		movs	r0, #58
 2212 0d1e FFF7FEFF 		bl	PRINTER_A_PutChar
 379:printer.c     ****             PRINTER_A_PutChar(hour_copy[2]);
 2213              		.loc 1 379 0
 2214 0d22 B34B     		ldr	r3, .L169+4
 2215 0d24 9B78     		ldrb	r3, [r3, #2]	@ zero_extendqisi2
ARM GAS  C:\Users\Diego\AppData\Local\Temp\ccIAJaV8.s 			page 52


 2216 0d26 1846     		mov	r0, r3
 2217 0d28 FFF7FEFF 		bl	PRINTER_A_PutChar
 380:printer.c     ****             PRINTER_A_PutChar(hour_copy[3]);
 2218              		.loc 1 380 0
 2219 0d2c B04B     		ldr	r3, .L169+4
 2220 0d2e DB78     		ldrb	r3, [r3, #3]	@ zero_extendqisi2
 2221 0d30 1846     		mov	r0, r3
 2222 0d32 FFF7FEFF 		bl	PRINTER_A_PutChar
 381:printer.c     ****             PRINTER_A_PutChar(':');
 2223              		.loc 1 381 0
 2224 0d36 3A20     		movs	r0, #58
 2225 0d38 FFF7FEFF 		bl	PRINTER_A_PutChar
 382:printer.c     ****             PRINTER_A_PutChar(hour_copy[4]);
 2226              		.loc 1 382 0
 2227 0d3c AC4B     		ldr	r3, .L169+4
 2228 0d3e 1B79     		ldrb	r3, [r3, #4]	@ zero_extendqisi2
 2229 0d40 1846     		mov	r0, r3
 2230 0d42 FFF7FEFF 		bl	PRINTER_A_PutChar
 383:printer.c     ****             PRINTER_A_PutChar(hour_copy[5]);
 2231              		.loc 1 383 0
 2232 0d46 AA4B     		ldr	r3, .L169+4
 2233 0d48 5B79     		ldrb	r3, [r3, #5]	@ zero_extendqisi2
 2234 0d4a 1846     		mov	r0, r3
 2235 0d4c FFF7FEFF 		bl	PRINTER_A_PutChar
 384:printer.c     ****             
 385:printer.c     ****             PRINTER_A_PutChar(LINE_FEED);
 2236              		.loc 1 385 0
 2237 0d50 A84B     		ldr	r3, .L169+8
 2238 0d52 1B78     		ldrb	r3, [r3]	@ zero_extendqisi2
 2239 0d54 1846     		mov	r0, r3
 2240 0d56 FFF7FEFF 		bl	PRINTER_A_PutChar
 2241              	.LBB40:
 386:printer.c     ****             
 387:printer.c     ****             for(uint8 x = 0; x < 32; x ++){
 2242              		.loc 1 387 0
 2243 0d5a 0023     		movs	r3, #0
 2244 0d5c 87F82830 		strb	r3, [r7, #40]
 2245 0d60 0BE0     		b	.L94
 2246              	.L95:
 388:printer.c     ****         		PRINTER_A_PutChar(SEPARATOR[x]);
 2247              		.loc 1 388 0 discriminator 3
 2248 0d62 97F82830 		ldrb	r3, [r7, #40]	@ zero_extendqisi2
 2249 0d66 A44A     		ldr	r2, .L169+12
 2250 0d68 D35C     		ldrb	r3, [r2, r3]	@ zero_extendqisi2
 2251 0d6a 1846     		mov	r0, r3
 2252 0d6c FFF7FEFF 		bl	PRINTER_A_PutChar
 387:printer.c     ****         		PRINTER_A_PutChar(SEPARATOR[x]);
 2253              		.loc 1 387 0 discriminator 3
 2254 0d70 97F82830 		ldrb	r3, [r7, #40]	@ zero_extendqisi2
 2255 0d74 0133     		adds	r3, r3, #1
 2256 0d76 87F82830 		strb	r3, [r7, #40]
 2257              	.L94:
 387:printer.c     ****         		PRINTER_A_PutChar(SEPARATOR[x]);
 2258              		.loc 1 387 0 is_stmt 0 discriminator 1
 2259 0d7a 97F82830 		ldrb	r3, [r7, #40]	@ zero_extendqisi2
 2260 0d7e 1F2B     		cmp	r3, #31
 2261 0d80 EFD9     		bls	.L95
ARM GAS  C:\Users\Diego\AppData\Local\Temp\ccIAJaV8.s 			page 53


 2262              	.LBE40:
 2263              	.LBB41:
 389:printer.c     ****         	}
 390:printer.c     ****             
 391:printer.c     ****             for(uint8 x = 0; x < 32; x ++){
 2264              		.loc 1 391 0 is_stmt 1
 2265 0d82 0023     		movs	r3, #0
 2266 0d84 87F82730 		strb	r3, [r7, #39]
 2267 0d88 0BE0     		b	.L96
 2268              	.L97:
 392:printer.c     ****         		PRINTER_A_PutChar(msn_copy[x]);
 2269              		.loc 1 392 0 discriminator 3
 2270 0d8a 97F82730 		ldrb	r3, [r7, #39]	@ zero_extendqisi2
 2271 0d8e 9B4A     		ldr	r2, .L169+16
 2272 0d90 D35C     		ldrb	r3, [r2, r3]	@ zero_extendqisi2
 2273 0d92 1846     		mov	r0, r3
 2274 0d94 FFF7FEFF 		bl	PRINTER_A_PutChar
 391:printer.c     ****         		PRINTER_A_PutChar(msn_copy[x]);
 2275              		.loc 1 391 0 discriminator 3
 2276 0d98 97F82730 		ldrb	r3, [r7, #39]	@ zero_extendqisi2
 2277 0d9c 0133     		adds	r3, r3, #1
 2278 0d9e 87F82730 		strb	r3, [r7, #39]
 2279              	.L96:
 391:printer.c     ****         		PRINTER_A_PutChar(msn_copy[x]);
 2280              		.loc 1 391 0 is_stmt 0 discriminator 1
 2281 0da2 97F82730 		ldrb	r3, [r7, #39]	@ zero_extendqisi2
 2282 0da6 1F2B     		cmp	r3, #31
 2283 0da8 EFD9     		bls	.L97
 2284              	.LBE41:
 393:printer.c     ****         	}
 394:printer.c     ****             PRINTER_A_PutChar(LINE_FEED);
 2285              		.loc 1 394 0 is_stmt 1
 2286 0daa 924B     		ldr	r3, .L169+8
 2287 0dac 1B78     		ldrb	r3, [r3]	@ zero_extendqisi2
 2288 0dae 1846     		mov	r0, r3
 2289 0db0 FFF7FEFF 		bl	PRINTER_A_PutChar
 2290              	.LBB42:
 395:printer.c     ****             for(uint8 x = 0; x < 32; x ++){
 2291              		.loc 1 395 0
 2292 0db4 0023     		movs	r3, #0
 2293 0db6 87F82630 		strb	r3, [r7, #38]
 2294 0dba 0BE0     		b	.L98
 2295              	.L99:
 396:printer.c     ****         		PRINTER_A_PutChar(SEPARATOR[x]);
 2296              		.loc 1 396 0 discriminator 3
 2297 0dbc 97F82630 		ldrb	r3, [r7, #38]	@ zero_extendqisi2
 2298 0dc0 8D4A     		ldr	r2, .L169+12
 2299 0dc2 D35C     		ldrb	r3, [r2, r3]	@ zero_extendqisi2
 2300 0dc4 1846     		mov	r0, r3
 2301 0dc6 FFF7FEFF 		bl	PRINTER_A_PutChar
 395:printer.c     ****             for(uint8 x = 0; x < 32; x ++){
 2302              		.loc 1 395 0 discriminator 3
 2303 0dca 97F82630 		ldrb	r3, [r7, #38]	@ zero_extendqisi2
 2304 0dce 0133     		adds	r3, r3, #1
 2305 0dd0 87F82630 		strb	r3, [r7, #38]
 2306              	.L98:
 395:printer.c     ****             for(uint8 x = 0; x < 32; x ++){
ARM GAS  C:\Users\Diego\AppData\Local\Temp\ccIAJaV8.s 			page 54


 2307              		.loc 1 395 0 is_stmt 0 discriminator 1
 2308 0dd4 97F82630 		ldrb	r3, [r7, #38]	@ zero_extendqisi2
 2309 0dd8 1F2B     		cmp	r3, #31
 2310 0dda EFD9     		bls	.L99
 2311 0ddc AFE0     		b	.L100
 2312              	.L91:
 2313              	.LBE42:
 397:printer.c     ****         	}            
 398:printer.c     ****         }
 399:printer.c     ****         else{
 400:printer.c     ****             
 401:printer.c     ****             PRINTER_A_PutChar(((touch1[8] >> 4) + 0x30)) ;
 2314              		.loc 1 401 0 is_stmt 1
 2315 0dde 884B     		ldr	r3, .L169+20
 2316 0de0 1B7A     		ldrb	r3, [r3, #8]	@ zero_extendqisi2
 2317 0de2 1B09     		lsrs	r3, r3, #4
 2318 0de4 DBB2     		uxtb	r3, r3
 2319 0de6 3033     		adds	r3, r3, #48
 2320 0de8 DBB2     		uxtb	r3, r3
 2321 0dea 1846     		mov	r0, r3
 2322 0dec FFF7FEFF 		bl	PRINTER_A_PutChar
 402:printer.c     **** 	        PRINTER_A_PutChar(((touch1[8] & 0x0F) + 0x30));
 2323              		.loc 1 402 0
 2324 0df0 834B     		ldr	r3, .L169+20
 2325 0df2 1B7A     		ldrb	r3, [r3, #8]	@ zero_extendqisi2
 2326 0df4 03F00F03 		and	r3, r3, #15
 2327 0df8 DBB2     		uxtb	r3, r3
 2328 0dfa 3033     		adds	r3, r3, #48
 2329 0dfc DBB2     		uxtb	r3, r3
 2330 0dfe 1846     		mov	r0, r3
 2331 0e00 FFF7FEFF 		bl	PRINTER_A_PutChar
 403:printer.c     ****             PRINTER_A_PutChar('/');
 2332              		.loc 1 403 0
 2333 0e04 2F20     		movs	r0, #47
 2334 0e06 FFF7FEFF 		bl	PRINTER_A_PutChar
 404:printer.c     ****             PRINTER_A_PutChar(((touch1[7] >> 4) + 0x30)) ;
 2335              		.loc 1 404 0
 2336 0e0a 7D4B     		ldr	r3, .L169+20
 2337 0e0c DB79     		ldrb	r3, [r3, #7]	@ zero_extendqisi2
 2338 0e0e 1B09     		lsrs	r3, r3, #4
 2339 0e10 DBB2     		uxtb	r3, r3
 2340 0e12 3033     		adds	r3, r3, #48
 2341 0e14 DBB2     		uxtb	r3, r3
 2342 0e16 1846     		mov	r0, r3
 2343 0e18 FFF7FEFF 		bl	PRINTER_A_PutChar
 405:printer.c     ****             PRINTER_A_PutChar(((touch1[7] & 0x0F) + 0x30));
 2344              		.loc 1 405 0
 2345 0e1c 784B     		ldr	r3, .L169+20
 2346 0e1e DB79     		ldrb	r3, [r3, #7]	@ zero_extendqisi2
 2347 0e20 03F00F03 		and	r3, r3, #15
 2348 0e24 DBB2     		uxtb	r3, r3
 2349 0e26 3033     		adds	r3, r3, #48
 2350 0e28 DBB2     		uxtb	r3, r3
 2351 0e2a 1846     		mov	r0, r3
 2352 0e2c FFF7FEFF 		bl	PRINTER_A_PutChar
 406:printer.c     ****             PRINTER_A_PutChar('/');    
 2353              		.loc 1 406 0
ARM GAS  C:\Users\Diego\AppData\Local\Temp\ccIAJaV8.s 			page 55


 2354 0e30 2F20     		movs	r0, #47
 2355 0e32 FFF7FEFF 		bl	PRINTER_A_PutChar
 407:printer.c     ****             PRINTER_A_PutChar(((touch1[6] >> 4) + 0x30));
 2356              		.loc 1 407 0
 2357 0e36 724B     		ldr	r3, .L169+20
 2358 0e38 9B79     		ldrb	r3, [r3, #6]	@ zero_extendqisi2
 2359 0e3a 1B09     		lsrs	r3, r3, #4
 2360 0e3c DBB2     		uxtb	r3, r3
 2361 0e3e 3033     		adds	r3, r3, #48
 2362 0e40 DBB2     		uxtb	r3, r3
 2363 0e42 1846     		mov	r0, r3
 2364 0e44 FFF7FEFF 		bl	PRINTER_A_PutChar
 408:printer.c     ****             PRINTER_A_PutChar(((touch1[6] & 0x0F) + 0x30));    
 2365              		.loc 1 408 0
 2366 0e48 6D4B     		ldr	r3, .L169+20
 2367 0e4a 9B79     		ldrb	r3, [r3, #6]	@ zero_extendqisi2
 2368 0e4c 03F00F03 		and	r3, r3, #15
 2369 0e50 DBB2     		uxtb	r3, r3
 2370 0e52 3033     		adds	r3, r3, #48
 2371 0e54 DBB2     		uxtb	r3, r3
 2372 0e56 1846     		mov	r0, r3
 2373 0e58 FFF7FEFF 		bl	PRINTER_A_PutChar
 409:printer.c     ****     
 410:printer.c     **** 	        PRINTER_A_PutChar(LINE_FEED);
 2374              		.loc 1 410 0
 2375 0e5c 654B     		ldr	r3, .L169+8
 2376 0e5e 1B78     		ldrb	r3, [r3]	@ zero_extendqisi2
 2377 0e60 1846     		mov	r0, r3
 2378 0e62 FFF7FEFF 		bl	PRINTER_A_PutChar
 2379              	.LBB43:
 411:printer.c     ****             
 412:printer.c     ****             /********** HORA ***************/
 413:printer.c     ****         	for(uint8 x = 0; x < 13; x ++){
 2380              		.loc 1 413 0
 2381 0e66 0023     		movs	r3, #0
 2382 0e68 87F82530 		strb	r3, [r7, #37]
 2383 0e6c 0BE0     		b	.L101
 2384              	.L102:
 414:printer.c     ****         		PRINTER_A_PutChar(msn_hora[x]);
 2385              		.loc 1 414 0 discriminator 3
 2386 0e6e 97F82530 		ldrb	r3, [r7, #37]	@ zero_extendqisi2
 2387 0e72 5E4A     		ldr	r2, .L169
 2388 0e74 D35C     		ldrb	r3, [r2, r3]	@ zero_extendqisi2
 2389 0e76 1846     		mov	r0, r3
 2390 0e78 FFF7FEFF 		bl	PRINTER_A_PutChar
 413:printer.c     ****         		PRINTER_A_PutChar(msn_hora[x]);
 2391              		.loc 1 413 0 discriminator 3
 2392 0e7c 97F82530 		ldrb	r3, [r7, #37]	@ zero_extendqisi2
 2393 0e80 0133     		adds	r3, r3, #1
 2394 0e82 87F82530 		strb	r3, [r7, #37]
 2395              	.L101:
 413:printer.c     ****         		PRINTER_A_PutChar(msn_hora[x]);
 2396              		.loc 1 413 0 is_stmt 0 discriminator 1
 2397 0e86 97F82530 		ldrb	r3, [r7, #37]	@ zero_extendqisi2
 2398 0e8a 0C2B     		cmp	r3, #12
 2399 0e8c EFD9     		bls	.L102
 2400              	.LBE43:
ARM GAS  C:\Users\Diego\AppData\Local\Temp\ccIAJaV8.s 			page 56


 415:printer.c     ****         	}
 416:printer.c     ****             PRINTER_A_PutChar(((touch1[10] >> 4) + 0x30)) ;
 2401              		.loc 1 416 0 is_stmt 1
 2402 0e8e 5C4B     		ldr	r3, .L169+20
 2403 0e90 9B7A     		ldrb	r3, [r3, #10]	@ zero_extendqisi2
 2404 0e92 1B09     		lsrs	r3, r3, #4
 2405 0e94 DBB2     		uxtb	r3, r3
 2406 0e96 3033     		adds	r3, r3, #48
 2407 0e98 DBB2     		uxtb	r3, r3
 2408 0e9a 1846     		mov	r0, r3
 2409 0e9c FFF7FEFF 		bl	PRINTER_A_PutChar
 417:printer.c     ****             PRINTER_A_PutChar(((touch1[10] & 0x0F) + 0x30));
 2410              		.loc 1 417 0
 2411 0ea0 574B     		ldr	r3, .L169+20
 2412 0ea2 9B7A     		ldrb	r3, [r3, #10]	@ zero_extendqisi2
 2413 0ea4 03F00F03 		and	r3, r3, #15
 2414 0ea8 DBB2     		uxtb	r3, r3
 2415 0eaa 3033     		adds	r3, r3, #48
 2416 0eac DBB2     		uxtb	r3, r3
 2417 0eae 1846     		mov	r0, r3
 2418 0eb0 FFF7FEFF 		bl	PRINTER_A_PutChar
 418:printer.c     ****             PRINTER_A_PutChar(':');
 2419              		.loc 1 418 0
 2420 0eb4 3A20     		movs	r0, #58
 2421 0eb6 FFF7FEFF 		bl	PRINTER_A_PutChar
 419:printer.c     ****             PRINTER_A_PutChar(((touch1[11] >> 4) + 0x30)) ;
 2422              		.loc 1 419 0
 2423 0eba 514B     		ldr	r3, .L169+20
 2424 0ebc DB7A     		ldrb	r3, [r3, #11]	@ zero_extendqisi2
 2425 0ebe 1B09     		lsrs	r3, r3, #4
 2426 0ec0 DBB2     		uxtb	r3, r3
 2427 0ec2 3033     		adds	r3, r3, #48
 2428 0ec4 DBB2     		uxtb	r3, r3
 2429 0ec6 1846     		mov	r0, r3
 2430 0ec8 FFF7FEFF 		bl	PRINTER_A_PutChar
 420:printer.c     ****             PRINTER_A_PutChar(((touch1[11] & 0x0F) + 0x30));
 2431              		.loc 1 420 0
 2432 0ecc 4C4B     		ldr	r3, .L169+20
 2433 0ece DB7A     		ldrb	r3, [r3, #11]	@ zero_extendqisi2
 2434 0ed0 03F00F03 		and	r3, r3, #15
 2435 0ed4 DBB2     		uxtb	r3, r3
 2436 0ed6 3033     		adds	r3, r3, #48
 2437 0ed8 DBB2     		uxtb	r3, r3
 2438 0eda 1846     		mov	r0, r3
 2439 0edc FFF7FEFF 		bl	PRINTER_A_PutChar
 421:printer.c     ****             PRINTER_A_PutChar(':');
 2440              		.loc 1 421 0
 2441 0ee0 3A20     		movs	r0, #58
 2442 0ee2 FFF7FEFF 		bl	PRINTER_A_PutChar
 422:printer.c     ****             PRINTER_A_PutChar(((touch1[12] >> 4) + 0x30));
 2443              		.loc 1 422 0
 2444 0ee6 464B     		ldr	r3, .L169+20
 2445 0ee8 1B7B     		ldrb	r3, [r3, #12]	@ zero_extendqisi2
 2446 0eea 1B09     		lsrs	r3, r3, #4
 2447 0eec DBB2     		uxtb	r3, r3
 2448 0eee 3033     		adds	r3, r3, #48
 2449 0ef0 DBB2     		uxtb	r3, r3
ARM GAS  C:\Users\Diego\AppData\Local\Temp\ccIAJaV8.s 			page 57


 2450 0ef2 1846     		mov	r0, r3
 2451 0ef4 FFF7FEFF 		bl	PRINTER_A_PutChar
 423:printer.c     ****         	PRINTER_A_PutChar(((touch1[12] & 0x0F) + 0x30));
 2452              		.loc 1 423 0
 2453 0ef8 414B     		ldr	r3, .L169+20
 2454 0efa 1B7B     		ldrb	r3, [r3, #12]	@ zero_extendqisi2
 2455 0efc 03F00F03 		and	r3, r3, #15
 2456 0f00 DBB2     		uxtb	r3, r3
 2457 0f02 3033     		adds	r3, r3, #48
 2458 0f04 DBB2     		uxtb	r3, r3
 2459 0f06 1846     		mov	r0, r3
 2460 0f08 FFF7FEFF 		bl	PRINTER_A_PutChar
 424:printer.c     **** 	
 425:printer.c     ****             PRINTER_A_PutChar(LINE_FEED);
 2461              		.loc 1 425 0
 2462 0f0c 394B     		ldr	r3, .L169+8
 2463 0f0e 1B78     		ldrb	r3, [r3]	@ zero_extendqisi2
 2464 0f10 1846     		mov	r0, r3
 2465 0f12 FFF7FEFF 		bl	PRINTER_A_PutChar
 2466              	.LBB44:
 426:printer.c     ****             for(uint8 x = 0; x < 32; x ++){
 2467              		.loc 1 426 0
 2468 0f16 0023     		movs	r3, #0
 2469 0f18 87F82430 		strb	r3, [r7, #36]
 2470 0f1c 0BE0     		b	.L103
 2471              	.L104:
 427:printer.c     ****         		PRINTER_A_PutChar(SEPARATOR[x]);
 2472              		.loc 1 427 0 discriminator 3
 2473 0f1e 97F82430 		ldrb	r3, [r7, #36]	@ zero_extendqisi2
 2474 0f22 354A     		ldr	r2, .L169+12
 2475 0f24 D35C     		ldrb	r3, [r2, r3]	@ zero_extendqisi2
 2476 0f26 1846     		mov	r0, r3
 2477 0f28 FFF7FEFF 		bl	PRINTER_A_PutChar
 426:printer.c     ****             for(uint8 x = 0; x < 32; x ++){
 2478              		.loc 1 426 0 discriminator 3
 2479 0f2c 97F82430 		ldrb	r3, [r7, #36]	@ zero_extendqisi2
 2480 0f30 0133     		adds	r3, r3, #1
 2481 0f32 87F82430 		strb	r3, [r7, #36]
 2482              	.L103:
 426:printer.c     ****             for(uint8 x = 0; x < 32; x ++){
 2483              		.loc 1 426 0 is_stmt 0 discriminator 1
 2484 0f36 97F82430 		ldrb	r3, [r7, #36]	@ zero_extendqisi2
 2485 0f3a 1F2B     		cmp	r3, #31
 2486 0f3c EFD9     		bls	.L104
 2487              	.L100:
 2488              	.LBE44:
 428:printer.c     ****         	}
 429:printer.c     ****                 
 430:printer.c     ****         }
 431:printer.c     ****         PRINTER_A_PutChar(LINE_FEED);
 2489              		.loc 1 431 0 is_stmt 1
 2490 0f3e 2D4B     		ldr	r3, .L169+8
 2491 0f40 1B78     		ldrb	r3, [r3]	@ zero_extendqisi2
 2492 0f42 1846     		mov	r0, r3
 2493 0f44 FFF7FEFF 		bl	PRINTER_A_PutChar
 2494              	.LBB45:
 432:printer.c     ****         for(uint8 x = 0; x < 13; x ++){
ARM GAS  C:\Users\Diego\AppData\Local\Temp\ccIAJaV8.s 			page 58


 2495              		.loc 1 432 0
 2496 0f48 0023     		movs	r3, #0
 2497 0f4a 87F82330 		strb	r3, [r7, #35]
 2498 0f4e 0BE0     		b	.L105
 2499              	.L106:
 433:printer.c     ****     		PRINTER_A_PutChar(msn_venta[x]);
 2500              		.loc 1 433 0 discriminator 3
 2501 0f50 97F82330 		ldrb	r3, [r7, #35]	@ zero_extendqisi2
 2502 0f54 2B4A     		ldr	r2, .L169+24
 2503 0f56 D35C     		ldrb	r3, [r2, r3]	@ zero_extendqisi2
 2504 0f58 1846     		mov	r0, r3
 2505 0f5a FFF7FEFF 		bl	PRINTER_A_PutChar
 432:printer.c     ****         for(uint8 x = 0; x < 13; x ++){
 2506              		.loc 1 432 0 discriminator 3
 2507 0f5e 97F82330 		ldrb	r3, [r7, #35]	@ zero_extendqisi2
 2508 0f62 0133     		adds	r3, r3, #1
 2509 0f64 87F82330 		strb	r3, [r7, #35]
 2510              	.L105:
 432:printer.c     ****         for(uint8 x = 0; x < 13; x ++){
 2511              		.loc 1 432 0 is_stmt 0 discriminator 1
 2512 0f68 97F82330 		ldrb	r3, [r7, #35]	@ zero_extendqisi2
 2513 0f6c 0C2B     		cmp	r3, #12
 2514 0f6e EFD9     		bls	.L106
 2515              	.LBE45:
 434:printer.c     ****     	}
 435:printer.c     ****         if(side.b.Copy == 1){
 2516              		.loc 1 435 0 is_stmt 1
 2517 0f70 254B     		ldr	r3, .L169+28
 2518 0f72 93F86932 		ldrb	r3, [r3, #617]	@ zero_extendqisi2
 2519 0f76 012B     		cmp	r3, #1
 2520 0f78 14D1     		bne	.L107
 2521              	.LBB46:
 436:printer.c     ****            for(uint8 x = 5; x > 0; x --){
 2522              		.loc 1 436 0
 2523 0f7a 0523     		movs	r3, #5
 2524 0f7c 87F82230 		strb	r3, [r7, #34]
 2525 0f80 0BE0     		b	.L108
 2526              	.L109:
 437:printer.c     ****         		PRINTER_A_PutChar(sale_number_copy[x]);
 2527              		.loc 1 437 0 discriminator 3
 2528 0f82 97F82230 		ldrb	r3, [r7, #34]	@ zero_extendqisi2
 2529 0f86 214A     		ldr	r2, .L169+32
 2530 0f88 D35C     		ldrb	r3, [r2, r3]	@ zero_extendqisi2
 2531 0f8a 1846     		mov	r0, r3
 2532 0f8c FFF7FEFF 		bl	PRINTER_A_PutChar
 436:printer.c     ****            for(uint8 x = 5; x > 0; x --){
 2533              		.loc 1 436 0 discriminator 3
 2534 0f90 97F82230 		ldrb	r3, [r7, #34]	@ zero_extendqisi2
 2535 0f94 013B     		subs	r3, r3, #1
 2536 0f96 87F82230 		strb	r3, [r7, #34]
 2537              	.L108:
 436:printer.c     ****            for(uint8 x = 5; x > 0; x --){
 2538              		.loc 1 436 0 is_stmt 0 discriminator 1
 2539 0f9a 97F82230 		ldrb	r3, [r7, #34]	@ zero_extendqisi2
 2540 0f9e 002B     		cmp	r3, #0
 2541 0fa0 EFD1     		bne	.L109
 2542 0fa2 19E0     		b	.L110
ARM GAS  C:\Users\Diego\AppData\Local\Temp\ccIAJaV8.s 			page 59


 2543              	.L107:
 2544              	.LBE46:
 2545              	.LBB47:
 438:printer.c     ****         	} 
 439:printer.c     ****         }else{
 440:printer.c     ****             for(uint8 x = 5; x > 0; x --){
 2546              		.loc 1 440 0 is_stmt 1
 2547 0fa4 0523     		movs	r3, #5
 2548 0fa6 87F82130 		strb	r3, [r7, #33]
 2549 0faa 0BE0     		b	.L111
 2550              	.L112:
 441:printer.c     ****         		PRINTER_A_PutChar(sale_number[x]);
 2551              		.loc 1 441 0 discriminator 3
 2552 0fac 97F82130 		ldrb	r3, [r7, #33]	@ zero_extendqisi2
 2553 0fb0 174A     		ldr	r2, .L169+36
 2554 0fb2 D35C     		ldrb	r3, [r2, r3]	@ zero_extendqisi2
 2555 0fb4 1846     		mov	r0, r3
 2556 0fb6 FFF7FEFF 		bl	PRINTER_A_PutChar
 440:printer.c     ****         		PRINTER_A_PutChar(sale_number[x]);
 2557              		.loc 1 440 0 discriminator 3
 2558 0fba 97F82130 		ldrb	r3, [r7, #33]	@ zero_extendqisi2
 2559 0fbe 013B     		subs	r3, r3, #1
 2560 0fc0 87F82130 		strb	r3, [r7, #33]
 2561              	.L111:
 440:printer.c     ****         		PRINTER_A_PutChar(sale_number[x]);
 2562              		.loc 1 440 0 is_stmt 0 discriminator 1
 2563 0fc4 97F82130 		ldrb	r3, [r7, #33]	@ zero_extendqisi2
 2564 0fc8 002B     		cmp	r3, #0
 2565 0fca EFD1     		bne	.L112
 2566              	.LBE47:
 442:printer.c     ****         	}
 443:printer.c     ****             int_salenumber++;
 2567              		.loc 1 443 0 is_stmt 1
 2568 0fcc 114B     		ldr	r3, .L169+40
 2569 0fce 1B78     		ldrb	r3, [r3]	@ zero_extendqisi2
 2570 0fd0 0133     		adds	r3, r3, #1
 2571 0fd2 DAB2     		uxtb	r2, r3
 2572 0fd4 0F4B     		ldr	r3, .L169+40
 2573 0fd6 1A70     		strb	r2, [r3]
 2574              	.L110:
 444:printer.c     ****         }
 445:printer.c     ****         PRINTER_A_PutChar(LINE_FEED);
 2575              		.loc 1 445 0
 2576 0fd8 064B     		ldr	r3, .L169+8
 2577 0fda 1B78     		ldrb	r3, [r3]	@ zero_extendqisi2
 2578 0fdc 1846     		mov	r0, r3
 2579 0fde FFF7FEFF 		bl	PRINTER_A_PutChar
 2580              	.LBB48:
 446:printer.c     ****     	for(uint8 x = 0; x < 13; x ++){
 2581              		.loc 1 446 0
 2582 0fe2 0023     		movs	r3, #0
 2583 0fe4 87F82030 		strb	r3, [r7, #32]
 2584 0fe8 22E0     		b	.L113
 2585              	.L170:
 2586 0fea 00BF     		.align	2
 2587              	.L169:
 2588 0fec 00000000 		.word	msn_hora
ARM GAS  C:\Users\Diego\AppData\Local\Temp\ccIAJaV8.s 			page 60


 2589 0ff0 00000000 		.word	hour_copy
 2590 0ff4 00000000 		.word	LINE_FEED
 2591 0ff8 00000000 		.word	SEPARATOR
 2592 0ffc 00000000 		.word	msn_copy
 2593 1000 00000000 		.word	touch1
 2594 1004 00000000 		.word	msn_venta
 2595 1008 00000000 		.word	side
 2596 100c 00000000 		.word	sale_number_copy
 2597 1010 00000000 		.word	sale_number
 2598 1014 00000000 		.word	int_salenumber
 2599              	.L114:
 447:printer.c     ****     		PRINTER_A_PutChar(msn_placa[x]);
 2600              		.loc 1 447 0 discriminator 3
 2601 1018 97F82030 		ldrb	r3, [r7, #32]	@ zero_extendqisi2
 2602 101c B54A     		ldr	r2, .L171
 2603 101e D35C     		ldrb	r3, [r2, r3]	@ zero_extendqisi2
 2604 1020 1846     		mov	r0, r3
 2605 1022 FFF7FEFF 		bl	PRINTER_A_PutChar
 446:printer.c     ****     	for(uint8 x = 0; x < 13; x ++){
 2606              		.loc 1 446 0 discriminator 3
 2607 1026 97F82030 		ldrb	r3, [r7, #32]	@ zero_extendqisi2
 2608 102a 0133     		adds	r3, r3, #1
 2609 102c 87F82030 		strb	r3, [r7, #32]
 2610              	.L113:
 446:printer.c     ****     	for(uint8 x = 0; x < 13; x ++){
 2611              		.loc 1 446 0 is_stmt 0 discriminator 1
 2612 1030 97F82030 		ldrb	r3, [r7, #32]	@ zero_extendqisi2
 2613 1034 0C2B     		cmp	r3, #12
 2614 1036 EFD9     		bls	.L114
 2615              	.LBE48:
 2616              	.LBB49:
 448:printer.c     ****     	}
 449:printer.c     **** 		for(uint8 x = 0; x < 8; x ++){
 2617              		.loc 1 449 0 is_stmt 1
 2618 1038 0023     		movs	r3, #0
 2619 103a FB77     		strb	r3, [r7, #31]
 2620 103c 0AE0     		b	.L115
 2621              	.L116:
 450:printer.c     **** 			PRINTER_A_PutChar(side.b.msn_plate[x]);
 2622              		.loc 1 450 0 discriminator 3
 2623 103e FB7F     		ldrb	r3, [r7, #31]	@ zero_extendqisi2
 2624 1040 AD4A     		ldr	r2, .L171+4
 2625 1042 1344     		add	r3, r3, r2
 2626 1044 93F85832 		ldrb	r3, [r3, #600]	@ zero_extendqisi2
 2627 1048 1846     		mov	r0, r3
 2628 104a FFF7FEFF 		bl	PRINTER_A_PutChar
 449:printer.c     **** 			PRINTER_A_PutChar(side.b.msn_plate[x]);
 2629              		.loc 1 449 0 discriminator 3
 2630 104e FB7F     		ldrb	r3, [r7, #31]	@ zero_extendqisi2
 2631 1050 0133     		adds	r3, r3, #1
 2632 1052 FB77     		strb	r3, [r7, #31]
 2633              	.L115:
 449:printer.c     **** 			PRINTER_A_PutChar(side.b.msn_plate[x]);
 2634              		.loc 1 449 0 is_stmt 0 discriminator 1
 2635 1054 FB7F     		ldrb	r3, [r7, #31]	@ zero_extendqisi2
 2636 1056 072B     		cmp	r3, #7
 2637 1058 F1D9     		bls	.L116
ARM GAS  C:\Users\Diego\AppData\Local\Temp\ccIAJaV8.s 			page 61


 2638              	.LBE49:
 451:printer.c     **** 		}  
 452:printer.c     ****         PRINTER_A_PutChar(LINE_FEED);
 2639              		.loc 1 452 0 is_stmt 1
 2640 105a A84B     		ldr	r3, .L171+8
 2641 105c 1B78     		ldrb	r3, [r3]	@ zero_extendqisi2
 2642 105e 1846     		mov	r0, r3
 2643 1060 FFF7FEFF 		bl	PRINTER_A_PutChar
 2644              	.LBB50:
 453:printer.c     ****         for(uint8 x = 0; x < 13; x ++){
 2645              		.loc 1 453 0
 2646 1064 0023     		movs	r3, #0
 2647 1066 BB77     		strb	r3, [r7, #30]
 2648 1068 08E0     		b	.L117
 2649              	.L118:
 454:printer.c     **** 			PRINTER_A_PutChar(PRN_MILLEAGE[x]);
 2650              		.loc 1 454 0 discriminator 3
 2651 106a BB7F     		ldrb	r3, [r7, #30]	@ zero_extendqisi2
 2652 106c A44A     		ldr	r2, .L171+12
 2653 106e D35C     		ldrb	r3, [r2, r3]	@ zero_extendqisi2
 2654 1070 1846     		mov	r0, r3
 2655 1072 FFF7FEFF 		bl	PRINTER_A_PutChar
 453:printer.c     ****         for(uint8 x = 0; x < 13; x ++){
 2656              		.loc 1 453 0 discriminator 3
 2657 1076 BB7F     		ldrb	r3, [r7, #30]	@ zero_extendqisi2
 2658 1078 0133     		adds	r3, r3, #1
 2659 107a BB77     		strb	r3, [r7, #30]
 2660              	.L117:
 453:printer.c     ****         for(uint8 x = 0; x < 13; x ++){
 2661              		.loc 1 453 0 is_stmt 0 discriminator 1
 2662 107c BB7F     		ldrb	r3, [r7, #30]	@ zero_extendqisi2
 2663 107e 0C2B     		cmp	r3, #12
 2664 1080 F3D9     		bls	.L118
 2665              	.LBE50:
 2666              	.LBB51:
 455:printer.c     **** 		}          
 456:printer.c     ****         for(uint8 x = 0; x <6; x ++){
 2667              		.loc 1 456 0 is_stmt 1
 2668 1082 0023     		movs	r3, #0
 2669 1084 7B77     		strb	r3, [r7, #29]
 2670 1086 0AE0     		b	.L119
 2671              	.L120:
 457:printer.c     **** 			PRINTER_A_PutChar(side.b.km[x]);
 2672              		.loc 1 457 0 discriminator 3
 2673 1088 7B7F     		ldrb	r3, [r7, #29]	@ zero_extendqisi2
 2674 108a 9B4A     		ldr	r2, .L171+4
 2675 108c 1344     		add	r3, r3, r2
 2676 108e 93F86232 		ldrb	r3, [r3, #610]	@ zero_extendqisi2
 2677 1092 1846     		mov	r0, r3
 2678 1094 FFF7FEFF 		bl	PRINTER_A_PutChar
 456:printer.c     **** 			PRINTER_A_PutChar(side.b.km[x]);
 2679              		.loc 1 456 0 discriminator 3
 2680 1098 7B7F     		ldrb	r3, [r7, #29]	@ zero_extendqisi2
 2681 109a 0133     		adds	r3, r3, #1
 2682 109c 7B77     		strb	r3, [r7, #29]
 2683              	.L119:
 456:printer.c     **** 			PRINTER_A_PutChar(side.b.km[x]);
ARM GAS  C:\Users\Diego\AppData\Local\Temp\ccIAJaV8.s 			page 62


 2684              		.loc 1 456 0 is_stmt 0 discriminator 1
 2685 109e 7B7F     		ldrb	r3, [r7, #29]	@ zero_extendqisi2
 2686 10a0 052B     		cmp	r3, #5
 2687 10a2 F1D9     		bls	.L120
 2688              	.LBE51:
 458:printer.c     **** 		}          
 459:printer.c     ****         PRINTER_A_PutChar(LINE_FEED);
 2689              		.loc 1 459 0 is_stmt 1
 2690 10a4 954B     		ldr	r3, .L171+8
 2691 10a6 1B78     		ldrb	r3, [r3]	@ zero_extendqisi2
 2692 10a8 1846     		mov	r0, r3
 2693 10aa FFF7FEFF 		bl	PRINTER_A_PutChar
 2694              	.LBB52:
 460:printer.c     **** 		for(uint8 x = 0; x < 13; x ++){
 2695              		.loc 1 460 0
 2696 10ae 0023     		movs	r3, #0
 2697 10b0 3B77     		strb	r3, [r7, #28]
 2698 10b2 08E0     		b	.L121
 2699              	.L122:
 461:printer.c     **** 			PRINTER_A_PutChar(msn_pos[x]);
 2700              		.loc 1 461 0 discriminator 3
 2701 10b4 3B7F     		ldrb	r3, [r7, #28]	@ zero_extendqisi2
 2702 10b6 934A     		ldr	r2, .L171+16
 2703 10b8 D35C     		ldrb	r3, [r2, r3]	@ zero_extendqisi2
 2704 10ba 1846     		mov	r0, r3
 2705 10bc FFF7FEFF 		bl	PRINTER_A_PutChar
 460:printer.c     **** 		for(uint8 x = 0; x < 13; x ++){
 2706              		.loc 1 460 0 discriminator 3
 2707 10c0 3B7F     		ldrb	r3, [r7, #28]	@ zero_extendqisi2
 2708 10c2 0133     		adds	r3, r3, #1
 2709 10c4 3B77     		strb	r3, [r7, #28]
 2710              	.L121:
 460:printer.c     **** 		for(uint8 x = 0; x < 13; x ++){
 2711              		.loc 1 460 0 is_stmt 0 discriminator 1
 2712 10c6 3B7F     		ldrb	r3, [r7, #28]	@ zero_extendqisi2
 2713 10c8 0C2B     		cmp	r3, #12
 2714 10ca F3D9     		bls	.L122
 2715              	.LBE52:
 462:printer.c     **** 		}
 463:printer.c     **** 		PRINTER_A_PutChar((side.b.dir)+ 0x31);
 2716              		.loc 1 463 0 is_stmt 1
 2717 10cc 8A4B     		ldr	r3, .L171+4
 2718 10ce 93F83531 		ldrb	r3, [r3, #309]	@ zero_extendqisi2
 2719 10d2 3133     		adds	r3, r3, #49
 2720 10d4 DBB2     		uxtb	r3, r3
 2721 10d6 1846     		mov	r0, r3
 2722 10d8 FFF7FEFF 		bl	PRINTER_A_PutChar
 464:printer.c     **** 		PRINTER_A_PutChar(LINE_FEED);
 2723              		.loc 1 464 0
 2724 10dc 874B     		ldr	r3, .L171+8
 2725 10de 1B78     		ldrb	r3, [r3]	@ zero_extendqisi2
 2726 10e0 1846     		mov	r0, r3
 2727 10e2 FFF7FEFF 		bl	PRINTER_A_PutChar
 2728              	.LBB53:
 465:printer.c     **** 		for(uint8 x = 0; x < 13; x ++){
 2729              		.loc 1 465 0
 2730 10e6 0023     		movs	r3, #0
ARM GAS  C:\Users\Diego\AppData\Local\Temp\ccIAJaV8.s 			page 63


 2731 10e8 FB76     		strb	r3, [r7, #27]
 2732 10ea 08E0     		b	.L123
 2733              	.L124:
 466:printer.c     **** 			PRINTER_A_PutChar(msn_product[x]);
 2734              		.loc 1 466 0 discriminator 3
 2735 10ec FB7E     		ldrb	r3, [r7, #27]	@ zero_extendqisi2
 2736 10ee 864A     		ldr	r2, .L171+20
 2737 10f0 D35C     		ldrb	r3, [r2, r3]	@ zero_extendqisi2
 2738 10f2 1846     		mov	r0, r3
 2739 10f4 FFF7FEFF 		bl	PRINTER_A_PutChar
 465:printer.c     **** 		for(uint8 x = 0; x < 13; x ++){
 2740              		.loc 1 465 0 discriminator 3
 2741 10f8 FB7E     		ldrb	r3, [r7, #27]	@ zero_extendqisi2
 2742 10fa 0133     		adds	r3, r3, #1
 2743 10fc FB76     		strb	r3, [r7, #27]
 2744              	.L123:
 465:printer.c     **** 		for(uint8 x = 0; x < 13; x ++){
 2745              		.loc 1 465 0 is_stmt 0 discriminator 1
 2746 10fe FB7E     		ldrb	r3, [r7, #27]	@ zero_extendqisi2
 2747 1100 0C2B     		cmp	r3, #12
 2748 1102 F3D9     		bls	.L124
 2749              	.LBE53:
 467:printer.c     **** 		}
 468:printer.c     **** 		if(side.b.Nozzle == 0x01){
 2750              		.loc 1 468 0 is_stmt 1
 2751 1104 7C4B     		ldr	r3, .L171+4
 2752 1106 93F86132 		ldrb	r3, [r3, #609]	@ zero_extendqisi2
 2753 110a 012B     		cmp	r3, #1
 2754 110c 0ED1     		bne	.L125
 2755              	.LBB54:
 469:printer.c     ****     		for(uint8 x = 0; x < 9; x ++){
 2756              		.loc 1 469 0
 2757 110e 0023     		movs	r3, #0
 2758 1110 BB76     		strb	r3, [r7, #26]
 2759 1112 08E0     		b	.L126
 2760              	.L127:
 470:printer.c     ****                 PRINTER_A_PutChar(msn_gasoline[x]);    			
 2761              		.loc 1 470 0 discriminator 3
 2762 1114 BB7E     		ldrb	r3, [r7, #26]	@ zero_extendqisi2
 2763 1116 7D4A     		ldr	r2, .L171+24
 2764 1118 D35C     		ldrb	r3, [r2, r3]	@ zero_extendqisi2
 2765 111a 1846     		mov	r0, r3
 2766 111c FFF7FEFF 		bl	PRINTER_A_PutChar
 469:printer.c     ****     		for(uint8 x = 0; x < 9; x ++){
 2767              		.loc 1 469 0 discriminator 3
 2768 1120 BB7E     		ldrb	r3, [r7, #26]	@ zero_extendqisi2
 2769 1122 0133     		adds	r3, r3, #1
 2770 1124 BB76     		strb	r3, [r7, #26]
 2771              	.L126:
 469:printer.c     ****     		for(uint8 x = 0; x < 9; x ++){
 2772              		.loc 1 469 0 is_stmt 0 discriminator 1
 2773 1126 BB7E     		ldrb	r3, [r7, #26]	@ zero_extendqisi2
 2774 1128 082B     		cmp	r3, #8
 2775 112a F3D9     		bls	.L127
 2776              	.L125:
 2777              	.LBE54:
 471:printer.c     ****     		}
ARM GAS  C:\Users\Diego\AppData\Local\Temp\ccIAJaV8.s 			page 64


 472:printer.c     ****         }
 473:printer.c     ****         if(side.b.Nozzle == 0x02){
 2778              		.loc 1 473 0 is_stmt 1
 2779 112c 724B     		ldr	r3, .L171+4
 2780 112e 93F86132 		ldrb	r3, [r3, #609]	@ zero_extendqisi2
 2781 1132 022B     		cmp	r3, #2
 2782 1134 0ED1     		bne	.L128
 2783              	.LBB55:
 474:printer.c     ****             for(uint8 x = 0; x < 9; x ++){    			
 2784              		.loc 1 474 0
 2785 1136 0023     		movs	r3, #0
 2786 1138 7B76     		strb	r3, [r7, #25]
 2787 113a 08E0     		b	.L129
 2788              	.L130:
 475:printer.c     ****                 PRINTER_A_PutChar(msn_diesel[x]);  
 2789              		.loc 1 475 0 discriminator 3
 2790 113c 7B7E     		ldrb	r3, [r7, #25]	@ zero_extendqisi2
 2791 113e 744A     		ldr	r2, .L171+28
 2792 1140 D35C     		ldrb	r3, [r2, r3]	@ zero_extendqisi2
 2793 1142 1846     		mov	r0, r3
 2794 1144 FFF7FEFF 		bl	PRINTER_A_PutChar
 474:printer.c     ****             for(uint8 x = 0; x < 9; x ++){    			
 2795              		.loc 1 474 0 discriminator 3
 2796 1148 7B7E     		ldrb	r3, [r7, #25]	@ zero_extendqisi2
 2797 114a 0133     		adds	r3, r3, #1
 2798 114c 7B76     		strb	r3, [r7, #25]
 2799              	.L129:
 474:printer.c     ****             for(uint8 x = 0; x < 9; x ++){    			
 2800              		.loc 1 474 0 is_stmt 0 discriminator 1
 2801 114e 7B7E     		ldrb	r3, [r7, #25]	@ zero_extendqisi2
 2802 1150 082B     		cmp	r3, #8
 2803 1152 F3D9     		bls	.L130
 2804              	.L128:
 2805              	.LBE55:
 476:printer.c     ****     		}
 477:printer.c     ****         }
 478:printer.c     ****         if(side.b.Nozzle == 0x03){
 2806              		.loc 1 478 0 is_stmt 1
 2807 1154 684B     		ldr	r3, .L171+4
 2808 1156 93F86132 		ldrb	r3, [r3, #609]	@ zero_extendqisi2
 2809 115a 032B     		cmp	r3, #3
 2810 115c 0ED1     		bne	.L131
 2811              	.LBB56:
 479:printer.c     ****             for(uint8 x = 0; x < 9; x ++){
 2812              		.loc 1 479 0
 2813 115e 0023     		movs	r3, #0
 2814 1160 3B76     		strb	r3, [r7, #24]
 2815 1162 08E0     		b	.L132
 2816              	.L133:
 480:printer.c     ****     			PRINTER_A_PutChar(msn_extra[x]);
 2817              		.loc 1 480 0 discriminator 3
 2818 1164 3B7E     		ldrb	r3, [r7, #24]	@ zero_extendqisi2
 2819 1166 6B4A     		ldr	r2, .L171+32
 2820 1168 D35C     		ldrb	r3, [r2, r3]	@ zero_extendqisi2
 2821 116a 1846     		mov	r0, r3
 2822 116c FFF7FEFF 		bl	PRINTER_A_PutChar
 479:printer.c     ****             for(uint8 x = 0; x < 9; x ++){
ARM GAS  C:\Users\Diego\AppData\Local\Temp\ccIAJaV8.s 			page 65


 2823              		.loc 1 479 0 discriminator 3
 2824 1170 3B7E     		ldrb	r3, [r7, #24]	@ zero_extendqisi2
 2825 1172 0133     		adds	r3, r3, #1
 2826 1174 3B76     		strb	r3, [r7, #24]
 2827              	.L132:
 479:printer.c     ****             for(uint8 x = 0; x < 9; x ++){
 2828              		.loc 1 479 0 is_stmt 0 discriminator 1
 2829 1176 3B7E     		ldrb	r3, [r7, #24]	@ zero_extendqisi2
 2830 1178 082B     		cmp	r3, #8
 2831 117a F3D9     		bls	.L133
 2832              	.L131:
 2833              	.LBE56:
 481:printer.c     ****     		}
 482:printer.c     ****         }
 483:printer.c     ****         PRINTER_A_PutChar(LINE_FEED); 	
 2834              		.loc 1 483 0 is_stmt 1
 2835 117c 5F4B     		ldr	r3, .L171+8
 2836 117e 1B78     		ldrb	r3, [r3]	@ zero_extendqisi2
 2837 1180 1846     		mov	r0, r3
 2838 1182 FFF7FEFF 		bl	PRINTER_A_PutChar
 2839              	.LBB57:
 484:printer.c     **** 		for(uint8 x = 0; x < 13; x ++){
 2840              		.loc 1 484 0
 2841 1186 0023     		movs	r3, #0
 2842 1188 FB75     		strb	r3, [r7, #23]
 2843 118a 08E0     		b	.L134
 2844              	.L135:
 485:printer.c     **** 			PRINTER_A_PutChar(msn_ppu[x]);
 2845              		.loc 1 485 0 discriminator 3
 2846 118c FB7D     		ldrb	r3, [r7, #23]	@ zero_extendqisi2
 2847 118e 624A     		ldr	r2, .L171+36
 2848 1190 D35C     		ldrb	r3, [r2, r3]	@ zero_extendqisi2
 2849 1192 1846     		mov	r0, r3
 2850 1194 FFF7FEFF 		bl	PRINTER_A_PutChar
 484:printer.c     **** 		for(uint8 x = 0; x < 13; x ++){
 2851              		.loc 1 484 0 discriminator 3
 2852 1198 FB7D     		ldrb	r3, [r7, #23]	@ zero_extendqisi2
 2853 119a 0133     		adds	r3, r3, #1
 2854 119c FB75     		strb	r3, [r7, #23]
 2855              	.L134:
 484:printer.c     **** 		for(uint8 x = 0; x < 13; x ++){
 2856              		.loc 1 484 0 is_stmt 0 discriminator 1
 2857 119e FB7D     		ldrb	r3, [r7, #23]	@ zero_extendqisi2
 2858 11a0 0C2B     		cmp	r3, #12
 2859 11a2 F3D9     		bls	.L135
 2860              	.LBE57:
 486:printer.c     **** 		}
 487:printer.c     **** 		PRINTER_A_PutChar(PRN_CURRENCY[0]);  
 2861              		.loc 1 487 0 is_stmt 1
 2862 11a4 5D4B     		ldr	r3, .L171+40
 2863 11a6 1B78     		ldrb	r3, [r3]	@ zero_extendqisi2
 2864 11a8 1846     		mov	r0, r3
 2865 11aa FFF7FEFF 		bl	PRINTER_A_PutChar
 488:printer.c     **** 		PRINTER_A_PutChar(' ');
 2866              		.loc 1 488 0
 2867 11ae 2020     		movs	r0, #32
 2868 11b0 FFF7FEFF 		bl	PRINTER_A_PutChar
ARM GAS  C:\Users\Diego\AppData\Local\Temp\ccIAJaV8.s 			page 66


 2869              	.LBB58:
 489:printer.c     **** 		for(uint8 x = 1; x < 6; x ++){
 2870              		.loc 1 489 0
 2871 11b4 0123     		movs	r3, #1
 2872 11b6 BB75     		strb	r3, [r7, #22]
 2873 11b8 14E0     		b	.L136
 2874              	.L137:
 490:printer.c     **** 			PRINTER_A_PutChar(side.b.ProcessedPPU[side.b.Nozzle-1][x]);//side.b.Nozzle - 1
 2875              		.loc 1 490 0 discriminator 3
 2876 11ba 4F4B     		ldr	r3, .L171+4
 2877 11bc 93F86132 		ldrb	r3, [r3, #609]	@ zero_extendqisi2
 2878 11c0 5A1E     		subs	r2, r3, #1
 2879 11c2 B97D     		ldrb	r1, [r7, #22]	@ zero_extendqisi2
 2880 11c4 4C48     		ldr	r0, .L171+4
 2881 11c6 1346     		mov	r3, r2
 2882 11c8 5B00     		lsls	r3, r3, #1
 2883 11ca 1344     		add	r3, r3, r2
 2884 11cc 5B00     		lsls	r3, r3, #1
 2885 11ce 0344     		add	r3, r3, r0
 2886 11d0 0B44     		add	r3, r3, r1
 2887 11d2 03F51073 		add	r3, r3, #576
 2888 11d6 1B78     		ldrb	r3, [r3]	@ zero_extendqisi2
 2889 11d8 1846     		mov	r0, r3
 2890 11da FFF7FEFF 		bl	PRINTER_A_PutChar
 489:printer.c     **** 		for(uint8 x = 1; x < 6; x ++){
 2891              		.loc 1 489 0 discriminator 3
 2892 11de BB7D     		ldrb	r3, [r7, #22]	@ zero_extendqisi2
 2893 11e0 0133     		adds	r3, r3, #1
 2894 11e2 BB75     		strb	r3, [r7, #22]
 2895              	.L136:
 489:printer.c     **** 		for(uint8 x = 1; x < 6; x ++){
 2896              		.loc 1 489 0 is_stmt 0 discriminator 1
 2897 11e4 BB7D     		ldrb	r3, [r7, #22]	@ zero_extendqisi2
 2898 11e6 052B     		cmp	r3, #5
 2899 11e8 E7D9     		bls	.L137
 2900              	.LBE58:
 491:printer.c     **** 		}
 492:printer.c     ****         PRINTER_A_PutChar(LINE_FEED);
 2901              		.loc 1 492 0 is_stmt 1
 2902 11ea 444B     		ldr	r3, .L171+8
 2903 11ec 1B78     		ldrb	r3, [r3]	@ zero_extendqisi2
 2904 11ee 1846     		mov	r0, r3
 2905 11f0 FFF7FEFF 		bl	PRINTER_A_PutChar
 2906              	.LBB59:
 493:printer.c     **** 		for(uint8 x = 0; x < 13; x ++){
 2907              		.loc 1 493 0
 2908 11f4 0023     		movs	r3, #0
 2909 11f6 7B75     		strb	r3, [r7, #21]
 2910 11f8 08E0     		b	.L138
 2911              	.L139:
 494:printer.c     **** 			PRINTER_A_PutChar(msn_vol[x]);
 2912              		.loc 1 494 0 discriminator 3
 2913 11fa 7B7D     		ldrb	r3, [r7, #21]	@ zero_extendqisi2
 2914 11fc 484A     		ldr	r2, .L171+44
 2915 11fe D35C     		ldrb	r3, [r2, r3]	@ zero_extendqisi2
 2916 1200 1846     		mov	r0, r3
 2917 1202 FFF7FEFF 		bl	PRINTER_A_PutChar
ARM GAS  C:\Users\Diego\AppData\Local\Temp\ccIAJaV8.s 			page 67


 493:printer.c     **** 		for(uint8 x = 0; x < 13; x ++){
 2918              		.loc 1 493 0 discriminator 3
 2919 1206 7B7D     		ldrb	r3, [r7, #21]	@ zero_extendqisi2
 2920 1208 0133     		adds	r3, r3, #1
 2921 120a 7B75     		strb	r3, [r7, #21]
 2922              	.L138:
 493:printer.c     **** 		for(uint8 x = 0; x < 13; x ++){
 2923              		.loc 1 493 0 is_stmt 0 discriminator 1
 2924 120c 7B7D     		ldrb	r3, [r7, #21]	@ zero_extendqisi2
 2925 120e 0C2B     		cmp	r3, #12
 2926 1210 F3D9     		bls	.L139
 2927              	.LBE59:
 2928              	.LBB60:
 495:printer.c     **** 		}
 496:printer.c     **** 		for(uint8 x = 0; x < 8; x ++){
 2929              		.loc 1 496 0 is_stmt 1
 2930 1212 0023     		movs	r3, #0
 2931 1214 3B75     		strb	r3, [r7, #20]
 2932 1216 14E0     		b	.L140
 2933              	.L142:
 497:printer.c     **** 			if((8-x) == DecVol)
 2934              		.loc 1 497 0
 2935 1218 3B7D     		ldrb	r3, [r7, #20]	@ zero_extendqisi2
 2936 121a C3F10803 		rsb	r3, r3, #8
 2937 121e 414A     		ldr	r2, .L171+48
 2938 1220 1278     		ldrb	r2, [r2]	@ zero_extendqisi2
 2939 1222 9342     		cmp	r3, r2
 2940 1224 02D1     		bne	.L141
 498:printer.c     **** 				PRINTER_A_PutChar('.');
 2941              		.loc 1 498 0
 2942 1226 2E20     		movs	r0, #46
 2943 1228 FFF7FEFF 		bl	PRINTER_A_PutChar
 2944              	.L141:
 499:printer.c     **** 			PRINTER_A_PutChar(side.b.ProcessedvolumeSale[x]);        
 2945              		.loc 1 499 0 discriminator 2
 2946 122c 3B7D     		ldrb	r3, [r7, #20]	@ zero_extendqisi2
 2947 122e 324A     		ldr	r2, .L171+4
 2948 1230 1344     		add	r3, r3, r2
 2949 1232 93F83832 		ldrb	r3, [r3, #568]	@ zero_extendqisi2
 2950 1236 1846     		mov	r0, r3
 2951 1238 FFF7FEFF 		bl	PRINTER_A_PutChar
 496:printer.c     **** 			if((8-x) == DecVol)
 2952              		.loc 1 496 0 discriminator 2
 2953 123c 3B7D     		ldrb	r3, [r7, #20]	@ zero_extendqisi2
 2954 123e 0133     		adds	r3, r3, #1
 2955 1240 3B75     		strb	r3, [r7, #20]
 2956              	.L140:
 496:printer.c     **** 			if((8-x) == DecVol)
 2957              		.loc 1 496 0 is_stmt 0 discriminator 1
 2958 1242 3B7D     		ldrb	r3, [r7, #20]	@ zero_extendqisi2
 2959 1244 072B     		cmp	r3, #7
 2960 1246 E7D9     		bls	.L142
 2961              	.LBE60:
 500:printer.c     **** 		}
 501:printer.c     **** 		PRINTER_A_PutChar(' ');
 2962              		.loc 1 501 0 is_stmt 1
 2963 1248 2020     		movs	r0, #32
ARM GAS  C:\Users\Diego\AppData\Local\Temp\ccIAJaV8.s 			page 68


 2964 124a FFF7FEFF 		bl	PRINTER_A_PutChar
 502:printer.c     **** 		PRINTER_A_PutChar(VolSimbol[0]);
 2965              		.loc 1 502 0
 2966 124e 364B     		ldr	r3, .L171+52
 2967 1250 1B78     		ldrb	r3, [r3]	@ zero_extendqisi2
 2968 1252 1846     		mov	r0, r3
 2969 1254 FFF7FEFF 		bl	PRINTER_A_PutChar
 503:printer.c     **** 		PRINTER_A_PutChar(LINE_FEED); 
 2970              		.loc 1 503 0
 2971 1258 284B     		ldr	r3, .L171+8
 2972 125a 1B78     		ldrb	r3, [r3]	@ zero_extendqisi2
 2973 125c 1846     		mov	r0, r3
 2974 125e FFF7FEFF 		bl	PRINTER_A_PutChar
 2975              	.LBB61:
 504:printer.c     **** 		for(uint8 x = 0; x < 13; x ++){
 2976              		.loc 1 504 0
 2977 1262 0023     		movs	r3, #0
 2978 1264 FB74     		strb	r3, [r7, #19]
 2979 1266 08E0     		b	.L143
 2980              	.L144:
 505:printer.c     **** 			PRINTER_A_PutChar(msn_din[x]);
 2981              		.loc 1 505 0 discriminator 3
 2982 1268 FB7C     		ldrb	r3, [r7, #19]	@ zero_extendqisi2
 2983 126a 304A     		ldr	r2, .L171+56
 2984 126c D35C     		ldrb	r3, [r2, r3]	@ zero_extendqisi2
 2985 126e 1846     		mov	r0, r3
 2986 1270 FFF7FEFF 		bl	PRINTER_A_PutChar
 504:printer.c     **** 		for(uint8 x = 0; x < 13; x ++){
 2987              		.loc 1 504 0 discriminator 3
 2988 1274 FB7C     		ldrb	r3, [r7, #19]	@ zero_extendqisi2
 2989 1276 0133     		adds	r3, r3, #1
 2990 1278 FB74     		strb	r3, [r7, #19]
 2991              	.L143:
 504:printer.c     **** 		for(uint8 x = 0; x < 13; x ++){
 2992              		.loc 1 504 0 is_stmt 0 discriminator 1
 2993 127a FB7C     		ldrb	r3, [r7, #19]	@ zero_extendqisi2
 2994 127c 0C2B     		cmp	r3, #12
 2995 127e F3D9     		bls	.L144
 2996              	.LBE61:
 506:printer.c     **** 		}     
 507:printer.c     **** 		PRINTER_A_PutChar(PRN_CURRENCY[0]);  
 2997              		.loc 1 507 0 is_stmt 1
 2998 1280 264B     		ldr	r3, .L171+40
 2999 1282 1B78     		ldrb	r3, [r3]	@ zero_extendqisi2
 3000 1284 1846     		mov	r0, r3
 3001 1286 FFF7FEFF 		bl	PRINTER_A_PutChar
 508:printer.c     **** 		PRINTER_A_PutChar(' ');
 3002              		.loc 1 508 0
 3003 128a 2020     		movs	r0, #32
 3004 128c FFF7FEFF 		bl	PRINTER_A_PutChar
 3005              	.LBB62:
 509:printer.c     **** 		for(uint8 x = 0; x < 7; x ++){
 3006              		.loc 1 509 0
 3007 1290 0023     		movs	r3, #0
 3008 1292 BB74     		strb	r3, [r7, #18]
 3009 1294 0AE0     		b	.L145
 3010              	.L146:
ARM GAS  C:\Users\Diego\AppData\Local\Temp\ccIAJaV8.s 			page 69


 510:printer.c     **** 			PRINTER_A_PutChar(side.b.ProcessedmoneySale[x]);
 3011              		.loc 1 510 0 discriminator 3
 3012 1296 BB7C     		ldrb	r3, [r7, #18]	@ zero_extendqisi2
 3013 1298 174A     		ldr	r2, .L171+4
 3014 129a 1344     		add	r3, r3, r2
 3015 129c 93F83032 		ldrb	r3, [r3, #560]	@ zero_extendqisi2
 3016 12a0 1846     		mov	r0, r3
 3017 12a2 FFF7FEFF 		bl	PRINTER_A_PutChar
 509:printer.c     **** 		for(uint8 x = 0; x < 7; x ++){
 3018              		.loc 1 509 0 discriminator 3
 3019 12a6 BB7C     		ldrb	r3, [r7, #18]	@ zero_extendqisi2
 3020 12a8 0133     		adds	r3, r3, #1
 3021 12aa BB74     		strb	r3, [r7, #18]
 3022              	.L145:
 509:printer.c     **** 		for(uint8 x = 0; x < 7; x ++){
 3023              		.loc 1 509 0 is_stmt 0 discriminator 1
 3024 12ac BB7C     		ldrb	r3, [r7, #18]	@ zero_extendqisi2
 3025 12ae 062B     		cmp	r3, #6
 3026 12b0 F1D9     		bls	.L146
 3027              	.LBE62:
 511:printer.c     **** 		}		
 512:printer.c     **** 		PRINTER_A_PutChar(LINE_FEED);
 3028              		.loc 1 512 0 is_stmt 1
 3029 12b2 124B     		ldr	r3, .L171+8
 3030 12b4 1B78     		ldrb	r3, [r3]	@ zero_extendqisi2
 3031 12b6 1846     		mov	r0, r3
 3032 12b8 FFF7FEFF 		bl	PRINTER_A_PutChar
 513:printer.c     ****         side.b.Copy = 1;
 3033              		.loc 1 513 0
 3034 12bc 0E4B     		ldr	r3, .L171+4
 3035 12be 0122     		movs	r2, #1
 3036 12c0 83F86922 		strb	r2, [r3, #617]
 3037              	.L90:
 3038              	.LBB63:
 514:printer.c     **** 	}
 515:printer.c     **** 
 516:printer.c     **** 	
 517:printer.c     **** //    if(address == side.c.dir){
 518:printer.c     **** //        if(side.c.Copy == 1){
 519:printer.c     **** //            for(uint8 x = 0; x < 32; x ++){
 520:printer.c     **** //        		PRINTER_A_PutChar(msn_copy[x]);
 521:printer.c     **** //        	}
 522:printer.c     **** //            PRINTER_A_PutChar(LINE_FEED);
 523:printer.c     **** //            for(uint8 x = 0; x < 32; x ++){
 524:printer.c     **** //        		PRINTER_A_PutChar(SEPARATOR[x]);
 525:printer.c     **** //        	}            
 526:printer.c     **** //        }
 527:printer.c     **** //        PRINTER_A_PutChar(LINE_FEED);
 528:printer.c     **** //        for(uint8 x = 0; x < 13; x ++){
 529:printer.c     **** //    		PRINTER_A_PutChar(msn_venta[x]);
 530:printer.c     **** //    	}
 531:printer.c     **** //        if(side.c.Copy == 1){
 532:printer.c     **** //           for(uint8 x = 5; x > 0; x --){
 533:printer.c     **** //        		PRINTER_A_PutChar(sale_number_copy[x]);
 534:printer.c     **** //        	} 
 535:printer.c     **** //        }else{
 536:printer.c     **** //            for(uint8 x = 5; x > 0; x --){
ARM GAS  C:\Users\Diego\AppData\Local\Temp\ccIAJaV8.s 			page 70


 537:printer.c     **** //        		PRINTER_A_PutChar(sale_number[x]);
 538:printer.c     **** //        	}
 539:printer.c     **** //            int_salenumber++;
 540:printer.c     **** //        }
 541:printer.c     **** //        PRINTER_A_PutChar(LINE_FEED);
 542:printer.c     **** //    	for(uint8 x = 0; x < 13; x ++){
 543:printer.c     **** //    		PRINTER_A_PutChar(msn_placa[x]);
 544:printer.c     **** //    	}
 545:printer.c     **** //		for(uint8 x = 0; x < 8; x ++){
 546:printer.c     **** //			PRINTER_A_PutChar(side.c.msn_plate[x]);
 547:printer.c     **** //		}  
 548:printer.c     **** //        PRINTER_A_PutChar(LINE_FEED);
 549:printer.c     **** //        for(uint8 x = 0; x < 13; x ++){
 550:printer.c     **** //			PRINTER_A_PutChar(PRN_MILLEAGE[x]);
 551:printer.c     **** //		}          
 552:printer.c     **** //        for(uint8 x = 0; x <6; x ++){
 553:printer.c     **** //			PRINTER_A_PutChar(side.c.km[x]);
 554:printer.c     **** //		}  
 555:printer.c     **** //        PRINTER_A_PutChar(LINE_FEED);
 556:printer.c     **** //		for(uint8 x = 0; x < 13; x ++){
 557:printer.c     **** //			PRINTER_A_PutChar(msn_pos[x]);
 558:printer.c     **** //		}
 559:printer.c     **** //		PRINTER_A_PutChar((side.c.dir)+ 0x31);
 560:printer.c     **** //		PRINTER_A_PutChar(LINE_FEED);
 561:printer.c     **** //		for(uint8 x = 0; x < 13; x ++){
 562:printer.c     **** //			PRINTER_A_PutChar(msn_product[x]);
 563:printer.c     **** //		}
 564:printer.c     **** //        
 565:printer.c     **** //		for(uint8 x = 0; x < 9; x ++){
 566:printer.c     **** //			PRINTER_A_PutChar(msn_diesel[x]);
 567:printer.c     **** //		}
 568:printer.c     **** //        
 569:printer.c     **** //        PRINTER_A_PutChar(LINE_FEED); 	
 570:printer.c     **** //		for(uint8 x = 0; x < 13; x ++){
 571:printer.c     **** //			PRINTER_A_PutChar(msn_ppu[x]);
 572:printer.c     **** //		}
 573:printer.c     **** //		PRINTER_A_PutChar(PRN_CURRENCY[0]);  
 574:printer.c     **** //		PRINTER_A_PutChar(' ');
 575:printer.c     **** //		for(uint8 x = 1; x < 6; x ++){
 576:printer.c     **** //			PRINTER_A_PutChar(side.c.ProcessedPPU[side.c.Nozzle-1][x]);
 577:printer.c     **** //		}
 578:printer.c     **** //        PRINTER_A_PutChar(LINE_FEED);
 579:printer.c     **** //		for(uint8 x = 0; x < 13; x ++){
 580:printer.c     **** //			PRINTER_A_PutChar(msn_vol[x]);
 581:printer.c     **** //		}
 582:printer.c     **** //		for(uint8 x = 0; x < 8; x ++){
 583:printer.c     **** //			if((8-x) == DecVol)
 584:printer.c     **** //				PRINTER_A_PutChar('.');
 585:printer.c     **** //			PRINTER_A_PutChar(side.c.ProcessedvolumeSale[x]);        
 586:printer.c     **** //		}
 587:printer.c     **** //		PRINTER_A_PutChar(' ');
 588:printer.c     **** //		PRINTER_A_PutChar(VolSimbol[0]);
 589:printer.c     **** //		PRINTER_A_PutChar(LINE_FEED); 
 590:printer.c     **** //		for(uint8 x = 0; x < 13; x ++){
 591:printer.c     **** //			PRINTER_A_PutChar(msn_din[x]);
 592:printer.c     **** //		}     
 593:printer.c     **** //		PRINTER_A_PutChar(PRN_CURRENCY[0]);  
ARM GAS  C:\Users\Diego\AppData\Local\Temp\ccIAJaV8.s 			page 71


 594:printer.c     **** //		PRINTER_A_PutChar(' ');
 595:printer.c     **** //		for(uint8 x = 0; x < 8; x ++){
 596:printer.c     **** //			PRINTER_A_PutChar(side.c.ProcessedmoneySale[x]);
 597:printer.c     **** //		}		
 598:printer.c     **** //		PRINTER_A_PutChar(LINE_FEED);
 599:printer.c     **** //        side.c.Copy = 1;
 600:printer.c     **** //	}
 601:printer.c     **** //	
 602:printer.c     **** //    if(address == side.d.dir){
 603:printer.c     **** //        if(side.d.Copy == 1){
 604:printer.c     **** //            for(uint8 x = 0; x < 32; x ++){
 605:printer.c     **** //        		PRINTER_A_PutChar(msn_copy[x]);
 606:printer.c     **** //        	}
 607:printer.c     **** //            PRINTER_A_PutChar(LINE_FEED);
 608:printer.c     **** //            for(uint8 x = 0; x < 32; x ++){
 609:printer.c     **** //        		PRINTER_A_PutChar(SEPARATOR[x]);
 610:printer.c     **** //        	}            
 611:printer.c     **** //        }
 612:printer.c     **** //        PRINTER_A_PutChar(LINE_FEED);
 613:printer.c     **** //        for(uint8 x = 0; x < 13; x ++){
 614:printer.c     **** //    		PRINTER_A_PutChar(msn_venta[x]);
 615:printer.c     **** //    	}
 616:printer.c     **** //        if(side.d.Copy == 1){
 617:printer.c     **** //           for(uint8 x = 5; x > 0; x --){
 618:printer.c     **** //        		PRINTER_A_PutChar(sale_number_copy[x]);
 619:printer.c     **** //        	} 
 620:printer.c     **** //        }else{
 621:printer.c     **** //            for(uint8 x = 5; x > 0; x --){
 622:printer.c     **** //        		PRINTER_A_PutChar(sale_number[x]);
 623:printer.c     **** //        	}
 624:printer.c     **** //            int_salenumber++;
 625:printer.c     **** //        }
 626:printer.c     **** //        PRINTER_A_PutChar(LINE_FEED);
 627:printer.c     **** //    	for(uint8 x = 0; x < 13; x ++){
 628:printer.c     **** //    		PRINTER_A_PutChar(msn_placa[x]);
 629:printer.c     **** //    	}
 630:printer.c     **** //		for(uint8 x = 0; x < 8; x ++){
 631:printer.c     **** //			PRINTER_A_PutChar(side.d.msn_plate[x]);
 632:printer.c     **** //		}  
 633:printer.c     **** //        PRINTER_A_PutChar(LINE_FEED);
 634:printer.c     **** //        for(uint8 x = 0; x < 13; x ++){
 635:printer.c     **** //			PRINTER_A_PutChar(PRN_MILLEAGE[x]);
 636:printer.c     **** //		}          
 637:printer.c     **** //        for(uint8 x = 0; x <6; x ++){
 638:printer.c     **** //			PRINTER_A_PutChar(side.d.km[x]);
 639:printer.c     **** //		}  
 640:printer.c     **** //        PRINTER_A_PutChar(LINE_FEED);
 641:printer.c     **** //		for(uint8 x = 0; x < 13; x ++){
 642:printer.c     **** //			PRINTER_A_PutChar(msn_pos[x]);
 643:printer.c     **** //		}
 644:printer.c     **** //		PRINTER_A_PutChar((side.d.dir)+ 0x31);
 645:printer.c     **** //		PRINTER_A_PutChar(LINE_FEED);
 646:printer.c     **** //		for(uint8 x = 0; x < 13; x ++){
 647:printer.c     **** //			PRINTER_A_PutChar(msn_product[x]);
 648:printer.c     **** //		}        
 649:printer.c     **** //        for(uint8 x = 0; x < 9; x ++){
 650:printer.c     **** //			PRINTER_A_PutChar(msn_gasoline[x]);
ARM GAS  C:\Users\Diego\AppData\Local\Temp\ccIAJaV8.s 			page 72


 651:printer.c     **** //		}        
 652:printer.c     **** //        PRINTER_A_PutChar(LINE_FEED); 	
 653:printer.c     **** //		for(uint8 x = 0; x < 13; x ++){
 654:printer.c     **** //			PRINTER_A_PutChar(msn_ppu[x]);
 655:printer.c     **** //		}
 656:printer.c     **** //		PRINTER_A_PutChar(PRN_CURRENCY[0]);  
 657:printer.c     **** //		PRINTER_A_PutChar(' ');
 658:printer.c     **** //		for(uint8 x = 1; x < 6; x ++){
 659:printer.c     **** //			PRINTER_A_PutChar(side.d.ProcessedPPU[side.d.Nozzle-1][x]);
 660:printer.c     **** //		}
 661:printer.c     **** //        PRINTER_A_PutChar(LINE_FEED);
 662:printer.c     **** //		for(uint8 x = 0; x < 13; x ++){
 663:printer.c     **** //			PRINTER_A_PutChar(msn_vol[x]);
 664:printer.c     **** //		}
 665:printer.c     **** //		for(uint8 x = 0; x < 8; x ++){
 666:printer.c     **** //			if((8-x) == DecVol)
 667:printer.c     **** //				PRINTER_A_PutChar('.');
 668:printer.c     **** //			PRINTER_A_PutChar(side.d.ProcessedvolumeSale[x]);        
 669:printer.c     **** //		}
 670:printer.c     **** //		PRINTER_A_PutChar(' ');
 671:printer.c     **** //		PRINTER_A_PutChar(VolSimbol[0]);
 672:printer.c     **** //		PRINTER_A_PutChar(LINE_FEED); 
 673:printer.c     **** //		for(uint8 x = 0; x < 13; x ++){
 674:printer.c     **** //			PRINTER_A_PutChar(msn_din[x]);
 675:printer.c     **** //		}     
 676:printer.c     **** //		PRINTER_A_PutChar(PRN_CURRENCY[0]);  
 677:printer.c     **** //		PRINTER_A_PutChar(' ');
 678:printer.c     **** //		for(uint8 x = 0; x < 8; x ++){
 679:printer.c     **** //			PRINTER_A_PutChar(side.d.ProcessedmoneySale[x]);
 680:printer.c     **** //		}		
 681:printer.c     **** //		PRINTER_A_PutChar(LINE_FEED);
 682:printer.c     **** //        side.d.Copy = 1;
 683:printer.c     **** //	}
 684:printer.c     **** 	
 685:printer.c     **** 
 686:printer.c     **** 	/******FOOTER*****/
 687:printer.c     **** 	for(uint8 x = 0; x < 32; x ++){
 3039              		.loc 1 687 0
 3040 12c4 0023     		movs	r3, #0
 3041 12c6 7B74     		strb	r3, [r7, #17]
 3042 12c8 08E0     		b	.L147
 3043              	.L148:
 688:printer.c     **** 		PRINTER_A_PutChar(SEPARATOR[x]);
 3044              		.loc 1 688 0 discriminator 3
 3045 12ca 7B7C     		ldrb	r3, [r7, #17]	@ zero_extendqisi2
 3046 12cc 184A     		ldr	r2, .L171+60
 3047 12ce D35C     		ldrb	r3, [r2, r3]	@ zero_extendqisi2
 3048 12d0 1846     		mov	r0, r3
 3049 12d2 FFF7FEFF 		bl	PRINTER_A_PutChar
 687:printer.c     **** 		PRINTER_A_PutChar(SEPARATOR[x]);
 3050              		.loc 1 687 0 discriminator 3
 3051 12d6 7B7C     		ldrb	r3, [r7, #17]	@ zero_extendqisi2
 3052 12d8 0133     		adds	r3, r3, #1
 3053 12da 7B74     		strb	r3, [r7, #17]
 3054              	.L147:
 687:printer.c     **** 		PRINTER_A_PutChar(SEPARATOR[x]);
 3055              		.loc 1 687 0 is_stmt 0 discriminator 1
ARM GAS  C:\Users\Diego\AppData\Local\Temp\ccIAJaV8.s 			page 73


 3056 12dc 7B7C     		ldrb	r3, [r7, #17]	@ zero_extendqisi2
 3057 12de 1F2B     		cmp	r3, #31
 3058 12e0 F3D9     		bls	.L148
 3059              	.LBE63:
 689:printer.c     **** 	}
 690:printer.c     ****     PRINTER_A_PutChar(LINE_FEED);    
 3060              		.loc 1 690 0 is_stmt 1
 3061 12e2 064B     		ldr	r3, .L171+8
 3062 12e4 1B78     		ldrb	r3, [r3]	@ zero_extendqisi2
 3063 12e6 1846     		mov	r0, r3
 3064 12e8 FFF7FEFF 		bl	PRINTER_A_PutChar
 3065              	.LBB64:
 691:printer.c     **** 	for(uint8 x = 0; x < 32; x ++){
 3066              		.loc 1 691 0
 3067 12ec 0023     		movs	r3, #0
 3068 12ee 3B74     		strb	r3, [r7, #16]
 3069 12f0 29E0     		b	.L149
 3070              	.L172:
 3071 12f2 00BF     		.align	2
 3072              	.L171:
 3073 12f4 00000000 		.word	msn_placa
 3074 12f8 00000000 		.word	side
 3075 12fc 00000000 		.word	LINE_FEED
 3076 1300 00000000 		.word	PRN_MILLEAGE
 3077 1304 00000000 		.word	msn_pos
 3078 1308 00000000 		.word	msn_product
 3079 130c 00000000 		.word	msn_gasoline
 3080 1310 00000000 		.word	msn_diesel
 3081 1314 00000000 		.word	msn_extra
 3082 1318 00000000 		.word	msn_ppu
 3083 131c 00000000 		.word	PRN_CURRENCY
 3084 1320 00000000 		.word	msn_vol
 3085 1324 00000000 		.word	DecVol
 3086 1328 00000000 		.word	VolSimbol
 3087 132c 00000000 		.word	msn_din
 3088 1330 00000000 		.word	SEPARATOR
 3089              	.L150:
 692:printer.c     **** 		PRINTER_A_PutChar(msn_footer3[x]);
 3090              		.loc 1 692 0 discriminator 3
 3091 1334 3B7C     		ldrb	r3, [r7, #16]	@ zero_extendqisi2
 3092 1336 464A     		ldr	r2, .L173
 3093 1338 D35C     		ldrb	r3, [r2, r3]	@ zero_extendqisi2
 3094 133a 1846     		mov	r0, r3
 3095 133c FFF7FEFF 		bl	PRINTER_A_PutChar
 691:printer.c     **** 	for(uint8 x = 0; x < 32; x ++){
 3096              		.loc 1 691 0 discriminator 3
 3097 1340 3B7C     		ldrb	r3, [r7, #16]	@ zero_extendqisi2
 3098 1342 0133     		adds	r3, r3, #1
 3099 1344 3B74     		strb	r3, [r7, #16]
 3100              	.L149:
 691:printer.c     **** 	for(uint8 x = 0; x < 32; x ++){
 3101              		.loc 1 691 0 is_stmt 0 discriminator 1
 3102 1346 3B7C     		ldrb	r3, [r7, #16]	@ zero_extendqisi2
 3103 1348 1F2B     		cmp	r3, #31
 3104 134a F3D9     		bls	.L150
 3105              	.LBE64:
 693:printer.c     **** 	}
ARM GAS  C:\Users\Diego\AppData\Local\Temp\ccIAJaV8.s 			page 74


 694:printer.c     ****     PRINTER_A_PutChar(LINE_FEED);
 3106              		.loc 1 694 0 is_stmt 1
 3107 134c 414B     		ldr	r3, .L173+4
 3108 134e 1B78     		ldrb	r3, [r3]	@ zero_extendqisi2
 3109 1350 1846     		mov	r0, r3
 3110 1352 FFF7FEFF 		bl	PRINTER_A_PutChar
 695:printer.c     ****     PRINTER_A_PutChar(LINE_FEED);
 3111              		.loc 1 695 0
 3112 1356 3F4B     		ldr	r3, .L173+4
 3113 1358 1B78     		ldrb	r3, [r3]	@ zero_extendqisi2
 3114 135a 1846     		mov	r0, r3
 3115 135c FFF7FEFF 		bl	PRINTER_A_PutChar
 3116              	.LBB65:
 696:printer.c     **** 	for(uint8 x = 0; x < 32; x ++){
 3117              		.loc 1 696 0
 3118 1360 0023     		movs	r3, #0
 3119 1362 FB73     		strb	r3, [r7, #15]
 3120 1364 08E0     		b	.L151
 3121              	.L152:
 697:printer.c     **** 		PRINTER_A_PutChar(msn_footer4[x]);
 3122              		.loc 1 697 0 discriminator 3
 3123 1366 FB7B     		ldrb	r3, [r7, #15]	@ zero_extendqisi2
 3124 1368 3B4A     		ldr	r2, .L173+8
 3125 136a D35C     		ldrb	r3, [r2, r3]	@ zero_extendqisi2
 3126 136c 1846     		mov	r0, r3
 3127 136e FFF7FEFF 		bl	PRINTER_A_PutChar
 696:printer.c     **** 	for(uint8 x = 0; x < 32; x ++){
 3128              		.loc 1 696 0 discriminator 3
 3129 1372 FB7B     		ldrb	r3, [r7, #15]	@ zero_extendqisi2
 3130 1374 0133     		adds	r3, r3, #1
 3131 1376 FB73     		strb	r3, [r7, #15]
 3132              	.L151:
 696:printer.c     **** 	for(uint8 x = 0; x < 32; x ++){
 3133              		.loc 1 696 0 is_stmt 0 discriminator 1
 3134 1378 FB7B     		ldrb	r3, [r7, #15]	@ zero_extendqisi2
 3135 137a 1F2B     		cmp	r3, #31
 3136 137c F3D9     		bls	.L152
 3137              	.LBE65:
 698:printer.c     **** 	}
 699:printer.c     **** 	PRINTER_A_PutChar(LINE_FEED);    
 3138              		.loc 1 699 0 is_stmt 1
 3139 137e 354B     		ldr	r3, .L173+4
 3140 1380 1B78     		ldrb	r3, [r3]	@ zero_extendqisi2
 3141 1382 1846     		mov	r0, r3
 3142 1384 FFF7FEFF 		bl	PRINTER_A_PutChar
 3143              	.LBB66:
 700:printer.c     ****     for(uint8 x = 0; x < 32; x ++){
 3144              		.loc 1 700 0
 3145 1388 0023     		movs	r3, #0
 3146 138a BB73     		strb	r3, [r7, #14]
 3147 138c 08E0     		b	.L153
 3148              	.L154:
 701:printer.c     **** 		PRINTER_A_PutChar(SEPARATOR[x]);
 3149              		.loc 1 701 0 discriminator 3
 3150 138e BB7B     		ldrb	r3, [r7, #14]	@ zero_extendqisi2
 3151 1390 324A     		ldr	r2, .L173+12
 3152 1392 D35C     		ldrb	r3, [r2, r3]	@ zero_extendqisi2
ARM GAS  C:\Users\Diego\AppData\Local\Temp\ccIAJaV8.s 			page 75


 3153 1394 1846     		mov	r0, r3
 3154 1396 FFF7FEFF 		bl	PRINTER_A_PutChar
 700:printer.c     ****     for(uint8 x = 0; x < 32; x ++){
 3155              		.loc 1 700 0 discriminator 3
 3156 139a BB7B     		ldrb	r3, [r7, #14]	@ zero_extendqisi2
 3157 139c 0133     		adds	r3, r3, #1
 3158 139e BB73     		strb	r3, [r7, #14]
 3159              	.L153:
 700:printer.c     ****     for(uint8 x = 0; x < 32; x ++){
 3160              		.loc 1 700 0 is_stmt 0 discriminator 1
 3161 13a0 BB7B     		ldrb	r3, [r7, #14]	@ zero_extendqisi2
 3162 13a2 1F2B     		cmp	r3, #31
 3163 13a4 F3D9     		bls	.L154
 3164              	.LBE66:
 702:printer.c     **** 	}
 703:printer.c     ****     PRINTER_A_PutChar(LINE_FEED);
 3165              		.loc 1 703 0 is_stmt 1
 3166 13a6 2B4B     		ldr	r3, .L173+4
 3167 13a8 1B78     		ldrb	r3, [r3]	@ zero_extendqisi2
 3168 13aa 1846     		mov	r0, r3
 3169 13ac FFF7FEFF 		bl	PRINTER_A_PutChar
 3170              	.LBB67:
 704:printer.c     **** 	for(uint8 x = 0; x < 32; x ++){
 3171              		.loc 1 704 0
 3172 13b0 0023     		movs	r3, #0
 3173 13b2 7B73     		strb	r3, [r7, #13]
 3174 13b4 08E0     		b	.L155
 3175              	.L156:
 705:printer.c     **** 		PRINTER_A_PutChar(msn_footer[x]);
 3176              		.loc 1 705 0 discriminator 3
 3177 13b6 7B7B     		ldrb	r3, [r7, #13]	@ zero_extendqisi2
 3178 13b8 294A     		ldr	r2, .L173+16
 3179 13ba D35C     		ldrb	r3, [r2, r3]	@ zero_extendqisi2
 3180 13bc 1846     		mov	r0, r3
 3181 13be FFF7FEFF 		bl	PRINTER_A_PutChar
 704:printer.c     **** 	for(uint8 x = 0; x < 32; x ++){
 3182              		.loc 1 704 0 discriminator 3
 3183 13c2 7B7B     		ldrb	r3, [r7, #13]	@ zero_extendqisi2
 3184 13c4 0133     		adds	r3, r3, #1
 3185 13c6 7B73     		strb	r3, [r7, #13]
 3186              	.L155:
 704:printer.c     **** 	for(uint8 x = 0; x < 32; x ++){
 3187              		.loc 1 704 0 is_stmt 0 discriminator 1
 3188 13c8 7B7B     		ldrb	r3, [r7, #13]	@ zero_extendqisi2
 3189 13ca 1F2B     		cmp	r3, #31
 3190 13cc F3D9     		bls	.L156
 3191              	.LBE67:
 706:printer.c     **** 	}
 707:printer.c     **** 	PRINTER_A_PutChar(LINE_FEED);
 3192              		.loc 1 707 0 is_stmt 1
 3193 13ce 214B     		ldr	r3, .L173+4
 3194 13d0 1B78     		ldrb	r3, [r3]	@ zero_extendqisi2
 3195 13d2 1846     		mov	r0, r3
 3196 13d4 FFF7FEFF 		bl	PRINTER_A_PutChar
 3197              	.LBB68:
 708:printer.c     **** 	for(uint8 x = 0; x < 32; x ++){
 3198              		.loc 1 708 0
ARM GAS  C:\Users\Diego\AppData\Local\Temp\ccIAJaV8.s 			page 76


 3199 13d8 0023     		movs	r3, #0
 3200 13da 3B73     		strb	r3, [r7, #12]
 3201 13dc 08E0     		b	.L157
 3202              	.L158:
 709:printer.c     **** 		PRINTER_A_PutChar(msn_footer2[x]);
 3203              		.loc 1 709 0 discriminator 3
 3204 13de 3B7B     		ldrb	r3, [r7, #12]	@ zero_extendqisi2
 3205 13e0 204A     		ldr	r2, .L173+20
 3206 13e2 D35C     		ldrb	r3, [r2, r3]	@ zero_extendqisi2
 3207 13e4 1846     		mov	r0, r3
 3208 13e6 FFF7FEFF 		bl	PRINTER_A_PutChar
 708:printer.c     **** 	for(uint8 x = 0; x < 32; x ++){
 3209              		.loc 1 708 0 discriminator 3
 3210 13ea 3B7B     		ldrb	r3, [r7, #12]	@ zero_extendqisi2
 3211 13ec 0133     		adds	r3, r3, #1
 3212 13ee 3B73     		strb	r3, [r7, #12]
 3213              	.L157:
 708:printer.c     **** 	for(uint8 x = 0; x < 32; x ++){
 3214              		.loc 1 708 0 is_stmt 0 discriminator 1
 3215 13f0 3B7B     		ldrb	r3, [r7, #12]	@ zero_extendqisi2
 3216 13f2 1F2B     		cmp	r3, #31
 3217 13f4 F3D9     		bls	.L158
 3218              	.LBE68:
 710:printer.c     **** 	}    
 711:printer.c     ****     PRINTER_A_PutChar(LINE_FEED);
 3219              		.loc 1 711 0 is_stmt 1
 3220 13f6 174B     		ldr	r3, .L173+4
 3221 13f8 1B78     		ldrb	r3, [r3]	@ zero_extendqisi2
 3222 13fa 1846     		mov	r0, r3
 3223 13fc FFF7FEFF 		bl	PRINTER_A_PutChar
 712:printer.c     ****     PRINTER_A_PutChar(LINE_FEED);
 3224              		.loc 1 712 0
 3225 1400 144B     		ldr	r3, .L173+4
 3226 1402 1B78     		ldrb	r3, [r3]	@ zero_extendqisi2
 3227 1404 1846     		mov	r0, r3
 3228 1406 FFF7FEFF 		bl	PRINTER_A_PutChar
 713:printer.c     ****     PRINTER_A_PutChar(LINE_FEED);
 3229              		.loc 1 713 0
 3230 140a 124B     		ldr	r3, .L173+4
 3231 140c 1B78     		ldrb	r3, [r3]	@ zero_extendqisi2
 3232 140e 1846     		mov	r0, r3
 3233 1410 FFF7FEFF 		bl	PRINTER_A_PutChar
 714:printer.c     ****     PRINTER_A_PutChar(LINE_FEED);
 3234              		.loc 1 714 0
 3235 1414 0F4B     		ldr	r3, .L173+4
 3236 1416 1B78     		ldrb	r3, [r3]	@ zero_extendqisi2
 3237 1418 1846     		mov	r0, r3
 3238 141a FFF7FEFF 		bl	PRINTER_A_PutChar
 715:printer.c     ****     PRINTER_A_PutChar(LINE_FEED);
 3239              		.loc 1 715 0
 3240 141e 0D4B     		ldr	r3, .L173+4
 3241 1420 1B78     		ldrb	r3, [r3]	@ zero_extendqisi2
 3242 1422 1846     		mov	r0, r3
 3243 1424 FFF7FEFF 		bl	PRINTER_A_PutChar
 3244              	.LBB69:
 716:printer.c     ****     for(uint8 x = 0; x < 6; x ++){
 3245              		.loc 1 716 0
ARM GAS  C:\Users\Diego\AppData\Local\Temp\ccIAJaV8.s 			page 77


 3246 1428 0023     		movs	r3, #0
 3247 142a FB72     		strb	r3, [r7, #11]
 3248 142c 08E0     		b	.L159
 3249              	.L160:
 717:printer.c     ****         sale_number_copy[x] = sale_number[x];
 3250              		.loc 1 717 0 discriminator 3
 3251 142e FB7A     		ldrb	r3, [r7, #11]	@ zero_extendqisi2
 3252 1430 FA7A     		ldrb	r2, [r7, #11]	@ zero_extendqisi2
 3253 1432 0D49     		ldr	r1, .L173+24
 3254 1434 895C     		ldrb	r1, [r1, r2]	@ zero_extendqisi2
 3255 1436 0D4A     		ldr	r2, .L173+28
 3256 1438 D154     		strb	r1, [r2, r3]
 716:printer.c     ****     for(uint8 x = 0; x < 6; x ++){
 3257              		.loc 1 716 0 discriminator 3
 3258 143a FB7A     		ldrb	r3, [r7, #11]	@ zero_extendqisi2
 3259 143c 0133     		adds	r3, r3, #1
 3260 143e FB72     		strb	r3, [r7, #11]
 3261              	.L159:
 716:printer.c     ****     for(uint8 x = 0; x < 6; x ++){
 3262              		.loc 1 716 0 is_stmt 0 discriminator 1
 3263 1440 FB7A     		ldrb	r3, [r7, #11]	@ zero_extendqisi2
 3264 1442 052B     		cmp	r3, #5
 3265 1444 F3D9     		bls	.L160
 3266              	.LBE69:
 718:printer.c     ****     }
 719:printer.c     **** }
 3267              		.loc 1 719 0 is_stmt 1
 3268 1446 00BF     		nop
 3269 1448 5437     		adds	r7, r7, #84
 3270              		.cfi_def_cfa_offset 12
 3271 144a BD46     		mov	sp, r7
 3272              		.cfi_def_cfa_register 13
 3273              		@ sp needed
 3274 144c 90BD     		pop	{r4, r7, pc}
 3275              	.L174:
 3276 144e 00BF     		.align	2
 3277              	.L173:
 3278 1450 00000000 		.word	msn_footer3
 3279 1454 00000000 		.word	LINE_FEED
 3280 1458 00000000 		.word	msn_footer4
 3281 145c 00000000 		.word	SEPARATOR
 3282 1460 00000000 		.word	msn_footer
 3283 1464 00000000 		.word	msn_footer2
 3284 1468 00000000 		.word	sale_number
 3285 146c 00000000 		.word	sale_number_copy
 3286              		.cfi_endproc
 3287              	.LFE64:
 3288              		.size	PrintReceipt, .-PrintReceipt
 3289              		.section	.rodata
 3290              		.align	2
 3291              	.LC0:
 3292 0000 256400   		.ascii	"%d\000"
 3293              		.section	.text.PrintShift,"ax",%progbits
 3294              		.align	2
 3295              		.global	PrintShift
 3296              		.thumb
 3297              		.thumb_func
ARM GAS  C:\Users\Diego\AppData\Local\Temp\ccIAJaV8.s 			page 78


 3298              		.type	PrintShift, %function
 3299              	PrintShift:
 3300              	.LFB65:
 720:printer.c     **** 
 721:printer.c     **** void PrintShift(void){
 3301              		.loc 1 721 0
 3302              		.cfi_startproc
 3303              		@ args = 0, pretend = 0, frame = 144
 3304              		@ frame_needed = 1, uses_anonymous_args = 0
 3305 0000 90B5     		push	{r4, r7, lr}
 3306              		.cfi_def_cfa_offset 12
 3307              		.cfi_offset 4, -12
 3308              		.cfi_offset 7, -8
 3309              		.cfi_offset 14, -4
 3310 0002 A5B0     		sub	sp, sp, #148
 3311              		.cfi_def_cfa_offset 160
 3312 0004 00AF     		add	r7, sp, #0
 3313              		.cfi_def_cfa_register 7
 722:printer.c     ****     uint8 screen_size,pos;
 723:printer.c     ****     screen_size = 0;
 3314              		.loc 1 723 0
 3315 0006 0023     		movs	r3, #0
 3316 0008 87F88F30 		strb	r3, [r7, #143]
 724:printer.c     ****     char8 lectanterior[10],lectactual[10],memoria[10],resultado[10];
 725:printer.c     ****     int actual,anterior,resta;
 726:printer.c     ****     while(screen_size == 0){
 3317              		.loc 1 726 0
 3318 000c 1BE0     		b	.L176
 3319              	.L179:
 3320              	.LBB70:
 727:printer.c     ****         for(uint8 LCDRx = 0; LCDRx < 6; LCDRx++){
 3321              		.loc 1 727 0
 3322 000e 0023     		movs	r3, #0
 3323 0010 87F88E30 		strb	r3, [r7, #142]
 3324 0014 0BE0     		b	.L177
 3325              	.L178:
 728:printer.c     ****             screen_PutChar(ASK_TIME[LCDRx]);
 3326              		.loc 1 728 0 discriminator 3
 3327 0016 97F88E30 		ldrb	r3, [r7, #142]	@ zero_extendqisi2
 3328 001a C94A     		ldr	r2, .L346
 3329 001c D35C     		ldrb	r3, [r2, r3]	@ zero_extendqisi2
 3330 001e 1846     		mov	r0, r3
 3331 0020 FFF7FEFF 		bl	screen_PutChar
 727:printer.c     ****         for(uint8 LCDRx = 0; LCDRx < 6; LCDRx++){
 3332              		.loc 1 727 0 discriminator 3
 3333 0024 97F88E30 		ldrb	r3, [r7, #142]	@ zero_extendqisi2
 3334 0028 0133     		adds	r3, r3, #1
 3335 002a 87F88E30 		strb	r3, [r7, #142]
 3336              	.L177:
 727:printer.c     ****         for(uint8 LCDRx = 0; LCDRx < 6; LCDRx++){
 3337              		.loc 1 727 0 is_stmt 0 discriminator 1
 3338 002e 97F88E30 		ldrb	r3, [r7, #142]	@ zero_extendqisi2
 3339 0032 052B     		cmp	r3, #5
 3340 0034 EFD9     		bls	.L178
 3341              	.LBE70:
 729:printer.c     ****         }
 730:printer.c     ****         CyDelay(5);
ARM GAS  C:\Users\Diego\AppData\Local\Temp\ccIAJaV8.s 			page 79


 3342              		.loc 1 730 0 is_stmt 1
 3343 0036 0520     		movs	r0, #5
 3344 0038 FFF7FEFF 		bl	CyDelay
 731:printer.c     ****         screen_size = screen_GetRxBufferSize();
 3345              		.loc 1 731 0
 3346 003c FFF7FEFF 		bl	screen_GetRxBufferSize
 3347 0040 0346     		mov	r3, r0
 3348 0042 87F88F30 		strb	r3, [r7, #143]
 3349              	.L176:
 726:printer.c     ****         for(uint8 LCDRx = 0; LCDRx < 6; LCDRx++){
 3350              		.loc 1 726 0
 3351 0046 97F88F30 		ldrb	r3, [r7, #143]	@ zero_extendqisi2
 3352 004a 002B     		cmp	r3, #0
 3353 004c DFD0     		beq	.L179
 732:printer.c     ****     }
 733:printer.c     ****     if(screen_size >= 13 ){
 3354              		.loc 1 733 0
 3355 004e 97F88F30 		ldrb	r3, [r7, #143]	@ zero_extendqisi2
 3356 0052 0C2B     		cmp	r3, #12
 3357 0054 54D9     		bls	.L183
 3358              	.LBB71:
 734:printer.c     ****         for(uint8 LCDRx = 0; LCDRx < screen_size; LCDRx++){
 3359              		.loc 1 734 0
 3360 0056 0023     		movs	r3, #0
 3361 0058 87F88D30 		strb	r3, [r7, #141]
 3362 005c 0CE0     		b	.L181
 3363              	.L182:
 735:printer.c     ****             touch1[LCDRx] = screen_ReadRxData();
 3364              		.loc 1 735 0 discriminator 3
 3365 005e 97F88D40 		ldrb	r4, [r7, #141]	@ zero_extendqisi2
 3366 0062 FFF7FEFF 		bl	screen_ReadRxData
 3367 0066 0346     		mov	r3, r0
 3368 0068 1A46     		mov	r2, r3
 3369 006a B64B     		ldr	r3, .L346+4
 3370 006c 1A55     		strb	r2, [r3, r4]
 734:printer.c     ****         for(uint8 LCDRx = 0; LCDRx < screen_size; LCDRx++){
 3371              		.loc 1 734 0 discriminator 3
 3372 006e 97F88D30 		ldrb	r3, [r7, #141]	@ zero_extendqisi2
 3373 0072 0133     		adds	r3, r3, #1
 3374 0074 87F88D30 		strb	r3, [r7, #141]
 3375              	.L181:
 734:printer.c     ****         for(uint8 LCDRx = 0; LCDRx < screen_size; LCDRx++){
 3376              		.loc 1 734 0 is_stmt 0 discriminator 1
 3377 0078 97F88D20 		ldrb	r2, [r7, #141]	@ zero_extendqisi2
 3378 007c 97F88F30 		ldrb	r3, [r7, #143]	@ zero_extendqisi2
 3379 0080 9A42     		cmp	r2, r3
 3380 0082 ECD3     		bcc	.L182
 3381              	.LBE71:
 736:printer.c     ****         }
 737:printer.c     ****         screen_size = 0;
 3382              		.loc 1 737 0 is_stmt 1
 3383 0084 0023     		movs	r3, #0
 3384 0086 87F88F30 		strb	r3, [r7, #143]
 738:printer.c     ****     }
 739:printer.c     ****     while(touch1[8] == 0x00){
 3385              		.loc 1 739 0
 3386 008a 39E0     		b	.L183
ARM GAS  C:\Users\Diego\AppData\Local\Temp\ccIAJaV8.s 			page 80


 3387              	.L188:
 3388              	.LBB72:
 740:printer.c     ****          for(uint8 LCDRx = 0; LCDRx < 6; LCDRx++){
 3389              		.loc 1 740 0
 3390 008c 0023     		movs	r3, #0
 3391 008e 87F88C30 		strb	r3, [r7, #140]
 3392 0092 0BE0     		b	.L184
 3393              	.L185:
 741:printer.c     ****             screen_PutChar(ASK_TIME[LCDRx]);
 3394              		.loc 1 741 0 discriminator 3
 3395 0094 97F88C30 		ldrb	r3, [r7, #140]	@ zero_extendqisi2
 3396 0098 A94A     		ldr	r2, .L346
 3397 009a D35C     		ldrb	r3, [r2, r3]	@ zero_extendqisi2
 3398 009c 1846     		mov	r0, r3
 3399 009e FFF7FEFF 		bl	screen_PutChar
 740:printer.c     ****          for(uint8 LCDRx = 0; LCDRx < 6; LCDRx++){
 3400              		.loc 1 740 0 discriminator 3
 3401 00a2 97F88C30 		ldrb	r3, [r7, #140]	@ zero_extendqisi2
 3402 00a6 0133     		adds	r3, r3, #1
 3403 00a8 87F88C30 		strb	r3, [r7, #140]
 3404              	.L184:
 740:printer.c     ****          for(uint8 LCDRx = 0; LCDRx < 6; LCDRx++){
 3405              		.loc 1 740 0 is_stmt 0 discriminator 1
 3406 00ac 97F88C30 		ldrb	r3, [r7, #140]	@ zero_extendqisi2
 3407 00b0 052B     		cmp	r3, #5
 3408 00b2 EFD9     		bls	.L185
 3409              	.LBE72:
 742:printer.c     ****         }
 743:printer.c     ****         CyDelay(4);
 3410              		.loc 1 743 0 is_stmt 1
 3411 00b4 0420     		movs	r0, #4
 3412 00b6 FFF7FEFF 		bl	CyDelay
 744:printer.c     ****         screen_size = screen_GetRxBufferSize();
 3413              		.loc 1 744 0
 3414 00ba FFF7FEFF 		bl	screen_GetRxBufferSize
 3415 00be 0346     		mov	r3, r0
 3416 00c0 87F88F30 		strb	r3, [r7, #143]
 745:printer.c     ****         if(screen_size >= 13 ){
 3417              		.loc 1 745 0
 3418 00c4 97F88F30 		ldrb	r3, [r7, #143]	@ zero_extendqisi2
 3419 00c8 0C2B     		cmp	r3, #12
 3420 00ca 19D9     		bls	.L183
 3421              	.LBB73:
 746:printer.c     ****             for(uint8 LCDRx = 0; LCDRx < screen_size; LCDRx++){
 3422              		.loc 1 746 0
 3423 00cc 0023     		movs	r3, #0
 3424 00ce 87F88B30 		strb	r3, [r7, #139]
 3425 00d2 0CE0     		b	.L186
 3426              	.L187:
 747:printer.c     ****                 touch1[LCDRx] = screen_ReadRxData();
 3427              		.loc 1 747 0 discriminator 3
 3428 00d4 97F88B40 		ldrb	r4, [r7, #139]	@ zero_extendqisi2
 3429 00d8 FFF7FEFF 		bl	screen_ReadRxData
 3430 00dc 0346     		mov	r3, r0
 3431 00de 1A46     		mov	r2, r3
 3432 00e0 984B     		ldr	r3, .L346+4
 3433 00e2 1A55     		strb	r2, [r3, r4]
ARM GAS  C:\Users\Diego\AppData\Local\Temp\ccIAJaV8.s 			page 81


 746:printer.c     ****             for(uint8 LCDRx = 0; LCDRx < screen_size; LCDRx++){
 3434              		.loc 1 746 0 discriminator 3
 3435 00e4 97F88B30 		ldrb	r3, [r7, #139]	@ zero_extendqisi2
 3436 00e8 0133     		adds	r3, r3, #1
 3437 00ea 87F88B30 		strb	r3, [r7, #139]
 3438              	.L186:
 746:printer.c     ****             for(uint8 LCDRx = 0; LCDRx < screen_size; LCDRx++){
 3439              		.loc 1 746 0 is_stmt 0 discriminator 1
 3440 00ee 97F88B20 		ldrb	r2, [r7, #139]	@ zero_extendqisi2
 3441 00f2 97F88F30 		ldrb	r3, [r7, #143]	@ zero_extendqisi2
 3442 00f6 9A42     		cmp	r2, r3
 3443 00f8 ECD3     		bcc	.L187
 3444              	.LBE73:
 748:printer.c     ****             }
 749:printer.c     ****             screen_size = 0;
 3445              		.loc 1 749 0 is_stmt 1
 3446 00fa 0023     		movs	r3, #0
 3447 00fc 87F88F30 		strb	r3, [r7, #143]
 3448              	.L183:
 739:printer.c     ****          for(uint8 LCDRx = 0; LCDRx < 6; LCDRx++){
 3449              		.loc 1 739 0
 3450 0100 904B     		ldr	r3, .L346+4
 3451 0102 1B7A     		ldrb	r3, [r3, #8]	@ zero_extendqisi2
 3452 0104 002B     		cmp	r3, #0
 3453 0106 C1D0     		beq	.L188
 750:printer.c     ****         }
 751:printer.c     ****     }
 752:printer.c     **** 
 753:printer.c     ****     int_shiftnumber++;
 3454              		.loc 1 753 0
 3455 0108 8F4B     		ldr	r3, .L346+8
 3456 010a 1B78     		ldrb	r3, [r3]	@ zero_extendqisi2
 3457 010c 0133     		adds	r3, r3, #1
 3458 010e DAB2     		uxtb	r2, r3
 3459 0110 8D4B     		ldr	r3, .L346+8
 3460 0112 1A70     		strb	r2, [r3]
 754:printer.c     ****     shift_number[5]=(int_shiftnumber/10000)+48;
 3461              		.loc 1 754 0
 3462 0114 8C4B     		ldr	r3, .L346+8
 3463 0116 1B78     		ldrb	r3, [r3]	@ zero_extendqisi2
 3464 0118 8C4A     		ldr	r2, .L346+12
 3465 011a 82FB0312 		smull	r1, r2, r2, r3
 3466 011e 1213     		asrs	r2, r2, #12
 3467 0120 DB17     		asrs	r3, r3, #31
 3468 0122 D31A     		subs	r3, r2, r3
 3469 0124 DBB2     		uxtb	r3, r3
 3470 0126 3033     		adds	r3, r3, #48
 3471 0128 DAB2     		uxtb	r2, r3
 3472 012a 894B     		ldr	r3, .L346+16
 3473 012c 5A71     		strb	r2, [r3, #5]
 755:printer.c     **** 	shift_number[4]=((int_shiftnumber%10000)/1000)+48;
 3474              		.loc 1 755 0
 3475 012e 864B     		ldr	r3, .L346+8
 3476 0130 1B78     		ldrb	r3, [r3]	@ zero_extendqisi2
 3477 0132 1A46     		mov	r2, r3
 3478 0134 854B     		ldr	r3, .L346+12
 3479 0136 83FB0213 		smull	r1, r3, r3, r2
ARM GAS  C:\Users\Diego\AppData\Local\Temp\ccIAJaV8.s 			page 82


 3480 013a 1913     		asrs	r1, r3, #12
 3481 013c D317     		asrs	r3, r2, #31
 3482 013e CB1A     		subs	r3, r1, r3
 3483 0140 42F21071 		movw	r1, #10000
 3484 0144 01FB03F3 		mul	r3, r1, r3
 3485 0148 D31A     		subs	r3, r2, r3
 3486 014a 824A     		ldr	r2, .L346+20
 3487 014c 82FB0312 		smull	r1, r2, r2, r3
 3488 0150 9211     		asrs	r2, r2, #6
 3489 0152 DB17     		asrs	r3, r3, #31
 3490 0154 D31A     		subs	r3, r2, r3
 3491 0156 DBB2     		uxtb	r3, r3
 3492 0158 3033     		adds	r3, r3, #48
 3493 015a DAB2     		uxtb	r2, r3
 3494 015c 7C4B     		ldr	r3, .L346+16
 3495 015e 1A71     		strb	r2, [r3, #4]
 756:printer.c     **** 	shift_number[3]=(((int_shiftnumber%10000)%1000)/100)+48;
 3496              		.loc 1 756 0
 3497 0160 794B     		ldr	r3, .L346+8
 3498 0162 1B78     		ldrb	r3, [r3]	@ zero_extendqisi2
 3499 0164 1A46     		mov	r2, r3
 3500 0166 794B     		ldr	r3, .L346+12
 3501 0168 83FB0213 		smull	r1, r3, r3, r2
 3502 016c 1913     		asrs	r1, r3, #12
 3503 016e D317     		asrs	r3, r2, #31
 3504 0170 CB1A     		subs	r3, r1, r3
 3505 0172 42F21071 		movw	r1, #10000
 3506 0176 01FB03F3 		mul	r3, r1, r3
 3507 017a D31A     		subs	r3, r2, r3
 3508 017c 754A     		ldr	r2, .L346+20
 3509 017e 82FB0312 		smull	r1, r2, r2, r3
 3510 0182 9111     		asrs	r1, r2, #6
 3511 0184 DA17     		asrs	r2, r3, #31
 3512 0186 8A1A     		subs	r2, r1, r2
 3513 0188 4FF47A71 		mov	r1, #1000
 3514 018c 01FB02F2 		mul	r2, r1, r2
 3515 0190 9A1A     		subs	r2, r3, r2
 3516 0192 714B     		ldr	r3, .L346+24
 3517 0194 83FB0213 		smull	r1, r3, r3, r2
 3518 0198 5911     		asrs	r1, r3, #5
 3519 019a D317     		asrs	r3, r2, #31
 3520 019c CB1A     		subs	r3, r1, r3
 3521 019e DBB2     		uxtb	r3, r3
 3522 01a0 3033     		adds	r3, r3, #48
 3523 01a2 DAB2     		uxtb	r2, r3
 3524 01a4 6A4B     		ldr	r3, .L346+16
 3525 01a6 DA70     		strb	r2, [r3, #3]
 757:printer.c     **** 	shift_number[2]=((((int_shiftnumber%10000)%1000)%100)/10)+48;	
 3526              		.loc 1 757 0
 3527 01a8 674B     		ldr	r3, .L346+8
 3528 01aa 1B78     		ldrb	r3, [r3]	@ zero_extendqisi2
 3529 01ac 674A     		ldr	r2, .L346+12
 3530 01ae 82FB0312 		smull	r1, r2, r2, r3
 3531 01b2 1113     		asrs	r1, r2, #12
 3532 01b4 DA17     		asrs	r2, r3, #31
 3533 01b6 8A1A     		subs	r2, r1, r2
 3534 01b8 42F21071 		movw	r1, #10000
ARM GAS  C:\Users\Diego\AppData\Local\Temp\ccIAJaV8.s 			page 83


 3535 01bc 01FB02F2 		mul	r2, r1, r2
 3536 01c0 9A1A     		subs	r2, r3, r2
 3537 01c2 644B     		ldr	r3, .L346+20
 3538 01c4 83FB0213 		smull	r1, r3, r3, r2
 3539 01c8 9911     		asrs	r1, r3, #6
 3540 01ca D317     		asrs	r3, r2, #31
 3541 01cc CB1A     		subs	r3, r1, r3
 3542 01ce 4FF47A71 		mov	r1, #1000
 3543 01d2 01FB03F3 		mul	r3, r1, r3
 3544 01d6 D31A     		subs	r3, r2, r3
 3545 01d8 5F4A     		ldr	r2, .L346+24
 3546 01da 82FB0312 		smull	r1, r2, r2, r3
 3547 01de 5111     		asrs	r1, r2, #5
 3548 01e0 DA17     		asrs	r2, r3, #31
 3549 01e2 8A1A     		subs	r2, r1, r2
 3550 01e4 6421     		movs	r1, #100
 3551 01e6 01FB02F2 		mul	r2, r1, r2
 3552 01ea 9A1A     		subs	r2, r3, r2
 3553 01ec 5B4B     		ldr	r3, .L346+28
 3554 01ee 83FB0213 		smull	r1, r3, r3, r2
 3555 01f2 9910     		asrs	r1, r3, #2
 3556 01f4 D317     		asrs	r3, r2, #31
 3557 01f6 CB1A     		subs	r3, r1, r3
 3558 01f8 DBB2     		uxtb	r3, r3
 3559 01fa 3033     		adds	r3, r3, #48
 3560 01fc DAB2     		uxtb	r2, r3
 3561 01fe 544B     		ldr	r3, .L346+16
 3562 0200 9A70     		strb	r2, [r3, #2]
 758:printer.c     **** 	shift_number[1]=((((int_shiftnumber%10000)%1000)%100)%10)+48;
 3563              		.loc 1 758 0
 3564 0202 514B     		ldr	r3, .L346+8
 3565 0204 1B78     		ldrb	r3, [r3]	@ zero_extendqisi2
 3566 0206 514A     		ldr	r2, .L346+12
 3567 0208 82FB0312 		smull	r1, r2, r2, r3
 3568 020c 1113     		asrs	r1, r2, #12
 3569 020e DA17     		asrs	r2, r3, #31
 3570 0210 8A1A     		subs	r2, r1, r2
 3571 0212 42F21071 		movw	r1, #10000
 3572 0216 01FB02F2 		mul	r2, r1, r2
 3573 021a 9A1A     		subs	r2, r3, r2
 3574 021c 4D4B     		ldr	r3, .L346+20
 3575 021e 83FB0213 		smull	r1, r3, r3, r2
 3576 0222 9911     		asrs	r1, r3, #6
 3577 0224 D317     		asrs	r3, r2, #31
 3578 0226 CB1A     		subs	r3, r1, r3
 3579 0228 4FF47A71 		mov	r1, #1000
 3580 022c 01FB03F3 		mul	r3, r1, r3
 3581 0230 D31A     		subs	r3, r2, r3
 3582 0232 494A     		ldr	r2, .L346+24
 3583 0234 82FB0312 		smull	r1, r2, r2, r3
 3584 0238 5111     		asrs	r1, r2, #5
 3585 023a DA17     		asrs	r2, r3, #31
 3586 023c 8A1A     		subs	r2, r1, r2
 3587 023e 6421     		movs	r1, #100
 3588 0240 01FB02F2 		mul	r2, r1, r2
 3589 0244 9A1A     		subs	r2, r3, r2
 3590 0246 454B     		ldr	r3, .L346+28
ARM GAS  C:\Users\Diego\AppData\Local\Temp\ccIAJaV8.s 			page 84


 3591 0248 83FB0213 		smull	r1, r3, r3, r2
 3592 024c 9910     		asrs	r1, r3, #2
 3593 024e D317     		asrs	r3, r2, #31
 3594 0250 C91A     		subs	r1, r1, r3
 3595 0252 0B46     		mov	r3, r1
 3596 0254 9B00     		lsls	r3, r3, #2
 3597 0256 0B44     		add	r3, r3, r1
 3598 0258 5B00     		lsls	r3, r3, #1
 3599 025a D11A     		subs	r1, r2, r3
 3600 025c CBB2     		uxtb	r3, r1
 3601 025e 3033     		adds	r3, r3, #48
 3602 0260 DAB2     		uxtb	r2, r3
 3603 0262 3B4B     		ldr	r3, .L346+16
 3604 0264 5A70     		strb	r2, [r3, #1]
 3605              	.LBB74:
 759:printer.c     ****     for(uint8 i = 7; i<13; i++){
 3606              		.loc 1 759 0
 3607 0266 0723     		movs	r3, #7
 3608 0268 87F88A30 		strb	r3, [r7, #138]
 3609 026c 10E0     		b	.L189
 3610              	.L190:
 760:printer.c     ****         EEPROM_1_WriteByte(shift_number[i-6],i);
 3611              		.loc 1 760 0 discriminator 3
 3612 026e 97F88A30 		ldrb	r3, [r7, #138]	@ zero_extendqisi2
 3613 0272 063B     		subs	r3, r3, #6
 3614 0274 364A     		ldr	r2, .L346+16
 3615 0276 D35C     		ldrb	r3, [r2, r3]	@ zero_extendqisi2
 3616 0278 97F88A20 		ldrb	r2, [r7, #138]	@ zero_extendqisi2
 3617 027c 92B2     		uxth	r2, r2
 3618 027e 1146     		mov	r1, r2
 3619 0280 1846     		mov	r0, r3
 3620 0282 FFF7FEFF 		bl	EEPROM_1_WriteByte
 759:printer.c     ****     for(uint8 i = 7; i<13; i++){
 3621              		.loc 1 759 0 discriminator 3
 3622 0286 97F88A30 		ldrb	r3, [r7, #138]	@ zero_extendqisi2
 3623 028a 0133     		adds	r3, r3, #1
 3624 028c 87F88A30 		strb	r3, [r7, #138]
 3625              	.L189:
 759:printer.c     ****     for(uint8 i = 7; i<13; i++){
 3626              		.loc 1 759 0 is_stmt 0 discriminator 1
 3627 0290 97F88A30 		ldrb	r3, [r7, #138]	@ zero_extendqisi2
 3628 0294 0C2B     		cmp	r3, #12
 3629 0296 EAD9     		bls	.L190
 3630              	.LBE74:
 761:printer.c     ****     }
 762:printer.c     ****     PRINTER_A_PutChar(LINE_FEED);
 3631              		.loc 1 762 0 is_stmt 1
 3632 0298 314B     		ldr	r3, .L346+32
 3633 029a 1B78     		ldrb	r3, [r3]	@ zero_extendqisi2
 3634 029c 1846     		mov	r0, r3
 3635 029e FFF7FEFF 		bl	PRINTER_A_PutChar
 3636              	.LBB75:
 763:printer.c     **** 	for(uint8 x = 0; x < 32; x ++){
 3637              		.loc 1 763 0
 3638 02a2 0023     		movs	r3, #0
 3639 02a4 87F88930 		strb	r3, [r7, #137]
 3640 02a8 0BE0     		b	.L191
ARM GAS  C:\Users\Diego\AppData\Local\Temp\ccIAJaV8.s 			page 85


 3641              	.L192:
 764:printer.c     **** 		PRINTER_A_PutChar(msn_EDS[x]);   // Encabezado de estacin
 3642              		.loc 1 764 0 discriminator 3
 3643 02aa 97F88930 		ldrb	r3, [r7, #137]	@ zero_extendqisi2
 3644 02ae 2D4A     		ldr	r2, .L346+36
 3645 02b0 D35C     		ldrb	r3, [r2, r3]	@ zero_extendqisi2
 3646 02b2 1846     		mov	r0, r3
 3647 02b4 FFF7FEFF 		bl	PRINTER_A_PutChar
 763:printer.c     **** 	for(uint8 x = 0; x < 32; x ++){
 3648              		.loc 1 763 0 discriminator 3
 3649 02b8 97F88930 		ldrb	r3, [r7, #137]	@ zero_extendqisi2
 3650 02bc 0133     		adds	r3, r3, #1
 3651 02be 87F88930 		strb	r3, [r7, #137]
 3652              	.L191:
 763:printer.c     **** 	for(uint8 x = 0; x < 32; x ++){
 3653              		.loc 1 763 0 is_stmt 0 discriminator 1
 3654 02c2 97F88930 		ldrb	r3, [r7, #137]	@ zero_extendqisi2
 3655 02c6 1F2B     		cmp	r3, #31
 3656 02c8 EFD9     		bls	.L192
 3657              	.LBE75:
 765:printer.c     **** 	}
 766:printer.c     **** 	PRINTER_A_PutChar(LINE_FEED);
 3658              		.loc 1 766 0 is_stmt 1
 3659 02ca 254B     		ldr	r3, .L346+32
 3660 02cc 1B78     		ldrb	r3, [r3]	@ zero_extendqisi2
 3661 02ce 1846     		mov	r0, r3
 3662 02d0 FFF7FEFF 		bl	PRINTER_A_PutChar
 3663              	.LBB76:
 767:printer.c     **** 	for(uint8 x = 0; x < 32; x ++){
 3664              		.loc 1 767 0
 3665 02d4 0023     		movs	r3, #0
 3666 02d6 87F88830 		strb	r3, [r7, #136]
 3667 02da 0BE0     		b	.L193
 3668              	.L194:
 768:printer.c     **** 		PRINTER_A_PutChar(msn_EDS2[x]);
 3669              		.loc 1 768 0 discriminator 3
 3670 02dc 97F88830 		ldrb	r3, [r7, #136]	@ zero_extendqisi2
 3671 02e0 214A     		ldr	r2, .L346+40
 3672 02e2 D35C     		ldrb	r3, [r2, r3]	@ zero_extendqisi2
 3673 02e4 1846     		mov	r0, r3
 3674 02e6 FFF7FEFF 		bl	PRINTER_A_PutChar
 767:printer.c     **** 	for(uint8 x = 0; x < 32; x ++){
 3675              		.loc 1 767 0 discriminator 3
 3676 02ea 97F88830 		ldrb	r3, [r7, #136]	@ zero_extendqisi2
 3677 02ee 0133     		adds	r3, r3, #1
 3678 02f0 87F88830 		strb	r3, [r7, #136]
 3679              	.L193:
 767:printer.c     **** 	for(uint8 x = 0; x < 32; x ++){
 3680              		.loc 1 767 0 is_stmt 0 discriminator 1
 3681 02f4 97F88830 		ldrb	r3, [r7, #136]	@ zero_extendqisi2
 3682 02f8 1F2B     		cmp	r3, #31
 3683 02fa EFD9     		bls	.L194
 3684              	.LBE76:
 769:printer.c     **** 	}	
 770:printer.c     **** 	PRINTER_A_PutChar(LINE_FEED);
 3685              		.loc 1 770 0 is_stmt 1
 3686 02fc 184B     		ldr	r3, .L346+32
ARM GAS  C:\Users\Diego\AppData\Local\Temp\ccIAJaV8.s 			page 86


 3687 02fe 1B78     		ldrb	r3, [r3]	@ zero_extendqisi2
 3688 0300 1846     		mov	r0, r3
 3689 0302 FFF7FEFF 		bl	PRINTER_A_PutChar
 3690              	.LBB77:
 771:printer.c     **** 	for(uint8 x = 0; x < 32; x ++){
 3691              		.loc 1 771 0
 3692 0306 0023     		movs	r3, #0
 3693 0308 87F88730 		strb	r3, [r7, #135]
 3694 030c 0BE0     		b	.L195
 3695              	.L196:
 772:printer.c     **** 		PRINTER_A_PutChar(msn_EDS3[x]);
 3696              		.loc 1 772 0 discriminator 3
 3697 030e 97F88730 		ldrb	r3, [r7, #135]	@ zero_extendqisi2
 3698 0312 164A     		ldr	r2, .L346+44
 3699 0314 D35C     		ldrb	r3, [r2, r3]	@ zero_extendqisi2
 3700 0316 1846     		mov	r0, r3
 3701 0318 FFF7FEFF 		bl	PRINTER_A_PutChar
 771:printer.c     **** 	for(uint8 x = 0; x < 32; x ++){
 3702              		.loc 1 771 0 discriminator 3
 3703 031c 97F88730 		ldrb	r3, [r7, #135]	@ zero_extendqisi2
 3704 0320 0133     		adds	r3, r3, #1
 3705 0322 87F88730 		strb	r3, [r7, #135]
 3706              	.L195:
 771:printer.c     **** 	for(uint8 x = 0; x < 32; x ++){
 3707              		.loc 1 771 0 is_stmt 0 discriminator 1
 3708 0326 97F88730 		ldrb	r3, [r7, #135]	@ zero_extendqisi2
 3709 032a 1F2B     		cmp	r3, #31
 3710 032c EFD9     		bls	.L196
 3711              	.LBE77:
 773:printer.c     **** 	}
 774:printer.c     **** 	PRINTER_A_PutChar(LINE_FEED);
 3712              		.loc 1 774 0 is_stmt 1
 3713 032e 0C4B     		ldr	r3, .L346+32
 3714 0330 1B78     		ldrb	r3, [r3]	@ zero_extendqisi2
 3715 0332 1846     		mov	r0, r3
 3716 0334 FFF7FEFF 		bl	PRINTER_A_PutChar
 3717              	.LBB78:
 775:printer.c     **** 	for(uint8 x = 0; x < 32; x ++){
 3718              		.loc 1 775 0
 3719 0338 0023     		movs	r3, #0
 3720 033a 87F88630 		strb	r3, [r7, #134]
 3721 033e 23E0     		b	.L197
 3722              	.L347:
 3723              		.align	2
 3724              	.L346:
 3725 0340 00000000 		.word	ASK_TIME
 3726 0344 00000000 		.word	touch1
 3727 0348 00000000 		.word	int_shiftnumber
 3728 034c AD8BDB68 		.word	1759218605
 3729 0350 00000000 		.word	shift_number
 3730 0354 D34D6210 		.word	274877907
 3731 0358 1F85EB51 		.word	1374389535
 3732 035c 67666666 		.word	1717986919
 3733 0360 00000000 		.word	LINE_FEED
 3734 0364 00000000 		.word	msn_EDS
 3735 0368 00000000 		.word	msn_EDS2
 3736 036c 00000000 		.word	msn_EDS3
ARM GAS  C:\Users\Diego\AppData\Local\Temp\ccIAJaV8.s 			page 87


 3737              	.L198:
 776:printer.c     **** 		PRINTER_A_PutChar(msn_EDS4[x]);
 3738              		.loc 1 776 0 discriminator 3
 3739 0370 97F88630 		ldrb	r3, [r7, #134]	@ zero_extendqisi2
 3740 0374 C04A     		ldr	r2, .L348
 3741 0376 D35C     		ldrb	r3, [r2, r3]	@ zero_extendqisi2
 3742 0378 1846     		mov	r0, r3
 3743 037a FFF7FEFF 		bl	PRINTER_A_PutChar
 775:printer.c     **** 	for(uint8 x = 0; x < 32; x ++){
 3744              		.loc 1 775 0 discriminator 3
 3745 037e 97F88630 		ldrb	r3, [r7, #134]	@ zero_extendqisi2
 3746 0382 0133     		adds	r3, r3, #1
 3747 0384 87F88630 		strb	r3, [r7, #134]
 3748              	.L197:
 775:printer.c     **** 	for(uint8 x = 0; x < 32; x ++){
 3749              		.loc 1 775 0 is_stmt 0 discriminator 1
 3750 0388 97F88630 		ldrb	r3, [r7, #134]	@ zero_extendqisi2
 3751 038c 1F2B     		cmp	r3, #31
 3752 038e EFD9     		bls	.L198
 3753              	.LBE78:
 777:printer.c     **** 	}
 778:printer.c     ****     PRINTER_A_PutChar(LINE_FEED);
 3754              		.loc 1 778 0 is_stmt 1
 3755 0390 BA4B     		ldr	r3, .L348+4
 3756 0392 1B78     		ldrb	r3, [r3]	@ zero_extendqisi2
 3757 0394 1846     		mov	r0, r3
 3758 0396 FFF7FEFF 		bl	PRINTER_A_PutChar
 3759              	.LBB79:
 779:printer.c     **** 	for(uint8 x = 0; x < 32; x ++){
 3760              		.loc 1 779 0
 3761 039a 0023     		movs	r3, #0
 3762 039c 87F88530 		strb	r3, [r7, #133]
 3763 03a0 0BE0     		b	.L199
 3764              	.L200:
 780:printer.c     **** 		PRINTER_A_PutChar(msn_EDS5[x]);
 3765              		.loc 1 780 0 discriminator 3
 3766 03a2 97F88530 		ldrb	r3, [r7, #133]	@ zero_extendqisi2
 3767 03a6 B64A     		ldr	r2, .L348+8
 3768 03a8 D35C     		ldrb	r3, [r2, r3]	@ zero_extendqisi2
 3769 03aa 1846     		mov	r0, r3
 3770 03ac FFF7FEFF 		bl	PRINTER_A_PutChar
 779:printer.c     **** 	for(uint8 x = 0; x < 32; x ++){
 3771              		.loc 1 779 0 discriminator 3
 3772 03b0 97F88530 		ldrb	r3, [r7, #133]	@ zero_extendqisi2
 3773 03b4 0133     		adds	r3, r3, #1
 3774 03b6 87F88530 		strb	r3, [r7, #133]
 3775              	.L199:
 779:printer.c     **** 	for(uint8 x = 0; x < 32; x ++){
 3776              		.loc 1 779 0 is_stmt 0 discriminator 1
 3777 03ba 97F88530 		ldrb	r3, [r7, #133]	@ zero_extendqisi2
 3778 03be 1F2B     		cmp	r3, #31
 3779 03c0 EFD9     		bls	.L200
 3780              	.LBE79:
 781:printer.c     **** 	}
 782:printer.c     ****     PRINTER_A_PutChar(LINE_FEED);
 3781              		.loc 1 782 0 is_stmt 1
 3782 03c2 AE4B     		ldr	r3, .L348+4
ARM GAS  C:\Users\Diego\AppData\Local\Temp\ccIAJaV8.s 			page 88


 3783 03c4 1B78     		ldrb	r3, [r3]	@ zero_extendqisi2
 3784 03c6 1846     		mov	r0, r3
 3785 03c8 FFF7FEFF 		bl	PRINTER_A_PutChar
 3786              	.LBB80:
 783:printer.c     **** 	for(uint8 x = 0; x < 32; x ++){
 3787              		.loc 1 783 0
 3788 03cc 0023     		movs	r3, #0
 3789 03ce 87F88430 		strb	r3, [r7, #132]
 3790 03d2 0BE0     		b	.L201
 3791              	.L202:
 784:printer.c     **** 		PRINTER_A_PutChar(msn_EDS6[x]);
 3792              		.loc 1 784 0 discriminator 3
 3793 03d4 97F88430 		ldrb	r3, [r7, #132]	@ zero_extendqisi2
 3794 03d8 AA4A     		ldr	r2, .L348+12
 3795 03da D35C     		ldrb	r3, [r2, r3]	@ zero_extendqisi2
 3796 03dc 1846     		mov	r0, r3
 3797 03de FFF7FEFF 		bl	PRINTER_A_PutChar
 783:printer.c     **** 	for(uint8 x = 0; x < 32; x ++){
 3798              		.loc 1 783 0 discriminator 3
 3799 03e2 97F88430 		ldrb	r3, [r7, #132]	@ zero_extendqisi2
 3800 03e6 0133     		adds	r3, r3, #1
 3801 03e8 87F88430 		strb	r3, [r7, #132]
 3802              	.L201:
 783:printer.c     **** 	for(uint8 x = 0; x < 32; x ++){
 3803              		.loc 1 783 0 is_stmt 0 discriminator 1
 3804 03ec 97F88430 		ldrb	r3, [r7, #132]	@ zero_extendqisi2
 3805 03f0 1F2B     		cmp	r3, #31
 3806 03f2 EFD9     		bls	.L202
 3807              	.LBE80:
 785:printer.c     **** 	}
 786:printer.c     **** 	PRINTER_A_PutChar(LINE_FEED);  
 3808              		.loc 1 786 0 is_stmt 1
 3809 03f4 A14B     		ldr	r3, .L348+4
 3810 03f6 1B78     		ldrb	r3, [r3]	@ zero_extendqisi2
 3811 03f8 1846     		mov	r0, r3
 3812 03fa FFF7FEFF 		bl	PRINTER_A_PutChar
 3813              	.LBB81:
 787:printer.c     **** 	for(uint8 x = 0; x < 32; x ++){
 3814              		.loc 1 787 0
 3815 03fe 0023     		movs	r3, #0
 3816 0400 87F88330 		strb	r3, [r7, #131]
 3817 0404 0BE0     		b	.L203
 3818              	.L204:
 788:printer.c     **** 		PRINTER_A_PutChar(SEPARATOR[x]); //Separador de seccin
 3819              		.loc 1 788 0 discriminator 3
 3820 0406 97F88330 		ldrb	r3, [r7, #131]	@ zero_extendqisi2
 3821 040a 9F4A     		ldr	r2, .L348+16
 3822 040c D35C     		ldrb	r3, [r2, r3]	@ zero_extendqisi2
 3823 040e 1846     		mov	r0, r3
 3824 0410 FFF7FEFF 		bl	PRINTER_A_PutChar
 787:printer.c     **** 	for(uint8 x = 0; x < 32; x ++){
 3825              		.loc 1 787 0 discriminator 3
 3826 0414 97F88330 		ldrb	r3, [r7, #131]	@ zero_extendqisi2
 3827 0418 0133     		adds	r3, r3, #1
 3828 041a 87F88330 		strb	r3, [r7, #131]
 3829              	.L203:
 787:printer.c     **** 	for(uint8 x = 0; x < 32; x ++){
ARM GAS  C:\Users\Diego\AppData\Local\Temp\ccIAJaV8.s 			page 89


 3830              		.loc 1 787 0 is_stmt 0 discriminator 1
 3831 041e 97F88330 		ldrb	r3, [r7, #131]	@ zero_extendqisi2
 3832 0422 1F2B     		cmp	r3, #31
 3833 0424 EFD9     		bls	.L204
 3834              	.LBE81:
 789:printer.c     **** 	}
 790:printer.c     ****     PRINTER_A_PutChar(LINE_FEED);
 3835              		.loc 1 790 0 is_stmt 1
 3836 0426 954B     		ldr	r3, .L348+4
 3837 0428 1B78     		ldrb	r3, [r3]	@ zero_extendqisi2
 3838 042a 1846     		mov	r0, r3
 3839 042c FFF7FEFF 		bl	PRINTER_A_PutChar
 3840              	.LBB82:
 791:printer.c     ****     /********** FECHA ***************/
 792:printer.c     **** 	for(uint8 x = 0; x < 13; x ++){
 3841              		.loc 1 792 0
 3842 0430 0023     		movs	r3, #0
 3843 0432 87F88230 		strb	r3, [r7, #130]
 3844 0436 0BE0     		b	.L205
 3845              	.L206:
 793:printer.c     **** 		PRINTER_A_PutChar(msn_fecha[x]);
 3846              		.loc 1 793 0 discriminator 3
 3847 0438 97F88230 		ldrb	r3, [r7, #130]	@ zero_extendqisi2
 3848 043c 934A     		ldr	r2, .L348+20
 3849 043e D35C     		ldrb	r3, [r2, r3]	@ zero_extendqisi2
 3850 0440 1846     		mov	r0, r3
 3851 0442 FFF7FEFF 		bl	PRINTER_A_PutChar
 792:printer.c     **** 		PRINTER_A_PutChar(msn_fecha[x]);
 3852              		.loc 1 792 0 discriminator 3
 3853 0446 97F88230 		ldrb	r3, [r7, #130]	@ zero_extendqisi2
 3854 044a 0133     		adds	r3, r3, #1
 3855 044c 87F88230 		strb	r3, [r7, #130]
 3856              	.L205:
 792:printer.c     **** 		PRINTER_A_PutChar(msn_fecha[x]);
 3857              		.loc 1 792 0 is_stmt 0 discriminator 1
 3858 0450 97F88230 		ldrb	r3, [r7, #130]	@ zero_extendqisi2
 3859 0454 0C2B     		cmp	r3, #12
 3860 0456 EFD9     		bls	.L206
 3861              	.LBE82:
 794:printer.c     **** 	}
 795:printer.c     ****     PRINTER_A_PutChar(((touch1[8] >> 4) + 0x30)) ;
 3862              		.loc 1 795 0 is_stmt 1
 3863 0458 8D4B     		ldr	r3, .L348+24
 3864 045a 1B7A     		ldrb	r3, [r3, #8]	@ zero_extendqisi2
 3865 045c 1B09     		lsrs	r3, r3, #4
 3866 045e DBB2     		uxtb	r3, r3
 3867 0460 3033     		adds	r3, r3, #48
 3868 0462 DBB2     		uxtb	r3, r3
 3869 0464 1846     		mov	r0, r3
 3870 0466 FFF7FEFF 		bl	PRINTER_A_PutChar
 796:printer.c     **** 	PRINTER_A_PutChar(((touch1[8] & 0x0F) + 0x30));
 3871              		.loc 1 796 0
 3872 046a 894B     		ldr	r3, .L348+24
 3873 046c 1B7A     		ldrb	r3, [r3, #8]	@ zero_extendqisi2
 3874 046e 03F00F03 		and	r3, r3, #15
 3875 0472 DBB2     		uxtb	r3, r3
 3876 0474 3033     		adds	r3, r3, #48
ARM GAS  C:\Users\Diego\AppData\Local\Temp\ccIAJaV8.s 			page 90


 3877 0476 DBB2     		uxtb	r3, r3
 3878 0478 1846     		mov	r0, r3
 3879 047a FFF7FEFF 		bl	PRINTER_A_PutChar
 797:printer.c     ****     PRINTER_A_PutChar('/');
 3880              		.loc 1 797 0
 3881 047e 2F20     		movs	r0, #47
 3882 0480 FFF7FEFF 		bl	PRINTER_A_PutChar
 798:printer.c     ****     PRINTER_A_PutChar(((touch1[7] >> 4) + 0x30)) ;
 3883              		.loc 1 798 0
 3884 0484 824B     		ldr	r3, .L348+24
 3885 0486 DB79     		ldrb	r3, [r3, #7]	@ zero_extendqisi2
 3886 0488 1B09     		lsrs	r3, r3, #4
 3887 048a DBB2     		uxtb	r3, r3
 3888 048c 3033     		adds	r3, r3, #48
 3889 048e DBB2     		uxtb	r3, r3
 3890 0490 1846     		mov	r0, r3
 3891 0492 FFF7FEFF 		bl	PRINTER_A_PutChar
 799:printer.c     ****     PRINTER_A_PutChar(((touch1[7] & 0x0F) + 0x30));
 3892              		.loc 1 799 0
 3893 0496 7E4B     		ldr	r3, .L348+24
 3894 0498 DB79     		ldrb	r3, [r3, #7]	@ zero_extendqisi2
 3895 049a 03F00F03 		and	r3, r3, #15
 3896 049e DBB2     		uxtb	r3, r3
 3897 04a0 3033     		adds	r3, r3, #48
 3898 04a2 DBB2     		uxtb	r3, r3
 3899 04a4 1846     		mov	r0, r3
 3900 04a6 FFF7FEFF 		bl	PRINTER_A_PutChar
 800:printer.c     ****     PRINTER_A_PutChar('/');
 3901              		.loc 1 800 0
 3902 04aa 2F20     		movs	r0, #47
 3903 04ac FFF7FEFF 		bl	PRINTER_A_PutChar
 801:printer.c     ****     PRINTER_A_PutChar(((touch1[6] >> 4) + 0x30));
 3904              		.loc 1 801 0
 3905 04b0 774B     		ldr	r3, .L348+24
 3906 04b2 9B79     		ldrb	r3, [r3, #6]	@ zero_extendqisi2
 3907 04b4 1B09     		lsrs	r3, r3, #4
 3908 04b6 DBB2     		uxtb	r3, r3
 3909 04b8 3033     		adds	r3, r3, #48
 3910 04ba DBB2     		uxtb	r3, r3
 3911 04bc 1846     		mov	r0, r3
 3912 04be FFF7FEFF 		bl	PRINTER_A_PutChar
 802:printer.c     ****     PRINTER_A_PutChar(((touch1[6] & 0x0F) + 0x30));
 3913              		.loc 1 802 0
 3914 04c2 734B     		ldr	r3, .L348+24
 3915 04c4 9B79     		ldrb	r3, [r3, #6]	@ zero_extendqisi2
 3916 04c6 03F00F03 		and	r3, r3, #15
 3917 04ca DBB2     		uxtb	r3, r3
 3918 04cc 3033     		adds	r3, r3, #48
 3919 04ce DBB2     		uxtb	r3, r3
 3920 04d0 1846     		mov	r0, r3
 3921 04d2 FFF7FEFF 		bl	PRINTER_A_PutChar
 803:printer.c     **** 
 804:printer.c     **** 	PRINTER_A_PutChar(LINE_FEED);
 3922              		.loc 1 804 0
 3923 04d6 694B     		ldr	r3, .L348+4
 3924 04d8 1B78     		ldrb	r3, [r3]	@ zero_extendqisi2
 3925 04da 1846     		mov	r0, r3
ARM GAS  C:\Users\Diego\AppData\Local\Temp\ccIAJaV8.s 			page 91


 3926 04dc FFF7FEFF 		bl	PRINTER_A_PutChar
 3927              	.LBB83:
 805:printer.c     ****     /********** HORA ***************/
 806:printer.c     **** 	for(uint8 x = 0; x < 13; x ++){
 3928              		.loc 1 806 0
 3929 04e0 0023     		movs	r3, #0
 3930 04e2 87F88130 		strb	r3, [r7, #129]
 3931 04e6 0BE0     		b	.L207
 3932              	.L208:
 807:printer.c     **** 		PRINTER_A_PutChar(msn_hora[x]);
 3933              		.loc 1 807 0 discriminator 3
 3934 04e8 97F88130 		ldrb	r3, [r7, #129]	@ zero_extendqisi2
 3935 04ec 694A     		ldr	r2, .L348+28
 3936 04ee D35C     		ldrb	r3, [r2, r3]	@ zero_extendqisi2
 3937 04f0 1846     		mov	r0, r3
 3938 04f2 FFF7FEFF 		bl	PRINTER_A_PutChar
 806:printer.c     **** 		PRINTER_A_PutChar(msn_hora[x]);
 3939              		.loc 1 806 0 discriminator 3
 3940 04f6 97F88130 		ldrb	r3, [r7, #129]	@ zero_extendqisi2
 3941 04fa 0133     		adds	r3, r3, #1
 3942 04fc 87F88130 		strb	r3, [r7, #129]
 3943              	.L207:
 806:printer.c     **** 		PRINTER_A_PutChar(msn_hora[x]);
 3944              		.loc 1 806 0 is_stmt 0 discriminator 1
 3945 0500 97F88130 		ldrb	r3, [r7, #129]	@ zero_extendqisi2
 3946 0504 0C2B     		cmp	r3, #12
 3947 0506 EFD9     		bls	.L208
 3948              	.LBE83:
 808:printer.c     **** 	}
 809:printer.c     ****     PRINTER_A_PutChar(((touch1[10] >> 4) + 0x30)) ;
 3949              		.loc 1 809 0 is_stmt 1
 3950 0508 614B     		ldr	r3, .L348+24
 3951 050a 9B7A     		ldrb	r3, [r3, #10]	@ zero_extendqisi2
 3952 050c 1B09     		lsrs	r3, r3, #4
 3953 050e DBB2     		uxtb	r3, r3
 3954 0510 3033     		adds	r3, r3, #48
 3955 0512 DBB2     		uxtb	r3, r3
 3956 0514 1846     		mov	r0, r3
 3957 0516 FFF7FEFF 		bl	PRINTER_A_PutChar
 810:printer.c     ****     PRINTER_A_PutChar(((touch1[10] & 0x0F) + 0x30));
 3958              		.loc 1 810 0
 3959 051a 5D4B     		ldr	r3, .L348+24
 3960 051c 9B7A     		ldrb	r3, [r3, #10]	@ zero_extendqisi2
 3961 051e 03F00F03 		and	r3, r3, #15
 3962 0522 DBB2     		uxtb	r3, r3
 3963 0524 3033     		adds	r3, r3, #48
 3964 0526 DBB2     		uxtb	r3, r3
 3965 0528 1846     		mov	r0, r3
 3966 052a FFF7FEFF 		bl	PRINTER_A_PutChar
 811:printer.c     ****     PRINTER_A_PutChar(':');
 3967              		.loc 1 811 0
 3968 052e 3A20     		movs	r0, #58
 3969 0530 FFF7FEFF 		bl	PRINTER_A_PutChar
 812:printer.c     ****     PRINTER_A_PutChar(((touch1[11] >> 4) + 0x30)) ;
 3970              		.loc 1 812 0
 3971 0534 564B     		ldr	r3, .L348+24
 3972 0536 DB7A     		ldrb	r3, [r3, #11]	@ zero_extendqisi2
ARM GAS  C:\Users\Diego\AppData\Local\Temp\ccIAJaV8.s 			page 92


 3973 0538 1B09     		lsrs	r3, r3, #4
 3974 053a DBB2     		uxtb	r3, r3
 3975 053c 3033     		adds	r3, r3, #48
 3976 053e DBB2     		uxtb	r3, r3
 3977 0540 1846     		mov	r0, r3
 3978 0542 FFF7FEFF 		bl	PRINTER_A_PutChar
 813:printer.c     ****     PRINTER_A_PutChar(((touch1[11] & 0x0F) + 0x30));
 3979              		.loc 1 813 0
 3980 0546 524B     		ldr	r3, .L348+24
 3981 0548 DB7A     		ldrb	r3, [r3, #11]	@ zero_extendqisi2
 3982 054a 03F00F03 		and	r3, r3, #15
 3983 054e DBB2     		uxtb	r3, r3
 3984 0550 3033     		adds	r3, r3, #48
 3985 0552 DBB2     		uxtb	r3, r3
 3986 0554 1846     		mov	r0, r3
 3987 0556 FFF7FEFF 		bl	PRINTER_A_PutChar
 814:printer.c     ****     PRINTER_A_PutChar(':');
 3988              		.loc 1 814 0
 3989 055a 3A20     		movs	r0, #58
 3990 055c FFF7FEFF 		bl	PRINTER_A_PutChar
 815:printer.c     ****     PRINTER_A_PutChar(((touch1[12] >> 4) + 0x30));
 3991              		.loc 1 815 0
 3992 0560 4B4B     		ldr	r3, .L348+24
 3993 0562 1B7B     		ldrb	r3, [r3, #12]	@ zero_extendqisi2
 3994 0564 1B09     		lsrs	r3, r3, #4
 3995 0566 DBB2     		uxtb	r3, r3
 3996 0568 3033     		adds	r3, r3, #48
 3997 056a DBB2     		uxtb	r3, r3
 3998 056c 1846     		mov	r0, r3
 3999 056e FFF7FEFF 		bl	PRINTER_A_PutChar
 816:printer.c     **** 	PRINTER_A_PutChar(((touch1[12] & 0x0F) + 0x30));
 4000              		.loc 1 816 0
 4001 0572 474B     		ldr	r3, .L348+24
 4002 0574 1B7B     		ldrb	r3, [r3, #12]	@ zero_extendqisi2
 4003 0576 03F00F03 		and	r3, r3, #15
 4004 057a DBB2     		uxtb	r3, r3
 4005 057c 3033     		adds	r3, r3, #48
 4006 057e DBB2     		uxtb	r3, r3
 4007 0580 1846     		mov	r0, r3
 4008 0582 FFF7FEFF 		bl	PRINTER_A_PutChar
 817:printer.c     ****     PRINTER_A_PutChar(LINE_FEED);
 4009              		.loc 1 817 0
 4010 0586 3D4B     		ldr	r3, .L348+4
 4011 0588 1B78     		ldrb	r3, [r3]	@ zero_extendqisi2
 4012 058a 1846     		mov	r0, r3
 4013 058c FFF7FEFF 		bl	PRINTER_A_PutChar
 4014              	.LBB84:
 818:printer.c     ****     for(uint8 x = 0; x < 32; x ++){
 4015              		.loc 1 818 0
 4016 0590 0023     		movs	r3, #0
 4017 0592 87F88030 		strb	r3, [r7, #128]
 4018 0596 0BE0     		b	.L209
 4019              	.L210:
 819:printer.c     **** 		PRINTER_A_PutChar(SEPARATOR[x]);
 4020              		.loc 1 819 0 discriminator 3
 4021 0598 97F88030 		ldrb	r3, [r7, #128]	@ zero_extendqisi2
 4022 059c 3A4A     		ldr	r2, .L348+16
ARM GAS  C:\Users\Diego\AppData\Local\Temp\ccIAJaV8.s 			page 93


 4023 059e D35C     		ldrb	r3, [r2, r3]	@ zero_extendqisi2
 4024 05a0 1846     		mov	r0, r3
 4025 05a2 FFF7FEFF 		bl	PRINTER_A_PutChar
 818:printer.c     ****     for(uint8 x = 0; x < 32; x ++){
 4026              		.loc 1 818 0 discriminator 3
 4027 05a6 97F88030 		ldrb	r3, [r7, #128]	@ zero_extendqisi2
 4028 05aa 0133     		adds	r3, r3, #1
 4029 05ac 87F88030 		strb	r3, [r7, #128]
 4030              	.L209:
 818:printer.c     ****     for(uint8 x = 0; x < 32; x ++){
 4031              		.loc 1 818 0 is_stmt 0 discriminator 1
 4032 05b0 97F88030 		ldrb	r3, [r7, #128]	@ zero_extendqisi2
 4033 05b4 1F2B     		cmp	r3, #31
 4034 05b6 EFD9     		bls	.L210
 4035              	.LBE84:
 820:printer.c     **** 	} 
 821:printer.c     ****     PRINTER_A_PutChar(LINE_FEED);
 4036              		.loc 1 821 0 is_stmt 1
 4037 05b8 304B     		ldr	r3, .L348+4
 4038 05ba 1B78     		ldrb	r3, [r3]	@ zero_extendqisi2
 4039 05bc 1846     		mov	r0, r3
 4040 05be FFF7FEFF 		bl	PRINTER_A_PutChar
 4041              	.LBB85:
 822:printer.c     ****     ////////////////////////////////////////
 823:printer.c     **** 	for(uint8 x = 0; x < 13; x ++){
 4042              		.loc 1 823 0
 4043 05c2 0023     		movs	r3, #0
 4044 05c4 87F87F30 		strb	r3, [r7, #127]
 4045 05c8 0BE0     		b	.L211
 4046              	.L212:
 824:printer.c     **** 		PRINTER_A_PutChar(msn_cierre[x]);
 4047              		.loc 1 824 0 discriminator 3
 4048 05ca 97F87F30 		ldrb	r3, [r7, #127]	@ zero_extendqisi2
 4049 05ce 324A     		ldr	r2, .L348+32
 4050 05d0 D35C     		ldrb	r3, [r2, r3]	@ zero_extendqisi2
 4051 05d2 1846     		mov	r0, r3
 4052 05d4 FFF7FEFF 		bl	PRINTER_A_PutChar
 823:printer.c     **** 		PRINTER_A_PutChar(msn_cierre[x]);
 4053              		.loc 1 823 0 discriminator 3
 4054 05d8 97F87F30 		ldrb	r3, [r7, #127]	@ zero_extendqisi2
 4055 05dc 0133     		adds	r3, r3, #1
 4056 05de 87F87F30 		strb	r3, [r7, #127]
 4057              	.L211:
 823:printer.c     **** 		PRINTER_A_PutChar(msn_cierre[x]);
 4058              		.loc 1 823 0 is_stmt 0 discriminator 1
 4059 05e2 97F87F30 		ldrb	r3, [r7, #127]	@ zero_extendqisi2
 4060 05e6 0C2B     		cmp	r3, #12
 4061 05e8 EFD9     		bls	.L212
 4062              	.LBE85:
 4063              	.LBB86:
 825:printer.c     **** 	}     
 826:printer.c     **** 	for(uint8 x = 5; x > 0; x --){
 4064              		.loc 1 826 0 is_stmt 1
 4065 05ea 0523     		movs	r3, #5
 4066 05ec 87F87E30 		strb	r3, [r7, #126]
 4067 05f0 0BE0     		b	.L213
 4068              	.L214:
ARM GAS  C:\Users\Diego\AppData\Local\Temp\ccIAJaV8.s 			page 94


 827:printer.c     **** 		PRINTER_A_PutChar(shift_number[x]);   //Nmero de cierre
 4069              		.loc 1 827 0 discriminator 3
 4070 05f2 97F87E30 		ldrb	r3, [r7, #126]	@ zero_extendqisi2
 4071 05f6 294A     		ldr	r2, .L348+36
 4072 05f8 D35C     		ldrb	r3, [r2, r3]	@ zero_extendqisi2
 4073 05fa 1846     		mov	r0, r3
 4074 05fc FFF7FEFF 		bl	PRINTER_A_PutChar
 826:printer.c     **** 		PRINTER_A_PutChar(shift_number[x]);   //Nmero de cierre
 4075              		.loc 1 826 0 discriminator 3
 4076 0600 97F87E30 		ldrb	r3, [r7, #126]	@ zero_extendqisi2
 4077 0604 013B     		subs	r3, r3, #1
 4078 0606 87F87E30 		strb	r3, [r7, #126]
 4079              	.L213:
 826:printer.c     **** 		PRINTER_A_PutChar(shift_number[x]);   //Nmero de cierre
 4080              		.loc 1 826 0 is_stmt 0 discriminator 1
 4081 060a 97F87E30 		ldrb	r3, [r7, #126]	@ zero_extendqisi2
 4082 060e 002B     		cmp	r3, #0
 4083 0610 EFD1     		bne	.L214
 4084              	.LBE86:
 828:printer.c     **** 	}
 829:printer.c     ****     
 830:printer.c     ****     PRINTER_A_PutChar(LINE_FEED);
 4085              		.loc 1 830 0 is_stmt 1
 4086 0612 1A4B     		ldr	r3, .L348+4
 4087 0614 1B78     		ldrb	r3, [r3]	@ zero_extendqisi2
 4088 0616 1846     		mov	r0, r3
 4089 0618 FFF7FEFF 		bl	PRINTER_A_PutChar
 831:printer.c     ****     PRINTER_A_PutChar(LINE_FEED);
 4090              		.loc 1 831 0
 4091 061c 174B     		ldr	r3, .L348+4
 4092 061e 1B78     		ldrb	r3, [r3]	@ zero_extendqisi2
 4093 0620 1846     		mov	r0, r3
 4094 0622 FFF7FEFF 		bl	PRINTER_A_PutChar
 4095              	.LBB87:
 832:printer.c     ****     
 833:printer.c     ****     for(uint8 x = 0; x < 13; x ++){
 4096              		.loc 1 833 0
 4097 0626 0023     		movs	r3, #0
 4098 0628 87F87D30 		strb	r3, [r7, #125]
 4099 062c 0BE0     		b	.L215
 4100              	.L216:
 834:printer.c     ****         PRINTER_A_PutChar(msn_pos[x]);
 4101              		.loc 1 834 0 discriminator 3
 4102 062e 97F87D30 		ldrb	r3, [r7, #125]	@ zero_extendqisi2
 4103 0632 1B4A     		ldr	r2, .L348+40
 4104 0634 D35C     		ldrb	r3, [r2, r3]	@ zero_extendqisi2
 4105 0636 1846     		mov	r0, r3
 4106 0638 FFF7FEFF 		bl	PRINTER_A_PutChar
 833:printer.c     ****         PRINTER_A_PutChar(msn_pos[x]);
 4107              		.loc 1 833 0 discriminator 3
 4108 063c 97F87D30 		ldrb	r3, [r7, #125]	@ zero_extendqisi2
 4109 0640 0133     		adds	r3, r3, #1
 4110 0642 87F87D30 		strb	r3, [r7, #125]
 4111              	.L215:
 833:printer.c     ****         PRINTER_A_PutChar(msn_pos[x]);
 4112              		.loc 1 833 0 is_stmt 0 discriminator 1
 4113 0646 97F87D30 		ldrb	r3, [r7, #125]	@ zero_extendqisi2
ARM GAS  C:\Users\Diego\AppData\Local\Temp\ccIAJaV8.s 			page 95


 4114 064a 0C2B     		cmp	r3, #12
 4115 064c EFD9     		bls	.L216
 4116              	.LBE87:
 835:printer.c     ****     }
 836:printer.c     ****     PRINTER_A_PutChar(side.a.dir + 0x31);
 4117              		.loc 1 836 0 is_stmt 1
 4118 064e 154B     		ldr	r3, .L348+44
 4119 0650 1B78     		ldrb	r3, [r3]	@ zero_extendqisi2
 4120 0652 3133     		adds	r3, r3, #49
 4121 0654 DBB2     		uxtb	r3, r3
 4122 0656 1846     		mov	r0, r3
 4123 0658 FFF7FEFF 		bl	PRINTER_A_PutChar
 837:printer.c     ****     PRINTER_A_PutChar(LINE_FEED);
 4124              		.loc 1 837 0
 4125 065c 074B     		ldr	r3, .L348+4
 4126 065e 1B78     		ldrb	r3, [r3]	@ zero_extendqisi2
 4127 0660 1846     		mov	r0, r3
 4128 0662 FFF7FEFF 		bl	PRINTER_A_PutChar
 838:printer.c     ****     PRINTER_A_PutChar(LINE_FEED);
 4129              		.loc 1 838 0
 4130 0666 054B     		ldr	r3, .L348+4
 4131 0668 1B78     		ldrb	r3, [r3]	@ zero_extendqisi2
 4132 066a 1846     		mov	r0, r3
 4133 066c FFF7FEFF 		bl	PRINTER_A_PutChar
 4134              	.LBB88:
 839:printer.c     **** 	for(uint8 x = 0; x < 16; x ++){
 4135              		.loc 1 839 0
 4136 0670 0023     		movs	r3, #0
 4137 0672 87F87C30 		strb	r3, [r7, #124]
 4138 0676 23E0     		b	.L217
 4139              	.L349:
 4140              		.align	2
 4141              	.L348:
 4142 0678 00000000 		.word	msn_EDS4
 4143 067c 00000000 		.word	LINE_FEED
 4144 0680 00000000 		.word	msn_EDS5
 4145 0684 00000000 		.word	msn_EDS6
 4146 0688 00000000 		.word	SEPARATOR
 4147 068c 00000000 		.word	msn_fecha
 4148 0690 00000000 		.word	touch1
 4149 0694 00000000 		.word	msn_hora
 4150 0698 00000000 		.word	msn_cierre
 4151 069c 00000000 		.word	shift_number
 4152 06a0 00000000 		.word	msn_pos
 4153 06a4 00000000 		.word	side
 4154              	.L218:
 840:printer.c     **** 		PRINTER_A_PutChar(msn_lecact[x]);
 4155              		.loc 1 840 0 discriminator 3
 4156 06a8 97F87C30 		ldrb	r3, [r7, #124]	@ zero_extendqisi2
 4157 06ac C94A     		ldr	r2, .L350
 4158 06ae D35C     		ldrb	r3, [r2, r3]	@ zero_extendqisi2
 4159 06b0 1846     		mov	r0, r3
 4160 06b2 FFF7FEFF 		bl	PRINTER_A_PutChar
 839:printer.c     **** 	for(uint8 x = 0; x < 16; x ++){
 4161              		.loc 1 839 0 discriminator 3
 4162 06b6 97F87C30 		ldrb	r3, [r7, #124]	@ zero_extendqisi2
 4163 06ba 0133     		adds	r3, r3, #1
ARM GAS  C:\Users\Diego\AppData\Local\Temp\ccIAJaV8.s 			page 96


 4164 06bc 87F87C30 		strb	r3, [r7, #124]
 4165              	.L217:
 839:printer.c     **** 	for(uint8 x = 0; x < 16; x ++){
 4166              		.loc 1 839 0 is_stmt 0 discriminator 1
 4167 06c0 97F87C30 		ldrb	r3, [r7, #124]	@ zero_extendqisi2
 4168 06c4 0F2B     		cmp	r3, #15
 4169 06c6 EFD9     		bls	.L218
 4170              	.LBE88:
 841:printer.c     **** 	}
 842:printer.c     **** 	PRINTER_A_PutChar(LINE_FEED);
 4171              		.loc 1 842 0 is_stmt 1
 4172 06c8 C34B     		ldr	r3, .L350+4
 4173 06ca 1B78     		ldrb	r3, [r3]	@ zero_extendqisi2
 4174 06cc 1846     		mov	r0, r3
 4175 06ce FFF7FEFF 		bl	PRINTER_A_PutChar
 4176              	.LBB89:
 843:printer.c     ****     
 844:printer.c     ****     for(uint8 x = 0; x < 13; x ++){
 4177              		.loc 1 844 0
 4178 06d2 0023     		movs	r3, #0
 4179 06d4 87F87B30 		strb	r3, [r7, #123]
 4180 06d8 0BE0     		b	.L219
 4181              	.L220:
 845:printer.c     **** 		PRINTER_A_PutChar(msn_product[x]);
 4182              		.loc 1 845 0 discriminator 3
 4183 06da 97F87B30 		ldrb	r3, [r7, #123]	@ zero_extendqisi2
 4184 06de BF4A     		ldr	r2, .L350+8
 4185 06e0 D35C     		ldrb	r3, [r2, r3]	@ zero_extendqisi2
 4186 06e2 1846     		mov	r0, r3
 4187 06e4 FFF7FEFF 		bl	PRINTER_A_PutChar
 844:printer.c     **** 		PRINTER_A_PutChar(msn_product[x]);
 4188              		.loc 1 844 0 discriminator 3
 4189 06e8 97F87B30 		ldrb	r3, [r7, #123]	@ zero_extendqisi2
 4190 06ec 0133     		adds	r3, r3, #1
 4191 06ee 87F87B30 		strb	r3, [r7, #123]
 4192              	.L219:
 844:printer.c     **** 		PRINTER_A_PutChar(msn_product[x]);
 4193              		.loc 1 844 0 is_stmt 0 discriminator 1
 4194 06f2 97F87B30 		ldrb	r3, [r7, #123]	@ zero_extendqisi2
 4195 06f6 0C2B     		cmp	r3, #12
 4196 06f8 EFD9     		bls	.L220
 4197              	.LBE89:
 846:printer.c     **** 	}
 847:printer.c     **** 	PRINTER_A_PutChar(LINE_FEED);	
 4198              		.loc 1 847 0 is_stmt 1
 4199 06fa B74B     		ldr	r3, .L350+4
 4200 06fc 1B78     		ldrb	r3, [r3]	@ zero_extendqisi2
 4201 06fe 1846     		mov	r0, r3
 4202 0700 FFF7FEFF 		bl	PRINTER_A_PutChar
 4203              	.LBB90:
 848:printer.c     **** 	for(uint8 x = 0; x < 9; x ++){
 4204              		.loc 1 848 0
 4205 0704 0023     		movs	r3, #0
 4206 0706 87F87A30 		strb	r3, [r7, #122]
 4207 070a 0BE0     		b	.L221
 4208              	.L222:
 849:printer.c     **** 		PRINTER_A_PutChar(msn_diesel[x]);
ARM GAS  C:\Users\Diego\AppData\Local\Temp\ccIAJaV8.s 			page 97


 4209              		.loc 1 849 0 discriminator 3
 4210 070c 97F87A30 		ldrb	r3, [r7, #122]	@ zero_extendqisi2
 4211 0710 B34A     		ldr	r2, .L350+12
 4212 0712 D35C     		ldrb	r3, [r2, r3]	@ zero_extendqisi2
 4213 0714 1846     		mov	r0, r3
 4214 0716 FFF7FEFF 		bl	PRINTER_A_PutChar
 848:printer.c     **** 	for(uint8 x = 0; x < 9; x ++){
 4215              		.loc 1 848 0 discriminator 3
 4216 071a 97F87A30 		ldrb	r3, [r7, #122]	@ zero_extendqisi2
 4217 071e 0133     		adds	r3, r3, #1
 4218 0720 87F87A30 		strb	r3, [r7, #122]
 4219              	.L221:
 848:printer.c     **** 	for(uint8 x = 0; x < 9; x ++){
 4220              		.loc 1 848 0 is_stmt 0 discriminator 1
 4221 0724 97F87A30 		ldrb	r3, [r7, #122]	@ zero_extendqisi2
 4222 0728 082B     		cmp	r3, #8
 4223 072a EFD9     		bls	.L222
 4224              	.LBE90:
 4225              	.LBB91:
 850:printer.c     **** 	}
 851:printer.c     ****     for(uint8 x = 0; x < 10; x ++){ 
 4226              		.loc 1 851 0 is_stmt 1
 4227 072c 0023     		movs	r3, #0
 4228 072e 87F87930 		strb	r3, [r7, #121]
 4229 0732 18E0     		b	.L223
 4230              	.L225:
 852:printer.c     ****         if((10-x) == DecVol)
 4231              		.loc 1 852 0
 4232 0734 97F87930 		ldrb	r3, [r7, #121]	@ zero_extendqisi2
 4233 0738 C3F10A03 		rsb	r3, r3, #10
 4234 073c A94A     		ldr	r2, .L350+16
 4235 073e 1278     		ldrb	r2, [r2]	@ zero_extendqisi2
 4236 0740 9342     		cmp	r3, r2
 4237 0742 02D1     		bne	.L224
 853:printer.c     ****             PRINTER_A_PutChar('.');
 4238              		.loc 1 853 0
 4239 0744 2E20     		movs	r0, #46
 4240 0746 FFF7FEFF 		bl	PRINTER_A_PutChar
 4241              	.L224:
 854:printer.c     ****         PRINTER_A_PutChar(side.a.ProcessedTotals[0][0][x]);
 4242              		.loc 1 854 0 discriminator 2
 4243 074a 97F87930 		ldrb	r3, [r7, #121]	@ zero_extendqisi2
 4244 074e A64A     		ldr	r2, .L350+20
 4245 0750 1344     		add	r3, r3, r2
 4246 0752 93F88330 		ldrb	r3, [r3, #131]	@ zero_extendqisi2
 4247 0756 1846     		mov	r0, r3
 4248 0758 FFF7FEFF 		bl	PRINTER_A_PutChar
 851:printer.c     ****         if((10-x) == DecVol)
 4249              		.loc 1 851 0 discriminator 2
 4250 075c 97F87930 		ldrb	r3, [r7, #121]	@ zero_extendqisi2
 4251 0760 0133     		adds	r3, r3, #1
 4252 0762 87F87930 		strb	r3, [r7, #121]
 4253              	.L223:
 851:printer.c     ****         if((10-x) == DecVol)
 4254              		.loc 1 851 0 is_stmt 0 discriminator 1
 4255 0766 97F87930 		ldrb	r3, [r7, #121]	@ zero_extendqisi2
 4256 076a 092B     		cmp	r3, #9
ARM GAS  C:\Users\Diego\AppData\Local\Temp\ccIAJaV8.s 			page 98


 4257 076c E2D9     		bls	.L225
 4258              	.LBE91:
 855:printer.c     ****     }
 856:printer.c     ****     PRINTER_A_PutChar(LINE_FEED);
 4259              		.loc 1 856 0 is_stmt 1
 4260 076e 9A4B     		ldr	r3, .L350+4
 4261 0770 1B78     		ldrb	r3, [r3]	@ zero_extendqisi2
 4262 0772 1846     		mov	r0, r3
 4263 0774 FFF7FEFF 		bl	PRINTER_A_PutChar
 4264              	.LBB92:
 857:printer.c     ****     for(uint8 x = 0; x < 16; x ++){
 4265              		.loc 1 857 0
 4266 0778 0023     		movs	r3, #0
 4267 077a 87F87830 		strb	r3, [r7, #120]
 4268 077e 0BE0     		b	.L226
 4269              	.L227:
 858:printer.c     **** 		PRINTER_A_PutChar(msn_lecaan[x]);
 4270              		.loc 1 858 0 discriminator 3
 4271 0780 97F87830 		ldrb	r3, [r7, #120]	@ zero_extendqisi2
 4272 0784 994A     		ldr	r2, .L350+24
 4273 0786 D35C     		ldrb	r3, [r2, r3]	@ zero_extendqisi2
 4274 0788 1846     		mov	r0, r3
 4275 078a FFF7FEFF 		bl	PRINTER_A_PutChar
 857:printer.c     ****     for(uint8 x = 0; x < 16; x ++){
 4276              		.loc 1 857 0 discriminator 3
 4277 078e 97F87830 		ldrb	r3, [r7, #120]	@ zero_extendqisi2
 4278 0792 0133     		adds	r3, r3, #1
 4279 0794 87F87830 		strb	r3, [r7, #120]
 4280              	.L226:
 857:printer.c     ****     for(uint8 x = 0; x < 16; x ++){
 4281              		.loc 1 857 0 is_stmt 0 discriminator 1
 4282 0798 97F87830 		ldrb	r3, [r7, #120]	@ zero_extendqisi2
 4283 079c 0F2B     		cmp	r3, #15
 4284 079e EFD9     		bls	.L227
 4285              	.LBE92:
 859:printer.c     **** 	}
 860:printer.c     ****     PRINTER_A_PutChar(LINE_FEED);
 4286              		.loc 1 860 0 is_stmt 1
 4287 07a0 8D4B     		ldr	r3, .L350+4
 4288 07a2 1B78     		ldrb	r3, [r3]	@ zero_extendqisi2
 4289 07a4 1846     		mov	r0, r3
 4290 07a6 FFF7FEFF 		bl	PRINTER_A_PutChar
 4291              	.LBB93:
 861:printer.c     ****     for(uint8 x = 0; x < 10; x ++){
 4292              		.loc 1 861 0
 4293 07aa 0023     		movs	r3, #0
 4294 07ac 87F87730 		strb	r3, [r7, #119]
 4295 07b0 15E0     		b	.L228
 4296              	.L229:
 862:printer.c     ****         memoria[x] = EEPROM_1_ReadByte(36+x);
 4297              		.loc 1 862 0 discriminator 3
 4298 07b2 97F87740 		ldrb	r4, [r7, #119]	@ zero_extendqisi2
 4299 07b6 97F87730 		ldrb	r3, [r7, #119]	@ zero_extendqisi2
 4300 07ba 9BB2     		uxth	r3, r3
 4301 07bc 2433     		adds	r3, r3, #36
 4302 07be 9BB2     		uxth	r3, r3
 4303 07c0 1846     		mov	r0, r3
ARM GAS  C:\Users\Diego\AppData\Local\Temp\ccIAJaV8.s 			page 99


 4304 07c2 FFF7FEFF 		bl	EEPROM_1_ReadByte
 4305 07c6 0346     		mov	r3, r0
 4306 07c8 1A46     		mov	r2, r3
 4307 07ca 07F19003 		add	r3, r7, #144
 4308 07ce 2344     		add	r3, r3, r4
 4309 07d0 03F8802C 		strb	r2, [r3, #-128]
 861:printer.c     ****     for(uint8 x = 0; x < 10; x ++){
 4310              		.loc 1 861 0 discriminator 3
 4311 07d4 97F87730 		ldrb	r3, [r7, #119]	@ zero_extendqisi2
 4312 07d8 0133     		adds	r3, r3, #1
 4313 07da 87F87730 		strb	r3, [r7, #119]
 4314              	.L228:
 861:printer.c     ****     for(uint8 x = 0; x < 10; x ++){
 4315              		.loc 1 861 0 is_stmt 0 discriminator 1
 4316 07de 97F87730 		ldrb	r3, [r7, #119]	@ zero_extendqisi2
 4317 07e2 092B     		cmp	r3, #9
 4318 07e4 E5D9     		bls	.L229
 4319              	.LBE93:
 4320              	.LBB94:
 863:printer.c     ****     }
 864:printer.c     ****     for(uint8 x = 0; x < 10; x ++){ 
 4321              		.loc 1 864 0 is_stmt 1
 4322 07e6 0023     		movs	r3, #0
 4323 07e8 87F87630 		strb	r3, [r7, #118]
 4324 07ec 19E0     		b	.L230
 4325              	.L232:
 865:printer.c     ****         if((10-x) == DecVol)
 4326              		.loc 1 865 0
 4327 07ee 97F87630 		ldrb	r3, [r7, #118]	@ zero_extendqisi2
 4328 07f2 C3F10A03 		rsb	r3, r3, #10
 4329 07f6 7B4A     		ldr	r2, .L350+16
 4330 07f8 1278     		ldrb	r2, [r2]	@ zero_extendqisi2
 4331 07fa 9342     		cmp	r3, r2
 4332 07fc 02D1     		bne	.L231
 866:printer.c     ****             PRINTER_A_PutChar('.');
 4333              		.loc 1 866 0
 4334 07fe 2E20     		movs	r0, #46
 4335 0800 FFF7FEFF 		bl	PRINTER_A_PutChar
 4336              	.L231:
 867:printer.c     ****         PRINTER_A_PutChar(memoria[x]);
 4337              		.loc 1 867 0 discriminator 2
 4338 0804 97F87630 		ldrb	r3, [r7, #118]	@ zero_extendqisi2
 4339 0808 07F19002 		add	r2, r7, #144
 4340 080c 1344     		add	r3, r3, r2
 4341 080e 13F8803C 		ldrb	r3, [r3, #-128]	@ zero_extendqisi2
 4342 0812 1846     		mov	r0, r3
 4343 0814 FFF7FEFF 		bl	PRINTER_A_PutChar
 864:printer.c     ****         if((10-x) == DecVol)
 4344              		.loc 1 864 0 discriminator 2
 4345 0818 97F87630 		ldrb	r3, [r7, #118]	@ zero_extendqisi2
 4346 081c 0133     		adds	r3, r3, #1
 4347 081e 87F87630 		strb	r3, [r7, #118]
 4348              	.L230:
 864:printer.c     ****         if((10-x) == DecVol)
 4349              		.loc 1 864 0 is_stmt 0 discriminator 1
 4350 0822 97F87630 		ldrb	r3, [r7, #118]	@ zero_extendqisi2
 4351 0826 092B     		cmp	r3, #9
ARM GAS  C:\Users\Diego\AppData\Local\Temp\ccIAJaV8.s 			page 100


 4352 0828 E1D9     		bls	.L232
 4353              	.LBE94:
 4354              	.LBB95:
 868:printer.c     ****     }
 869:printer.c     ****     for(uint8 x = pos; x < 10; x++ ){
 4355              		.loc 1 869 0 is_stmt 1
 4356 082a 97F84330 		ldrb	r3, [r7, #67]
 4357 082e 87F87530 		strb	r3, [r7, #117]
 4358 0832 2DE0     		b	.L233
 4359              	.L234:
 870:printer.c     ****         lectactual[x-pos] = side.a.ProcessedTotals[0][0][x];
 4360              		.loc 1 870 0 discriminator 3
 4361 0834 97F87520 		ldrb	r2, [r7, #117]	@ zero_extendqisi2
 4362 0838 97F84330 		ldrb	r3, [r7, #67]	@ zero_extendqisi2
 4363 083c D31A     		subs	r3, r2, r3
 4364 083e 97F87520 		ldrb	r2, [r7, #117]	@ zero_extendqisi2
 4365 0842 6949     		ldr	r1, .L350+20
 4366 0844 0A44     		add	r2, r2, r1
 4367 0846 92F88320 		ldrb	r2, [r2, #131]	@ zero_extendqisi2
 4368 084a 07F19001 		add	r1, r7, #144
 4369 084e 0B44     		add	r3, r3, r1
 4370 0850 03F8742C 		strb	r2, [r3, #-116]
 871:printer.c     ****         lectanterior[x-pos] = memoria[x];
 4371              		.loc 1 871 0 discriminator 3
 4372 0854 97F87520 		ldrb	r2, [r7, #117]	@ zero_extendqisi2
 4373 0858 97F84330 		ldrb	r3, [r7, #67]	@ zero_extendqisi2
 4374 085c D31A     		subs	r3, r2, r3
 4375 085e 97F87520 		ldrb	r2, [r7, #117]	@ zero_extendqisi2
 4376 0862 07F19001 		add	r1, r7, #144
 4377 0866 0A44     		add	r2, r2, r1
 4378 0868 12F8802C 		ldrb	r2, [r2, #-128]	@ zero_extendqisi2
 4379 086c 07F19001 		add	r1, r7, #144
 4380 0870 0B44     		add	r3, r3, r1
 4381 0872 03F8682C 		strb	r2, [r3, #-104]
 872:printer.c     ****         resultado[x] = 0x00;
 4382              		.loc 1 872 0 discriminator 3
 4383 0876 97F87530 		ldrb	r3, [r7, #117]	@ zero_extendqisi2
 4384 087a 07F19002 		add	r2, r7, #144
 4385 087e 1344     		add	r3, r3, r2
 4386 0880 0022     		movs	r2, #0
 4387 0882 03F88C2C 		strb	r2, [r3, #-140]
 869:printer.c     ****         lectactual[x-pos] = side.a.ProcessedTotals[0][0][x];
 4388              		.loc 1 869 0 discriminator 3
 4389 0886 97F87530 		ldrb	r3, [r7, #117]	@ zero_extendqisi2
 4390 088a 0133     		adds	r3, r3, #1
 4391 088c 87F87530 		strb	r3, [r7, #117]
 4392              	.L233:
 869:printer.c     ****         lectactual[x-pos] = side.a.ProcessedTotals[0][0][x];
 4393              		.loc 1 869 0 is_stmt 0 discriminator 1
 4394 0890 97F87530 		ldrb	r3, [r7, #117]	@ zero_extendqisi2
 4395 0894 092B     		cmp	r3, #9
 4396 0896 CDD9     		bls	.L234
 4397              	.LBE95:
 873:printer.c     ****     }
 874:printer.c     ****     
 875:printer.c     ****     int d;
 876:printer.c     ****     anterior = sscanf(lectanterior,"%d",&d);
ARM GAS  C:\Users\Diego\AppData\Local\Temp\ccIAJaV8.s 			page 101


 4398              		.loc 1 876 0 is_stmt 1
 4399 0898 3A46     		mov	r2, r7
 4400 089a 07F12803 		add	r3, r7, #40
 4401 089e 5449     		ldr	r1, .L350+28
 4402 08a0 1846     		mov	r0, r3
 4403 08a2 FFF7FEFF 		bl	sscanf
 4404 08a6 F863     		str	r0, [r7, #60]
 877:printer.c     ****     actual = sscanf(lectactual,"%d",&d);
 4405              		.loc 1 877 0
 4406 08a8 3A46     		mov	r2, r7
 4407 08aa 07F11C03 		add	r3, r7, #28
 4408 08ae 5049     		ldr	r1, .L350+28
 4409 08b0 1846     		mov	r0, r3
 4410 08b2 FFF7FEFF 		bl	sscanf
 4411 08b6 B863     		str	r0, [r7, #56]
 878:printer.c     ****     resta =  actual - anterior;
 4412              		.loc 1 878 0
 4413 08b8 BA6B     		ldr	r2, [r7, #56]
 4414 08ba FB6B     		ldr	r3, [r7, #60]
 4415 08bc D31A     		subs	r3, r2, r3
 4416 08be 7B63     		str	r3, [r7, #52]
 879:printer.c     ****     //itoa(resta,resultado,10);
 880:printer.c     ****     sprintf(resultado, "%d", resta);
 4417              		.loc 1 880 0
 4418 08c0 3B1D     		adds	r3, r7, #4
 4419 08c2 7A6B     		ldr	r2, [r7, #52]
 4420 08c4 4A49     		ldr	r1, .L350+28
 4421 08c6 1846     		mov	r0, r3
 4422 08c8 FFF7FEFF 		bl	sprintf
 881:printer.c     ****     PRINTER_A_PutChar(LINE_FEED);
 4423              		.loc 1 881 0
 4424 08cc 424B     		ldr	r3, .L350+4
 4425 08ce 1B78     		ldrb	r3, [r3]	@ zero_extendqisi2
 4426 08d0 1846     		mov	r0, r3
 4427 08d2 FFF7FEFF 		bl	PRINTER_A_PutChar
 4428              	.LBB96:
 882:printer.c     ****     for(uint8 x = 0; x < 18; x ++){
 4429              		.loc 1 882 0
 4430 08d6 0023     		movs	r3, #0
 4431 08d8 87F87430 		strb	r3, [r7, #116]
 4432 08dc 0BE0     		b	.L235
 4433              	.L236:
 883:printer.c     ****         PRINTER_A_PutChar(msn_dif[x]);
 4434              		.loc 1 883 0 discriminator 3
 4435 08de 97F87430 		ldrb	r3, [r7, #116]	@ zero_extendqisi2
 4436 08e2 444A     		ldr	r2, .L350+32
 4437 08e4 D35C     		ldrb	r3, [r2, r3]	@ zero_extendqisi2
 4438 08e6 1846     		mov	r0, r3
 4439 08e8 FFF7FEFF 		bl	PRINTER_A_PutChar
 882:printer.c     ****     for(uint8 x = 0; x < 18; x ++){
 4440              		.loc 1 882 0 discriminator 3
 4441 08ec 97F87430 		ldrb	r3, [r7, #116]	@ zero_extendqisi2
 4442 08f0 0133     		adds	r3, r3, #1
 4443 08f2 87F87430 		strb	r3, [r7, #116]
 4444              	.L235:
 882:printer.c     ****     for(uint8 x = 0; x < 18; x ++){
 4445              		.loc 1 882 0 is_stmt 0 discriminator 1
ARM GAS  C:\Users\Diego\AppData\Local\Temp\ccIAJaV8.s 			page 102


 4446 08f6 97F87430 		ldrb	r3, [r7, #116]	@ zero_extendqisi2
 4447 08fa 112B     		cmp	r3, #17
 4448 08fc EFD9     		bls	.L236
 4449              	.LBE96:
 884:printer.c     ****     }
 885:printer.c     ****     PRINTER_A_PutChar(LINE_FEED);
 4450              		.loc 1 885 0 is_stmt 1
 4451 08fe 364B     		ldr	r3, .L350+4
 4452 0900 1B78     		ldrb	r3, [r3]	@ zero_extendqisi2
 4453 0902 1846     		mov	r0, r3
 4454 0904 FFF7FEFF 		bl	PRINTER_A_PutChar
 4455              	.LBB97:
 886:printer.c     ****     for(uint8 x = 0; x < 10; x ++){
 4456              		.loc 1 886 0
 4457 0908 0023     		movs	r3, #0
 4458 090a 87F87330 		strb	r3, [r7, #115]
 4459 090e 19E0     		b	.L237
 4460              	.L239:
 887:printer.c     ****         if((10-x) == DecVol)
 4461              		.loc 1 887 0
 4462 0910 97F87330 		ldrb	r3, [r7, #115]	@ zero_extendqisi2
 4463 0914 C3F10A03 		rsb	r3, r3, #10
 4464 0918 324A     		ldr	r2, .L350+16
 4465 091a 1278     		ldrb	r2, [r2]	@ zero_extendqisi2
 4466 091c 9342     		cmp	r3, r2
 4467 091e 02D1     		bne	.L238
 888:printer.c     ****             PRINTER_A_PutChar('.');
 4468              		.loc 1 888 0
 4469 0920 2E20     		movs	r0, #46
 4470 0922 FFF7FEFF 		bl	PRINTER_A_PutChar
 4471              	.L238:
 889:printer.c     ****         PRINTER_A_PutChar(resultado[x]);
 4472              		.loc 1 889 0 discriminator 2
 4473 0926 97F87330 		ldrb	r3, [r7, #115]	@ zero_extendqisi2
 4474 092a 07F19002 		add	r2, r7, #144
 4475 092e 1344     		add	r3, r3, r2
 4476 0930 13F88C3C 		ldrb	r3, [r3, #-140]	@ zero_extendqisi2
 4477 0934 1846     		mov	r0, r3
 4478 0936 FFF7FEFF 		bl	PRINTER_A_PutChar
 886:printer.c     ****         if((10-x) == DecVol)
 4479              		.loc 1 886 0 discriminator 2
 4480 093a 97F87330 		ldrb	r3, [r7, #115]	@ zero_extendqisi2
 4481 093e 0133     		adds	r3, r3, #1
 4482 0940 87F87330 		strb	r3, [r7, #115]
 4483              	.L237:
 886:printer.c     ****         if((10-x) == DecVol)
 4484              		.loc 1 886 0 is_stmt 0 discriminator 1
 4485 0944 97F87330 		ldrb	r3, [r7, #115]	@ zero_extendqisi2
 4486 0948 092B     		cmp	r3, #9
 4487 094a E1D9     		bls	.L239
 4488              	.LBE97:
 4489              	.LBB98:
 890:printer.c     ****     }
 891:printer.c     ****     for(uint8 x = 0; x < 10; x++){
 4490              		.loc 1 891 0 is_stmt 1
 4491 094c 0023     		movs	r3, #0
 4492 094e 87F87230 		strb	r3, [r7, #114]
ARM GAS  C:\Users\Diego\AppData\Local\Temp\ccIAJaV8.s 			page 103


 4493 0952 13E0     		b	.L240
 4494              	.L241:
 892:printer.c     ****         EEPROM_1_WriteByte(side.a.ProcessedTotals[0][0][x],36+x);        
 4495              		.loc 1 892 0 discriminator 3
 4496 0954 97F87230 		ldrb	r3, [r7, #114]	@ zero_extendqisi2
 4497 0958 234A     		ldr	r2, .L350+20
 4498 095a 1344     		add	r3, r3, r2
 4499 095c 93F88320 		ldrb	r2, [r3, #131]	@ zero_extendqisi2
 4500 0960 97F87230 		ldrb	r3, [r7, #114]	@ zero_extendqisi2
 4501 0964 9BB2     		uxth	r3, r3
 4502 0966 2433     		adds	r3, r3, #36
 4503 0968 9BB2     		uxth	r3, r3
 4504 096a 1946     		mov	r1, r3
 4505 096c 1046     		mov	r0, r2
 4506 096e FFF7FEFF 		bl	EEPROM_1_WriteByte
 891:printer.c     ****         EEPROM_1_WriteByte(side.a.ProcessedTotals[0][0][x],36+x);        
 4507              		.loc 1 891 0 discriminator 3
 4508 0972 97F87230 		ldrb	r3, [r7, #114]	@ zero_extendqisi2
 4509 0976 0133     		adds	r3, r3, #1
 4510 0978 87F87230 		strb	r3, [r7, #114]
 4511              	.L240:
 891:printer.c     ****         EEPROM_1_WriteByte(side.a.ProcessedTotals[0][0][x],36+x);        
 4512              		.loc 1 891 0 is_stmt 0 discriminator 1
 4513 097c 97F87230 		ldrb	r3, [r7, #114]	@ zero_extendqisi2
 4514 0980 092B     		cmp	r3, #9
 4515 0982 E7D9     		bls	.L241
 4516              	.LBE98:
 893:printer.c     ****     }
 894:printer.c     ****     PRINTER_A_PutChar(LINE_FEED);
 4517              		.loc 1 894 0 is_stmt 1
 4518 0984 144B     		ldr	r3, .L350+4
 4519 0986 1B78     		ldrb	r3, [r3]	@ zero_extendqisi2
 4520 0988 1846     		mov	r0, r3
 4521 098a FFF7FEFF 		bl	PRINTER_A_PutChar
 895:printer.c     ****     PRINTER_A_PutChar(LINE_FEED);
 4522              		.loc 1 895 0
 4523 098e 124B     		ldr	r3, .L350+4
 4524 0990 1B78     		ldrb	r3, [r3]	@ zero_extendqisi2
 4525 0992 1846     		mov	r0, r3
 4526 0994 FFF7FEFF 		bl	PRINTER_A_PutChar
 4527              	.LBB99:
 896:printer.c     ****     for(uint8 x = 0; x < 16; x ++){
 4528              		.loc 1 896 0
 4529 0998 0023     		movs	r3, #0
 4530 099a 87F87130 		strb	r3, [r7, #113]
 4531 099e 0BE0     		b	.L242
 4532              	.L243:
 897:printer.c     **** 		PRINTER_A_PutChar(msn_lecact[x]);
 4533              		.loc 1 897 0 discriminator 3
 4534 09a0 97F87130 		ldrb	r3, [r7, #113]	@ zero_extendqisi2
 4535 09a4 0B4A     		ldr	r2, .L350
 4536 09a6 D35C     		ldrb	r3, [r2, r3]	@ zero_extendqisi2
 4537 09a8 1846     		mov	r0, r3
 4538 09aa FFF7FEFF 		bl	PRINTER_A_PutChar
 896:printer.c     ****     for(uint8 x = 0; x < 16; x ++){
 4539              		.loc 1 896 0 discriminator 3
 4540 09ae 97F87130 		ldrb	r3, [r7, #113]	@ zero_extendqisi2
ARM GAS  C:\Users\Diego\AppData\Local\Temp\ccIAJaV8.s 			page 104


 4541 09b2 0133     		adds	r3, r3, #1
 4542 09b4 87F87130 		strb	r3, [r7, #113]
 4543              	.L242:
 896:printer.c     ****     for(uint8 x = 0; x < 16; x ++){
 4544              		.loc 1 896 0 is_stmt 0 discriminator 1
 4545 09b8 97F87130 		ldrb	r3, [r7, #113]	@ zero_extendqisi2
 4546 09bc 0F2B     		cmp	r3, #15
 4547 09be EFD9     		bls	.L243
 4548              	.LBE99:
 898:printer.c     **** 	}
 899:printer.c     ****     PRINTER_A_PutChar(LINE_FEED);
 4549              		.loc 1 899 0 is_stmt 1
 4550 09c0 054B     		ldr	r3, .L350+4
 4551 09c2 1B78     		ldrb	r3, [r3]	@ zero_extendqisi2
 4552 09c4 1846     		mov	r0, r3
 4553 09c6 FFF7FEFF 		bl	PRINTER_A_PutChar
 4554              	.LBB100:
 900:printer.c     ****     for(uint8 x = 0; x < 13; x ++){  //Segundo producto
 4555              		.loc 1 900 0
 4556 09ca 0023     		movs	r3, #0
 4557 09cc 87F87030 		strb	r3, [r7, #112]
 4558 09d0 1EE0     		b	.L244
 4559              	.L351:
 4560 09d2 00BF     		.align	2
 4561              	.L350:
 4562 09d4 00000000 		.word	msn_lecact
 4563 09d8 00000000 		.word	LINE_FEED
 4564 09dc 00000000 		.word	msn_product
 4565 09e0 00000000 		.word	msn_diesel
 4566 09e4 00000000 		.word	DecVol
 4567 09e8 00000000 		.word	side
 4568 09ec 00000000 		.word	msn_lecaan
 4569 09f0 00000000 		.word	.LC0
 4570 09f4 00000000 		.word	msn_dif
 4571              	.L245:
 901:printer.c     **** 		PRINTER_A_PutChar(msn_product[x]);
 4572              		.loc 1 901 0 discriminator 3
 4573 09f8 97F87030 		ldrb	r3, [r7, #112]	@ zero_extendqisi2
 4574 09fc CD4A     		ldr	r2, .L352
 4575 09fe D35C     		ldrb	r3, [r2, r3]	@ zero_extendqisi2
 4576 0a00 1846     		mov	r0, r3
 4577 0a02 FFF7FEFF 		bl	PRINTER_A_PutChar
 900:printer.c     ****     for(uint8 x = 0; x < 13; x ++){  //Segundo producto
 4578              		.loc 1 900 0 discriminator 3
 4579 0a06 97F87030 		ldrb	r3, [r7, #112]	@ zero_extendqisi2
 4580 0a0a 0133     		adds	r3, r3, #1
 4581 0a0c 87F87030 		strb	r3, [r7, #112]
 4582              	.L244:
 900:printer.c     ****     for(uint8 x = 0; x < 13; x ++){  //Segundo producto
 4583              		.loc 1 900 0 is_stmt 0 discriminator 1
 4584 0a10 97F87030 		ldrb	r3, [r7, #112]	@ zero_extendqisi2
 4585 0a14 0C2B     		cmp	r3, #12
 4586 0a16 EFD9     		bls	.L245
 4587              	.LBE100:
 902:printer.c     **** 	}
 903:printer.c     ****     PRINTER_A_PutChar(LINE_FEED);
 4588              		.loc 1 903 0 is_stmt 1
ARM GAS  C:\Users\Diego\AppData\Local\Temp\ccIAJaV8.s 			page 105


 4589 0a18 C74B     		ldr	r3, .L352+4
 4590 0a1a 1B78     		ldrb	r3, [r3]	@ zero_extendqisi2
 4591 0a1c 1846     		mov	r0, r3
 4592 0a1e FFF7FEFF 		bl	PRINTER_A_PutChar
 4593              	.LBB101:
 904:printer.c     ****     for(uint8 x = 0; x < 9; x ++){
 4594              		.loc 1 904 0
 4595 0a22 0023     		movs	r3, #0
 4596 0a24 87F86F30 		strb	r3, [r7, #111]
 4597 0a28 0BE0     		b	.L246
 4598              	.L247:
 905:printer.c     ****     	PRINTER_A_PutChar(msn_extra[x]);
 4599              		.loc 1 905 0 discriminator 3
 4600 0a2a 97F86F30 		ldrb	r3, [r7, #111]	@ zero_extendqisi2
 4601 0a2e C34A     		ldr	r2, .L352+8
 4602 0a30 D35C     		ldrb	r3, [r2, r3]	@ zero_extendqisi2
 4603 0a32 1846     		mov	r0, r3
 4604 0a34 FFF7FEFF 		bl	PRINTER_A_PutChar
 904:printer.c     ****     for(uint8 x = 0; x < 9; x ++){
 4605              		.loc 1 904 0 discriminator 3
 4606 0a38 97F86F30 		ldrb	r3, [r7, #111]	@ zero_extendqisi2
 4607 0a3c 0133     		adds	r3, r3, #1
 4608 0a3e 87F86F30 		strb	r3, [r7, #111]
 4609              	.L246:
 904:printer.c     ****     for(uint8 x = 0; x < 9; x ++){
 4610              		.loc 1 904 0 is_stmt 0 discriminator 1
 4611 0a42 97F86F30 		ldrb	r3, [r7, #111]	@ zero_extendqisi2
 4612 0a46 082B     		cmp	r3, #8
 4613 0a48 EFD9     		bls	.L247
 4614              	.LBE101:
 4615              	.LBB102:
 906:printer.c     ****     }
 907:printer.c     ****     for(uint8 x = 0; x < 10; x ++){ 
 4616              		.loc 1 907 0 is_stmt 1
 4617 0a4a 0023     		movs	r3, #0
 4618 0a4c 87F86E30 		strb	r3, [r7, #110]
 4619 0a50 18E0     		b	.L248
 4620              	.L250:
 908:printer.c     ****         if((10-x) == DecVol)
 4621              		.loc 1 908 0
 4622 0a52 97F86E30 		ldrb	r3, [r7, #110]	@ zero_extendqisi2
 4623 0a56 C3F10A03 		rsb	r3, r3, #10
 4624 0a5a B94A     		ldr	r2, .L352+12
 4625 0a5c 1278     		ldrb	r2, [r2]	@ zero_extendqisi2
 4626 0a5e 9342     		cmp	r3, r2
 4627 0a60 02D1     		bne	.L249
 909:printer.c     ****             PRINTER_A_PutChar('.');
 4628              		.loc 1 909 0
 4629 0a62 2E20     		movs	r0, #46
 4630 0a64 FFF7FEFF 		bl	PRINTER_A_PutChar
 4631              	.L249:
 910:printer.c     ****         PRINTER_A_PutChar(side.a.ProcessedTotals[1][0][x]);
 4632              		.loc 1 910 0 discriminator 2
 4633 0a68 97F86E30 		ldrb	r3, [r7, #110]	@ zero_extendqisi2
 4634 0a6c B54A     		ldr	r2, .L352+16
 4635 0a6e 1344     		add	r3, r3, r2
 4636 0a70 93F8A130 		ldrb	r3, [r3, #161]	@ zero_extendqisi2
ARM GAS  C:\Users\Diego\AppData\Local\Temp\ccIAJaV8.s 			page 106


 4637 0a74 1846     		mov	r0, r3
 4638 0a76 FFF7FEFF 		bl	PRINTER_A_PutChar
 907:printer.c     ****         if((10-x) == DecVol)
 4639              		.loc 1 907 0 discriminator 2
 4640 0a7a 97F86E30 		ldrb	r3, [r7, #110]	@ zero_extendqisi2
 4641 0a7e 0133     		adds	r3, r3, #1
 4642 0a80 87F86E30 		strb	r3, [r7, #110]
 4643              	.L248:
 907:printer.c     ****         if((10-x) == DecVol)
 4644              		.loc 1 907 0 is_stmt 0 discriminator 1
 4645 0a84 97F86E30 		ldrb	r3, [r7, #110]	@ zero_extendqisi2
 4646 0a88 092B     		cmp	r3, #9
 4647 0a8a E2D9     		bls	.L250
 4648              	.LBE102:
 911:printer.c     ****     }
 912:printer.c     ****     PRINTER_A_PutChar(LINE_FEED);
 4649              		.loc 1 912 0 is_stmt 1
 4650 0a8c AA4B     		ldr	r3, .L352+4
 4651 0a8e 1B78     		ldrb	r3, [r3]	@ zero_extendqisi2
 4652 0a90 1846     		mov	r0, r3
 4653 0a92 FFF7FEFF 		bl	PRINTER_A_PutChar
 4654              	.LBB103:
 913:printer.c     ****     for(uint8 x = 0; x < 16; x ++){
 4655              		.loc 1 913 0
 4656 0a96 0023     		movs	r3, #0
 4657 0a98 87F86D30 		strb	r3, [r7, #109]
 4658 0a9c 0BE0     		b	.L251
 4659              	.L252:
 914:printer.c     **** 		PRINTER_A_PutChar(msn_lecaan[x]);
 4660              		.loc 1 914 0 discriminator 3
 4661 0a9e 97F86D30 		ldrb	r3, [r7, #109]	@ zero_extendqisi2
 4662 0aa2 A94A     		ldr	r2, .L352+20
 4663 0aa4 D35C     		ldrb	r3, [r2, r3]	@ zero_extendqisi2
 4664 0aa6 1846     		mov	r0, r3
 4665 0aa8 FFF7FEFF 		bl	PRINTER_A_PutChar
 913:printer.c     ****     for(uint8 x = 0; x < 16; x ++){
 4666              		.loc 1 913 0 discriminator 3
 4667 0aac 97F86D30 		ldrb	r3, [r7, #109]	@ zero_extendqisi2
 4668 0ab0 0133     		adds	r3, r3, #1
 4669 0ab2 87F86D30 		strb	r3, [r7, #109]
 4670              	.L251:
 913:printer.c     ****     for(uint8 x = 0; x < 16; x ++){
 4671              		.loc 1 913 0 is_stmt 0 discriminator 1
 4672 0ab6 97F86D30 		ldrb	r3, [r7, #109]	@ zero_extendqisi2
 4673 0aba 0F2B     		cmp	r3, #15
 4674 0abc EFD9     		bls	.L252
 4675              	.LBE103:
 915:printer.c     **** 	}
 916:printer.c     ****     PRINTER_A_PutChar(LINE_FEED);
 4676              		.loc 1 916 0 is_stmt 1
 4677 0abe 9E4B     		ldr	r3, .L352+4
 4678 0ac0 1B78     		ldrb	r3, [r3]	@ zero_extendqisi2
 4679 0ac2 1846     		mov	r0, r3
 4680 0ac4 FFF7FEFF 		bl	PRINTER_A_PutChar
 4681              	.LBB104:
 917:printer.c     ****     for(uint8 x = 0; x < 10; x ++){
 4682              		.loc 1 917 0
ARM GAS  C:\Users\Diego\AppData\Local\Temp\ccIAJaV8.s 			page 107


 4683 0ac8 0023     		movs	r3, #0
 4684 0aca 87F86C30 		strb	r3, [r7, #108]
 4685 0ace 15E0     		b	.L253
 4686              	.L254:
 918:printer.c     ****         memoria[x] = EEPROM_1_ReadByte(56+x);
 4687              		.loc 1 918 0 discriminator 3
 4688 0ad0 97F86C40 		ldrb	r4, [r7, #108]	@ zero_extendqisi2
 4689 0ad4 97F86C30 		ldrb	r3, [r7, #108]	@ zero_extendqisi2
 4690 0ad8 9BB2     		uxth	r3, r3
 4691 0ada 3833     		adds	r3, r3, #56
 4692 0adc 9BB2     		uxth	r3, r3
 4693 0ade 1846     		mov	r0, r3
 4694 0ae0 FFF7FEFF 		bl	EEPROM_1_ReadByte
 4695 0ae4 0346     		mov	r3, r0
 4696 0ae6 1A46     		mov	r2, r3
 4697 0ae8 07F19003 		add	r3, r7, #144
 4698 0aec 2344     		add	r3, r3, r4
 4699 0aee 03F8802C 		strb	r2, [r3, #-128]
 917:printer.c     ****     for(uint8 x = 0; x < 10; x ++){
 4700              		.loc 1 917 0 discriminator 3
 4701 0af2 97F86C30 		ldrb	r3, [r7, #108]	@ zero_extendqisi2
 4702 0af6 0133     		adds	r3, r3, #1
 4703 0af8 87F86C30 		strb	r3, [r7, #108]
 4704              	.L253:
 917:printer.c     ****     for(uint8 x = 0; x < 10; x ++){
 4705              		.loc 1 917 0 is_stmt 0 discriminator 1
 4706 0afc 97F86C30 		ldrb	r3, [r7, #108]	@ zero_extendqisi2
 4707 0b00 092B     		cmp	r3, #9
 4708 0b02 E5D9     		bls	.L254
 4709              	.LBE104:
 4710              	.LBB105:
 919:printer.c     ****     }
 920:printer.c     ****     for(uint8 x = 0; x < 10; x ++){ 
 4711              		.loc 1 920 0 is_stmt 1
 4712 0b04 0023     		movs	r3, #0
 4713 0b06 87F86B30 		strb	r3, [r7, #107]
 4714 0b0a 19E0     		b	.L255
 4715              	.L257:
 921:printer.c     ****         if((10-x) == DecVol)
 4716              		.loc 1 921 0
 4717 0b0c 97F86B30 		ldrb	r3, [r7, #107]	@ zero_extendqisi2
 4718 0b10 C3F10A03 		rsb	r3, r3, #10
 4719 0b14 8A4A     		ldr	r2, .L352+12
 4720 0b16 1278     		ldrb	r2, [r2]	@ zero_extendqisi2
 4721 0b18 9342     		cmp	r3, r2
 4722 0b1a 02D1     		bne	.L256
 922:printer.c     ****             PRINTER_A_PutChar('.');
 4723              		.loc 1 922 0
 4724 0b1c 2E20     		movs	r0, #46
 4725 0b1e FFF7FEFF 		bl	PRINTER_A_PutChar
 4726              	.L256:
 923:printer.c     ****         PRINTER_A_PutChar(memoria[x]);
 4727              		.loc 1 923 0 discriminator 2
 4728 0b22 97F86B30 		ldrb	r3, [r7, #107]	@ zero_extendqisi2
 4729 0b26 07F19002 		add	r2, r7, #144
 4730 0b2a 1344     		add	r3, r3, r2
 4731 0b2c 13F8803C 		ldrb	r3, [r3, #-128]	@ zero_extendqisi2
ARM GAS  C:\Users\Diego\AppData\Local\Temp\ccIAJaV8.s 			page 108


 4732 0b30 1846     		mov	r0, r3
 4733 0b32 FFF7FEFF 		bl	PRINTER_A_PutChar
 920:printer.c     ****         if((10-x) == DecVol)
 4734              		.loc 1 920 0 discriminator 2
 4735 0b36 97F86B30 		ldrb	r3, [r7, #107]	@ zero_extendqisi2
 4736 0b3a 0133     		adds	r3, r3, #1
 4737 0b3c 87F86B30 		strb	r3, [r7, #107]
 4738              	.L255:
 920:printer.c     ****         if((10-x) == DecVol)
 4739              		.loc 1 920 0 is_stmt 0 discriminator 1
 4740 0b40 97F86B30 		ldrb	r3, [r7, #107]	@ zero_extendqisi2
 4741 0b44 092B     		cmp	r3, #9
 4742 0b46 E1D9     		bls	.L257
 4743              	.LBE105:
 4744              	.LBB106:
 924:printer.c     ****     }
 925:printer.c     ****     for(uint8 x = pos; x < 10; x++ ){
 4745              		.loc 1 925 0 is_stmt 1
 4746 0b48 97F84330 		ldrb	r3, [r7, #67]
 4747 0b4c 87F86A30 		strb	r3, [r7, #106]
 4748 0b50 2DE0     		b	.L258
 4749              	.L259:
 926:printer.c     ****         lectactual[x-pos] = side.a.ProcessedTotals[1][0][x];
 4750              		.loc 1 926 0 discriminator 3
 4751 0b52 97F86A20 		ldrb	r2, [r7, #106]	@ zero_extendqisi2
 4752 0b56 97F84330 		ldrb	r3, [r7, #67]	@ zero_extendqisi2
 4753 0b5a D31A     		subs	r3, r2, r3
 4754 0b5c 97F86A20 		ldrb	r2, [r7, #106]	@ zero_extendqisi2
 4755 0b60 7849     		ldr	r1, .L352+16
 4756 0b62 0A44     		add	r2, r2, r1
 4757 0b64 92F8A120 		ldrb	r2, [r2, #161]	@ zero_extendqisi2
 4758 0b68 07F19001 		add	r1, r7, #144
 4759 0b6c 0B44     		add	r3, r3, r1
 4760 0b6e 03F8742C 		strb	r2, [r3, #-116]
 927:printer.c     ****         lectanterior[x-pos] = memoria[x];
 4761              		.loc 1 927 0 discriminator 3
 4762 0b72 97F86A20 		ldrb	r2, [r7, #106]	@ zero_extendqisi2
 4763 0b76 97F84330 		ldrb	r3, [r7, #67]	@ zero_extendqisi2
 4764 0b7a D31A     		subs	r3, r2, r3
 4765 0b7c 97F86A20 		ldrb	r2, [r7, #106]	@ zero_extendqisi2
 4766 0b80 07F19001 		add	r1, r7, #144
 4767 0b84 0A44     		add	r2, r2, r1
 4768 0b86 12F8802C 		ldrb	r2, [r2, #-128]	@ zero_extendqisi2
 4769 0b8a 07F19001 		add	r1, r7, #144
 4770 0b8e 0B44     		add	r3, r3, r1
 4771 0b90 03F8682C 		strb	r2, [r3, #-104]
 928:printer.c     ****         resultado[x] = 0x00;
 4772              		.loc 1 928 0 discriminator 3
 4773 0b94 97F86A30 		ldrb	r3, [r7, #106]	@ zero_extendqisi2
 4774 0b98 07F19002 		add	r2, r7, #144
 4775 0b9c 1344     		add	r3, r3, r2
 4776 0b9e 0022     		movs	r2, #0
 4777 0ba0 03F88C2C 		strb	r2, [r3, #-140]
 925:printer.c     ****         lectactual[x-pos] = side.a.ProcessedTotals[1][0][x];
 4778              		.loc 1 925 0 discriminator 3
 4779 0ba4 97F86A30 		ldrb	r3, [r7, #106]	@ zero_extendqisi2
 4780 0ba8 0133     		adds	r3, r3, #1
ARM GAS  C:\Users\Diego\AppData\Local\Temp\ccIAJaV8.s 			page 109


 4781 0baa 87F86A30 		strb	r3, [r7, #106]
 4782              	.L258:
 925:printer.c     ****         lectactual[x-pos] = side.a.ProcessedTotals[1][0][x];
 4783              		.loc 1 925 0 is_stmt 0 discriminator 1
 4784 0bae 97F86A30 		ldrb	r3, [r7, #106]	@ zero_extendqisi2
 4785 0bb2 092B     		cmp	r3, #9
 4786 0bb4 CDD9     		bls	.L259
 4787              	.LBE106:
 929:printer.c     ****     }
 930:printer.c     ****     
 931:printer.c     ****     anterior = sscanf(lectanterior,"%d",&d);
 4788              		.loc 1 931 0 is_stmt 1
 4789 0bb6 3A46     		mov	r2, r7
 4790 0bb8 07F12803 		add	r3, r7, #40
 4791 0bbc 6349     		ldr	r1, .L352+24
 4792 0bbe 1846     		mov	r0, r3
 4793 0bc0 FFF7FEFF 		bl	sscanf
 4794 0bc4 F863     		str	r0, [r7, #60]
 932:printer.c     ****     actual = sscanf(lectactual,"%d",&d);
 4795              		.loc 1 932 0
 4796 0bc6 3A46     		mov	r2, r7
 4797 0bc8 07F11C03 		add	r3, r7, #28
 4798 0bcc 5F49     		ldr	r1, .L352+24
 4799 0bce 1846     		mov	r0, r3
 4800 0bd0 FFF7FEFF 		bl	sscanf
 4801 0bd4 B863     		str	r0, [r7, #56]
 933:printer.c     ****     resta =  actual - anterior;
 4802              		.loc 1 933 0
 4803 0bd6 BA6B     		ldr	r2, [r7, #56]
 4804 0bd8 FB6B     		ldr	r3, [r7, #60]
 4805 0bda D31A     		subs	r3, r2, r3
 4806 0bdc 7B63     		str	r3, [r7, #52]
 934:printer.c     ****     //itoa(resta,resultado,10);
 935:printer.c     ****     sprintf(resultado, "%d", resta);
 4807              		.loc 1 935 0
 4808 0bde 3B1D     		adds	r3, r7, #4
 4809 0be0 7A6B     		ldr	r2, [r7, #52]
 4810 0be2 5A49     		ldr	r1, .L352+24
 4811 0be4 1846     		mov	r0, r3
 4812 0be6 FFF7FEFF 		bl	sprintf
 936:printer.c     ****     PRINTER_A_PutChar(LINE_FEED);
 4813              		.loc 1 936 0
 4814 0bea 534B     		ldr	r3, .L352+4
 4815 0bec 1B78     		ldrb	r3, [r3]	@ zero_extendqisi2
 4816 0bee 1846     		mov	r0, r3
 4817 0bf0 FFF7FEFF 		bl	PRINTER_A_PutChar
 4818              	.LBB107:
 937:printer.c     ****     for(uint8 x = 0; x < 18; x ++){
 4819              		.loc 1 937 0
 4820 0bf4 0023     		movs	r3, #0
 4821 0bf6 87F86930 		strb	r3, [r7, #105]
 4822 0bfa 0BE0     		b	.L260
 4823              	.L261:
 938:printer.c     ****         PRINTER_A_PutChar(msn_dif[x]);
 4824              		.loc 1 938 0 discriminator 3
 4825 0bfc 97F86930 		ldrb	r3, [r7, #105]	@ zero_extendqisi2
 4826 0c00 534A     		ldr	r2, .L352+28
ARM GAS  C:\Users\Diego\AppData\Local\Temp\ccIAJaV8.s 			page 110


 4827 0c02 D35C     		ldrb	r3, [r2, r3]	@ zero_extendqisi2
 4828 0c04 1846     		mov	r0, r3
 4829 0c06 FFF7FEFF 		bl	PRINTER_A_PutChar
 937:printer.c     ****     for(uint8 x = 0; x < 18; x ++){
 4830              		.loc 1 937 0 discriminator 3
 4831 0c0a 97F86930 		ldrb	r3, [r7, #105]	@ zero_extendqisi2
 4832 0c0e 0133     		adds	r3, r3, #1
 4833 0c10 87F86930 		strb	r3, [r7, #105]
 4834              	.L260:
 937:printer.c     ****     for(uint8 x = 0; x < 18; x ++){
 4835              		.loc 1 937 0 is_stmt 0 discriminator 1
 4836 0c14 97F86930 		ldrb	r3, [r7, #105]	@ zero_extendqisi2
 4837 0c18 112B     		cmp	r3, #17
 4838 0c1a EFD9     		bls	.L261
 4839              	.LBE107:
 939:printer.c     ****     }
 940:printer.c     ****     PRINTER_A_PutChar(LINE_FEED);
 4840              		.loc 1 940 0 is_stmt 1
 4841 0c1c 464B     		ldr	r3, .L352+4
 4842 0c1e 1B78     		ldrb	r3, [r3]	@ zero_extendqisi2
 4843 0c20 1846     		mov	r0, r3
 4844 0c22 FFF7FEFF 		bl	PRINTER_A_PutChar
 4845              	.LBB108:
 941:printer.c     ****     for(uint8 x = 0; x < 10; x ++){
 4846              		.loc 1 941 0
 4847 0c26 0023     		movs	r3, #0
 4848 0c28 87F86830 		strb	r3, [r7, #104]
 4849 0c2c 19E0     		b	.L262
 4850              	.L264:
 942:printer.c     ****         if((10-x) == DecVol)
 4851              		.loc 1 942 0
 4852 0c2e 97F86830 		ldrb	r3, [r7, #104]	@ zero_extendqisi2
 4853 0c32 C3F10A03 		rsb	r3, r3, #10
 4854 0c36 424A     		ldr	r2, .L352+12
 4855 0c38 1278     		ldrb	r2, [r2]	@ zero_extendqisi2
 4856 0c3a 9342     		cmp	r3, r2
 4857 0c3c 02D1     		bne	.L263
 943:printer.c     ****             PRINTER_A_PutChar('.');
 4858              		.loc 1 943 0
 4859 0c3e 2E20     		movs	r0, #46
 4860 0c40 FFF7FEFF 		bl	PRINTER_A_PutChar
 4861              	.L263:
 944:printer.c     ****         PRINTER_A_PutChar(resultado[x]);
 4862              		.loc 1 944 0 discriminator 2
 4863 0c44 97F86830 		ldrb	r3, [r7, #104]	@ zero_extendqisi2
 4864 0c48 07F19002 		add	r2, r7, #144
 4865 0c4c 1344     		add	r3, r3, r2
 4866 0c4e 13F88C3C 		ldrb	r3, [r3, #-140]	@ zero_extendqisi2
 4867 0c52 1846     		mov	r0, r3
 4868 0c54 FFF7FEFF 		bl	PRINTER_A_PutChar
 941:printer.c     ****         if((10-x) == DecVol)
 4869              		.loc 1 941 0 discriminator 2
 4870 0c58 97F86830 		ldrb	r3, [r7, #104]	@ zero_extendqisi2
 4871 0c5c 0133     		adds	r3, r3, #1
 4872 0c5e 87F86830 		strb	r3, [r7, #104]
 4873              	.L262:
 941:printer.c     ****         if((10-x) == DecVol)
ARM GAS  C:\Users\Diego\AppData\Local\Temp\ccIAJaV8.s 			page 111


 4874              		.loc 1 941 0 is_stmt 0 discriminator 1
 4875 0c62 97F86830 		ldrb	r3, [r7, #104]	@ zero_extendqisi2
 4876 0c66 092B     		cmp	r3, #9
 4877 0c68 E1D9     		bls	.L264
 4878              	.LBE108:
 4879              	.LBB109:
 945:printer.c     ****     }
 946:printer.c     ****     for(uint8 x = 0; x < 10; x++){
 4880              		.loc 1 946 0 is_stmt 1
 4881 0c6a 0023     		movs	r3, #0
 4882 0c6c 87F86730 		strb	r3, [r7, #103]
 4883 0c70 13E0     		b	.L265
 4884              	.L266:
 947:printer.c     ****         EEPROM_1_WriteByte(side.a.ProcessedTotals[1][0][x],56+x);        
 4885              		.loc 1 947 0 discriminator 3
 4886 0c72 97F86730 		ldrb	r3, [r7, #103]	@ zero_extendqisi2
 4887 0c76 334A     		ldr	r2, .L352+16
 4888 0c78 1344     		add	r3, r3, r2
 4889 0c7a 93F8A120 		ldrb	r2, [r3, #161]	@ zero_extendqisi2
 4890 0c7e 97F86730 		ldrb	r3, [r7, #103]	@ zero_extendqisi2
 4891 0c82 9BB2     		uxth	r3, r3
 4892 0c84 3833     		adds	r3, r3, #56
 4893 0c86 9BB2     		uxth	r3, r3
 4894 0c88 1946     		mov	r1, r3
 4895 0c8a 1046     		mov	r0, r2
 4896 0c8c FFF7FEFF 		bl	EEPROM_1_WriteByte
 946:printer.c     ****         EEPROM_1_WriteByte(side.a.ProcessedTotals[1][0][x],56+x);        
 4897              		.loc 1 946 0 discriminator 3
 4898 0c90 97F86730 		ldrb	r3, [r7, #103]	@ zero_extendqisi2
 4899 0c94 0133     		adds	r3, r3, #1
 4900 0c96 87F86730 		strb	r3, [r7, #103]
 4901              	.L265:
 946:printer.c     ****         EEPROM_1_WriteByte(side.a.ProcessedTotals[1][0][x],56+x);        
 4902              		.loc 1 946 0 is_stmt 0 discriminator 1
 4903 0c9a 97F86730 		ldrb	r3, [r7, #103]	@ zero_extendqisi2
 4904 0c9e 092B     		cmp	r3, #9
 4905 0ca0 E7D9     		bls	.L266
 4906              	.LBE109:
 948:printer.c     ****     }
 949:printer.c     **** //    for(uint8 x = 0; x < 13; x ++){
 950:printer.c     **** //		PRINTER_A_PutChar(msn_product[x]);
 951:printer.c     **** //	}        
 952:printer.c     **** //    for(uint8 x = 0; x < 9; x ++){
 953:printer.c     **** //		PRINTER_A_PutChar(msn_gasoline[x]);
 954:printer.c     **** //	}
 955:printer.c     **** //    for(uint8 x = 0; x < 10; x ++){ 
 956:printer.c     **** //        if((10-x) == DecVol)
 957:printer.c     **** //            PRINTER_A_PutChar('.');
 958:printer.c     **** //        PRINTER_A_PutChar(side.a.ProcessedTotals[2][0][x]);
 959:printer.c     **** //    }
 960:printer.c     **** //    PRINTER_A_PutChar(LINE_FEED); 	
 961:printer.c     ****                           
 962:printer.c     ****     
 963:printer.c     **** //    for(uint8 x = 0; x < 10; x++){
 964:printer.c     **** //        pos = x;
 965:printer.c     **** //        if(side.a.ProcessedTotals[0][0][x] != 0x00 )
 966:printer.c     **** //            break;
ARM GAS  C:\Users\Diego\AppData\Local\Temp\ccIAJaV8.s 			page 112


 967:printer.c     **** //    }
 968:printer.c     **** 	
 969:printer.c     ****     
 970:printer.c     ****     //Lecturas lado B
 971:printer.c     ****     PRINTER_A_PutChar(LINE_FEED);
 4907              		.loc 1 971 0 is_stmt 1
 4908 0ca2 254B     		ldr	r3, .L352+4
 4909 0ca4 1B78     		ldrb	r3, [r3]	@ zero_extendqisi2
 4910 0ca6 1846     		mov	r0, r3
 4911 0ca8 FFF7FEFF 		bl	PRINTER_A_PutChar
 4912              	.LBB110:
 972:printer.c     ****     for(uint8 x = 0; x < 32; x ++){
 4913              		.loc 1 972 0
 4914 0cac 0023     		movs	r3, #0
 4915 0cae 87F86630 		strb	r3, [r7, #102]
 4916 0cb2 0BE0     		b	.L267
 4917              	.L268:
 973:printer.c     ****         PRINTER_A_PutChar(SEPARATOR[x]);
 4918              		.loc 1 973 0 discriminator 3
 4919 0cb4 97F86630 		ldrb	r3, [r7, #102]	@ zero_extendqisi2
 4920 0cb8 264A     		ldr	r2, .L352+32
 4921 0cba D35C     		ldrb	r3, [r2, r3]	@ zero_extendqisi2
 4922 0cbc 1846     		mov	r0, r3
 4923 0cbe FFF7FEFF 		bl	PRINTER_A_PutChar
 972:printer.c     ****     for(uint8 x = 0; x < 32; x ++){
 4924              		.loc 1 972 0 discriminator 3
 4925 0cc2 97F86630 		ldrb	r3, [r7, #102]	@ zero_extendqisi2
 4926 0cc6 0133     		adds	r3, r3, #1
 4927 0cc8 87F86630 		strb	r3, [r7, #102]
 4928              	.L267:
 972:printer.c     ****     for(uint8 x = 0; x < 32; x ++){
 4929              		.loc 1 972 0 is_stmt 0 discriminator 1
 4930 0ccc 97F86630 		ldrb	r3, [r7, #102]	@ zero_extendqisi2
 4931 0cd0 1F2B     		cmp	r3, #31
 4932 0cd2 EFD9     		bls	.L268
 4933              	.LBE110:
 974:printer.c     ****     }  
 975:printer.c     ****     PRINTER_A_PutChar(LINE_FEED);
 4934              		.loc 1 975 0 is_stmt 1
 4935 0cd4 184B     		ldr	r3, .L352+4
 4936 0cd6 1B78     		ldrb	r3, [r3]	@ zero_extendqisi2
 4937 0cd8 1846     		mov	r0, r3
 4938 0cda FFF7FEFF 		bl	PRINTER_A_PutChar
 4939              	.LBB111:
 976:printer.c     ****     for(uint8 x = 0; x < 13; x ++){
 4940              		.loc 1 976 0
 4941 0cde 0023     		movs	r3, #0
 4942 0ce0 87F86530 		strb	r3, [r7, #101]
 4943 0ce4 0BE0     		b	.L269
 4944              	.L270:
 977:printer.c     ****         PRINTER_A_PutChar(msn_pos[x]);
 4945              		.loc 1 977 0 discriminator 3
 4946 0ce6 97F86530 		ldrb	r3, [r7, #101]	@ zero_extendqisi2
 4947 0cea 1B4A     		ldr	r2, .L352+36
 4948 0cec D35C     		ldrb	r3, [r2, r3]	@ zero_extendqisi2
 4949 0cee 1846     		mov	r0, r3
 4950 0cf0 FFF7FEFF 		bl	PRINTER_A_PutChar
ARM GAS  C:\Users\Diego\AppData\Local\Temp\ccIAJaV8.s 			page 113


 976:printer.c     ****     for(uint8 x = 0; x < 13; x ++){
 4951              		.loc 1 976 0 discriminator 3
 4952 0cf4 97F86530 		ldrb	r3, [r7, #101]	@ zero_extendqisi2
 4953 0cf8 0133     		adds	r3, r3, #1
 4954 0cfa 87F86530 		strb	r3, [r7, #101]
 4955              	.L269:
 976:printer.c     ****     for(uint8 x = 0; x < 13; x ++){
 4956              		.loc 1 976 0 is_stmt 0 discriminator 1
 4957 0cfe 97F86530 		ldrb	r3, [r7, #101]	@ zero_extendqisi2
 4958 0d02 0C2B     		cmp	r3, #12
 4959 0d04 EFD9     		bls	.L270
 4960              	.LBE111:
 978:printer.c     ****     }
 979:printer.c     ****     PRINTER_A_PutChar(side.b.dir + 0x31);
 4961              		.loc 1 979 0 is_stmt 1
 4962 0d06 0F4B     		ldr	r3, .L352+16
 4963 0d08 93F83531 		ldrb	r3, [r3, #309]	@ zero_extendqisi2
 4964 0d0c 3133     		adds	r3, r3, #49
 4965 0d0e DBB2     		uxtb	r3, r3
 4966 0d10 1846     		mov	r0, r3
 4967 0d12 FFF7FEFF 		bl	PRINTER_A_PutChar
 980:printer.c     ****     PRINTER_A_PutChar(LINE_FEED);
 4968              		.loc 1 980 0
 4969 0d16 084B     		ldr	r3, .L352+4
 4970 0d18 1B78     		ldrb	r3, [r3]	@ zero_extendqisi2
 4971 0d1a 1846     		mov	r0, r3
 4972 0d1c FFF7FEFF 		bl	PRINTER_A_PutChar
 981:printer.c     ****     PRINTER_A_PutChar(LINE_FEED);
 4973              		.loc 1 981 0
 4974 0d20 054B     		ldr	r3, .L352+4
 4975 0d22 1B78     		ldrb	r3, [r3]	@ zero_extendqisi2
 4976 0d24 1846     		mov	r0, r3
 4977 0d26 FFF7FEFF 		bl	PRINTER_A_PutChar
 4978              	.LBB112:
 982:printer.c     ****     for(uint8 x = 0; x < 16; x ++){
 4979              		.loc 1 982 0
 4980 0d2a 0023     		movs	r3, #0
 4981 0d2c 87F86430 		strb	r3, [r7, #100]
 4982 0d30 20E0     		b	.L271
 4983              	.L353:
 4984 0d32 00BF     		.align	2
 4985              	.L352:
 4986 0d34 00000000 		.word	msn_product
 4987 0d38 00000000 		.word	LINE_FEED
 4988 0d3c 00000000 		.word	msn_extra
 4989 0d40 00000000 		.word	DecVol
 4990 0d44 00000000 		.word	side
 4991 0d48 00000000 		.word	msn_lecaan
 4992 0d4c 00000000 		.word	.LC0
 4993 0d50 00000000 		.word	msn_dif
 4994 0d54 00000000 		.word	SEPARATOR
 4995 0d58 00000000 		.word	msn_pos
 4996              	.L272:
 983:printer.c     **** 		PRINTER_A_PutChar(msn_lecact[x]);
 4997              		.loc 1 983 0 discriminator 3
 4998 0d5c 97F86430 		ldrb	r3, [r7, #100]	@ zero_extendqisi2
 4999 0d60 D34A     		ldr	r2, .L354
ARM GAS  C:\Users\Diego\AppData\Local\Temp\ccIAJaV8.s 			page 114


 5000 0d62 D35C     		ldrb	r3, [r2, r3]	@ zero_extendqisi2
 5001 0d64 1846     		mov	r0, r3
 5002 0d66 FFF7FEFF 		bl	PRINTER_A_PutChar
 982:printer.c     ****     for(uint8 x = 0; x < 16; x ++){
 5003              		.loc 1 982 0 discriminator 3
 5004 0d6a 97F86430 		ldrb	r3, [r7, #100]	@ zero_extendqisi2
 5005 0d6e 0133     		adds	r3, r3, #1
 5006 0d70 87F86430 		strb	r3, [r7, #100]
 5007              	.L271:
 982:printer.c     ****     for(uint8 x = 0; x < 16; x ++){
 5008              		.loc 1 982 0 is_stmt 0 discriminator 1
 5009 0d74 97F86430 		ldrb	r3, [r7, #100]	@ zero_extendqisi2
 5010 0d78 0F2B     		cmp	r3, #15
 5011 0d7a EFD9     		bls	.L272
 5012              	.LBE112:
 984:printer.c     **** 	}
 985:printer.c     **** 	PRINTER_A_PutChar(LINE_FEED);
 5013              		.loc 1 985 0 is_stmt 1
 5014 0d7c CD4B     		ldr	r3, .L354+4
 5015 0d7e 1B78     		ldrb	r3, [r3]	@ zero_extendqisi2
 5016 0d80 1846     		mov	r0, r3
 5017 0d82 FFF7FEFF 		bl	PRINTER_A_PutChar
 5018              	.LBB113:
 986:printer.c     ****     
 987:printer.c     ****     for(uint8 x = 0; x < 13; x ++){
 5019              		.loc 1 987 0
 5020 0d86 0023     		movs	r3, #0
 5021 0d88 87F86330 		strb	r3, [r7, #99]
 5022 0d8c 0BE0     		b	.L273
 5023              	.L274:
 988:printer.c     **** 		PRINTER_A_PutChar(msn_product[x]);
 5024              		.loc 1 988 0 discriminator 3
 5025 0d8e 97F86330 		ldrb	r3, [r7, #99]	@ zero_extendqisi2
 5026 0d92 C94A     		ldr	r2, .L354+8
 5027 0d94 D35C     		ldrb	r3, [r2, r3]	@ zero_extendqisi2
 5028 0d96 1846     		mov	r0, r3
 5029 0d98 FFF7FEFF 		bl	PRINTER_A_PutChar
 987:printer.c     **** 		PRINTER_A_PutChar(msn_product[x]);
 5030              		.loc 1 987 0 discriminator 3
 5031 0d9c 97F86330 		ldrb	r3, [r7, #99]	@ zero_extendqisi2
 5032 0da0 0133     		adds	r3, r3, #1
 5033 0da2 87F86330 		strb	r3, [r7, #99]
 5034              	.L273:
 987:printer.c     **** 		PRINTER_A_PutChar(msn_product[x]);
 5035              		.loc 1 987 0 is_stmt 0 discriminator 1
 5036 0da6 97F86330 		ldrb	r3, [r7, #99]	@ zero_extendqisi2
 5037 0daa 0C2B     		cmp	r3, #12
 5038 0dac EFD9     		bls	.L274
 5039              	.LBE113:
 989:printer.c     **** 	}
 990:printer.c     ****     PRINTER_A_PutChar(LINE_FEED);
 5040              		.loc 1 990 0 is_stmt 1
 5041 0dae C14B     		ldr	r3, .L354+4
 5042 0db0 1B78     		ldrb	r3, [r3]	@ zero_extendqisi2
 5043 0db2 1846     		mov	r0, r3
 5044 0db4 FFF7FEFF 		bl	PRINTER_A_PutChar
 5045              	.LBB114:
ARM GAS  C:\Users\Diego\AppData\Local\Temp\ccIAJaV8.s 			page 115


 991:printer.c     **** 	for(uint8 x = 0; x < 10; x ++){
 5046              		.loc 1 991 0
 5047 0db8 0023     		movs	r3, #0
 5048 0dba 87F86230 		strb	r3, [r7, #98]
 5049 0dbe 0BE0     		b	.L275
 5050              	.L276:
 992:printer.c     **** 		PRINTER_A_PutChar(msn_gasoline[x]);
 5051              		.loc 1 992 0 discriminator 3
 5052 0dc0 97F86230 		ldrb	r3, [r7, #98]	@ zero_extendqisi2
 5053 0dc4 BD4A     		ldr	r2, .L354+12
 5054 0dc6 D35C     		ldrb	r3, [r2, r3]	@ zero_extendqisi2
 5055 0dc8 1846     		mov	r0, r3
 5056 0dca FFF7FEFF 		bl	PRINTER_A_PutChar
 991:printer.c     **** 	for(uint8 x = 0; x < 10; x ++){
 5057              		.loc 1 991 0 discriminator 3
 5058 0dce 97F86230 		ldrb	r3, [r7, #98]	@ zero_extendqisi2
 5059 0dd2 0133     		adds	r3, r3, #1
 5060 0dd4 87F86230 		strb	r3, [r7, #98]
 5061              	.L275:
 991:printer.c     **** 	for(uint8 x = 0; x < 10; x ++){
 5062              		.loc 1 991 0 is_stmt 0 discriminator 1
 5063 0dd8 97F86230 		ldrb	r3, [r7, #98]	@ zero_extendqisi2
 5064 0ddc 092B     		cmp	r3, #9
 5065 0dde EFD9     		bls	.L276
 5066              	.LBE114:
 5067              	.LBB115:
 993:printer.c     **** 	}
 994:printer.c     ****     for(uint8 x = 0; x < 10; x ++){ 
 5068              		.loc 1 994 0 is_stmt 1
 5069 0de0 0023     		movs	r3, #0
 5070 0de2 87F86130 		strb	r3, [r7, #97]
 5071 0de6 18E0     		b	.L277
 5072              	.L279:
 995:printer.c     ****         if((10-x) == DecVol)
 5073              		.loc 1 995 0
 5074 0de8 97F86130 		ldrb	r3, [r7, #97]	@ zero_extendqisi2
 5075 0dec C3F10A03 		rsb	r3, r3, #10
 5076 0df0 B34A     		ldr	r2, .L354+16
 5077 0df2 1278     		ldrb	r2, [r2]	@ zero_extendqisi2
 5078 0df4 9342     		cmp	r3, r2
 5079 0df6 02D1     		bne	.L278
 996:printer.c     ****             PRINTER_A_PutChar('.');
 5080              		.loc 1 996 0
 5081 0df8 2E20     		movs	r0, #46
 5082 0dfa FFF7FEFF 		bl	PRINTER_A_PutChar
 5083              	.L278:
 997:printer.c     ****         PRINTER_A_PutChar(side.b.ProcessedTotals[0][0][x]);
 5084              		.loc 1 997 0 discriminator 2
 5085 0dfe 97F86130 		ldrb	r3, [r7, #97]	@ zero_extendqisi2
 5086 0e02 B04A     		ldr	r2, .L354+20
 5087 0e04 1344     		add	r3, r3, r2
 5088 0e06 93F8B831 		ldrb	r3, [r3, #440]	@ zero_extendqisi2
 5089 0e0a 1846     		mov	r0, r3
 5090 0e0c FFF7FEFF 		bl	PRINTER_A_PutChar
 994:printer.c     ****         if((10-x) == DecVol)
 5091              		.loc 1 994 0 discriminator 2
 5092 0e10 97F86130 		ldrb	r3, [r7, #97]	@ zero_extendqisi2
ARM GAS  C:\Users\Diego\AppData\Local\Temp\ccIAJaV8.s 			page 116


 5093 0e14 0133     		adds	r3, r3, #1
 5094 0e16 87F86130 		strb	r3, [r7, #97]
 5095              	.L277:
 994:printer.c     ****         if((10-x) == DecVol)
 5096              		.loc 1 994 0 is_stmt 0 discriminator 1
 5097 0e1a 97F86130 		ldrb	r3, [r7, #97]	@ zero_extendqisi2
 5098 0e1e 092B     		cmp	r3, #9
 5099 0e20 E2D9     		bls	.L279
 5100              	.LBE115:
 998:printer.c     ****     }
 999:printer.c     ****     PRINTER_A_PutChar(LINE_FEED);
 5101              		.loc 1 999 0 is_stmt 1
 5102 0e22 A44B     		ldr	r3, .L354+4
 5103 0e24 1B78     		ldrb	r3, [r3]	@ zero_extendqisi2
 5104 0e26 1846     		mov	r0, r3
 5105 0e28 FFF7FEFF 		bl	PRINTER_A_PutChar
 5106              	.LBB116:
1000:printer.c     ****     
1001:printer.c     ****     for(uint8 x = 0; x < 16; x ++){
 5107              		.loc 1 1001 0
 5108 0e2c 0023     		movs	r3, #0
 5109 0e2e 87F86030 		strb	r3, [r7, #96]
 5110 0e32 0BE0     		b	.L280
 5111              	.L281:
1002:printer.c     **** 		PRINTER_A_PutChar(msn_lecaan[x]);
 5112              		.loc 1 1002 0 discriminator 3
 5113 0e34 97F86030 		ldrb	r3, [r7, #96]	@ zero_extendqisi2
 5114 0e38 A34A     		ldr	r2, .L354+24
 5115 0e3a D35C     		ldrb	r3, [r2, r3]	@ zero_extendqisi2
 5116 0e3c 1846     		mov	r0, r3
 5117 0e3e FFF7FEFF 		bl	PRINTER_A_PutChar
1001:printer.c     **** 		PRINTER_A_PutChar(msn_lecaan[x]);
 5118              		.loc 1 1001 0 discriminator 3
 5119 0e42 97F86030 		ldrb	r3, [r7, #96]	@ zero_extendqisi2
 5120 0e46 0133     		adds	r3, r3, #1
 5121 0e48 87F86030 		strb	r3, [r7, #96]
 5122              	.L280:
1001:printer.c     **** 		PRINTER_A_PutChar(msn_lecaan[x]);
 5123              		.loc 1 1001 0 is_stmt 0 discriminator 1
 5124 0e4c 97F86030 		ldrb	r3, [r7, #96]	@ zero_extendqisi2
 5125 0e50 0F2B     		cmp	r3, #15
 5126 0e52 EFD9     		bls	.L281
 5127              	.LBE116:
1003:printer.c     **** 	}
1004:printer.c     ****     PRINTER_A_PutChar(LINE_FEED);
 5128              		.loc 1 1004 0 is_stmt 1
 5129 0e54 974B     		ldr	r3, .L354+4
 5130 0e56 1B78     		ldrb	r3, [r3]	@ zero_extendqisi2
 5131 0e58 1846     		mov	r0, r3
 5132 0e5a FFF7FEFF 		bl	PRINTER_A_PutChar
 5133              	.LBB117:
1005:printer.c     ****     for(uint8 x = 0; x < 10; x ++){
 5134              		.loc 1 1005 0
 5135 0e5e 0023     		movs	r3, #0
 5136 0e60 87F85F30 		strb	r3, [r7, #95]
 5137 0e64 15E0     		b	.L282
 5138              	.L283:
ARM GAS  C:\Users\Diego\AppData\Local\Temp\ccIAJaV8.s 			page 117


1006:printer.c     ****         memoria[x] = EEPROM_1_ReadByte(46+x);
 5139              		.loc 1 1006 0 discriminator 3
 5140 0e66 97F85F40 		ldrb	r4, [r7, #95]	@ zero_extendqisi2
 5141 0e6a 97F85F30 		ldrb	r3, [r7, #95]	@ zero_extendqisi2
 5142 0e6e 9BB2     		uxth	r3, r3
 5143 0e70 2E33     		adds	r3, r3, #46
 5144 0e72 9BB2     		uxth	r3, r3
 5145 0e74 1846     		mov	r0, r3
 5146 0e76 FFF7FEFF 		bl	EEPROM_1_ReadByte
 5147 0e7a 0346     		mov	r3, r0
 5148 0e7c 1A46     		mov	r2, r3
 5149 0e7e 07F19003 		add	r3, r7, #144
 5150 0e82 2344     		add	r3, r3, r4
 5151 0e84 03F8802C 		strb	r2, [r3, #-128]
1005:printer.c     ****     for(uint8 x = 0; x < 10; x ++){
 5152              		.loc 1 1005 0 discriminator 3
 5153 0e88 97F85F30 		ldrb	r3, [r7, #95]	@ zero_extendqisi2
 5154 0e8c 0133     		adds	r3, r3, #1
 5155 0e8e 87F85F30 		strb	r3, [r7, #95]
 5156              	.L282:
1005:printer.c     ****     for(uint8 x = 0; x < 10; x ++){
 5157              		.loc 1 1005 0 is_stmt 0 discriminator 1
 5158 0e92 97F85F30 		ldrb	r3, [r7, #95]	@ zero_extendqisi2
 5159 0e96 092B     		cmp	r3, #9
 5160 0e98 E5D9     		bls	.L283
 5161              	.LBE117:
 5162              	.LBB118:
1007:printer.c     ****     }
1008:printer.c     ****     for(uint8 x = 0; x < 10; x ++){ 
 5163              		.loc 1 1008 0 is_stmt 1
 5164 0e9a 0023     		movs	r3, #0
 5165 0e9c 87F85E30 		strb	r3, [r7, #94]
 5166 0ea0 19E0     		b	.L284
 5167              	.L286:
1009:printer.c     ****         if((10-x) == DecVol)
 5168              		.loc 1 1009 0
 5169 0ea2 97F85E30 		ldrb	r3, [r7, #94]	@ zero_extendqisi2
 5170 0ea6 C3F10A03 		rsb	r3, r3, #10
 5171 0eaa 854A     		ldr	r2, .L354+16
 5172 0eac 1278     		ldrb	r2, [r2]	@ zero_extendqisi2
 5173 0eae 9342     		cmp	r3, r2
 5174 0eb0 02D1     		bne	.L285
1010:printer.c     ****             PRINTER_A_PutChar('.');
 5175              		.loc 1 1010 0
 5176 0eb2 2E20     		movs	r0, #46
 5177 0eb4 FFF7FEFF 		bl	PRINTER_A_PutChar
 5178              	.L285:
1011:printer.c     ****         PRINTER_A_PutChar(memoria[x]);
 5179              		.loc 1 1011 0 discriminator 2
 5180 0eb8 97F85E30 		ldrb	r3, [r7, #94]	@ zero_extendqisi2
 5181 0ebc 07F19002 		add	r2, r7, #144
 5182 0ec0 1344     		add	r3, r3, r2
 5183 0ec2 13F8803C 		ldrb	r3, [r3, #-128]	@ zero_extendqisi2
 5184 0ec6 1846     		mov	r0, r3
 5185 0ec8 FFF7FEFF 		bl	PRINTER_A_PutChar
1008:printer.c     ****         if((10-x) == DecVol)
 5186              		.loc 1 1008 0 discriminator 2
ARM GAS  C:\Users\Diego\AppData\Local\Temp\ccIAJaV8.s 			page 118


 5187 0ecc 97F85E30 		ldrb	r3, [r7, #94]	@ zero_extendqisi2
 5188 0ed0 0133     		adds	r3, r3, #1
 5189 0ed2 87F85E30 		strb	r3, [r7, #94]
 5190              	.L284:
1008:printer.c     ****         if((10-x) == DecVol)
 5191              		.loc 1 1008 0 is_stmt 0 discriminator 1
 5192 0ed6 97F85E30 		ldrb	r3, [r7, #94]	@ zero_extendqisi2
 5193 0eda 092B     		cmp	r3, #9
 5194 0edc E1D9     		bls	.L286
 5195              	.LBE118:
1012:printer.c     ****     }
1013:printer.c     ****     PRINTER_A_PutChar(LINE_FEED);
 5196              		.loc 1 1013 0 is_stmt 1
 5197 0ede 754B     		ldr	r3, .L354+4
 5198 0ee0 1B78     		ldrb	r3, [r3]	@ zero_extendqisi2
 5199 0ee2 1846     		mov	r0, r3
 5200 0ee4 FFF7FEFF 		bl	PRINTER_A_PutChar
 5201              	.LBB119:
1014:printer.c     ****     for(uint8 x = pos; x < 10; x++ ){
 5202              		.loc 1 1014 0
 5203 0ee8 97F84330 		ldrb	r3, [r7, #67]
 5204 0eec 87F85D30 		strb	r3, [r7, #93]
 5205 0ef0 2DE0     		b	.L287
 5206              	.L288:
1015:printer.c     ****         lectactual[x-pos] = side.b.ProcessedTotals[0][0][x];
 5207              		.loc 1 1015 0 discriminator 3
 5208 0ef2 97F85D20 		ldrb	r2, [r7, #93]	@ zero_extendqisi2
 5209 0ef6 97F84330 		ldrb	r3, [r7, #67]	@ zero_extendqisi2
 5210 0efa D31A     		subs	r3, r2, r3
 5211 0efc 97F85D20 		ldrb	r2, [r7, #93]	@ zero_extendqisi2
 5212 0f00 7049     		ldr	r1, .L354+20
 5213 0f02 0A44     		add	r2, r2, r1
 5214 0f04 92F8B821 		ldrb	r2, [r2, #440]	@ zero_extendqisi2
 5215 0f08 07F19001 		add	r1, r7, #144
 5216 0f0c 0B44     		add	r3, r3, r1
 5217 0f0e 03F8742C 		strb	r2, [r3, #-116]
1016:printer.c     ****         lectanterior[x-pos] = memoria[x];
 5218              		.loc 1 1016 0 discriminator 3
 5219 0f12 97F85D20 		ldrb	r2, [r7, #93]	@ zero_extendqisi2
 5220 0f16 97F84330 		ldrb	r3, [r7, #67]	@ zero_extendqisi2
 5221 0f1a D31A     		subs	r3, r2, r3
 5222 0f1c 97F85D20 		ldrb	r2, [r7, #93]	@ zero_extendqisi2
 5223 0f20 07F19001 		add	r1, r7, #144
 5224 0f24 0A44     		add	r2, r2, r1
 5225 0f26 12F8802C 		ldrb	r2, [r2, #-128]	@ zero_extendqisi2
 5226 0f2a 07F19001 		add	r1, r7, #144
 5227 0f2e 0B44     		add	r3, r3, r1
 5228 0f30 03F8682C 		strb	r2, [r3, #-104]
1017:printer.c     ****         resultado[x] = 0x00;
 5229              		.loc 1 1017 0 discriminator 3
 5230 0f34 97F85D30 		ldrb	r3, [r7, #93]	@ zero_extendqisi2
 5231 0f38 07F19002 		add	r2, r7, #144
 5232 0f3c 1344     		add	r3, r3, r2
 5233 0f3e 0022     		movs	r2, #0
 5234 0f40 03F88C2C 		strb	r2, [r3, #-140]
1014:printer.c     ****         lectactual[x-pos] = side.b.ProcessedTotals[0][0][x];
 5235              		.loc 1 1014 0 discriminator 3
ARM GAS  C:\Users\Diego\AppData\Local\Temp\ccIAJaV8.s 			page 119


 5236 0f44 97F85D30 		ldrb	r3, [r7, #93]	@ zero_extendqisi2
 5237 0f48 0133     		adds	r3, r3, #1
 5238 0f4a 87F85D30 		strb	r3, [r7, #93]
 5239              	.L287:
1014:printer.c     ****         lectactual[x-pos] = side.b.ProcessedTotals[0][0][x];
 5240              		.loc 1 1014 0 is_stmt 0 discriminator 1
 5241 0f4e 97F85D30 		ldrb	r3, [r7, #93]	@ zero_extendqisi2
 5242 0f52 092B     		cmp	r3, #9
 5243 0f54 CDD9     		bls	.L288
 5244              	.LBE119:
1018:printer.c     ****     }
1019:printer.c     ****     
1020:printer.c     ****     anterior = sscanf(lectanterior,"%d",&d);
 5245              		.loc 1 1020 0 is_stmt 1
 5246 0f56 3A46     		mov	r2, r7
 5247 0f58 07F12803 		add	r3, r7, #40
 5248 0f5c 5B49     		ldr	r1, .L354+28
 5249 0f5e 1846     		mov	r0, r3
 5250 0f60 FFF7FEFF 		bl	sscanf
 5251 0f64 F863     		str	r0, [r7, #60]
1021:printer.c     ****     actual = sscanf(lectactual,"%d",&d);
 5252              		.loc 1 1021 0
 5253 0f66 3A46     		mov	r2, r7
 5254 0f68 07F11C03 		add	r3, r7, #28
 5255 0f6c 5749     		ldr	r1, .L354+28
 5256 0f6e 1846     		mov	r0, r3
 5257 0f70 FFF7FEFF 		bl	sscanf
 5258 0f74 B863     		str	r0, [r7, #56]
1022:printer.c     ****     resta =  actual - anterior;
 5259              		.loc 1 1022 0
 5260 0f76 BA6B     		ldr	r2, [r7, #56]
 5261 0f78 FB6B     		ldr	r3, [r7, #60]
 5262 0f7a D31A     		subs	r3, r2, r3
 5263 0f7c 7B63     		str	r3, [r7, #52]
1023:printer.c     ****     //itoa(resta,resultado,10);
1024:printer.c     ****     sprintf(resultado, "%d", resta);
 5264              		.loc 1 1024 0
 5265 0f7e 3B1D     		adds	r3, r7, #4
 5266 0f80 7A6B     		ldr	r2, [r7, #52]
 5267 0f82 5249     		ldr	r1, .L354+28
 5268 0f84 1846     		mov	r0, r3
 5269 0f86 FFF7FEFF 		bl	sprintf
 5270              	.LBB120:
1025:printer.c     ****     for(uint8 x = 0; x < 18; x ++){
 5271              		.loc 1 1025 0
 5272 0f8a 0023     		movs	r3, #0
 5273 0f8c 87F85C30 		strb	r3, [r7, #92]
 5274 0f90 0BE0     		b	.L289
 5275              	.L290:
1026:printer.c     ****         PRINTER_A_PutChar(msn_dif[x]);
 5276              		.loc 1 1026 0 discriminator 3
 5277 0f92 97F85C30 		ldrb	r3, [r7, #92]	@ zero_extendqisi2
 5278 0f96 4E4A     		ldr	r2, .L354+32
 5279 0f98 D35C     		ldrb	r3, [r2, r3]	@ zero_extendqisi2
 5280 0f9a 1846     		mov	r0, r3
 5281 0f9c FFF7FEFF 		bl	PRINTER_A_PutChar
1025:printer.c     ****     for(uint8 x = 0; x < 18; x ++){
ARM GAS  C:\Users\Diego\AppData\Local\Temp\ccIAJaV8.s 			page 120


 5282              		.loc 1 1025 0 discriminator 3
 5283 0fa0 97F85C30 		ldrb	r3, [r7, #92]	@ zero_extendqisi2
 5284 0fa4 0133     		adds	r3, r3, #1
 5285 0fa6 87F85C30 		strb	r3, [r7, #92]
 5286              	.L289:
1025:printer.c     ****     for(uint8 x = 0; x < 18; x ++){
 5287              		.loc 1 1025 0 is_stmt 0 discriminator 1
 5288 0faa 97F85C30 		ldrb	r3, [r7, #92]	@ zero_extendqisi2
 5289 0fae 112B     		cmp	r3, #17
 5290 0fb0 EFD9     		bls	.L290
 5291              	.LBE120:
1027:printer.c     ****     }
1028:printer.c     ****     PRINTER_A_PutChar(LINE_FEED);
 5292              		.loc 1 1028 0 is_stmt 1
 5293 0fb2 404B     		ldr	r3, .L354+4
 5294 0fb4 1B78     		ldrb	r3, [r3]	@ zero_extendqisi2
 5295 0fb6 1846     		mov	r0, r3
 5296 0fb8 FFF7FEFF 		bl	PRINTER_A_PutChar
 5297              	.LBB121:
1029:printer.c     ****     for(uint8 x = 0; x < 10; x ++){
 5298              		.loc 1 1029 0
 5299 0fbc 0023     		movs	r3, #0
 5300 0fbe 87F85B30 		strb	r3, [r7, #91]
 5301 0fc2 19E0     		b	.L291
 5302              	.L293:
1030:printer.c     ****         if((10-x) == DecVol)
 5303              		.loc 1 1030 0
 5304 0fc4 97F85B30 		ldrb	r3, [r7, #91]	@ zero_extendqisi2
 5305 0fc8 C3F10A03 		rsb	r3, r3, #10
 5306 0fcc 3C4A     		ldr	r2, .L354+16
 5307 0fce 1278     		ldrb	r2, [r2]	@ zero_extendqisi2
 5308 0fd0 9342     		cmp	r3, r2
 5309 0fd2 02D1     		bne	.L292
1031:printer.c     ****             PRINTER_A_PutChar('.');
 5310              		.loc 1 1031 0
 5311 0fd4 2E20     		movs	r0, #46
 5312 0fd6 FFF7FEFF 		bl	PRINTER_A_PutChar
 5313              	.L292:
1032:printer.c     ****         PRINTER_A_PutChar(resultado[x]);
 5314              		.loc 1 1032 0 discriminator 2
 5315 0fda 97F85B30 		ldrb	r3, [r7, #91]	@ zero_extendqisi2
 5316 0fde 07F19002 		add	r2, r7, #144
 5317 0fe2 1344     		add	r3, r3, r2
 5318 0fe4 13F88C3C 		ldrb	r3, [r3, #-140]	@ zero_extendqisi2
 5319 0fe8 1846     		mov	r0, r3
 5320 0fea FFF7FEFF 		bl	PRINTER_A_PutChar
1029:printer.c     ****         if((10-x) == DecVol)
 5321              		.loc 1 1029 0 discriminator 2
 5322 0fee 97F85B30 		ldrb	r3, [r7, #91]	@ zero_extendqisi2
 5323 0ff2 0133     		adds	r3, r3, #1
 5324 0ff4 87F85B30 		strb	r3, [r7, #91]
 5325              	.L291:
1029:printer.c     ****         if((10-x) == DecVol)
 5326              		.loc 1 1029 0 is_stmt 0 discriminator 1
 5327 0ff8 97F85B30 		ldrb	r3, [r7, #91]	@ zero_extendqisi2
 5328 0ffc 092B     		cmp	r3, #9
 5329 0ffe E1D9     		bls	.L293
ARM GAS  C:\Users\Diego\AppData\Local\Temp\ccIAJaV8.s 			page 121


 5330              	.LBE121:
 5331              	.LBB122:
1033:printer.c     ****     }
1034:printer.c     ****     for(uint8 x = 0; x < 10; x++){
 5332              		.loc 1 1034 0 is_stmt 1
 5333 1000 0023     		movs	r3, #0
 5334 1002 87F85A30 		strb	r3, [r7, #90]
 5335 1006 13E0     		b	.L294
 5336              	.L295:
1035:printer.c     ****         EEPROM_1_WriteByte(side.b.ProcessedTotals[0][0][x],46+x);        
 5337              		.loc 1 1035 0 discriminator 3
 5338 1008 97F85A30 		ldrb	r3, [r7, #90]	@ zero_extendqisi2
 5339 100c 2D4A     		ldr	r2, .L354+20
 5340 100e 1344     		add	r3, r3, r2
 5341 1010 93F8B821 		ldrb	r2, [r3, #440]	@ zero_extendqisi2
 5342 1014 97F85A30 		ldrb	r3, [r7, #90]	@ zero_extendqisi2
 5343 1018 9BB2     		uxth	r3, r3
 5344 101a 2E33     		adds	r3, r3, #46
 5345 101c 9BB2     		uxth	r3, r3
 5346 101e 1946     		mov	r1, r3
 5347 1020 1046     		mov	r0, r2
 5348 1022 FFF7FEFF 		bl	EEPROM_1_WriteByte
1034:printer.c     ****         EEPROM_1_WriteByte(side.b.ProcessedTotals[0][0][x],46+x);        
 5349              		.loc 1 1034 0 discriminator 3
 5350 1026 97F85A30 		ldrb	r3, [r7, #90]	@ zero_extendqisi2
 5351 102a 0133     		adds	r3, r3, #1
 5352 102c 87F85A30 		strb	r3, [r7, #90]
 5353              	.L294:
1034:printer.c     ****         EEPROM_1_WriteByte(side.b.ProcessedTotals[0][0][x],46+x);        
 5354              		.loc 1 1034 0 is_stmt 0 discriminator 1
 5355 1030 97F85A30 		ldrb	r3, [r7, #90]	@ zero_extendqisi2
 5356 1034 092B     		cmp	r3, #9
 5357 1036 E7D9     		bls	.L295
 5358              	.LBE122:
1036:printer.c     ****     }
1037:printer.c     ****     PRINTER_A_PutChar(LINE_FEED);
 5359              		.loc 1 1037 0 is_stmt 1
 5360 1038 1E4B     		ldr	r3, .L354+4
 5361 103a 1B78     		ldrb	r3, [r3]	@ zero_extendqisi2
 5362 103c 1846     		mov	r0, r3
 5363 103e FFF7FEFF 		bl	PRINTER_A_PutChar
1038:printer.c     ****     PRINTER_A_PutChar(LINE_FEED);
 5364              		.loc 1 1038 0
 5365 1042 1C4B     		ldr	r3, .L354+4
 5366 1044 1B78     		ldrb	r3, [r3]	@ zero_extendqisi2
 5367 1046 1846     		mov	r0, r3
 5368 1048 FFF7FEFF 		bl	PRINTER_A_PutChar
 5369              	.LBB123:
1039:printer.c     **** 
1040:printer.c     ****     for(uint8 x = 0; x < 13; x ++){
 5370              		.loc 1 1040 0
 5371 104c 0023     		movs	r3, #0
 5372 104e 87F85930 		strb	r3, [r7, #89]
 5373 1052 0BE0     		b	.L296
 5374              	.L297:
1041:printer.c     **** 		PRINTER_A_PutChar(msn_product[x]);
 5375              		.loc 1 1041 0 discriminator 3
ARM GAS  C:\Users\Diego\AppData\Local\Temp\ccIAJaV8.s 			page 122


 5376 1054 97F85930 		ldrb	r3, [r7, #89]	@ zero_extendqisi2
 5377 1058 174A     		ldr	r2, .L354+8
 5378 105a D35C     		ldrb	r3, [r2, r3]	@ zero_extendqisi2
 5379 105c 1846     		mov	r0, r3
 5380 105e FFF7FEFF 		bl	PRINTER_A_PutChar
1040:printer.c     **** 		PRINTER_A_PutChar(msn_product[x]);
 5381              		.loc 1 1040 0 discriminator 3
 5382 1062 97F85930 		ldrb	r3, [r7, #89]	@ zero_extendqisi2
 5383 1066 0133     		adds	r3, r3, #1
 5384 1068 87F85930 		strb	r3, [r7, #89]
 5385              	.L296:
1040:printer.c     **** 		PRINTER_A_PutChar(msn_product[x]);
 5386              		.loc 1 1040 0 is_stmt 0 discriminator 1
 5387 106c 97F85930 		ldrb	r3, [r7, #89]	@ zero_extendqisi2
 5388 1070 0C2B     		cmp	r3, #12
 5389 1072 EFD9     		bls	.L297
 5390              	.LBE123:
1042:printer.c     **** 	}
1043:printer.c     ****     PRINTER_A_PutChar(LINE_FEED);
 5391              		.loc 1 1043 0 is_stmt 1
 5392 1074 0F4B     		ldr	r3, .L354+4
 5393 1076 1B78     		ldrb	r3, [r3]	@ zero_extendqisi2
 5394 1078 1846     		mov	r0, r3
 5395 107a FFF7FEFF 		bl	PRINTER_A_PutChar
 5396              	.LBB124:
1044:printer.c     ****     for(uint8 x = 0; x < 9; x ++){
 5397              		.loc 1 1044 0
 5398 107e 0023     		movs	r3, #0
 5399 1080 87F85830 		strb	r3, [r7, #88]
 5400 1084 0BE0     		b	.L298
 5401              	.L299:
1045:printer.c     ****     	PRINTER_A_PutChar(msn_extra[x]);
 5402              		.loc 1 1045 0 discriminator 3
 5403 1086 97F85830 		ldrb	r3, [r7, #88]	@ zero_extendqisi2
 5404 108a 124A     		ldr	r2, .L354+36
 5405 108c D35C     		ldrb	r3, [r2, r3]	@ zero_extendqisi2
 5406 108e 1846     		mov	r0, r3
 5407 1090 FFF7FEFF 		bl	PRINTER_A_PutChar
1044:printer.c     ****     for(uint8 x = 0; x < 9; x ++){
 5408              		.loc 1 1044 0 discriminator 3
 5409 1094 97F85830 		ldrb	r3, [r7, #88]	@ zero_extendqisi2
 5410 1098 0133     		adds	r3, r3, #1
 5411 109a 87F85830 		strb	r3, [r7, #88]
 5412              	.L298:
1044:printer.c     ****     for(uint8 x = 0; x < 9; x ++){
 5413              		.loc 1 1044 0 is_stmt 0 discriminator 1
 5414 109e 97F85830 		ldrb	r3, [r7, #88]	@ zero_extendqisi2
 5415 10a2 082B     		cmp	r3, #8
 5416 10a4 EFD9     		bls	.L299
 5417              	.LBE124:
 5418              	.LBB125:
1046:printer.c     ****     }
1047:printer.c     ****     for(uint8 x = 0; x < 10; x ++){ 
 5419              		.loc 1 1047 0 is_stmt 1
 5420 10a6 0023     		movs	r3, #0
 5421 10a8 87F85730 		strb	r3, [r7, #87]
 5422 10ac 2DE0     		b	.L300
ARM GAS  C:\Users\Diego\AppData\Local\Temp\ccIAJaV8.s 			page 123


 5423              	.L355:
 5424 10ae 00BF     		.align	2
 5425              	.L354:
 5426 10b0 00000000 		.word	msn_lecact
 5427 10b4 00000000 		.word	LINE_FEED
 5428 10b8 00000000 		.word	msn_product
 5429 10bc 00000000 		.word	msn_gasoline
 5430 10c0 00000000 		.word	DecVol
 5431 10c4 00000000 		.word	side
 5432 10c8 00000000 		.word	msn_lecaan
 5433 10cc 00000000 		.word	.LC0
 5434 10d0 00000000 		.word	msn_dif
 5435 10d4 00000000 		.word	msn_extra
 5436              	.L302:
1048:printer.c     ****         if((10-x) == DecVol)
 5437              		.loc 1 1048 0
 5438 10d8 97F85730 		ldrb	r3, [r7, #87]	@ zero_extendqisi2
 5439 10dc C3F10A03 		rsb	r3, r3, #10
 5440 10e0 C94A     		ldr	r2, .L356
 5441 10e2 1278     		ldrb	r2, [r2]	@ zero_extendqisi2
 5442 10e4 9342     		cmp	r3, r2
 5443 10e6 02D1     		bne	.L301
1049:printer.c     ****             PRINTER_A_PutChar('.');
 5444              		.loc 1 1049 0
 5445 10e8 2E20     		movs	r0, #46
 5446 10ea FFF7FEFF 		bl	PRINTER_A_PutChar
 5447              	.L301:
1050:printer.c     ****         PRINTER_A_PutChar(side.b.ProcessedTotals[1][0][x]);
 5448              		.loc 1 1050 0 discriminator 2
 5449 10ee 97F85730 		ldrb	r3, [r7, #87]	@ zero_extendqisi2
 5450 10f2 C64A     		ldr	r2, .L356+4
 5451 10f4 1344     		add	r3, r3, r2
 5452 10f6 93F8D631 		ldrb	r3, [r3, #470]	@ zero_extendqisi2
 5453 10fa 1846     		mov	r0, r3
 5454 10fc FFF7FEFF 		bl	PRINTER_A_PutChar
1047:printer.c     ****         if((10-x) == DecVol)
 5455              		.loc 1 1047 0 discriminator 2
 5456 1100 97F85730 		ldrb	r3, [r7, #87]	@ zero_extendqisi2
 5457 1104 0133     		adds	r3, r3, #1
 5458 1106 87F85730 		strb	r3, [r7, #87]
 5459              	.L300:
1047:printer.c     ****         if((10-x) == DecVol)
 5460              		.loc 1 1047 0 is_stmt 0 discriminator 1
 5461 110a 97F85730 		ldrb	r3, [r7, #87]	@ zero_extendqisi2
 5462 110e 092B     		cmp	r3, #9
 5463 1110 E2D9     		bls	.L302
 5464              	.LBE125:
1051:printer.c     ****     }
1052:printer.c     ****     PRINTER_A_PutChar(LINE_FEED);
 5465              		.loc 1 1052 0 is_stmt 1
 5466 1112 BF4B     		ldr	r3, .L356+8
 5467 1114 1B78     		ldrb	r3, [r3]	@ zero_extendqisi2
 5468 1116 1846     		mov	r0, r3
 5469 1118 FFF7FEFF 		bl	PRINTER_A_PutChar
 5470              	.LBB126:
1053:printer.c     ****     for(uint8 x = 0; x < 16; x ++){
 5471              		.loc 1 1053 0
ARM GAS  C:\Users\Diego\AppData\Local\Temp\ccIAJaV8.s 			page 124


 5472 111c 0023     		movs	r3, #0
 5473 111e 87F85630 		strb	r3, [r7, #86]
 5474 1122 0BE0     		b	.L303
 5475              	.L304:
1054:printer.c     **** 		PRINTER_A_PutChar(msn_lecaan[x]);
 5476              		.loc 1 1054 0 discriminator 3
 5477 1124 97F85630 		ldrb	r3, [r7, #86]	@ zero_extendqisi2
 5478 1128 BA4A     		ldr	r2, .L356+12
 5479 112a D35C     		ldrb	r3, [r2, r3]	@ zero_extendqisi2
 5480 112c 1846     		mov	r0, r3
 5481 112e FFF7FEFF 		bl	PRINTER_A_PutChar
1053:printer.c     ****     for(uint8 x = 0; x < 16; x ++){
 5482              		.loc 1 1053 0 discriminator 3
 5483 1132 97F85630 		ldrb	r3, [r7, #86]	@ zero_extendqisi2
 5484 1136 0133     		adds	r3, r3, #1
 5485 1138 87F85630 		strb	r3, [r7, #86]
 5486              	.L303:
1053:printer.c     ****     for(uint8 x = 0; x < 16; x ++){
 5487              		.loc 1 1053 0 is_stmt 0 discriminator 1
 5488 113c 97F85630 		ldrb	r3, [r7, #86]	@ zero_extendqisi2
 5489 1140 0F2B     		cmp	r3, #15
 5490 1142 EFD9     		bls	.L304
 5491              	.LBE126:
1055:printer.c     **** 	}
1056:printer.c     ****     PRINTER_A_PutChar(LINE_FEED);
 5492              		.loc 1 1056 0 is_stmt 1
 5493 1144 B24B     		ldr	r3, .L356+8
 5494 1146 1B78     		ldrb	r3, [r3]	@ zero_extendqisi2
 5495 1148 1846     		mov	r0, r3
 5496 114a FFF7FEFF 		bl	PRINTER_A_PutChar
 5497              	.LBB127:
1057:printer.c     ****     for(uint8 x = 0; x < 10; x ++){
 5498              		.loc 1 1057 0
 5499 114e 0023     		movs	r3, #0
 5500 1150 87F85530 		strb	r3, [r7, #85]
 5501 1154 15E0     		b	.L305
 5502              	.L306:
1058:printer.c     ****         memoria[x] = EEPROM_1_ReadByte(66+x);
 5503              		.loc 1 1058 0 discriminator 3
 5504 1156 97F85540 		ldrb	r4, [r7, #85]	@ zero_extendqisi2
 5505 115a 97F85530 		ldrb	r3, [r7, #85]	@ zero_extendqisi2
 5506 115e 9BB2     		uxth	r3, r3
 5507 1160 4233     		adds	r3, r3, #66
 5508 1162 9BB2     		uxth	r3, r3
 5509 1164 1846     		mov	r0, r3
 5510 1166 FFF7FEFF 		bl	EEPROM_1_ReadByte
 5511 116a 0346     		mov	r3, r0
 5512 116c 1A46     		mov	r2, r3
 5513 116e 07F19003 		add	r3, r7, #144
 5514 1172 2344     		add	r3, r3, r4
 5515 1174 03F8802C 		strb	r2, [r3, #-128]
1057:printer.c     ****     for(uint8 x = 0; x < 10; x ++){
 5516              		.loc 1 1057 0 discriminator 3
 5517 1178 97F85530 		ldrb	r3, [r7, #85]	@ zero_extendqisi2
 5518 117c 0133     		adds	r3, r3, #1
 5519 117e 87F85530 		strb	r3, [r7, #85]
 5520              	.L305:
ARM GAS  C:\Users\Diego\AppData\Local\Temp\ccIAJaV8.s 			page 125


1057:printer.c     ****     for(uint8 x = 0; x < 10; x ++){
 5521              		.loc 1 1057 0 is_stmt 0 discriminator 1
 5522 1182 97F85530 		ldrb	r3, [r7, #85]	@ zero_extendqisi2
 5523 1186 092B     		cmp	r3, #9
 5524 1188 E5D9     		bls	.L306
 5525              	.LBE127:
 5526              	.LBB128:
1059:printer.c     ****     }
1060:printer.c     ****     for(uint8 x = 0; x < 10; x ++){ 
 5527              		.loc 1 1060 0 is_stmt 1
 5528 118a 0023     		movs	r3, #0
 5529 118c 87F85430 		strb	r3, [r7, #84]
 5530 1190 19E0     		b	.L307
 5531              	.L309:
1061:printer.c     ****         if((10-x) == DecVol)
 5532              		.loc 1 1061 0
 5533 1192 97F85430 		ldrb	r3, [r7, #84]	@ zero_extendqisi2
 5534 1196 C3F10A03 		rsb	r3, r3, #10
 5535 119a 9B4A     		ldr	r2, .L356
 5536 119c 1278     		ldrb	r2, [r2]	@ zero_extendqisi2
 5537 119e 9342     		cmp	r3, r2
 5538 11a0 02D1     		bne	.L308
1062:printer.c     ****             PRINTER_A_PutChar('.');
 5539              		.loc 1 1062 0
 5540 11a2 2E20     		movs	r0, #46
 5541 11a4 FFF7FEFF 		bl	PRINTER_A_PutChar
 5542              	.L308:
1063:printer.c     ****         PRINTER_A_PutChar(memoria[x]);
 5543              		.loc 1 1063 0 discriminator 2
 5544 11a8 97F85430 		ldrb	r3, [r7, #84]	@ zero_extendqisi2
 5545 11ac 07F19002 		add	r2, r7, #144
 5546 11b0 1344     		add	r3, r3, r2
 5547 11b2 13F8803C 		ldrb	r3, [r3, #-128]	@ zero_extendqisi2
 5548 11b6 1846     		mov	r0, r3
 5549 11b8 FFF7FEFF 		bl	PRINTER_A_PutChar
1060:printer.c     ****         if((10-x) == DecVol)
 5550              		.loc 1 1060 0 discriminator 2
 5551 11bc 97F85430 		ldrb	r3, [r7, #84]	@ zero_extendqisi2
 5552 11c0 0133     		adds	r3, r3, #1
 5553 11c2 87F85430 		strb	r3, [r7, #84]
 5554              	.L307:
1060:printer.c     ****         if((10-x) == DecVol)
 5555              		.loc 1 1060 0 is_stmt 0 discriminator 1
 5556 11c6 97F85430 		ldrb	r3, [r7, #84]	@ zero_extendqisi2
 5557 11ca 092B     		cmp	r3, #9
 5558 11cc E1D9     		bls	.L309
 5559              	.LBE128:
1064:printer.c     ****     }
1065:printer.c     ****     PRINTER_A_PutChar(LINE_FEED);
 5560              		.loc 1 1065 0 is_stmt 1
 5561 11ce 904B     		ldr	r3, .L356+8
 5562 11d0 1B78     		ldrb	r3, [r3]	@ zero_extendqisi2
 5563 11d2 1846     		mov	r0, r3
 5564 11d4 FFF7FEFF 		bl	PRINTER_A_PutChar
 5565              	.LBB129:
1066:printer.c     ****     for(uint8 x = pos; x < 10; x++ ){
 5566              		.loc 1 1066 0
ARM GAS  C:\Users\Diego\AppData\Local\Temp\ccIAJaV8.s 			page 126


 5567 11d8 97F84330 		ldrb	r3, [r7, #67]
 5568 11dc 87F85330 		strb	r3, [r7, #83]
 5569 11e0 2DE0     		b	.L310
 5570              	.L311:
1067:printer.c     ****         lectactual[x-pos] = side.b.ProcessedTotals[1][0][x];
 5571              		.loc 1 1067 0 discriminator 3
 5572 11e2 97F85320 		ldrb	r2, [r7, #83]	@ zero_extendqisi2
 5573 11e6 97F84330 		ldrb	r3, [r7, #67]	@ zero_extendqisi2
 5574 11ea D31A     		subs	r3, r2, r3
 5575 11ec 97F85320 		ldrb	r2, [r7, #83]	@ zero_extendqisi2
 5576 11f0 8649     		ldr	r1, .L356+4
 5577 11f2 0A44     		add	r2, r2, r1
 5578 11f4 92F8D621 		ldrb	r2, [r2, #470]	@ zero_extendqisi2
 5579 11f8 07F19001 		add	r1, r7, #144
 5580 11fc 0B44     		add	r3, r3, r1
 5581 11fe 03F8742C 		strb	r2, [r3, #-116]
1068:printer.c     ****         lectanterior[x-pos] = memoria[x];
 5582              		.loc 1 1068 0 discriminator 3
 5583 1202 97F85320 		ldrb	r2, [r7, #83]	@ zero_extendqisi2
 5584 1206 97F84330 		ldrb	r3, [r7, #67]	@ zero_extendqisi2
 5585 120a D31A     		subs	r3, r2, r3
 5586 120c 97F85320 		ldrb	r2, [r7, #83]	@ zero_extendqisi2
 5587 1210 07F19001 		add	r1, r7, #144
 5588 1214 0A44     		add	r2, r2, r1
 5589 1216 12F8802C 		ldrb	r2, [r2, #-128]	@ zero_extendqisi2
 5590 121a 07F19001 		add	r1, r7, #144
 5591 121e 0B44     		add	r3, r3, r1
 5592 1220 03F8682C 		strb	r2, [r3, #-104]
1069:printer.c     ****         resultado[x] = 0x00;
 5593              		.loc 1 1069 0 discriminator 3
 5594 1224 97F85330 		ldrb	r3, [r7, #83]	@ zero_extendqisi2
 5595 1228 07F19002 		add	r2, r7, #144
 5596 122c 1344     		add	r3, r3, r2
 5597 122e 0022     		movs	r2, #0
 5598 1230 03F88C2C 		strb	r2, [r3, #-140]
1066:printer.c     ****         lectactual[x-pos] = side.b.ProcessedTotals[1][0][x];
 5599              		.loc 1 1066 0 discriminator 3
 5600 1234 97F85330 		ldrb	r3, [r7, #83]	@ zero_extendqisi2
 5601 1238 0133     		adds	r3, r3, #1
 5602 123a 87F85330 		strb	r3, [r7, #83]
 5603              	.L310:
1066:printer.c     ****         lectactual[x-pos] = side.b.ProcessedTotals[1][0][x];
 5604              		.loc 1 1066 0 is_stmt 0 discriminator 1
 5605 123e 97F85330 		ldrb	r3, [r7, #83]	@ zero_extendqisi2
 5606 1242 092B     		cmp	r3, #9
 5607 1244 CDD9     		bls	.L311
 5608              	.LBE129:
1070:printer.c     ****     }
1071:printer.c     ****     
1072:printer.c     ****     anterior = sscanf(lectanterior,"%d",&d);
 5609              		.loc 1 1072 0 is_stmt 1
 5610 1246 3A46     		mov	r2, r7
 5611 1248 07F12803 		add	r3, r7, #40
 5612 124c 7249     		ldr	r1, .L356+16
 5613 124e 1846     		mov	r0, r3
 5614 1250 FFF7FEFF 		bl	sscanf
 5615 1254 F863     		str	r0, [r7, #60]
ARM GAS  C:\Users\Diego\AppData\Local\Temp\ccIAJaV8.s 			page 127


1073:printer.c     ****     actual = sscanf(lectactual,"%d",&d);
 5616              		.loc 1 1073 0
 5617 1256 3A46     		mov	r2, r7
 5618 1258 07F11C03 		add	r3, r7, #28
 5619 125c 6E49     		ldr	r1, .L356+16
 5620 125e 1846     		mov	r0, r3
 5621 1260 FFF7FEFF 		bl	sscanf
 5622 1264 B863     		str	r0, [r7, #56]
1074:printer.c     ****     resta =  actual - anterior;
 5623              		.loc 1 1074 0
 5624 1266 BA6B     		ldr	r2, [r7, #56]
 5625 1268 FB6B     		ldr	r3, [r7, #60]
 5626 126a D31A     		subs	r3, r2, r3
 5627 126c 7B63     		str	r3, [r7, #52]
1075:printer.c     ****     //itoa(resta,resultado,10);
1076:printer.c     ****     sprintf(resultado, "%d", resta);
 5628              		.loc 1 1076 0
 5629 126e 3B1D     		adds	r3, r7, #4
 5630 1270 7A6B     		ldr	r2, [r7, #52]
 5631 1272 6949     		ldr	r1, .L356+16
 5632 1274 1846     		mov	r0, r3
 5633 1276 FFF7FEFF 		bl	sprintf
 5634              	.LBB130:
1077:printer.c     ****     for(uint8 x = 0; x < 18; x ++){
 5635              		.loc 1 1077 0
 5636 127a 0023     		movs	r3, #0
 5637 127c 87F85230 		strb	r3, [r7, #82]
 5638 1280 0BE0     		b	.L312
 5639              	.L313:
1078:printer.c     ****         PRINTER_A_PutChar(msn_dif[x]);
 5640              		.loc 1 1078 0 discriminator 3
 5641 1282 97F85230 		ldrb	r3, [r7, #82]	@ zero_extendqisi2
 5642 1286 654A     		ldr	r2, .L356+20
 5643 1288 D35C     		ldrb	r3, [r2, r3]	@ zero_extendqisi2
 5644 128a 1846     		mov	r0, r3
 5645 128c FFF7FEFF 		bl	PRINTER_A_PutChar
1077:printer.c     ****     for(uint8 x = 0; x < 18; x ++){
 5646              		.loc 1 1077 0 discriminator 3
 5647 1290 97F85230 		ldrb	r3, [r7, #82]	@ zero_extendqisi2
 5648 1294 0133     		adds	r3, r3, #1
 5649 1296 87F85230 		strb	r3, [r7, #82]
 5650              	.L312:
1077:printer.c     ****     for(uint8 x = 0; x < 18; x ++){
 5651              		.loc 1 1077 0 is_stmt 0 discriminator 1
 5652 129a 97F85230 		ldrb	r3, [r7, #82]	@ zero_extendqisi2
 5653 129e 112B     		cmp	r3, #17
 5654 12a0 EFD9     		bls	.L313
 5655              	.LBE130:
1079:printer.c     ****     }
1080:printer.c     ****     PRINTER_A_PutChar(LINE_FEED);
 5656              		.loc 1 1080 0 is_stmt 1
 5657 12a2 5B4B     		ldr	r3, .L356+8
 5658 12a4 1B78     		ldrb	r3, [r3]	@ zero_extendqisi2
 5659 12a6 1846     		mov	r0, r3
 5660 12a8 FFF7FEFF 		bl	PRINTER_A_PutChar
 5661              	.LBB131:
1081:printer.c     ****     for(uint8 x = 0; x < 10; x ++){
ARM GAS  C:\Users\Diego\AppData\Local\Temp\ccIAJaV8.s 			page 128


 5662              		.loc 1 1081 0
 5663 12ac 0023     		movs	r3, #0
 5664 12ae 87F85130 		strb	r3, [r7, #81]
 5665 12b2 19E0     		b	.L314
 5666              	.L316:
1082:printer.c     ****         if((10-x) == DecVol)
 5667              		.loc 1 1082 0
 5668 12b4 97F85130 		ldrb	r3, [r7, #81]	@ zero_extendqisi2
 5669 12b8 C3F10A03 		rsb	r3, r3, #10
 5670 12bc 524A     		ldr	r2, .L356
 5671 12be 1278     		ldrb	r2, [r2]	@ zero_extendqisi2
 5672 12c0 9342     		cmp	r3, r2
 5673 12c2 02D1     		bne	.L315
1083:printer.c     ****             PRINTER_A_PutChar('.');
 5674              		.loc 1 1083 0
 5675 12c4 2E20     		movs	r0, #46
 5676 12c6 FFF7FEFF 		bl	PRINTER_A_PutChar
 5677              	.L315:
1084:printer.c     ****         PRINTER_A_PutChar(resultado[x]);
 5678              		.loc 1 1084 0 discriminator 2
 5679 12ca 97F85130 		ldrb	r3, [r7, #81]	@ zero_extendqisi2
 5680 12ce 07F19002 		add	r2, r7, #144
 5681 12d2 1344     		add	r3, r3, r2
 5682 12d4 13F88C3C 		ldrb	r3, [r3, #-140]	@ zero_extendqisi2
 5683 12d8 1846     		mov	r0, r3
 5684 12da FFF7FEFF 		bl	PRINTER_A_PutChar
1081:printer.c     ****         if((10-x) == DecVol)
 5685              		.loc 1 1081 0 discriminator 2
 5686 12de 97F85130 		ldrb	r3, [r7, #81]	@ zero_extendqisi2
 5687 12e2 0133     		adds	r3, r3, #1
 5688 12e4 87F85130 		strb	r3, [r7, #81]
 5689              	.L314:
1081:printer.c     ****         if((10-x) == DecVol)
 5690              		.loc 1 1081 0 is_stmt 0 discriminator 1
 5691 12e8 97F85130 		ldrb	r3, [r7, #81]	@ zero_extendqisi2
 5692 12ec 092B     		cmp	r3, #9
 5693 12ee E1D9     		bls	.L316
 5694              	.LBE131:
 5695              	.LBB132:
1085:printer.c     ****     }
1086:printer.c     ****     for(uint8 x = 0; x < 10; x++){
 5696              		.loc 1 1086 0 is_stmt 1
 5697 12f0 0023     		movs	r3, #0
 5698 12f2 87F85030 		strb	r3, [r7, #80]
 5699 12f6 13E0     		b	.L317
 5700              	.L318:
1087:printer.c     ****         EEPROM_1_WriteByte(side.b.ProcessedTotals[1][0][x],66+x);        
 5701              		.loc 1 1087 0 discriminator 3
 5702 12f8 97F85030 		ldrb	r3, [r7, #80]	@ zero_extendqisi2
 5703 12fc 434A     		ldr	r2, .L356+4
 5704 12fe 1344     		add	r3, r3, r2
 5705 1300 93F8D621 		ldrb	r2, [r3, #470]	@ zero_extendqisi2
 5706 1304 97F85030 		ldrb	r3, [r7, #80]	@ zero_extendqisi2
 5707 1308 9BB2     		uxth	r3, r3
 5708 130a 4233     		adds	r3, r3, #66
 5709 130c 9BB2     		uxth	r3, r3
 5710 130e 1946     		mov	r1, r3
ARM GAS  C:\Users\Diego\AppData\Local\Temp\ccIAJaV8.s 			page 129


 5711 1310 1046     		mov	r0, r2
 5712 1312 FFF7FEFF 		bl	EEPROM_1_WriteByte
1086:printer.c     ****         EEPROM_1_WriteByte(side.b.ProcessedTotals[1][0][x],66+x);        
 5713              		.loc 1 1086 0 discriminator 3
 5714 1316 97F85030 		ldrb	r3, [r7, #80]	@ zero_extendqisi2
 5715 131a 0133     		adds	r3, r3, #1
 5716 131c 87F85030 		strb	r3, [r7, #80]
 5717              	.L317:
1086:printer.c     ****         EEPROM_1_WriteByte(side.b.ProcessedTotals[1][0][x],66+x);        
 5718              		.loc 1 1086 0 is_stmt 0 discriminator 1
 5719 1320 97F85030 		ldrb	r3, [r7, #80]	@ zero_extendqisi2
 5720 1324 092B     		cmp	r3, #9
 5721 1326 E7D9     		bls	.L318
 5722              	.LBE132:
1088:printer.c     ****     }
1089:printer.c     ****     PRINTER_A_PutChar(LINE_FEED);
 5723              		.loc 1 1089 0 is_stmt 1
 5724 1328 394B     		ldr	r3, .L356+8
 5725 132a 1B78     		ldrb	r3, [r3]	@ zero_extendqisi2
 5726 132c 1846     		mov	r0, r3
 5727 132e FFF7FEFF 		bl	PRINTER_A_PutChar
1090:printer.c     ****     
1091:printer.c     ****     
1092:printer.c     **** //    for(uint8 x = 0; x < 13; x ++){
1093:printer.c     **** //		PRINTER_A_PutChar(msn_product[x]);
1094:printer.c     **** //	}        
1095:printer.c     **** //    PRINTER_A_PutChar(LINE_FEED);
1096:printer.c     **** //    for(uint8 x = 0; x < 9; x ++){
1097:printer.c     **** //		PRINTER_A_PutChar(msn_diesel[x]);
1098:printer.c     **** //	}
1099:printer.c     **** //    for(uint8 x = 0; x < 10; x ++){ 
1100:printer.c     **** //        if((10-x) == DecVol)
1101:printer.c     **** //            PRINTER_A_PutChar('.');
1102:printer.c     **** //        PRINTER_A_PutChar(side.b.ProcessedTotals[0][1][x]);
1103:printer.c     **** //    }
1104:printer.c     **** //    PRINTER_A_PutChar(LINE_FEED); 
1105:printer.c     **** 	
1106:printer.c     ****     
1107:printer.c     ****     if((Positions-1)>= 3){
 5728              		.loc 1 1107 0
 5729 1332 3B4B     		ldr	r3, .L356+24
 5730 1334 1B78     		ldrb	r3, [r3]	@ zero_extendqisi2
 5731 1336 013B     		subs	r3, r3, #1
 5732 1338 022B     		cmp	r3, #2
 5733 133a 40F31981 		ble	.L319
 5734              	.LBB133:
1108:printer.c     ****         for(uint8 x = 0; x < 32; x ++){
 5735              		.loc 1 1108 0
 5736 133e 0023     		movs	r3, #0
 5737 1340 87F84F30 		strb	r3, [r7, #79]
 5738 1344 0BE0     		b	.L320
 5739              	.L321:
1109:printer.c     ****             PRINTER_A_PutChar(SEPARATOR[x]);
 5740              		.loc 1 1109 0 discriminator 3
 5741 1346 97F84F30 		ldrb	r3, [r7, #79]	@ zero_extendqisi2
 5742 134a 364A     		ldr	r2, .L356+28
 5743 134c D35C     		ldrb	r3, [r2, r3]	@ zero_extendqisi2
ARM GAS  C:\Users\Diego\AppData\Local\Temp\ccIAJaV8.s 			page 130


 5744 134e 1846     		mov	r0, r3
 5745 1350 FFF7FEFF 		bl	PRINTER_A_PutChar
1108:printer.c     ****         for(uint8 x = 0; x < 32; x ++){
 5746              		.loc 1 1108 0 discriminator 3
 5747 1354 97F84F30 		ldrb	r3, [r7, #79]	@ zero_extendqisi2
 5748 1358 0133     		adds	r3, r3, #1
 5749 135a 87F84F30 		strb	r3, [r7, #79]
 5750              	.L320:
1108:printer.c     ****         for(uint8 x = 0; x < 32; x ++){
 5751              		.loc 1 1108 0 is_stmt 0 discriminator 1
 5752 135e 97F84F30 		ldrb	r3, [r7, #79]	@ zero_extendqisi2
 5753 1362 1F2B     		cmp	r3, #31
 5754 1364 EFD9     		bls	.L321
 5755              	.LBE133:
1110:printer.c     ****         }           
1111:printer.c     ****         PRINTER_A_PutChar(LINE_FEED);
 5756              		.loc 1 1111 0 is_stmt 1
 5757 1366 2A4B     		ldr	r3, .L356+8
 5758 1368 1B78     		ldrb	r3, [r3]	@ zero_extendqisi2
 5759 136a 1846     		mov	r0, r3
 5760 136c FFF7FEFF 		bl	PRINTER_A_PutChar
 5761              	.LBB134:
1112:printer.c     ****         for(uint8 x = 0; x < 13; x ++){
 5762              		.loc 1 1112 0
 5763 1370 0023     		movs	r3, #0
 5764 1372 87F84E30 		strb	r3, [r7, #78]
 5765 1376 0BE0     		b	.L322
 5766              	.L323:
1113:printer.c     ****             PRINTER_A_PutChar(msn_pos[x]);
 5767              		.loc 1 1113 0 discriminator 3
 5768 1378 97F84E30 		ldrb	r3, [r7, #78]	@ zero_extendqisi2
 5769 137c 2A4A     		ldr	r2, .L356+32
 5770 137e D35C     		ldrb	r3, [r2, r3]	@ zero_extendqisi2
 5771 1380 1846     		mov	r0, r3
 5772 1382 FFF7FEFF 		bl	PRINTER_A_PutChar
1112:printer.c     ****         for(uint8 x = 0; x < 13; x ++){
 5773              		.loc 1 1112 0 discriminator 3
 5774 1386 97F84E30 		ldrb	r3, [r7, #78]	@ zero_extendqisi2
 5775 138a 0133     		adds	r3, r3, #1
 5776 138c 87F84E30 		strb	r3, [r7, #78]
 5777              	.L322:
1112:printer.c     ****         for(uint8 x = 0; x < 13; x ++){
 5778              		.loc 1 1112 0 is_stmt 0 discriminator 1
 5779 1390 97F84E30 		ldrb	r3, [r7, #78]	@ zero_extendqisi2
 5780 1394 0C2B     		cmp	r3, #12
 5781 1396 EFD9     		bls	.L323
 5782              	.LBE134:
1114:printer.c     ****         }
1115:printer.c     ****         PRINTER_A_PutChar(side.c.dir + 0x31);
 5783              		.loc 1 1115 0 is_stmt 1
 5784 1398 1C4B     		ldr	r3, .L356+4
 5785 139a 93F86A32 		ldrb	r3, [r3, #618]	@ zero_extendqisi2
 5786 139e 3133     		adds	r3, r3, #49
 5787 13a0 DBB2     		uxtb	r3, r3
 5788 13a2 1846     		mov	r0, r3
 5789 13a4 FFF7FEFF 		bl	PRINTER_A_PutChar
1116:printer.c     ****         PRINTER_A_PutChar(LINE_FEED);              
ARM GAS  C:\Users\Diego\AppData\Local\Temp\ccIAJaV8.s 			page 131


 5790              		.loc 1 1116 0
 5791 13a8 194B     		ldr	r3, .L356+8
 5792 13aa 1B78     		ldrb	r3, [r3]	@ zero_extendqisi2
 5793 13ac 1846     		mov	r0, r3
 5794 13ae FFF7FEFF 		bl	PRINTER_A_PutChar
 5795              	.LBB135:
1117:printer.c     ****         for(uint8 x = 0; x < 10; x ++){ 
 5796              		.loc 1 1117 0
 5797 13b2 0023     		movs	r3, #0
 5798 13b4 87F84D30 		strb	r3, [r7, #77]
 5799 13b8 18E0     		b	.L324
 5800              	.L326:
1118:printer.c     ****             if((10-x) == DecVol)
 5801              		.loc 1 1118 0
 5802 13ba 97F84D30 		ldrb	r3, [r7, #77]	@ zero_extendqisi2
 5803 13be C3F10A03 		rsb	r3, r3, #10
 5804 13c2 114A     		ldr	r2, .L356
 5805 13c4 1278     		ldrb	r2, [r2]	@ zero_extendqisi2
 5806 13c6 9342     		cmp	r3, r2
 5807 13c8 02D1     		bne	.L325
1119:printer.c     ****                 PRINTER_A_PutChar('.');
 5808              		.loc 1 1119 0
 5809 13ca 2E20     		movs	r0, #46
 5810 13cc FFF7FEFF 		bl	PRINTER_A_PutChar
 5811              	.L325:
1120:printer.c     ****             PRINTER_A_PutChar(side.c.ProcessedTotals[0][0][x]);
 5812              		.loc 1 1120 0 discriminator 2
 5813 13d0 97F84D30 		ldrb	r3, [r7, #77]	@ zero_extendqisi2
 5814 13d4 0D4A     		ldr	r2, .L356+4
 5815 13d6 1344     		add	r3, r3, r2
 5816 13d8 93F8ED32 		ldrb	r3, [r3, #749]	@ zero_extendqisi2
 5817 13dc 1846     		mov	r0, r3
 5818 13de FFF7FEFF 		bl	PRINTER_A_PutChar
1117:printer.c     ****             if((10-x) == DecVol)
 5819              		.loc 1 1117 0 discriminator 2
 5820 13e2 97F84D30 		ldrb	r3, [r7, #77]	@ zero_extendqisi2
 5821 13e6 0133     		adds	r3, r3, #1
 5822 13e8 87F84D30 		strb	r3, [r7, #77]
 5823              	.L324:
1117:printer.c     ****             if((10-x) == DecVol)
 5824              		.loc 1 1117 0 is_stmt 0 discriminator 1
 5825 13ec 97F84D30 		ldrb	r3, [r7, #77]	@ zero_extendqisi2
 5826 13f0 092B     		cmp	r3, #9
 5827 13f2 E2D9     		bls	.L326
 5828              	.LBE135:
1121:printer.c     ****         }
1122:printer.c     ****         PRINTER_A_PutChar(LINE_FEED);
 5829              		.loc 1 1122 0 is_stmt 1
 5830 13f4 064B     		ldr	r3, .L356+8
 5831 13f6 1B78     		ldrb	r3, [r3]	@ zero_extendqisi2
 5832 13f8 1846     		mov	r0, r3
 5833 13fa FFF7FEFF 		bl	PRINTER_A_PutChar
 5834              	.LBB136:
1123:printer.c     ****     	for(uint8 x = 0; x < 16; x ++){
 5835              		.loc 1 1123 0
 5836 13fe 0023     		movs	r3, #0
 5837 1400 87F84C30 		strb	r3, [r7, #76]
ARM GAS  C:\Users\Diego\AppData\Local\Temp\ccIAJaV8.s 			page 132


 5838 1404 1EE0     		b	.L327
 5839              	.L357:
 5840 1406 00BF     		.align	2
 5841              	.L356:
 5842 1408 00000000 		.word	DecVol
 5843 140c 00000000 		.word	side
 5844 1410 00000000 		.word	LINE_FEED
 5845 1414 00000000 		.word	msn_lecaan
 5846 1418 00000000 		.word	.LC0
 5847 141c 00000000 		.word	msn_dif
 5848 1420 00000000 		.word	Positions
 5849 1424 00000000 		.word	SEPARATOR
 5850 1428 00000000 		.word	msn_pos
 5851              	.L328:
1124:printer.c     ****     		PRINTER_A_PutChar(msn_lecaan[x]);
 5852              		.loc 1 1124 0 discriminator 3
 5853 142c 97F84C30 		ldrb	r3, [r7, #76]	@ zero_extendqisi2
 5854 1430 814A     		ldr	r2, .L358
 5855 1432 D35C     		ldrb	r3, [r2, r3]	@ zero_extendqisi2
 5856 1434 1846     		mov	r0, r3
 5857 1436 FFF7FEFF 		bl	PRINTER_A_PutChar
1123:printer.c     ****     	for(uint8 x = 0; x < 16; x ++){
 5858              		.loc 1 1123 0 discriminator 3
 5859 143a 97F84C30 		ldrb	r3, [r7, #76]	@ zero_extendqisi2
 5860 143e 0133     		adds	r3, r3, #1
 5861 1440 87F84C30 		strb	r3, [r7, #76]
 5862              	.L327:
1123:printer.c     ****     	for(uint8 x = 0; x < 16; x ++){
 5863              		.loc 1 1123 0 is_stmt 0 discriminator 1
 5864 1444 97F84C30 		ldrb	r3, [r7, #76]	@ zero_extendqisi2
 5865 1448 0F2B     		cmp	r3, #15
 5866 144a EFD9     		bls	.L328
 5867              	.LBE136:
1125:printer.c     ****     	}
1126:printer.c     ****         PRINTER_A_PutChar(LINE_FEED);
 5868              		.loc 1 1126 0 is_stmt 1
 5869 144c 7B4B     		ldr	r3, .L358+4
 5870 144e 1B78     		ldrb	r3, [r3]	@ zero_extendqisi2
 5871 1450 1846     		mov	r0, r3
 5872 1452 FFF7FEFF 		bl	PRINTER_A_PutChar
 5873              	.LBB137:
1127:printer.c     ****         for(uint8 x = 0; x < 32; x ++){
 5874              		.loc 1 1127 0
 5875 1456 0023     		movs	r3, #0
 5876 1458 87F84B30 		strb	r3, [r7, #75]
 5877 145c 0BE0     		b	.L329
 5878              	.L330:
1128:printer.c     ****             PRINTER_A_PutChar(SEPARATOR[x]);
 5879              		.loc 1 1128 0 discriminator 3
 5880 145e 97F84B30 		ldrb	r3, [r7, #75]	@ zero_extendqisi2
 5881 1462 774A     		ldr	r2, .L358+8
 5882 1464 D35C     		ldrb	r3, [r2, r3]	@ zero_extendqisi2
 5883 1466 1846     		mov	r0, r3
 5884 1468 FFF7FEFF 		bl	PRINTER_A_PutChar
1127:printer.c     ****         for(uint8 x = 0; x < 32; x ++){
 5885              		.loc 1 1127 0 discriminator 3
 5886 146c 97F84B30 		ldrb	r3, [r7, #75]	@ zero_extendqisi2
ARM GAS  C:\Users\Diego\AppData\Local\Temp\ccIAJaV8.s 			page 133


 5887 1470 0133     		adds	r3, r3, #1
 5888 1472 87F84B30 		strb	r3, [r7, #75]
 5889              	.L329:
1127:printer.c     ****         for(uint8 x = 0; x < 32; x ++){
 5890              		.loc 1 1127 0 is_stmt 0 discriminator 1
 5891 1476 97F84B30 		ldrb	r3, [r7, #75]	@ zero_extendqisi2
 5892 147a 1F2B     		cmp	r3, #31
 5893 147c EFD9     		bls	.L330
 5894              	.LBE137:
1129:printer.c     ****         }   
1130:printer.c     ****         PRINTER_A_PutChar(LINE_FEED);
 5895              		.loc 1 1130 0 is_stmt 1
 5896 147e 6F4B     		ldr	r3, .L358+4
 5897 1480 1B78     		ldrb	r3, [r3]	@ zero_extendqisi2
 5898 1482 1846     		mov	r0, r3
 5899 1484 FFF7FEFF 		bl	PRINTER_A_PutChar
 5900              	.LBB138:
1131:printer.c     ****     	for(uint8 x = 0; x < 13; x ++){
 5901              		.loc 1 1131 0
 5902 1488 0023     		movs	r3, #0
 5903 148a 87F84A30 		strb	r3, [r7, #74]
 5904 148e 0BE0     		b	.L331
 5905              	.L332:
1132:printer.c     ****             PRINTER_A_PutChar(msn_pos[x]);
 5906              		.loc 1 1132 0 discriminator 3
 5907 1490 97F84A30 		ldrb	r3, [r7, #74]	@ zero_extendqisi2
 5908 1494 6B4A     		ldr	r2, .L358+12
 5909 1496 D35C     		ldrb	r3, [r2, r3]	@ zero_extendqisi2
 5910 1498 1846     		mov	r0, r3
 5911 149a FFF7FEFF 		bl	PRINTER_A_PutChar
1131:printer.c     ****     	for(uint8 x = 0; x < 13; x ++){
 5912              		.loc 1 1131 0 discriminator 3
 5913 149e 97F84A30 		ldrb	r3, [r7, #74]	@ zero_extendqisi2
 5914 14a2 0133     		adds	r3, r3, #1
 5915 14a4 87F84A30 		strb	r3, [r7, #74]
 5916              	.L331:
1131:printer.c     ****     	for(uint8 x = 0; x < 13; x ++){
 5917              		.loc 1 1131 0 is_stmt 0 discriminator 1
 5918 14a8 97F84A30 		ldrb	r3, [r7, #74]	@ zero_extendqisi2
 5919 14ac 0C2B     		cmp	r3, #12
 5920 14ae EFD9     		bls	.L332
 5921              	.LBE138:
1133:printer.c     ****         }
1134:printer.c     ****         PRINTER_A_PutChar(side.d.dir + 0x31);
 5922              		.loc 1 1134 0 is_stmt 1
 5923 14b0 654B     		ldr	r3, .L358+16
 5924 14b2 93F89F33 		ldrb	r3, [r3, #927]	@ zero_extendqisi2
 5925 14b6 3133     		adds	r3, r3, #49
 5926 14b8 DBB2     		uxtb	r3, r3
 5927 14ba 1846     		mov	r0, r3
 5928 14bc FFF7FEFF 		bl	PRINTER_A_PutChar
1135:printer.c     ****         PRINTER_A_PutChar(LINE_FEED);                      
 5929              		.loc 1 1135 0
 5930 14c0 5E4B     		ldr	r3, .L358+4
 5931 14c2 1B78     		ldrb	r3, [r3]	@ zero_extendqisi2
 5932 14c4 1846     		mov	r0, r3
 5933 14c6 FFF7FEFF 		bl	PRINTER_A_PutChar
ARM GAS  C:\Users\Diego\AppData\Local\Temp\ccIAJaV8.s 			page 134


 5934              	.LBB139:
1136:printer.c     ****         for(uint8 x = 0; x < 10; x ++){ 
 5935              		.loc 1 1136 0
 5936 14ca 0023     		movs	r3, #0
 5937 14cc 87F84930 		strb	r3, [r7, #73]
 5938 14d0 18E0     		b	.L333
 5939              	.L335:
1137:printer.c     ****             if((10-x) == DecVol)
 5940              		.loc 1 1137 0
 5941 14d2 97F84930 		ldrb	r3, [r7, #73]	@ zero_extendqisi2
 5942 14d6 C3F10A03 		rsb	r3, r3, #10
 5943 14da 5C4A     		ldr	r2, .L358+20
 5944 14dc 1278     		ldrb	r2, [r2]	@ zero_extendqisi2
 5945 14de 9342     		cmp	r3, r2
 5946 14e0 02D1     		bne	.L334
1138:printer.c     ****                 PRINTER_A_PutChar('.');
 5947              		.loc 1 1138 0
 5948 14e2 2E20     		movs	r0, #46
 5949 14e4 FFF7FEFF 		bl	PRINTER_A_PutChar
 5950              	.L334:
1139:printer.c     ****             PRINTER_A_PutChar(side.d.ProcessedTotals[0][0][x]);
 5951              		.loc 1 1139 0 discriminator 2
 5952 14e8 97F84930 		ldrb	r3, [r7, #73]	@ zero_extendqisi2
 5953 14ec 564A     		ldr	r2, .L358+16
 5954 14ee 1344     		add	r3, r3, r2
 5955 14f0 93F82234 		ldrb	r3, [r3, #1058]	@ zero_extendqisi2
 5956 14f4 1846     		mov	r0, r3
 5957 14f6 FFF7FEFF 		bl	PRINTER_A_PutChar
1136:printer.c     ****             if((10-x) == DecVol)
 5958              		.loc 1 1136 0 discriminator 2
 5959 14fa 97F84930 		ldrb	r3, [r7, #73]	@ zero_extendqisi2
 5960 14fe 0133     		adds	r3, r3, #1
 5961 1500 87F84930 		strb	r3, [r7, #73]
 5962              	.L333:
1136:printer.c     ****             if((10-x) == DecVol)
 5963              		.loc 1 1136 0 is_stmt 0 discriminator 1
 5964 1504 97F84930 		ldrb	r3, [r7, #73]	@ zero_extendqisi2
 5965 1508 092B     		cmp	r3, #9
 5966 150a E2D9     		bls	.L335
 5967              	.LBE139:
1140:printer.c     ****         }
1141:printer.c     ****         PRINTER_A_PutChar(LINE_FEED);
 5968              		.loc 1 1141 0 is_stmt 1
 5969 150c 4B4B     		ldr	r3, .L358+4
 5970 150e 1B78     		ldrb	r3, [r3]	@ zero_extendqisi2
 5971 1510 1846     		mov	r0, r3
 5972 1512 FFF7FEFF 		bl	PRINTER_A_PutChar
 5973              	.LBB140:
1142:printer.c     ****     	for(uint8 x = 0; x < 16; x ++){
 5974              		.loc 1 1142 0
 5975 1516 0023     		movs	r3, #0
 5976 1518 87F84830 		strb	r3, [r7, #72]
 5977 151c 0BE0     		b	.L336
 5978              	.L337:
1143:printer.c     ****     		PRINTER_A_PutChar(msn_lecaan[x]);
 5979              		.loc 1 1143 0 discriminator 3
 5980 151e 97F84830 		ldrb	r3, [r7, #72]	@ zero_extendqisi2
ARM GAS  C:\Users\Diego\AppData\Local\Temp\ccIAJaV8.s 			page 135


 5981 1522 454A     		ldr	r2, .L358
 5982 1524 D35C     		ldrb	r3, [r2, r3]	@ zero_extendqisi2
 5983 1526 1846     		mov	r0, r3
 5984 1528 FFF7FEFF 		bl	PRINTER_A_PutChar
1142:printer.c     ****     	for(uint8 x = 0; x < 16; x ++){
 5985              		.loc 1 1142 0 discriminator 3
 5986 152c 97F84830 		ldrb	r3, [r7, #72]	@ zero_extendqisi2
 5987 1530 0133     		adds	r3, r3, #1
 5988 1532 87F84830 		strb	r3, [r7, #72]
 5989              	.L336:
1142:printer.c     ****     	for(uint8 x = 0; x < 16; x ++){
 5990              		.loc 1 1142 0 is_stmt 0 discriminator 1
 5991 1536 97F84830 		ldrb	r3, [r7, #72]	@ zero_extendqisi2
 5992 153a 0F2B     		cmp	r3, #15
 5993 153c EFD9     		bls	.L337
 5994              	.LBE140:
 5995              	.LBB141:
1144:printer.c     ****     	}
1145:printer.c     ****         
1146:printer.c     ****         for(uint8 x = 0; x < 24; x ++){
 5996              		.loc 1 1146 0 is_stmt 1
 5997 153e 0023     		movs	r3, #0
 5998 1540 87F84730 		strb	r3, [r7, #71]
 5999 1544 0BE0     		b	.L338
 6000              	.L339:
1147:printer.c     ****             PRINTER_A_PutChar(SEPARATOR[x]);
 6001              		.loc 1 1147 0 discriminator 3
 6002 1546 97F84730 		ldrb	r3, [r7, #71]	@ zero_extendqisi2
 6003 154a 3D4A     		ldr	r2, .L358+8
 6004 154c D35C     		ldrb	r3, [r2, r3]	@ zero_extendqisi2
 6005 154e 1846     		mov	r0, r3
 6006 1550 FFF7FEFF 		bl	PRINTER_A_PutChar
1146:printer.c     ****             PRINTER_A_PutChar(SEPARATOR[x]);
 6007              		.loc 1 1146 0 discriminator 3
 6008 1554 97F84730 		ldrb	r3, [r7, #71]	@ zero_extendqisi2
 6009 1558 0133     		adds	r3, r3, #1
 6010 155a 87F84730 		strb	r3, [r7, #71]
 6011              	.L338:
1146:printer.c     ****             PRINTER_A_PutChar(SEPARATOR[x]);
 6012              		.loc 1 1146 0 is_stmt 0 discriminator 1
 6013 155e 97F84730 		ldrb	r3, [r7, #71]	@ zero_extendqisi2
 6014 1562 172B     		cmp	r3, #23
 6015 1564 EFD9     		bls	.L339
 6016              	.LBE141:
1148:printer.c     ****         }            
1149:printer.c     **** 	    PRINTER_A_PutChar(LINE_FEED);
 6017              		.loc 1 1149 0 is_stmt 1
 6018 1566 354B     		ldr	r3, .L358+4
 6019 1568 1B78     		ldrb	r3, [r3]	@ zero_extendqisi2
 6020 156a 1846     		mov	r0, r3
 6021 156c FFF7FEFF 		bl	PRINTER_A_PutChar
 6022              	.L319:
 6023              	.LBB142:
1150:printer.c     ****     } 
1151:printer.c     ****     /******FOOTER*****/
1152:printer.c     **** 	for(uint8 x = 0; x < 32; x ++){
 6024              		.loc 1 1152 0
ARM GAS  C:\Users\Diego\AppData\Local\Temp\ccIAJaV8.s 			page 136


 6025 1570 0023     		movs	r3, #0
 6026 1572 87F84630 		strb	r3, [r7, #70]
 6027 1576 0BE0     		b	.L340
 6028              	.L341:
1153:printer.c     **** 		PRINTER_A_PutChar(SEPARATOR[x]);
 6029              		.loc 1 1153 0 discriminator 3
 6030 1578 97F84630 		ldrb	r3, [r7, #70]	@ zero_extendqisi2
 6031 157c 304A     		ldr	r2, .L358+8
 6032 157e D35C     		ldrb	r3, [r2, r3]	@ zero_extendqisi2
 6033 1580 1846     		mov	r0, r3
 6034 1582 FFF7FEFF 		bl	PRINTER_A_PutChar
1152:printer.c     **** 		PRINTER_A_PutChar(SEPARATOR[x]);
 6035              		.loc 1 1152 0 discriminator 3
 6036 1586 97F84630 		ldrb	r3, [r7, #70]	@ zero_extendqisi2
 6037 158a 0133     		adds	r3, r3, #1
 6038 158c 87F84630 		strb	r3, [r7, #70]
 6039              	.L340:
1152:printer.c     **** 		PRINTER_A_PutChar(SEPARATOR[x]);
 6040              		.loc 1 1152 0 is_stmt 0 discriminator 1
 6041 1590 97F84630 		ldrb	r3, [r7, #70]	@ zero_extendqisi2
 6042 1594 1F2B     		cmp	r3, #31
 6043 1596 EFD9     		bls	.L341
 6044              	.LBE142:
1154:printer.c     **** 	}
1155:printer.c     **** 	PRINTER_A_PutChar(LINE_FEED);
 6045              		.loc 1 1155 0 is_stmt 1
 6046 1598 284B     		ldr	r3, .L358+4
 6047 159a 1B78     		ldrb	r3, [r3]	@ zero_extendqisi2
 6048 159c 1846     		mov	r0, r3
 6049 159e FFF7FEFF 		bl	PRINTER_A_PutChar
 6050              	.LBB143:
1156:printer.c     **** 	for(uint8 x = 0; x < 32; x ++){
 6051              		.loc 1 1156 0
 6052 15a2 0023     		movs	r3, #0
 6053 15a4 87F84530 		strb	r3, [r7, #69]
 6054 15a8 0BE0     		b	.L342
 6055              	.L343:
1157:printer.c     **** 		PRINTER_A_PutChar(msn_footer[x]);
 6056              		.loc 1 1157 0 discriminator 3
 6057 15aa 97F84530 		ldrb	r3, [r7, #69]	@ zero_extendqisi2
 6058 15ae 284A     		ldr	r2, .L358+24
 6059 15b0 D35C     		ldrb	r3, [r2, r3]	@ zero_extendqisi2
 6060 15b2 1846     		mov	r0, r3
 6061 15b4 FFF7FEFF 		bl	PRINTER_A_PutChar
1156:printer.c     **** 	for(uint8 x = 0; x < 32; x ++){
 6062              		.loc 1 1156 0 discriminator 3
 6063 15b8 97F84530 		ldrb	r3, [r7, #69]	@ zero_extendqisi2
 6064 15bc 0133     		adds	r3, r3, #1
 6065 15be 87F84530 		strb	r3, [r7, #69]
 6066              	.L342:
1156:printer.c     **** 	for(uint8 x = 0; x < 32; x ++){
 6067              		.loc 1 1156 0 is_stmt 0 discriminator 1
 6068 15c2 97F84530 		ldrb	r3, [r7, #69]	@ zero_extendqisi2
 6069 15c6 1F2B     		cmp	r3, #31
 6070 15c8 EFD9     		bls	.L343
 6071              	.LBE143:
1158:printer.c     **** 	}
ARM GAS  C:\Users\Diego\AppData\Local\Temp\ccIAJaV8.s 			page 137


1159:printer.c     **** 	PRINTER_A_PutChar(LINE_FEED);
 6072              		.loc 1 1159 0 is_stmt 1
 6073 15ca 1C4B     		ldr	r3, .L358+4
 6074 15cc 1B78     		ldrb	r3, [r3]	@ zero_extendqisi2
 6075 15ce 1846     		mov	r0, r3
 6076 15d0 FFF7FEFF 		bl	PRINTER_A_PutChar
 6077              	.LBB144:
1160:printer.c     **** 	for(uint8 x = 0; x < 32; x ++){
 6078              		.loc 1 1160 0
 6079 15d4 0023     		movs	r3, #0
 6080 15d6 87F84430 		strb	r3, [r7, #68]
 6081 15da 0BE0     		b	.L344
 6082              	.L345:
1161:printer.c     **** 		PRINTER_A_PutChar(msn_footer2[x]);
 6083              		.loc 1 1161 0 discriminator 3
 6084 15dc 97F84430 		ldrb	r3, [r7, #68]	@ zero_extendqisi2
 6085 15e0 1C4A     		ldr	r2, .L358+28
 6086 15e2 D35C     		ldrb	r3, [r2, r3]	@ zero_extendqisi2
 6087 15e4 1846     		mov	r0, r3
 6088 15e6 FFF7FEFF 		bl	PRINTER_A_PutChar
1160:printer.c     **** 	for(uint8 x = 0; x < 32; x ++){
 6089              		.loc 1 1160 0 discriminator 3
 6090 15ea 97F84430 		ldrb	r3, [r7, #68]	@ zero_extendqisi2
 6091 15ee 0133     		adds	r3, r3, #1
 6092 15f0 87F84430 		strb	r3, [r7, #68]
 6093              	.L344:
1160:printer.c     **** 	for(uint8 x = 0; x < 32; x ++){
 6094              		.loc 1 1160 0 is_stmt 0 discriminator 1
 6095 15f4 97F84430 		ldrb	r3, [r7, #68]	@ zero_extendqisi2
 6096 15f8 1F2B     		cmp	r3, #31
 6097 15fa EFD9     		bls	.L345
 6098              	.LBE144:
1162:printer.c     **** 	}           
1163:printer.c     ****     PRINTER_A_PutChar(LINE_FEED);
 6099              		.loc 1 1163 0 is_stmt 1
 6100 15fc 0F4B     		ldr	r3, .L358+4
 6101 15fe 1B78     		ldrb	r3, [r3]	@ zero_extendqisi2
 6102 1600 1846     		mov	r0, r3
 6103 1602 FFF7FEFF 		bl	PRINTER_A_PutChar
1164:printer.c     ****     PRINTER_A_PutChar(LINE_FEED);
 6104              		.loc 1 1164 0
 6105 1606 0D4B     		ldr	r3, .L358+4
 6106 1608 1B78     		ldrb	r3, [r3]	@ zero_extendqisi2
 6107 160a 1846     		mov	r0, r3
 6108 160c FFF7FEFF 		bl	PRINTER_A_PutChar
1165:printer.c     ****     PRINTER_A_PutChar(LINE_FEED);
 6109              		.loc 1 1165 0
 6110 1610 0A4B     		ldr	r3, .L358+4
 6111 1612 1B78     		ldrb	r3, [r3]	@ zero_extendqisi2
 6112 1614 1846     		mov	r0, r3
 6113 1616 FFF7FEFF 		bl	PRINTER_A_PutChar
1166:printer.c     ****     PRINTER_A_PutChar(LINE_FEED);
 6114              		.loc 1 1166 0
 6115 161a 084B     		ldr	r3, .L358+4
 6116 161c 1B78     		ldrb	r3, [r3]	@ zero_extendqisi2
 6117 161e 1846     		mov	r0, r3
 6118 1620 FFF7FEFF 		bl	PRINTER_A_PutChar
ARM GAS  C:\Users\Diego\AppData\Local\Temp\ccIAJaV8.s 			page 138


1167:printer.c     ****     PRINTER_A_PutChar(LINE_FEED);
 6119              		.loc 1 1167 0
 6120 1624 054B     		ldr	r3, .L358+4
 6121 1626 1B78     		ldrb	r3, [r3]	@ zero_extendqisi2
 6122 1628 1846     		mov	r0, r3
 6123 162a FFF7FEFF 		bl	PRINTER_A_PutChar
1168:printer.c     ****     
1169:printer.c     **** }
 6124              		.loc 1 1169 0
 6125 162e 00BF     		nop
 6126 1630 9437     		adds	r7, r7, #148
 6127              		.cfi_def_cfa_offset 12
 6128 1632 BD46     		mov	sp, r7
 6129              		.cfi_def_cfa_register 13
 6130              		@ sp needed
 6131 1634 90BD     		pop	{r4, r7, pc}
 6132              	.L359:
 6133 1636 00BF     		.align	2
 6134              	.L358:
 6135 1638 00000000 		.word	msn_lecaan
 6136 163c 00000000 		.word	LINE_FEED
 6137 1640 00000000 		.word	SEPARATOR
 6138 1644 00000000 		.word	msn_pos
 6139 1648 00000000 		.word	side
 6140 164c 00000000 		.word	DecVol
 6141 1650 00000000 		.word	msn_footer
 6142 1654 00000000 		.word	msn_footer2
 6143              		.cfi_endproc
 6144              	.LFE65:
 6145              		.size	PrintShift, .-PrintShift
 6146              		.section	.text.PrintPOS,"ax",%progbits
 6147              		.align	2
 6148              		.global	PrintPOS
 6149              		.thumb
 6150              		.thumb_func
 6151              		.type	PrintPOS, %function
 6152              	PrintPOS:
 6153              	.LFB66:
1170:printer.c     **** 
1171:printer.c     **** void PrintPOS(uint8 address){
 6154              		.loc 1 1171 0
 6155              		.cfi_startproc
 6156              		@ args = 0, pretend = 0, frame = 80
 6157              		@ frame_needed = 1, uses_anonymous_args = 0
 6158 0000 90B5     		push	{r4, r7, lr}
 6159              		.cfi_def_cfa_offset 12
 6160              		.cfi_offset 4, -12
 6161              		.cfi_offset 7, -8
 6162              		.cfi_offset 14, -4
 6163 0002 95B0     		sub	sp, sp, #84
 6164              		.cfi_def_cfa_offset 96
 6165 0004 00AF     		add	r7, sp, #0
 6166              		.cfi_def_cfa_register 7
 6167 0006 0346     		mov	r3, r0
 6168 0008 FB71     		strb	r3, [r7, #7]
1172:printer.c     ****     int8 screen_size, date_sum;  
1173:printer.c     ****     screen_size = 0;
ARM GAS  C:\Users\Diego\AppData\Local\Temp\ccIAJaV8.s 			page 139


 6169              		.loc 1 1173 0
 6170 000a 0023     		movs	r3, #0
 6171 000c 7B72     		strb	r3, [r7, #9]
1174:printer.c     ****     sale_number[5]=(int_salenumber/10000)+48;
 6172              		.loc 1 1174 0
 6173 000e CA4B     		ldr	r3, .L512
 6174 0010 1B78     		ldrb	r3, [r3]	@ zero_extendqisi2
 6175 0012 CA4A     		ldr	r2, .L512+4
 6176 0014 82FB0312 		smull	r1, r2, r2, r3
 6177 0018 1213     		asrs	r2, r2, #12
 6178 001a DB17     		asrs	r3, r3, #31
 6179 001c D31A     		subs	r3, r2, r3
 6180 001e DBB2     		uxtb	r3, r3
 6181 0020 3033     		adds	r3, r3, #48
 6182 0022 DAB2     		uxtb	r2, r3
 6183 0024 C64B     		ldr	r3, .L512+8
 6184 0026 5A71     		strb	r2, [r3, #5]
1175:printer.c     **** 	sale_number[4]=((int_salenumber%10000)/1000)+48;
 6185              		.loc 1 1175 0
 6186 0028 C34B     		ldr	r3, .L512
 6187 002a 1B78     		ldrb	r3, [r3]	@ zero_extendqisi2
 6188 002c 1A46     		mov	r2, r3
 6189 002e C34B     		ldr	r3, .L512+4
 6190 0030 83FB0213 		smull	r1, r3, r3, r2
 6191 0034 1913     		asrs	r1, r3, #12
 6192 0036 D317     		asrs	r3, r2, #31
 6193 0038 CB1A     		subs	r3, r1, r3
 6194 003a 42F21071 		movw	r1, #10000
 6195 003e 01FB03F3 		mul	r3, r1, r3
 6196 0042 D31A     		subs	r3, r2, r3
 6197 0044 BF4A     		ldr	r2, .L512+12
 6198 0046 82FB0312 		smull	r1, r2, r2, r3
 6199 004a 9211     		asrs	r2, r2, #6
 6200 004c DB17     		asrs	r3, r3, #31
 6201 004e D31A     		subs	r3, r2, r3
 6202 0050 DBB2     		uxtb	r3, r3
 6203 0052 3033     		adds	r3, r3, #48
 6204 0054 DAB2     		uxtb	r2, r3
 6205 0056 BA4B     		ldr	r3, .L512+8
 6206 0058 1A71     		strb	r2, [r3, #4]
1176:printer.c     **** 	sale_number[3]=(((int_salenumber%10000)%1000)/100)+48;
 6207              		.loc 1 1176 0
 6208 005a B74B     		ldr	r3, .L512
 6209 005c 1B78     		ldrb	r3, [r3]	@ zero_extendqisi2
 6210 005e 1A46     		mov	r2, r3
 6211 0060 B64B     		ldr	r3, .L512+4
 6212 0062 83FB0213 		smull	r1, r3, r3, r2
 6213 0066 1913     		asrs	r1, r3, #12
 6214 0068 D317     		asrs	r3, r2, #31
 6215 006a CB1A     		subs	r3, r1, r3
 6216 006c 42F21071 		movw	r1, #10000
 6217 0070 01FB03F3 		mul	r3, r1, r3
 6218 0074 D31A     		subs	r3, r2, r3
 6219 0076 B34A     		ldr	r2, .L512+12
 6220 0078 82FB0312 		smull	r1, r2, r2, r3
 6221 007c 9111     		asrs	r1, r2, #6
 6222 007e DA17     		asrs	r2, r3, #31
ARM GAS  C:\Users\Diego\AppData\Local\Temp\ccIAJaV8.s 			page 140


 6223 0080 8A1A     		subs	r2, r1, r2
 6224 0082 4FF47A71 		mov	r1, #1000
 6225 0086 01FB02F2 		mul	r2, r1, r2
 6226 008a 9A1A     		subs	r2, r3, r2
 6227 008c AE4B     		ldr	r3, .L512+16
 6228 008e 83FB0213 		smull	r1, r3, r3, r2
 6229 0092 5911     		asrs	r1, r3, #5
 6230 0094 D317     		asrs	r3, r2, #31
 6231 0096 CB1A     		subs	r3, r1, r3
 6232 0098 DBB2     		uxtb	r3, r3
 6233 009a 3033     		adds	r3, r3, #48
 6234 009c DAB2     		uxtb	r2, r3
 6235 009e A84B     		ldr	r3, .L512+8
 6236 00a0 DA70     		strb	r2, [r3, #3]
1177:printer.c     **** 	sale_number[2]=((((int_salenumber%10000)%1000)%100)/10)+48;	
 6237              		.loc 1 1177 0
 6238 00a2 A54B     		ldr	r3, .L512
 6239 00a4 1B78     		ldrb	r3, [r3]	@ zero_extendqisi2
 6240 00a6 A54A     		ldr	r2, .L512+4
 6241 00a8 82FB0312 		smull	r1, r2, r2, r3
 6242 00ac 1113     		asrs	r1, r2, #12
 6243 00ae DA17     		asrs	r2, r3, #31
 6244 00b0 8A1A     		subs	r2, r1, r2
 6245 00b2 42F21071 		movw	r1, #10000
 6246 00b6 01FB02F2 		mul	r2, r1, r2
 6247 00ba 9A1A     		subs	r2, r3, r2
 6248 00bc A14B     		ldr	r3, .L512+12
 6249 00be 83FB0213 		smull	r1, r3, r3, r2
 6250 00c2 9911     		asrs	r1, r3, #6
 6251 00c4 D317     		asrs	r3, r2, #31
 6252 00c6 CB1A     		subs	r3, r1, r3
 6253 00c8 4FF47A71 		mov	r1, #1000
 6254 00cc 01FB03F3 		mul	r3, r1, r3
 6255 00d0 D31A     		subs	r3, r2, r3
 6256 00d2 9D4A     		ldr	r2, .L512+16
 6257 00d4 82FB0312 		smull	r1, r2, r2, r3
 6258 00d8 5111     		asrs	r1, r2, #5
 6259 00da DA17     		asrs	r2, r3, #31
 6260 00dc 8A1A     		subs	r2, r1, r2
 6261 00de 6421     		movs	r1, #100
 6262 00e0 01FB02F2 		mul	r2, r1, r2
 6263 00e4 9A1A     		subs	r2, r3, r2
 6264 00e6 994B     		ldr	r3, .L512+20
 6265 00e8 83FB0213 		smull	r1, r3, r3, r2
 6266 00ec 9910     		asrs	r1, r3, #2
 6267 00ee D317     		asrs	r3, r2, #31
 6268 00f0 CB1A     		subs	r3, r1, r3
 6269 00f2 DBB2     		uxtb	r3, r3
 6270 00f4 3033     		adds	r3, r3, #48
 6271 00f6 DAB2     		uxtb	r2, r3
 6272 00f8 914B     		ldr	r3, .L512+8
 6273 00fa 9A70     		strb	r2, [r3, #2]
1178:printer.c     **** 	sale_number[1]=((((int_salenumber%10000)%1000)%100)%10)+48;
 6274              		.loc 1 1178 0
 6275 00fc 8E4B     		ldr	r3, .L512
 6276 00fe 1B78     		ldrb	r3, [r3]	@ zero_extendqisi2
 6277 0100 8E4A     		ldr	r2, .L512+4
ARM GAS  C:\Users\Diego\AppData\Local\Temp\ccIAJaV8.s 			page 141


 6278 0102 82FB0312 		smull	r1, r2, r2, r3
 6279 0106 1113     		asrs	r1, r2, #12
 6280 0108 DA17     		asrs	r2, r3, #31
 6281 010a 8A1A     		subs	r2, r1, r2
 6282 010c 42F21071 		movw	r1, #10000
 6283 0110 01FB02F2 		mul	r2, r1, r2
 6284 0114 9A1A     		subs	r2, r3, r2
 6285 0116 8B4B     		ldr	r3, .L512+12
 6286 0118 83FB0213 		smull	r1, r3, r3, r2
 6287 011c 9911     		asrs	r1, r3, #6
 6288 011e D317     		asrs	r3, r2, #31
 6289 0120 CB1A     		subs	r3, r1, r3
 6290 0122 4FF47A71 		mov	r1, #1000
 6291 0126 01FB03F3 		mul	r3, r1, r3
 6292 012a D31A     		subs	r3, r2, r3
 6293 012c 864A     		ldr	r2, .L512+16
 6294 012e 82FB0312 		smull	r1, r2, r2, r3
 6295 0132 5111     		asrs	r1, r2, #5
 6296 0134 DA17     		asrs	r2, r3, #31
 6297 0136 8A1A     		subs	r2, r1, r2
 6298 0138 6421     		movs	r1, #100
 6299 013a 01FB02F2 		mul	r2, r1, r2
 6300 013e 9A1A     		subs	r2, r3, r2
 6301 0140 824B     		ldr	r3, .L512+20
 6302 0142 83FB0213 		smull	r1, r3, r3, r2
 6303 0146 9910     		asrs	r1, r3, #2
 6304 0148 D317     		asrs	r3, r2, #31
 6305 014a C91A     		subs	r1, r1, r3
 6306 014c 0B46     		mov	r3, r1
 6307 014e 9B00     		lsls	r3, r3, #2
 6308 0150 0B44     		add	r3, r3, r1
 6309 0152 5B00     		lsls	r3, r3, #1
 6310 0154 D11A     		subs	r1, r2, r3
 6311 0156 CBB2     		uxtb	r3, r1
 6312 0158 3033     		adds	r3, r3, #48
 6313 015a DAB2     		uxtb	r2, r3
 6314 015c 784B     		ldr	r3, .L512+8
 6315 015e 5A70     		strb	r2, [r3, #1]
 6316              	.LBB145:
1179:printer.c     ****     for(uint8 i = 1; i<6; i++){
 6317              		.loc 1 1179 0
 6318 0160 0123     		movs	r3, #1
 6319 0162 87F84F30 		strb	r3, [r7, #79]
 6320 0166 0FE0     		b	.L361
 6321              	.L362:
1180:printer.c     ****         EEPROM_1_WriteByte(sale_number[i],i);
 6322              		.loc 1 1180 0 discriminator 3
 6323 0168 97F84F30 		ldrb	r3, [r7, #79]	@ zero_extendqisi2
 6324 016c 744A     		ldr	r2, .L512+8
 6325 016e D35C     		ldrb	r3, [r2, r3]	@ zero_extendqisi2
 6326 0170 97F84F20 		ldrb	r2, [r7, #79]	@ zero_extendqisi2
 6327 0174 92B2     		uxth	r2, r2
 6328 0176 1146     		mov	r1, r2
 6329 0178 1846     		mov	r0, r3
 6330 017a FFF7FEFF 		bl	EEPROM_1_WriteByte
1179:printer.c     ****     for(uint8 i = 1; i<6; i++){
 6331              		.loc 1 1179 0 discriminator 3
ARM GAS  C:\Users\Diego\AppData\Local\Temp\ccIAJaV8.s 			page 142


 6332 017e 97F84F30 		ldrb	r3, [r7, #79]	@ zero_extendqisi2
 6333 0182 0133     		adds	r3, r3, #1
 6334 0184 87F84F30 		strb	r3, [r7, #79]
 6335              	.L361:
1179:printer.c     ****     for(uint8 i = 1; i<6; i++){
 6336              		.loc 1 1179 0 is_stmt 0 discriminator 1
 6337 0188 97F84F30 		ldrb	r3, [r7, #79]	@ zero_extendqisi2
 6338 018c 052B     		cmp	r3, #5
 6339 018e EBD9     		bls	.L362
 6340              	.L365:
 6341              	.LBE145:
 6342              	.LBB146:
1181:printer.c     ****     }
1182:printer.c     ****     do {
1183:printer.c     ****         for(uint8 LCDRx = 0; LCDRx < 6; LCDRx++){            
 6343              		.loc 1 1183 0 is_stmt 1
 6344 0190 0023     		movs	r3, #0
 6345 0192 87F84E30 		strb	r3, [r7, #78]
 6346 0196 0BE0     		b	.L363
 6347              	.L364:
1184:printer.c     ****             screen_PutChar(ASK_TIME[LCDRx]);
 6348              		.loc 1 1184 0 discriminator 3
 6349 0198 97F84E30 		ldrb	r3, [r7, #78]	@ zero_extendqisi2
 6350 019c 6C4A     		ldr	r2, .L512+24
 6351 019e D35C     		ldrb	r3, [r2, r3]	@ zero_extendqisi2
 6352 01a0 1846     		mov	r0, r3
 6353 01a2 FFF7FEFF 		bl	screen_PutChar
1183:printer.c     ****             screen_PutChar(ASK_TIME[LCDRx]);
 6354              		.loc 1 1183 0 discriminator 3
 6355 01a6 97F84E30 		ldrb	r3, [r7, #78]	@ zero_extendqisi2
 6356 01aa 0133     		adds	r3, r3, #1
 6357 01ac 87F84E30 		strb	r3, [r7, #78]
 6358              	.L363:
1183:printer.c     ****             screen_PutChar(ASK_TIME[LCDRx]);
 6359              		.loc 1 1183 0 is_stmt 0 discriminator 1
 6360 01b0 97F84E30 		ldrb	r3, [r7, #78]	@ zero_extendqisi2
 6361 01b4 052B     		cmp	r3, #5
 6362 01b6 EFD9     		bls	.L364
 6363              	.LBE146:
1185:printer.c     ****         }
1186:printer.c     ****         CyDelay(4);
 6364              		.loc 1 1186 0 is_stmt 1
 6365 01b8 0420     		movs	r0, #4
 6366 01ba FFF7FEFF 		bl	CyDelay
1187:printer.c     ****         screen_size = screen_GetRxBufferSize();
 6367              		.loc 1 1187 0
 6368 01be FFF7FEFF 		bl	screen_GetRxBufferSize
 6369 01c2 0346     		mov	r3, r0
 6370 01c4 7B72     		strb	r3, [r7, #9]
1188:printer.c     ****     }while(screen_size < 13);
 6371              		.loc 1 1188 0
 6372 01c6 97F90930 		ldrsb	r3, [r7, #9]
 6373 01ca 0C2B     		cmp	r3, #12
 6374 01cc E0DD     		ble	.L365
1189:printer.c     ****     
1190:printer.c     ****     if(screen_size >= 13 ){
 6375              		.loc 1 1190 0
ARM GAS  C:\Users\Diego\AppData\Local\Temp\ccIAJaV8.s 			page 143


 6376 01ce 97F90930 		ldrsb	r3, [r7, #9]
 6377 01d2 0C2B     		cmp	r3, #12
 6378 01d4 18DD     		ble	.L366
 6379              	.LBB147:
1191:printer.c     ****         for(uint8 LCDRx = 0; LCDRx < screen_size; LCDRx++){
 6380              		.loc 1 1191 0
 6381 01d6 0023     		movs	r3, #0
 6382 01d8 87F84D30 		strb	r3, [r7, #77]
 6383 01dc 0CE0     		b	.L367
 6384              	.L368:
1192:printer.c     ****             touch1[LCDRx] = screen_ReadRxData();
 6385              		.loc 1 1192 0 discriminator 3
 6386 01de 97F84D40 		ldrb	r4, [r7, #77]	@ zero_extendqisi2
 6387 01e2 FFF7FEFF 		bl	screen_ReadRxData
 6388 01e6 0346     		mov	r3, r0
 6389 01e8 1A46     		mov	r2, r3
 6390 01ea 5A4B     		ldr	r3, .L512+28
 6391 01ec 1A55     		strb	r2, [r3, r4]
1191:printer.c     ****         for(uint8 LCDRx = 0; LCDRx < screen_size; LCDRx++){
 6392              		.loc 1 1191 0 discriminator 3
 6393 01ee 97F84D30 		ldrb	r3, [r7, #77]	@ zero_extendqisi2
 6394 01f2 0133     		adds	r3, r3, #1
 6395 01f4 87F84D30 		strb	r3, [r7, #77]
 6396              	.L367:
1191:printer.c     ****         for(uint8 LCDRx = 0; LCDRx < screen_size; LCDRx++){
 6397              		.loc 1 1191 0 is_stmt 0 discriminator 1
 6398 01f8 97F84D20 		ldrb	r2, [r7, #77]	@ zero_extendqisi2
 6399 01fc 97F90930 		ldrsb	r3, [r7, #9]
 6400 0200 9A42     		cmp	r2, r3
 6401 0202 ECDB     		blt	.L368
 6402              	.LBE147:
1193:printer.c     ****         }
1194:printer.c     ****         screen_size = 0;
 6403              		.loc 1 1194 0 is_stmt 1
 6404 0204 0023     		movs	r3, #0
 6405 0206 7B72     		strb	r3, [r7, #9]
 6406              	.L366:
 6407              	.LBB148:
1195:printer.c     ****     }
1196:printer.c     ****     /* Encabezado */
1197:printer.c     ****     for(uint8 x = 0; x < 32; x ++){
 6408              		.loc 1 1197 0
 6409 0208 0023     		movs	r3, #0
 6410 020a 87F84C30 		strb	r3, [r7, #76]
 6411 020e 0BE0     		b	.L369
 6412              	.L370:
1198:printer.c     **** 		PRINTER_A_PutChar(msn_POS[x]);
 6413              		.loc 1 1198 0 discriminator 3
 6414 0210 97F84C30 		ldrb	r3, [r7, #76]	@ zero_extendqisi2
 6415 0214 504A     		ldr	r2, .L512+32
 6416 0216 D35C     		ldrb	r3, [r2, r3]	@ zero_extendqisi2
 6417 0218 1846     		mov	r0, r3
 6418 021a FFF7FEFF 		bl	PRINTER_A_PutChar
1197:printer.c     **** 		PRINTER_A_PutChar(msn_POS[x]);
 6419              		.loc 1 1197 0 discriminator 3
 6420 021e 97F84C30 		ldrb	r3, [r7, #76]	@ zero_extendqisi2
 6421 0222 0133     		adds	r3, r3, #1
ARM GAS  C:\Users\Diego\AppData\Local\Temp\ccIAJaV8.s 			page 144


 6422 0224 87F84C30 		strb	r3, [r7, #76]
 6423              	.L369:
1197:printer.c     **** 		PRINTER_A_PutChar(msn_POS[x]);
 6424              		.loc 1 1197 0 is_stmt 0 discriminator 1
 6425 0228 97F84C30 		ldrb	r3, [r7, #76]	@ zero_extendqisi2
 6426 022c 1F2B     		cmp	r3, #31
 6427 022e EFD9     		bls	.L370
 6428              	.LBE148:
1199:printer.c     **** 	}    
1200:printer.c     ****     PRINTER_A_PutChar(LINE_FEED);
 6429              		.loc 1 1200 0 is_stmt 1
 6430 0230 4A4B     		ldr	r3, .L512+36
 6431 0232 1B78     		ldrb	r3, [r3]	@ zero_extendqisi2
 6432 0234 1846     		mov	r0, r3
 6433 0236 FFF7FEFF 		bl	PRINTER_A_PutChar
 6434              	.LBB149:
1201:printer.c     ****     for(uint8 x = 0; x < 13; x ++){
 6435              		.loc 1 1201 0
 6436 023a 0023     		movs	r3, #0
 6437 023c 87F84B30 		strb	r3, [r7, #75]
 6438 0240 0BE0     		b	.L371
 6439              	.L372:
1202:printer.c     **** 		PRINTER_A_PutChar(msn_venta[x]);
 6440              		.loc 1 1202 0 discriminator 3
 6441 0242 97F84B30 		ldrb	r3, [r7, #75]	@ zero_extendqisi2
 6442 0246 464A     		ldr	r2, .L512+40
 6443 0248 D35C     		ldrb	r3, [r2, r3]	@ zero_extendqisi2
 6444 024a 1846     		mov	r0, r3
 6445 024c FFF7FEFF 		bl	PRINTER_A_PutChar
1201:printer.c     ****     for(uint8 x = 0; x < 13; x ++){
 6446              		.loc 1 1201 0 discriminator 3
 6447 0250 97F84B30 		ldrb	r3, [r7, #75]	@ zero_extendqisi2
 6448 0254 0133     		adds	r3, r3, #1
 6449 0256 87F84B30 		strb	r3, [r7, #75]
 6450              	.L371:
1201:printer.c     ****     for(uint8 x = 0; x < 13; x ++){
 6451              		.loc 1 1201 0 is_stmt 0 discriminator 1
 6452 025a 97F84B30 		ldrb	r3, [r7, #75]	@ zero_extendqisi2
 6453 025e 0C2B     		cmp	r3, #12
 6454 0260 EFD9     		bls	.L372
 6455              	.LBE149:
1203:printer.c     **** 	}
1204:printer.c     ****     if(address == side.a.dir){    
 6456              		.loc 1 1204 0 is_stmt 1
 6457 0262 404B     		ldr	r3, .L512+44
 6458 0264 1B78     		ldrb	r3, [r3]	@ zero_extendqisi2
 6459 0266 FA79     		ldrb	r2, [r7, #7]	@ zero_extendqisi2
 6460 0268 9A42     		cmp	r2, r3
 6461 026a 5BD1     		bne	.L373
1205:printer.c     ****         if(side.a.Copy == 1){
 6462              		.loc 1 1205 0
 6463 026c 3D4B     		ldr	r3, .L512+44
 6464 026e 93F83431 		ldrb	r3, [r3, #308]	@ zero_extendqisi2
 6465 0272 012B     		cmp	r3, #1
 6466 0274 28D1     		bne	.L374
 6467              	.LBB150:
1206:printer.c     ****             for(uint8 x = 0; x < 4; x ++){
ARM GAS  C:\Users\Diego\AppData\Local\Temp\ccIAJaV8.s 			page 145


 6468              		.loc 1 1206 0
 6469 0276 0023     		movs	r3, #0
 6470 0278 87F84A30 		strb	r3, [r7, #74]
 6471 027c 0BE0     		b	.L375
 6472              	.L376:
1207:printer.c     ****         		PRINTER_A_PutChar(prefijo[x]);
 6473              		.loc 1 1207 0 discriminator 3
 6474 027e 97F84A30 		ldrb	r3, [r7, #74]	@ zero_extendqisi2
 6475 0282 394A     		ldr	r2, .L512+48
 6476 0284 D35C     		ldrb	r3, [r2, r3]	@ zero_extendqisi2
 6477 0286 1846     		mov	r0, r3
 6478 0288 FFF7FEFF 		bl	PRINTER_A_PutChar
1206:printer.c     ****             for(uint8 x = 0; x < 4; x ++){
 6479              		.loc 1 1206 0 discriminator 3
 6480 028c 97F84A30 		ldrb	r3, [r7, #74]	@ zero_extendqisi2
 6481 0290 0133     		adds	r3, r3, #1
 6482 0292 87F84A30 		strb	r3, [r7, #74]
 6483              	.L375:
1206:printer.c     ****             for(uint8 x = 0; x < 4; x ++){
 6484              		.loc 1 1206 0 is_stmt 0 discriminator 1
 6485 0296 97F84A30 		ldrb	r3, [r7, #74]	@ zero_extendqisi2
 6486 029a 032B     		cmp	r3, #3
 6487 029c EFD9     		bls	.L376
 6488              	.LBE150:
 6489              	.LBB151:
1208:printer.c     ****             }
1209:printer.c     ****             for(uint8 x = 5; x > 0; x --){
 6490              		.loc 1 1209 0 is_stmt 1
 6491 029e 0523     		movs	r3, #5
 6492 02a0 87F84930 		strb	r3, [r7, #73]
 6493 02a4 0BE0     		b	.L377
 6494              	.L378:
1210:printer.c     ****         		PRINTER_A_PutChar(sale_number_copy[x]);
 6495              		.loc 1 1210 0 discriminator 3
 6496 02a6 97F84930 		ldrb	r3, [r7, #73]	@ zero_extendqisi2
 6497 02aa 304A     		ldr	r2, .L512+52
 6498 02ac D35C     		ldrb	r3, [r2, r3]	@ zero_extendqisi2
 6499 02ae 1846     		mov	r0, r3
 6500 02b0 FFF7FEFF 		bl	PRINTER_A_PutChar
1209:printer.c     ****         		PRINTER_A_PutChar(sale_number_copy[x]);
 6501              		.loc 1 1209 0 discriminator 3
 6502 02b4 97F84930 		ldrb	r3, [r7, #73]	@ zero_extendqisi2
 6503 02b8 013B     		subs	r3, r3, #1
 6504 02ba 87F84930 		strb	r3, [r7, #73]
 6505              	.L377:
1209:printer.c     ****         		PRINTER_A_PutChar(sale_number_copy[x]);
 6506              		.loc 1 1209 0 is_stmt 0 discriminator 1
 6507 02be 97F84930 		ldrb	r3, [r7, #73]	@ zero_extendqisi2
 6508 02c2 002B     		cmp	r3, #0
 6509 02c4 EFD1     		bne	.L378
 6510 02c6 2DE0     		b	.L373
 6511              	.L374:
 6512              	.LBE151:
 6513              	.LBB152:
1211:printer.c     ****             } 
1212:printer.c     ****         }else{
1213:printer.c     ****             for(uint8 x = 0; x < 4; x ++){
ARM GAS  C:\Users\Diego\AppData\Local\Temp\ccIAJaV8.s 			page 146


 6514              		.loc 1 1213 0 is_stmt 1
 6515 02c8 0023     		movs	r3, #0
 6516 02ca 87F84830 		strb	r3, [r7, #72]
 6517 02ce 0BE0     		b	.L379
 6518              	.L380:
1214:printer.c     ****         		PRINTER_A_PutChar(prefijo[x]);
 6519              		.loc 1 1214 0 discriminator 3
 6520 02d0 97F84830 		ldrb	r3, [r7, #72]	@ zero_extendqisi2
 6521 02d4 244A     		ldr	r2, .L512+48
 6522 02d6 D35C     		ldrb	r3, [r2, r3]	@ zero_extendqisi2
 6523 02d8 1846     		mov	r0, r3
 6524 02da FFF7FEFF 		bl	PRINTER_A_PutChar
1213:printer.c     ****         		PRINTER_A_PutChar(prefijo[x]);
 6525              		.loc 1 1213 0 discriminator 3
 6526 02de 97F84830 		ldrb	r3, [r7, #72]	@ zero_extendqisi2
 6527 02e2 0133     		adds	r3, r3, #1
 6528 02e4 87F84830 		strb	r3, [r7, #72]
 6529              	.L379:
1213:printer.c     ****         		PRINTER_A_PutChar(prefijo[x]);
 6530              		.loc 1 1213 0 is_stmt 0 discriminator 1
 6531 02e8 97F84830 		ldrb	r3, [r7, #72]	@ zero_extendqisi2
 6532 02ec 032B     		cmp	r3, #3
 6533 02ee EFD9     		bls	.L380
 6534              	.LBE152:
 6535              	.LBB153:
1215:printer.c     ****             }
1216:printer.c     ****             for(uint8 x = 5; x > 0; x --){
 6536              		.loc 1 1216 0 is_stmt 1
 6537 02f0 0523     		movs	r3, #5
 6538 02f2 87F84730 		strb	r3, [r7, #71]
 6539 02f6 0BE0     		b	.L381
 6540              	.L382:
1217:printer.c     ****         		PRINTER_A_PutChar(sale_number[x]);
 6541              		.loc 1 1217 0 discriminator 3
 6542 02f8 97F84730 		ldrb	r3, [r7, #71]	@ zero_extendqisi2
 6543 02fc 104A     		ldr	r2, .L512+8
 6544 02fe D35C     		ldrb	r3, [r2, r3]	@ zero_extendqisi2
 6545 0300 1846     		mov	r0, r3
 6546 0302 FFF7FEFF 		bl	PRINTER_A_PutChar
1216:printer.c     ****         		PRINTER_A_PutChar(sale_number[x]);
 6547              		.loc 1 1216 0 discriminator 3
 6548 0306 97F84730 		ldrb	r3, [r7, #71]	@ zero_extendqisi2
 6549 030a 013B     		subs	r3, r3, #1
 6550 030c 87F84730 		strb	r3, [r7, #71]
 6551              	.L381:
1216:printer.c     ****         		PRINTER_A_PutChar(sale_number[x]);
 6552              		.loc 1 1216 0 is_stmt 0 discriminator 1
 6553 0310 97F84730 		ldrb	r3, [r7, #71]	@ zero_extendqisi2
 6554 0314 002B     		cmp	r3, #0
 6555 0316 EFD1     		bne	.L382
 6556              	.LBE153:
1218:printer.c     ****         	}
1219:printer.c     ****             int_salenumber++;
 6557              		.loc 1 1219 0 is_stmt 1
 6558 0318 074B     		ldr	r3, .L512
 6559 031a 1B78     		ldrb	r3, [r3]	@ zero_extendqisi2
 6560 031c 0133     		adds	r3, r3, #1
ARM GAS  C:\Users\Diego\AppData\Local\Temp\ccIAJaV8.s 			page 147


 6561 031e DAB2     		uxtb	r2, r3
 6562 0320 054B     		ldr	r3, .L512
 6563 0322 1A70     		strb	r2, [r3]
 6564              	.L373:
1220:printer.c     ****         }
1221:printer.c     ****     }
1222:printer.c     ****     PRINTER_A_PutChar(LINE_FEED);
 6565              		.loc 1 1222 0
 6566 0324 0D4B     		ldr	r3, .L512+36
 6567 0326 1B78     		ldrb	r3, [r3]	@ zero_extendqisi2
 6568 0328 1846     		mov	r0, r3
 6569 032a FFF7FEFF 		bl	PRINTER_A_PutChar
 6570              	.LBB154:
1223:printer.c     **** 	for(uint8 x = 0; x < 32; x ++){
 6571              		.loc 1 1223 0
 6572 032e 0023     		movs	r3, #0
 6573 0330 87F84630 		strb	r3, [r7, #70]
 6574 0334 28E0     		b	.L383
 6575              	.L513:
 6576 0336 00BF     		.align	2
 6577              	.L512:
 6578 0338 00000000 		.word	int_salenumber
 6579 033c AD8BDB68 		.word	1759218605
 6580 0340 00000000 		.word	sale_number
 6581 0344 D34D6210 		.word	274877907
 6582 0348 1F85EB51 		.word	1374389535
 6583 034c 67666666 		.word	1717986919
 6584 0350 00000000 		.word	ASK_TIME
 6585 0354 00000000 		.word	touch1
 6586 0358 00000000 		.word	msn_POS
 6587 035c 00000000 		.word	LINE_FEED
 6588 0360 00000000 		.word	msn_venta
 6589 0364 00000000 		.word	side
 6590 0368 00000000 		.word	prefijo
 6591 036c 00000000 		.word	sale_number_copy
 6592              	.L384:
1224:printer.c     **** 		PRINTER_A_PutChar(SEPARATOR[x]);
 6593              		.loc 1 1224 0 discriminator 3
 6594 0370 97F84630 		ldrb	r3, [r7, #70]	@ zero_extendqisi2
 6595 0374 BA4A     		ldr	r2, .L514
 6596 0376 D35C     		ldrb	r3, [r2, r3]	@ zero_extendqisi2
 6597 0378 1846     		mov	r0, r3
 6598 037a FFF7FEFF 		bl	PRINTER_A_PutChar
1223:printer.c     **** 	for(uint8 x = 0; x < 32; x ++){
 6599              		.loc 1 1223 0 discriminator 3
 6600 037e 97F84630 		ldrb	r3, [r7, #70]	@ zero_extendqisi2
 6601 0382 0133     		adds	r3, r3, #1
 6602 0384 87F84630 		strb	r3, [r7, #70]
 6603              	.L383:
1223:printer.c     **** 	for(uint8 x = 0; x < 32; x ++){
 6604              		.loc 1 1223 0 is_stmt 0 discriminator 1
 6605 0388 97F84630 		ldrb	r3, [r7, #70]	@ zero_extendqisi2
 6606 038c 1F2B     		cmp	r3, #31
 6607 038e EFD9     		bls	.L384
 6608              	.LBE154:
1225:printer.c     **** 	}
1226:printer.c     ****     PRINTER_A_PutChar(LINE_FEED);
ARM GAS  C:\Users\Diego\AppData\Local\Temp\ccIAJaV8.s 			page 148


 6609              		.loc 1 1226 0 is_stmt 1
 6610 0390 B44B     		ldr	r3, .L514+4
 6611 0392 1B78     		ldrb	r3, [r3]	@ zero_extendqisi2
 6612 0394 1846     		mov	r0, r3
 6613 0396 FFF7FEFF 		bl	PRINTER_A_PutChar
 6614              	.LBB155:
1227:printer.c     ****     for(uint8 x = 0; x < 32; x ++){
 6615              		.loc 1 1227 0
 6616 039a 0023     		movs	r3, #0
 6617 039c 87F84530 		strb	r3, [r7, #69]
 6618 03a0 0BE0     		b	.L385
 6619              	.L386:
1228:printer.c     **** 		PRINTER_A_PutChar(msn_EDS[x]);
 6620              		.loc 1 1228 0 discriminator 3
 6621 03a2 97F84530 		ldrb	r3, [r7, #69]	@ zero_extendqisi2
 6622 03a6 B04A     		ldr	r2, .L514+8
 6623 03a8 D35C     		ldrb	r3, [r2, r3]	@ zero_extendqisi2
 6624 03aa 1846     		mov	r0, r3
 6625 03ac FFF7FEFF 		bl	PRINTER_A_PutChar
1227:printer.c     ****     for(uint8 x = 0; x < 32; x ++){
 6626              		.loc 1 1227 0 discriminator 3
 6627 03b0 97F84530 		ldrb	r3, [r7, #69]	@ zero_extendqisi2
 6628 03b4 0133     		adds	r3, r3, #1
 6629 03b6 87F84530 		strb	r3, [r7, #69]
 6630              	.L385:
1227:printer.c     ****     for(uint8 x = 0; x < 32; x ++){
 6631              		.loc 1 1227 0 is_stmt 0 discriminator 1
 6632 03ba 97F84530 		ldrb	r3, [r7, #69]	@ zero_extendqisi2
 6633 03be 1F2B     		cmp	r3, #31
 6634 03c0 EFD9     		bls	.L386
 6635              	.LBE155:
1229:printer.c     **** 	}
1230:printer.c     ****     PRINTER_A_PutChar(LINE_FEED);
 6636              		.loc 1 1230 0 is_stmt 1
 6637 03c2 A84B     		ldr	r3, .L514+4
 6638 03c4 1B78     		ldrb	r3, [r3]	@ zero_extendqisi2
 6639 03c6 1846     		mov	r0, r3
 6640 03c8 FFF7FEFF 		bl	PRINTER_A_PutChar
 6641              	.LBB156:
1231:printer.c     ****     for(uint8 x = 0; x < 32; x ++){
 6642              		.loc 1 1231 0
 6643 03cc 0023     		movs	r3, #0
 6644 03ce 87F84430 		strb	r3, [r7, #68]
 6645 03d2 0BE0     		b	.L387
 6646              	.L388:
1232:printer.c     **** 		PRINTER_A_PutChar(msn_EDS2[x]);
 6647              		.loc 1 1232 0 discriminator 3
 6648 03d4 97F84430 		ldrb	r3, [r7, #68]	@ zero_extendqisi2
 6649 03d8 A44A     		ldr	r2, .L514+12
 6650 03da D35C     		ldrb	r3, [r2, r3]	@ zero_extendqisi2
 6651 03dc 1846     		mov	r0, r3
 6652 03de FFF7FEFF 		bl	PRINTER_A_PutChar
1231:printer.c     ****     for(uint8 x = 0; x < 32; x ++){
 6653              		.loc 1 1231 0 discriminator 3
 6654 03e2 97F84430 		ldrb	r3, [r7, #68]	@ zero_extendqisi2
 6655 03e6 0133     		adds	r3, r3, #1
 6656 03e8 87F84430 		strb	r3, [r7, #68]
ARM GAS  C:\Users\Diego\AppData\Local\Temp\ccIAJaV8.s 			page 149


 6657              	.L387:
1231:printer.c     ****     for(uint8 x = 0; x < 32; x ++){
 6658              		.loc 1 1231 0 is_stmt 0 discriminator 1
 6659 03ec 97F84430 		ldrb	r3, [r7, #68]	@ zero_extendqisi2
 6660 03f0 1F2B     		cmp	r3, #31
 6661 03f2 EFD9     		bls	.L388
 6662              	.LBE156:
1233:printer.c     **** 	}
1234:printer.c     ****     PRINTER_A_PutChar(LINE_FEED);
 6663              		.loc 1 1234 0 is_stmt 1
 6664 03f4 9B4B     		ldr	r3, .L514+4
 6665 03f6 1B78     		ldrb	r3, [r3]	@ zero_extendqisi2
 6666 03f8 1846     		mov	r0, r3
 6667 03fa FFF7FEFF 		bl	PRINTER_A_PutChar
 6668              	.LBB157:
1235:printer.c     ****     for(uint8 x = 0; x < 32; x ++){
 6669              		.loc 1 1235 0
 6670 03fe 0023     		movs	r3, #0
 6671 0400 87F84330 		strb	r3, [r7, #67]
 6672 0404 0BE0     		b	.L389
 6673              	.L390:
1236:printer.c     **** 		PRINTER_A_PutChar(msn_EDS3[x]);
 6674              		.loc 1 1236 0 discriminator 3
 6675 0406 97F84330 		ldrb	r3, [r7, #67]	@ zero_extendqisi2
 6676 040a 994A     		ldr	r2, .L514+16
 6677 040c D35C     		ldrb	r3, [r2, r3]	@ zero_extendqisi2
 6678 040e 1846     		mov	r0, r3
 6679 0410 FFF7FEFF 		bl	PRINTER_A_PutChar
1235:printer.c     ****     for(uint8 x = 0; x < 32; x ++){
 6680              		.loc 1 1235 0 discriminator 3
 6681 0414 97F84330 		ldrb	r3, [r7, #67]	@ zero_extendqisi2
 6682 0418 0133     		adds	r3, r3, #1
 6683 041a 87F84330 		strb	r3, [r7, #67]
 6684              	.L389:
1235:printer.c     ****     for(uint8 x = 0; x < 32; x ++){
 6685              		.loc 1 1235 0 is_stmt 0 discriminator 1
 6686 041e 97F84330 		ldrb	r3, [r7, #67]	@ zero_extendqisi2
 6687 0422 1F2B     		cmp	r3, #31
 6688 0424 EFD9     		bls	.L390
 6689              	.LBE157:
1237:printer.c     **** 	}
1238:printer.c     ****     PRINTER_A_PutChar(LINE_FEED);
 6690              		.loc 1 1238 0 is_stmt 1
 6691 0426 8F4B     		ldr	r3, .L514+4
 6692 0428 1B78     		ldrb	r3, [r3]	@ zero_extendqisi2
 6693 042a 1846     		mov	r0, r3
 6694 042c FFF7FEFF 		bl	PRINTER_A_PutChar
 6695              	.LBB158:
1239:printer.c     ****     for(uint8 x = 0; x < 32; x ++){
 6696              		.loc 1 1239 0
 6697 0430 0023     		movs	r3, #0
 6698 0432 87F84230 		strb	r3, [r7, #66]
 6699 0436 0BE0     		b	.L391
 6700              	.L392:
1240:printer.c     **** 		PRINTER_A_PutChar(msn_EDS4[x]);
 6701              		.loc 1 1240 0 discriminator 3
 6702 0438 97F84230 		ldrb	r3, [r7, #66]	@ zero_extendqisi2
ARM GAS  C:\Users\Diego\AppData\Local\Temp\ccIAJaV8.s 			page 150


 6703 043c 8D4A     		ldr	r2, .L514+20
 6704 043e D35C     		ldrb	r3, [r2, r3]	@ zero_extendqisi2
 6705 0440 1846     		mov	r0, r3
 6706 0442 FFF7FEFF 		bl	PRINTER_A_PutChar
1239:printer.c     ****     for(uint8 x = 0; x < 32; x ++){
 6707              		.loc 1 1239 0 discriminator 3
 6708 0446 97F84230 		ldrb	r3, [r7, #66]	@ zero_extendqisi2
 6709 044a 0133     		adds	r3, r3, #1
 6710 044c 87F84230 		strb	r3, [r7, #66]
 6711              	.L391:
1239:printer.c     ****     for(uint8 x = 0; x < 32; x ++){
 6712              		.loc 1 1239 0 is_stmt 0 discriminator 1
 6713 0450 97F84230 		ldrb	r3, [r7, #66]	@ zero_extendqisi2
 6714 0454 1F2B     		cmp	r3, #31
 6715 0456 EFD9     		bls	.L392
 6716              	.LBE158:
1241:printer.c     **** 	}
1242:printer.c     ****     PRINTER_A_PutChar(LINE_FEED);
 6717              		.loc 1 1242 0 is_stmt 1
 6718 0458 824B     		ldr	r3, .L514+4
 6719 045a 1B78     		ldrb	r3, [r3]	@ zero_extendqisi2
 6720 045c 1846     		mov	r0, r3
 6721 045e FFF7FEFF 		bl	PRINTER_A_PutChar
 6722              	.LBB159:
1243:printer.c     ****     for(uint8 x = 0; x < 32; x ++){
 6723              		.loc 1 1243 0
 6724 0462 0023     		movs	r3, #0
 6725 0464 87F84130 		strb	r3, [r7, #65]
 6726 0468 0BE0     		b	.L393
 6727              	.L394:
1244:printer.c     **** 		PRINTER_A_PutChar(msn_EDS5[x]);
 6728              		.loc 1 1244 0 discriminator 3
 6729 046a 97F84130 		ldrb	r3, [r7, #65]	@ zero_extendqisi2
 6730 046e 824A     		ldr	r2, .L514+24
 6731 0470 D35C     		ldrb	r3, [r2, r3]	@ zero_extendqisi2
 6732 0472 1846     		mov	r0, r3
 6733 0474 FFF7FEFF 		bl	PRINTER_A_PutChar
1243:printer.c     ****     for(uint8 x = 0; x < 32; x ++){
 6734              		.loc 1 1243 0 discriminator 3
 6735 0478 97F84130 		ldrb	r3, [r7, #65]	@ zero_extendqisi2
 6736 047c 0133     		adds	r3, r3, #1
 6737 047e 87F84130 		strb	r3, [r7, #65]
 6738              	.L393:
1243:printer.c     ****     for(uint8 x = 0; x < 32; x ++){
 6739              		.loc 1 1243 0 is_stmt 0 discriminator 1
 6740 0482 97F84130 		ldrb	r3, [r7, #65]	@ zero_extendqisi2
 6741 0486 1F2B     		cmp	r3, #31
 6742 0488 EFD9     		bls	.L394
 6743              	.LBE159:
1245:printer.c     **** 	}
1246:printer.c     ****     PRINTER_A_PutChar(LINE_FEED);
 6744              		.loc 1 1246 0 is_stmt 1
 6745 048a 764B     		ldr	r3, .L514+4
 6746 048c 1B78     		ldrb	r3, [r3]	@ zero_extendqisi2
 6747 048e 1846     		mov	r0, r3
 6748 0490 FFF7FEFF 		bl	PRINTER_A_PutChar
 6749              	.LBB160:
ARM GAS  C:\Users\Diego\AppData\Local\Temp\ccIAJaV8.s 			page 151


1247:printer.c     ****     for(uint8 x = 0; x < 32; x ++){
 6750              		.loc 1 1247 0
 6751 0494 0023     		movs	r3, #0
 6752 0496 87F84030 		strb	r3, [r7, #64]
 6753 049a 0BE0     		b	.L395
 6754              	.L396:
1248:printer.c     **** 		PRINTER_A_PutChar(msn_EDS6[x]);
 6755              		.loc 1 1248 0 discriminator 3
 6756 049c 97F84030 		ldrb	r3, [r7, #64]	@ zero_extendqisi2
 6757 04a0 764A     		ldr	r2, .L514+28
 6758 04a2 D35C     		ldrb	r3, [r2, r3]	@ zero_extendqisi2
 6759 04a4 1846     		mov	r0, r3
 6760 04a6 FFF7FEFF 		bl	PRINTER_A_PutChar
1247:printer.c     ****     for(uint8 x = 0; x < 32; x ++){
 6761              		.loc 1 1247 0 discriminator 3
 6762 04aa 97F84030 		ldrb	r3, [r7, #64]	@ zero_extendqisi2
 6763 04ae 0133     		adds	r3, r3, #1
 6764 04b0 87F84030 		strb	r3, [r7, #64]
 6765              	.L395:
1247:printer.c     ****     for(uint8 x = 0; x < 32; x ++){
 6766              		.loc 1 1247 0 is_stmt 0 discriminator 1
 6767 04b4 97F84030 		ldrb	r3, [r7, #64]	@ zero_extendqisi2
 6768 04b8 1F2B     		cmp	r3, #31
 6769 04ba EFD9     		bls	.L396
 6770              	.LBE160:
1249:printer.c     **** 	}
1250:printer.c     ****     PRINTER_A_PutChar(LINE_FEED);
 6771              		.loc 1 1250 0 is_stmt 1
 6772 04bc 694B     		ldr	r3, .L514+4
 6773 04be 1B78     		ldrb	r3, [r3]	@ zero_extendqisi2
 6774 04c0 1846     		mov	r0, r3
 6775 04c2 FFF7FEFF 		bl	PRINTER_A_PutChar
 6776              	.LBB161:
1251:printer.c     ****     for(uint8 x = 0; x < 32; x ++){
 6777              		.loc 1 1251 0
 6778 04c6 0023     		movs	r3, #0
 6779 04c8 87F83F30 		strb	r3, [r7, #63]
 6780 04cc 0BE0     		b	.L397
 6781              	.L398:
1252:printer.c     **** 		PRINTER_A_PutChar(SEPARATOR[x]);
 6782              		.loc 1 1252 0 discriminator 3
 6783 04ce 97F83F30 		ldrb	r3, [r7, #63]	@ zero_extendqisi2
 6784 04d2 634A     		ldr	r2, .L514
 6785 04d4 D35C     		ldrb	r3, [r2, r3]	@ zero_extendqisi2
 6786 04d6 1846     		mov	r0, r3
 6787 04d8 FFF7FEFF 		bl	PRINTER_A_PutChar
1251:printer.c     ****     for(uint8 x = 0; x < 32; x ++){
 6788              		.loc 1 1251 0 discriminator 3
 6789 04dc 97F83F30 		ldrb	r3, [r7, #63]	@ zero_extendqisi2
 6790 04e0 0133     		adds	r3, r3, #1
 6791 04e2 87F83F30 		strb	r3, [r7, #63]
 6792              	.L397:
1251:printer.c     ****     for(uint8 x = 0; x < 32; x ++){
 6793              		.loc 1 1251 0 is_stmt 0 discriminator 1
 6794 04e6 97F83F30 		ldrb	r3, [r7, #63]	@ zero_extendqisi2
 6795 04ea 1F2B     		cmp	r3, #31
 6796 04ec EFD9     		bls	.L398
ARM GAS  C:\Users\Diego\AppData\Local\Temp\ccIAJaV8.s 			page 152


 6797              	.LBE161:
1253:printer.c     **** 	}
1254:printer.c     ****     PRINTER_A_PutChar(LINE_FEED);
 6798              		.loc 1 1254 0 is_stmt 1
 6799 04ee 5D4B     		ldr	r3, .L514+4
 6800 04f0 1B78     		ldrb	r3, [r3]	@ zero_extendqisi2
 6801 04f2 1846     		mov	r0, r3
 6802 04f4 FFF7FEFF 		bl	PRINTER_A_PutChar
 6803              	.LBB162:
1255:printer.c     ****     /********** FECHA ***************/
1256:printer.c     **** 	for(uint8 x = 0; x < 13; x ++){
 6804              		.loc 1 1256 0
 6805 04f8 0023     		movs	r3, #0
 6806 04fa 87F83E30 		strb	r3, [r7, #62]
 6807 04fe 0BE0     		b	.L399
 6808              	.L400:
1257:printer.c     **** 		PRINTER_A_PutChar(msn_fecha[x]);
 6809              		.loc 1 1257 0 discriminator 3
 6810 0500 97F83E30 		ldrb	r3, [r7, #62]	@ zero_extendqisi2
 6811 0504 5E4A     		ldr	r2, .L514+32
 6812 0506 D35C     		ldrb	r3, [r2, r3]	@ zero_extendqisi2
 6813 0508 1846     		mov	r0, r3
 6814 050a FFF7FEFF 		bl	PRINTER_A_PutChar
1256:printer.c     **** 		PRINTER_A_PutChar(msn_fecha[x]);
 6815              		.loc 1 1256 0 discriminator 3
 6816 050e 97F83E30 		ldrb	r3, [r7, #62]	@ zero_extendqisi2
 6817 0512 0133     		adds	r3, r3, #1
 6818 0514 87F83E30 		strb	r3, [r7, #62]
 6819              	.L399:
1256:printer.c     **** 		PRINTER_A_PutChar(msn_fecha[x]);
 6820              		.loc 1 1256 0 is_stmt 0 discriminator 1
 6821 0518 97F83E30 		ldrb	r3, [r7, #62]	@ zero_extendqisi2
 6822 051c 0C2B     		cmp	r3, #12
 6823 051e EFD9     		bls	.L400
 6824              	.LBE162:
1258:printer.c     **** 	}    
1259:printer.c     ****     date_copy[0] = (touch1[8] >> 4) + 0x30;
 6825              		.loc 1 1259 0 is_stmt 1
 6826 0520 584B     		ldr	r3, .L514+36
 6827 0522 1B7A     		ldrb	r3, [r3, #8]	@ zero_extendqisi2
 6828 0524 1B09     		lsrs	r3, r3, #4
 6829 0526 DBB2     		uxtb	r3, r3
 6830 0528 3033     		adds	r3, r3, #48
 6831 052a DAB2     		uxtb	r2, r3
 6832 052c 564B     		ldr	r3, .L514+40
 6833 052e 1A70     		strb	r2, [r3]
1260:printer.c     ****     date_copy[1] = (touch1[8] & 0x0F) + 0x30;
 6834              		.loc 1 1260 0
 6835 0530 544B     		ldr	r3, .L514+36
 6836 0532 1B7A     		ldrb	r3, [r3, #8]	@ zero_extendqisi2
 6837 0534 03F00F03 		and	r3, r3, #15
 6838 0538 DBB2     		uxtb	r3, r3
 6839 053a 3033     		adds	r3, r3, #48
 6840 053c DAB2     		uxtb	r2, r3
 6841 053e 524B     		ldr	r3, .L514+40
 6842 0540 5A70     		strb	r2, [r3, #1]
1261:printer.c     ****     date_copy[2] = (touch1[7] >> 4) + 0x30;
ARM GAS  C:\Users\Diego\AppData\Local\Temp\ccIAJaV8.s 			page 153


 6843              		.loc 1 1261 0
 6844 0542 504B     		ldr	r3, .L514+36
 6845 0544 DB79     		ldrb	r3, [r3, #7]	@ zero_extendqisi2
 6846 0546 1B09     		lsrs	r3, r3, #4
 6847 0548 DBB2     		uxtb	r3, r3
 6848 054a 3033     		adds	r3, r3, #48
 6849 054c DAB2     		uxtb	r2, r3
 6850 054e 4E4B     		ldr	r3, .L514+40
 6851 0550 9A70     		strb	r2, [r3, #2]
1262:printer.c     ****     date_copy[3] = (touch1[7] & 0x0F) + 0x30;
 6852              		.loc 1 1262 0
 6853 0552 4C4B     		ldr	r3, .L514+36
 6854 0554 DB79     		ldrb	r3, [r3, #7]	@ zero_extendqisi2
 6855 0556 03F00F03 		and	r3, r3, #15
 6856 055a DBB2     		uxtb	r3, r3
 6857 055c 3033     		adds	r3, r3, #48
 6858 055e DAB2     		uxtb	r2, r3
 6859 0560 494B     		ldr	r3, .L514+40
 6860 0562 DA70     		strb	r2, [r3, #3]
1263:printer.c     ****     date_copy[4] = (touch1[6] >> 4) + 0x30;
 6861              		.loc 1 1263 0
 6862 0564 474B     		ldr	r3, .L514+36
 6863 0566 9B79     		ldrb	r3, [r3, #6]	@ zero_extendqisi2
 6864 0568 1B09     		lsrs	r3, r3, #4
 6865 056a DBB2     		uxtb	r3, r3
 6866 056c 3033     		adds	r3, r3, #48
 6867 056e DAB2     		uxtb	r2, r3
 6868 0570 454B     		ldr	r3, .L514+40
 6869 0572 1A71     		strb	r2, [r3, #4]
1264:printer.c     ****     date_copy[5] = (touch1[6] & 0x0F) + 0x30;
 6870              		.loc 1 1264 0
 6871 0574 434B     		ldr	r3, .L514+36
 6872 0576 9B79     		ldrb	r3, [r3, #6]	@ zero_extendqisi2
 6873 0578 03F00F03 		and	r3, r3, #15
 6874 057c DBB2     		uxtb	r3, r3
 6875 057e 3033     		adds	r3, r3, #48
 6876 0580 DAB2     		uxtb	r2, r3
 6877 0582 414B     		ldr	r3, .L514+40
 6878 0584 5A71     		strb	r2, [r3, #5]
1265:printer.c     ****         
1266:printer.c     ****     
1267:printer.c     ****     hour_copy[0] = (touch1[10] >> 4) + 0x30;
 6879              		.loc 1 1267 0
 6880 0586 3F4B     		ldr	r3, .L514+36
 6881 0588 9B7A     		ldrb	r3, [r3, #10]	@ zero_extendqisi2
 6882 058a 1B09     		lsrs	r3, r3, #4
 6883 058c DBB2     		uxtb	r3, r3
 6884 058e 3033     		adds	r3, r3, #48
 6885 0590 DAB2     		uxtb	r2, r3
 6886 0592 3E4B     		ldr	r3, .L514+44
 6887 0594 1A70     		strb	r2, [r3]
1268:printer.c     ****     hour_copy[1] = (touch1[10] & 0x0F) + 0x30;
 6888              		.loc 1 1268 0
 6889 0596 3B4B     		ldr	r3, .L514+36
 6890 0598 9B7A     		ldrb	r3, [r3, #10]	@ zero_extendqisi2
 6891 059a 03F00F03 		and	r3, r3, #15
 6892 059e DBB2     		uxtb	r3, r3
ARM GAS  C:\Users\Diego\AppData\Local\Temp\ccIAJaV8.s 			page 154


 6893 05a0 3033     		adds	r3, r3, #48
 6894 05a2 DAB2     		uxtb	r2, r3
 6895 05a4 394B     		ldr	r3, .L514+44
 6896 05a6 5A70     		strb	r2, [r3, #1]
1269:printer.c     ****     hour_copy[2] = (touch1[11] >> 4) + 0x30;
 6897              		.loc 1 1269 0
 6898 05a8 364B     		ldr	r3, .L514+36
 6899 05aa DB7A     		ldrb	r3, [r3, #11]	@ zero_extendqisi2
 6900 05ac 1B09     		lsrs	r3, r3, #4
 6901 05ae DBB2     		uxtb	r3, r3
 6902 05b0 3033     		adds	r3, r3, #48
 6903 05b2 DAB2     		uxtb	r2, r3
 6904 05b4 354B     		ldr	r3, .L514+44
 6905 05b6 9A70     		strb	r2, [r3, #2]
1270:printer.c     ****     hour_copy[3] = (touch1[11] & 0x0F) + 0x30;
 6906              		.loc 1 1270 0
 6907 05b8 324B     		ldr	r3, .L514+36
 6908 05ba DB7A     		ldrb	r3, [r3, #11]	@ zero_extendqisi2
 6909 05bc 03F00F03 		and	r3, r3, #15
 6910 05c0 DBB2     		uxtb	r3, r3
 6911 05c2 3033     		adds	r3, r3, #48
 6912 05c4 DAB2     		uxtb	r2, r3
 6913 05c6 314B     		ldr	r3, .L514+44
 6914 05c8 DA70     		strb	r2, [r3, #3]
1271:printer.c     ****     hour_copy[4] = (touch1[12] >> 4) + 0x30;
 6915              		.loc 1 1271 0
 6916 05ca 2E4B     		ldr	r3, .L514+36
 6917 05cc 1B7B     		ldrb	r3, [r3, #12]	@ zero_extendqisi2
 6918 05ce 1B09     		lsrs	r3, r3, #4
 6919 05d0 DBB2     		uxtb	r3, r3
 6920 05d2 3033     		adds	r3, r3, #48
 6921 05d4 DAB2     		uxtb	r2, r3
 6922 05d6 2D4B     		ldr	r3, .L514+44
 6923 05d8 1A71     		strb	r2, [r3, #4]
1272:printer.c     ****     hour_copy[5] = (touch1[12] & 0x0F) + 0x30;
 6924              		.loc 1 1272 0
 6925 05da 2A4B     		ldr	r3, .L514+36
 6926 05dc 1B7B     		ldrb	r3, [r3, #12]	@ zero_extendqisi2
 6927 05de 03F00F03 		and	r3, r3, #15
 6928 05e2 DBB2     		uxtb	r3, r3
 6929 05e4 3033     		adds	r3, r3, #48
 6930 05e6 DAB2     		uxtb	r2, r3
 6931 05e8 284B     		ldr	r3, .L514+44
 6932 05ea 5A71     		strb	r2, [r3, #5]
1273:printer.c     ****     
1274:printer.c     ****     if(address == side.a.dir){
 6933              		.loc 1 1274 0
 6934 05ec 284B     		ldr	r3, .L514+48
 6935 05ee 1B78     		ldrb	r3, [r3]	@ zero_extendqisi2
 6936 05f0 FA79     		ldrb	r2, [r7, #7]	@ zero_extendqisi2
 6937 05f2 9A42     		cmp	r2, r3
 6938 05f4 40F0F684 		bne	.L401
1275:printer.c     ****         if(side.a.Copy == 1){
 6939              		.loc 1 1275 0
 6940 05f8 254B     		ldr	r3, .L514+48
 6941 05fa 93F83431 		ldrb	r3, [r3, #308]	@ zero_extendqisi2
 6942 05fe 012B     		cmp	r3, #1
ARM GAS  C:\Users\Diego\AppData\Local\Temp\ccIAJaV8.s 			page 155


 6943 0600 40F0C380 		bne	.L402
1276:printer.c     ****             PRINTER_A_PutChar(date_copy[0]);
 6944              		.loc 1 1276 0
 6945 0604 204B     		ldr	r3, .L514+40
 6946 0606 1B78     		ldrb	r3, [r3]	@ zero_extendqisi2
 6947 0608 1846     		mov	r0, r3
 6948 060a FFF7FEFF 		bl	PRINTER_A_PutChar
1277:printer.c     ****             PRINTER_A_PutChar(date_copy[1]);
 6949              		.loc 1 1277 0
 6950 060e 1E4B     		ldr	r3, .L514+40
 6951 0610 5B78     		ldrb	r3, [r3, #1]	@ zero_extendqisi2
 6952 0612 1846     		mov	r0, r3
 6953 0614 FFF7FEFF 		bl	PRINTER_A_PutChar
1278:printer.c     ****             PRINTER_A_PutChar('/');
 6954              		.loc 1 1278 0
 6955 0618 2F20     		movs	r0, #47
 6956 061a FFF7FEFF 		bl	PRINTER_A_PutChar
1279:printer.c     ****             PRINTER_A_PutChar(date_copy[2]);
 6957              		.loc 1 1279 0
 6958 061e 1A4B     		ldr	r3, .L514+40
 6959 0620 9B78     		ldrb	r3, [r3, #2]	@ zero_extendqisi2
 6960 0622 1846     		mov	r0, r3
 6961 0624 FFF7FEFF 		bl	PRINTER_A_PutChar
1280:printer.c     ****             PRINTER_A_PutChar(date_copy[3]);
 6962              		.loc 1 1280 0
 6963 0628 174B     		ldr	r3, .L514+40
 6964 062a DB78     		ldrb	r3, [r3, #3]	@ zero_extendqisi2
 6965 062c 1846     		mov	r0, r3
 6966 062e FFF7FEFF 		bl	PRINTER_A_PutChar
1281:printer.c     ****             PRINTER_A_PutChar('/');
 6967              		.loc 1 1281 0
 6968 0632 2F20     		movs	r0, #47
 6969 0634 FFF7FEFF 		bl	PRINTER_A_PutChar
1282:printer.c     ****             PRINTER_A_PutChar(date_copy[4]);
 6970              		.loc 1 1282 0
 6971 0638 134B     		ldr	r3, .L514+40
 6972 063a 1B79     		ldrb	r3, [r3, #4]	@ zero_extendqisi2
 6973 063c 1846     		mov	r0, r3
 6974 063e FFF7FEFF 		bl	PRINTER_A_PutChar
1283:printer.c     ****             PRINTER_A_PutChar(date_copy[5]);
 6975              		.loc 1 1283 0
 6976 0642 114B     		ldr	r3, .L514+40
 6977 0644 5B79     		ldrb	r3, [r3, #5]	@ zero_extendqisi2
 6978 0646 1846     		mov	r0, r3
 6979 0648 FFF7FEFF 		bl	PRINTER_A_PutChar
1284:printer.c     ****             
1285:printer.c     ****             PRINTER_A_PutChar(LINE_FEED);
 6980              		.loc 1 1285 0
 6981 064c 054B     		ldr	r3, .L514+4
 6982 064e 1B78     		ldrb	r3, [r3]	@ zero_extendqisi2
 6983 0650 1846     		mov	r0, r3
 6984 0652 FFF7FEFF 		bl	PRINTER_A_PutChar
 6985              	.LBB163:
1286:printer.c     ****             
1287:printer.c     ****             /********** HORA ***************/
1288:printer.c     ****         	for(uint8 x = 0; x < 13; x ++){
 6986              		.loc 1 1288 0
ARM GAS  C:\Users\Diego\AppData\Local\Temp\ccIAJaV8.s 			page 156


 6987 0656 0023     		movs	r3, #0
 6988 0658 87F83D30 		strb	r3, [r7, #61]
 6989 065c 26E0     		b	.L403
 6990              	.L515:
 6991 065e 00BF     		.align	2
 6992              	.L514:
 6993 0660 00000000 		.word	SEPARATOR
 6994 0664 00000000 		.word	LINE_FEED
 6995 0668 00000000 		.word	msn_EDS
 6996 066c 00000000 		.word	msn_EDS2
 6997 0670 00000000 		.word	msn_EDS3
 6998 0674 00000000 		.word	msn_EDS4
 6999 0678 00000000 		.word	msn_EDS5
 7000 067c 00000000 		.word	msn_EDS6
 7001 0680 00000000 		.word	msn_fecha
 7002 0684 00000000 		.word	touch1
 7003 0688 00000000 		.word	date_copy
 7004 068c 00000000 		.word	hour_copy
 7005 0690 00000000 		.word	side
 7006              	.L404:
1289:printer.c     ****         		PRINTER_A_PutChar(msn_hora[x]);
 7007              		.loc 1 1289 0 discriminator 3
 7008 0694 97F83D30 		ldrb	r3, [r7, #61]	@ zero_extendqisi2
 7009 0698 BB4A     		ldr	r2, .L516
 7010 069a D35C     		ldrb	r3, [r2, r3]	@ zero_extendqisi2
 7011 069c 1846     		mov	r0, r3
 7012 069e FFF7FEFF 		bl	PRINTER_A_PutChar
1288:printer.c     ****         		PRINTER_A_PutChar(msn_hora[x]);
 7013              		.loc 1 1288 0 discriminator 3
 7014 06a2 97F83D30 		ldrb	r3, [r7, #61]	@ zero_extendqisi2
 7015 06a6 0133     		adds	r3, r3, #1
 7016 06a8 87F83D30 		strb	r3, [r7, #61]
 7017              	.L403:
1288:printer.c     ****         		PRINTER_A_PutChar(msn_hora[x]);
 7018              		.loc 1 1288 0 is_stmt 0 discriminator 1
 7019 06ac 97F83D30 		ldrb	r3, [r7, #61]	@ zero_extendqisi2
 7020 06b0 0C2B     		cmp	r3, #12
 7021 06b2 EFD9     		bls	.L404
 7022              	.LBE163:
1290:printer.c     ****         	}
1291:printer.c     ****             
1292:printer.c     ****             PRINTER_A_PutChar(hour_copy[0]);
 7023              		.loc 1 1292 0 is_stmt 1
 7024 06b4 B54B     		ldr	r3, .L516+4
 7025 06b6 1B78     		ldrb	r3, [r3]	@ zero_extendqisi2
 7026 06b8 1846     		mov	r0, r3
 7027 06ba FFF7FEFF 		bl	PRINTER_A_PutChar
1293:printer.c     ****             PRINTER_A_PutChar(hour_copy[1]);
 7028              		.loc 1 1293 0
 7029 06be B34B     		ldr	r3, .L516+4
 7030 06c0 5B78     		ldrb	r3, [r3, #1]	@ zero_extendqisi2
 7031 06c2 1846     		mov	r0, r3
 7032 06c4 FFF7FEFF 		bl	PRINTER_A_PutChar
1294:printer.c     ****             PRINTER_A_PutChar(':');
 7033              		.loc 1 1294 0
 7034 06c8 3A20     		movs	r0, #58
 7035 06ca FFF7FEFF 		bl	PRINTER_A_PutChar
ARM GAS  C:\Users\Diego\AppData\Local\Temp\ccIAJaV8.s 			page 157


1295:printer.c     ****             PRINTER_A_PutChar(hour_copy[2]);
 7036              		.loc 1 1295 0
 7037 06ce AF4B     		ldr	r3, .L516+4
 7038 06d0 9B78     		ldrb	r3, [r3, #2]	@ zero_extendqisi2
 7039 06d2 1846     		mov	r0, r3
 7040 06d4 FFF7FEFF 		bl	PRINTER_A_PutChar
1296:printer.c     ****             PRINTER_A_PutChar(hour_copy[3]);
 7041              		.loc 1 1296 0
 7042 06d8 AC4B     		ldr	r3, .L516+4
 7043 06da DB78     		ldrb	r3, [r3, #3]	@ zero_extendqisi2
 7044 06dc 1846     		mov	r0, r3
 7045 06de FFF7FEFF 		bl	PRINTER_A_PutChar
1297:printer.c     ****             PRINTER_A_PutChar(':');
 7046              		.loc 1 1297 0
 7047 06e2 3A20     		movs	r0, #58
 7048 06e4 FFF7FEFF 		bl	PRINTER_A_PutChar
1298:printer.c     ****             PRINTER_A_PutChar(hour_copy[4]);
 7049              		.loc 1 1298 0
 7050 06e8 A84B     		ldr	r3, .L516+4
 7051 06ea 1B79     		ldrb	r3, [r3, #4]	@ zero_extendqisi2
 7052 06ec 1846     		mov	r0, r3
 7053 06ee FFF7FEFF 		bl	PRINTER_A_PutChar
1299:printer.c     ****             PRINTER_A_PutChar(hour_copy[5]);
 7054              		.loc 1 1299 0
 7055 06f2 A64B     		ldr	r3, .L516+4
 7056 06f4 5B79     		ldrb	r3, [r3, #5]	@ zero_extendqisi2
 7057 06f6 1846     		mov	r0, r3
 7058 06f8 FFF7FEFF 		bl	PRINTER_A_PutChar
1300:printer.c     ****             
1301:printer.c     ****             PRINTER_A_PutChar(LINE_FEED);
 7059              		.loc 1 1301 0
 7060 06fc A44B     		ldr	r3, .L516+8
 7061 06fe 1B78     		ldrb	r3, [r3]	@ zero_extendqisi2
 7062 0700 1846     		mov	r0, r3
 7063 0702 FFF7FEFF 		bl	PRINTER_A_PutChar
 7064              	.LBB164:
1302:printer.c     ****             
1303:printer.c     ****             for(uint8 x = 0; x < 32; x ++){
 7065              		.loc 1 1303 0
 7066 0706 0023     		movs	r3, #0
 7067 0708 87F83C30 		strb	r3, [r7, #60]
 7068 070c 0BE0     		b	.L405
 7069              	.L406:
1304:printer.c     ****         		PRINTER_A_PutChar(SEPARATOR[x]);
 7070              		.loc 1 1304 0 discriminator 3
 7071 070e 97F83C30 		ldrb	r3, [r7, #60]	@ zero_extendqisi2
 7072 0712 A04A     		ldr	r2, .L516+12
 7073 0714 D35C     		ldrb	r3, [r2, r3]	@ zero_extendqisi2
 7074 0716 1846     		mov	r0, r3
 7075 0718 FFF7FEFF 		bl	PRINTER_A_PutChar
1303:printer.c     ****         		PRINTER_A_PutChar(SEPARATOR[x]);
 7076              		.loc 1 1303 0 discriminator 3
 7077 071c 97F83C30 		ldrb	r3, [r7, #60]	@ zero_extendqisi2
 7078 0720 0133     		adds	r3, r3, #1
 7079 0722 87F83C30 		strb	r3, [r7, #60]
 7080              	.L405:
1303:printer.c     ****         		PRINTER_A_PutChar(SEPARATOR[x]);
ARM GAS  C:\Users\Diego\AppData\Local\Temp\ccIAJaV8.s 			page 158


 7081              		.loc 1 1303 0 is_stmt 0 discriminator 1
 7082 0726 97F83C30 		ldrb	r3, [r7, #60]	@ zero_extendqisi2
 7083 072a 1F2B     		cmp	r3, #31
 7084 072c EFD9     		bls	.L406
 7085              	.LBE164:
 7086              	.LBB165:
1305:printer.c     ****         	}
1306:printer.c     ****             
1307:printer.c     ****             for(uint8 x = 0; x < 32; x ++){
 7087              		.loc 1 1307 0 is_stmt 1
 7088 072e 0023     		movs	r3, #0
 7089 0730 87F83B30 		strb	r3, [r7, #59]
 7090 0734 0BE0     		b	.L407
 7091              	.L408:
1308:printer.c     ****         		PRINTER_A_PutChar(msn_copy[x]);
 7092              		.loc 1 1308 0 discriminator 3
 7093 0736 97F83B30 		ldrb	r3, [r7, #59]	@ zero_extendqisi2
 7094 073a 974A     		ldr	r2, .L516+16
 7095 073c D35C     		ldrb	r3, [r2, r3]	@ zero_extendqisi2
 7096 073e 1846     		mov	r0, r3
 7097 0740 FFF7FEFF 		bl	PRINTER_A_PutChar
1307:printer.c     ****         		PRINTER_A_PutChar(msn_copy[x]);
 7098              		.loc 1 1307 0 discriminator 3
 7099 0744 97F83B30 		ldrb	r3, [r7, #59]	@ zero_extendqisi2
 7100 0748 0133     		adds	r3, r3, #1
 7101 074a 87F83B30 		strb	r3, [r7, #59]
 7102              	.L407:
1307:printer.c     ****         		PRINTER_A_PutChar(msn_copy[x]);
 7103              		.loc 1 1307 0 is_stmt 0 discriminator 1
 7104 074e 97F83B30 		ldrb	r3, [r7, #59]	@ zero_extendqisi2
 7105 0752 1F2B     		cmp	r3, #31
 7106 0754 EFD9     		bls	.L408
 7107              	.LBE165:
1309:printer.c     ****         	}
1310:printer.c     ****             PRINTER_A_PutChar(LINE_FEED);
 7108              		.loc 1 1310 0 is_stmt 1
 7109 0756 8E4B     		ldr	r3, .L516+8
 7110 0758 1B78     		ldrb	r3, [r3]	@ zero_extendqisi2
 7111 075a 1846     		mov	r0, r3
 7112 075c FFF7FEFF 		bl	PRINTER_A_PutChar
 7113              	.LBB166:
1311:printer.c     ****             for(uint8 x = 0; x < 32; x ++){
 7114              		.loc 1 1311 0
 7115 0760 0023     		movs	r3, #0
 7116 0762 87F83A30 		strb	r3, [r7, #58]
 7117 0766 0BE0     		b	.L409
 7118              	.L410:
1312:printer.c     ****         		PRINTER_A_PutChar(SEPARATOR[x]);
 7119              		.loc 1 1312 0 discriminator 3
 7120 0768 97F83A30 		ldrb	r3, [r7, #58]	@ zero_extendqisi2
 7121 076c 894A     		ldr	r2, .L516+12
 7122 076e D35C     		ldrb	r3, [r2, r3]	@ zero_extendqisi2
 7123 0770 1846     		mov	r0, r3
 7124 0772 FFF7FEFF 		bl	PRINTER_A_PutChar
1311:printer.c     ****             for(uint8 x = 0; x < 32; x ++){
 7125              		.loc 1 1311 0 discriminator 3
 7126 0776 97F83A30 		ldrb	r3, [r7, #58]	@ zero_extendqisi2
ARM GAS  C:\Users\Diego\AppData\Local\Temp\ccIAJaV8.s 			page 159


 7127 077a 0133     		adds	r3, r3, #1
 7128 077c 87F83A30 		strb	r3, [r7, #58]
 7129              	.L409:
1311:printer.c     ****             for(uint8 x = 0; x < 32; x ++){
 7130              		.loc 1 1311 0 is_stmt 0 discriminator 1
 7131 0780 97F83A30 		ldrb	r3, [r7, #58]	@ zero_extendqisi2
 7132 0784 1F2B     		cmp	r3, #31
 7133 0786 EFD9     		bls	.L410
 7134 0788 DCE0     		b	.L411
 7135              	.L402:
 7136              	.LBE166:
1313:printer.c     ****         	} 
1314:printer.c     ****         }else{
1315:printer.c     ****             PRINTER_A_PutChar(((touch1[8] >> 4) + 0x30)) ;
 7137              		.loc 1 1315 0 is_stmt 1
 7138 078a 844B     		ldr	r3, .L516+20
 7139 078c 1B7A     		ldrb	r3, [r3, #8]	@ zero_extendqisi2
 7140 078e 1B09     		lsrs	r3, r3, #4
 7141 0790 DBB2     		uxtb	r3, r3
 7142 0792 3033     		adds	r3, r3, #48
 7143 0794 DBB2     		uxtb	r3, r3
 7144 0796 1846     		mov	r0, r3
 7145 0798 FFF7FEFF 		bl	PRINTER_A_PutChar
1316:printer.c     **** 	        PRINTER_A_PutChar(((touch1[8] & 0x0F) + 0x30));
 7146              		.loc 1 1316 0
 7147 079c 7F4B     		ldr	r3, .L516+20
 7148 079e 1B7A     		ldrb	r3, [r3, #8]	@ zero_extendqisi2
 7149 07a0 03F00F03 		and	r3, r3, #15
 7150 07a4 DBB2     		uxtb	r3, r3
 7151 07a6 3033     		adds	r3, r3, #48
 7152 07a8 DBB2     		uxtb	r3, r3
 7153 07aa 1846     		mov	r0, r3
 7154 07ac FFF7FEFF 		bl	PRINTER_A_PutChar
1317:printer.c     ****             PRINTER_A_PutChar('/');
 7155              		.loc 1 1317 0
 7156 07b0 2F20     		movs	r0, #47
 7157 07b2 FFF7FEFF 		bl	PRINTER_A_PutChar
1318:printer.c     ****             PRINTER_A_PutChar(((touch1[7] >> 4) + 0x30)) ;
 7158              		.loc 1 1318 0
 7159 07b6 794B     		ldr	r3, .L516+20
 7160 07b8 DB79     		ldrb	r3, [r3, #7]	@ zero_extendqisi2
 7161 07ba 1B09     		lsrs	r3, r3, #4
 7162 07bc DBB2     		uxtb	r3, r3
 7163 07be 3033     		adds	r3, r3, #48
 7164 07c0 DBB2     		uxtb	r3, r3
 7165 07c2 1846     		mov	r0, r3
 7166 07c4 FFF7FEFF 		bl	PRINTER_A_PutChar
1319:printer.c     ****             PRINTER_A_PutChar(((touch1[7] & 0x0F) + 0x30));
 7167              		.loc 1 1319 0
 7168 07c8 744B     		ldr	r3, .L516+20
 7169 07ca DB79     		ldrb	r3, [r3, #7]	@ zero_extendqisi2
 7170 07cc 03F00F03 		and	r3, r3, #15
 7171 07d0 DBB2     		uxtb	r3, r3
 7172 07d2 3033     		adds	r3, r3, #48
 7173 07d4 DBB2     		uxtb	r3, r3
 7174 07d6 1846     		mov	r0, r3
 7175 07d8 FFF7FEFF 		bl	PRINTER_A_PutChar
ARM GAS  C:\Users\Diego\AppData\Local\Temp\ccIAJaV8.s 			page 160


1320:printer.c     ****             PRINTER_A_PutChar('/');    
 7176              		.loc 1 1320 0
 7177 07dc 2F20     		movs	r0, #47
 7178 07de FFF7FEFF 		bl	PRINTER_A_PutChar
1321:printer.c     ****             PRINTER_A_PutChar(((touch1[6] >> 4) + 0x30));
 7179              		.loc 1 1321 0
 7180 07e2 6E4B     		ldr	r3, .L516+20
 7181 07e4 9B79     		ldrb	r3, [r3, #6]	@ zero_extendqisi2
 7182 07e6 1B09     		lsrs	r3, r3, #4
 7183 07e8 DBB2     		uxtb	r3, r3
 7184 07ea 3033     		adds	r3, r3, #48
 7185 07ec DBB2     		uxtb	r3, r3
 7186 07ee 1846     		mov	r0, r3
 7187 07f0 FFF7FEFF 		bl	PRINTER_A_PutChar
1322:printer.c     ****             PRINTER_A_PutChar(((touch1[6] & 0x0F) + 0x30));    
 7188              		.loc 1 1322 0
 7189 07f4 694B     		ldr	r3, .L516+20
 7190 07f6 9B79     		ldrb	r3, [r3, #6]	@ zero_extendqisi2
 7191 07f8 03F00F03 		and	r3, r3, #15
 7192 07fc DBB2     		uxtb	r3, r3
 7193 07fe 3033     		adds	r3, r3, #48
 7194 0800 DBB2     		uxtb	r3, r3
 7195 0802 1846     		mov	r0, r3
 7196 0804 FFF7FEFF 		bl	PRINTER_A_PutChar
1323:printer.c     ****     
1324:printer.c     **** 	        PRINTER_A_PutChar(LINE_FEED);
 7197              		.loc 1 1324 0
 7198 0808 614B     		ldr	r3, .L516+8
 7199 080a 1B78     		ldrb	r3, [r3]	@ zero_extendqisi2
 7200 080c 1846     		mov	r0, r3
 7201 080e FFF7FEFF 		bl	PRINTER_A_PutChar
 7202              	.LBB167:
1325:printer.c     ****             
1326:printer.c     ****             /********** HORA ***************/
1327:printer.c     ****         	for(uint8 x = 0; x < 13; x ++){
 7203              		.loc 1 1327 0
 7204 0812 0023     		movs	r3, #0
 7205 0814 87F83930 		strb	r3, [r7, #57]
 7206 0818 0BE0     		b	.L412
 7207              	.L413:
1328:printer.c     ****         		PRINTER_A_PutChar(msn_hora[x]);
 7208              		.loc 1 1328 0 discriminator 3
 7209 081a 97F83930 		ldrb	r3, [r7, #57]	@ zero_extendqisi2
 7210 081e 5A4A     		ldr	r2, .L516
 7211 0820 D35C     		ldrb	r3, [r2, r3]	@ zero_extendqisi2
 7212 0822 1846     		mov	r0, r3
 7213 0824 FFF7FEFF 		bl	PRINTER_A_PutChar
1327:printer.c     ****         		PRINTER_A_PutChar(msn_hora[x]);
 7214              		.loc 1 1327 0 discriminator 3
 7215 0828 97F83930 		ldrb	r3, [r7, #57]	@ zero_extendqisi2
 7216 082c 0133     		adds	r3, r3, #1
 7217 082e 87F83930 		strb	r3, [r7, #57]
 7218              	.L412:
1327:printer.c     ****         		PRINTER_A_PutChar(msn_hora[x]);
 7219              		.loc 1 1327 0 is_stmt 0 discriminator 1
 7220 0832 97F83930 		ldrb	r3, [r7, #57]	@ zero_extendqisi2
 7221 0836 0C2B     		cmp	r3, #12
ARM GAS  C:\Users\Diego\AppData\Local\Temp\ccIAJaV8.s 			page 161


 7222 0838 EFD9     		bls	.L413
 7223              	.LBE167:
1329:printer.c     ****         	}
1330:printer.c     ****             PRINTER_A_PutChar(((touch1[10] >> 4) + 0x30)) ;
 7224              		.loc 1 1330 0 is_stmt 1
 7225 083a 584B     		ldr	r3, .L516+20
 7226 083c 9B7A     		ldrb	r3, [r3, #10]	@ zero_extendqisi2
 7227 083e 1B09     		lsrs	r3, r3, #4
 7228 0840 DBB2     		uxtb	r3, r3
 7229 0842 3033     		adds	r3, r3, #48
 7230 0844 DBB2     		uxtb	r3, r3
 7231 0846 1846     		mov	r0, r3
 7232 0848 FFF7FEFF 		bl	PRINTER_A_PutChar
1331:printer.c     ****             PRINTER_A_PutChar(((touch1[10] & 0x0F) + 0x30));
 7233              		.loc 1 1331 0
 7234 084c 534B     		ldr	r3, .L516+20
 7235 084e 9B7A     		ldrb	r3, [r3, #10]	@ zero_extendqisi2
 7236 0850 03F00F03 		and	r3, r3, #15
 7237 0854 DBB2     		uxtb	r3, r3
 7238 0856 3033     		adds	r3, r3, #48
 7239 0858 DBB2     		uxtb	r3, r3
 7240 085a 1846     		mov	r0, r3
 7241 085c FFF7FEFF 		bl	PRINTER_A_PutChar
1332:printer.c     ****             PRINTER_A_PutChar(':');
 7242              		.loc 1 1332 0
 7243 0860 3A20     		movs	r0, #58
 7244 0862 FFF7FEFF 		bl	PRINTER_A_PutChar
1333:printer.c     ****             PRINTER_A_PutChar(((touch1[11] >> 4) + 0x30)) ;
 7245              		.loc 1 1333 0
 7246 0866 4D4B     		ldr	r3, .L516+20
 7247 0868 DB7A     		ldrb	r3, [r3, #11]	@ zero_extendqisi2
 7248 086a 1B09     		lsrs	r3, r3, #4
 7249 086c DBB2     		uxtb	r3, r3
 7250 086e 3033     		adds	r3, r3, #48
 7251 0870 DBB2     		uxtb	r3, r3
 7252 0872 1846     		mov	r0, r3
 7253 0874 FFF7FEFF 		bl	PRINTER_A_PutChar
1334:printer.c     ****             PRINTER_A_PutChar(((touch1[11] & 0x0F) + 0x30));
 7254              		.loc 1 1334 0
 7255 0878 484B     		ldr	r3, .L516+20
 7256 087a DB7A     		ldrb	r3, [r3, #11]	@ zero_extendqisi2
 7257 087c 03F00F03 		and	r3, r3, #15
 7258 0880 DBB2     		uxtb	r3, r3
 7259 0882 3033     		adds	r3, r3, #48
 7260 0884 DBB2     		uxtb	r3, r3
 7261 0886 1846     		mov	r0, r3
 7262 0888 FFF7FEFF 		bl	PRINTER_A_PutChar
1335:printer.c     ****             PRINTER_A_PutChar(':');
 7263              		.loc 1 1335 0
 7264 088c 3A20     		movs	r0, #58
 7265 088e FFF7FEFF 		bl	PRINTER_A_PutChar
1336:printer.c     ****             PRINTER_A_PutChar(((touch1[12] >> 4) + 0x30));
 7266              		.loc 1 1336 0
 7267 0892 424B     		ldr	r3, .L516+20
 7268 0894 1B7B     		ldrb	r3, [r3, #12]	@ zero_extendqisi2
 7269 0896 1B09     		lsrs	r3, r3, #4
 7270 0898 DBB2     		uxtb	r3, r3
ARM GAS  C:\Users\Diego\AppData\Local\Temp\ccIAJaV8.s 			page 162


 7271 089a 3033     		adds	r3, r3, #48
 7272 089c DBB2     		uxtb	r3, r3
 7273 089e 1846     		mov	r0, r3
 7274 08a0 FFF7FEFF 		bl	PRINTER_A_PutChar
1337:printer.c     ****         	PRINTER_A_PutChar(((touch1[12] & 0x0F) + 0x30));
 7275              		.loc 1 1337 0
 7276 08a4 3D4B     		ldr	r3, .L516+20
 7277 08a6 1B7B     		ldrb	r3, [r3, #12]	@ zero_extendqisi2
 7278 08a8 03F00F03 		and	r3, r3, #15
 7279 08ac DBB2     		uxtb	r3, r3
 7280 08ae 3033     		adds	r3, r3, #48
 7281 08b0 DBB2     		uxtb	r3, r3
 7282 08b2 1846     		mov	r0, r3
 7283 08b4 FFF7FEFF 		bl	PRINTER_A_PutChar
1338:printer.c     **** 	
1339:printer.c     ****             PRINTER_A_PutChar(LINE_FEED);
 7284              		.loc 1 1339 0
 7285 08b8 354B     		ldr	r3, .L516+8
 7286 08ba 1B78     		ldrb	r3, [r3]	@ zero_extendqisi2
 7287 08bc 1846     		mov	r0, r3
 7288 08be FFF7FEFF 		bl	PRINTER_A_PutChar
 7289              	.LBB168:
1340:printer.c     ****             for(uint8 x = 0; x < 32; x ++){
 7290              		.loc 1 1340 0
 7291 08c2 0023     		movs	r3, #0
 7292 08c4 87F83830 		strb	r3, [r7, #56]
 7293 08c8 0BE0     		b	.L414
 7294              	.L415:
1341:printer.c     ****         		PRINTER_A_PutChar(SEPARATOR[x]);
 7295              		.loc 1 1341 0 discriminator 3
 7296 08ca 97F83830 		ldrb	r3, [r7, #56]	@ zero_extendqisi2
 7297 08ce 314A     		ldr	r2, .L516+12
 7298 08d0 D35C     		ldrb	r3, [r2, r3]	@ zero_extendqisi2
 7299 08d2 1846     		mov	r0, r3
 7300 08d4 FFF7FEFF 		bl	PRINTER_A_PutChar
1340:printer.c     ****             for(uint8 x = 0; x < 32; x ++){
 7301              		.loc 1 1340 0 discriminator 3
 7302 08d8 97F83830 		ldrb	r3, [r7, #56]	@ zero_extendqisi2
 7303 08dc 0133     		adds	r3, r3, #1
 7304 08de 87F83830 		strb	r3, [r7, #56]
 7305              	.L414:
1340:printer.c     ****             for(uint8 x = 0; x < 32; x ++){
 7306              		.loc 1 1340 0 is_stmt 0 discriminator 1
 7307 08e2 97F83830 		ldrb	r3, [r7, #56]	@ zero_extendqisi2
 7308 08e6 1F2B     		cmp	r3, #31
 7309 08e8 EFD9     		bls	.L415
 7310              	.LBE168:
 7311              	.LBB169:
1342:printer.c     ****         	}
1343:printer.c     ****             for(uint8 x = 0; x < 32; x ++){
 7312              		.loc 1 1343 0 is_stmt 1
 7313 08ea 0023     		movs	r3, #0
 7314 08ec 87F83730 		strb	r3, [r7, #55]
 7315 08f0 0BE0     		b	.L416
 7316              	.L417:
1344:printer.c     ****         		PRINTER_A_PutChar(msn_original[x]);
 7317              		.loc 1 1344 0 discriminator 3
ARM GAS  C:\Users\Diego\AppData\Local\Temp\ccIAJaV8.s 			page 163


 7318 08f2 97F83730 		ldrb	r3, [r7, #55]	@ zero_extendqisi2
 7319 08f6 2A4A     		ldr	r2, .L516+24
 7320 08f8 D35C     		ldrb	r3, [r2, r3]	@ zero_extendqisi2
 7321 08fa 1846     		mov	r0, r3
 7322 08fc FFF7FEFF 		bl	PRINTER_A_PutChar
1343:printer.c     ****         		PRINTER_A_PutChar(msn_original[x]);
 7323              		.loc 1 1343 0 discriminator 3
 7324 0900 97F83730 		ldrb	r3, [r7, #55]	@ zero_extendqisi2
 7325 0904 0133     		adds	r3, r3, #1
 7326 0906 87F83730 		strb	r3, [r7, #55]
 7327              	.L416:
1343:printer.c     ****         		PRINTER_A_PutChar(msn_original[x]);
 7328              		.loc 1 1343 0 is_stmt 0 discriminator 1
 7329 090a 97F83730 		ldrb	r3, [r7, #55]	@ zero_extendqisi2
 7330 090e 1F2B     		cmp	r3, #31
 7331 0910 EFD9     		bls	.L417
 7332              	.LBE169:
1345:printer.c     ****         	}
1346:printer.c     ****             PRINTER_A_PutChar(LINE_FEED);
 7333              		.loc 1 1346 0 is_stmt 1
 7334 0912 1F4B     		ldr	r3, .L516+8
 7335 0914 1B78     		ldrb	r3, [r3]	@ zero_extendqisi2
 7336 0916 1846     		mov	r0, r3
 7337 0918 FFF7FEFF 		bl	PRINTER_A_PutChar
 7338              	.LBB170:
1347:printer.c     ****             for(uint8 x = 0; x < 32; x ++){
 7339              		.loc 1 1347 0
 7340 091c 0023     		movs	r3, #0
 7341 091e 87F83630 		strb	r3, [r7, #54]
 7342 0922 0BE0     		b	.L418
 7343              	.L419:
1348:printer.c     ****         		PRINTER_A_PutChar(SEPARATOR[x]);
 7344              		.loc 1 1348 0 discriminator 3
 7345 0924 97F83630 		ldrb	r3, [r7, #54]	@ zero_extendqisi2
 7346 0928 1A4A     		ldr	r2, .L516+12
 7347 092a D35C     		ldrb	r3, [r2, r3]	@ zero_extendqisi2
 7348 092c 1846     		mov	r0, r3
 7349 092e FFF7FEFF 		bl	PRINTER_A_PutChar
1347:printer.c     ****             for(uint8 x = 0; x < 32; x ++){
 7350              		.loc 1 1347 0 discriminator 3
 7351 0932 97F83630 		ldrb	r3, [r7, #54]	@ zero_extendqisi2
 7352 0936 0133     		adds	r3, r3, #1
 7353 0938 87F83630 		strb	r3, [r7, #54]
 7354              	.L418:
1347:printer.c     ****             for(uint8 x = 0; x < 32; x ++){
 7355              		.loc 1 1347 0 is_stmt 0 discriminator 1
 7356 093c 97F83630 		ldrb	r3, [r7, #54]	@ zero_extendqisi2
 7357 0940 1F2B     		cmp	r3, #31
 7358 0942 EFD9     		bls	.L419
 7359              	.L411:
 7360              	.LBE170:
1349:printer.c     ****         	}
1350:printer.c     ****         }
1351:printer.c     ****         PRINTER_A_PutChar(LINE_FEED);
 7361              		.loc 1 1351 0 is_stmt 1
 7362 0944 124B     		ldr	r3, .L516+8
 7363 0946 1B78     		ldrb	r3, [r3]	@ zero_extendqisi2
ARM GAS  C:\Users\Diego\AppData\Local\Temp\ccIAJaV8.s 			page 164


 7364 0948 1846     		mov	r0, r3
 7365 094a FFF7FEFF 		bl	PRINTER_A_PutChar
 7366              	.LBB171:
1352:printer.c     ****         for(uint8 x = 0; x < 13; x ++){
 7367              		.loc 1 1352 0
 7368 094e 0023     		movs	r3, #0
 7369 0950 87F83530 		strb	r3, [r7, #53]
 7370 0954 0BE0     		b	.L420
 7371              	.L421:
1353:printer.c     **** 			PRINTER_A_PutChar(equipo[x]);
 7372              		.loc 1 1353 0 discriminator 3
 7373 0956 97F83530 		ldrb	r3, [r7, #53]	@ zero_extendqisi2
 7374 095a 124A     		ldr	r2, .L516+28
 7375 095c D35C     		ldrb	r3, [r2, r3]	@ zero_extendqisi2
 7376 095e 1846     		mov	r0, r3
 7377 0960 FFF7FEFF 		bl	PRINTER_A_PutChar
1352:printer.c     ****         for(uint8 x = 0; x < 13; x ++){
 7378              		.loc 1 1352 0 discriminator 3
 7379 0964 97F83530 		ldrb	r3, [r7, #53]	@ zero_extendqisi2
 7380 0968 0133     		adds	r3, r3, #1
 7381 096a 87F83530 		strb	r3, [r7, #53]
 7382              	.L420:
1352:printer.c     ****         for(uint8 x = 0; x < 13; x ++){
 7383              		.loc 1 1352 0 is_stmt 0 discriminator 1
 7384 096e 97F83530 		ldrb	r3, [r7, #53]	@ zero_extendqisi2
 7385 0972 0C2B     		cmp	r3, #12
 7386 0974 EFD9     		bls	.L421
 7387              	.LBE171:
1354:printer.c     **** 		}
1355:printer.c     ****         PRINTER_A_PutChar(LINE_FEED);
 7388              		.loc 1 1355 0 is_stmt 1
 7389 0976 064B     		ldr	r3, .L516+8
 7390 0978 1B78     		ldrb	r3, [r3]	@ zero_extendqisi2
 7391 097a 1846     		mov	r0, r3
 7392 097c FFF7FEFF 		bl	PRINTER_A_PutChar
 7393              	.LBB172:
1356:printer.c     **** 		for(uint8 x = 0; x < 13; x ++){
 7394              		.loc 1 1356 0
 7395 0980 0023     		movs	r3, #0
 7396 0982 87F83430 		strb	r3, [r7, #52]
 7397 0986 1BE0     		b	.L422
 7398              	.L517:
 7399              		.align	2
 7400              	.L516:
 7401 0988 00000000 		.word	msn_hora
 7402 098c 00000000 		.word	hour_copy
 7403 0990 00000000 		.word	LINE_FEED
 7404 0994 00000000 		.word	SEPARATOR
 7405 0998 00000000 		.word	msn_copy
 7406 099c 00000000 		.word	touch1
 7407 09a0 00000000 		.word	msn_original
 7408 09a4 00000000 		.word	equipo
 7409              	.L423:
1357:printer.c     **** 			PRINTER_A_PutChar(msn_pos[x]);
 7410              		.loc 1 1357 0 discriminator 3
 7411 09a8 97F83430 		ldrb	r3, [r7, #52]	@ zero_extendqisi2
 7412 09ac CF4A     		ldr	r2, .L518
ARM GAS  C:\Users\Diego\AppData\Local\Temp\ccIAJaV8.s 			page 165


 7413 09ae D35C     		ldrb	r3, [r2, r3]	@ zero_extendqisi2
 7414 09b0 1846     		mov	r0, r3
 7415 09b2 FFF7FEFF 		bl	PRINTER_A_PutChar
1356:printer.c     **** 		for(uint8 x = 0; x < 13; x ++){
 7416              		.loc 1 1356 0 discriminator 3
 7417 09b6 97F83430 		ldrb	r3, [r7, #52]	@ zero_extendqisi2
 7418 09ba 0133     		adds	r3, r3, #1
 7419 09bc 87F83430 		strb	r3, [r7, #52]
 7420              	.L422:
1356:printer.c     **** 		for(uint8 x = 0; x < 13; x ++){
 7421              		.loc 1 1356 0 is_stmt 0 discriminator 1
 7422 09c0 97F83430 		ldrb	r3, [r7, #52]	@ zero_extendqisi2
 7423 09c4 0C2B     		cmp	r3, #12
 7424 09c6 EFD9     		bls	.L423
 7425              	.LBE172:
1358:printer.c     **** 		}
1359:printer.c     ****         PRINTER_A_PutChar((side.a.dir)+ 0x31);
 7426              		.loc 1 1359 0 is_stmt 1
 7427 09c8 C94B     		ldr	r3, .L518+4
 7428 09ca 1B78     		ldrb	r3, [r3]	@ zero_extendqisi2
 7429 09cc 3133     		adds	r3, r3, #49
 7430 09ce DBB2     		uxtb	r3, r3
 7431 09d0 1846     		mov	r0, r3
 7432 09d2 FFF7FEFF 		bl	PRINTER_A_PutChar
1360:printer.c     **** 		PRINTER_A_PutChar(LINE_FEED);        
 7433              		.loc 1 1360 0
 7434 09d6 C74B     		ldr	r3, .L518+8
 7435 09d8 1B78     		ldrb	r3, [r3]	@ zero_extendqisi2
 7436 09da 1846     		mov	r0, r3
 7437 09dc FFF7FEFF 		bl	PRINTER_A_PutChar
 7438              	.LBB173:
1361:printer.c     ****         for(uint8 x = 0; x < 32; x ++){
 7439              		.loc 1 1361 0
 7440 09e0 0023     		movs	r3, #0
 7441 09e2 87F83330 		strb	r3, [r7, #51]
 7442 09e6 0BE0     		b	.L424
 7443              	.L425:
1362:printer.c     ****     		PRINTER_A_PutChar(SEPARATOR[x]);
 7444              		.loc 1 1362 0 discriminator 3
 7445 09e8 97F83330 		ldrb	r3, [r7, #51]	@ zero_extendqisi2
 7446 09ec C24A     		ldr	r2, .L518+12
 7447 09ee D35C     		ldrb	r3, [r2, r3]	@ zero_extendqisi2
 7448 09f0 1846     		mov	r0, r3
 7449 09f2 FFF7FEFF 		bl	PRINTER_A_PutChar
1361:printer.c     ****         for(uint8 x = 0; x < 32; x ++){
 7450              		.loc 1 1361 0 discriminator 3
 7451 09f6 97F83330 		ldrb	r3, [r7, #51]	@ zero_extendqisi2
 7452 09fa 0133     		adds	r3, r3, #1
 7453 09fc 87F83330 		strb	r3, [r7, #51]
 7454              	.L424:
1361:printer.c     ****         for(uint8 x = 0; x < 32; x ++){
 7455              		.loc 1 1361 0 is_stmt 0 discriminator 1
 7456 0a00 97F83330 		ldrb	r3, [r7, #51]	@ zero_extendqisi2
 7457 0a04 1F2B     		cmp	r3, #31
 7458 0a06 EFD9     		bls	.L425
 7459              	.LBE173:
1363:printer.c     ****     	}
ARM GAS  C:\Users\Diego\AppData\Local\Temp\ccIAJaV8.s 			page 166


1364:printer.c     ****         PRINTER_A_PutChar(LINE_FEED);
 7460              		.loc 1 1364 0 is_stmt 1
 7461 0a08 BA4B     		ldr	r3, .L518+8
 7462 0a0a 1B78     		ldrb	r3, [r3]	@ zero_extendqisi2
 7463 0a0c 1846     		mov	r0, r3
 7464 0a0e FFF7FEFF 		bl	PRINTER_A_PutChar
 7465              	.LBB174:
1365:printer.c     ****         for(uint8 x = 0; x < 13; x ++){
 7466              		.loc 1 1365 0
 7467 0a12 0023     		movs	r3, #0
 7468 0a14 87F83230 		strb	r3, [r7, #50]
 7469 0a18 0BE0     		b	.L426
 7470              	.L427:
1366:printer.c     **** 			PRINTER_A_PutChar(msn_POS2[x]);
 7471              		.loc 1 1366 0 discriminator 3
 7472 0a1a 97F83230 		ldrb	r3, [r7, #50]	@ zero_extendqisi2
 7473 0a1e B74A     		ldr	r2, .L518+16
 7474 0a20 D35C     		ldrb	r3, [r2, r3]	@ zero_extendqisi2
 7475 0a22 1846     		mov	r0, r3
 7476 0a24 FFF7FEFF 		bl	PRINTER_A_PutChar
1365:printer.c     ****         for(uint8 x = 0; x < 13; x ++){
 7477              		.loc 1 1365 0 discriminator 3
 7478 0a28 97F83230 		ldrb	r3, [r7, #50]	@ zero_extendqisi2
 7479 0a2c 0133     		adds	r3, r3, #1
 7480 0a2e 87F83230 		strb	r3, [r7, #50]
 7481              	.L426:
1365:printer.c     ****         for(uint8 x = 0; x < 13; x ++){
 7482              		.loc 1 1365 0 is_stmt 0 discriminator 1
 7483 0a32 97F83230 		ldrb	r3, [r7, #50]	@ zero_extendqisi2
 7484 0a36 0C2B     		cmp	r3, #12
 7485 0a38 EFD9     		bls	.L427
 7486              	.LBE174:
 7487              	.LBB175:
1367:printer.c     **** 		}
1368:printer.c     ****         for(uint8 x = 0; x < 8; x ++){
 7488              		.loc 1 1368 0 is_stmt 1
 7489 0a3a 0023     		movs	r3, #0
 7490 0a3c 87F83130 		strb	r3, [r7, #49]
 7491 0a40 0DE0     		b	.L428
 7492              	.L429:
1369:printer.c     **** 			PRINTER_A_PutChar(side.a.msn_plate[x]);
 7493              		.loc 1 1369 0 discriminator 3
 7494 0a42 97F83130 		ldrb	r3, [r7, #49]	@ zero_extendqisi2
 7495 0a46 AA4A     		ldr	r2, .L518+4
 7496 0a48 1344     		add	r3, r3, r2
 7497 0a4a 93F82331 		ldrb	r3, [r3, #291]	@ zero_extendqisi2
 7498 0a4e 1846     		mov	r0, r3
 7499 0a50 FFF7FEFF 		bl	PRINTER_A_PutChar
1368:printer.c     **** 			PRINTER_A_PutChar(side.a.msn_plate[x]);
 7500              		.loc 1 1368 0 discriminator 3
 7501 0a54 97F83130 		ldrb	r3, [r7, #49]	@ zero_extendqisi2
 7502 0a58 0133     		adds	r3, r3, #1
 7503 0a5a 87F83130 		strb	r3, [r7, #49]
 7504              	.L428:
1368:printer.c     **** 			PRINTER_A_PutChar(side.a.msn_plate[x]);
 7505              		.loc 1 1368 0 is_stmt 0 discriminator 1
 7506 0a5e 97F83130 		ldrb	r3, [r7, #49]	@ zero_extendqisi2
ARM GAS  C:\Users\Diego\AppData\Local\Temp\ccIAJaV8.s 			page 167


 7507 0a62 072B     		cmp	r3, #7
 7508 0a64 EDD9     		bls	.L429
 7509              	.LBE175:
1370:printer.c     **** 		} 
1371:printer.c     ****         PRINTER_A_PutChar(LINE_FEED);
 7510              		.loc 1 1371 0 is_stmt 1
 7511 0a66 A34B     		ldr	r3, .L518+8
 7512 0a68 1B78     		ldrb	r3, [r3]	@ zero_extendqisi2
 7513 0a6a 1846     		mov	r0, r3
 7514 0a6c FFF7FEFF 		bl	PRINTER_A_PutChar
 7515              	.LBB176:
1372:printer.c     ****         for(uint8 x = 0; x < 13; x ++){
 7516              		.loc 1 1372 0
 7517 0a70 0023     		movs	r3, #0
 7518 0a72 87F83030 		strb	r3, [r7, #48]
 7519 0a76 0BE0     		b	.L430
 7520              	.L431:
1373:printer.c     **** 			PRINTER_A_PutChar(msn_POS3[x]);
 7521              		.loc 1 1373 0 discriminator 3
 7522 0a78 97F83030 		ldrb	r3, [r7, #48]	@ zero_extendqisi2
 7523 0a7c A04A     		ldr	r2, .L518+20
 7524 0a7e D35C     		ldrb	r3, [r2, r3]	@ zero_extendqisi2
 7525 0a80 1846     		mov	r0, r3
 7526 0a82 FFF7FEFF 		bl	PRINTER_A_PutChar
1372:printer.c     ****         for(uint8 x = 0; x < 13; x ++){
 7527              		.loc 1 1372 0 discriminator 3
 7528 0a86 97F83030 		ldrb	r3, [r7, #48]	@ zero_extendqisi2
 7529 0a8a 0133     		adds	r3, r3, #1
 7530 0a8c 87F83030 		strb	r3, [r7, #48]
 7531              	.L430:
1372:printer.c     ****         for(uint8 x = 0; x < 13; x ++){
 7532              		.loc 1 1372 0 is_stmt 0 discriminator 1
 7533 0a90 97F83030 		ldrb	r3, [r7, #48]	@ zero_extendqisi2
 7534 0a94 0C2B     		cmp	r3, #12
 7535 0a96 EFD9     		bls	.L431
 7536              	.LBE176:
 7537              	.LBB177:
1374:printer.c     **** 		}
1375:printer.c     ****         for(uint8 x = 0; x <6; x ++){
 7538              		.loc 1 1375 0 is_stmt 1
 7539 0a98 0023     		movs	r3, #0
 7540 0a9a 87F82F30 		strb	r3, [r7, #47]
 7541 0a9e 0DE0     		b	.L432
 7542              	.L433:
1376:printer.c     **** 			PRINTER_A_PutChar(side.a.km[x]);
 7543              		.loc 1 1376 0 discriminator 3
 7544 0aa0 97F82F30 		ldrb	r3, [r7, #47]	@ zero_extendqisi2
 7545 0aa4 924A     		ldr	r2, .L518+4
 7546 0aa6 1344     		add	r3, r3, r2
 7547 0aa8 93F82D31 		ldrb	r3, [r3, #301]	@ zero_extendqisi2
 7548 0aac 1846     		mov	r0, r3
 7549 0aae FFF7FEFF 		bl	PRINTER_A_PutChar
1375:printer.c     **** 			PRINTER_A_PutChar(side.a.km[x]);
 7550              		.loc 1 1375 0 discriminator 3
 7551 0ab2 97F82F30 		ldrb	r3, [r7, #47]	@ zero_extendqisi2
 7552 0ab6 0133     		adds	r3, r3, #1
 7553 0ab8 87F82F30 		strb	r3, [r7, #47]
ARM GAS  C:\Users\Diego\AppData\Local\Temp\ccIAJaV8.s 			page 168


 7554              	.L432:
1375:printer.c     **** 			PRINTER_A_PutChar(side.a.km[x]);
 7555              		.loc 1 1375 0 is_stmt 0 discriminator 1
 7556 0abc 97F82F30 		ldrb	r3, [r7, #47]	@ zero_extendqisi2
 7557 0ac0 052B     		cmp	r3, #5
 7558 0ac2 EDD9     		bls	.L433
 7559              	.LBE177:
1377:printer.c     **** 		}
1378:printer.c     ****         PRINTER_A_PutChar(LINE_FEED);        
 7560              		.loc 1 1378 0 is_stmt 1
 7561 0ac4 8B4B     		ldr	r3, .L518+8
 7562 0ac6 1B78     		ldrb	r3, [r3]	@ zero_extendqisi2
 7563 0ac8 1846     		mov	r0, r3
 7564 0aca FFF7FEFF 		bl	PRINTER_A_PutChar
 7565              	.LBB178:
1379:printer.c     ****         for(uint8 x = 0; x < 32; x ++){
 7566              		.loc 1 1379 0
 7567 0ace 0023     		movs	r3, #0
 7568 0ad0 87F82E30 		strb	r3, [r7, #46]
 7569 0ad4 0BE0     		b	.L434
 7570              	.L435:
1380:printer.c     ****     		PRINTER_A_PutChar(SEPARATOR[x]);
 7571              		.loc 1 1380 0 discriminator 3
 7572 0ad6 97F82E30 		ldrb	r3, [r7, #46]	@ zero_extendqisi2
 7573 0ada 874A     		ldr	r2, .L518+12
 7574 0adc D35C     		ldrb	r3, [r2, r3]	@ zero_extendqisi2
 7575 0ade 1846     		mov	r0, r3
 7576 0ae0 FFF7FEFF 		bl	PRINTER_A_PutChar
1379:printer.c     ****         for(uint8 x = 0; x < 32; x ++){
 7577              		.loc 1 1379 0 discriminator 3
 7578 0ae4 97F82E30 		ldrb	r3, [r7, #46]	@ zero_extendqisi2
 7579 0ae8 0133     		adds	r3, r3, #1
 7580 0aea 87F82E30 		strb	r3, [r7, #46]
 7581              	.L434:
1379:printer.c     ****         for(uint8 x = 0; x < 32; x ++){
 7582              		.loc 1 1379 0 is_stmt 0 discriminator 1
 7583 0aee 97F82E30 		ldrb	r3, [r7, #46]	@ zero_extendqisi2
 7584 0af2 1F2B     		cmp	r3, #31
 7585 0af4 EFD9     		bls	.L435
 7586              	.LBE178:
1381:printer.c     ****     	}
1382:printer.c     ****         PRINTER_A_PutChar(LINE_FEED);  
 7587              		.loc 1 1382 0 is_stmt 1
 7588 0af6 7F4B     		ldr	r3, .L518+8
 7589 0af8 1B78     		ldrb	r3, [r3]	@ zero_extendqisi2
 7590 0afa 1846     		mov	r0, r3
 7591 0afc FFF7FEFF 		bl	PRINTER_A_PutChar
 7592              	.LBB179:
1383:printer.c     ****         for(uint8 x = 0; x < 32; x ++){
 7593              		.loc 1 1383 0
 7594 0b00 0023     		movs	r3, #0
 7595 0b02 87F82D30 		strb	r3, [r7, #45]
 7596 0b06 0BE0     		b	.L436
 7597              	.L437:
1384:printer.c     ****     		PRINTER_A_PutChar(msn_POS4[x]);
 7598              		.loc 1 1384 0 discriminator 3
 7599 0b08 97F82D30 		ldrb	r3, [r7, #45]	@ zero_extendqisi2
ARM GAS  C:\Users\Diego\AppData\Local\Temp\ccIAJaV8.s 			page 169


 7600 0b0c 7D4A     		ldr	r2, .L518+24
 7601 0b0e D35C     		ldrb	r3, [r2, r3]	@ zero_extendqisi2
 7602 0b10 1846     		mov	r0, r3
 7603 0b12 FFF7FEFF 		bl	PRINTER_A_PutChar
1383:printer.c     ****         for(uint8 x = 0; x < 32; x ++){
 7604              		.loc 1 1383 0 discriminator 3
 7605 0b16 97F82D30 		ldrb	r3, [r7, #45]	@ zero_extendqisi2
 7606 0b1a 0133     		adds	r3, r3, #1
 7607 0b1c 87F82D30 		strb	r3, [r7, #45]
 7608              	.L436:
1383:printer.c     ****         for(uint8 x = 0; x < 32; x ++){
 7609              		.loc 1 1383 0 is_stmt 0 discriminator 1
 7610 0b20 97F82D30 		ldrb	r3, [r7, #45]	@ zero_extendqisi2
 7611 0b24 1F2B     		cmp	r3, #31
 7612 0b26 EFD9     		bls	.L437
 7613              	.LBE179:
1385:printer.c     ****     	}
1386:printer.c     ****         PRINTER_A_PutChar(LINE_FEED);
 7614              		.loc 1 1386 0 is_stmt 1
 7615 0b28 724B     		ldr	r3, .L518+8
 7616 0b2a 1B78     		ldrb	r3, [r3]	@ zero_extendqisi2
 7617 0b2c 1846     		mov	r0, r3
 7618 0b2e FFF7FEFF 		bl	PRINTER_A_PutChar
 7619              	.LBB180:
1387:printer.c     ****         for(uint8 x = 0; x < 32; x ++){
 7620              		.loc 1 1387 0
 7621 0b32 0023     		movs	r3, #0
 7622 0b34 87F82C30 		strb	r3, [r7, #44]
 7623 0b38 0BE0     		b	.L438
 7624              	.L439:
1388:printer.c     ****     		PRINTER_A_PutChar(msn_POS5[x]);
 7625              		.loc 1 1388 0 discriminator 3
 7626 0b3a 97F82C30 		ldrb	r3, [r7, #44]	@ zero_extendqisi2
 7627 0b3e 724A     		ldr	r2, .L518+28
 7628 0b40 D35C     		ldrb	r3, [r2, r3]	@ zero_extendqisi2
 7629 0b42 1846     		mov	r0, r3
 7630 0b44 FFF7FEFF 		bl	PRINTER_A_PutChar
1387:printer.c     ****         for(uint8 x = 0; x < 32; x ++){
 7631              		.loc 1 1387 0 discriminator 3
 7632 0b48 97F82C30 		ldrb	r3, [r7, #44]	@ zero_extendqisi2
 7633 0b4c 0133     		adds	r3, r3, #1
 7634 0b4e 87F82C30 		strb	r3, [r7, #44]
 7635              	.L438:
1387:printer.c     ****         for(uint8 x = 0; x < 32; x ++){
 7636              		.loc 1 1387 0 is_stmt 0 discriminator 1
 7637 0b52 97F82C30 		ldrb	r3, [r7, #44]	@ zero_extendqisi2
 7638 0b56 1F2B     		cmp	r3, #31
 7639 0b58 EFD9     		bls	.L439
 7640              	.LBE180:
1389:printer.c     ****     	}
1390:printer.c     ****         PRINTER_A_PutChar(LINE_FEED);
 7641              		.loc 1 1390 0 is_stmt 1
 7642 0b5a 664B     		ldr	r3, .L518+8
 7643 0b5c 1B78     		ldrb	r3, [r3]	@ zero_extendqisi2
 7644 0b5e 1846     		mov	r0, r3
 7645 0b60 FFF7FEFF 		bl	PRINTER_A_PutChar
 7646              	.LBB181:
ARM GAS  C:\Users\Diego\AppData\Local\Temp\ccIAJaV8.s 			page 170


1391:printer.c     ****         for(uint8 x = 0; x < 32; x ++){
 7647              		.loc 1 1391 0
 7648 0b64 0023     		movs	r3, #0
 7649 0b66 87F82B30 		strb	r3, [r7, #43]
 7650 0b6a 0BE0     		b	.L440
 7651              	.L441:
1392:printer.c     ****     		PRINTER_A_PutChar(msn_POS6[x]);
 7652              		.loc 1 1392 0 discriminator 3
 7653 0b6c 97F82B30 		ldrb	r3, [r7, #43]	@ zero_extendqisi2
 7654 0b70 664A     		ldr	r2, .L518+32
 7655 0b72 D35C     		ldrb	r3, [r2, r3]	@ zero_extendqisi2
 7656 0b74 1846     		mov	r0, r3
 7657 0b76 FFF7FEFF 		bl	PRINTER_A_PutChar
1391:printer.c     ****         for(uint8 x = 0; x < 32; x ++){
 7658              		.loc 1 1391 0 discriminator 3
 7659 0b7a 97F82B30 		ldrb	r3, [r7, #43]	@ zero_extendqisi2
 7660 0b7e 0133     		adds	r3, r3, #1
 7661 0b80 87F82B30 		strb	r3, [r7, #43]
 7662              	.L440:
1391:printer.c     ****         for(uint8 x = 0; x < 32; x ++){
 7663              		.loc 1 1391 0 is_stmt 0 discriminator 1
 7664 0b84 97F82B30 		ldrb	r3, [r7, #43]	@ zero_extendqisi2
 7665 0b88 1F2B     		cmp	r3, #31
 7666 0b8a EFD9     		bls	.L441
 7667              	.LBE181:
1393:printer.c     ****     	}
1394:printer.c     ****         PRINTER_A_PutChar(LINE_FEED);
 7668              		.loc 1 1394 0 is_stmt 1
 7669 0b8c 594B     		ldr	r3, .L518+8
 7670 0b8e 1B78     		ldrb	r3, [r3]	@ zero_extendqisi2
 7671 0b90 1846     		mov	r0, r3
 7672 0b92 FFF7FEFF 		bl	PRINTER_A_PutChar
 7673              	.LBB182:
1395:printer.c     ****         for(uint8 x = 0; x < 32; x ++){
 7674              		.loc 1 1395 0
 7675 0b96 0023     		movs	r3, #0
 7676 0b98 87F82A30 		strb	r3, [r7, #42]
 7677 0b9c 0BE0     		b	.L442
 7678              	.L443:
1396:printer.c     ****     		PRINTER_A_PutChar(SEPARATOR[x]);
 7679              		.loc 1 1396 0 discriminator 3
 7680 0b9e 97F82A30 		ldrb	r3, [r7, #42]	@ zero_extendqisi2
 7681 0ba2 554A     		ldr	r2, .L518+12
 7682 0ba4 D35C     		ldrb	r3, [r2, r3]	@ zero_extendqisi2
 7683 0ba6 1846     		mov	r0, r3
 7684 0ba8 FFF7FEFF 		bl	PRINTER_A_PutChar
1395:printer.c     ****         for(uint8 x = 0; x < 32; x ++){
 7685              		.loc 1 1395 0 discriminator 3
 7686 0bac 97F82A30 		ldrb	r3, [r7, #42]	@ zero_extendqisi2
 7687 0bb0 0133     		adds	r3, r3, #1
 7688 0bb2 87F82A30 		strb	r3, [r7, #42]
 7689              	.L442:
1395:printer.c     ****         for(uint8 x = 0; x < 32; x ++){
 7690              		.loc 1 1395 0 is_stmt 0 discriminator 1
 7691 0bb6 97F82A30 		ldrb	r3, [r7, #42]	@ zero_extendqisi2
 7692 0bba 1F2B     		cmp	r3, #31
 7693 0bbc EFD9     		bls	.L443
ARM GAS  C:\Users\Diego\AppData\Local\Temp\ccIAJaV8.s 			page 171


 7694              	.LBE182:
1397:printer.c     ****     	}
1398:printer.c     ****         PRINTER_A_PutChar(LINE_FEED);
 7695              		.loc 1 1398 0 is_stmt 1
 7696 0bbe 4D4B     		ldr	r3, .L518+8
 7697 0bc0 1B78     		ldrb	r3, [r3]	@ zero_extendqisi2
 7698 0bc2 1846     		mov	r0, r3
 7699 0bc4 FFF7FEFF 		bl	PRINTER_A_PutChar
1399:printer.c     ****         if(side.a.Nozzle == 0x01){
 7700              		.loc 1 1399 0
 7701 0bc8 494B     		ldr	r3, .L518+4
 7702 0bca 93F82C31 		ldrb	r3, [r3, #300]	@ zero_extendqisi2
 7703 0bce 012B     		cmp	r3, #1
 7704 0bd0 13D1     		bne	.L444
 7705              	.LBB183:
1400:printer.c     ****     		for(uint8 x = 0; x < 9; x ++){
 7706              		.loc 1 1400 0
 7707 0bd2 0023     		movs	r3, #0
 7708 0bd4 87F82930 		strb	r3, [r7, #41]
 7709 0bd8 0BE0     		b	.L445
 7710              	.L446:
1401:printer.c     ****     			PRINTER_A_PutChar(msn_diesel[x]);
 7711              		.loc 1 1401 0 discriminator 3
 7712 0bda 97F82930 		ldrb	r3, [r7, #41]	@ zero_extendqisi2
 7713 0bde 4C4A     		ldr	r2, .L518+36
 7714 0be0 D35C     		ldrb	r3, [r2, r3]	@ zero_extendqisi2
 7715 0be2 1846     		mov	r0, r3
 7716 0be4 FFF7FEFF 		bl	PRINTER_A_PutChar
1400:printer.c     ****     		for(uint8 x = 0; x < 9; x ++){
 7717              		.loc 1 1400 0 discriminator 3
 7718 0be8 97F82930 		ldrb	r3, [r7, #41]	@ zero_extendqisi2
 7719 0bec 0133     		adds	r3, r3, #1
 7720 0bee 87F82930 		strb	r3, [r7, #41]
 7721              	.L445:
1400:printer.c     ****     		for(uint8 x = 0; x < 9; x ++){
 7722              		.loc 1 1400 0 is_stmt 0 discriminator 1
 7723 0bf2 97F82930 		ldrb	r3, [r7, #41]	@ zero_extendqisi2
 7724 0bf6 082B     		cmp	r3, #8
 7725 0bf8 EFD9     		bls	.L446
 7726              	.L444:
 7727              	.LBE183:
1402:printer.c     ****     		}
1403:printer.c     ****         }
1404:printer.c     ****         if(side.a.Nozzle == 0x02){
 7728              		.loc 1 1404 0 is_stmt 1
 7729 0bfa 3D4B     		ldr	r3, .L518+4
 7730 0bfc 93F82C31 		ldrb	r3, [r3, #300]	@ zero_extendqisi2
 7731 0c00 022B     		cmp	r3, #2
 7732 0c02 13D1     		bne	.L447
 7733              	.LBB184:
1405:printer.c     ****             for(uint8 x = 0; x < 9; x ++){
 7734              		.loc 1 1405 0
 7735 0c04 0023     		movs	r3, #0
 7736 0c06 87F82830 		strb	r3, [r7, #40]
 7737 0c0a 0BE0     		b	.L448
 7738              	.L449:
1406:printer.c     ****     			PRINTER_A_PutChar(msn_gasoline[x]);
ARM GAS  C:\Users\Diego\AppData\Local\Temp\ccIAJaV8.s 			page 172


 7739              		.loc 1 1406 0 discriminator 3
 7740 0c0c 97F82830 		ldrb	r3, [r7, #40]	@ zero_extendqisi2
 7741 0c10 404A     		ldr	r2, .L518+40
 7742 0c12 D35C     		ldrb	r3, [r2, r3]	@ zero_extendqisi2
 7743 0c14 1846     		mov	r0, r3
 7744 0c16 FFF7FEFF 		bl	PRINTER_A_PutChar
1405:printer.c     ****             for(uint8 x = 0; x < 9; x ++){
 7745              		.loc 1 1405 0 discriminator 3
 7746 0c1a 97F82830 		ldrb	r3, [r7, #40]	@ zero_extendqisi2
 7747 0c1e 0133     		adds	r3, r3, #1
 7748 0c20 87F82830 		strb	r3, [r7, #40]
 7749              	.L448:
1405:printer.c     ****             for(uint8 x = 0; x < 9; x ++){
 7750              		.loc 1 1405 0 is_stmt 0 discriminator 1
 7751 0c24 97F82830 		ldrb	r3, [r7, #40]	@ zero_extendqisi2
 7752 0c28 082B     		cmp	r3, #8
 7753 0c2a EFD9     		bls	.L449
 7754              	.L447:
 7755              	.LBE184:
1407:printer.c     ****     		}
1408:printer.c     ****         }
1409:printer.c     ****         if(side.a.Nozzle == 0x03){
 7756              		.loc 1 1409 0 is_stmt 1
 7757 0c2c 304B     		ldr	r3, .L518+4
 7758 0c2e 93F82C31 		ldrb	r3, [r3, #300]	@ zero_extendqisi2
 7759 0c32 032B     		cmp	r3, #3
 7760 0c34 13D1     		bne	.L450
 7761              	.LBB185:
1410:printer.c     ****             for(uint8 x = 0; x < 9; x ++){
 7762              		.loc 1 1410 0
 7763 0c36 0023     		movs	r3, #0
 7764 0c38 87F82730 		strb	r3, [r7, #39]
 7765 0c3c 0BE0     		b	.L451
 7766              	.L452:
1411:printer.c     ****     			
1412:printer.c     ****                 PRINTER_A_PutChar(msn_extra[x]);
 7767              		.loc 1 1412 0 discriminator 3
 7768 0c3e 97F82730 		ldrb	r3, [r7, #39]	@ zero_extendqisi2
 7769 0c42 354A     		ldr	r2, .L518+44
 7770 0c44 D35C     		ldrb	r3, [r2, r3]	@ zero_extendqisi2
 7771 0c46 1846     		mov	r0, r3
 7772 0c48 FFF7FEFF 		bl	PRINTER_A_PutChar
1410:printer.c     ****             for(uint8 x = 0; x < 9; x ++){
 7773              		.loc 1 1410 0 discriminator 3
 7774 0c4c 97F82730 		ldrb	r3, [r7, #39]	@ zero_extendqisi2
 7775 0c50 0133     		adds	r3, r3, #1
 7776 0c52 87F82730 		strb	r3, [r7, #39]
 7777              	.L451:
1410:printer.c     ****             for(uint8 x = 0; x < 9; x ++){
 7778              		.loc 1 1410 0 is_stmt 0 discriminator 1
 7779 0c56 97F82730 		ldrb	r3, [r7, #39]	@ zero_extendqisi2
 7780 0c5a 082B     		cmp	r3, #8
 7781 0c5c EFD9     		bls	.L452
 7782              	.L450:
 7783              	.LBE185:
1413:printer.c     ****     		}
1414:printer.c     ****         } 
ARM GAS  C:\Users\Diego\AppData\Local\Temp\ccIAJaV8.s 			page 173


1415:printer.c     ****         PRINTER_A_PutChar(LINE_FEED);
 7784              		.loc 1 1415 0 is_stmt 1
 7785 0c5e 254B     		ldr	r3, .L518+8
 7786 0c60 1B78     		ldrb	r3, [r3]	@ zero_extendqisi2
 7787 0c62 1846     		mov	r0, r3
 7788 0c64 FFF7FEFF 		bl	PRINTER_A_PutChar
 7789              	.LBB186:
1416:printer.c     ****         for(uint8 x = 0; x < 8; x ++){
 7790              		.loc 1 1416 0
 7791 0c68 0023     		movs	r3, #0
 7792 0c6a 87F82630 		strb	r3, [r7, #38]
 7793 0c6e 18E0     		b	.L453
 7794              	.L455:
1417:printer.c     **** 			if((8-x) == DecVol)
 7795              		.loc 1 1417 0
 7796 0c70 97F82630 		ldrb	r3, [r7, #38]	@ zero_extendqisi2
 7797 0c74 C3F10803 		rsb	r3, r3, #8
 7798 0c78 284A     		ldr	r2, .L518+48
 7799 0c7a 1278     		ldrb	r2, [r2]	@ zero_extendqisi2
 7800 0c7c 9342     		cmp	r3, r2
 7801 0c7e 02D1     		bne	.L454
1418:printer.c     **** 				PRINTER_A_PutChar('.');
 7802              		.loc 1 1418 0
 7803 0c80 2E20     		movs	r0, #46
 7804 0c82 FFF7FEFF 		bl	PRINTER_A_PutChar
 7805              	.L454:
1419:printer.c     **** 			PRINTER_A_PutChar(side.a.ProcessedvolumeSale[x]);        
 7806              		.loc 1 1419 0 discriminator 2
 7807 0c86 97F82630 		ldrb	r3, [r7, #38]	@ zero_extendqisi2
 7808 0c8a 194A     		ldr	r2, .L518+4
 7809 0c8c 1344     		add	r3, r3, r2
 7810 0c8e 93F80331 		ldrb	r3, [r3, #259]	@ zero_extendqisi2
 7811 0c92 1846     		mov	r0, r3
 7812 0c94 FFF7FEFF 		bl	PRINTER_A_PutChar
1416:printer.c     **** 			if((8-x) == DecVol)
 7813              		.loc 1 1416 0 discriminator 2
 7814 0c98 97F82630 		ldrb	r3, [r7, #38]	@ zero_extendqisi2
 7815 0c9c 0133     		adds	r3, r3, #1
 7816 0c9e 87F82630 		strb	r3, [r7, #38]
 7817              	.L453:
1416:printer.c     **** 			if((8-x) == DecVol)
 7818              		.loc 1 1416 0 is_stmt 0 discriminator 1
 7819 0ca2 97F82630 		ldrb	r3, [r7, #38]	@ zero_extendqisi2
 7820 0ca6 072B     		cmp	r3, #7
 7821 0ca8 E2D9     		bls	.L455
 7822              	.LBE186:
1420:printer.c     **** 		}
1421:printer.c     **** 		PRINTER_A_PutChar(' ');        
 7823              		.loc 1 1421 0 is_stmt 1
 7824 0caa 2020     		movs	r0, #32
 7825 0cac FFF7FEFF 		bl	PRINTER_A_PutChar
1422:printer.c     **** 		PRINTER_A_PutChar(VolSimbol[0]); //Volumen
 7826              		.loc 1 1422 0
 7827 0cb0 1B4B     		ldr	r3, .L518+52
 7828 0cb2 1B78     		ldrb	r3, [r3]	@ zero_extendqisi2
 7829 0cb4 1846     		mov	r0, r3
 7830 0cb6 FFF7FEFF 		bl	PRINTER_A_PutChar
ARM GAS  C:\Users\Diego\AppData\Local\Temp\ccIAJaV8.s 			page 174


1423:printer.c     ****         PRINTER_A_PutChar(' ');
 7831              		.loc 1 1423 0
 7832 0cba 2020     		movs	r0, #32
 7833 0cbc FFF7FEFF 		bl	PRINTER_A_PutChar
1424:printer.c     ****         PRINTER_A_PutChar(' ');
 7834              		.loc 1 1424 0
 7835 0cc0 2020     		movs	r0, #32
 7836 0cc2 FFF7FEFF 		bl	PRINTER_A_PutChar
1425:printer.c     ****         PRINTER_A_PutChar(' ');
 7837              		.loc 1 1425 0
 7838 0cc6 2020     		movs	r0, #32
 7839 0cc8 FFF7FEFF 		bl	PRINTER_A_PutChar
1426:printer.c     ****         PRINTER_A_PutChar(' ');
 7840              		.loc 1 1426 0
 7841 0ccc 2020     		movs	r0, #32
 7842 0cce FFF7FEFF 		bl	PRINTER_A_PutChar
1427:printer.c     ****         PRINTER_A_PutChar(' ');     
 7843              		.loc 1 1427 0
 7844 0cd2 2020     		movs	r0, #32
 7845 0cd4 FFF7FEFF 		bl	PRINTER_A_PutChar
1428:printer.c     ****         PRINTER_A_PutChar(PRN_CURRENCY[0]);  //Precio		   
 7846              		.loc 1 1428 0
 7847 0cd8 124B     		ldr	r3, .L518+56
 7848 0cda 1B78     		ldrb	r3, [r3]	@ zero_extendqisi2
 7849 0cdc 1846     		mov	r0, r3
 7850 0cde FFF7FEFF 		bl	PRINTER_A_PutChar
 7851              	.LBB187:
1429:printer.c     **** 		for(uint8 x = 1; x < 6; x ++){
 7852              		.loc 1 1429 0
 7853 0ce2 0123     		movs	r3, #1
 7854 0ce4 87F82530 		strb	r3, [r7, #37]
 7855 0ce8 36E0     		b	.L456
 7856              	.L519:
 7857 0cea 00BF     		.align	2
 7858              	.L518:
 7859 0cec 00000000 		.word	msn_pos
 7860 0cf0 00000000 		.word	side
 7861 0cf4 00000000 		.word	LINE_FEED
 7862 0cf8 00000000 		.word	SEPARATOR
 7863 0cfc 00000000 		.word	msn_POS2
 7864 0d00 00000000 		.word	msn_POS3
 7865 0d04 00000000 		.word	msn_POS4
 7866 0d08 00000000 		.word	msn_POS5
 7867 0d0c 00000000 		.word	msn_POS6
 7868 0d10 00000000 		.word	msn_diesel
 7869 0d14 00000000 		.word	msn_gasoline
 7870 0d18 00000000 		.word	msn_extra
 7871 0d1c 00000000 		.word	DecVol
 7872 0d20 00000000 		.word	VolSimbol
 7873 0d24 00000000 		.word	PRN_CURRENCY
 7874              	.L457:
1430:printer.c     **** 			PRINTER_A_PutChar(side.a.ProcessedPPU[side.a.Nozzle-1][x]);
 7875              		.loc 1 1430 0 discriminator 3
 7876 0d28 BC4B     		ldr	r3, .L520
 7877 0d2a 93F82C31 		ldrb	r3, [r3, #300]	@ zero_extendqisi2
 7878 0d2e 5A1E     		subs	r2, r3, #1
 7879 0d30 97F82510 		ldrb	r1, [r7, #37]	@ zero_extendqisi2
ARM GAS  C:\Users\Diego\AppData\Local\Temp\ccIAJaV8.s 			page 175


 7880 0d34 B948     		ldr	r0, .L520
 7881 0d36 1346     		mov	r3, r2
 7882 0d38 5B00     		lsls	r3, r3, #1
 7883 0d3a 1344     		add	r3, r3, r2
 7884 0d3c 5B00     		lsls	r3, r3, #1
 7885 0d3e 0344     		add	r3, r3, r0
 7886 0d40 0B44     		add	r3, r3, r1
 7887 0d42 03F20B13 		addw	r3, r3, #267
 7888 0d46 1B78     		ldrb	r3, [r3]	@ zero_extendqisi2
 7889 0d48 1846     		mov	r0, r3
 7890 0d4a FFF7FEFF 		bl	PRINTER_A_PutChar
1429:printer.c     **** 		for(uint8 x = 1; x < 6; x ++){
 7891              		.loc 1 1429 0 discriminator 3
 7892 0d4e 97F82530 		ldrb	r3, [r7, #37]	@ zero_extendqisi2
 7893 0d52 0133     		adds	r3, r3, #1
 7894 0d54 87F82530 		strb	r3, [r7, #37]
 7895              	.L456:
1429:printer.c     **** 		for(uint8 x = 1; x < 6; x ++){
 7896              		.loc 1 1429 0 is_stmt 0 discriminator 1
 7897 0d58 97F82530 		ldrb	r3, [r7, #37]	@ zero_extendqisi2
 7898 0d5c 052B     		cmp	r3, #5
 7899 0d5e E3D9     		bls	.L457
 7900              	.LBE187:
1431:printer.c     **** 		}
1432:printer.c     ****         PRINTER_A_PutChar(' ');
 7901              		.loc 1 1432 0 is_stmt 1
 7902 0d60 2020     		movs	r0, #32
 7903 0d62 FFF7FEFF 		bl	PRINTER_A_PutChar
1433:printer.c     ****         PRINTER_A_PutChar(' ');
 7904              		.loc 1 1433 0
 7905 0d66 2020     		movs	r0, #32
 7906 0d68 FFF7FEFF 		bl	PRINTER_A_PutChar
1434:printer.c     ****         PRINTER_A_PutChar(' ');
 7907              		.loc 1 1434 0
 7908 0d6c 2020     		movs	r0, #32
 7909 0d6e FFF7FEFF 		bl	PRINTER_A_PutChar
1435:printer.c     ****         PRINTER_A_PutChar(' ');
 7910              		.loc 1 1435 0
 7911 0d72 2020     		movs	r0, #32
 7912 0d74 FFF7FEFF 		bl	PRINTER_A_PutChar
1436:printer.c     ****         
1437:printer.c     ****         PRINTER_A_PutChar(PRN_CURRENCY[0]);  //Importe		       
 7913              		.loc 1 1437 0
 7914 0d78 A94B     		ldr	r3, .L520+4
 7915 0d7a 1B78     		ldrb	r3, [r3]	@ zero_extendqisi2
 7916 0d7c 1846     		mov	r0, r3
 7917 0d7e FFF7FEFF 		bl	PRINTER_A_PutChar
 7918              	.LBB188:
1438:printer.c     **** 		for(uint8 x = 0; x < 8; x ++){
 7919              		.loc 1 1438 0
 7920 0d82 0023     		movs	r3, #0
 7921 0d84 87F82430 		strb	r3, [r7, #36]
 7922 0d88 0DE0     		b	.L458
 7923              	.L459:
1439:printer.c     **** 			PRINTER_A_PutChar(side.a.ProcessedmoneySale[x]);
 7924              		.loc 1 1439 0 discriminator 3
 7925 0d8a 97F82430 		ldrb	r3, [r7, #36]	@ zero_extendqisi2
ARM GAS  C:\Users\Diego\AppData\Local\Temp\ccIAJaV8.s 			page 176


 7926 0d8e A34A     		ldr	r2, .L520
 7927 0d90 1344     		add	r3, r3, r2
 7928 0d92 93F8FB30 		ldrb	r3, [r3, #251]	@ zero_extendqisi2
 7929 0d96 1846     		mov	r0, r3
 7930 0d98 FFF7FEFF 		bl	PRINTER_A_PutChar
1438:printer.c     **** 		for(uint8 x = 0; x < 8; x ++){
 7931              		.loc 1 1438 0 discriminator 3
 7932 0d9c 97F82430 		ldrb	r3, [r7, #36]	@ zero_extendqisi2
 7933 0da0 0133     		adds	r3, r3, #1
 7934 0da2 87F82430 		strb	r3, [r7, #36]
 7935              	.L458:
1438:printer.c     **** 		for(uint8 x = 0; x < 8; x ++){
 7936              		.loc 1 1438 0 is_stmt 0 discriminator 1
 7937 0da6 97F82430 		ldrb	r3, [r7, #36]	@ zero_extendqisi2
 7938 0daa 072B     		cmp	r3, #7
 7939 0dac EDD9     		bls	.L459
 7940              	.LBE188:
1440:printer.c     **** 		}		
1441:printer.c     **** 		side.a.Copy = 1;
 7941              		.loc 1 1441 0 is_stmt 1
 7942 0dae 9B4B     		ldr	r3, .L520
 7943 0db0 0122     		movs	r2, #1
 7944 0db2 83F83421 		strb	r2, [r3, #308]
1442:printer.c     ****         PRINTER_A_PutChar(LINE_FEED);
 7945              		.loc 1 1442 0
 7946 0db6 9B4B     		ldr	r3, .L520+8
 7947 0db8 1B78     		ldrb	r3, [r3]	@ zero_extendqisi2
 7948 0dba 1846     		mov	r0, r3
 7949 0dbc FFF7FEFF 		bl	PRINTER_A_PutChar
 7950              	.LBB189:
1443:printer.c     ****         for(uint8 x = 0; x < 32; x ++){
 7951              		.loc 1 1443 0
 7952 0dc0 0023     		movs	r3, #0
 7953 0dc2 87F82330 		strb	r3, [r7, #35]
 7954 0dc6 0BE0     		b	.L460
 7955              	.L461:
1444:printer.c     ****     		PRINTER_A_PutChar(SEPARATOR[x]);
 7956              		.loc 1 1444 0 discriminator 3
 7957 0dc8 97F82330 		ldrb	r3, [r7, #35]	@ zero_extendqisi2
 7958 0dcc 964A     		ldr	r2, .L520+12
 7959 0dce D35C     		ldrb	r3, [r2, r3]	@ zero_extendqisi2
 7960 0dd0 1846     		mov	r0, r3
 7961 0dd2 FFF7FEFF 		bl	PRINTER_A_PutChar
1443:printer.c     ****         for(uint8 x = 0; x < 32; x ++){
 7962              		.loc 1 1443 0 discriminator 3
 7963 0dd6 97F82330 		ldrb	r3, [r7, #35]	@ zero_extendqisi2
 7964 0dda 0133     		adds	r3, r3, #1
 7965 0ddc 87F82330 		strb	r3, [r7, #35]
 7966              	.L460:
1443:printer.c     ****         for(uint8 x = 0; x < 32; x ++){
 7967              		.loc 1 1443 0 is_stmt 0 discriminator 1
 7968 0de0 97F82330 		ldrb	r3, [r7, #35]	@ zero_extendqisi2
 7969 0de4 1F2B     		cmp	r3, #31
 7970 0de6 EFD9     		bls	.L461
 7971              	.LBE189:
1445:printer.c     ****     	}
1446:printer.c     ****         PRINTER_A_PutChar(LINE_FEED);
ARM GAS  C:\Users\Diego\AppData\Local\Temp\ccIAJaV8.s 			page 177


 7972              		.loc 1 1446 0 is_stmt 1
 7973 0de8 8E4B     		ldr	r3, .L520+8
 7974 0dea 1B78     		ldrb	r3, [r3]	@ zero_extendqisi2
 7975 0dec 1846     		mov	r0, r3
 7976 0dee FFF7FEFF 		bl	PRINTER_A_PutChar
 7977              	.LBB190:
1447:printer.c     ****         for(uint8 x = 0; x < 32; x ++){
 7978              		.loc 1 1447 0
 7979 0df2 0023     		movs	r3, #0
 7980 0df4 87F82230 		strb	r3, [r7, #34]
 7981 0df8 0BE0     		b	.L462
 7982              	.L463:
1448:printer.c     ****     		PRINTER_A_PutChar(msn_POS7[x]); //Discriminacion de impuestos
 7983              		.loc 1 1448 0 discriminator 3
 7984 0dfa 97F82230 		ldrb	r3, [r7, #34]	@ zero_extendqisi2
 7985 0dfe 8B4A     		ldr	r2, .L520+16
 7986 0e00 D35C     		ldrb	r3, [r2, r3]	@ zero_extendqisi2
 7987 0e02 1846     		mov	r0, r3
 7988 0e04 FFF7FEFF 		bl	PRINTER_A_PutChar
1447:printer.c     ****         for(uint8 x = 0; x < 32; x ++){
 7989              		.loc 1 1447 0 discriminator 3
 7990 0e08 97F82230 		ldrb	r3, [r7, #34]	@ zero_extendqisi2
 7991 0e0c 0133     		adds	r3, r3, #1
 7992 0e0e 87F82230 		strb	r3, [r7, #34]
 7993              	.L462:
1447:printer.c     ****         for(uint8 x = 0; x < 32; x ++){
 7994              		.loc 1 1447 0 is_stmt 0 discriminator 1
 7995 0e12 97F82230 		ldrb	r3, [r7, #34]	@ zero_extendqisi2
 7996 0e16 1F2B     		cmp	r3, #31
 7997 0e18 EFD9     		bls	.L463
 7998              	.LBE190:
1449:printer.c     ****     	}
1450:printer.c     ****         PRINTER_A_PutChar(LINE_FEED);
 7999              		.loc 1 1450 0 is_stmt 1
 8000 0e1a 824B     		ldr	r3, .L520+8
 8001 0e1c 1B78     		ldrb	r3, [r3]	@ zero_extendqisi2
 8002 0e1e 1846     		mov	r0, r3
 8003 0e20 FFF7FEFF 		bl	PRINTER_A_PutChar
 8004              	.LBB191:
1451:printer.c     ****         for(uint8 x = 0; x < 32; x ++){
 8005              		.loc 1 1451 0
 8006 0e24 0023     		movs	r3, #0
 8007 0e26 87F82130 		strb	r3, [r7, #33]
 8008 0e2a 0BE0     		b	.L464
 8009              	.L465:
1452:printer.c     ****     		PRINTER_A_PutChar(msn_POS8[x]); //Base       Impuesto
 8010              		.loc 1 1452 0 discriminator 3
 8011 0e2c 97F82130 		ldrb	r3, [r7, #33]	@ zero_extendqisi2
 8012 0e30 7F4A     		ldr	r2, .L520+20
 8013 0e32 D35C     		ldrb	r3, [r2, r3]	@ zero_extendqisi2
 8014 0e34 1846     		mov	r0, r3
 8015 0e36 FFF7FEFF 		bl	PRINTER_A_PutChar
1451:printer.c     ****         for(uint8 x = 0; x < 32; x ++){
 8016              		.loc 1 1451 0 discriminator 3
 8017 0e3a 97F82130 		ldrb	r3, [r7, #33]	@ zero_extendqisi2
 8018 0e3e 0133     		adds	r3, r3, #1
 8019 0e40 87F82130 		strb	r3, [r7, #33]
ARM GAS  C:\Users\Diego\AppData\Local\Temp\ccIAJaV8.s 			page 178


 8020              	.L464:
1451:printer.c     ****         for(uint8 x = 0; x < 32; x ++){
 8021              		.loc 1 1451 0 is_stmt 0 discriminator 1
 8022 0e44 97F82130 		ldrb	r3, [r7, #33]	@ zero_extendqisi2
 8023 0e48 1F2B     		cmp	r3, #31
 8024 0e4a EFD9     		bls	.L465
 8025              	.LBE191:
1453:printer.c     ****     	}
1454:printer.c     ****         PRINTER_A_PutChar(LINE_FEED);
 8026              		.loc 1 1454 0 is_stmt 1
 8027 0e4c 754B     		ldr	r3, .L520+8
 8028 0e4e 1B78     		ldrb	r3, [r3]	@ zero_extendqisi2
 8029 0e50 1846     		mov	r0, r3
 8030 0e52 FFF7FEFF 		bl	PRINTER_A_PutChar
 8031              	.LBB192:
1455:printer.c     ****         for(uint8 x = 0; x < 13; x ++){
 8032              		.loc 1 1455 0
 8033 0e56 0023     		movs	r3, #0
 8034 0e58 87F82030 		strb	r3, [r7, #32]
 8035 0e5c 0BE0     		b	.L466
 8036              	.L467:
1456:printer.c     ****     		PRINTER_A_PutChar(msn_POS9[x]);
 8037              		.loc 1 1456 0 discriminator 3
 8038 0e5e 97F82030 		ldrb	r3, [r7, #32]	@ zero_extendqisi2
 8039 0e62 744A     		ldr	r2, .L520+24
 8040 0e64 D35C     		ldrb	r3, [r2, r3]	@ zero_extendqisi2
 8041 0e66 1846     		mov	r0, r3
 8042 0e68 FFF7FEFF 		bl	PRINTER_A_PutChar
1455:printer.c     ****         for(uint8 x = 0; x < 13; x ++){
 8043              		.loc 1 1455 0 discriminator 3
 8044 0e6c 97F82030 		ldrb	r3, [r7, #32]	@ zero_extendqisi2
 8045 0e70 0133     		adds	r3, r3, #1
 8046 0e72 87F82030 		strb	r3, [r7, #32]
 8047              	.L466:
1455:printer.c     ****         for(uint8 x = 0; x < 13; x ++){
 8048              		.loc 1 1455 0 is_stmt 0 discriminator 1
 8049 0e76 97F82030 		ldrb	r3, [r7, #32]	@ zero_extendqisi2
 8050 0e7a 0C2B     		cmp	r3, #12
 8051 0e7c EFD9     		bls	.L467
 8052              	.LBE192:
1457:printer.c     ****     	}
1458:printer.c     ****         PRINTER_A_PutChar(' '); 
 8053              		.loc 1 1458 0 is_stmt 1
 8054 0e7e 2020     		movs	r0, #32
 8055 0e80 FFF7FEFF 		bl	PRINTER_A_PutChar
1459:printer.c     ****         PRINTER_A_PutChar(PRN_CURRENCY[0]);  //Importe
 8056              		.loc 1 1459 0
 8057 0e84 664B     		ldr	r3, .L520+4
 8058 0e86 1B78     		ldrb	r3, [r3]	@ zero_extendqisi2
 8059 0e88 1846     		mov	r0, r3
 8060 0e8a FFF7FEFF 		bl	PRINTER_A_PutChar
1460:printer.c     **** 		PRINTER_A_PutChar(' ');        
 8061              		.loc 1 1460 0
 8062 0e8e 2020     		movs	r0, #32
 8063 0e90 FFF7FEFF 		bl	PRINTER_A_PutChar
 8064              	.LBB193:
1461:printer.c     **** 		for(uint8 x = 0; x < 8; x ++){
ARM GAS  C:\Users\Diego\AppData\Local\Temp\ccIAJaV8.s 			page 179


 8065              		.loc 1 1461 0
 8066 0e94 0023     		movs	r3, #0
 8067 0e96 FB77     		strb	r3, [r7, #31]
 8068 0e98 0AE0     		b	.L468
 8069              	.L469:
1462:printer.c     **** 			PRINTER_A_PutChar(side.a.ProcessedmoneySale[x]);
 8070              		.loc 1 1462 0 discriminator 3
 8071 0e9a FB7F     		ldrb	r3, [r7, #31]	@ zero_extendqisi2
 8072 0e9c 5F4A     		ldr	r2, .L520
 8073 0e9e 1344     		add	r3, r3, r2
 8074 0ea0 93F8FB30 		ldrb	r3, [r3, #251]	@ zero_extendqisi2
 8075 0ea4 1846     		mov	r0, r3
 8076 0ea6 FFF7FEFF 		bl	PRINTER_A_PutChar
1461:printer.c     **** 		for(uint8 x = 0; x < 8; x ++){
 8077              		.loc 1 1461 0 discriminator 3
 8078 0eaa FB7F     		ldrb	r3, [r7, #31]	@ zero_extendqisi2
 8079 0eac 0133     		adds	r3, r3, #1
 8080 0eae FB77     		strb	r3, [r7, #31]
 8081              	.L468:
1461:printer.c     **** 		for(uint8 x = 0; x < 8; x ++){
 8082              		.loc 1 1461 0 is_stmt 0 discriminator 1
 8083 0eb0 FB7F     		ldrb	r3, [r7, #31]	@ zero_extendqisi2
 8084 0eb2 072B     		cmp	r3, #7
 8085 0eb4 F1D9     		bls	.L469
 8086              	.LBE193:
1463:printer.c     **** 		}
1464:printer.c     ****         PRINTER_A_PutChar(' '); 
 8087              		.loc 1 1464 0 is_stmt 1
 8088 0eb6 2020     		movs	r0, #32
 8089 0eb8 FFF7FEFF 		bl	PRINTER_A_PutChar
1465:printer.c     ****         PRINTER_A_PutChar(' '); 
 8090              		.loc 1 1465 0
 8091 0ebc 2020     		movs	r0, #32
 8092 0ebe FFF7FEFF 		bl	PRINTER_A_PutChar
1466:printer.c     ****         PRINTER_A_PutChar(' '); 
 8093              		.loc 1 1466 0
 8094 0ec2 2020     		movs	r0, #32
 8095 0ec4 FFF7FEFF 		bl	PRINTER_A_PutChar
1467:printer.c     ****         PRINTER_A_PutChar('$');
 8096              		.loc 1 1467 0
 8097 0ec8 2420     		movs	r0, #36
 8098 0eca FFF7FEFF 		bl	PRINTER_A_PutChar
1468:printer.c     ****         PRINTER_A_PutChar('0');
 8099              		.loc 1 1468 0
 8100 0ece 3020     		movs	r0, #48
 8101 0ed0 FFF7FEFF 		bl	PRINTER_A_PutChar
1469:printer.c     ****         PRINTER_A_PutChar(LINE_FEED);
 8102              		.loc 1 1469 0
 8103 0ed4 534B     		ldr	r3, .L520+8
 8104 0ed6 1B78     		ldrb	r3, [r3]	@ zero_extendqisi2
 8105 0ed8 1846     		mov	r0, r3
 8106 0eda FFF7FEFF 		bl	PRINTER_A_PutChar
 8107              	.LBB194:
1470:printer.c     ****         for(uint8 x = 0; x < 13; x ++){
 8108              		.loc 1 1470 0
 8109 0ede 0023     		movs	r3, #0
 8110 0ee0 BB77     		strb	r3, [r7, #30]
ARM GAS  C:\Users\Diego\AppData\Local\Temp\ccIAJaV8.s 			page 180


 8111 0ee2 08E0     		b	.L470
 8112              	.L471:
1471:printer.c     ****     		PRINTER_A_PutChar(msn_POS10[x]);
 8113              		.loc 1 1471 0 discriminator 3
 8114 0ee4 BB7F     		ldrb	r3, [r7, #30]	@ zero_extendqisi2
 8115 0ee6 544A     		ldr	r2, .L520+28
 8116 0ee8 D35C     		ldrb	r3, [r2, r3]	@ zero_extendqisi2
 8117 0eea 1846     		mov	r0, r3
 8118 0eec FFF7FEFF 		bl	PRINTER_A_PutChar
1470:printer.c     ****         for(uint8 x = 0; x < 13; x ++){
 8119              		.loc 1 1470 0 discriminator 3
 8120 0ef0 BB7F     		ldrb	r3, [r7, #30]	@ zero_extendqisi2
 8121 0ef2 0133     		adds	r3, r3, #1
 8122 0ef4 BB77     		strb	r3, [r7, #30]
 8123              	.L470:
1470:printer.c     ****         for(uint8 x = 0; x < 13; x ++){
 8124              		.loc 1 1470 0 is_stmt 0 discriminator 1
 8125 0ef6 BB7F     		ldrb	r3, [r7, #30]	@ zero_extendqisi2
 8126 0ef8 0C2B     		cmp	r3, #12
 8127 0efa F3D9     		bls	.L471
 8128              	.LBE194:
1472:printer.c     ****     	}
1473:printer.c     ****         PRINTER_A_PutChar(PRN_CURRENCY[0]);  //Importe
 8129              		.loc 1 1473 0 is_stmt 1
 8130 0efc 484B     		ldr	r3, .L520+4
 8131 0efe 1B78     		ldrb	r3, [r3]	@ zero_extendqisi2
 8132 0f00 1846     		mov	r0, r3
 8133 0f02 FFF7FEFF 		bl	PRINTER_A_PutChar
1474:printer.c     **** 		PRINTER_A_PutChar(' ');        
 8134              		.loc 1 1474 0
 8135 0f06 2020     		movs	r0, #32
 8136 0f08 FFF7FEFF 		bl	PRINTER_A_PutChar
 8137              	.LBB195:
1475:printer.c     **** 		for(uint8 x = 0; x < 8; x ++){
 8138              		.loc 1 1475 0
 8139 0f0c 0023     		movs	r3, #0
 8140 0f0e 7B77     		strb	r3, [r7, #29]
 8141 0f10 0AE0     		b	.L472
 8142              	.L473:
1476:printer.c     **** 			PRINTER_A_PutChar(side.a.ProcessedmoneySale[x]);
 8143              		.loc 1 1476 0 discriminator 3
 8144 0f12 7B7F     		ldrb	r3, [r7, #29]	@ zero_extendqisi2
 8145 0f14 414A     		ldr	r2, .L520
 8146 0f16 1344     		add	r3, r3, r2
 8147 0f18 93F8FB30 		ldrb	r3, [r3, #251]	@ zero_extendqisi2
 8148 0f1c 1846     		mov	r0, r3
 8149 0f1e FFF7FEFF 		bl	PRINTER_A_PutChar
1475:printer.c     **** 		for(uint8 x = 0; x < 8; x ++){
 8150              		.loc 1 1475 0 discriminator 3
 8151 0f22 7B7F     		ldrb	r3, [r7, #29]	@ zero_extendqisi2
 8152 0f24 0133     		adds	r3, r3, #1
 8153 0f26 7B77     		strb	r3, [r7, #29]
 8154              	.L472:
1475:printer.c     **** 		for(uint8 x = 0; x < 8; x ++){
 8155              		.loc 1 1475 0 is_stmt 0 discriminator 1
 8156 0f28 7B7F     		ldrb	r3, [r7, #29]	@ zero_extendqisi2
 8157 0f2a 072B     		cmp	r3, #7
ARM GAS  C:\Users\Diego\AppData\Local\Temp\ccIAJaV8.s 			page 181


 8158 0f2c F1D9     		bls	.L473
 8159              	.LBE195:
1477:printer.c     **** 		}
1478:printer.c     ****         PRINTER_A_PutChar(LINE_FEED);
 8160              		.loc 1 1478 0 is_stmt 1
 8161 0f2e 3D4B     		ldr	r3, .L520+8
 8162 0f30 1B78     		ldrb	r3, [r3]	@ zero_extendqisi2
 8163 0f32 1846     		mov	r0, r3
 8164 0f34 FFF7FEFF 		bl	PRINTER_A_PutChar
 8165              	.LBB196:
1479:printer.c     ****         for(uint8 x = 0; x < 13; x ++){
 8166              		.loc 1 1479 0
 8167 0f38 0023     		movs	r3, #0
 8168 0f3a 3B77     		strb	r3, [r7, #28]
 8169 0f3c 08E0     		b	.L474
 8170              	.L475:
1480:printer.c     ****     		PRINTER_A_PutChar(msn_POS11[x]);
 8171              		.loc 1 1480 0 discriminator 3
 8172 0f3e 3B7F     		ldrb	r3, [r7, #28]	@ zero_extendqisi2
 8173 0f40 3E4A     		ldr	r2, .L520+32
 8174 0f42 D35C     		ldrb	r3, [r2, r3]	@ zero_extendqisi2
 8175 0f44 1846     		mov	r0, r3
 8176 0f46 FFF7FEFF 		bl	PRINTER_A_PutChar
1479:printer.c     ****         for(uint8 x = 0; x < 13; x ++){
 8177              		.loc 1 1479 0 discriminator 3
 8178 0f4a 3B7F     		ldrb	r3, [r7, #28]	@ zero_extendqisi2
 8179 0f4c 0133     		adds	r3, r3, #1
 8180 0f4e 3B77     		strb	r3, [r7, #28]
 8181              	.L474:
1479:printer.c     ****         for(uint8 x = 0; x < 13; x ++){
 8182              		.loc 1 1479 0 is_stmt 0 discriminator 1
 8183 0f50 3B7F     		ldrb	r3, [r7, #28]	@ zero_extendqisi2
 8184 0f52 0C2B     		cmp	r3, #12
 8185 0f54 F3D9     		bls	.L475
 8186              	.LBE196:
1481:printer.c     ****     	}
1482:printer.c     ****         PRINTER_A_PutChar('$');
 8187              		.loc 1 1482 0 is_stmt 1
 8188 0f56 2420     		movs	r0, #36
 8189 0f58 FFF7FEFF 		bl	PRINTER_A_PutChar
1483:printer.c     ****         PRINTER_A_PutChar('0');
 8190              		.loc 1 1483 0
 8191 0f5c 3020     		movs	r0, #48
 8192 0f5e FFF7FEFF 		bl	PRINTER_A_PutChar
1484:printer.c     ****         PRINTER_A_PutChar(LINE_FEED);
 8193              		.loc 1 1484 0
 8194 0f62 304B     		ldr	r3, .L520+8
 8195 0f64 1B78     		ldrb	r3, [r3]	@ zero_extendqisi2
 8196 0f66 1846     		mov	r0, r3
 8197 0f68 FFF7FEFF 		bl	PRINTER_A_PutChar
 8198              	.LBB197:
1485:printer.c     ****         for(uint8 x = 0; x < 13; x ++){
 8199              		.loc 1 1485 0
 8200 0f6c 0023     		movs	r3, #0
 8201 0f6e FB76     		strb	r3, [r7, #27]
 8202 0f70 08E0     		b	.L476
 8203              	.L477:
ARM GAS  C:\Users\Diego\AppData\Local\Temp\ccIAJaV8.s 			page 182


1486:printer.c     ****     		PRINTER_A_PutChar(msn_POS12[x]);
 8204              		.loc 1 1486 0 discriminator 3
 8205 0f72 FB7E     		ldrb	r3, [r7, #27]	@ zero_extendqisi2
 8206 0f74 324A     		ldr	r2, .L520+36
 8207 0f76 D35C     		ldrb	r3, [r2, r3]	@ zero_extendqisi2
 8208 0f78 1846     		mov	r0, r3
 8209 0f7a FFF7FEFF 		bl	PRINTER_A_PutChar
1485:printer.c     ****         for(uint8 x = 0; x < 13; x ++){
 8210              		.loc 1 1485 0 discriminator 3
 8211 0f7e FB7E     		ldrb	r3, [r7, #27]	@ zero_extendqisi2
 8212 0f80 0133     		adds	r3, r3, #1
 8213 0f82 FB76     		strb	r3, [r7, #27]
 8214              	.L476:
1485:printer.c     ****         for(uint8 x = 0; x < 13; x ++){
 8215              		.loc 1 1485 0 is_stmt 0 discriminator 1
 8216 0f84 FB7E     		ldrb	r3, [r7, #27]	@ zero_extendqisi2
 8217 0f86 0C2B     		cmp	r3, #12
 8218 0f88 F3D9     		bls	.L477
 8219              	.LBE197:
1487:printer.c     ****     	}
1488:printer.c     ****         PRINTER_A_PutChar(PRN_CURRENCY[0]);  //Importe
 8220              		.loc 1 1488 0 is_stmt 1
 8221 0f8a 254B     		ldr	r3, .L520+4
 8222 0f8c 1B78     		ldrb	r3, [r3]	@ zero_extendqisi2
 8223 0f8e 1846     		mov	r0, r3
 8224 0f90 FFF7FEFF 		bl	PRINTER_A_PutChar
1489:printer.c     **** 		PRINTER_A_PutChar(' ');        
 8225              		.loc 1 1489 0
 8226 0f94 2020     		movs	r0, #32
 8227 0f96 FFF7FEFF 		bl	PRINTER_A_PutChar
 8228              	.LBB198:
1490:printer.c     **** 		for(uint8 x = 0; x < 8; x ++){
 8229              		.loc 1 1490 0
 8230 0f9a 0023     		movs	r3, #0
 8231 0f9c BB76     		strb	r3, [r7, #26]
 8232 0f9e 0AE0     		b	.L478
 8233              	.L479:
1491:printer.c     **** 			PRINTER_A_PutChar(side.a.ProcessedmoneySale[x]);
 8234              		.loc 1 1491 0 discriminator 3
 8235 0fa0 BB7E     		ldrb	r3, [r7, #26]	@ zero_extendqisi2
 8236 0fa2 1E4A     		ldr	r2, .L520
 8237 0fa4 1344     		add	r3, r3, r2
 8238 0fa6 93F8FB30 		ldrb	r3, [r3, #251]	@ zero_extendqisi2
 8239 0faa 1846     		mov	r0, r3
 8240 0fac FFF7FEFF 		bl	PRINTER_A_PutChar
1490:printer.c     **** 		for(uint8 x = 0; x < 8; x ++){
 8241              		.loc 1 1490 0 discriminator 3
 8242 0fb0 BB7E     		ldrb	r3, [r7, #26]	@ zero_extendqisi2
 8243 0fb2 0133     		adds	r3, r3, #1
 8244 0fb4 BB76     		strb	r3, [r7, #26]
 8245              	.L478:
1490:printer.c     **** 		for(uint8 x = 0; x < 8; x ++){
 8246              		.loc 1 1490 0 is_stmt 0 discriminator 1
 8247 0fb6 BB7E     		ldrb	r3, [r7, #26]	@ zero_extendqisi2
 8248 0fb8 072B     		cmp	r3, #7
 8249 0fba F1D9     		bls	.L479
 8250              	.LBE198:
ARM GAS  C:\Users\Diego\AppData\Local\Temp\ccIAJaV8.s 			page 183


1492:printer.c     **** 		}
1493:printer.c     ****         PRINTER_A_PutChar(LINE_FEED);
 8251              		.loc 1 1493 0 is_stmt 1
 8252 0fbc 194B     		ldr	r3, .L520+8
 8253 0fbe 1B78     		ldrb	r3, [r3]	@ zero_extendqisi2
 8254 0fc0 1846     		mov	r0, r3
 8255 0fc2 FFF7FEFF 		bl	PRINTER_A_PutChar
 8256              	.LBB199:
1494:printer.c     ****         for(uint8 x = 0; x < 32; x ++){
 8257              		.loc 1 1494 0
 8258 0fc6 0023     		movs	r3, #0
 8259 0fc8 7B76     		strb	r3, [r7, #25]
 8260 0fca 08E0     		b	.L480
 8261              	.L481:
1495:printer.c     ****     		PRINTER_A_PutChar(SEPARATOR[x]);
 8262              		.loc 1 1495 0 discriminator 3
 8263 0fcc 7B7E     		ldrb	r3, [r7, #25]	@ zero_extendqisi2
 8264 0fce 164A     		ldr	r2, .L520+12
 8265 0fd0 D35C     		ldrb	r3, [r2, r3]	@ zero_extendqisi2
 8266 0fd2 1846     		mov	r0, r3
 8267 0fd4 FFF7FEFF 		bl	PRINTER_A_PutChar
1494:printer.c     ****         for(uint8 x = 0; x < 32; x ++){
 8268              		.loc 1 1494 0 discriminator 3
 8269 0fd8 7B7E     		ldrb	r3, [r7, #25]	@ zero_extendqisi2
 8270 0fda 0133     		adds	r3, r3, #1
 8271 0fdc 7B76     		strb	r3, [r7, #25]
 8272              	.L480:
1494:printer.c     ****         for(uint8 x = 0; x < 32; x ++){
 8273              		.loc 1 1494 0 is_stmt 0 discriminator 1
 8274 0fde 7B7E     		ldrb	r3, [r7, #25]	@ zero_extendqisi2
 8275 0fe0 1F2B     		cmp	r3, #31
 8276 0fe2 F3D9     		bls	.L481
 8277              	.L401:
 8278              	.LBE199:
1496:printer.c     ****     	}
1497:printer.c     ****         
1498:printer.c     ****     } /*Posicion a*/
1499:printer.c     ****     
1500:printer.c     ****     
1501:printer.c     ****     /* Resolucin */
1502:printer.c     ****     PRINTER_A_PutChar(LINE_FEED);
 8279              		.loc 1 1502 0 is_stmt 1
 8280 0fe4 0F4B     		ldr	r3, .L520+8
 8281 0fe6 1B78     		ldrb	r3, [r3]	@ zero_extendqisi2
 8282 0fe8 1846     		mov	r0, r3
 8283 0fea FFF7FEFF 		bl	PRINTER_A_PutChar
 8284              	.LBB200:
1503:printer.c     ****     for(uint8 x = 0; x < 32; x ++){
 8285              		.loc 1 1503 0
 8286 0fee 0023     		movs	r3, #0
 8287 0ff0 3B76     		strb	r3, [r7, #24]
 8288 0ff2 08E0     		b	.L482
 8289              	.L483:
1504:printer.c     **** 		PRINTER_A_PutChar(msn_POS13[x]);
 8290              		.loc 1 1504 0 discriminator 3
 8291 0ff4 3B7E     		ldrb	r3, [r7, #24]	@ zero_extendqisi2
 8292 0ff6 134A     		ldr	r2, .L520+40
ARM GAS  C:\Users\Diego\AppData\Local\Temp\ccIAJaV8.s 			page 184


 8293 0ff8 D35C     		ldrb	r3, [r2, r3]	@ zero_extendqisi2
 8294 0ffa 1846     		mov	r0, r3
 8295 0ffc FFF7FEFF 		bl	PRINTER_A_PutChar
1503:printer.c     ****     for(uint8 x = 0; x < 32; x ++){
 8296              		.loc 1 1503 0 discriminator 3
 8297 1000 3B7E     		ldrb	r3, [r7, #24]	@ zero_extendqisi2
 8298 1002 0133     		adds	r3, r3, #1
 8299 1004 3B76     		strb	r3, [r7, #24]
 8300              	.L482:
1503:printer.c     ****     for(uint8 x = 0; x < 32; x ++){
 8301              		.loc 1 1503 0 is_stmt 0 discriminator 1
 8302 1006 3B7E     		ldrb	r3, [r7, #24]	@ zero_extendqisi2
 8303 1008 1F2B     		cmp	r3, #31
 8304 100a F3D9     		bls	.L483
 8305              	.LBE200:
1505:printer.c     **** 	}
1506:printer.c     ****     PRINTER_A_PutChar(LINE_FEED);
 8306              		.loc 1 1506 0 is_stmt 1
 8307 100c 054B     		ldr	r3, .L520+8
 8308 100e 1B78     		ldrb	r3, [r3]	@ zero_extendqisi2
 8309 1010 1846     		mov	r0, r3
 8310 1012 FFF7FEFF 		bl	PRINTER_A_PutChar
 8311              	.LBB201:
1507:printer.c     ****     for(uint8 x = 0; x < 32; x ++){
 8312              		.loc 1 1507 0
 8313 1016 0023     		movs	r3, #0
 8314 1018 FB75     		strb	r3, [r7, #23]
 8315 101a 1EE0     		b	.L484
 8316              	.L521:
 8317              		.align	2
 8318              	.L520:
 8319 101c 00000000 		.word	side
 8320 1020 00000000 		.word	PRN_CURRENCY
 8321 1024 00000000 		.word	LINE_FEED
 8322 1028 00000000 		.word	SEPARATOR
 8323 102c 00000000 		.word	msn_POS7
 8324 1030 00000000 		.word	msn_POS8
 8325 1034 00000000 		.word	msn_POS9
 8326 1038 00000000 		.word	msn_POS10
 8327 103c 00000000 		.word	msn_POS11
 8328 1040 00000000 		.word	msn_POS12
 8329 1044 00000000 		.word	msn_POS13
 8330              	.L485:
1508:printer.c     **** 		PRINTER_A_PutChar(msn_POS14[x]);
 8331              		.loc 1 1508 0 discriminator 3
 8332 1048 FB7D     		ldrb	r3, [r7, #23]	@ zero_extendqisi2
 8333 104a 934A     		ldr	r2, .L522
 8334 104c D35C     		ldrb	r3, [r2, r3]	@ zero_extendqisi2
 8335 104e 1846     		mov	r0, r3
 8336 1050 FFF7FEFF 		bl	PRINTER_A_PutChar
1507:printer.c     ****     for(uint8 x = 0; x < 32; x ++){
 8337              		.loc 1 1507 0 discriminator 3
 8338 1054 FB7D     		ldrb	r3, [r7, #23]	@ zero_extendqisi2
 8339 1056 0133     		adds	r3, r3, #1
 8340 1058 FB75     		strb	r3, [r7, #23]
 8341              	.L484:
1507:printer.c     ****     for(uint8 x = 0; x < 32; x ++){
ARM GAS  C:\Users\Diego\AppData\Local\Temp\ccIAJaV8.s 			page 185


 8342              		.loc 1 1507 0 is_stmt 0 discriminator 1
 8343 105a FB7D     		ldrb	r3, [r7, #23]	@ zero_extendqisi2
 8344 105c 1F2B     		cmp	r3, #31
 8345 105e F3D9     		bls	.L485
 8346              	.LBE201:
1509:printer.c     **** 	}
1510:printer.c     ****     PRINTER_A_PutChar(LINE_FEED);
 8347              		.loc 1 1510 0 is_stmt 1
 8348 1060 8E4B     		ldr	r3, .L522+4
 8349 1062 1B78     		ldrb	r3, [r3]	@ zero_extendqisi2
 8350 1064 1846     		mov	r0, r3
 8351 1066 FFF7FEFF 		bl	PRINTER_A_PutChar
 8352              	.LBB202:
1511:printer.c     ****     for(uint8 x = 0; x < 32; x ++){
 8353              		.loc 1 1511 0
 8354 106a 0023     		movs	r3, #0
 8355 106c BB75     		strb	r3, [r7, #22]
 8356 106e 08E0     		b	.L486
 8357              	.L487:
1512:printer.c     **** 		PRINTER_A_PutChar(msn_POS15[x]);
 8358              		.loc 1 1512 0 discriminator 3
 8359 1070 BB7D     		ldrb	r3, [r7, #22]	@ zero_extendqisi2
 8360 1072 8B4A     		ldr	r2, .L522+8
 8361 1074 D35C     		ldrb	r3, [r2, r3]	@ zero_extendqisi2
 8362 1076 1846     		mov	r0, r3
 8363 1078 FFF7FEFF 		bl	PRINTER_A_PutChar
1511:printer.c     ****     for(uint8 x = 0; x < 32; x ++){
 8364              		.loc 1 1511 0 discriminator 3
 8365 107c BB7D     		ldrb	r3, [r7, #22]	@ zero_extendqisi2
 8366 107e 0133     		adds	r3, r3, #1
 8367 1080 BB75     		strb	r3, [r7, #22]
 8368              	.L486:
1511:printer.c     ****     for(uint8 x = 0; x < 32; x ++){
 8369              		.loc 1 1511 0 is_stmt 0 discriminator 1
 8370 1082 BB7D     		ldrb	r3, [r7, #22]	@ zero_extendqisi2
 8371 1084 1F2B     		cmp	r3, #31
 8372 1086 F3D9     		bls	.L487
 8373              	.LBE202:
1513:printer.c     **** 	}
1514:printer.c     ****     PRINTER_A_PutChar(LINE_FEED);
 8374              		.loc 1 1514 0 is_stmt 1
 8375 1088 844B     		ldr	r3, .L522+4
 8376 108a 1B78     		ldrb	r3, [r3]	@ zero_extendqisi2
 8377 108c 1846     		mov	r0, r3
 8378 108e FFF7FEFF 		bl	PRINTER_A_PutChar
 8379              	.LBB203:
1515:printer.c     ****     for(uint8 x = 0; x < 32; x ++){
 8380              		.loc 1 1515 0
 8381 1092 0023     		movs	r3, #0
 8382 1094 7B75     		strb	r3, [r7, #21]
 8383 1096 08E0     		b	.L488
 8384              	.L489:
1516:printer.c     **** 		PRINTER_A_PutChar(msn_POS16[x]);
 8385              		.loc 1 1516 0 discriminator 3
 8386 1098 7B7D     		ldrb	r3, [r7, #21]	@ zero_extendqisi2
 8387 109a 824A     		ldr	r2, .L522+12
 8388 109c D35C     		ldrb	r3, [r2, r3]	@ zero_extendqisi2
ARM GAS  C:\Users\Diego\AppData\Local\Temp\ccIAJaV8.s 			page 186


 8389 109e 1846     		mov	r0, r3
 8390 10a0 FFF7FEFF 		bl	PRINTER_A_PutChar
1515:printer.c     ****     for(uint8 x = 0; x < 32; x ++){
 8391              		.loc 1 1515 0 discriminator 3
 8392 10a4 7B7D     		ldrb	r3, [r7, #21]	@ zero_extendqisi2
 8393 10a6 0133     		adds	r3, r3, #1
 8394 10a8 7B75     		strb	r3, [r7, #21]
 8395              	.L488:
1515:printer.c     ****     for(uint8 x = 0; x < 32; x ++){
 8396              		.loc 1 1515 0 is_stmt 0 discriminator 1
 8397 10aa 7B7D     		ldrb	r3, [r7, #21]	@ zero_extendqisi2
 8398 10ac 1F2B     		cmp	r3, #31
 8399 10ae F3D9     		bls	.L489
 8400              	.LBE203:
1517:printer.c     **** 	}
1518:printer.c     ****     PRINTER_A_PutChar(LINE_FEED);
 8401              		.loc 1 1518 0 is_stmt 1
 8402 10b0 7A4B     		ldr	r3, .L522+4
 8403 10b2 1B78     		ldrb	r3, [r3]	@ zero_extendqisi2
 8404 10b4 1846     		mov	r0, r3
 8405 10b6 FFF7FEFF 		bl	PRINTER_A_PutChar
 8406              	.LBB204:
1519:printer.c     ****     for(uint8 x = 0; x < 32; x ++){
 8407              		.loc 1 1519 0
 8408 10ba 0023     		movs	r3, #0
 8409 10bc 3B75     		strb	r3, [r7, #20]
 8410 10be 08E0     		b	.L490
 8411              	.L491:
1520:printer.c     **** 		PRINTER_A_PutChar(msn_POS17[x]);
 8412              		.loc 1 1520 0 discriminator 3
 8413 10c0 3B7D     		ldrb	r3, [r7, #20]	@ zero_extendqisi2
 8414 10c2 794A     		ldr	r2, .L522+16
 8415 10c4 D35C     		ldrb	r3, [r2, r3]	@ zero_extendqisi2
 8416 10c6 1846     		mov	r0, r3
 8417 10c8 FFF7FEFF 		bl	PRINTER_A_PutChar
1519:printer.c     ****     for(uint8 x = 0; x < 32; x ++){
 8418              		.loc 1 1519 0 discriminator 3
 8419 10cc 3B7D     		ldrb	r3, [r7, #20]	@ zero_extendqisi2
 8420 10ce 0133     		adds	r3, r3, #1
 8421 10d0 3B75     		strb	r3, [r7, #20]
 8422              	.L490:
1519:printer.c     ****     for(uint8 x = 0; x < 32; x ++){
 8423              		.loc 1 1519 0 is_stmt 0 discriminator 1
 8424 10d2 3B7D     		ldrb	r3, [r7, #20]	@ zero_extendqisi2
 8425 10d4 1F2B     		cmp	r3, #31
 8426 10d6 F3D9     		bls	.L491
 8427              	.LBE204:
1521:printer.c     **** 	}
1522:printer.c     ****     PRINTER_A_PutChar(LINE_FEED);
 8428              		.loc 1 1522 0 is_stmt 1
 8429 10d8 704B     		ldr	r3, .L522+4
 8430 10da 1B78     		ldrb	r3, [r3]	@ zero_extendqisi2
 8431 10dc 1846     		mov	r0, r3
 8432 10de FFF7FEFF 		bl	PRINTER_A_PutChar
 8433              	.LBB205:
1523:printer.c     ****     for(uint8 x = 0; x < 32; x ++){
 8434              		.loc 1 1523 0
ARM GAS  C:\Users\Diego\AppData\Local\Temp\ccIAJaV8.s 			page 187


 8435 10e2 0023     		movs	r3, #0
 8436 10e4 FB74     		strb	r3, [r7, #19]
 8437 10e6 08E0     		b	.L492
 8438              	.L493:
1524:printer.c     **** 		PRINTER_A_PutChar(msn_POS18[x]);
 8439              		.loc 1 1524 0 discriminator 3
 8440 10e8 FB7C     		ldrb	r3, [r7, #19]	@ zero_extendqisi2
 8441 10ea 704A     		ldr	r2, .L522+20
 8442 10ec D35C     		ldrb	r3, [r2, r3]	@ zero_extendqisi2
 8443 10ee 1846     		mov	r0, r3
 8444 10f0 FFF7FEFF 		bl	PRINTER_A_PutChar
1523:printer.c     ****     for(uint8 x = 0; x < 32; x ++){
 8445              		.loc 1 1523 0 discriminator 3
 8446 10f4 FB7C     		ldrb	r3, [r7, #19]	@ zero_extendqisi2
 8447 10f6 0133     		adds	r3, r3, #1
 8448 10f8 FB74     		strb	r3, [r7, #19]
 8449              	.L492:
1523:printer.c     ****     for(uint8 x = 0; x < 32; x ++){
 8450              		.loc 1 1523 0 is_stmt 0 discriminator 1
 8451 10fa FB7C     		ldrb	r3, [r7, #19]	@ zero_extendqisi2
 8452 10fc 1F2B     		cmp	r3, #31
 8453 10fe F3D9     		bls	.L493
 8454              	.LBE205:
1525:printer.c     **** 	}
1526:printer.c     ****     PRINTER_A_PutChar(LINE_FEED);
 8455              		.loc 1 1526 0 is_stmt 1
 8456 1100 664B     		ldr	r3, .L522+4
 8457 1102 1B78     		ldrb	r3, [r3]	@ zero_extendqisi2
 8458 1104 1846     		mov	r0, r3
 8459 1106 FFF7FEFF 		bl	PRINTER_A_PutChar
 8460              	.LBB206:
1527:printer.c     ****     for(uint8 x = 0; x < 32; x ++){
 8461              		.loc 1 1527 0
 8462 110a 0023     		movs	r3, #0
 8463 110c BB74     		strb	r3, [r7, #18]
 8464 110e 08E0     		b	.L494
 8465              	.L495:
1528:printer.c     **** 		PRINTER_A_PutChar(msn_POS19[x]);
 8466              		.loc 1 1528 0 discriminator 3
 8467 1110 BB7C     		ldrb	r3, [r7, #18]	@ zero_extendqisi2
 8468 1112 674A     		ldr	r2, .L522+24
 8469 1114 D35C     		ldrb	r3, [r2, r3]	@ zero_extendqisi2
 8470 1116 1846     		mov	r0, r3
 8471 1118 FFF7FEFF 		bl	PRINTER_A_PutChar
1527:printer.c     ****     for(uint8 x = 0; x < 32; x ++){
 8472              		.loc 1 1527 0 discriminator 3
 8473 111c BB7C     		ldrb	r3, [r7, #18]	@ zero_extendqisi2
 8474 111e 0133     		adds	r3, r3, #1
 8475 1120 BB74     		strb	r3, [r7, #18]
 8476              	.L494:
1527:printer.c     ****     for(uint8 x = 0; x < 32; x ++){
 8477              		.loc 1 1527 0 is_stmt 0 discriminator 1
 8478 1122 BB7C     		ldrb	r3, [r7, #18]	@ zero_extendqisi2
 8479 1124 1F2B     		cmp	r3, #31
 8480 1126 F3D9     		bls	.L495
 8481              	.LBE206:
1529:printer.c     **** 	}
ARM GAS  C:\Users\Diego\AppData\Local\Temp\ccIAJaV8.s 			page 188


1530:printer.c     ****     PRINTER_A_PutChar(LINE_FEED);
 8482              		.loc 1 1530 0 is_stmt 1
 8483 1128 5C4B     		ldr	r3, .L522+4
 8484 112a 1B78     		ldrb	r3, [r3]	@ zero_extendqisi2
 8485 112c 1846     		mov	r0, r3
 8486 112e FFF7FEFF 		bl	PRINTER_A_PutChar
 8487              	.LBB207:
1531:printer.c     ****     for(uint8 x = 0; x < 32; x ++){
 8488              		.loc 1 1531 0
 8489 1132 0023     		movs	r3, #0
 8490 1134 7B74     		strb	r3, [r7, #17]
 8491 1136 08E0     		b	.L496
 8492              	.L497:
1532:printer.c     **** 		PRINTER_A_PutChar(SEPARATOR[x]);
 8493              		.loc 1 1532 0 discriminator 3
 8494 1138 7B7C     		ldrb	r3, [r7, #17]	@ zero_extendqisi2
 8495 113a 5E4A     		ldr	r2, .L522+28
 8496 113c D35C     		ldrb	r3, [r2, r3]	@ zero_extendqisi2
 8497 113e 1846     		mov	r0, r3
 8498 1140 FFF7FEFF 		bl	PRINTER_A_PutChar
1531:printer.c     ****     for(uint8 x = 0; x < 32; x ++){
 8499              		.loc 1 1531 0 discriminator 3
 8500 1144 7B7C     		ldrb	r3, [r7, #17]	@ zero_extendqisi2
 8501 1146 0133     		adds	r3, r3, #1
 8502 1148 7B74     		strb	r3, [r7, #17]
 8503              	.L496:
1531:printer.c     ****     for(uint8 x = 0; x < 32; x ++){
 8504              		.loc 1 1531 0 is_stmt 0 discriminator 1
 8505 114a 7B7C     		ldrb	r3, [r7, #17]	@ zero_extendqisi2
 8506 114c 1F2B     		cmp	r3, #31
 8507 114e F3D9     		bls	.L497
 8508              	.LBE207:
 8509              	.LBB208:
1533:printer.c     **** 	}
1534:printer.c     ****     /******FOOTER*****/
1535:printer.c     **** 	for(uint8 x = 0; x < 32; x ++){
 8510              		.loc 1 1535 0 is_stmt 1
 8511 1150 0023     		movs	r3, #0
 8512 1152 3B74     		strb	r3, [r7, #16]
 8513 1154 08E0     		b	.L498
 8514              	.L499:
1536:printer.c     **** 		PRINTER_A_PutChar(SEPARATOR[x]);
 8515              		.loc 1 1536 0 discriminator 3
 8516 1156 3B7C     		ldrb	r3, [r7, #16]	@ zero_extendqisi2
 8517 1158 564A     		ldr	r2, .L522+28
 8518 115a D35C     		ldrb	r3, [r2, r3]	@ zero_extendqisi2
 8519 115c 1846     		mov	r0, r3
 8520 115e FFF7FEFF 		bl	PRINTER_A_PutChar
1535:printer.c     **** 		PRINTER_A_PutChar(SEPARATOR[x]);
 8521              		.loc 1 1535 0 discriminator 3
 8522 1162 3B7C     		ldrb	r3, [r7, #16]	@ zero_extendqisi2
 8523 1164 0133     		adds	r3, r3, #1
 8524 1166 3B74     		strb	r3, [r7, #16]
 8525              	.L498:
1535:printer.c     **** 		PRINTER_A_PutChar(SEPARATOR[x]);
 8526              		.loc 1 1535 0 is_stmt 0 discriminator 1
 8527 1168 3B7C     		ldrb	r3, [r7, #16]	@ zero_extendqisi2
ARM GAS  C:\Users\Diego\AppData\Local\Temp\ccIAJaV8.s 			page 189


 8528 116a 1F2B     		cmp	r3, #31
 8529 116c F3D9     		bls	.L499
 8530              	.LBE208:
1537:printer.c     **** 	}
1538:printer.c     ****     PRINTER_A_PutChar(LINE_FEED);    
 8531              		.loc 1 1538 0 is_stmt 1
 8532 116e 4B4B     		ldr	r3, .L522+4
 8533 1170 1B78     		ldrb	r3, [r3]	@ zero_extendqisi2
 8534 1172 1846     		mov	r0, r3
 8535 1174 FFF7FEFF 		bl	PRINTER_A_PutChar
 8536              	.LBB209:
1539:printer.c     **** 	for(uint8 x = 0; x < 32; x ++){
 8537              		.loc 1 1539 0
 8538 1178 0023     		movs	r3, #0
 8539 117a FB73     		strb	r3, [r7, #15]
 8540 117c 08E0     		b	.L500
 8541              	.L501:
1540:printer.c     **** 		PRINTER_A_PutChar(msn_footer3[x]);
 8542              		.loc 1 1540 0 discriminator 3
 8543 117e FB7B     		ldrb	r3, [r7, #15]	@ zero_extendqisi2
 8544 1180 4D4A     		ldr	r2, .L522+32
 8545 1182 D35C     		ldrb	r3, [r2, r3]	@ zero_extendqisi2
 8546 1184 1846     		mov	r0, r3
 8547 1186 FFF7FEFF 		bl	PRINTER_A_PutChar
1539:printer.c     **** 	for(uint8 x = 0; x < 32; x ++){
 8548              		.loc 1 1539 0 discriminator 3
 8549 118a FB7B     		ldrb	r3, [r7, #15]	@ zero_extendqisi2
 8550 118c 0133     		adds	r3, r3, #1
 8551 118e FB73     		strb	r3, [r7, #15]
 8552              	.L500:
1539:printer.c     **** 	for(uint8 x = 0; x < 32; x ++){
 8553              		.loc 1 1539 0 is_stmt 0 discriminator 1
 8554 1190 FB7B     		ldrb	r3, [r7, #15]	@ zero_extendqisi2
 8555 1192 1F2B     		cmp	r3, #31
 8556 1194 F3D9     		bls	.L501
 8557              	.LBE209:
1541:printer.c     **** 	}
1542:printer.c     ****     PRINTER_A_PutChar(LINE_FEED);
 8558              		.loc 1 1542 0 is_stmt 1
 8559 1196 414B     		ldr	r3, .L522+4
 8560 1198 1B78     		ldrb	r3, [r3]	@ zero_extendqisi2
 8561 119a 1846     		mov	r0, r3
 8562 119c FFF7FEFF 		bl	PRINTER_A_PutChar
1543:printer.c     ****     PRINTER_A_PutChar(LINE_FEED);
 8563              		.loc 1 1543 0
 8564 11a0 3E4B     		ldr	r3, .L522+4
 8565 11a2 1B78     		ldrb	r3, [r3]	@ zero_extendqisi2
 8566 11a4 1846     		mov	r0, r3
 8567 11a6 FFF7FEFF 		bl	PRINTER_A_PutChar
 8568              	.LBB210:
1544:printer.c     **** 	for(uint8 x = 0; x < 32; x ++){
 8569              		.loc 1 1544 0
 8570 11aa 0023     		movs	r3, #0
 8571 11ac BB73     		strb	r3, [r7, #14]
 8572 11ae 08E0     		b	.L502
 8573              	.L503:
1545:printer.c     **** 		PRINTER_A_PutChar(msn_footer4[x]);
ARM GAS  C:\Users\Diego\AppData\Local\Temp\ccIAJaV8.s 			page 190


 8574              		.loc 1 1545 0 discriminator 3
 8575 11b0 BB7B     		ldrb	r3, [r7, #14]	@ zero_extendqisi2
 8576 11b2 424A     		ldr	r2, .L522+36
 8577 11b4 D35C     		ldrb	r3, [r2, r3]	@ zero_extendqisi2
 8578 11b6 1846     		mov	r0, r3
 8579 11b8 FFF7FEFF 		bl	PRINTER_A_PutChar
1544:printer.c     **** 	for(uint8 x = 0; x < 32; x ++){
 8580              		.loc 1 1544 0 discriminator 3
 8581 11bc BB7B     		ldrb	r3, [r7, #14]	@ zero_extendqisi2
 8582 11be 0133     		adds	r3, r3, #1
 8583 11c0 BB73     		strb	r3, [r7, #14]
 8584              	.L502:
1544:printer.c     **** 	for(uint8 x = 0; x < 32; x ++){
 8585              		.loc 1 1544 0 is_stmt 0 discriminator 1
 8586 11c2 BB7B     		ldrb	r3, [r7, #14]	@ zero_extendqisi2
 8587 11c4 1F2B     		cmp	r3, #31
 8588 11c6 F3D9     		bls	.L503
 8589              	.LBE210:
1546:printer.c     **** 	}
1547:printer.c     **** 	PRINTER_A_PutChar(LINE_FEED);    
 8590              		.loc 1 1547 0 is_stmt 1
 8591 11c8 344B     		ldr	r3, .L522+4
 8592 11ca 1B78     		ldrb	r3, [r3]	@ zero_extendqisi2
 8593 11cc 1846     		mov	r0, r3
 8594 11ce FFF7FEFF 		bl	PRINTER_A_PutChar
 8595              	.LBB211:
1548:printer.c     ****     for(uint8 x = 0; x < 32; x ++){
 8596              		.loc 1 1548 0
 8597 11d2 0023     		movs	r3, #0
 8598 11d4 7B73     		strb	r3, [r7, #13]
 8599 11d6 08E0     		b	.L504
 8600              	.L505:
1549:printer.c     **** 		PRINTER_A_PutChar(SEPARATOR[x]);
 8601              		.loc 1 1549 0 discriminator 3
 8602 11d8 7B7B     		ldrb	r3, [r7, #13]	@ zero_extendqisi2
 8603 11da 364A     		ldr	r2, .L522+28
 8604 11dc D35C     		ldrb	r3, [r2, r3]	@ zero_extendqisi2
 8605 11de 1846     		mov	r0, r3
 8606 11e0 FFF7FEFF 		bl	PRINTER_A_PutChar
1548:printer.c     ****     for(uint8 x = 0; x < 32; x ++){
 8607              		.loc 1 1548 0 discriminator 3
 8608 11e4 7B7B     		ldrb	r3, [r7, #13]	@ zero_extendqisi2
 8609 11e6 0133     		adds	r3, r3, #1
 8610 11e8 7B73     		strb	r3, [r7, #13]
 8611              	.L504:
1548:printer.c     ****     for(uint8 x = 0; x < 32; x ++){
 8612              		.loc 1 1548 0 is_stmt 0 discriminator 1
 8613 11ea 7B7B     		ldrb	r3, [r7, #13]	@ zero_extendqisi2
 8614 11ec 1F2B     		cmp	r3, #31
 8615 11ee F3D9     		bls	.L505
 8616              	.LBE211:
1550:printer.c     **** 	}
1551:printer.c     ****     PRINTER_A_PutChar(LINE_FEED);
 8617              		.loc 1 1551 0 is_stmt 1
 8618 11f0 2A4B     		ldr	r3, .L522+4
 8619 11f2 1B78     		ldrb	r3, [r3]	@ zero_extendqisi2
 8620 11f4 1846     		mov	r0, r3
ARM GAS  C:\Users\Diego\AppData\Local\Temp\ccIAJaV8.s 			page 191


 8621 11f6 FFF7FEFF 		bl	PRINTER_A_PutChar
 8622              	.LBB212:
1552:printer.c     **** 	for(uint8 x = 0; x < 32; x ++){
 8623              		.loc 1 1552 0
 8624 11fa 0023     		movs	r3, #0
 8625 11fc 3B73     		strb	r3, [r7, #12]
 8626 11fe 08E0     		b	.L506
 8627              	.L507:
1553:printer.c     **** 		PRINTER_A_PutChar(msn_footer[x]);
 8628              		.loc 1 1553 0 discriminator 3
 8629 1200 3B7B     		ldrb	r3, [r7, #12]	@ zero_extendqisi2
 8630 1202 2F4A     		ldr	r2, .L522+40
 8631 1204 D35C     		ldrb	r3, [r2, r3]	@ zero_extendqisi2
 8632 1206 1846     		mov	r0, r3
 8633 1208 FFF7FEFF 		bl	PRINTER_A_PutChar
1552:printer.c     **** 	for(uint8 x = 0; x < 32; x ++){
 8634              		.loc 1 1552 0 discriminator 3
 8635 120c 3B7B     		ldrb	r3, [r7, #12]	@ zero_extendqisi2
 8636 120e 0133     		adds	r3, r3, #1
 8637 1210 3B73     		strb	r3, [r7, #12]
 8638              	.L506:
1552:printer.c     **** 	for(uint8 x = 0; x < 32; x ++){
 8639              		.loc 1 1552 0 is_stmt 0 discriminator 1
 8640 1212 3B7B     		ldrb	r3, [r7, #12]	@ zero_extendqisi2
 8641 1214 1F2B     		cmp	r3, #31
 8642 1216 F3D9     		bls	.L507
 8643              	.LBE212:
1554:printer.c     **** 	}
1555:printer.c     **** 	PRINTER_A_PutChar(LINE_FEED);
 8644              		.loc 1 1555 0 is_stmt 1
 8645 1218 204B     		ldr	r3, .L522+4
 8646 121a 1B78     		ldrb	r3, [r3]	@ zero_extendqisi2
 8647 121c 1846     		mov	r0, r3
 8648 121e FFF7FEFF 		bl	PRINTER_A_PutChar
 8649              	.LBB213:
1556:printer.c     **** 	for(uint8 x = 0; x < 32; x ++){
 8650              		.loc 1 1556 0
 8651 1222 0023     		movs	r3, #0
 8652 1224 FB72     		strb	r3, [r7, #11]
 8653 1226 08E0     		b	.L508
 8654              	.L509:
1557:printer.c     **** 		PRINTER_A_PutChar(msn_footer2[x]);
 8655              		.loc 1 1557 0 discriminator 3
 8656 1228 FB7A     		ldrb	r3, [r7, #11]	@ zero_extendqisi2
 8657 122a 264A     		ldr	r2, .L522+44
 8658 122c D35C     		ldrb	r3, [r2, r3]	@ zero_extendqisi2
 8659 122e 1846     		mov	r0, r3
 8660 1230 FFF7FEFF 		bl	PRINTER_A_PutChar
1556:printer.c     **** 	for(uint8 x = 0; x < 32; x ++){
 8661              		.loc 1 1556 0 discriminator 3
 8662 1234 FB7A     		ldrb	r3, [r7, #11]	@ zero_extendqisi2
 8663 1236 0133     		adds	r3, r3, #1
 8664 1238 FB72     		strb	r3, [r7, #11]
 8665              	.L508:
1556:printer.c     **** 	for(uint8 x = 0; x < 32; x ++){
 8666              		.loc 1 1556 0 is_stmt 0 discriminator 1
 8667 123a FB7A     		ldrb	r3, [r7, #11]	@ zero_extendqisi2
ARM GAS  C:\Users\Diego\AppData\Local\Temp\ccIAJaV8.s 			page 192


 8668 123c 1F2B     		cmp	r3, #31
 8669 123e F3D9     		bls	.L509
 8670              	.LBE213:
1558:printer.c     **** 	}    
1559:printer.c     ****     PRINTER_A_PutChar(LINE_FEED);
 8671              		.loc 1 1559 0 is_stmt 1
 8672 1240 164B     		ldr	r3, .L522+4
 8673 1242 1B78     		ldrb	r3, [r3]	@ zero_extendqisi2
 8674 1244 1846     		mov	r0, r3
 8675 1246 FFF7FEFF 		bl	PRINTER_A_PutChar
1560:printer.c     ****     PRINTER_A_PutChar(LINE_FEED);
 8676              		.loc 1 1560 0
 8677 124a 144B     		ldr	r3, .L522+4
 8678 124c 1B78     		ldrb	r3, [r3]	@ zero_extendqisi2
 8679 124e 1846     		mov	r0, r3
 8680 1250 FFF7FEFF 		bl	PRINTER_A_PutChar
1561:printer.c     ****     PRINTER_A_PutChar(LINE_FEED);
 8681              		.loc 1 1561 0
 8682 1254 114B     		ldr	r3, .L522+4
 8683 1256 1B78     		ldrb	r3, [r3]	@ zero_extendqisi2
 8684 1258 1846     		mov	r0, r3
 8685 125a FFF7FEFF 		bl	PRINTER_A_PutChar
1562:printer.c     ****     PRINTER_A_PutChar(LINE_FEED);
 8686              		.loc 1 1562 0
 8687 125e 0F4B     		ldr	r3, .L522+4
 8688 1260 1B78     		ldrb	r3, [r3]	@ zero_extendqisi2
 8689 1262 1846     		mov	r0, r3
 8690 1264 FFF7FEFF 		bl	PRINTER_A_PutChar
1563:printer.c     ****     PRINTER_A_PutChar(LINE_FEED);
 8691              		.loc 1 1563 0
 8692 1268 0C4B     		ldr	r3, .L522+4
 8693 126a 1B78     		ldrb	r3, [r3]	@ zero_extendqisi2
 8694 126c 1846     		mov	r0, r3
 8695 126e FFF7FEFF 		bl	PRINTER_A_PutChar
 8696              	.LBB214:
1564:printer.c     ****     for(uint8 x = 0; x < 6; x ++){
 8697              		.loc 1 1564 0
 8698 1272 0023     		movs	r3, #0
 8699 1274 BB72     		strb	r3, [r7, #10]
 8700 1276 08E0     		b	.L510
 8701              	.L511:
1565:printer.c     ****         sale_number_copy[x] = sale_number[x];
 8702              		.loc 1 1565 0 discriminator 3
 8703 1278 BB7A     		ldrb	r3, [r7, #10]	@ zero_extendqisi2
 8704 127a BA7A     		ldrb	r2, [r7, #10]	@ zero_extendqisi2
 8705 127c 1249     		ldr	r1, .L522+48
 8706 127e 895C     		ldrb	r1, [r1, r2]	@ zero_extendqisi2
 8707 1280 124A     		ldr	r2, .L522+52
 8708 1282 D154     		strb	r1, [r2, r3]
1564:printer.c     ****     for(uint8 x = 0; x < 6; x ++){
 8709              		.loc 1 1564 0 discriminator 3
 8710 1284 BB7A     		ldrb	r3, [r7, #10]	@ zero_extendqisi2
 8711 1286 0133     		adds	r3, r3, #1
 8712 1288 BB72     		strb	r3, [r7, #10]
 8713              	.L510:
1564:printer.c     ****     for(uint8 x = 0; x < 6; x ++){
 8714              		.loc 1 1564 0 is_stmt 0 discriminator 1
ARM GAS  C:\Users\Diego\AppData\Local\Temp\ccIAJaV8.s 			page 193


 8715 128a BB7A     		ldrb	r3, [r7, #10]	@ zero_extendqisi2
 8716 128c 052B     		cmp	r3, #5
 8717 128e F3D9     		bls	.L511
 8718              	.LBE214:
1566:printer.c     ****     }
1567:printer.c     **** }
 8719              		.loc 1 1567 0 is_stmt 1
 8720 1290 00BF     		nop
 8721 1292 5437     		adds	r7, r7, #84
 8722              		.cfi_def_cfa_offset 12
 8723 1294 BD46     		mov	sp, r7
 8724              		.cfi_def_cfa_register 13
 8725              		@ sp needed
 8726 1296 90BD     		pop	{r4, r7, pc}
 8727              	.L523:
 8728              		.align	2
 8729              	.L522:
 8730 1298 00000000 		.word	msn_POS14
 8731 129c 00000000 		.word	LINE_FEED
 8732 12a0 00000000 		.word	msn_POS15
 8733 12a4 00000000 		.word	msn_POS16
 8734 12a8 00000000 		.word	msn_POS17
 8735 12ac 00000000 		.word	msn_POS18
 8736 12b0 00000000 		.word	msn_POS19
 8737 12b4 00000000 		.word	SEPARATOR
 8738 12b8 00000000 		.word	msn_footer3
 8739 12bc 00000000 		.word	msn_footer4
 8740 12c0 00000000 		.word	msn_footer
 8741 12c4 00000000 		.word	msn_footer2
 8742 12c8 00000000 		.word	sale_number
 8743 12cc 00000000 		.word	sale_number_copy
 8744              		.cfi_endproc
 8745              	.LFE66:
 8746              		.size	PrintPOS, .-PrintPOS
 8747              		.text
 8748              	.Letext0:
 8749              		.file 2 "c:\\program files (x86)\\cypress\\psoc creator\\4.2\\psoc creator\\import\\gnu\\arm\\5.4.
 8750              		.file 3 "c:\\program files (x86)\\cypress\\psoc creator\\4.2\\psoc creator\\import\\gnu\\arm\\5.4.
 8751              		.file 4 "Generated_Source\\PSoC5/cytypes.h"
 8752              		.file 5 "./GVar.h"
 8753              		.file 6 "Generated_Source\\PSoC5/core_cm3.h"
 8754              		.section	.debug_info,"",%progbits
 8755              	.Ldebug_info0:
 8756 0000 FA210000 		.4byte	0x21fa
 8757 0004 0400     		.2byte	0x4
 8758 0006 00000000 		.4byte	.Ldebug_abbrev0
 8759 000a 04       		.byte	0x4
 8760 000b 01       		.uleb128 0x1
 8761 000c 62000000 		.4byte	.LASF150
 8762 0010 0C       		.byte	0xc
 8763 0011 0B060000 		.4byte	.LASF151
 8764 0015 7D040000 		.4byte	.LASF152
 8765 0019 00000000 		.4byte	.Ldebug_ranges0+0
 8766 001d 00000000 		.4byte	0
 8767 0021 00000000 		.4byte	.Ldebug_line0
 8768 0025 02       		.uleb128 0x2
 8769 0026 01       		.byte	0x1
ARM GAS  C:\Users\Diego\AppData\Local\Temp\ccIAJaV8.s 			page 194


 8770 0027 06       		.byte	0x6
 8771 0028 3F060000 		.4byte	.LASF0
 8772 002c 02       		.uleb128 0x2
 8773 002d 01       		.byte	0x1
 8774 002e 08       		.byte	0x8
 8775 002f A9050000 		.4byte	.LASF1
 8776 0033 02       		.uleb128 0x2
 8777 0034 02       		.byte	0x2
 8778 0035 05       		.byte	0x5
 8779 0036 12040000 		.4byte	.LASF2
 8780 003a 02       		.uleb128 0x2
 8781 003b 02       		.byte	0x2
 8782 003c 07       		.byte	0x7
 8783 003d 55060000 		.4byte	.LASF3
 8784 0041 03       		.uleb128 0x3
 8785 0042 51000000 		.4byte	.LASF9
 8786 0046 02       		.byte	0x2
 8787 0047 3F       		.byte	0x3f
 8788 0048 4C000000 		.4byte	0x4c
 8789 004c 02       		.uleb128 0x2
 8790 004d 04       		.byte	0x4
 8791 004e 05       		.byte	0x5
 8792 004f 23040000 		.4byte	.LASF4
 8793 0053 02       		.uleb128 0x2
 8794 0054 04       		.byte	0x4
 8795 0055 07       		.byte	0x7
 8796 0056 4D050000 		.4byte	.LASF5
 8797 005a 02       		.uleb128 0x2
 8798 005b 08       		.byte	0x8
 8799 005c 05       		.byte	0x5
 8800 005d 2D030000 		.4byte	.LASF6
 8801 0061 02       		.uleb128 0x2
 8802 0062 08       		.byte	0x8
 8803 0063 07       		.byte	0x7
 8804 0064 B4010000 		.4byte	.LASF7
 8805 0068 04       		.uleb128 0x4
 8806 0069 04       		.byte	0x4
 8807 006a 05       		.byte	0x5
 8808 006b 696E7400 		.ascii	"int\000"
 8809 006f 02       		.uleb128 0x2
 8810 0070 04       		.byte	0x4
 8811 0071 07       		.byte	0x7
 8812 0072 2F000000 		.4byte	.LASF8
 8813 0076 03       		.uleb128 0x3
 8814 0077 67050000 		.4byte	.LASF10
 8815 007b 03       		.byte	0x3
 8816 007c 2C       		.byte	0x2c
 8817 007d 41000000 		.4byte	0x41
 8818 0081 05       		.uleb128 0x5
 8819 0082 BD060000 		.4byte	.LASF11
 8820 0086 04       		.byte	0x4
 8821 0087 E401     		.2byte	0x1e4
 8822 0089 2C000000 		.4byte	0x2c
 8823 008d 05       		.uleb128 0x5
 8824 008e EF020000 		.4byte	.LASF12
 8825 0092 04       		.byte	0x4
 8826 0093 E501     		.2byte	0x1e5
ARM GAS  C:\Users\Diego\AppData\Local\Temp\ccIAJaV8.s 			page 195


 8827 0095 3A000000 		.4byte	0x3a
 8828 0099 05       		.uleb128 0x5
 8829 009a F6020000 		.4byte	.LASF13
 8830 009e 04       		.byte	0x4
 8831 009f E701     		.2byte	0x1e7
 8832 00a1 25000000 		.4byte	0x25
 8833 00a5 02       		.uleb128 0x2
 8834 00a6 04       		.byte	0x4
 8835 00a7 04       		.byte	0x4
 8836 00a8 79010000 		.4byte	.LASF14
 8837 00ac 02       		.uleb128 0x2
 8838 00ad 08       		.byte	0x8
 8839 00ae 04       		.byte	0x4
 8840 00af C3060000 		.4byte	.LASF15
 8841 00b3 05       		.uleb128 0x5
 8842 00b4 06030000 		.4byte	.LASF16
 8843 00b8 04       		.byte	0x4
 8844 00b9 F501     		.2byte	0x1f5
 8845 00bb BF000000 		.4byte	0xbf
 8846 00bf 02       		.uleb128 0x2
 8847 00c0 01       		.byte	0x1
 8848 00c1 08       		.byte	0x8
 8849 00c2 CB020000 		.4byte	.LASF17
 8850 00c6 02       		.uleb128 0x2
 8851 00c7 08       		.byte	0x8
 8852 00c8 04       		.byte	0x4
 8853 00c9 AE030000 		.4byte	.LASF18
 8854 00cd 02       		.uleb128 0x2
 8855 00ce 04       		.byte	0x4
 8856 00cf 07       		.byte	0x7
 8857 00d0 26050000 		.4byte	.LASF19
 8858 00d4 06       		.uleb128 0x6
 8859 00d5 F3060000 		.4byte	.LASF36
 8860 00d9 3501     		.2byte	0x135
 8861 00db 05       		.byte	0x5
 8862 00dc 25       		.byte	0x25
 8863 00dd C0010000 		.4byte	0x1c0
 8864 00e1 07       		.uleb128 0x7
 8865 00e2 64697200 		.ascii	"dir\000"
 8866 00e6 05       		.byte	0x5
 8867 00e7 26       		.byte	0x26
 8868 00e8 81000000 		.4byte	0x81
 8869 00ec 00       		.byte	0
 8870 00ed 08       		.uleb128 0x8
 8871 00ee B8040000 		.4byte	.LASF20
 8872 00f2 05       		.byte	0x5
 8873 00f3 27       		.byte	0x27
 8874 00f4 C0010000 		.4byte	0x1c0
 8875 00f8 01       		.byte	0x1
 8876 00f9 08       		.uleb128 0x8
 8877 00fa 59030000 		.4byte	.LASF21
 8878 00fe 05       		.byte	0x5
 8879 00ff 28       		.byte	0x28
 8880 0100 DC010000 		.4byte	0x1dc
 8881 0104 29       		.byte	0x29
 8882 0105 08       		.uleb128 0x8
 8883 0106 23030000 		.4byte	.LASF22
ARM GAS  C:\Users\Diego\AppData\Local\Temp\ccIAJaV8.s 			page 196


 8884 010a 05       		.byte	0x5
 8885 010b 29       		.byte	0x29
 8886 010c F2010000 		.4byte	0x1f2
 8887 0110 35       		.byte	0x35
 8888 0111 08       		.uleb128 0x8
 8889 0112 1E060000 		.4byte	.LASF23
 8890 0116 05       		.byte	0x5
 8891 0117 2A       		.byte	0x2a
 8892 0118 F2010000 		.4byte	0x1f2
 8893 011c 39       		.byte	0x39
 8894 011d 08       		.uleb128 0x8
 8895 011e 45030000 		.4byte	.LASF24
 8896 0122 05       		.byte	0x5
 8897 0123 2B       		.byte	0x2b
 8898 0124 02020000 		.4byte	0x202
 8899 0128 3D       		.byte	0x3d
 8900 0129 08       		.uleb128 0x8
 8901 012a 84060000 		.4byte	.LASF25
 8902 012e 05       		.byte	0x5
 8903 012f 2C       		.byte	0x2c
 8904 0130 81000000 		.4byte	0x81
 8905 0134 4B       		.byte	0x4b
 8906 0135 08       		.uleb128 0x8
 8907 0136 C4020000 		.4byte	.LASF26
 8908 013a 05       		.byte	0x5
 8909 013b 2D       		.byte	0x2d
 8910 013c 12020000 		.4byte	0x212
 8911 0140 4C       		.byte	0x4c
 8912 0141 08       		.uleb128 0x8
 8913 0142 95030000 		.4byte	.LASF27
 8914 0146 05       		.byte	0x5
 8915 0147 2E       		.byte	0x2e
 8916 0148 22020000 		.4byte	0x222
 8917 014c 51       		.byte	0x51
 8918 014d 08       		.uleb128 0x8
 8919 014e 39040000 		.4byte	.LASF28
 8920 0152 05       		.byte	0x5
 8921 0153 2F       		.byte	0x2f
 8922 0154 32020000 		.4byte	0x232
 8923 0158 83       		.byte	0x83
 8924 0159 08       		.uleb128 0x8
 8925 015a 9C020000 		.4byte	.LASF29
 8926 015e 05       		.byte	0x5
 8927 015f 30       		.byte	0x30
 8928 0160 4E020000 		.4byte	0x24e
 8929 0164 FB       		.byte	0xfb
 8930 0165 09       		.uleb128 0x9
 8931 0166 19010000 		.4byte	.LASF30
 8932 016a 05       		.byte	0x5
 8933 016b 31       		.byte	0x31
 8934 016c 4E020000 		.4byte	0x24e
 8935 0170 0301     		.2byte	0x103
 8936 0172 09       		.uleb128 0x9
 8937 0173 49010000 		.4byte	.LASF31
 8938 0177 05       		.byte	0x5
 8939 0178 32       		.byte	0x32
 8940 0179 5E020000 		.4byte	0x25e
ARM GAS  C:\Users\Diego\AppData\Local\Temp\ccIAJaV8.s 			page 197


 8941 017d 0B01     		.2byte	0x10b
 8942 017f 09       		.uleb128 0x9
 8943 0180 4D020000 		.4byte	.LASF32
 8944 0184 05       		.byte	0x5
 8945 0185 33       		.byte	0x33
 8946 0186 4E020000 		.4byte	0x24e
 8947 018a 2301     		.2byte	0x123
 8948 018c 09       		.uleb128 0x9
 8949 018d EF050000 		.4byte	.LASF33
 8950 0191 05       		.byte	0x5
 8951 0192 34       		.byte	0x34
 8952 0193 81000000 		.4byte	0x81
 8953 0197 2B01     		.2byte	0x12b
 8954 0199 09       		.uleb128 0x9
 8955 019a 0D000000 		.4byte	.LASF34
 8956 019e 05       		.byte	0x5
 8957 019f 35       		.byte	0x35
 8958 01a0 81000000 		.4byte	0x81
 8959 01a4 2C01     		.2byte	0x12c
 8960 01a6 0A       		.uleb128 0xa
 8961 01a7 6B6D00   		.ascii	"km\000"
 8962 01aa 05       		.byte	0x5
 8963 01ab 36       		.byte	0x36
 8964 01ac 74020000 		.4byte	0x274
 8965 01b0 2D01     		.2byte	0x12d
 8966 01b2 09       		.uleb128 0x9
 8967 01b3 5E040000 		.4byte	.LASF35
 8968 01b7 05       		.byte	0x5
 8969 01b8 37       		.byte	0x37
 8970 01b9 81000000 		.4byte	0x81
 8971 01bd 3401     		.2byte	0x134
 8972 01bf 00       		.byte	0
 8973 01c0 0B       		.uleb128 0xb
 8974 01c1 81000000 		.4byte	0x81
 8975 01c5 DC010000 		.4byte	0x1dc
 8976 01c9 0C       		.uleb128 0xc
 8977 01ca CD000000 		.4byte	0xcd
 8978 01ce 03       		.byte	0x3
 8979 01cf 0C       		.uleb128 0xc
 8980 01d0 CD000000 		.4byte	0xcd
 8981 01d4 01       		.byte	0x1
 8982 01d5 0C       		.uleb128 0xc
 8983 01d6 CD000000 		.4byte	0xcd
 8984 01da 04       		.byte	0x4
 8985 01db 00       		.byte	0
 8986 01dc 0B       		.uleb128 0xb
 8987 01dd 81000000 		.4byte	0x81
 8988 01e1 F2010000 		.4byte	0x1f2
 8989 01e5 0C       		.uleb128 0xc
 8990 01e6 CD000000 		.4byte	0xcd
 8991 01ea 03       		.byte	0x3
 8992 01eb 0C       		.uleb128 0xc
 8993 01ec CD000000 		.4byte	0xcd
 8994 01f0 02       		.byte	0x2
 8995 01f1 00       		.byte	0
 8996 01f2 0B       		.uleb128 0xb
 8997 01f3 81000000 		.4byte	0x81
ARM GAS  C:\Users\Diego\AppData\Local\Temp\ccIAJaV8.s 			page 198


 8998 01f7 02020000 		.4byte	0x202
 8999 01fb 0C       		.uleb128 0xc
 9000 01fc CD000000 		.4byte	0xcd
 9001 0200 03       		.byte	0x3
 9002 0201 00       		.byte	0
 9003 0202 0B       		.uleb128 0xb
 9004 0203 81000000 		.4byte	0x81
 9005 0207 12020000 		.4byte	0x212
 9006 020b 0C       		.uleb128 0xc
 9007 020c CD000000 		.4byte	0xcd
 9008 0210 0D       		.byte	0xd
 9009 0211 00       		.byte	0
 9010 0212 0B       		.uleb128 0xb
 9011 0213 81000000 		.4byte	0x81
 9012 0217 22020000 		.4byte	0x222
 9013 021b 0C       		.uleb128 0xc
 9014 021c CD000000 		.4byte	0xcd
 9015 0220 04       		.byte	0x4
 9016 0221 00       		.byte	0
 9017 0222 0B       		.uleb128 0xb
 9018 0223 81000000 		.4byte	0x81
 9019 0227 32020000 		.4byte	0x232
 9020 022b 0C       		.uleb128 0xc
 9021 022c CD000000 		.4byte	0xcd
 9022 0230 31       		.byte	0x31
 9023 0231 00       		.byte	0
 9024 0232 0B       		.uleb128 0xb
 9025 0233 B3000000 		.4byte	0xb3
 9026 0237 4E020000 		.4byte	0x24e
 9027 023b 0C       		.uleb128 0xc
 9028 023c CD000000 		.4byte	0xcd
 9029 0240 03       		.byte	0x3
 9030 0241 0C       		.uleb128 0xc
 9031 0242 CD000000 		.4byte	0xcd
 9032 0246 02       		.byte	0x2
 9033 0247 0C       		.uleb128 0xc
 9034 0248 CD000000 		.4byte	0xcd
 9035 024c 09       		.byte	0x9
 9036 024d 00       		.byte	0
 9037 024e 0B       		.uleb128 0xb
 9038 024f 81000000 		.4byte	0x81
 9039 0253 5E020000 		.4byte	0x25e
 9040 0257 0C       		.uleb128 0xc
 9041 0258 CD000000 		.4byte	0xcd
 9042 025c 07       		.byte	0x7
 9043 025d 00       		.byte	0
 9044 025e 0B       		.uleb128 0xb
 9045 025f 81000000 		.4byte	0x81
 9046 0263 74020000 		.4byte	0x274
 9047 0267 0C       		.uleb128 0xc
 9048 0268 CD000000 		.4byte	0xcd
 9049 026c 03       		.byte	0x3
 9050 026d 0C       		.uleb128 0xc
 9051 026e CD000000 		.4byte	0xcd
 9052 0272 05       		.byte	0x5
 9053 0273 00       		.byte	0
 9054 0274 0B       		.uleb128 0xb
ARM GAS  C:\Users\Diego\AppData\Local\Temp\ccIAJaV8.s 			page 199


 9055 0275 81000000 		.4byte	0x81
 9056 0279 84020000 		.4byte	0x284
 9057 027d 0C       		.uleb128 0xc
 9058 027e CD000000 		.4byte	0xcd
 9059 0282 06       		.byte	0x6
 9060 0283 00       		.byte	0
 9061 0284 06       		.uleb128 0x6
 9062 0285 FA050000 		.4byte	.LASF37
 9063 0289 D404     		.2byte	0x4d4
 9064 028b 05       		.byte	0x5
 9065 028c 3A       		.byte	0x3a
 9066 028d BD020000 		.4byte	0x2bd
 9067 0291 07       		.uleb128 0x7
 9068 0292 6100     		.ascii	"a\000"
 9069 0294 05       		.byte	0x5
 9070 0295 3B       		.byte	0x3b
 9071 0296 D4000000 		.4byte	0xd4
 9072 029a 00       		.byte	0
 9073 029b 0A       		.uleb128 0xa
 9074 029c 6200     		.ascii	"b\000"
 9075 029e 05       		.byte	0x5
 9076 029f 3C       		.byte	0x3c
 9077 02a0 D4000000 		.4byte	0xd4
 9078 02a4 3501     		.2byte	0x135
 9079 02a6 0A       		.uleb128 0xa
 9080 02a7 6300     		.ascii	"c\000"
 9081 02a9 05       		.byte	0x5
 9082 02aa 3D       		.byte	0x3d
 9083 02ab D4000000 		.4byte	0xd4
 9084 02af 6A02     		.2byte	0x26a
 9085 02b1 0A       		.uleb128 0xa
 9086 02b2 6400     		.ascii	"d\000"
 9087 02b4 05       		.byte	0x5
 9088 02b5 3E       		.byte	0x3e
 9089 02b6 D4000000 		.4byte	0xd4
 9090 02ba 9F03     		.2byte	0x39f
 9091 02bc 00       		.byte	0
 9092 02bd 0D       		.uleb128 0xd
 9093 02be 79050000 		.4byte	.LASF41
 9094 02c2 01       		.byte	0x1
 9095 02c3 67       		.byte	0x67
 9096 02c4 00000000 		.4byte	.LFB64
 9097 02c8 70140000 		.4byte	.LFE64-.LFB64
 9098 02cc 01       		.uleb128 0x1
 9099 02cd 9C       		.byte	0x9c
 9100 02ce 320A0000 		.4byte	0xa32
 9101 02d2 0E       		.uleb128 0xe
 9102 02d3 5F050000 		.4byte	.LASF51
 9103 02d7 01       		.byte	0x1
 9104 02d8 67       		.byte	0x67
 9105 02d9 81000000 		.4byte	0x81
 9106 02dd 03       		.uleb128 0x3
 9107 02de 91       		.byte	0x91
 9108 02df A77F     		.sleb128 -89
 9109 02e1 0F       		.uleb128 0xf
 9110 02e2 86050000 		.4byte	.LASF38
 9111 02e6 01       		.byte	0x1
ARM GAS  C:\Users\Diego\AppData\Local\Temp\ccIAJaV8.s 			page 200


 9112 02e7 68       		.byte	0x68
 9113 02e8 99000000 		.4byte	0x99
 9114 02ec 02       		.uleb128 0x2
 9115 02ed 91       		.byte	0x91
 9116 02ee 6F       		.sleb128 -17
 9117 02ef 0F       		.uleb128 0xf
 9118 02f0 3C000000 		.4byte	.LASF39
 9119 02f4 01       		.byte	0x1
 9120 02f5 68       		.byte	0x68
 9121 02f6 99000000 		.4byte	0x99
 9122 02fa 03       		.uleb128 0x3
 9123 02fb 91       		.byte	0x91
 9124 02fc AA7F     		.sleb128 -86
 9125 02fe 10       		.uleb128 0x10
 9126 02ff 62010000 		.4byte	.LBB2
 9127 0303 30000000 		.4byte	.LBE2-.LBB2
 9128 0307 18030000 		.4byte	0x318
 9129 030b 11       		.uleb128 0x11
 9130 030c 6900     		.ascii	"i\000"
 9131 030e 01       		.byte	0x1
 9132 030f 6F       		.byte	0x6f
 9133 0310 81000000 		.4byte	0x81
 9134 0314 02       		.uleb128 0x2
 9135 0315 91       		.byte	0x91
 9136 0316 6E       		.sleb128 -18
 9137 0317 00       		.byte	0
 9138 0318 10       		.uleb128 0x10
 9139 0319 94010000 		.4byte	.LBB3
 9140 031d 28000000 		.4byte	.LBE3-.LBB3
 9141 0321 34030000 		.4byte	0x334
 9142 0325 0F       		.uleb128 0xf
 9143 0326 16020000 		.4byte	.LASF40
 9144 032a 01       		.byte	0x1
 9145 032b 73       		.byte	0x73
 9146 032c 81000000 		.4byte	0x81
 9147 0330 02       		.uleb128 0x2
 9148 0331 91       		.byte	0x91
 9149 0332 6D       		.sleb128 -19
 9150 0333 00       		.byte	0
 9151 0334 10       		.uleb128 0x10
 9152 0335 DC010000 		.4byte	.LBB4
 9153 0339 2E000000 		.4byte	.LBE4-.LBB4
 9154 033d 50030000 		.4byte	0x350
 9155 0341 0F       		.uleb128 0xf
 9156 0342 16020000 		.4byte	.LASF40
 9157 0346 01       		.byte	0x1
 9158 0347 7A       		.byte	0x7a
 9159 0348 81000000 		.4byte	0x81
 9160 034c 02       		.uleb128 0x2
 9161 034d 91       		.byte	0x91
 9162 034e 6C       		.sleb128 -20
 9163 034f 00       		.byte	0
 9164 0350 10       		.uleb128 0x10
 9165 0351 28020000 		.4byte	.LBB5
 9166 0355 28000000 		.4byte	.LBE5-.LBB5
 9167 0359 6C030000 		.4byte	0x36c
 9168 035d 0F       		.uleb128 0xf
ARM GAS  C:\Users\Diego\AppData\Local\Temp\ccIAJaV8.s 			page 201


 9169 035e 16020000 		.4byte	.LASF40
 9170 0362 01       		.byte	0x1
 9171 0363 81       		.byte	0x81
 9172 0364 81000000 		.4byte	0x81
 9173 0368 02       		.uleb128 0x2
 9174 0369 91       		.byte	0x91
 9175 036a 6B       		.sleb128 -21
 9176 036b 00       		.byte	0
 9177 036c 10       		.uleb128 0x10
 9178 036d 68020000 		.4byte	.LBB6
 9179 0371 2E000000 		.4byte	.LBE6-.LBB6
 9180 0375 88030000 		.4byte	0x388
 9181 0379 0F       		.uleb128 0xf
 9182 037a 16020000 		.4byte	.LASF40
 9183 037e 01       		.byte	0x1
 9184 037f 87       		.byte	0x87
 9185 0380 81000000 		.4byte	0x81
 9186 0384 02       		.uleb128 0x2
 9187 0385 91       		.byte	0x91
 9188 0386 6A       		.sleb128 -22
 9189 0387 00       		.byte	0
 9190 0388 10       		.uleb128 0x10
 9191 0389 AC020000 		.4byte	.LBB7
 9192 038d 28000000 		.4byte	.LBE7-.LBB7
 9193 0391 A2030000 		.4byte	0x3a2
 9194 0395 11       		.uleb128 0x11
 9195 0396 7800     		.ascii	"x\000"
 9196 0398 01       		.byte	0x1
 9197 0399 8D       		.byte	0x8d
 9198 039a 81000000 		.4byte	0x81
 9199 039e 02       		.uleb128 0x2
 9200 039f 91       		.byte	0x91
 9201 03a0 69       		.sleb128 -23
 9202 03a1 00       		.byte	0
 9203 03a2 10       		.uleb128 0x10
 9204 03a3 DE020000 		.4byte	.LBB8
 9205 03a7 28000000 		.4byte	.LBE8-.LBB8
 9206 03ab BC030000 		.4byte	0x3bc
 9207 03af 11       		.uleb128 0x11
 9208 03b0 7800     		.ascii	"x\000"
 9209 03b2 01       		.byte	0x1
 9210 03b3 91       		.byte	0x91
 9211 03b4 81000000 		.4byte	0x81
 9212 03b8 02       		.uleb128 0x2
 9213 03b9 91       		.byte	0x91
 9214 03ba 68       		.sleb128 -24
 9215 03bb 00       		.byte	0
 9216 03bc 10       		.uleb128 0x10
 9217 03bd 10030000 		.4byte	.LBB9
 9218 03c1 54000000 		.4byte	.LBE9-.LBB9
 9219 03c5 D6030000 		.4byte	0x3d6
 9220 03c9 11       		.uleb128 0x11
 9221 03ca 7800     		.ascii	"x\000"
 9222 03cc 01       		.byte	0x1
 9223 03cd 99       		.byte	0x99
 9224 03ce 81000000 		.4byte	0x81
 9225 03d2 02       		.uleb128 0x2
ARM GAS  C:\Users\Diego\AppData\Local\Temp\ccIAJaV8.s 			page 202


 9226 03d3 91       		.byte	0x91
 9227 03d4 67       		.sleb128 -25
 9228 03d5 00       		.byte	0
 9229 03d6 10       		.uleb128 0x10
 9230 03d7 6E030000 		.4byte	.LBB10
 9231 03db 28000000 		.4byte	.LBE10-.LBB10
 9232 03df F0030000 		.4byte	0x3f0
 9233 03e3 11       		.uleb128 0x11
 9234 03e4 7800     		.ascii	"x\000"
 9235 03e6 01       		.byte	0x1
 9236 03e7 9D       		.byte	0x9d
 9237 03e8 81000000 		.4byte	0x81
 9238 03ec 02       		.uleb128 0x2
 9239 03ed 91       		.byte	0x91
 9240 03ee 66       		.sleb128 -26
 9241 03ef 00       		.byte	0
 9242 03f0 10       		.uleb128 0x10
 9243 03f1 A0030000 		.4byte	.LBB11
 9244 03f5 28000000 		.4byte	.LBE11-.LBB11
 9245 03f9 0A040000 		.4byte	0x40a
 9246 03fd 11       		.uleb128 0x11
 9247 03fe 7800     		.ascii	"x\000"
 9248 0400 01       		.byte	0x1
 9249 0401 A1       		.byte	0xa1
 9250 0402 81000000 		.4byte	0x81
 9251 0406 02       		.uleb128 0x2
 9252 0407 91       		.byte	0x91
 9253 0408 65       		.sleb128 -27
 9254 0409 00       		.byte	0
 9255 040a 10       		.uleb128 0x10
 9256 040b D2030000 		.4byte	.LBB12
 9257 040f 28000000 		.4byte	.LBE12-.LBB12
 9258 0413 24040000 		.4byte	0x424
 9259 0417 11       		.uleb128 0x11
 9260 0418 7800     		.ascii	"x\000"
 9261 041a 01       		.byte	0x1
 9262 041b A5       		.byte	0xa5
 9263 041c 81000000 		.4byte	0x81
 9264 0420 02       		.uleb128 0x2
 9265 0421 91       		.byte	0x91
 9266 0422 64       		.sleb128 -28
 9267 0423 00       		.byte	0
 9268 0424 10       		.uleb128 0x10
 9269 0425 04040000 		.4byte	.LBB13
 9270 0429 28000000 		.4byte	.LBE13-.LBB13
 9271 042d 3E040000 		.4byte	0x43e
 9272 0431 11       		.uleb128 0x11
 9273 0432 7800     		.ascii	"x\000"
 9274 0434 01       		.byte	0x1
 9275 0435 A9       		.byte	0xa9
 9276 0436 81000000 		.4byte	0x81
 9277 043a 02       		.uleb128 0x2
 9278 043b 91       		.byte	0x91
 9279 043c 63       		.sleb128 -29
 9280 043d 00       		.byte	0
 9281 043e 10       		.uleb128 0x10
 9282 043f 36040000 		.4byte	.LBB14
ARM GAS  C:\Users\Diego\AppData\Local\Temp\ccIAJaV8.s 			page 203


 9283 0443 28000000 		.4byte	.LBE14-.LBB14
 9284 0447 58040000 		.4byte	0x458
 9285 044b 11       		.uleb128 0x11
 9286 044c 7800     		.ascii	"x\000"
 9287 044e 01       		.byte	0x1
 9288 044f AE       		.byte	0xae
 9289 0450 81000000 		.4byte	0x81
 9290 0454 02       		.uleb128 0x2
 9291 0455 91       		.byte	0x91
 9292 0456 62       		.sleb128 -30
 9293 0457 00       		.byte	0
 9294 0458 10       		.uleb128 0x10
 9295 0459 94050000 		.4byte	.LBB15
 9296 045d 28000000 		.4byte	.LBE15-.LBB15
 9297 0461 72040000 		.4byte	0x472
 9298 0465 11       		.uleb128 0x11
 9299 0466 7800     		.ascii	"x\000"
 9300 0468 01       		.byte	0x1
 9301 0469 D3       		.byte	0xd3
 9302 046a 81000000 		.4byte	0x81
 9303 046e 02       		.uleb128 0x2
 9304 046f 91       		.byte	0x91
 9305 0470 61       		.sleb128 -31
 9306 0471 00       		.byte	0
 9307 0472 10       		.uleb128 0x10
 9308 0473 0E060000 		.4byte	.LBB16
 9309 0477 5A000000 		.4byte	.LBE16-.LBB16
 9310 047b 8C040000 		.4byte	0x48c
 9311 047f 11       		.uleb128 0x11
 9312 0480 7800     		.ascii	"x\000"
 9313 0482 01       		.byte	0x1
 9314 0483 E2       		.byte	0xe2
 9315 0484 81000000 		.4byte	0x81
 9316 0488 02       		.uleb128 0x2
 9317 0489 91       		.byte	0x91
 9318 048a 60       		.sleb128 -32
 9319 048b 00       		.byte	0
 9320 048c 10       		.uleb128 0x10
 9321 048d 68060000 		.4byte	.LBB17
 9322 0491 28000000 		.4byte	.LBE17-.LBB17
 9323 0495 A6040000 		.4byte	0x4a6
 9324 0499 11       		.uleb128 0x11
 9325 049a 7800     		.ascii	"x\000"
 9326 049c 01       		.byte	0x1
 9327 049d E6       		.byte	0xe6
 9328 049e 81000000 		.4byte	0x81
 9329 04a2 02       		.uleb128 0x2
 9330 04a3 91       		.byte	0x91
 9331 04a4 5F       		.sleb128 -33
 9332 04a5 00       		.byte	0
 9333 04a6 10       		.uleb128 0x10
 9334 04a7 9A060000 		.4byte	.LBB18
 9335 04ab 2A000000 		.4byte	.LBE18-.LBB18
 9336 04af C0040000 		.4byte	0x4c0
 9337 04b3 11       		.uleb128 0x11
 9338 04b4 7800     		.ascii	"x\000"
 9339 04b6 01       		.byte	0x1
ARM GAS  C:\Users\Diego\AppData\Local\Temp\ccIAJaV8.s 			page 204


 9340 04b7 EA       		.byte	0xea
 9341 04b8 81000000 		.4byte	0x81
 9342 04bc 02       		.uleb128 0x2
 9343 04bd 91       		.byte	0x91
 9344 04be 5E       		.sleb128 -34
 9345 04bf 00       		.byte	0
 9346 04c0 10       		.uleb128 0x10
 9347 04c1 4C070000 		.4byte	.LBB19
 9348 04c5 28000000 		.4byte	.LBE19-.LBB19
 9349 04c9 DA040000 		.4byte	0x4da
 9350 04cd 11       		.uleb128 0x11
 9351 04ce 7800     		.ascii	"x\000"
 9352 04d0 01       		.byte	0x1
 9353 04d1 FC       		.byte	0xfc
 9354 04d2 81000000 		.4byte	0x81
 9355 04d6 02       		.uleb128 0x2
 9356 04d7 91       		.byte	0x91
 9357 04d8 5D       		.sleb128 -35
 9358 04d9 00       		.byte	0
 9359 04da 10       		.uleb128 0x10
 9360 04db FC070000 		.4byte	.LBB20
 9361 04df 28000000 		.4byte	.LBE20-.LBB20
 9362 04e3 F5040000 		.4byte	0x4f5
 9363 04e7 12       		.uleb128 0x12
 9364 04e8 7800     		.ascii	"x\000"
 9365 04ea 01       		.byte	0x1
 9366 04eb 0901     		.2byte	0x109
 9367 04ed 81000000 		.4byte	0x81
 9368 04f1 02       		.uleb128 0x2
 9369 04f2 91       		.byte	0x91
 9370 04f3 5C       		.sleb128 -36
 9371 04f4 00       		.byte	0
 9372 04f5 10       		.uleb128 0x10
 9373 04f6 2E080000 		.4byte	.LBB21
 9374 04fa 28000000 		.4byte	.LBE21-.LBB21
 9375 04fe 10050000 		.4byte	0x510
 9376 0502 12       		.uleb128 0x12
 9377 0503 7800     		.ascii	"x\000"
 9378 0505 01       		.byte	0x1
 9379 0506 1001     		.2byte	0x110
 9380 0508 81000000 		.4byte	0x81
 9381 050c 02       		.uleb128 0x2
 9382 050d 91       		.byte	0x91
 9383 050e 5B       		.sleb128 -37
 9384 050f 00       		.byte	0
 9385 0510 10       		.uleb128 0x10
 9386 0511 60080000 		.4byte	.LBB22
 9387 0515 2A000000 		.4byte	.LBE22-.LBB22
 9388 0519 2B050000 		.4byte	0x52b
 9389 051d 12       		.uleb128 0x12
 9390 051e 7800     		.ascii	"x\000"
 9391 0520 01       		.byte	0x1
 9392 0521 1401     		.2byte	0x114
 9393 0523 81000000 		.4byte	0x81
 9394 0527 02       		.uleb128 0x2
 9395 0528 91       		.byte	0x91
 9396 0529 5A       		.sleb128 -38
ARM GAS  C:\Users\Diego\AppData\Local\Temp\ccIAJaV8.s 			page 205


 9397 052a 00       		.byte	0
 9398 052b 10       		.uleb128 0x10
 9399 052c 8A080000 		.4byte	.LBB23
 9400 0530 28000000 		.4byte	.LBE23-.LBB23
 9401 0534 46050000 		.4byte	0x546
 9402 0538 12       		.uleb128 0x12
 9403 0539 7800     		.ascii	"x\000"
 9404 053b 01       		.byte	0x1
 9405 053c 1801     		.2byte	0x118
 9406 053e 81000000 		.4byte	0x81
 9407 0542 02       		.uleb128 0x2
 9408 0543 91       		.byte	0x91
 9409 0544 59       		.sleb128 -39
 9410 0545 00       		.byte	0
 9411 0546 10       		.uleb128 0x10
 9412 0547 C8080000 		.4byte	.LBB24
 9413 054b 28000000 		.4byte	.LBE24-.LBB24
 9414 054f 61050000 		.4byte	0x561
 9415 0553 12       		.uleb128 0x12
 9416 0554 7800     		.ascii	"x\000"
 9417 0556 01       		.byte	0x1
 9418 0557 1E01     		.2byte	0x11e
 9419 0559 81000000 		.4byte	0x81
 9420 055d 02       		.uleb128 0x2
 9421 055e 91       		.byte	0x91
 9422 055f 58       		.sleb128 -40
 9423 0560 00       		.byte	0
 9424 0561 10       		.uleb128 0x10
 9425 0562 F0080000 		.4byte	.LBB25
 9426 0566 2C000000 		.4byte	.LBE25-.LBB25
 9427 056a 7C050000 		.4byte	0x57c
 9428 056e 12       		.uleb128 0x12
 9429 056f 7800     		.ascii	"x\000"
 9430 0571 01       		.byte	0x1
 9431 0572 2101     		.2byte	0x121
 9432 0574 81000000 		.4byte	0x81
 9433 0578 02       		.uleb128 0x2
 9434 0579 91       		.byte	0x91
 9435 057a 57       		.sleb128 -41
 9436 057b 00       		.byte	0
 9437 057c 10       		.uleb128 0x10
 9438 057d 26090000 		.4byte	.LBB26
 9439 0581 28000000 		.4byte	.LBE26-.LBB26
 9440 0585 97050000 		.4byte	0x597
 9441 0589 12       		.uleb128 0x12
 9442 058a 7800     		.ascii	"x\000"
 9443 058c 01       		.byte	0x1
 9444 058d 2501     		.2byte	0x125
 9445 058f 81000000 		.4byte	0x81
 9446 0593 02       		.uleb128 0x2
 9447 0594 91       		.byte	0x91
 9448 0595 56       		.sleb128 -42
 9449 0596 00       		.byte	0
 9450 0597 10       		.uleb128 0x10
 9451 0598 4E090000 		.4byte	.LBB27
 9452 059c 5E000000 		.4byte	.LBE27-.LBB27
 9453 05a0 B2050000 		.4byte	0x5b2
ARM GAS  C:\Users\Diego\AppData\Local\Temp\ccIAJaV8.s 			page 206


 9454 05a4 12       		.uleb128 0x12
 9455 05a5 7800     		.ascii	"x\000"
 9456 05a7 01       		.byte	0x1
 9457 05a8 2801     		.2byte	0x128
 9458 05aa 81000000 		.4byte	0x81
 9459 05ae 02       		.uleb128 0x2
 9460 05af 91       		.byte	0x91
 9461 05b0 55       		.sleb128 -43
 9462 05b1 00       		.byte	0
 9463 05b2 10       		.uleb128 0x10
 9464 05b3 B6090000 		.4byte	.LBB28
 9465 05b7 28000000 		.4byte	.LBE28-.LBB28
 9466 05bb CD050000 		.4byte	0x5cd
 9467 05bf 12       		.uleb128 0x12
 9468 05c0 7800     		.ascii	"x\000"
 9469 05c2 01       		.byte	0x1
 9470 05c3 2C01     		.2byte	0x12c
 9471 05c5 81000000 		.4byte	0x81
 9472 05c9 02       		.uleb128 0x2
 9473 05ca 91       		.byte	0x91
 9474 05cb 54       		.sleb128 -44
 9475 05cc 00       		.byte	0
 9476 05cd 10       		.uleb128 0x10
 9477 05ce F6090000 		.4byte	.LBB29
 9478 05d2 28000000 		.4byte	.LBE29-.LBB29
 9479 05d6 E8050000 		.4byte	0x5e8
 9480 05da 12       		.uleb128 0x12
 9481 05db 7800     		.ascii	"x\000"
 9482 05dd 01       		.byte	0x1
 9483 05de 3101     		.2byte	0x131
 9484 05e0 81000000 		.4byte	0x81
 9485 05e4 02       		.uleb128 0x2
 9486 05e5 91       		.byte	0x91
 9487 05e6 53       		.sleb128 -45
 9488 05e7 00       		.byte	0
 9489 05e8 10       		.uleb128 0x10
 9490 05e9 280A0000 		.4byte	.LBB30
 9491 05ed 28000000 		.4byte	.LBE30-.LBB30
 9492 05f1 03060000 		.4byte	0x603
 9493 05f5 12       		.uleb128 0x12
 9494 05f6 7800     		.ascii	"x\000"
 9495 05f8 01       		.byte	0x1
 9496 05f9 3501     		.2byte	0x135
 9497 05fb 81000000 		.4byte	0x81
 9498 05ff 02       		.uleb128 0x2
 9499 0600 91       		.byte	0x91
 9500 0601 52       		.sleb128 -46
 9501 0602 00       		.byte	0
 9502 0603 10       		.uleb128 0x10
 9503 0604 5A0A0000 		.4byte	.LBB31
 9504 0608 28000000 		.4byte	.LBE31-.LBB31
 9505 060c 1E060000 		.4byte	0x61e
 9506 0610 12       		.uleb128 0x12
 9507 0611 7800     		.ascii	"x\000"
 9508 0613 01       		.byte	0x1
 9509 0614 3A01     		.2byte	0x13a
 9510 0616 81000000 		.4byte	0x81
ARM GAS  C:\Users\Diego\AppData\Local\Temp\ccIAJaV8.s 			page 207


 9511 061a 02       		.uleb128 0x2
 9512 061b 91       		.byte	0x91
 9513 061c 51       		.sleb128 -47
 9514 061d 00       		.byte	0
 9515 061e 10       		.uleb128 0x10
 9516 061f 8C0A0000 		.4byte	.LBB32
 9517 0623 28000000 		.4byte	.LBE32-.LBB32
 9518 0627 39060000 		.4byte	0x639
 9519 062b 12       		.uleb128 0x12
 9520 062c 7800     		.ascii	"x\000"
 9521 062e 01       		.byte	0x1
 9522 062f 3F01     		.2byte	0x13f
 9523 0631 81000000 		.4byte	0x81
 9524 0635 02       		.uleb128 0x2
 9525 0636 91       		.byte	0x91
 9526 0637 50       		.sleb128 -48
 9527 0638 00       		.byte	0
 9528 0639 10       		.uleb128 0x10
 9529 063a BE0A0000 		.4byte	.LBB33
 9530 063e 28000000 		.4byte	.LBE33-.LBB33
 9531 0642 54060000 		.4byte	0x654
 9532 0646 12       		.uleb128 0x12
 9533 0647 7800     		.ascii	"x\000"
 9534 0649 01       		.byte	0x1
 9535 064a 4501     		.2byte	0x145
 9536 064c 81000000 		.4byte	0x81
 9537 0650 02       		.uleb128 0x2
 9538 0651 91       		.byte	0x91
 9539 0652 4F       		.sleb128 -49
 9540 0653 00       		.byte	0
 9541 0654 10       		.uleb128 0x10
 9542 0655 F60A0000 		.4byte	.LBB34
 9543 0659 40000000 		.4byte	.LBE34-.LBB34
 9544 065d 6F060000 		.4byte	0x66f
 9545 0661 12       		.uleb128 0x12
 9546 0662 7800     		.ascii	"x\000"
 9547 0664 01       		.byte	0x1
 9548 0665 4A01     		.2byte	0x14a
 9549 0667 81000000 		.4byte	0x81
 9550 066b 02       		.uleb128 0x2
 9551 066c 91       		.byte	0x91
 9552 066d 4E       		.sleb128 -50
 9553 066e 00       		.byte	0
 9554 066f 10       		.uleb128 0x10
 9555 0670 400B0000 		.4byte	.LBB35
 9556 0674 28000000 		.4byte	.LBE35-.LBB35
 9557 0678 8A060000 		.4byte	0x68a
 9558 067c 12       		.uleb128 0x12
 9559 067d 7800     		.ascii	"x\000"
 9560 067f 01       		.byte	0x1
 9561 0680 4E01     		.2byte	0x14e
 9562 0682 81000000 		.4byte	0x81
 9563 0686 02       		.uleb128 0x2
 9564 0687 91       		.byte	0x91
 9565 0688 4D       		.sleb128 -51
 9566 0689 00       		.byte	0
 9567 068a 10       		.uleb128 0x10
ARM GAS  C:\Users\Diego\AppData\Local\Temp\ccIAJaV8.s 			page 208


 9568 068b 680B0000 		.4byte	.LBB36
 9569 068f 42000000 		.4byte	.LBE36-.LBB36
 9570 0693 A5060000 		.4byte	0x6a5
 9571 0697 12       		.uleb128 0x12
 9572 0698 7800     		.ascii	"x\000"
 9573 069a 01       		.byte	0x1
 9574 069b 5101     		.2byte	0x151
 9575 069d 81000000 		.4byte	0x81
 9576 06a1 02       		.uleb128 0x2
 9577 06a2 91       		.byte	0x91
 9578 06a3 4C       		.sleb128 -52
 9579 06a4 00       		.byte	0
 9580 06a5 10       		.uleb128 0x10
 9581 06a6 C40B0000 		.4byte	.LBB37
 9582 06aa 28000000 		.4byte	.LBE37-.LBB37
 9583 06ae C0060000 		.4byte	0x6c0
 9584 06b2 12       		.uleb128 0x12
 9585 06b3 7800     		.ascii	"x\000"
 9586 06b5 01       		.byte	0x1
 9587 06b6 5901     		.2byte	0x159
 9588 06b8 81000000 		.4byte	0x81
 9589 06bc 02       		.uleb128 0x2
 9590 06bd 91       		.byte	0x91
 9591 06be 4B       		.sleb128 -53
 9592 06bf 00       		.byte	0
 9593 06c0 10       		.uleb128 0x10
 9594 06c1 FC0B0000 		.4byte	.LBB38
 9595 06c5 2C000000 		.4byte	.LBE38-.LBB38
 9596 06c9 DB060000 		.4byte	0x6db
 9597 06cd 12       		.uleb128 0x12
 9598 06ce 7800     		.ascii	"x\000"
 9599 06d0 01       		.byte	0x1
 9600 06d1 5F01     		.2byte	0x15f
 9601 06d3 81000000 		.4byte	0x81
 9602 06d7 02       		.uleb128 0x2
 9603 06d8 91       		.byte	0x91
 9604 06d9 4A       		.sleb128 -54
 9605 06da 00       		.byte	0
 9606 06db 10       		.uleb128 0x10
 9607 06dc A60C0000 		.4byte	.LBB39
 9608 06e0 62000000 		.4byte	.LBE39-.LBB39
 9609 06e4 F6060000 		.4byte	0x6f6
 9610 06e8 12       		.uleb128 0x12
 9611 06e9 7800     		.ascii	"x\000"
 9612 06eb 01       		.byte	0x1
 9613 06ec 7401     		.2byte	0x174
 9614 06ee 81000000 		.4byte	0x81
 9615 06f2 02       		.uleb128 0x2
 9616 06f3 91       		.byte	0x91
 9617 06f4 49       		.sleb128 -55
 9618 06f5 00       		.byte	0
 9619 06f6 10       		.uleb128 0x10
 9620 06f7 5A0D0000 		.4byte	.LBB40
 9621 06fb 28000000 		.4byte	.LBE40-.LBB40
 9622 06ff 11070000 		.4byte	0x711
 9623 0703 12       		.uleb128 0x12
 9624 0704 7800     		.ascii	"x\000"
ARM GAS  C:\Users\Diego\AppData\Local\Temp\ccIAJaV8.s 			page 209


 9625 0706 01       		.byte	0x1
 9626 0707 8301     		.2byte	0x183
 9627 0709 81000000 		.4byte	0x81
 9628 070d 02       		.uleb128 0x2
 9629 070e 91       		.byte	0x91
 9630 070f 48       		.sleb128 -56
 9631 0710 00       		.byte	0
 9632 0711 10       		.uleb128 0x10
 9633 0712 820D0000 		.4byte	.LBB41
 9634 0716 28000000 		.4byte	.LBE41-.LBB41
 9635 071a 2C070000 		.4byte	0x72c
 9636 071e 12       		.uleb128 0x12
 9637 071f 7800     		.ascii	"x\000"
 9638 0721 01       		.byte	0x1
 9639 0722 8701     		.2byte	0x187
 9640 0724 81000000 		.4byte	0x81
 9641 0728 02       		.uleb128 0x2
 9642 0729 91       		.byte	0x91
 9643 072a 47       		.sleb128 -57
 9644 072b 00       		.byte	0
 9645 072c 10       		.uleb128 0x10
 9646 072d B40D0000 		.4byte	.LBB42
 9647 0731 2A000000 		.4byte	.LBE42-.LBB42
 9648 0735 47070000 		.4byte	0x747
 9649 0739 12       		.uleb128 0x12
 9650 073a 7800     		.ascii	"x\000"
 9651 073c 01       		.byte	0x1
 9652 073d 8B01     		.2byte	0x18b
 9653 073f 81000000 		.4byte	0x81
 9654 0743 02       		.uleb128 0x2
 9655 0744 91       		.byte	0x91
 9656 0745 46       		.sleb128 -58
 9657 0746 00       		.byte	0
 9658 0747 10       		.uleb128 0x10
 9659 0748 660E0000 		.4byte	.LBB43
 9660 074c 28000000 		.4byte	.LBE43-.LBB43
 9661 0750 62070000 		.4byte	0x762
 9662 0754 12       		.uleb128 0x12
 9663 0755 7800     		.ascii	"x\000"
 9664 0757 01       		.byte	0x1
 9665 0758 9D01     		.2byte	0x19d
 9666 075a 81000000 		.4byte	0x81
 9667 075e 02       		.uleb128 0x2
 9668 075f 91       		.byte	0x91
 9669 0760 45       		.sleb128 -59
 9670 0761 00       		.byte	0
 9671 0762 10       		.uleb128 0x10
 9672 0763 160F0000 		.4byte	.LBB44
 9673 0767 28000000 		.4byte	.LBE44-.LBB44
 9674 076b 7D070000 		.4byte	0x77d
 9675 076f 12       		.uleb128 0x12
 9676 0770 7800     		.ascii	"x\000"
 9677 0772 01       		.byte	0x1
 9678 0773 AA01     		.2byte	0x1aa
 9679 0775 81000000 		.4byte	0x81
 9680 0779 02       		.uleb128 0x2
 9681 077a 91       		.byte	0x91
ARM GAS  C:\Users\Diego\AppData\Local\Temp\ccIAJaV8.s 			page 210


 9682 077b 44       		.sleb128 -60
 9683 077c 00       		.byte	0
 9684 077d 10       		.uleb128 0x10
 9685 077e 480F0000 		.4byte	.LBB45
 9686 0782 28000000 		.4byte	.LBE45-.LBB45
 9687 0786 98070000 		.4byte	0x798
 9688 078a 12       		.uleb128 0x12
 9689 078b 7800     		.ascii	"x\000"
 9690 078d 01       		.byte	0x1
 9691 078e B001     		.2byte	0x1b0
 9692 0790 81000000 		.4byte	0x81
 9693 0794 02       		.uleb128 0x2
 9694 0795 91       		.byte	0x91
 9695 0796 43       		.sleb128 -61
 9696 0797 00       		.byte	0
 9697 0798 10       		.uleb128 0x10
 9698 0799 7A0F0000 		.4byte	.LBB46
 9699 079d 2A000000 		.4byte	.LBE46-.LBB46
 9700 07a1 B3070000 		.4byte	0x7b3
 9701 07a5 12       		.uleb128 0x12
 9702 07a6 7800     		.ascii	"x\000"
 9703 07a8 01       		.byte	0x1
 9704 07a9 B401     		.2byte	0x1b4
 9705 07ab 81000000 		.4byte	0x81
 9706 07af 02       		.uleb128 0x2
 9707 07b0 91       		.byte	0x91
 9708 07b1 42       		.sleb128 -62
 9709 07b2 00       		.byte	0
 9710 07b3 10       		.uleb128 0x10
 9711 07b4 A40F0000 		.4byte	.LBB47
 9712 07b8 28000000 		.4byte	.LBE47-.LBB47
 9713 07bc CE070000 		.4byte	0x7ce
 9714 07c0 12       		.uleb128 0x12
 9715 07c1 7800     		.ascii	"x\000"
 9716 07c3 01       		.byte	0x1
 9717 07c4 B801     		.2byte	0x1b8
 9718 07c6 81000000 		.4byte	0x81
 9719 07ca 02       		.uleb128 0x2
 9720 07cb 91       		.byte	0x91
 9721 07cc 41       		.sleb128 -63
 9722 07cd 00       		.byte	0
 9723 07ce 10       		.uleb128 0x10
 9724 07cf E20F0000 		.4byte	.LBB48
 9725 07d3 56000000 		.4byte	.LBE48-.LBB48
 9726 07d7 E9070000 		.4byte	0x7e9
 9727 07db 12       		.uleb128 0x12
 9728 07dc 7800     		.ascii	"x\000"
 9729 07de 01       		.byte	0x1
 9730 07df BE01     		.2byte	0x1be
 9731 07e1 81000000 		.4byte	0x81
 9732 07e5 02       		.uleb128 0x2
 9733 07e6 91       		.byte	0x91
 9734 07e7 40       		.sleb128 -64
 9735 07e8 00       		.byte	0
 9736 07e9 10       		.uleb128 0x10
 9737 07ea 38100000 		.4byte	.LBB49
 9738 07ee 22000000 		.4byte	.LBE49-.LBB49
ARM GAS  C:\Users\Diego\AppData\Local\Temp\ccIAJaV8.s 			page 211


 9739 07f2 05080000 		.4byte	0x805
 9740 07f6 12       		.uleb128 0x12
 9741 07f7 7800     		.ascii	"x\000"
 9742 07f9 01       		.byte	0x1
 9743 07fa C101     		.2byte	0x1c1
 9744 07fc 81000000 		.4byte	0x81
 9745 0800 03       		.uleb128 0x3
 9746 0801 91       		.byte	0x91
 9747 0802 BF7F     		.sleb128 -65
 9748 0804 00       		.byte	0
 9749 0805 10       		.uleb128 0x10
 9750 0806 64100000 		.4byte	.LBB50
 9751 080a 1E000000 		.4byte	.LBE50-.LBB50
 9752 080e 21080000 		.4byte	0x821
 9753 0812 12       		.uleb128 0x12
 9754 0813 7800     		.ascii	"x\000"
 9755 0815 01       		.byte	0x1
 9756 0816 C501     		.2byte	0x1c5
 9757 0818 81000000 		.4byte	0x81
 9758 081c 03       		.uleb128 0x3
 9759 081d 91       		.byte	0x91
 9760 081e BE7F     		.sleb128 -66
 9761 0820 00       		.byte	0
 9762 0821 10       		.uleb128 0x10
 9763 0822 82100000 		.4byte	.LBB51
 9764 0826 22000000 		.4byte	.LBE51-.LBB51
 9765 082a 3D080000 		.4byte	0x83d
 9766 082e 12       		.uleb128 0x12
 9767 082f 7800     		.ascii	"x\000"
 9768 0831 01       		.byte	0x1
 9769 0832 C801     		.2byte	0x1c8
 9770 0834 81000000 		.4byte	0x81
 9771 0838 03       		.uleb128 0x3
 9772 0839 91       		.byte	0x91
 9773 083a BD7F     		.sleb128 -67
 9774 083c 00       		.byte	0
 9775 083d 10       		.uleb128 0x10
 9776 083e AE100000 		.4byte	.LBB52
 9777 0842 1E000000 		.4byte	.LBE52-.LBB52
 9778 0846 59080000 		.4byte	0x859
 9779 084a 12       		.uleb128 0x12
 9780 084b 7800     		.ascii	"x\000"
 9781 084d 01       		.byte	0x1
 9782 084e CC01     		.2byte	0x1cc
 9783 0850 81000000 		.4byte	0x81
 9784 0854 03       		.uleb128 0x3
 9785 0855 91       		.byte	0x91
 9786 0856 BC7F     		.sleb128 -68
 9787 0858 00       		.byte	0
 9788 0859 10       		.uleb128 0x10
 9789 085a E6100000 		.4byte	.LBB53
 9790 085e 1E000000 		.4byte	.LBE53-.LBB53
 9791 0862 75080000 		.4byte	0x875
 9792 0866 12       		.uleb128 0x12
 9793 0867 7800     		.ascii	"x\000"
 9794 0869 01       		.byte	0x1
 9795 086a D101     		.2byte	0x1d1
ARM GAS  C:\Users\Diego\AppData\Local\Temp\ccIAJaV8.s 			page 212


 9796 086c 81000000 		.4byte	0x81
 9797 0870 03       		.uleb128 0x3
 9798 0871 91       		.byte	0x91
 9799 0872 BB7F     		.sleb128 -69
 9800 0874 00       		.byte	0
 9801 0875 10       		.uleb128 0x10
 9802 0876 0E110000 		.4byte	.LBB54
 9803 087a 1E000000 		.4byte	.LBE54-.LBB54
 9804 087e 91080000 		.4byte	0x891
 9805 0882 12       		.uleb128 0x12
 9806 0883 7800     		.ascii	"x\000"
 9807 0885 01       		.byte	0x1
 9808 0886 D501     		.2byte	0x1d5
 9809 0888 81000000 		.4byte	0x81
 9810 088c 03       		.uleb128 0x3
 9811 088d 91       		.byte	0x91
 9812 088e BA7F     		.sleb128 -70
 9813 0890 00       		.byte	0
 9814 0891 10       		.uleb128 0x10
 9815 0892 36110000 		.4byte	.LBB55
 9816 0896 1E000000 		.4byte	.LBE55-.LBB55
 9817 089a AD080000 		.4byte	0x8ad
 9818 089e 12       		.uleb128 0x12
 9819 089f 7800     		.ascii	"x\000"
 9820 08a1 01       		.byte	0x1
 9821 08a2 DA01     		.2byte	0x1da
 9822 08a4 81000000 		.4byte	0x81
 9823 08a8 03       		.uleb128 0x3
 9824 08a9 91       		.byte	0x91
 9825 08aa B97F     		.sleb128 -71
 9826 08ac 00       		.byte	0
 9827 08ad 10       		.uleb128 0x10
 9828 08ae 5E110000 		.4byte	.LBB56
 9829 08b2 1E000000 		.4byte	.LBE56-.LBB56
 9830 08b6 C9080000 		.4byte	0x8c9
 9831 08ba 12       		.uleb128 0x12
 9832 08bb 7800     		.ascii	"x\000"
 9833 08bd 01       		.byte	0x1
 9834 08be DF01     		.2byte	0x1df
 9835 08c0 81000000 		.4byte	0x81
 9836 08c4 03       		.uleb128 0x3
 9837 08c5 91       		.byte	0x91
 9838 08c6 B87F     		.sleb128 -72
 9839 08c8 00       		.byte	0
 9840 08c9 10       		.uleb128 0x10
 9841 08ca 86110000 		.4byte	.LBB57
 9842 08ce 1E000000 		.4byte	.LBE57-.LBB57
 9843 08d2 E5080000 		.4byte	0x8e5
 9844 08d6 12       		.uleb128 0x12
 9845 08d7 7800     		.ascii	"x\000"
 9846 08d9 01       		.byte	0x1
 9847 08da E401     		.2byte	0x1e4
 9848 08dc 81000000 		.4byte	0x81
 9849 08e0 03       		.uleb128 0x3
 9850 08e1 91       		.byte	0x91
 9851 08e2 B77F     		.sleb128 -73
 9852 08e4 00       		.byte	0
ARM GAS  C:\Users\Diego\AppData\Local\Temp\ccIAJaV8.s 			page 213


 9853 08e5 10       		.uleb128 0x10
 9854 08e6 B4110000 		.4byte	.LBB58
 9855 08ea 36000000 		.4byte	.LBE58-.LBB58
 9856 08ee 01090000 		.4byte	0x901
 9857 08f2 12       		.uleb128 0x12
 9858 08f3 7800     		.ascii	"x\000"
 9859 08f5 01       		.byte	0x1
 9860 08f6 E901     		.2byte	0x1e9
 9861 08f8 81000000 		.4byte	0x81
 9862 08fc 03       		.uleb128 0x3
 9863 08fd 91       		.byte	0x91
 9864 08fe B67F     		.sleb128 -74
 9865 0900 00       		.byte	0
 9866 0901 10       		.uleb128 0x10
 9867 0902 F4110000 		.4byte	.LBB59
 9868 0906 1E000000 		.4byte	.LBE59-.LBB59
 9869 090a 1D090000 		.4byte	0x91d
 9870 090e 12       		.uleb128 0x12
 9871 090f 7800     		.ascii	"x\000"
 9872 0911 01       		.byte	0x1
 9873 0912 ED01     		.2byte	0x1ed
 9874 0914 81000000 		.4byte	0x81
 9875 0918 03       		.uleb128 0x3
 9876 0919 91       		.byte	0x91
 9877 091a B57F     		.sleb128 -75
 9878 091c 00       		.byte	0
 9879 091d 10       		.uleb128 0x10
 9880 091e 12120000 		.4byte	.LBB60
 9881 0922 36000000 		.4byte	.LBE60-.LBB60
 9882 0926 39090000 		.4byte	0x939
 9883 092a 12       		.uleb128 0x12
 9884 092b 7800     		.ascii	"x\000"
 9885 092d 01       		.byte	0x1
 9886 092e F001     		.2byte	0x1f0
 9887 0930 81000000 		.4byte	0x81
 9888 0934 03       		.uleb128 0x3
 9889 0935 91       		.byte	0x91
 9890 0936 B47F     		.sleb128 -76
 9891 0938 00       		.byte	0
 9892 0939 10       		.uleb128 0x10
 9893 093a 62120000 		.4byte	.LBB61
 9894 093e 1E000000 		.4byte	.LBE61-.LBB61
 9895 0942 55090000 		.4byte	0x955
 9896 0946 12       		.uleb128 0x12
 9897 0947 7800     		.ascii	"x\000"
 9898 0949 01       		.byte	0x1
 9899 094a F801     		.2byte	0x1f8
 9900 094c 81000000 		.4byte	0x81
 9901 0950 03       		.uleb128 0x3
 9902 0951 91       		.byte	0x91
 9903 0952 B37F     		.sleb128 -77
 9904 0954 00       		.byte	0
 9905 0955 10       		.uleb128 0x10
 9906 0956 90120000 		.4byte	.LBB62
 9907 095a 22000000 		.4byte	.LBE62-.LBB62
 9908 095e 71090000 		.4byte	0x971
 9909 0962 12       		.uleb128 0x12
ARM GAS  C:\Users\Diego\AppData\Local\Temp\ccIAJaV8.s 			page 214


 9910 0963 7800     		.ascii	"x\000"
 9911 0965 01       		.byte	0x1
 9912 0966 FD01     		.2byte	0x1fd
 9913 0968 81000000 		.4byte	0x81
 9914 096c 03       		.uleb128 0x3
 9915 096d 91       		.byte	0x91
 9916 096e B27F     		.sleb128 -78
 9917 0970 00       		.byte	0
 9918 0971 10       		.uleb128 0x10
 9919 0972 C4120000 		.4byte	.LBB63
 9920 0976 1E000000 		.4byte	.LBE63-.LBB63
 9921 097a 8D090000 		.4byte	0x98d
 9922 097e 12       		.uleb128 0x12
 9923 097f 7800     		.ascii	"x\000"
 9924 0981 01       		.byte	0x1
 9925 0982 AF02     		.2byte	0x2af
 9926 0984 81000000 		.4byte	0x81
 9927 0988 03       		.uleb128 0x3
 9928 0989 91       		.byte	0x91
 9929 098a B17F     		.sleb128 -79
 9930 098c 00       		.byte	0
 9931 098d 10       		.uleb128 0x10
 9932 098e EC120000 		.4byte	.LBB64
 9933 0992 60000000 		.4byte	.LBE64-.LBB64
 9934 0996 A9090000 		.4byte	0x9a9
 9935 099a 12       		.uleb128 0x12
 9936 099b 7800     		.ascii	"x\000"
 9937 099d 01       		.byte	0x1
 9938 099e B302     		.2byte	0x2b3
 9939 09a0 81000000 		.4byte	0x81
 9940 09a4 03       		.uleb128 0x3
 9941 09a5 91       		.byte	0x91
 9942 09a6 B07F     		.sleb128 -80
 9943 09a8 00       		.byte	0
 9944 09a9 10       		.uleb128 0x10
 9945 09aa 60130000 		.4byte	.LBB65
 9946 09ae 1E000000 		.4byte	.LBE65-.LBB65
 9947 09b2 C5090000 		.4byte	0x9c5
 9948 09b6 12       		.uleb128 0x12
 9949 09b7 7800     		.ascii	"x\000"
 9950 09b9 01       		.byte	0x1
 9951 09ba B802     		.2byte	0x2b8
 9952 09bc 81000000 		.4byte	0x81
 9953 09c0 03       		.uleb128 0x3
 9954 09c1 91       		.byte	0x91
 9955 09c2 AF7F     		.sleb128 -81
 9956 09c4 00       		.byte	0
 9957 09c5 10       		.uleb128 0x10
 9958 09c6 88130000 		.4byte	.LBB66
 9959 09ca 1E000000 		.4byte	.LBE66-.LBB66
 9960 09ce E1090000 		.4byte	0x9e1
 9961 09d2 12       		.uleb128 0x12
 9962 09d3 7800     		.ascii	"x\000"
 9963 09d5 01       		.byte	0x1
 9964 09d6 BC02     		.2byte	0x2bc
 9965 09d8 81000000 		.4byte	0x81
 9966 09dc 03       		.uleb128 0x3
ARM GAS  C:\Users\Diego\AppData\Local\Temp\ccIAJaV8.s 			page 215


 9967 09dd 91       		.byte	0x91
 9968 09de AE7F     		.sleb128 -82
 9969 09e0 00       		.byte	0
 9970 09e1 10       		.uleb128 0x10
 9971 09e2 B0130000 		.4byte	.LBB67
 9972 09e6 1E000000 		.4byte	.LBE67-.LBB67
 9973 09ea FD090000 		.4byte	0x9fd
 9974 09ee 12       		.uleb128 0x12
 9975 09ef 7800     		.ascii	"x\000"
 9976 09f1 01       		.byte	0x1
 9977 09f2 C002     		.2byte	0x2c0
 9978 09f4 81000000 		.4byte	0x81
 9979 09f8 03       		.uleb128 0x3
 9980 09f9 91       		.byte	0x91
 9981 09fa AD7F     		.sleb128 -83
 9982 09fc 00       		.byte	0
 9983 09fd 10       		.uleb128 0x10
 9984 09fe D8130000 		.4byte	.LBB68
 9985 0a02 1E000000 		.4byte	.LBE68-.LBB68
 9986 0a06 190A0000 		.4byte	0xa19
 9987 0a0a 12       		.uleb128 0x12
 9988 0a0b 7800     		.ascii	"x\000"
 9989 0a0d 01       		.byte	0x1
 9990 0a0e C402     		.2byte	0x2c4
 9991 0a10 81000000 		.4byte	0x81
 9992 0a14 03       		.uleb128 0x3
 9993 0a15 91       		.byte	0x91
 9994 0a16 AC7F     		.sleb128 -84
 9995 0a18 00       		.byte	0
 9996 0a19 13       		.uleb128 0x13
 9997 0a1a 28140000 		.4byte	.LBB69
 9998 0a1e 1E000000 		.4byte	.LBE69-.LBB69
 9999 0a22 12       		.uleb128 0x12
 10000 0a23 7800     		.ascii	"x\000"
 10001 0a25 01       		.byte	0x1
 10002 0a26 CC02     		.2byte	0x2cc
 10003 0a28 81000000 		.4byte	0x81
 10004 0a2c 03       		.uleb128 0x3
 10005 0a2d 91       		.byte	0x91
 10006 0a2e AB7F     		.sleb128 -85
 10007 0a30 00       		.byte	0
 10008 0a31 00       		.byte	0
 10009 0a32 14       		.uleb128 0x14
 10010 0a33 35010000 		.4byte	.LASF42
 10011 0a37 01       		.byte	0x1
 10012 0a38 D102     		.2byte	0x2d1
 10013 0a3a 00000000 		.4byte	.LFB65
 10014 0a3e 58160000 		.4byte	.LFE65-.LFB65
 10015 0a42 01       		.uleb128 0x1
 10016 0a43 9C       		.byte	0x9c
 10017 0a44 EF120000 		.4byte	0x12ef
 10018 0a48 15       		.uleb128 0x15
 10019 0a49 86050000 		.4byte	.LASF38
 10020 0a4d 01       		.byte	0x1
 10021 0a4e D202     		.2byte	0x2d2
 10022 0a50 81000000 		.4byte	0x81
 10023 0a54 02       		.uleb128 0x2
ARM GAS  C:\Users\Diego\AppData\Local\Temp\ccIAJaV8.s 			page 216


 10024 0a55 91       		.byte	0x91
 10025 0a56 6F       		.sleb128 -17
 10026 0a57 12       		.uleb128 0x12
 10027 0a58 706F7300 		.ascii	"pos\000"
 10028 0a5c 01       		.byte	0x1
 10029 0a5d D202     		.2byte	0x2d2
 10030 0a5f 81000000 		.4byte	0x81
 10031 0a63 03       		.uleb128 0x3
 10032 0a64 91       		.byte	0x91
 10033 0a65 A37F     		.sleb128 -93
 10034 0a67 15       		.uleb128 0x15
 10035 0a68 63040000 		.4byte	.LASF43
 10036 0a6c 01       		.byte	0x1
 10037 0a6d D402     		.2byte	0x2d4
 10038 0a6f EF120000 		.4byte	0x12ef
 10039 0a73 03       		.uleb128 0x3
 10040 0a74 91       		.byte	0x91
 10041 0a75 887F     		.sleb128 -120
 10042 0a77 15       		.uleb128 0x15
 10043 0a78 63030000 		.4byte	.LASF44
 10044 0a7c 01       		.byte	0x1
 10045 0a7d D402     		.2byte	0x2d4
 10046 0a7f EF120000 		.4byte	0x12ef
 10047 0a83 03       		.uleb128 0x3
 10048 0a84 91       		.byte	0x91
 10049 0a85 FC7E     		.sleb128 -132
 10050 0a87 15       		.uleb128 0x15
 10051 0a88 4F040000 		.4byte	.LASF45
 10052 0a8c 01       		.byte	0x1
 10053 0a8d D402     		.2byte	0x2d4
 10054 0a8f EF120000 		.4byte	0x12ef
 10055 0a93 03       		.uleb128 0x3
 10056 0a94 91       		.byte	0x91
 10057 0a95 F07E     		.sleb128 -144
 10058 0a97 15       		.uleb128 0x15
 10059 0a98 E5050000 		.4byte	.LASF46
 10060 0a9c 01       		.byte	0x1
 10061 0a9d D402     		.2byte	0x2d4
 10062 0a9f EF120000 		.4byte	0x12ef
 10063 0aa3 03       		.uleb128 0x3
 10064 0aa4 91       		.byte	0x91
 10065 0aa5 E47E     		.sleb128 -156
 10066 0aa7 15       		.uleb128 0x15
 10067 0aa8 76030000 		.4byte	.LASF47
 10068 0aac 01       		.byte	0x1
 10069 0aad D502     		.2byte	0x2d5
 10070 0aaf 68000000 		.4byte	0x68
 10071 0ab3 03       		.uleb128 0x3
 10072 0ab4 91       		.byte	0x91
 10073 0ab5 987F     		.sleb128 -104
 10074 0ab7 15       		.uleb128 0x15
 10075 0ab8 15060000 		.4byte	.LASF48
 10076 0abc 01       		.byte	0x1
 10077 0abd D502     		.2byte	0x2d5
 10078 0abf 68000000 		.4byte	0x68
 10079 0ac3 03       		.uleb128 0x3
 10080 0ac4 91       		.byte	0x91
ARM GAS  C:\Users\Diego\AppData\Local\Temp\ccIAJaV8.s 			page 217


 10081 0ac5 9C7F     		.sleb128 -100
 10082 0ac7 15       		.uleb128 0x15
 10083 0ac8 49040000 		.4byte	.LASF49
 10084 0acc 01       		.byte	0x1
 10085 0acd D502     		.2byte	0x2d5
 10086 0acf 68000000 		.4byte	0x68
 10087 0ad3 03       		.uleb128 0x3
 10088 0ad4 91       		.byte	0x91
 10089 0ad5 947F     		.sleb128 -108
 10090 0ad7 12       		.uleb128 0x12
 10091 0ad8 6400     		.ascii	"d\000"
 10092 0ada 01       		.byte	0x1
 10093 0adb 6B03     		.2byte	0x36b
 10094 0add 68000000 		.4byte	0x68
 10095 0ae1 03       		.uleb128 0x3
 10096 0ae2 91       		.byte	0x91
 10097 0ae3 E07E     		.sleb128 -160
 10098 0ae5 10       		.uleb128 0x10
 10099 0ae6 0E000000 		.4byte	.LBB70
 10100 0aea 28000000 		.4byte	.LBE70-.LBB70
 10101 0aee 020B0000 		.4byte	0xb02
 10102 0af2 15       		.uleb128 0x15
 10103 0af3 16020000 		.4byte	.LASF40
 10104 0af7 01       		.byte	0x1
 10105 0af8 D702     		.2byte	0x2d7
 10106 0afa 81000000 		.4byte	0x81
 10107 0afe 02       		.uleb128 0x2
 10108 0aff 91       		.byte	0x91
 10109 0b00 6E       		.sleb128 -18
 10110 0b01 00       		.byte	0
 10111 0b02 10       		.uleb128 0x10
 10112 0b03 56000000 		.4byte	.LBB71
 10113 0b07 2E000000 		.4byte	.LBE71-.LBB71
 10114 0b0b 1F0B0000 		.4byte	0xb1f
 10115 0b0f 15       		.uleb128 0x15
 10116 0b10 16020000 		.4byte	.LASF40
 10117 0b14 01       		.byte	0x1
 10118 0b15 DE02     		.2byte	0x2de
 10119 0b17 81000000 		.4byte	0x81
 10120 0b1b 02       		.uleb128 0x2
 10121 0b1c 91       		.byte	0x91
 10122 0b1d 6D       		.sleb128 -19
 10123 0b1e 00       		.byte	0
 10124 0b1f 10       		.uleb128 0x10
 10125 0b20 8C000000 		.4byte	.LBB72
 10126 0b24 28000000 		.4byte	.LBE72-.LBB72
 10127 0b28 3C0B0000 		.4byte	0xb3c
 10128 0b2c 15       		.uleb128 0x15
 10129 0b2d 16020000 		.4byte	.LASF40
 10130 0b31 01       		.byte	0x1
 10131 0b32 E402     		.2byte	0x2e4
 10132 0b34 81000000 		.4byte	0x81
 10133 0b38 02       		.uleb128 0x2
 10134 0b39 91       		.byte	0x91
 10135 0b3a 6C       		.sleb128 -20
 10136 0b3b 00       		.byte	0
 10137 0b3c 10       		.uleb128 0x10
ARM GAS  C:\Users\Diego\AppData\Local\Temp\ccIAJaV8.s 			page 218


 10138 0b3d CC000000 		.4byte	.LBB73
 10139 0b41 2E000000 		.4byte	.LBE73-.LBB73
 10140 0b45 590B0000 		.4byte	0xb59
 10141 0b49 15       		.uleb128 0x15
 10142 0b4a 16020000 		.4byte	.LASF40
 10143 0b4e 01       		.byte	0x1
 10144 0b4f EA02     		.2byte	0x2ea
 10145 0b51 81000000 		.4byte	0x81
 10146 0b55 02       		.uleb128 0x2
 10147 0b56 91       		.byte	0x91
 10148 0b57 6B       		.sleb128 -21
 10149 0b58 00       		.byte	0
 10150 0b59 10       		.uleb128 0x10
 10151 0b5a 66020000 		.4byte	.LBB74
 10152 0b5e 32000000 		.4byte	.LBE74-.LBB74
 10153 0b62 740B0000 		.4byte	0xb74
 10154 0b66 12       		.uleb128 0x12
 10155 0b67 6900     		.ascii	"i\000"
 10156 0b69 01       		.byte	0x1
 10157 0b6a F702     		.2byte	0x2f7
 10158 0b6c 81000000 		.4byte	0x81
 10159 0b70 02       		.uleb128 0x2
 10160 0b71 91       		.byte	0x91
 10161 0b72 6A       		.sleb128 -22
 10162 0b73 00       		.byte	0
 10163 0b74 10       		.uleb128 0x10
 10164 0b75 A2020000 		.4byte	.LBB75
 10165 0b79 28000000 		.4byte	.LBE75-.LBB75
 10166 0b7d 8F0B0000 		.4byte	0xb8f
 10167 0b81 12       		.uleb128 0x12
 10168 0b82 7800     		.ascii	"x\000"
 10169 0b84 01       		.byte	0x1
 10170 0b85 FB02     		.2byte	0x2fb
 10171 0b87 81000000 		.4byte	0x81
 10172 0b8b 02       		.uleb128 0x2
 10173 0b8c 91       		.byte	0x91
 10174 0b8d 69       		.sleb128 -23
 10175 0b8e 00       		.byte	0
 10176 0b8f 10       		.uleb128 0x10
 10177 0b90 D4020000 		.4byte	.LBB76
 10178 0b94 28000000 		.4byte	.LBE76-.LBB76
 10179 0b98 AA0B0000 		.4byte	0xbaa
 10180 0b9c 12       		.uleb128 0x12
 10181 0b9d 7800     		.ascii	"x\000"
 10182 0b9f 01       		.byte	0x1
 10183 0ba0 FF02     		.2byte	0x2ff
 10184 0ba2 81000000 		.4byte	0x81
 10185 0ba6 02       		.uleb128 0x2
 10186 0ba7 91       		.byte	0x91
 10187 0ba8 68       		.sleb128 -24
 10188 0ba9 00       		.byte	0
 10189 0baa 10       		.uleb128 0x10
 10190 0bab 06030000 		.4byte	.LBB77
 10191 0baf 28000000 		.4byte	.LBE77-.LBB77
 10192 0bb3 C50B0000 		.4byte	0xbc5
 10193 0bb7 12       		.uleb128 0x12
 10194 0bb8 7800     		.ascii	"x\000"
ARM GAS  C:\Users\Diego\AppData\Local\Temp\ccIAJaV8.s 			page 219


 10195 0bba 01       		.byte	0x1
 10196 0bbb 0303     		.2byte	0x303
 10197 0bbd 81000000 		.4byte	0x81
 10198 0bc1 02       		.uleb128 0x2
 10199 0bc2 91       		.byte	0x91
 10200 0bc3 67       		.sleb128 -25
 10201 0bc4 00       		.byte	0
 10202 0bc5 10       		.uleb128 0x10
 10203 0bc6 38030000 		.4byte	.LBB78
 10204 0bca 58000000 		.4byte	.LBE78-.LBB78
 10205 0bce E00B0000 		.4byte	0xbe0
 10206 0bd2 12       		.uleb128 0x12
 10207 0bd3 7800     		.ascii	"x\000"
 10208 0bd5 01       		.byte	0x1
 10209 0bd6 0703     		.2byte	0x307
 10210 0bd8 81000000 		.4byte	0x81
 10211 0bdc 02       		.uleb128 0x2
 10212 0bdd 91       		.byte	0x91
 10213 0bde 66       		.sleb128 -26
 10214 0bdf 00       		.byte	0
 10215 0be0 10       		.uleb128 0x10
 10216 0be1 9A030000 		.4byte	.LBB79
 10217 0be5 28000000 		.4byte	.LBE79-.LBB79
 10218 0be9 FB0B0000 		.4byte	0xbfb
 10219 0bed 12       		.uleb128 0x12
 10220 0bee 7800     		.ascii	"x\000"
 10221 0bf0 01       		.byte	0x1
 10222 0bf1 0B03     		.2byte	0x30b
 10223 0bf3 81000000 		.4byte	0x81
 10224 0bf7 02       		.uleb128 0x2
 10225 0bf8 91       		.byte	0x91
 10226 0bf9 65       		.sleb128 -27
 10227 0bfa 00       		.byte	0
 10228 0bfb 10       		.uleb128 0x10
 10229 0bfc CC030000 		.4byte	.LBB80
 10230 0c00 28000000 		.4byte	.LBE80-.LBB80
 10231 0c04 160C0000 		.4byte	0xc16
 10232 0c08 12       		.uleb128 0x12
 10233 0c09 7800     		.ascii	"x\000"
 10234 0c0b 01       		.byte	0x1
 10235 0c0c 0F03     		.2byte	0x30f
 10236 0c0e 81000000 		.4byte	0x81
 10237 0c12 02       		.uleb128 0x2
 10238 0c13 91       		.byte	0x91
 10239 0c14 64       		.sleb128 -28
 10240 0c15 00       		.byte	0
 10241 0c16 10       		.uleb128 0x10
 10242 0c17 FE030000 		.4byte	.LBB81
 10243 0c1b 28000000 		.4byte	.LBE81-.LBB81
 10244 0c1f 310C0000 		.4byte	0xc31
 10245 0c23 12       		.uleb128 0x12
 10246 0c24 7800     		.ascii	"x\000"
 10247 0c26 01       		.byte	0x1
 10248 0c27 1303     		.2byte	0x313
 10249 0c29 81000000 		.4byte	0x81
 10250 0c2d 02       		.uleb128 0x2
 10251 0c2e 91       		.byte	0x91
ARM GAS  C:\Users\Diego\AppData\Local\Temp\ccIAJaV8.s 			page 220


 10252 0c2f 63       		.sleb128 -29
 10253 0c30 00       		.byte	0
 10254 0c31 10       		.uleb128 0x10
 10255 0c32 30040000 		.4byte	.LBB82
 10256 0c36 28000000 		.4byte	.LBE82-.LBB82
 10257 0c3a 4C0C0000 		.4byte	0xc4c
 10258 0c3e 12       		.uleb128 0x12
 10259 0c3f 7800     		.ascii	"x\000"
 10260 0c41 01       		.byte	0x1
 10261 0c42 1803     		.2byte	0x318
 10262 0c44 81000000 		.4byte	0x81
 10263 0c48 02       		.uleb128 0x2
 10264 0c49 91       		.byte	0x91
 10265 0c4a 62       		.sleb128 -30
 10266 0c4b 00       		.byte	0
 10267 0c4c 10       		.uleb128 0x10
 10268 0c4d E0040000 		.4byte	.LBB83
 10269 0c51 28000000 		.4byte	.LBE83-.LBB83
 10270 0c55 670C0000 		.4byte	0xc67
 10271 0c59 12       		.uleb128 0x12
 10272 0c5a 7800     		.ascii	"x\000"
 10273 0c5c 01       		.byte	0x1
 10274 0c5d 2603     		.2byte	0x326
 10275 0c5f 81000000 		.4byte	0x81
 10276 0c63 02       		.uleb128 0x2
 10277 0c64 91       		.byte	0x91
 10278 0c65 61       		.sleb128 -31
 10279 0c66 00       		.byte	0
 10280 0c67 10       		.uleb128 0x10
 10281 0c68 90050000 		.4byte	.LBB84
 10282 0c6c 28000000 		.4byte	.LBE84-.LBB84
 10283 0c70 820C0000 		.4byte	0xc82
 10284 0c74 12       		.uleb128 0x12
 10285 0c75 7800     		.ascii	"x\000"
 10286 0c77 01       		.byte	0x1
 10287 0c78 3203     		.2byte	0x332
 10288 0c7a 81000000 		.4byte	0x81
 10289 0c7e 02       		.uleb128 0x2
 10290 0c7f 91       		.byte	0x91
 10291 0c80 60       		.sleb128 -32
 10292 0c81 00       		.byte	0
 10293 0c82 10       		.uleb128 0x10
 10294 0c83 C2050000 		.4byte	.LBB85
 10295 0c87 28000000 		.4byte	.LBE85-.LBB85
 10296 0c8b 9D0C0000 		.4byte	0xc9d
 10297 0c8f 12       		.uleb128 0x12
 10298 0c90 7800     		.ascii	"x\000"
 10299 0c92 01       		.byte	0x1
 10300 0c93 3703     		.2byte	0x337
 10301 0c95 81000000 		.4byte	0x81
 10302 0c99 02       		.uleb128 0x2
 10303 0c9a 91       		.byte	0x91
 10304 0c9b 5F       		.sleb128 -33
 10305 0c9c 00       		.byte	0
 10306 0c9d 10       		.uleb128 0x10
 10307 0c9e EA050000 		.4byte	.LBB86
 10308 0ca2 28000000 		.4byte	.LBE86-.LBB86
ARM GAS  C:\Users\Diego\AppData\Local\Temp\ccIAJaV8.s 			page 221


 10309 0ca6 B80C0000 		.4byte	0xcb8
 10310 0caa 12       		.uleb128 0x12
 10311 0cab 7800     		.ascii	"x\000"
 10312 0cad 01       		.byte	0x1
 10313 0cae 3A03     		.2byte	0x33a
 10314 0cb0 81000000 		.4byte	0x81
 10315 0cb4 02       		.uleb128 0x2
 10316 0cb5 91       		.byte	0x91
 10317 0cb6 5E       		.sleb128 -34
 10318 0cb7 00       		.byte	0
 10319 0cb8 10       		.uleb128 0x10
 10320 0cb9 26060000 		.4byte	.LBB87
 10321 0cbd 28000000 		.4byte	.LBE87-.LBB87
 10322 0cc1 D30C0000 		.4byte	0xcd3
 10323 0cc5 12       		.uleb128 0x12
 10324 0cc6 7800     		.ascii	"x\000"
 10325 0cc8 01       		.byte	0x1
 10326 0cc9 4103     		.2byte	0x341
 10327 0ccb 81000000 		.4byte	0x81
 10328 0ccf 02       		.uleb128 0x2
 10329 0cd0 91       		.byte	0x91
 10330 0cd1 5D       		.sleb128 -35
 10331 0cd2 00       		.byte	0
 10332 0cd3 10       		.uleb128 0x10
 10333 0cd4 70060000 		.4byte	.LBB88
 10334 0cd8 58000000 		.4byte	.LBE88-.LBB88
 10335 0cdc EE0C0000 		.4byte	0xcee
 10336 0ce0 12       		.uleb128 0x12
 10337 0ce1 7800     		.ascii	"x\000"
 10338 0ce3 01       		.byte	0x1
 10339 0ce4 4703     		.2byte	0x347
 10340 0ce6 81000000 		.4byte	0x81
 10341 0cea 02       		.uleb128 0x2
 10342 0ceb 91       		.byte	0x91
 10343 0cec 5C       		.sleb128 -36
 10344 0ced 00       		.byte	0
 10345 0cee 10       		.uleb128 0x10
 10346 0cef D2060000 		.4byte	.LBB89
 10347 0cf3 28000000 		.4byte	.LBE89-.LBB89
 10348 0cf7 090D0000 		.4byte	0xd09
 10349 0cfb 12       		.uleb128 0x12
 10350 0cfc 7800     		.ascii	"x\000"
 10351 0cfe 01       		.byte	0x1
 10352 0cff 4C03     		.2byte	0x34c
 10353 0d01 81000000 		.4byte	0x81
 10354 0d05 02       		.uleb128 0x2
 10355 0d06 91       		.byte	0x91
 10356 0d07 5B       		.sleb128 -37
 10357 0d08 00       		.byte	0
 10358 0d09 10       		.uleb128 0x10
 10359 0d0a 04070000 		.4byte	.LBB90
 10360 0d0e 28000000 		.4byte	.LBE90-.LBB90
 10361 0d12 240D0000 		.4byte	0xd24
 10362 0d16 12       		.uleb128 0x12
 10363 0d17 7800     		.ascii	"x\000"
 10364 0d19 01       		.byte	0x1
 10365 0d1a 5003     		.2byte	0x350
ARM GAS  C:\Users\Diego\AppData\Local\Temp\ccIAJaV8.s 			page 222


 10366 0d1c 81000000 		.4byte	0x81
 10367 0d20 02       		.uleb128 0x2
 10368 0d21 91       		.byte	0x91
 10369 0d22 5A       		.sleb128 -38
 10370 0d23 00       		.byte	0
 10371 0d24 10       		.uleb128 0x10
 10372 0d25 2C070000 		.4byte	.LBB91
 10373 0d29 42000000 		.4byte	.LBE91-.LBB91
 10374 0d2d 3F0D0000 		.4byte	0xd3f
 10375 0d31 12       		.uleb128 0x12
 10376 0d32 7800     		.ascii	"x\000"
 10377 0d34 01       		.byte	0x1
 10378 0d35 5303     		.2byte	0x353
 10379 0d37 81000000 		.4byte	0x81
 10380 0d3b 02       		.uleb128 0x2
 10381 0d3c 91       		.byte	0x91
 10382 0d3d 59       		.sleb128 -39
 10383 0d3e 00       		.byte	0
 10384 0d3f 10       		.uleb128 0x10
 10385 0d40 78070000 		.4byte	.LBB92
 10386 0d44 28000000 		.4byte	.LBE92-.LBB92
 10387 0d48 5A0D0000 		.4byte	0xd5a
 10388 0d4c 12       		.uleb128 0x12
 10389 0d4d 7800     		.ascii	"x\000"
 10390 0d4f 01       		.byte	0x1
 10391 0d50 5903     		.2byte	0x359
 10392 0d52 81000000 		.4byte	0x81
 10393 0d56 02       		.uleb128 0x2
 10394 0d57 91       		.byte	0x91
 10395 0d58 58       		.sleb128 -40
 10396 0d59 00       		.byte	0
 10397 0d5a 10       		.uleb128 0x10
 10398 0d5b AA070000 		.4byte	.LBB93
 10399 0d5f 3C000000 		.4byte	.LBE93-.LBB93
 10400 0d63 750D0000 		.4byte	0xd75
 10401 0d67 12       		.uleb128 0x12
 10402 0d68 7800     		.ascii	"x\000"
 10403 0d6a 01       		.byte	0x1
 10404 0d6b 5D03     		.2byte	0x35d
 10405 0d6d 81000000 		.4byte	0x81
 10406 0d71 02       		.uleb128 0x2
 10407 0d72 91       		.byte	0x91
 10408 0d73 57       		.sleb128 -41
 10409 0d74 00       		.byte	0
 10410 0d75 10       		.uleb128 0x10
 10411 0d76 E6070000 		.4byte	.LBB94
 10412 0d7a 44000000 		.4byte	.LBE94-.LBB94
 10413 0d7e 900D0000 		.4byte	0xd90
 10414 0d82 12       		.uleb128 0x12
 10415 0d83 7800     		.ascii	"x\000"
 10416 0d85 01       		.byte	0x1
 10417 0d86 6003     		.2byte	0x360
 10418 0d88 81000000 		.4byte	0x81
 10419 0d8c 02       		.uleb128 0x2
 10420 0d8d 91       		.byte	0x91
 10421 0d8e 56       		.sleb128 -42
 10422 0d8f 00       		.byte	0
ARM GAS  C:\Users\Diego\AppData\Local\Temp\ccIAJaV8.s 			page 223


 10423 0d90 10       		.uleb128 0x10
 10424 0d91 2A080000 		.4byte	.LBB95
 10425 0d95 6E000000 		.4byte	.LBE95-.LBB95
 10426 0d99 AB0D0000 		.4byte	0xdab
 10427 0d9d 12       		.uleb128 0x12
 10428 0d9e 7800     		.ascii	"x\000"
 10429 0da0 01       		.byte	0x1
 10430 0da1 6503     		.2byte	0x365
 10431 0da3 81000000 		.4byte	0x81
 10432 0da7 02       		.uleb128 0x2
 10433 0da8 91       		.byte	0x91
 10434 0da9 55       		.sleb128 -43
 10435 0daa 00       		.byte	0
 10436 0dab 10       		.uleb128 0x10
 10437 0dac D6080000 		.4byte	.LBB96
 10438 0db0 28000000 		.4byte	.LBE96-.LBB96
 10439 0db4 C60D0000 		.4byte	0xdc6
 10440 0db8 12       		.uleb128 0x12
 10441 0db9 7800     		.ascii	"x\000"
 10442 0dbb 01       		.byte	0x1
 10443 0dbc 7203     		.2byte	0x372
 10444 0dbe 81000000 		.4byte	0x81
 10445 0dc2 02       		.uleb128 0x2
 10446 0dc3 91       		.byte	0x91
 10447 0dc4 54       		.sleb128 -44
 10448 0dc5 00       		.byte	0
 10449 0dc6 10       		.uleb128 0x10
 10450 0dc7 08090000 		.4byte	.LBB97
 10451 0dcb 44000000 		.4byte	.LBE97-.LBB97
 10452 0dcf E10D0000 		.4byte	0xde1
 10453 0dd3 12       		.uleb128 0x12
 10454 0dd4 7800     		.ascii	"x\000"
 10455 0dd6 01       		.byte	0x1
 10456 0dd7 7603     		.2byte	0x376
 10457 0dd9 81000000 		.4byte	0x81
 10458 0ddd 02       		.uleb128 0x2
 10459 0dde 91       		.byte	0x91
 10460 0ddf 53       		.sleb128 -45
 10461 0de0 00       		.byte	0
 10462 0de1 10       		.uleb128 0x10
 10463 0de2 4C090000 		.4byte	.LBB98
 10464 0de6 38000000 		.4byte	.LBE98-.LBB98
 10465 0dea FC0D0000 		.4byte	0xdfc
 10466 0dee 12       		.uleb128 0x12
 10467 0def 7800     		.ascii	"x\000"
 10468 0df1 01       		.byte	0x1
 10469 0df2 7B03     		.2byte	0x37b
 10470 0df4 81000000 		.4byte	0x81
 10471 0df8 02       		.uleb128 0x2
 10472 0df9 91       		.byte	0x91
 10473 0dfa 52       		.sleb128 -46
 10474 0dfb 00       		.byte	0
 10475 0dfc 10       		.uleb128 0x10
 10476 0dfd 98090000 		.4byte	.LBB99
 10477 0e01 28000000 		.4byte	.LBE99-.LBB99
 10478 0e05 170E0000 		.4byte	0xe17
 10479 0e09 12       		.uleb128 0x12
ARM GAS  C:\Users\Diego\AppData\Local\Temp\ccIAJaV8.s 			page 224


 10480 0e0a 7800     		.ascii	"x\000"
 10481 0e0c 01       		.byte	0x1
 10482 0e0d 8003     		.2byte	0x380
 10483 0e0f 81000000 		.4byte	0x81
 10484 0e13 02       		.uleb128 0x2
 10485 0e14 91       		.byte	0x91
 10486 0e15 51       		.sleb128 -47
 10487 0e16 00       		.byte	0
 10488 0e17 10       		.uleb128 0x10
 10489 0e18 CA090000 		.4byte	.LBB100
 10490 0e1c 4E000000 		.4byte	.LBE100-.LBB100
 10491 0e20 320E0000 		.4byte	0xe32
 10492 0e24 12       		.uleb128 0x12
 10493 0e25 7800     		.ascii	"x\000"
 10494 0e27 01       		.byte	0x1
 10495 0e28 8403     		.2byte	0x384
 10496 0e2a 81000000 		.4byte	0x81
 10497 0e2e 02       		.uleb128 0x2
 10498 0e2f 91       		.byte	0x91
 10499 0e30 50       		.sleb128 -48
 10500 0e31 00       		.byte	0
 10501 0e32 10       		.uleb128 0x10
 10502 0e33 220A0000 		.4byte	.LBB101
 10503 0e37 28000000 		.4byte	.LBE101-.LBB101
 10504 0e3b 4D0E0000 		.4byte	0xe4d
 10505 0e3f 12       		.uleb128 0x12
 10506 0e40 7800     		.ascii	"x\000"
 10507 0e42 01       		.byte	0x1
 10508 0e43 8803     		.2byte	0x388
 10509 0e45 81000000 		.4byte	0x81
 10510 0e49 02       		.uleb128 0x2
 10511 0e4a 91       		.byte	0x91
 10512 0e4b 4F       		.sleb128 -49
 10513 0e4c 00       		.byte	0
 10514 0e4d 10       		.uleb128 0x10
 10515 0e4e 4A0A0000 		.4byte	.LBB102
 10516 0e52 42000000 		.4byte	.LBE102-.LBB102
 10517 0e56 680E0000 		.4byte	0xe68
 10518 0e5a 12       		.uleb128 0x12
 10519 0e5b 7800     		.ascii	"x\000"
 10520 0e5d 01       		.byte	0x1
 10521 0e5e 8B03     		.2byte	0x38b
 10522 0e60 81000000 		.4byte	0x81
 10523 0e64 02       		.uleb128 0x2
 10524 0e65 91       		.byte	0x91
 10525 0e66 4E       		.sleb128 -50
 10526 0e67 00       		.byte	0
 10527 0e68 10       		.uleb128 0x10
 10528 0e69 960A0000 		.4byte	.LBB103
 10529 0e6d 28000000 		.4byte	.LBE103-.LBB103
 10530 0e71 830E0000 		.4byte	0xe83
 10531 0e75 12       		.uleb128 0x12
 10532 0e76 7800     		.ascii	"x\000"
 10533 0e78 01       		.byte	0x1
 10534 0e79 9103     		.2byte	0x391
 10535 0e7b 81000000 		.4byte	0x81
 10536 0e7f 02       		.uleb128 0x2
ARM GAS  C:\Users\Diego\AppData\Local\Temp\ccIAJaV8.s 			page 225


 10537 0e80 91       		.byte	0x91
 10538 0e81 4D       		.sleb128 -51
 10539 0e82 00       		.byte	0
 10540 0e83 10       		.uleb128 0x10
 10541 0e84 C80A0000 		.4byte	.LBB104
 10542 0e88 3C000000 		.4byte	.LBE104-.LBB104
 10543 0e8c 9E0E0000 		.4byte	0xe9e
 10544 0e90 12       		.uleb128 0x12
 10545 0e91 7800     		.ascii	"x\000"
 10546 0e93 01       		.byte	0x1
 10547 0e94 9503     		.2byte	0x395
 10548 0e96 81000000 		.4byte	0x81
 10549 0e9a 02       		.uleb128 0x2
 10550 0e9b 91       		.byte	0x91
 10551 0e9c 4C       		.sleb128 -52
 10552 0e9d 00       		.byte	0
 10553 0e9e 10       		.uleb128 0x10
 10554 0e9f 040B0000 		.4byte	.LBB105
 10555 0ea3 44000000 		.4byte	.LBE105-.LBB105
 10556 0ea7 B90E0000 		.4byte	0xeb9
 10557 0eab 12       		.uleb128 0x12
 10558 0eac 7800     		.ascii	"x\000"
 10559 0eae 01       		.byte	0x1
 10560 0eaf 9803     		.2byte	0x398
 10561 0eb1 81000000 		.4byte	0x81
 10562 0eb5 02       		.uleb128 0x2
 10563 0eb6 91       		.byte	0x91
 10564 0eb7 4B       		.sleb128 -53
 10565 0eb8 00       		.byte	0
 10566 0eb9 10       		.uleb128 0x10
 10567 0eba 480B0000 		.4byte	.LBB106
 10568 0ebe 6E000000 		.4byte	.LBE106-.LBB106
 10569 0ec2 D40E0000 		.4byte	0xed4
 10570 0ec6 12       		.uleb128 0x12
 10571 0ec7 7800     		.ascii	"x\000"
 10572 0ec9 01       		.byte	0x1
 10573 0eca 9D03     		.2byte	0x39d
 10574 0ecc 81000000 		.4byte	0x81
 10575 0ed0 02       		.uleb128 0x2
 10576 0ed1 91       		.byte	0x91
 10577 0ed2 4A       		.sleb128 -54
 10578 0ed3 00       		.byte	0
 10579 0ed4 10       		.uleb128 0x10
 10580 0ed5 F40B0000 		.4byte	.LBB107
 10581 0ed9 28000000 		.4byte	.LBE107-.LBB107
 10582 0edd EF0E0000 		.4byte	0xeef
 10583 0ee1 12       		.uleb128 0x12
 10584 0ee2 7800     		.ascii	"x\000"
 10585 0ee4 01       		.byte	0x1
 10586 0ee5 A903     		.2byte	0x3a9
 10587 0ee7 81000000 		.4byte	0x81
 10588 0eeb 02       		.uleb128 0x2
 10589 0eec 91       		.byte	0x91
 10590 0eed 49       		.sleb128 -55
 10591 0eee 00       		.byte	0
 10592 0eef 10       		.uleb128 0x10
 10593 0ef0 260C0000 		.4byte	.LBB108
ARM GAS  C:\Users\Diego\AppData\Local\Temp\ccIAJaV8.s 			page 226


 10594 0ef4 44000000 		.4byte	.LBE108-.LBB108
 10595 0ef8 0A0F0000 		.4byte	0xf0a
 10596 0efc 12       		.uleb128 0x12
 10597 0efd 7800     		.ascii	"x\000"
 10598 0eff 01       		.byte	0x1
 10599 0f00 AD03     		.2byte	0x3ad
 10600 0f02 81000000 		.4byte	0x81
 10601 0f06 02       		.uleb128 0x2
 10602 0f07 91       		.byte	0x91
 10603 0f08 48       		.sleb128 -56
 10604 0f09 00       		.byte	0
 10605 0f0a 10       		.uleb128 0x10
 10606 0f0b 6A0C0000 		.4byte	.LBB109
 10607 0f0f 38000000 		.4byte	.LBE109-.LBB109
 10608 0f13 250F0000 		.4byte	0xf25
 10609 0f17 12       		.uleb128 0x12
 10610 0f18 7800     		.ascii	"x\000"
 10611 0f1a 01       		.byte	0x1
 10612 0f1b B203     		.2byte	0x3b2
 10613 0f1d 81000000 		.4byte	0x81
 10614 0f21 02       		.uleb128 0x2
 10615 0f22 91       		.byte	0x91
 10616 0f23 47       		.sleb128 -57
 10617 0f24 00       		.byte	0
 10618 0f25 10       		.uleb128 0x10
 10619 0f26 AC0C0000 		.4byte	.LBB110
 10620 0f2a 28000000 		.4byte	.LBE110-.LBB110
 10621 0f2e 400F0000 		.4byte	0xf40
 10622 0f32 12       		.uleb128 0x12
 10623 0f33 7800     		.ascii	"x\000"
 10624 0f35 01       		.byte	0x1
 10625 0f36 CC03     		.2byte	0x3cc
 10626 0f38 81000000 		.4byte	0x81
 10627 0f3c 02       		.uleb128 0x2
 10628 0f3d 91       		.byte	0x91
 10629 0f3e 46       		.sleb128 -58
 10630 0f3f 00       		.byte	0
 10631 0f40 10       		.uleb128 0x10
 10632 0f41 DE0C0000 		.4byte	.LBB111
 10633 0f45 28000000 		.4byte	.LBE111-.LBB111
 10634 0f49 5B0F0000 		.4byte	0xf5b
 10635 0f4d 12       		.uleb128 0x12
 10636 0f4e 7800     		.ascii	"x\000"
 10637 0f50 01       		.byte	0x1
 10638 0f51 D003     		.2byte	0x3d0
 10639 0f53 81000000 		.4byte	0x81
 10640 0f57 02       		.uleb128 0x2
 10641 0f58 91       		.byte	0x91
 10642 0f59 45       		.sleb128 -59
 10643 0f5a 00       		.byte	0
 10644 0f5b 10       		.uleb128 0x10
 10645 0f5c 2A0D0000 		.4byte	.LBB112
 10646 0f60 52000000 		.4byte	.LBE112-.LBB112
 10647 0f64 760F0000 		.4byte	0xf76
 10648 0f68 12       		.uleb128 0x12
 10649 0f69 7800     		.ascii	"x\000"
 10650 0f6b 01       		.byte	0x1
ARM GAS  C:\Users\Diego\AppData\Local\Temp\ccIAJaV8.s 			page 227


 10651 0f6c D603     		.2byte	0x3d6
 10652 0f6e 81000000 		.4byte	0x81
 10653 0f72 02       		.uleb128 0x2
 10654 0f73 91       		.byte	0x91
 10655 0f74 44       		.sleb128 -60
 10656 0f75 00       		.byte	0
 10657 0f76 10       		.uleb128 0x10
 10658 0f77 860D0000 		.4byte	.LBB113
 10659 0f7b 28000000 		.4byte	.LBE113-.LBB113
 10660 0f7f 910F0000 		.4byte	0xf91
 10661 0f83 12       		.uleb128 0x12
 10662 0f84 7800     		.ascii	"x\000"
 10663 0f86 01       		.byte	0x1
 10664 0f87 DB03     		.2byte	0x3db
 10665 0f89 81000000 		.4byte	0x81
 10666 0f8d 02       		.uleb128 0x2
 10667 0f8e 91       		.byte	0x91
 10668 0f8f 43       		.sleb128 -61
 10669 0f90 00       		.byte	0
 10670 0f91 10       		.uleb128 0x10
 10671 0f92 B80D0000 		.4byte	.LBB114
 10672 0f96 28000000 		.4byte	.LBE114-.LBB114
 10673 0f9a AC0F0000 		.4byte	0xfac
 10674 0f9e 12       		.uleb128 0x12
 10675 0f9f 7800     		.ascii	"x\000"
 10676 0fa1 01       		.byte	0x1
 10677 0fa2 DF03     		.2byte	0x3df
 10678 0fa4 81000000 		.4byte	0x81
 10679 0fa8 02       		.uleb128 0x2
 10680 0fa9 91       		.byte	0x91
 10681 0faa 42       		.sleb128 -62
 10682 0fab 00       		.byte	0
 10683 0fac 10       		.uleb128 0x10
 10684 0fad E00D0000 		.4byte	.LBB115
 10685 0fb1 42000000 		.4byte	.LBE115-.LBB115
 10686 0fb5 C70F0000 		.4byte	0xfc7
 10687 0fb9 12       		.uleb128 0x12
 10688 0fba 7800     		.ascii	"x\000"
 10689 0fbc 01       		.byte	0x1
 10690 0fbd E203     		.2byte	0x3e2
 10691 0fbf 81000000 		.4byte	0x81
 10692 0fc3 02       		.uleb128 0x2
 10693 0fc4 91       		.byte	0x91
 10694 0fc5 41       		.sleb128 -63
 10695 0fc6 00       		.byte	0
 10696 0fc7 10       		.uleb128 0x10
 10697 0fc8 2C0E0000 		.4byte	.LBB116
 10698 0fcc 28000000 		.4byte	.LBE116-.LBB116
 10699 0fd0 E20F0000 		.4byte	0xfe2
 10700 0fd4 12       		.uleb128 0x12
 10701 0fd5 7800     		.ascii	"x\000"
 10702 0fd7 01       		.byte	0x1
 10703 0fd8 E903     		.2byte	0x3e9
 10704 0fda 81000000 		.4byte	0x81
 10705 0fde 02       		.uleb128 0x2
 10706 0fdf 91       		.byte	0x91
 10707 0fe0 40       		.sleb128 -64
ARM GAS  C:\Users\Diego\AppData\Local\Temp\ccIAJaV8.s 			page 228


 10708 0fe1 00       		.byte	0
 10709 0fe2 10       		.uleb128 0x10
 10710 0fe3 5E0E0000 		.4byte	.LBB117
 10711 0fe7 3C000000 		.4byte	.LBE117-.LBB117
 10712 0feb FE0F0000 		.4byte	0xffe
 10713 0fef 12       		.uleb128 0x12
 10714 0ff0 7800     		.ascii	"x\000"
 10715 0ff2 01       		.byte	0x1
 10716 0ff3 ED03     		.2byte	0x3ed
 10717 0ff5 81000000 		.4byte	0x81
 10718 0ff9 03       		.uleb128 0x3
 10719 0ffa 91       		.byte	0x91
 10720 0ffb BF7F     		.sleb128 -65
 10721 0ffd 00       		.byte	0
 10722 0ffe 10       		.uleb128 0x10
 10723 0fff 9A0E0000 		.4byte	.LBB118
 10724 1003 44000000 		.4byte	.LBE118-.LBB118
 10725 1007 1A100000 		.4byte	0x101a
 10726 100b 12       		.uleb128 0x12
 10727 100c 7800     		.ascii	"x\000"
 10728 100e 01       		.byte	0x1
 10729 100f F003     		.2byte	0x3f0
 10730 1011 81000000 		.4byte	0x81
 10731 1015 03       		.uleb128 0x3
 10732 1016 91       		.byte	0x91
 10733 1017 BE7F     		.sleb128 -66
 10734 1019 00       		.byte	0
 10735 101a 10       		.uleb128 0x10
 10736 101b E80E0000 		.4byte	.LBB119
 10737 101f 6E000000 		.4byte	.LBE119-.LBB119
 10738 1023 36100000 		.4byte	0x1036
 10739 1027 12       		.uleb128 0x12
 10740 1028 7800     		.ascii	"x\000"
 10741 102a 01       		.byte	0x1
 10742 102b F603     		.2byte	0x3f6
 10743 102d 81000000 		.4byte	0x81
 10744 1031 03       		.uleb128 0x3
 10745 1032 91       		.byte	0x91
 10746 1033 BD7F     		.sleb128 -67
 10747 1035 00       		.byte	0
 10748 1036 10       		.uleb128 0x10
 10749 1037 8A0F0000 		.4byte	.LBB120
 10750 103b 28000000 		.4byte	.LBE120-.LBB120
 10751 103f 52100000 		.4byte	0x1052
 10752 1043 12       		.uleb128 0x12
 10753 1044 7800     		.ascii	"x\000"
 10754 1046 01       		.byte	0x1
 10755 1047 0104     		.2byte	0x401
 10756 1049 81000000 		.4byte	0x81
 10757 104d 03       		.uleb128 0x3
 10758 104e 91       		.byte	0x91
 10759 104f BC7F     		.sleb128 -68
 10760 1051 00       		.byte	0
 10761 1052 10       		.uleb128 0x10
 10762 1053 BC0F0000 		.4byte	.LBB121
 10763 1057 44000000 		.4byte	.LBE121-.LBB121
 10764 105b 6E100000 		.4byte	0x106e
ARM GAS  C:\Users\Diego\AppData\Local\Temp\ccIAJaV8.s 			page 229


 10765 105f 12       		.uleb128 0x12
 10766 1060 7800     		.ascii	"x\000"
 10767 1062 01       		.byte	0x1
 10768 1063 0504     		.2byte	0x405
 10769 1065 81000000 		.4byte	0x81
 10770 1069 03       		.uleb128 0x3
 10771 106a 91       		.byte	0x91
 10772 106b BB7F     		.sleb128 -69
 10773 106d 00       		.byte	0
 10774 106e 10       		.uleb128 0x10
 10775 106f 00100000 		.4byte	.LBB122
 10776 1073 38000000 		.4byte	.LBE122-.LBB122
 10777 1077 8A100000 		.4byte	0x108a
 10778 107b 12       		.uleb128 0x12
 10779 107c 7800     		.ascii	"x\000"
 10780 107e 01       		.byte	0x1
 10781 107f 0A04     		.2byte	0x40a
 10782 1081 81000000 		.4byte	0x81
 10783 1085 03       		.uleb128 0x3
 10784 1086 91       		.byte	0x91
 10785 1087 BA7F     		.sleb128 -70
 10786 1089 00       		.byte	0
 10787 108a 10       		.uleb128 0x10
 10788 108b 4C100000 		.4byte	.LBB123
 10789 108f 28000000 		.4byte	.LBE123-.LBB123
 10790 1093 A6100000 		.4byte	0x10a6
 10791 1097 12       		.uleb128 0x12
 10792 1098 7800     		.ascii	"x\000"
 10793 109a 01       		.byte	0x1
 10794 109b 1004     		.2byte	0x410
 10795 109d 81000000 		.4byte	0x81
 10796 10a1 03       		.uleb128 0x3
 10797 10a2 91       		.byte	0x91
 10798 10a3 B97F     		.sleb128 -71
 10799 10a5 00       		.byte	0
 10800 10a6 10       		.uleb128 0x10
 10801 10a7 7E100000 		.4byte	.LBB124
 10802 10ab 28000000 		.4byte	.LBE124-.LBB124
 10803 10af C2100000 		.4byte	0x10c2
 10804 10b3 12       		.uleb128 0x12
 10805 10b4 7800     		.ascii	"x\000"
 10806 10b6 01       		.byte	0x1
 10807 10b7 1404     		.2byte	0x414
 10808 10b9 81000000 		.4byte	0x81
 10809 10bd 03       		.uleb128 0x3
 10810 10be 91       		.byte	0x91
 10811 10bf B87F     		.sleb128 -72
 10812 10c1 00       		.byte	0
 10813 10c2 10       		.uleb128 0x10
 10814 10c3 A6100000 		.4byte	.LBB125
 10815 10c7 6C000000 		.4byte	.LBE125-.LBB125
 10816 10cb DE100000 		.4byte	0x10de
 10817 10cf 12       		.uleb128 0x12
 10818 10d0 7800     		.ascii	"x\000"
 10819 10d2 01       		.byte	0x1
 10820 10d3 1704     		.2byte	0x417
 10821 10d5 81000000 		.4byte	0x81
ARM GAS  C:\Users\Diego\AppData\Local\Temp\ccIAJaV8.s 			page 230


 10822 10d9 03       		.uleb128 0x3
 10823 10da 91       		.byte	0x91
 10824 10db B77F     		.sleb128 -73
 10825 10dd 00       		.byte	0
 10826 10de 10       		.uleb128 0x10
 10827 10df 1C110000 		.4byte	.LBB126
 10828 10e3 28000000 		.4byte	.LBE126-.LBB126
 10829 10e7 FA100000 		.4byte	0x10fa
 10830 10eb 12       		.uleb128 0x12
 10831 10ec 7800     		.ascii	"x\000"
 10832 10ee 01       		.byte	0x1
 10833 10ef 1D04     		.2byte	0x41d
 10834 10f1 81000000 		.4byte	0x81
 10835 10f5 03       		.uleb128 0x3
 10836 10f6 91       		.byte	0x91
 10837 10f7 B67F     		.sleb128 -74
 10838 10f9 00       		.byte	0
 10839 10fa 10       		.uleb128 0x10
 10840 10fb 4E110000 		.4byte	.LBB127
 10841 10ff 3C000000 		.4byte	.LBE127-.LBB127
 10842 1103 16110000 		.4byte	0x1116
 10843 1107 12       		.uleb128 0x12
 10844 1108 7800     		.ascii	"x\000"
 10845 110a 01       		.byte	0x1
 10846 110b 2104     		.2byte	0x421
 10847 110d 81000000 		.4byte	0x81
 10848 1111 03       		.uleb128 0x3
 10849 1112 91       		.byte	0x91
 10850 1113 B57F     		.sleb128 -75
 10851 1115 00       		.byte	0
 10852 1116 10       		.uleb128 0x10
 10853 1117 8A110000 		.4byte	.LBB128
 10854 111b 44000000 		.4byte	.LBE128-.LBB128
 10855 111f 32110000 		.4byte	0x1132
 10856 1123 12       		.uleb128 0x12
 10857 1124 7800     		.ascii	"x\000"
 10858 1126 01       		.byte	0x1
 10859 1127 2404     		.2byte	0x424
 10860 1129 81000000 		.4byte	0x81
 10861 112d 03       		.uleb128 0x3
 10862 112e 91       		.byte	0x91
 10863 112f B47F     		.sleb128 -76
 10864 1131 00       		.byte	0
 10865 1132 10       		.uleb128 0x10
 10866 1133 D8110000 		.4byte	.LBB129
 10867 1137 6E000000 		.4byte	.LBE129-.LBB129
 10868 113b 4E110000 		.4byte	0x114e
 10869 113f 12       		.uleb128 0x12
 10870 1140 7800     		.ascii	"x\000"
 10871 1142 01       		.byte	0x1
 10872 1143 2A04     		.2byte	0x42a
 10873 1145 81000000 		.4byte	0x81
 10874 1149 03       		.uleb128 0x3
 10875 114a 91       		.byte	0x91
 10876 114b B37F     		.sleb128 -77
 10877 114d 00       		.byte	0
 10878 114e 10       		.uleb128 0x10
ARM GAS  C:\Users\Diego\AppData\Local\Temp\ccIAJaV8.s 			page 231


 10879 114f 7A120000 		.4byte	.LBB130
 10880 1153 28000000 		.4byte	.LBE130-.LBB130
 10881 1157 6A110000 		.4byte	0x116a
 10882 115b 12       		.uleb128 0x12
 10883 115c 7800     		.ascii	"x\000"
 10884 115e 01       		.byte	0x1
 10885 115f 3504     		.2byte	0x435
 10886 1161 81000000 		.4byte	0x81
 10887 1165 03       		.uleb128 0x3
 10888 1166 91       		.byte	0x91
 10889 1167 B27F     		.sleb128 -78
 10890 1169 00       		.byte	0
 10891 116a 10       		.uleb128 0x10
 10892 116b AC120000 		.4byte	.LBB131
 10893 116f 44000000 		.4byte	.LBE131-.LBB131
 10894 1173 86110000 		.4byte	0x1186
 10895 1177 12       		.uleb128 0x12
 10896 1178 7800     		.ascii	"x\000"
 10897 117a 01       		.byte	0x1
 10898 117b 3904     		.2byte	0x439
 10899 117d 81000000 		.4byte	0x81
 10900 1181 03       		.uleb128 0x3
 10901 1182 91       		.byte	0x91
 10902 1183 B17F     		.sleb128 -79
 10903 1185 00       		.byte	0
 10904 1186 10       		.uleb128 0x10
 10905 1187 F0120000 		.4byte	.LBB132
 10906 118b 38000000 		.4byte	.LBE132-.LBB132
 10907 118f A2110000 		.4byte	0x11a2
 10908 1193 12       		.uleb128 0x12
 10909 1194 7800     		.ascii	"x\000"
 10910 1196 01       		.byte	0x1
 10911 1197 3E04     		.2byte	0x43e
 10912 1199 81000000 		.4byte	0x81
 10913 119d 03       		.uleb128 0x3
 10914 119e 91       		.byte	0x91
 10915 119f B07F     		.sleb128 -80
 10916 11a1 00       		.byte	0
 10917 11a2 10       		.uleb128 0x10
 10918 11a3 3E130000 		.4byte	.LBB133
 10919 11a7 28000000 		.4byte	.LBE133-.LBB133
 10920 11ab BE110000 		.4byte	0x11be
 10921 11af 12       		.uleb128 0x12
 10922 11b0 7800     		.ascii	"x\000"
 10923 11b2 01       		.byte	0x1
 10924 11b3 5404     		.2byte	0x454
 10925 11b5 81000000 		.4byte	0x81
 10926 11b9 03       		.uleb128 0x3
 10927 11ba 91       		.byte	0x91
 10928 11bb AF7F     		.sleb128 -81
 10929 11bd 00       		.byte	0
 10930 11be 10       		.uleb128 0x10
 10931 11bf 70130000 		.4byte	.LBB134
 10932 11c3 28000000 		.4byte	.LBE134-.LBB134
 10933 11c7 DA110000 		.4byte	0x11da
 10934 11cb 12       		.uleb128 0x12
 10935 11cc 7800     		.ascii	"x\000"
ARM GAS  C:\Users\Diego\AppData\Local\Temp\ccIAJaV8.s 			page 232


 10936 11ce 01       		.byte	0x1
 10937 11cf 5804     		.2byte	0x458
 10938 11d1 81000000 		.4byte	0x81
 10939 11d5 03       		.uleb128 0x3
 10940 11d6 91       		.byte	0x91
 10941 11d7 AE7F     		.sleb128 -82
 10942 11d9 00       		.byte	0
 10943 11da 10       		.uleb128 0x10
 10944 11db B2130000 		.4byte	.LBB135
 10945 11df 42000000 		.4byte	.LBE135-.LBB135
 10946 11e3 F6110000 		.4byte	0x11f6
 10947 11e7 12       		.uleb128 0x12
 10948 11e8 7800     		.ascii	"x\000"
 10949 11ea 01       		.byte	0x1
 10950 11eb 5D04     		.2byte	0x45d
 10951 11ed 81000000 		.4byte	0x81
 10952 11f1 03       		.uleb128 0x3
 10953 11f2 91       		.byte	0x91
 10954 11f3 AD7F     		.sleb128 -83
 10955 11f5 00       		.byte	0
 10956 11f6 10       		.uleb128 0x10
 10957 11f7 FE130000 		.4byte	.LBB136
 10958 11fb 4E000000 		.4byte	.LBE136-.LBB136
 10959 11ff 12120000 		.4byte	0x1212
 10960 1203 12       		.uleb128 0x12
 10961 1204 7800     		.ascii	"x\000"
 10962 1206 01       		.byte	0x1
 10963 1207 6304     		.2byte	0x463
 10964 1209 81000000 		.4byte	0x81
 10965 120d 03       		.uleb128 0x3
 10966 120e 91       		.byte	0x91
 10967 120f AC7F     		.sleb128 -84
 10968 1211 00       		.byte	0
 10969 1212 10       		.uleb128 0x10
 10970 1213 56140000 		.4byte	.LBB137
 10971 1217 28000000 		.4byte	.LBE137-.LBB137
 10972 121b 2E120000 		.4byte	0x122e
 10973 121f 12       		.uleb128 0x12
 10974 1220 7800     		.ascii	"x\000"
 10975 1222 01       		.byte	0x1
 10976 1223 6704     		.2byte	0x467
 10977 1225 81000000 		.4byte	0x81
 10978 1229 03       		.uleb128 0x3
 10979 122a 91       		.byte	0x91
 10980 122b AB7F     		.sleb128 -85
 10981 122d 00       		.byte	0
 10982 122e 10       		.uleb128 0x10
 10983 122f 88140000 		.4byte	.LBB138
 10984 1233 28000000 		.4byte	.LBE138-.LBB138
 10985 1237 4A120000 		.4byte	0x124a
 10986 123b 12       		.uleb128 0x12
 10987 123c 7800     		.ascii	"x\000"
 10988 123e 01       		.byte	0x1
 10989 123f 6B04     		.2byte	0x46b
 10990 1241 81000000 		.4byte	0x81
 10991 1245 03       		.uleb128 0x3
 10992 1246 91       		.byte	0x91
ARM GAS  C:\Users\Diego\AppData\Local\Temp\ccIAJaV8.s 			page 233


 10993 1247 AA7F     		.sleb128 -86
 10994 1249 00       		.byte	0
 10995 124a 10       		.uleb128 0x10
 10996 124b CA140000 		.4byte	.LBB139
 10997 124f 42000000 		.4byte	.LBE139-.LBB139
 10998 1253 66120000 		.4byte	0x1266
 10999 1257 12       		.uleb128 0x12
 11000 1258 7800     		.ascii	"x\000"
 11001 125a 01       		.byte	0x1
 11002 125b 7004     		.2byte	0x470
 11003 125d 81000000 		.4byte	0x81
 11004 1261 03       		.uleb128 0x3
 11005 1262 91       		.byte	0x91
 11006 1263 A97F     		.sleb128 -87
 11007 1265 00       		.byte	0
 11008 1266 10       		.uleb128 0x10
 11009 1267 16150000 		.4byte	.LBB140
 11010 126b 28000000 		.4byte	.LBE140-.LBB140
 11011 126f 82120000 		.4byte	0x1282
 11012 1273 12       		.uleb128 0x12
 11013 1274 7800     		.ascii	"x\000"
 11014 1276 01       		.byte	0x1
 11015 1277 7604     		.2byte	0x476
 11016 1279 81000000 		.4byte	0x81
 11017 127d 03       		.uleb128 0x3
 11018 127e 91       		.byte	0x91
 11019 127f A87F     		.sleb128 -88
 11020 1281 00       		.byte	0
 11021 1282 10       		.uleb128 0x10
 11022 1283 3E150000 		.4byte	.LBB141
 11023 1287 28000000 		.4byte	.LBE141-.LBB141
 11024 128b 9E120000 		.4byte	0x129e
 11025 128f 12       		.uleb128 0x12
 11026 1290 7800     		.ascii	"x\000"
 11027 1292 01       		.byte	0x1
 11028 1293 7A04     		.2byte	0x47a
 11029 1295 81000000 		.4byte	0x81
 11030 1299 03       		.uleb128 0x3
 11031 129a 91       		.byte	0x91
 11032 129b A77F     		.sleb128 -89
 11033 129d 00       		.byte	0
 11034 129e 10       		.uleb128 0x10
 11035 129f 70150000 		.4byte	.LBB142
 11036 12a3 28000000 		.4byte	.LBE142-.LBB142
 11037 12a7 BA120000 		.4byte	0x12ba
 11038 12ab 12       		.uleb128 0x12
 11039 12ac 7800     		.ascii	"x\000"
 11040 12ae 01       		.byte	0x1
 11041 12af 8004     		.2byte	0x480
 11042 12b1 81000000 		.4byte	0x81
 11043 12b5 03       		.uleb128 0x3
 11044 12b6 91       		.byte	0x91
 11045 12b7 A67F     		.sleb128 -90
 11046 12b9 00       		.byte	0
 11047 12ba 10       		.uleb128 0x10
 11048 12bb A2150000 		.4byte	.LBB143
 11049 12bf 28000000 		.4byte	.LBE143-.LBB143
ARM GAS  C:\Users\Diego\AppData\Local\Temp\ccIAJaV8.s 			page 234


 11050 12c3 D6120000 		.4byte	0x12d6
 11051 12c7 12       		.uleb128 0x12
 11052 12c8 7800     		.ascii	"x\000"
 11053 12ca 01       		.byte	0x1
 11054 12cb 8404     		.2byte	0x484
 11055 12cd 81000000 		.4byte	0x81
 11056 12d1 03       		.uleb128 0x3
 11057 12d2 91       		.byte	0x91
 11058 12d3 A57F     		.sleb128 -91
 11059 12d5 00       		.byte	0
 11060 12d6 13       		.uleb128 0x13
 11061 12d7 D4150000 		.4byte	.LBB144
 11062 12db 28000000 		.4byte	.LBE144-.LBB144
 11063 12df 12       		.uleb128 0x12
 11064 12e0 7800     		.ascii	"x\000"
 11065 12e2 01       		.byte	0x1
 11066 12e3 8804     		.2byte	0x488
 11067 12e5 81000000 		.4byte	0x81
 11068 12e9 03       		.uleb128 0x3
 11069 12ea 91       		.byte	0x91
 11070 12eb A47F     		.sleb128 -92
 11071 12ed 00       		.byte	0
 11072 12ee 00       		.byte	0
 11073 12ef 0B       		.uleb128 0xb
 11074 12f0 B3000000 		.4byte	0xb3
 11075 12f4 FF120000 		.4byte	0x12ff
 11076 12f8 0C       		.uleb128 0xc
 11077 12f9 CD000000 		.4byte	0xcd
 11078 12fd 09       		.byte	0x9
 11079 12fe 00       		.byte	0
 11080 12ff 14       		.uleb128 0x14
 11081 1300 AB010000 		.4byte	.LASF50
 11082 1304 01       		.byte	0x1
 11083 1305 9304     		.2byte	0x493
 11084 1307 00000000 		.4byte	.LFB66
 11085 130b D0120000 		.4byte	.LFE66-.LFB66
 11086 130f 01       		.uleb128 0x1
 11087 1310 9C       		.byte	0x9c
 11088 1311 BA1A0000 		.4byte	0x1aba
 11089 1315 16       		.uleb128 0x16
 11090 1316 5F050000 		.4byte	.LASF51
 11091 131a 01       		.byte	0x1
 11092 131b 9304     		.2byte	0x493
 11093 131d 81000000 		.4byte	0x81
 11094 1321 03       		.uleb128 0x3
 11095 1322 91       		.byte	0x91
 11096 1323 A77F     		.sleb128 -89
 11097 1325 15       		.uleb128 0x15
 11098 1326 86050000 		.4byte	.LASF38
 11099 132a 01       		.byte	0x1
 11100 132b 9404     		.2byte	0x494
 11101 132d 99000000 		.4byte	0x99
 11102 1331 03       		.uleb128 0x3
 11103 1332 91       		.byte	0x91
 11104 1333 A97F     		.sleb128 -87
 11105 1335 17       		.uleb128 0x17
 11106 1336 3C000000 		.4byte	.LASF39
ARM GAS  C:\Users\Diego\AppData\Local\Temp\ccIAJaV8.s 			page 235


 11107 133a 01       		.byte	0x1
 11108 133b 9404     		.2byte	0x494
 11109 133d 99000000 		.4byte	0x99
 11110 1341 10       		.uleb128 0x10
 11111 1342 60010000 		.4byte	.LBB145
 11112 1346 30000000 		.4byte	.LBE145-.LBB145
 11113 134a 5C130000 		.4byte	0x135c
 11114 134e 12       		.uleb128 0x12
 11115 134f 6900     		.ascii	"i\000"
 11116 1351 01       		.byte	0x1
 11117 1352 9B04     		.2byte	0x49b
 11118 1354 81000000 		.4byte	0x81
 11119 1358 02       		.uleb128 0x2
 11120 1359 91       		.byte	0x91
 11121 135a 6F       		.sleb128 -17
 11122 135b 00       		.byte	0
 11123 135c 10       		.uleb128 0x10
 11124 135d 90010000 		.4byte	.LBB146
 11125 1361 28000000 		.4byte	.LBE146-.LBB146
 11126 1365 79130000 		.4byte	0x1379
 11127 1369 15       		.uleb128 0x15
 11128 136a 16020000 		.4byte	.LASF40
 11129 136e 01       		.byte	0x1
 11130 136f 9F04     		.2byte	0x49f
 11131 1371 81000000 		.4byte	0x81
 11132 1375 02       		.uleb128 0x2
 11133 1376 91       		.byte	0x91
 11134 1377 6E       		.sleb128 -18
 11135 1378 00       		.byte	0
 11136 1379 10       		.uleb128 0x10
 11137 137a D6010000 		.4byte	.LBB147
 11138 137e 2E000000 		.4byte	.LBE147-.LBB147
 11139 1382 96130000 		.4byte	0x1396
 11140 1386 15       		.uleb128 0x15
 11141 1387 16020000 		.4byte	.LASF40
 11142 138b 01       		.byte	0x1
 11143 138c A704     		.2byte	0x4a7
 11144 138e 81000000 		.4byte	0x81
 11145 1392 02       		.uleb128 0x2
 11146 1393 91       		.byte	0x91
 11147 1394 6D       		.sleb128 -19
 11148 1395 00       		.byte	0
 11149 1396 10       		.uleb128 0x10
 11150 1397 08020000 		.4byte	.LBB148
 11151 139b 28000000 		.4byte	.LBE148-.LBB148
 11152 139f B1130000 		.4byte	0x13b1
 11153 13a3 12       		.uleb128 0x12
 11154 13a4 7800     		.ascii	"x\000"
 11155 13a6 01       		.byte	0x1
 11156 13a7 AD04     		.2byte	0x4ad
 11157 13a9 81000000 		.4byte	0x81
 11158 13ad 02       		.uleb128 0x2
 11159 13ae 91       		.byte	0x91
 11160 13af 6C       		.sleb128 -20
 11161 13b0 00       		.byte	0
 11162 13b1 10       		.uleb128 0x10
 11163 13b2 3A020000 		.4byte	.LBB149
ARM GAS  C:\Users\Diego\AppData\Local\Temp\ccIAJaV8.s 			page 236


 11164 13b6 28000000 		.4byte	.LBE149-.LBB149
 11165 13ba CC130000 		.4byte	0x13cc
 11166 13be 12       		.uleb128 0x12
 11167 13bf 7800     		.ascii	"x\000"
 11168 13c1 01       		.byte	0x1
 11169 13c2 B104     		.2byte	0x4b1
 11170 13c4 81000000 		.4byte	0x81
 11171 13c8 02       		.uleb128 0x2
 11172 13c9 91       		.byte	0x91
 11173 13ca 6B       		.sleb128 -21
 11174 13cb 00       		.byte	0
 11175 13cc 10       		.uleb128 0x10
 11176 13cd 76020000 		.4byte	.LBB150
 11177 13d1 28000000 		.4byte	.LBE150-.LBB150
 11178 13d5 E7130000 		.4byte	0x13e7
 11179 13d9 12       		.uleb128 0x12
 11180 13da 7800     		.ascii	"x\000"
 11181 13dc 01       		.byte	0x1
 11182 13dd B604     		.2byte	0x4b6
 11183 13df 81000000 		.4byte	0x81
 11184 13e3 02       		.uleb128 0x2
 11185 13e4 91       		.byte	0x91
 11186 13e5 6A       		.sleb128 -22
 11187 13e6 00       		.byte	0
 11188 13e7 10       		.uleb128 0x10
 11189 13e8 9E020000 		.4byte	.LBB151
 11190 13ec 2A000000 		.4byte	.LBE151-.LBB151
 11191 13f0 02140000 		.4byte	0x1402
 11192 13f4 12       		.uleb128 0x12
 11193 13f5 7800     		.ascii	"x\000"
 11194 13f7 01       		.byte	0x1
 11195 13f8 B904     		.2byte	0x4b9
 11196 13fa 81000000 		.4byte	0x81
 11197 13fe 02       		.uleb128 0x2
 11198 13ff 91       		.byte	0x91
 11199 1400 69       		.sleb128 -23
 11200 1401 00       		.byte	0
 11201 1402 10       		.uleb128 0x10
 11202 1403 C8020000 		.4byte	.LBB152
 11203 1407 28000000 		.4byte	.LBE152-.LBB152
 11204 140b 1D140000 		.4byte	0x141d
 11205 140f 12       		.uleb128 0x12
 11206 1410 7800     		.ascii	"x\000"
 11207 1412 01       		.byte	0x1
 11208 1413 BD04     		.2byte	0x4bd
 11209 1415 81000000 		.4byte	0x81
 11210 1419 02       		.uleb128 0x2
 11211 141a 91       		.byte	0x91
 11212 141b 68       		.sleb128 -24
 11213 141c 00       		.byte	0
 11214 141d 10       		.uleb128 0x10
 11215 141e F0020000 		.4byte	.LBB153
 11216 1422 28000000 		.4byte	.LBE153-.LBB153
 11217 1426 38140000 		.4byte	0x1438
 11218 142a 12       		.uleb128 0x12
 11219 142b 7800     		.ascii	"x\000"
 11220 142d 01       		.byte	0x1
ARM GAS  C:\Users\Diego\AppData\Local\Temp\ccIAJaV8.s 			page 237


 11221 142e C004     		.2byte	0x4c0
 11222 1430 81000000 		.4byte	0x81
 11223 1434 02       		.uleb128 0x2
 11224 1435 91       		.byte	0x91
 11225 1436 67       		.sleb128 -25
 11226 1437 00       		.byte	0
 11227 1438 10       		.uleb128 0x10
 11228 1439 2E030000 		.4byte	.LBB154
 11229 143d 62000000 		.4byte	.LBE154-.LBB154
 11230 1441 53140000 		.4byte	0x1453
 11231 1445 12       		.uleb128 0x12
 11232 1446 7800     		.ascii	"x\000"
 11233 1448 01       		.byte	0x1
 11234 1449 C704     		.2byte	0x4c7
 11235 144b 81000000 		.4byte	0x81
 11236 144f 02       		.uleb128 0x2
 11237 1450 91       		.byte	0x91
 11238 1451 66       		.sleb128 -26
 11239 1452 00       		.byte	0
 11240 1453 10       		.uleb128 0x10
 11241 1454 9A030000 		.4byte	.LBB155
 11242 1458 28000000 		.4byte	.LBE155-.LBB155
 11243 145c 6E140000 		.4byte	0x146e
 11244 1460 12       		.uleb128 0x12
 11245 1461 7800     		.ascii	"x\000"
 11246 1463 01       		.byte	0x1
 11247 1464 CB04     		.2byte	0x4cb
 11248 1466 81000000 		.4byte	0x81
 11249 146a 02       		.uleb128 0x2
 11250 146b 91       		.byte	0x91
 11251 146c 65       		.sleb128 -27
 11252 146d 00       		.byte	0
 11253 146e 10       		.uleb128 0x10
 11254 146f CC030000 		.4byte	.LBB156
 11255 1473 28000000 		.4byte	.LBE156-.LBB156
 11256 1477 89140000 		.4byte	0x1489
 11257 147b 12       		.uleb128 0x12
 11258 147c 7800     		.ascii	"x\000"
 11259 147e 01       		.byte	0x1
 11260 147f CF04     		.2byte	0x4cf
 11261 1481 81000000 		.4byte	0x81
 11262 1485 02       		.uleb128 0x2
 11263 1486 91       		.byte	0x91
 11264 1487 64       		.sleb128 -28
 11265 1488 00       		.byte	0
 11266 1489 10       		.uleb128 0x10
 11267 148a FE030000 		.4byte	.LBB157
 11268 148e 28000000 		.4byte	.LBE157-.LBB157
 11269 1492 A4140000 		.4byte	0x14a4
 11270 1496 12       		.uleb128 0x12
 11271 1497 7800     		.ascii	"x\000"
 11272 1499 01       		.byte	0x1
 11273 149a D304     		.2byte	0x4d3
 11274 149c 81000000 		.4byte	0x81
 11275 14a0 02       		.uleb128 0x2
 11276 14a1 91       		.byte	0x91
 11277 14a2 63       		.sleb128 -29
ARM GAS  C:\Users\Diego\AppData\Local\Temp\ccIAJaV8.s 			page 238


 11278 14a3 00       		.byte	0
 11279 14a4 10       		.uleb128 0x10
 11280 14a5 30040000 		.4byte	.LBB158
 11281 14a9 28000000 		.4byte	.LBE158-.LBB158
 11282 14ad BF140000 		.4byte	0x14bf
 11283 14b1 12       		.uleb128 0x12
 11284 14b2 7800     		.ascii	"x\000"
 11285 14b4 01       		.byte	0x1
 11286 14b5 D704     		.2byte	0x4d7
 11287 14b7 81000000 		.4byte	0x81
 11288 14bb 02       		.uleb128 0x2
 11289 14bc 91       		.byte	0x91
 11290 14bd 62       		.sleb128 -30
 11291 14be 00       		.byte	0
 11292 14bf 10       		.uleb128 0x10
 11293 14c0 62040000 		.4byte	.LBB159
 11294 14c4 28000000 		.4byte	.LBE159-.LBB159
 11295 14c8 DA140000 		.4byte	0x14da
 11296 14cc 12       		.uleb128 0x12
 11297 14cd 7800     		.ascii	"x\000"
 11298 14cf 01       		.byte	0x1
 11299 14d0 DB04     		.2byte	0x4db
 11300 14d2 81000000 		.4byte	0x81
 11301 14d6 02       		.uleb128 0x2
 11302 14d7 91       		.byte	0x91
 11303 14d8 61       		.sleb128 -31
 11304 14d9 00       		.byte	0
 11305 14da 10       		.uleb128 0x10
 11306 14db 94040000 		.4byte	.LBB160
 11307 14df 28000000 		.4byte	.LBE160-.LBB160
 11308 14e3 F5140000 		.4byte	0x14f5
 11309 14e7 12       		.uleb128 0x12
 11310 14e8 7800     		.ascii	"x\000"
 11311 14ea 01       		.byte	0x1
 11312 14eb DF04     		.2byte	0x4df
 11313 14ed 81000000 		.4byte	0x81
 11314 14f1 02       		.uleb128 0x2
 11315 14f2 91       		.byte	0x91
 11316 14f3 60       		.sleb128 -32
 11317 14f4 00       		.byte	0
 11318 14f5 10       		.uleb128 0x10
 11319 14f6 C6040000 		.4byte	.LBB161
 11320 14fa 28000000 		.4byte	.LBE161-.LBB161
 11321 14fe 10150000 		.4byte	0x1510
 11322 1502 12       		.uleb128 0x12
 11323 1503 7800     		.ascii	"x\000"
 11324 1505 01       		.byte	0x1
 11325 1506 E304     		.2byte	0x4e3
 11326 1508 81000000 		.4byte	0x81
 11327 150c 02       		.uleb128 0x2
 11328 150d 91       		.byte	0x91
 11329 150e 5F       		.sleb128 -33
 11330 150f 00       		.byte	0
 11331 1510 10       		.uleb128 0x10
 11332 1511 F8040000 		.4byte	.LBB162
 11333 1515 28000000 		.4byte	.LBE162-.LBB162
 11334 1519 2B150000 		.4byte	0x152b
ARM GAS  C:\Users\Diego\AppData\Local\Temp\ccIAJaV8.s 			page 239


 11335 151d 12       		.uleb128 0x12
 11336 151e 7800     		.ascii	"x\000"
 11337 1520 01       		.byte	0x1
 11338 1521 E804     		.2byte	0x4e8
 11339 1523 81000000 		.4byte	0x81
 11340 1527 02       		.uleb128 0x2
 11341 1528 91       		.byte	0x91
 11342 1529 5E       		.sleb128 -34
 11343 152a 00       		.byte	0
 11344 152b 10       		.uleb128 0x10
 11345 152c 56060000 		.4byte	.LBB163
 11346 1530 5E000000 		.4byte	.LBE163-.LBB163
 11347 1534 46150000 		.4byte	0x1546
 11348 1538 12       		.uleb128 0x12
 11349 1539 7800     		.ascii	"x\000"
 11350 153b 01       		.byte	0x1
 11351 153c 0805     		.2byte	0x508
 11352 153e 81000000 		.4byte	0x81
 11353 1542 02       		.uleb128 0x2
 11354 1543 91       		.byte	0x91
 11355 1544 5D       		.sleb128 -35
 11356 1545 00       		.byte	0
 11357 1546 10       		.uleb128 0x10
 11358 1547 06070000 		.4byte	.LBB164
 11359 154b 28000000 		.4byte	.LBE164-.LBB164
 11360 154f 61150000 		.4byte	0x1561
 11361 1553 12       		.uleb128 0x12
 11362 1554 7800     		.ascii	"x\000"
 11363 1556 01       		.byte	0x1
 11364 1557 1705     		.2byte	0x517
 11365 1559 81000000 		.4byte	0x81
 11366 155d 02       		.uleb128 0x2
 11367 155e 91       		.byte	0x91
 11368 155f 5C       		.sleb128 -36
 11369 1560 00       		.byte	0
 11370 1561 10       		.uleb128 0x10
 11371 1562 2E070000 		.4byte	.LBB165
 11372 1566 28000000 		.4byte	.LBE165-.LBB165
 11373 156a 7C150000 		.4byte	0x157c
 11374 156e 12       		.uleb128 0x12
 11375 156f 7800     		.ascii	"x\000"
 11376 1571 01       		.byte	0x1
 11377 1572 1B05     		.2byte	0x51b
 11378 1574 81000000 		.4byte	0x81
 11379 1578 02       		.uleb128 0x2
 11380 1579 91       		.byte	0x91
 11381 157a 5B       		.sleb128 -37
 11382 157b 00       		.byte	0
 11383 157c 10       		.uleb128 0x10
 11384 157d 60070000 		.4byte	.LBB166
 11385 1581 2A000000 		.4byte	.LBE166-.LBB166
 11386 1585 97150000 		.4byte	0x1597
 11387 1589 12       		.uleb128 0x12
 11388 158a 7800     		.ascii	"x\000"
 11389 158c 01       		.byte	0x1
 11390 158d 1F05     		.2byte	0x51f
 11391 158f 81000000 		.4byte	0x81
ARM GAS  C:\Users\Diego\AppData\Local\Temp\ccIAJaV8.s 			page 240


 11392 1593 02       		.uleb128 0x2
 11393 1594 91       		.byte	0x91
 11394 1595 5A       		.sleb128 -38
 11395 1596 00       		.byte	0
 11396 1597 10       		.uleb128 0x10
 11397 1598 12080000 		.4byte	.LBB167
 11398 159c 28000000 		.4byte	.LBE167-.LBB167
 11399 15a0 B2150000 		.4byte	0x15b2
 11400 15a4 12       		.uleb128 0x12
 11401 15a5 7800     		.ascii	"x\000"
 11402 15a7 01       		.byte	0x1
 11403 15a8 2F05     		.2byte	0x52f
 11404 15aa 81000000 		.4byte	0x81
 11405 15ae 02       		.uleb128 0x2
 11406 15af 91       		.byte	0x91
 11407 15b0 59       		.sleb128 -39
 11408 15b1 00       		.byte	0
 11409 15b2 10       		.uleb128 0x10
 11410 15b3 C2080000 		.4byte	.LBB168
 11411 15b7 28000000 		.4byte	.LBE168-.LBB168
 11412 15bb CD150000 		.4byte	0x15cd
 11413 15bf 12       		.uleb128 0x12
 11414 15c0 7800     		.ascii	"x\000"
 11415 15c2 01       		.byte	0x1
 11416 15c3 3C05     		.2byte	0x53c
 11417 15c5 81000000 		.4byte	0x81
 11418 15c9 02       		.uleb128 0x2
 11419 15ca 91       		.byte	0x91
 11420 15cb 58       		.sleb128 -40
 11421 15cc 00       		.byte	0
 11422 15cd 10       		.uleb128 0x10
 11423 15ce EA080000 		.4byte	.LBB169
 11424 15d2 28000000 		.4byte	.LBE169-.LBB169
 11425 15d6 E8150000 		.4byte	0x15e8
 11426 15da 12       		.uleb128 0x12
 11427 15db 7800     		.ascii	"x\000"
 11428 15dd 01       		.byte	0x1
 11429 15de 3F05     		.2byte	0x53f
 11430 15e0 81000000 		.4byte	0x81
 11431 15e4 02       		.uleb128 0x2
 11432 15e5 91       		.byte	0x91
 11433 15e6 57       		.sleb128 -41
 11434 15e7 00       		.byte	0
 11435 15e8 10       		.uleb128 0x10
 11436 15e9 1C090000 		.4byte	.LBB170
 11437 15ed 28000000 		.4byte	.LBE170-.LBB170
 11438 15f1 03160000 		.4byte	0x1603
 11439 15f5 12       		.uleb128 0x12
 11440 15f6 7800     		.ascii	"x\000"
 11441 15f8 01       		.byte	0x1
 11442 15f9 4305     		.2byte	0x543
 11443 15fb 81000000 		.4byte	0x81
 11444 15ff 02       		.uleb128 0x2
 11445 1600 91       		.byte	0x91
 11446 1601 56       		.sleb128 -42
 11447 1602 00       		.byte	0
 11448 1603 10       		.uleb128 0x10
ARM GAS  C:\Users\Diego\AppData\Local\Temp\ccIAJaV8.s 			page 241


 11449 1604 4E090000 		.4byte	.LBB171
 11450 1608 28000000 		.4byte	.LBE171-.LBB171
 11451 160c 1E160000 		.4byte	0x161e
 11452 1610 12       		.uleb128 0x12
 11453 1611 7800     		.ascii	"x\000"
 11454 1613 01       		.byte	0x1
 11455 1614 4805     		.2byte	0x548
 11456 1616 81000000 		.4byte	0x81
 11457 161a 02       		.uleb128 0x2
 11458 161b 91       		.byte	0x91
 11459 161c 55       		.sleb128 -43
 11460 161d 00       		.byte	0
 11461 161e 10       		.uleb128 0x10
 11462 161f 80090000 		.4byte	.LBB172
 11463 1623 48000000 		.4byte	.LBE172-.LBB172
 11464 1627 39160000 		.4byte	0x1639
 11465 162b 12       		.uleb128 0x12
 11466 162c 7800     		.ascii	"x\000"
 11467 162e 01       		.byte	0x1
 11468 162f 4C05     		.2byte	0x54c
 11469 1631 81000000 		.4byte	0x81
 11470 1635 02       		.uleb128 0x2
 11471 1636 91       		.byte	0x91
 11472 1637 54       		.sleb128 -44
 11473 1638 00       		.byte	0
 11474 1639 10       		.uleb128 0x10
 11475 163a E0090000 		.4byte	.LBB173
 11476 163e 28000000 		.4byte	.LBE173-.LBB173
 11477 1642 54160000 		.4byte	0x1654
 11478 1646 12       		.uleb128 0x12
 11479 1647 7800     		.ascii	"x\000"
 11480 1649 01       		.byte	0x1
 11481 164a 5105     		.2byte	0x551
 11482 164c 81000000 		.4byte	0x81
 11483 1650 02       		.uleb128 0x2
 11484 1651 91       		.byte	0x91
 11485 1652 53       		.sleb128 -45
 11486 1653 00       		.byte	0
 11487 1654 10       		.uleb128 0x10
 11488 1655 120A0000 		.4byte	.LBB174
 11489 1659 28000000 		.4byte	.LBE174-.LBB174
 11490 165d 6F160000 		.4byte	0x166f
 11491 1661 12       		.uleb128 0x12
 11492 1662 7800     		.ascii	"x\000"
 11493 1664 01       		.byte	0x1
 11494 1665 5505     		.2byte	0x555
 11495 1667 81000000 		.4byte	0x81
 11496 166b 02       		.uleb128 0x2
 11497 166c 91       		.byte	0x91
 11498 166d 52       		.sleb128 -46
 11499 166e 00       		.byte	0
 11500 166f 10       		.uleb128 0x10
 11501 1670 3A0A0000 		.4byte	.LBB175
 11502 1674 2C000000 		.4byte	.LBE175-.LBB175
 11503 1678 8A160000 		.4byte	0x168a
 11504 167c 12       		.uleb128 0x12
 11505 167d 7800     		.ascii	"x\000"
ARM GAS  C:\Users\Diego\AppData\Local\Temp\ccIAJaV8.s 			page 242


 11506 167f 01       		.byte	0x1
 11507 1680 5805     		.2byte	0x558
 11508 1682 81000000 		.4byte	0x81
 11509 1686 02       		.uleb128 0x2
 11510 1687 91       		.byte	0x91
 11511 1688 51       		.sleb128 -47
 11512 1689 00       		.byte	0
 11513 168a 10       		.uleb128 0x10
 11514 168b 700A0000 		.4byte	.LBB176
 11515 168f 28000000 		.4byte	.LBE176-.LBB176
 11516 1693 A5160000 		.4byte	0x16a5
 11517 1697 12       		.uleb128 0x12
 11518 1698 7800     		.ascii	"x\000"
 11519 169a 01       		.byte	0x1
 11520 169b 5C05     		.2byte	0x55c
 11521 169d 81000000 		.4byte	0x81
 11522 16a1 02       		.uleb128 0x2
 11523 16a2 91       		.byte	0x91
 11524 16a3 50       		.sleb128 -48
 11525 16a4 00       		.byte	0
 11526 16a5 10       		.uleb128 0x10
 11527 16a6 980A0000 		.4byte	.LBB177
 11528 16aa 2C000000 		.4byte	.LBE177-.LBB177
 11529 16ae C0160000 		.4byte	0x16c0
 11530 16b2 12       		.uleb128 0x12
 11531 16b3 7800     		.ascii	"x\000"
 11532 16b5 01       		.byte	0x1
 11533 16b6 5F05     		.2byte	0x55f
 11534 16b8 81000000 		.4byte	0x81
 11535 16bc 02       		.uleb128 0x2
 11536 16bd 91       		.byte	0x91
 11537 16be 4F       		.sleb128 -49
 11538 16bf 00       		.byte	0
 11539 16c0 10       		.uleb128 0x10
 11540 16c1 CE0A0000 		.4byte	.LBB178
 11541 16c5 28000000 		.4byte	.LBE178-.LBB178
 11542 16c9 DB160000 		.4byte	0x16db
 11543 16cd 12       		.uleb128 0x12
 11544 16ce 7800     		.ascii	"x\000"
 11545 16d0 01       		.byte	0x1
 11546 16d1 6305     		.2byte	0x563
 11547 16d3 81000000 		.4byte	0x81
 11548 16d7 02       		.uleb128 0x2
 11549 16d8 91       		.byte	0x91
 11550 16d9 4E       		.sleb128 -50
 11551 16da 00       		.byte	0
 11552 16db 10       		.uleb128 0x10
 11553 16dc 000B0000 		.4byte	.LBB179
 11554 16e0 28000000 		.4byte	.LBE179-.LBB179
 11555 16e4 F6160000 		.4byte	0x16f6
 11556 16e8 12       		.uleb128 0x12
 11557 16e9 7800     		.ascii	"x\000"
 11558 16eb 01       		.byte	0x1
 11559 16ec 6705     		.2byte	0x567
 11560 16ee 81000000 		.4byte	0x81
 11561 16f2 02       		.uleb128 0x2
 11562 16f3 91       		.byte	0x91
ARM GAS  C:\Users\Diego\AppData\Local\Temp\ccIAJaV8.s 			page 243


 11563 16f4 4D       		.sleb128 -51
 11564 16f5 00       		.byte	0
 11565 16f6 10       		.uleb128 0x10
 11566 16f7 320B0000 		.4byte	.LBB180
 11567 16fb 28000000 		.4byte	.LBE180-.LBB180
 11568 16ff 11170000 		.4byte	0x1711
 11569 1703 12       		.uleb128 0x12
 11570 1704 7800     		.ascii	"x\000"
 11571 1706 01       		.byte	0x1
 11572 1707 6B05     		.2byte	0x56b
 11573 1709 81000000 		.4byte	0x81
 11574 170d 02       		.uleb128 0x2
 11575 170e 91       		.byte	0x91
 11576 170f 4C       		.sleb128 -52
 11577 1710 00       		.byte	0
 11578 1711 10       		.uleb128 0x10
 11579 1712 640B0000 		.4byte	.LBB181
 11580 1716 28000000 		.4byte	.LBE181-.LBB181
 11581 171a 2C170000 		.4byte	0x172c
 11582 171e 12       		.uleb128 0x12
 11583 171f 7800     		.ascii	"x\000"
 11584 1721 01       		.byte	0x1
 11585 1722 6F05     		.2byte	0x56f
 11586 1724 81000000 		.4byte	0x81
 11587 1728 02       		.uleb128 0x2
 11588 1729 91       		.byte	0x91
 11589 172a 4B       		.sleb128 -53
 11590 172b 00       		.byte	0
 11591 172c 10       		.uleb128 0x10
 11592 172d 960B0000 		.4byte	.LBB182
 11593 1731 28000000 		.4byte	.LBE182-.LBB182
 11594 1735 47170000 		.4byte	0x1747
 11595 1739 12       		.uleb128 0x12
 11596 173a 7800     		.ascii	"x\000"
 11597 173c 01       		.byte	0x1
 11598 173d 7305     		.2byte	0x573
 11599 173f 81000000 		.4byte	0x81
 11600 1743 02       		.uleb128 0x2
 11601 1744 91       		.byte	0x91
 11602 1745 4A       		.sleb128 -54
 11603 1746 00       		.byte	0
 11604 1747 10       		.uleb128 0x10
 11605 1748 D20B0000 		.4byte	.LBB183
 11606 174c 28000000 		.4byte	.LBE183-.LBB183
 11607 1750 62170000 		.4byte	0x1762
 11608 1754 12       		.uleb128 0x12
 11609 1755 7800     		.ascii	"x\000"
 11610 1757 01       		.byte	0x1
 11611 1758 7805     		.2byte	0x578
 11612 175a 81000000 		.4byte	0x81
 11613 175e 02       		.uleb128 0x2
 11614 175f 91       		.byte	0x91
 11615 1760 49       		.sleb128 -55
 11616 1761 00       		.byte	0
 11617 1762 10       		.uleb128 0x10
 11618 1763 040C0000 		.4byte	.LBB184
 11619 1767 28000000 		.4byte	.LBE184-.LBB184
ARM GAS  C:\Users\Diego\AppData\Local\Temp\ccIAJaV8.s 			page 244


 11620 176b 7D170000 		.4byte	0x177d
 11621 176f 12       		.uleb128 0x12
 11622 1770 7800     		.ascii	"x\000"
 11623 1772 01       		.byte	0x1
 11624 1773 7D05     		.2byte	0x57d
 11625 1775 81000000 		.4byte	0x81
 11626 1779 02       		.uleb128 0x2
 11627 177a 91       		.byte	0x91
 11628 177b 48       		.sleb128 -56
 11629 177c 00       		.byte	0
 11630 177d 10       		.uleb128 0x10
 11631 177e 360C0000 		.4byte	.LBB185
 11632 1782 28000000 		.4byte	.LBE185-.LBB185
 11633 1786 98170000 		.4byte	0x1798
 11634 178a 12       		.uleb128 0x12
 11635 178b 7800     		.ascii	"x\000"
 11636 178d 01       		.byte	0x1
 11637 178e 8205     		.2byte	0x582
 11638 1790 81000000 		.4byte	0x81
 11639 1794 02       		.uleb128 0x2
 11640 1795 91       		.byte	0x91
 11641 1796 47       		.sleb128 -57
 11642 1797 00       		.byte	0
 11643 1798 10       		.uleb128 0x10
 11644 1799 680C0000 		.4byte	.LBB186
 11645 179d 42000000 		.4byte	.LBE186-.LBB186
 11646 17a1 B3170000 		.4byte	0x17b3
 11647 17a5 12       		.uleb128 0x12
 11648 17a6 7800     		.ascii	"x\000"
 11649 17a8 01       		.byte	0x1
 11650 17a9 8805     		.2byte	0x588
 11651 17ab 81000000 		.4byte	0x81
 11652 17af 02       		.uleb128 0x2
 11653 17b0 91       		.byte	0x91
 11654 17b1 46       		.sleb128 -58
 11655 17b2 00       		.byte	0
 11656 17b3 10       		.uleb128 0x10
 11657 17b4 E20C0000 		.4byte	.LBB187
 11658 17b8 7E000000 		.4byte	.LBE187-.LBB187
 11659 17bc CE170000 		.4byte	0x17ce
 11660 17c0 12       		.uleb128 0x12
 11661 17c1 7800     		.ascii	"x\000"
 11662 17c3 01       		.byte	0x1
 11663 17c4 9505     		.2byte	0x595
 11664 17c6 81000000 		.4byte	0x81
 11665 17ca 02       		.uleb128 0x2
 11666 17cb 91       		.byte	0x91
 11667 17cc 45       		.sleb128 -59
 11668 17cd 00       		.byte	0
 11669 17ce 10       		.uleb128 0x10
 11670 17cf 820D0000 		.4byte	.LBB188
 11671 17d3 2C000000 		.4byte	.LBE188-.LBB188
 11672 17d7 E9170000 		.4byte	0x17e9
 11673 17db 12       		.uleb128 0x12
 11674 17dc 7800     		.ascii	"x\000"
 11675 17de 01       		.byte	0x1
 11676 17df 9E05     		.2byte	0x59e
ARM GAS  C:\Users\Diego\AppData\Local\Temp\ccIAJaV8.s 			page 245


 11677 17e1 81000000 		.4byte	0x81
 11678 17e5 02       		.uleb128 0x2
 11679 17e6 91       		.byte	0x91
 11680 17e7 44       		.sleb128 -60
 11681 17e8 00       		.byte	0
 11682 17e9 10       		.uleb128 0x10
 11683 17ea C00D0000 		.4byte	.LBB189
 11684 17ee 28000000 		.4byte	.LBE189-.LBB189
 11685 17f2 04180000 		.4byte	0x1804
 11686 17f6 12       		.uleb128 0x12
 11687 17f7 7800     		.ascii	"x\000"
 11688 17f9 01       		.byte	0x1
 11689 17fa A305     		.2byte	0x5a3
 11690 17fc 81000000 		.4byte	0x81
 11691 1800 02       		.uleb128 0x2
 11692 1801 91       		.byte	0x91
 11693 1802 43       		.sleb128 -61
 11694 1803 00       		.byte	0
 11695 1804 10       		.uleb128 0x10
 11696 1805 F20D0000 		.4byte	.LBB190
 11697 1809 28000000 		.4byte	.LBE190-.LBB190
 11698 180d 1F180000 		.4byte	0x181f
 11699 1811 12       		.uleb128 0x12
 11700 1812 7800     		.ascii	"x\000"
 11701 1814 01       		.byte	0x1
 11702 1815 A705     		.2byte	0x5a7
 11703 1817 81000000 		.4byte	0x81
 11704 181b 02       		.uleb128 0x2
 11705 181c 91       		.byte	0x91
 11706 181d 42       		.sleb128 -62
 11707 181e 00       		.byte	0
 11708 181f 10       		.uleb128 0x10
 11709 1820 240E0000 		.4byte	.LBB191
 11710 1824 28000000 		.4byte	.LBE191-.LBB191
 11711 1828 3A180000 		.4byte	0x183a
 11712 182c 12       		.uleb128 0x12
 11713 182d 7800     		.ascii	"x\000"
 11714 182f 01       		.byte	0x1
 11715 1830 AB05     		.2byte	0x5ab
 11716 1832 81000000 		.4byte	0x81
 11717 1836 02       		.uleb128 0x2
 11718 1837 91       		.byte	0x91
 11719 1838 41       		.sleb128 -63
 11720 1839 00       		.byte	0
 11721 183a 10       		.uleb128 0x10
 11722 183b 560E0000 		.4byte	.LBB192
 11723 183f 28000000 		.4byte	.LBE192-.LBB192
 11724 1843 55180000 		.4byte	0x1855
 11725 1847 12       		.uleb128 0x12
 11726 1848 7800     		.ascii	"x\000"
 11727 184a 01       		.byte	0x1
 11728 184b AF05     		.2byte	0x5af
 11729 184d 81000000 		.4byte	0x81
 11730 1851 02       		.uleb128 0x2
 11731 1852 91       		.byte	0x91
 11732 1853 40       		.sleb128 -64
 11733 1854 00       		.byte	0
ARM GAS  C:\Users\Diego\AppData\Local\Temp\ccIAJaV8.s 			page 246


 11734 1855 10       		.uleb128 0x10
 11735 1856 940E0000 		.4byte	.LBB193
 11736 185a 22000000 		.4byte	.LBE193-.LBB193
 11737 185e 71180000 		.4byte	0x1871
 11738 1862 12       		.uleb128 0x12
 11739 1863 7800     		.ascii	"x\000"
 11740 1865 01       		.byte	0x1
 11741 1866 B505     		.2byte	0x5b5
 11742 1868 81000000 		.4byte	0x81
 11743 186c 03       		.uleb128 0x3
 11744 186d 91       		.byte	0x91
 11745 186e BF7F     		.sleb128 -65
 11746 1870 00       		.byte	0
 11747 1871 10       		.uleb128 0x10
 11748 1872 DE0E0000 		.4byte	.LBB194
 11749 1876 1E000000 		.4byte	.LBE194-.LBB194
 11750 187a 8D180000 		.4byte	0x188d
 11751 187e 12       		.uleb128 0x12
 11752 187f 7800     		.ascii	"x\000"
 11753 1881 01       		.byte	0x1
 11754 1882 BE05     		.2byte	0x5be
 11755 1884 81000000 		.4byte	0x81
 11756 1888 03       		.uleb128 0x3
 11757 1889 91       		.byte	0x91
 11758 188a BE7F     		.sleb128 -66
 11759 188c 00       		.byte	0
 11760 188d 10       		.uleb128 0x10
 11761 188e 0C0F0000 		.4byte	.LBB195
 11762 1892 22000000 		.4byte	.LBE195-.LBB195
 11763 1896 A9180000 		.4byte	0x18a9
 11764 189a 12       		.uleb128 0x12
 11765 189b 7800     		.ascii	"x\000"
 11766 189d 01       		.byte	0x1
 11767 189e C305     		.2byte	0x5c3
 11768 18a0 81000000 		.4byte	0x81
 11769 18a4 03       		.uleb128 0x3
 11770 18a5 91       		.byte	0x91
 11771 18a6 BD7F     		.sleb128 -67
 11772 18a8 00       		.byte	0
 11773 18a9 10       		.uleb128 0x10
 11774 18aa 380F0000 		.4byte	.LBB196
 11775 18ae 1E000000 		.4byte	.LBE196-.LBB196
 11776 18b2 C5180000 		.4byte	0x18c5
 11777 18b6 12       		.uleb128 0x12
 11778 18b7 7800     		.ascii	"x\000"
 11779 18b9 01       		.byte	0x1
 11780 18ba C705     		.2byte	0x5c7
 11781 18bc 81000000 		.4byte	0x81
 11782 18c0 03       		.uleb128 0x3
 11783 18c1 91       		.byte	0x91
 11784 18c2 BC7F     		.sleb128 -68
 11785 18c4 00       		.byte	0
 11786 18c5 10       		.uleb128 0x10
 11787 18c6 6C0F0000 		.4byte	.LBB197
 11788 18ca 1E000000 		.4byte	.LBE197-.LBB197
 11789 18ce E1180000 		.4byte	0x18e1
 11790 18d2 12       		.uleb128 0x12
ARM GAS  C:\Users\Diego\AppData\Local\Temp\ccIAJaV8.s 			page 247


 11791 18d3 7800     		.ascii	"x\000"
 11792 18d5 01       		.byte	0x1
 11793 18d6 CD05     		.2byte	0x5cd
 11794 18d8 81000000 		.4byte	0x81
 11795 18dc 03       		.uleb128 0x3
 11796 18dd 91       		.byte	0x91
 11797 18de BB7F     		.sleb128 -69
 11798 18e0 00       		.byte	0
 11799 18e1 10       		.uleb128 0x10
 11800 18e2 9A0F0000 		.4byte	.LBB198
 11801 18e6 22000000 		.4byte	.LBE198-.LBB198
 11802 18ea FD180000 		.4byte	0x18fd
 11803 18ee 12       		.uleb128 0x12
 11804 18ef 7800     		.ascii	"x\000"
 11805 18f1 01       		.byte	0x1
 11806 18f2 D205     		.2byte	0x5d2
 11807 18f4 81000000 		.4byte	0x81
 11808 18f8 03       		.uleb128 0x3
 11809 18f9 91       		.byte	0x91
 11810 18fa BA7F     		.sleb128 -70
 11811 18fc 00       		.byte	0
 11812 18fd 10       		.uleb128 0x10
 11813 18fe C60F0000 		.4byte	.LBB199
 11814 1902 1E000000 		.4byte	.LBE199-.LBB199
 11815 1906 19190000 		.4byte	0x1919
 11816 190a 12       		.uleb128 0x12
 11817 190b 7800     		.ascii	"x\000"
 11818 190d 01       		.byte	0x1
 11819 190e D605     		.2byte	0x5d6
 11820 1910 81000000 		.4byte	0x81
 11821 1914 03       		.uleb128 0x3
 11822 1915 91       		.byte	0x91
 11823 1916 B97F     		.sleb128 -71
 11824 1918 00       		.byte	0
 11825 1919 10       		.uleb128 0x10
 11826 191a EE0F0000 		.4byte	.LBB200
 11827 191e 1E000000 		.4byte	.LBE200-.LBB200
 11828 1922 35190000 		.4byte	0x1935
 11829 1926 12       		.uleb128 0x12
 11830 1927 7800     		.ascii	"x\000"
 11831 1929 01       		.byte	0x1
 11832 192a DF05     		.2byte	0x5df
 11833 192c 81000000 		.4byte	0x81
 11834 1930 03       		.uleb128 0x3
 11835 1931 91       		.byte	0x91
 11836 1932 B87F     		.sleb128 -72
 11837 1934 00       		.byte	0
 11838 1935 10       		.uleb128 0x10
 11839 1936 16100000 		.4byte	.LBB201
 11840 193a 4A000000 		.4byte	.LBE201-.LBB201
 11841 193e 51190000 		.4byte	0x1951
 11842 1942 12       		.uleb128 0x12
 11843 1943 7800     		.ascii	"x\000"
 11844 1945 01       		.byte	0x1
 11845 1946 E305     		.2byte	0x5e3
 11846 1948 81000000 		.4byte	0x81
 11847 194c 03       		.uleb128 0x3
ARM GAS  C:\Users\Diego\AppData\Local\Temp\ccIAJaV8.s 			page 248


 11848 194d 91       		.byte	0x91
 11849 194e B77F     		.sleb128 -73
 11850 1950 00       		.byte	0
 11851 1951 10       		.uleb128 0x10
 11852 1952 6A100000 		.4byte	.LBB202
 11853 1956 1E000000 		.4byte	.LBE202-.LBB202
 11854 195a 6D190000 		.4byte	0x196d
 11855 195e 12       		.uleb128 0x12
 11856 195f 7800     		.ascii	"x\000"
 11857 1961 01       		.byte	0x1
 11858 1962 E705     		.2byte	0x5e7
 11859 1964 81000000 		.4byte	0x81
 11860 1968 03       		.uleb128 0x3
 11861 1969 91       		.byte	0x91
 11862 196a B67F     		.sleb128 -74
 11863 196c 00       		.byte	0
 11864 196d 10       		.uleb128 0x10
 11865 196e 92100000 		.4byte	.LBB203
 11866 1972 1E000000 		.4byte	.LBE203-.LBB203
 11867 1976 89190000 		.4byte	0x1989
 11868 197a 12       		.uleb128 0x12
 11869 197b 7800     		.ascii	"x\000"
 11870 197d 01       		.byte	0x1
 11871 197e EB05     		.2byte	0x5eb
 11872 1980 81000000 		.4byte	0x81
 11873 1984 03       		.uleb128 0x3
 11874 1985 91       		.byte	0x91
 11875 1986 B57F     		.sleb128 -75
 11876 1988 00       		.byte	0
 11877 1989 10       		.uleb128 0x10
 11878 198a BA100000 		.4byte	.LBB204
 11879 198e 1E000000 		.4byte	.LBE204-.LBB204
 11880 1992 A5190000 		.4byte	0x19a5
 11881 1996 12       		.uleb128 0x12
 11882 1997 7800     		.ascii	"x\000"
 11883 1999 01       		.byte	0x1
 11884 199a EF05     		.2byte	0x5ef
 11885 199c 81000000 		.4byte	0x81
 11886 19a0 03       		.uleb128 0x3
 11887 19a1 91       		.byte	0x91
 11888 19a2 B47F     		.sleb128 -76
 11889 19a4 00       		.byte	0
 11890 19a5 10       		.uleb128 0x10
 11891 19a6 E2100000 		.4byte	.LBB205
 11892 19aa 1E000000 		.4byte	.LBE205-.LBB205
 11893 19ae C1190000 		.4byte	0x19c1
 11894 19b2 12       		.uleb128 0x12
 11895 19b3 7800     		.ascii	"x\000"
 11896 19b5 01       		.byte	0x1
 11897 19b6 F305     		.2byte	0x5f3
 11898 19b8 81000000 		.4byte	0x81
 11899 19bc 03       		.uleb128 0x3
 11900 19bd 91       		.byte	0x91
 11901 19be B37F     		.sleb128 -77
 11902 19c0 00       		.byte	0
 11903 19c1 10       		.uleb128 0x10
 11904 19c2 0A110000 		.4byte	.LBB206
ARM GAS  C:\Users\Diego\AppData\Local\Temp\ccIAJaV8.s 			page 249


 11905 19c6 1E000000 		.4byte	.LBE206-.LBB206
 11906 19ca DD190000 		.4byte	0x19dd
 11907 19ce 12       		.uleb128 0x12
 11908 19cf 7800     		.ascii	"x\000"
 11909 19d1 01       		.byte	0x1
 11910 19d2 F705     		.2byte	0x5f7
 11911 19d4 81000000 		.4byte	0x81
 11912 19d8 03       		.uleb128 0x3
 11913 19d9 91       		.byte	0x91
 11914 19da B27F     		.sleb128 -78
 11915 19dc 00       		.byte	0
 11916 19dd 10       		.uleb128 0x10
 11917 19de 32110000 		.4byte	.LBB207
 11918 19e2 1E000000 		.4byte	.LBE207-.LBB207
 11919 19e6 F9190000 		.4byte	0x19f9
 11920 19ea 12       		.uleb128 0x12
 11921 19eb 7800     		.ascii	"x\000"
 11922 19ed 01       		.byte	0x1
 11923 19ee FB05     		.2byte	0x5fb
 11924 19f0 81000000 		.4byte	0x81
 11925 19f4 03       		.uleb128 0x3
 11926 19f5 91       		.byte	0x91
 11927 19f6 B17F     		.sleb128 -79
 11928 19f8 00       		.byte	0
 11929 19f9 10       		.uleb128 0x10
 11930 19fa 50110000 		.4byte	.LBB208
 11931 19fe 1E000000 		.4byte	.LBE208-.LBB208
 11932 1a02 151A0000 		.4byte	0x1a15
 11933 1a06 12       		.uleb128 0x12
 11934 1a07 7800     		.ascii	"x\000"
 11935 1a09 01       		.byte	0x1
 11936 1a0a FF05     		.2byte	0x5ff
 11937 1a0c 81000000 		.4byte	0x81
 11938 1a10 03       		.uleb128 0x3
 11939 1a11 91       		.byte	0x91
 11940 1a12 B07F     		.sleb128 -80
 11941 1a14 00       		.byte	0
 11942 1a15 10       		.uleb128 0x10
 11943 1a16 78110000 		.4byte	.LBB209
 11944 1a1a 1E000000 		.4byte	.LBE209-.LBB209
 11945 1a1e 311A0000 		.4byte	0x1a31
 11946 1a22 12       		.uleb128 0x12
 11947 1a23 7800     		.ascii	"x\000"
 11948 1a25 01       		.byte	0x1
 11949 1a26 0306     		.2byte	0x603
 11950 1a28 81000000 		.4byte	0x81
 11951 1a2c 03       		.uleb128 0x3
 11952 1a2d 91       		.byte	0x91
 11953 1a2e AF7F     		.sleb128 -81
 11954 1a30 00       		.byte	0
 11955 1a31 10       		.uleb128 0x10
 11956 1a32 AA110000 		.4byte	.LBB210
 11957 1a36 1E000000 		.4byte	.LBE210-.LBB210
 11958 1a3a 4D1A0000 		.4byte	0x1a4d
 11959 1a3e 12       		.uleb128 0x12
 11960 1a3f 7800     		.ascii	"x\000"
 11961 1a41 01       		.byte	0x1
ARM GAS  C:\Users\Diego\AppData\Local\Temp\ccIAJaV8.s 			page 250


 11962 1a42 0806     		.2byte	0x608
 11963 1a44 81000000 		.4byte	0x81
 11964 1a48 03       		.uleb128 0x3
 11965 1a49 91       		.byte	0x91
 11966 1a4a AE7F     		.sleb128 -82
 11967 1a4c 00       		.byte	0
 11968 1a4d 10       		.uleb128 0x10
 11969 1a4e D2110000 		.4byte	.LBB211
 11970 1a52 1E000000 		.4byte	.LBE211-.LBB211
 11971 1a56 691A0000 		.4byte	0x1a69
 11972 1a5a 12       		.uleb128 0x12
 11973 1a5b 7800     		.ascii	"x\000"
 11974 1a5d 01       		.byte	0x1
 11975 1a5e 0C06     		.2byte	0x60c
 11976 1a60 81000000 		.4byte	0x81
 11977 1a64 03       		.uleb128 0x3
 11978 1a65 91       		.byte	0x91
 11979 1a66 AD7F     		.sleb128 -83
 11980 1a68 00       		.byte	0
 11981 1a69 10       		.uleb128 0x10
 11982 1a6a FA110000 		.4byte	.LBB212
 11983 1a6e 1E000000 		.4byte	.LBE212-.LBB212
 11984 1a72 851A0000 		.4byte	0x1a85
 11985 1a76 12       		.uleb128 0x12
 11986 1a77 7800     		.ascii	"x\000"
 11987 1a79 01       		.byte	0x1
 11988 1a7a 1006     		.2byte	0x610
 11989 1a7c 81000000 		.4byte	0x81
 11990 1a80 03       		.uleb128 0x3
 11991 1a81 91       		.byte	0x91
 11992 1a82 AC7F     		.sleb128 -84
 11993 1a84 00       		.byte	0
 11994 1a85 10       		.uleb128 0x10
 11995 1a86 22120000 		.4byte	.LBB213
 11996 1a8a 1E000000 		.4byte	.LBE213-.LBB213
 11997 1a8e A11A0000 		.4byte	0x1aa1
 11998 1a92 12       		.uleb128 0x12
 11999 1a93 7800     		.ascii	"x\000"
 12000 1a95 01       		.byte	0x1
 12001 1a96 1406     		.2byte	0x614
 12002 1a98 81000000 		.4byte	0x81
 12003 1a9c 03       		.uleb128 0x3
 12004 1a9d 91       		.byte	0x91
 12005 1a9e AB7F     		.sleb128 -85
 12006 1aa0 00       		.byte	0
 12007 1aa1 13       		.uleb128 0x13
 12008 1aa2 72120000 		.4byte	.LBB214
 12009 1aa6 1E000000 		.4byte	.LBE214-.LBB214
 12010 1aaa 12       		.uleb128 0x12
 12011 1aab 7800     		.ascii	"x\000"
 12012 1aad 01       		.byte	0x1
 12013 1aae 1C06     		.2byte	0x61c
 12014 1ab0 81000000 		.4byte	0x81
 12015 1ab4 03       		.uleb128 0x3
 12016 1ab5 91       		.byte	0x91
 12017 1ab6 AA7F     		.sleb128 -86
 12018 1ab8 00       		.byte	0
ARM GAS  C:\Users\Diego\AppData\Local\Temp\ccIAJaV8.s 			page 251


 12019 1ab9 00       		.byte	0
 12020 1aba 18       		.uleb128 0x18
 12021 1abb 2C040000 		.4byte	.LASF52
 12022 1abf 06       		.byte	0x6
 12023 1ac0 1207     		.2byte	0x712
 12024 1ac2 C61A0000 		.4byte	0x1ac6
 12025 1ac6 19       		.uleb128 0x19
 12026 1ac7 76000000 		.4byte	0x76
 12027 1acb 1A       		.uleb128 0x1a
 12028 1acc 4D030000 		.4byte	.LASF53
 12029 1ad0 05       		.byte	0x5
 12030 1ad1 10       		.byte	0x10
 12031 1ad2 8D000000 		.4byte	0x8d
 12032 1ad6 05       		.uleb128 0x5
 12033 1ad7 03       		.byte	0x3
 12034 1ad8 00000000 		.4byte	PollCounter
 12035 1adc 1A       		.uleb128 0x1a
 12036 1add A1030000 		.4byte	.LASF54
 12037 1ae1 05       		.byte	0x5
 12038 1ae2 11       		.byte	0x11
 12039 1ae3 81000000 		.4byte	0x81
 12040 1ae7 05       		.uleb128 0x5
 12041 1ae8 03       		.byte	0x3
 12042 1ae9 00000000 		.4byte	CurrentState
 12043 1aed 1A       		.uleb128 0x1a
 12044 1aee 56010000 		.4byte	.LASF55
 12045 1af2 05       		.byte	0x5
 12046 1af3 12       		.byte	0x12
 12047 1af4 81000000 		.4byte	0x81
 12048 1af8 05       		.uleb128 0x5
 12049 1af9 03       		.byte	0x3
 12050 1afa 00000000 		.4byte	Receipt
 12051 1afe 0B       		.uleb128 0xb
 12052 1aff 81000000 		.4byte	0x81
 12053 1b03 0E1B0000 		.4byte	0x1b0e
 12054 1b07 0C       		.uleb128 0xc
 12055 1b08 CD000000 		.4byte	0xcd
 12056 1b0c 05       		.byte	0x5
 12057 1b0d 00       		.byte	0
 12058 1b0e 1A       		.uleb128 0x1a
 12059 1b0f 45000000 		.4byte	.LASF56
 12060 1b13 05       		.byte	0x5
 12061 1b14 13       		.byte	0x13
 12062 1b15 FE1A0000 		.4byte	0x1afe
 12063 1b19 05       		.uleb128 0x5
 12064 1b1a 03       		.byte	0x3
 12065 1b1b 00000000 		.4byte	sale_number
 12066 1b1f 1A       		.uleb128 0x1a
 12067 1b20 D0020000 		.4byte	.LASF57
 12068 1b24 05       		.byte	0x5
 12069 1b25 14       		.byte	0x14
 12070 1b26 FE1A0000 		.4byte	0x1afe
 12071 1b2a 05       		.uleb128 0x5
 12072 1b2b 03       		.byte	0x3
 12073 1b2c 00000000 		.4byte	sale_number_copy
 12074 1b30 1A       		.uleb128 0x1a
 12075 1b31 4B060000 		.4byte	.LASF58
ARM GAS  C:\Users\Diego\AppData\Local\Temp\ccIAJaV8.s 			page 252


 12076 1b35 05       		.byte	0x5
 12077 1b36 15       		.byte	0x15
 12078 1b37 FE1A0000 		.4byte	0x1afe
 12079 1b3b 05       		.uleb128 0x5
 12080 1b3c 03       		.byte	0x3
 12081 1b3d 00000000 		.4byte	hour_copy
 12082 1b41 1A       		.uleb128 0x1a
 12083 1b42 FB010000 		.4byte	.LASF59
 12084 1b46 05       		.byte	0x5
 12085 1b47 16       		.byte	0x16
 12086 1b48 FE1A0000 		.4byte	0x1afe
 12087 1b4c 05       		.uleb128 0x5
 12088 1b4d 03       		.byte	0x3
 12089 1b4e 00000000 		.4byte	date_copy
 12090 1b52 1A       		.uleb128 0x1a
 12091 1b53 20000000 		.4byte	.LASF60
 12092 1b57 05       		.byte	0x5
 12093 1b58 17       		.byte	0x17
 12094 1b59 81000000 		.4byte	0x81
 12095 1b5d 05       		.uleb128 0x5
 12096 1b5e 03       		.byte	0x3
 12097 1b5f 00000000 		.4byte	int_salenumber
 12098 1b63 1A       		.uleb128 0x1a
 12099 1b64 C2050000 		.4byte	.LASF61
 12100 1b68 05       		.byte	0x5
 12101 1b69 18       		.byte	0x18
 12102 1b6a FE1A0000 		.4byte	0x1afe
 12103 1b6e 05       		.uleb128 0x5
 12104 1b6f 03       		.byte	0x3
 12105 1b70 00000000 		.4byte	shift_number
 12106 1b74 1A       		.uleb128 0x1a
 12107 1b75 62020000 		.4byte	.LASF62
 12108 1b79 05       		.byte	0x5
 12109 1b7a 19       		.byte	0x19
 12110 1b7b 81000000 		.4byte	0x81
 12111 1b7f 05       		.uleb128 0x5
 12112 1b80 03       		.byte	0x3
 12113 1b81 00000000 		.4byte	int_shiftnumber
 12114 1b85 1A       		.uleb128 0x1a
 12115 1b86 72020000 		.4byte	.LASF63
 12116 1b8a 05       		.byte	0x5
 12117 1b8b 1A       		.byte	0x1a
 12118 1b8c 81000000 		.4byte	0x81
 12119 1b90 05       		.uleb128 0x5
 12120 1b91 03       		.byte	0x3
 12121 1b92 00000000 		.4byte	LCDhose
 12122 1b96 1A       		.uleb128 0x1a
 12123 1b97 F0000000 		.4byte	.LASF64
 12124 1b9b 05       		.byte	0x5
 12125 1b9c 41       		.byte	0x41
 12126 1b9d 84020000 		.4byte	0x284
 12127 1ba1 05       		.uleb128 0x5
 12128 1ba2 03       		.byte	0x3
 12129 1ba3 00000000 		.4byte	side
 12130 1ba7 1A       		.uleb128 0x1a
 12131 1ba8 CF040000 		.4byte	.LASF65
 12132 1bac 05       		.byte	0x5
ARM GAS  C:\Users\Diego\AppData\Local\Temp\ccIAJaV8.s 			page 253


 12133 1bad 4A       		.byte	0x4a
 12134 1bae 22020000 		.4byte	0x222
 12135 1bb2 05       		.uleb128 0x5
 12136 1bb3 03       		.byte	0x3
 12137 1bb4 00000000 		.4byte	MepsanResponse
 12138 1bb8 1A       		.uleb128 0x1a
 12139 1bb9 7D030000 		.4byte	.LASF66
 12140 1bbd 05       		.byte	0x5
 12141 1bbe 4B       		.byte	0x4b
 12142 1bbf 22020000 		.4byte	0x222
 12143 1bc3 05       		.uleb128 0x5
 12144 1bc4 03       		.byte	0x3
 12145 1bc5 00000000 		.4byte	MepsanSendTo
 12146 1bc9 0B       		.uleb128 0xb
 12147 1bca 81000000 		.4byte	0x81
 12148 1bce D91B0000 		.4byte	0x1bd9
 12149 1bd2 0C       		.uleb128 0xc
 12150 1bd3 CD000000 		.4byte	0xcd
 12151 1bd7 0E       		.byte	0xe
 12152 1bd8 00       		.byte	0
 12153 1bd9 1A       		.uleb128 0x1a
 12154 1bda 14000000 		.4byte	.LASF67
 12155 1bde 05       		.byte	0x5
 12156 1bdf 4C       		.byte	0x4c
 12157 1be0 C91B0000 		.4byte	0x1bc9
 12158 1be4 05       		.uleb128 0x5
 12159 1be5 03       		.byte	0x3
 12160 1be6 00000000 		.4byte	PumpAddress
 12161 1bea 1B       		.uleb128 0x1b
 12162 1beb 43524300 		.ascii	"CRC\000"
 12163 1bef 05       		.byte	0x5
 12164 1bf0 4D       		.byte	0x4d
 12165 1bf1 8D000000 		.4byte	0x8d
 12166 1bf5 05       		.uleb128 0x5
 12167 1bf6 03       		.byte	0x3
 12168 1bf7 00000000 		.4byte	CRC
 12169 1bfb 1A       		.uleb128 0x1a
 12170 1bfc B1040000 		.4byte	.LASF68
 12171 1c00 05       		.byte	0x5
 12172 1c01 4E       		.byte	0x4e
 12173 1c02 81000000 		.4byte	0x81
 12174 1c06 05       		.uleb128 0x5
 12175 1c07 03       		.byte	0x3
 12176 1c08 00000000 		.4byte	crc_lo
 12177 1c0c 1A       		.uleb128 0x1a
 12178 1c0d 1C040000 		.4byte	.LASF69
 12179 1c11 05       		.byte	0x5
 12180 1c12 4E       		.byte	0x4e
 12181 1c13 81000000 		.4byte	0x81
 12182 1c17 05       		.uleb128 0x5
 12183 1c18 03       		.byte	0x3
 12184 1c19 00000000 		.4byte	crc_hi
 12185 1c1d 1A       		.uleb128 0x1a
 12186 1c1e 0C030000 		.4byte	.LASF70
 12187 1c22 05       		.byte	0x5
 12188 1c23 4F       		.byte	0x4f
 12189 1c24 81000000 		.4byte	0x81
ARM GAS  C:\Users\Diego\AppData\Local\Temp\ccIAJaV8.s 			page 254


 12190 1c28 05       		.uleb128 0x5
 12191 1c29 03       		.byte	0x3
 12192 1c2a 00000000 		.4byte	Positions
 12193 1c2e 1A       		.uleb128 0x1a
 12194 1c2f 05020000 		.4byte	.LASF71
 12195 1c33 05       		.byte	0x5
 12196 1c34 50       		.byte	0x50
 12197 1c35 81000000 		.4byte	0x81
 12198 1c39 05       		.uleb128 0x5
 12199 1c3a 03       		.byte	0x3
 12200 1c3b 00000000 		.4byte	TotalRequestType
 12201 1c3f 1A       		.uleb128 0x1a
 12202 1c40 5B000000 		.4byte	.LASF72
 12203 1c44 05       		.byte	0x5
 12204 1c45 51       		.byte	0x51
 12205 1c46 81000000 		.4byte	0x81
 12206 1c4a 05       		.uleb128 0x5
 12207 1c4b 03       		.byte	0x3
 12208 1c4c 00000000 		.4byte	DecVol
 12209 1c50 0B       		.uleb128 0xb
 12210 1c51 81000000 		.4byte	0x81
 12211 1c55 601C0000 		.4byte	0x1c60
 12212 1c59 0C       		.uleb128 0xc
 12213 1c5a CD000000 		.4byte	0xcd
 12214 1c5e 13       		.byte	0x13
 12215 1c5f 00       		.byte	0
 12216 1c60 1A       		.uleb128 0x1a
 12217 1c61 57040000 		.4byte	.LASF73
 12218 1c65 05       		.byte	0x5
 12219 1c66 5A       		.byte	0x5a
 12220 1c67 501C0000 		.4byte	0x1c50
 12221 1c6b 05       		.uleb128 0x5
 12222 1c6c 03       		.byte	0x3
 12223 1c6d 00000000 		.4byte	touch1
 12224 1c71 1A       		.uleb128 0x1a
 12225 1c72 D5060000 		.4byte	.LASF74
 12226 1c76 05       		.byte	0x5
 12227 1c77 63       		.byte	0x63
 12228 1c78 81000000 		.4byte	0x81
 12229 1c7c 05       		.uleb128 0x5
 12230 1c7d 03       		.byte	0x3
 12231 1c7e 00000000 		.4byte	dirGbr
 12232 1c82 1A       		.uleb128 0x1a
 12233 1c83 CF050000 		.4byte	.LASF75
 12234 1c87 01       		.byte	0x1
 12235 1c88 12       		.byte	0x12
 12236 1c89 81000000 		.4byte	0x81
 12237 1c8d 05       		.uleb128 0x5
 12238 1c8e 03       		.byte	0x3
 12239 1c8f 00000000 		.4byte	LINE_FEED
 12240 1c93 0B       		.uleb128 0xb
 12241 1c94 BF000000 		.4byte	0xbf
 12242 1c98 A31C0000 		.4byte	0x1ca3
 12243 1c9c 0C       		.uleb128 0xc
 12244 1c9d CD000000 		.4byte	0xcd
 12245 1ca1 00       		.byte	0
 12246 1ca2 00       		.byte	0
ARM GAS  C:\Users\Diego\AppData\Local\Temp\ccIAJaV8.s 			page 255


 12247 1ca3 1A       		.uleb128 0x1a
 12248 1ca4 E9060000 		.4byte	.LASF76
 12249 1ca8 01       		.byte	0x1
 12250 1ca9 13       		.byte	0x13
 12251 1caa 931C0000 		.4byte	0x1c93
 12252 1cae 05       		.uleb128 0x5
 12253 1caf 03       		.byte	0x3
 12254 1cb0 00000000 		.4byte	VolSimbol
 12255 1cb4 0B       		.uleb128 0xb
 12256 1cb5 81000000 		.4byte	0x81
 12257 1cb9 C41C0000 		.4byte	0x1cc4
 12258 1cbd 0C       		.uleb128 0xc
 12259 1cbe CD000000 		.4byte	0xcd
 12260 1cc2 1F       		.byte	0x1f
 12261 1cc3 00       		.byte	0
 12262 1cc4 1A       		.uleb128 0x1a
 12263 1cc5 45020000 		.4byte	.LASF77
 12264 1cc9 01       		.byte	0x1
 12265 1cca 18       		.byte	0x18
 12266 1ccb B41C0000 		.4byte	0x1cb4
 12267 1ccf 05       		.uleb128 0x5
 12268 1cd0 03       		.byte	0x3
 12269 1cd1 00000000 		.4byte	msn_POS
 12270 1cd5 1A       		.uleb128 0x1a
 12271 1cd6 CB010000 		.4byte	.LASF78
 12272 1cda 01       		.byte	0x1
 12273 1cdb 19       		.byte	0x19
 12274 1cdc B41C0000 		.4byte	0x1cb4
 12275 1ce0 05       		.uleb128 0x5
 12276 1ce1 03       		.byte	0x3
 12277 1ce2 00000000 		.4byte	msn_EDS
 12278 1ce6 1A       		.uleb128 0x1a
 12279 1ce7 90060000 		.4byte	.LASF79
 12280 1ceb 01       		.byte	0x1
 12281 1cec 1A       		.byte	0x1a
 12282 1ced B41C0000 		.4byte	0x1cb4
 12283 1cf1 05       		.uleb128 0x5
 12284 1cf2 03       		.byte	0x3
 12285 1cf3 00000000 		.4byte	msn_EDS2
 12286 1cf7 1A       		.uleb128 0x1a
 12287 1cf8 99060000 		.4byte	.LASF80
 12288 1cfc 01       		.byte	0x1
 12289 1cfd 1B       		.byte	0x1b
 12290 1cfe B41C0000 		.4byte	0x1cb4
 12291 1d02 05       		.uleb128 0x5
 12292 1d03 03       		.byte	0x3
 12293 1d04 00000000 		.4byte	msn_EDS3
 12294 1d08 1A       		.uleb128 0x1a
 12295 1d09 A2060000 		.4byte	.LASF81
 12296 1d0d 01       		.byte	0x1
 12297 1d0e 1C       		.byte	0x1c
 12298 1d0f B41C0000 		.4byte	0x1cb4
 12299 1d13 05       		.uleb128 0x5
 12300 1d14 03       		.byte	0x3
 12301 1d15 00000000 		.4byte	msn_EDS4
 12302 1d19 1A       		.uleb128 0x1a
 12303 1d1a AB060000 		.4byte	.LASF82
ARM GAS  C:\Users\Diego\AppData\Local\Temp\ccIAJaV8.s 			page 256


 12304 1d1e 01       		.byte	0x1
 12305 1d1f 1D       		.byte	0x1d
 12306 1d20 B41C0000 		.4byte	0x1cb4
 12307 1d24 05       		.uleb128 0x5
 12308 1d25 03       		.byte	0x3
 12309 1d26 00000000 		.4byte	msn_EDS5
 12310 1d2a 1A       		.uleb128 0x1a
 12311 1d2b B4060000 		.4byte	.LASF83
 12312 1d2f 01       		.byte	0x1
 12313 1d30 1E       		.byte	0x1e
 12314 1d31 B41C0000 		.4byte	0x1cb4
 12315 1d35 05       		.uleb128 0x5
 12316 1d36 03       		.byte	0x3
 12317 1d37 00000000 		.4byte	msn_EDS6
 12318 1d3b 1A       		.uleb128 0x1a
 12319 1d3c B7050000 		.4byte	.LASF84
 12320 1d40 01       		.byte	0x1
 12321 1d41 1F       		.byte	0x1f
 12322 1d42 B41C0000 		.4byte	0x1cb4
 12323 1d46 05       		.uleb128 0x5
 12324 1d47 03       		.byte	0x3
 12325 1d48 00000000 		.4byte	msn_footer
 12326 1d4c 1A       		.uleb128 0x1a
 12327 1d4d F5000000 		.4byte	.LASF85
 12328 1d51 01       		.byte	0x1
 12329 1d52 20       		.byte	0x20
 12330 1d53 B41C0000 		.4byte	0x1cb4
 12331 1d57 05       		.uleb128 0x5
 12332 1d58 03       		.byte	0x3
 12333 1d59 00000000 		.4byte	msn_footer2
 12334 1d5d 1A       		.uleb128 0x1a
 12335 1d5e 01010000 		.4byte	.LASF86
 12336 1d62 01       		.byte	0x1
 12337 1d63 21       		.byte	0x21
 12338 1d64 B41C0000 		.4byte	0x1cb4
 12339 1d68 05       		.uleb128 0x5
 12340 1d69 03       		.byte	0x3
 12341 1d6a 00000000 		.4byte	msn_footer3
 12342 1d6e 1A       		.uleb128 0x1a
 12343 1d6f 0D010000 		.4byte	.LASF87
 12344 1d73 01       		.byte	0x1
 12345 1d74 22       		.byte	0x22
 12346 1d75 B41C0000 		.4byte	0x1cb4
 12347 1d79 05       		.uleb128 0x5
 12348 1d7a 03       		.byte	0x3
 12349 1d7b 00000000 		.4byte	msn_footer4
 12350 1d7f 1A       		.uleb128 0x1a
 12351 1d80 EA010000 		.4byte	.LASF88
 12352 1d84 01       		.byte	0x1
 12353 1d85 23       		.byte	0x23
 12354 1d86 B41C0000 		.4byte	0x1cb4
 12355 1d8a 05       		.uleb128 0x5
 12356 1d8b 03       		.byte	0x3
 12357 1d8c 00000000 		.4byte	msn_copy
 12358 1d90 1A       		.uleb128 0x1a
 12359 1d91 00000000 		.4byte	.LASF89
 12360 1d95 01       		.byte	0x1
ARM GAS  C:\Users\Diego\AppData\Local\Temp\ccIAJaV8.s 			page 257


 12361 1d96 24       		.byte	0x24
 12362 1d97 B41C0000 		.4byte	0x1cb4
 12363 1d9b 05       		.uleb128 0x5
 12364 1d9c 03       		.byte	0x3
 12365 1d9d 00000000 		.4byte	msn_original
 12366 1da1 0B       		.uleb128 0xb
 12367 1da2 81000000 		.4byte	0x81
 12368 1da6 B11D0000 		.4byte	0x1db1
 12369 1daa 0C       		.uleb128 0xc
 12370 1dab CD000000 		.4byte	0xcd
 12371 1daf 08       		.byte	0x8
 12372 1db0 00       		.byte	0
 12373 1db1 1A       		.uleb128 0x1a
 12374 1db2 8A030000 		.4byte	.LASF90
 12375 1db6 01       		.byte	0x1
 12376 1db7 25       		.byte	0x25
 12377 1db8 A11D0000 		.4byte	0x1da1
 12378 1dbc 05       		.uleb128 0x5
 12379 1dbd 03       		.byte	0x3
 12380 1dbe 00000000 		.4byte	msn_diesel
 12381 1dc2 0B       		.uleb128 0xb
 12382 1dc3 81000000 		.4byte	0x81
 12383 1dc7 D21D0000 		.4byte	0x1dd2
 12384 1dcb 0C       		.uleb128 0xc
 12385 1dcc CD000000 		.4byte	0xcd
 12386 1dd0 09       		.byte	0x9
 12387 1dd1 00       		.byte	0
 12388 1dd2 1A       		.uleb128 0x1a
 12389 1dd3 16030000 		.4byte	.LASF91
 12390 1dd7 01       		.byte	0x1
 12391 1dd8 26       		.byte	0x26
 12392 1dd9 C21D0000 		.4byte	0x1dc2
 12393 1ddd 05       		.uleb128 0x5
 12394 1dde 03       		.byte	0x3
 12395 1ddf 00000000 		.4byte	msn_gasoline
 12396 1de3 1A       		.uleb128 0x1a
 12397 1de4 3B030000 		.4byte	.LASF92
 12398 1de8 01       		.byte	0x1
 12399 1de9 27       		.byte	0x27
 12400 1dea A11D0000 		.4byte	0x1da1
 12401 1dee 05       		.uleb128 0x5
 12402 1def 03       		.byte	0x3
 12403 1df0 00000000 		.4byte	msn_extra
 12404 1df4 0B       		.uleb128 0xb
 12405 1df5 81000000 		.4byte	0x81
 12406 1df9 041E0000 		.4byte	0x1e04
 12407 1dfd 0C       		.uleb128 0xc
 12408 1dfe CD000000 		.4byte	0xcd
 12409 1e02 0C       		.byte	0xc
 12410 1e03 00       		.byte	0
 12411 1e04 1A       		.uleb128 0x1a
 12412 1e05 CA030000 		.4byte	.LASF93
 12413 1e09 01       		.byte	0x1
 12414 1e0a 28       		.byte	0x28
 12415 1e0b F41D0000 		.4byte	0x1df4
 12416 1e0f 05       		.uleb128 0x5
 12417 1e10 03       		.byte	0x3
ARM GAS  C:\Users\Diego\AppData\Local\Temp\ccIAJaV8.s 			page 258


 12418 1e11 00000000 		.4byte	msn_POS2
 12419 1e15 1A       		.uleb128 0x1a
 12420 1e16 D3030000 		.4byte	.LASF94
 12421 1e1a 01       		.byte	0x1
 12422 1e1b 29       		.byte	0x29
 12423 1e1c F41D0000 		.4byte	0x1df4
 12424 1e20 05       		.uleb128 0x5
 12425 1e21 03       		.byte	0x3
 12426 1e22 00000000 		.4byte	msn_POS3
 12427 1e26 1A       		.uleb128 0x1a
 12428 1e27 DC030000 		.4byte	.LASF95
 12429 1e2b 01       		.byte	0x1
 12430 1e2c 2A       		.byte	0x2a
 12431 1e2d B41C0000 		.4byte	0x1cb4
 12432 1e31 05       		.uleb128 0x5
 12433 1e32 03       		.byte	0x3
 12434 1e33 00000000 		.4byte	msn_POS4
 12435 1e37 1A       		.uleb128 0x1a
 12436 1e38 E5030000 		.4byte	.LASF96
 12437 1e3c 01       		.byte	0x1
 12438 1e3d 2B       		.byte	0x2b
 12439 1e3e B41C0000 		.4byte	0x1cb4
 12440 1e42 05       		.uleb128 0x5
 12441 1e43 03       		.byte	0x3
 12442 1e44 00000000 		.4byte	msn_POS5
 12443 1e48 1A       		.uleb128 0x1a
 12444 1e49 EE030000 		.4byte	.LASF97
 12445 1e4d 01       		.byte	0x1
 12446 1e4e 2C       		.byte	0x2c
 12447 1e4f B41C0000 		.4byte	0x1cb4
 12448 1e53 05       		.uleb128 0x5
 12449 1e54 03       		.byte	0x3
 12450 1e55 00000000 		.4byte	msn_POS6
 12451 1e59 1A       		.uleb128 0x1a
 12452 1e5a F7030000 		.4byte	.LASF98
 12453 1e5e 01       		.byte	0x1
 12454 1e5f 2D       		.byte	0x2d
 12455 1e60 B41C0000 		.4byte	0x1cb4
 12456 1e64 05       		.uleb128 0x5
 12457 1e65 03       		.byte	0x3
 12458 1e66 00000000 		.4byte	msn_POS7
 12459 1e6a 1A       		.uleb128 0x1a
 12460 1e6b 00040000 		.4byte	.LASF99
 12461 1e6f 01       		.byte	0x1
 12462 1e70 2E       		.byte	0x2e
 12463 1e71 B41C0000 		.4byte	0x1cb4
 12464 1e75 05       		.uleb128 0x5
 12465 1e76 03       		.byte	0x3
 12466 1e77 00000000 		.4byte	msn_POS8
 12467 1e7b 1A       		.uleb128 0x1a
 12468 1e7c 09040000 		.4byte	.LASF100
 12469 1e80 01       		.byte	0x1
 12470 1e81 2F       		.byte	0x2f
 12471 1e82 F41D0000 		.4byte	0x1df4
 12472 1e86 05       		.uleb128 0x5
 12473 1e87 03       		.byte	0x3
 12474 1e88 00000000 		.4byte	msn_POS9
ARM GAS  C:\Users\Diego\AppData\Local\Temp\ccIAJaV8.s 			page 259


 12475 1e8c 1A       		.uleb128 0x1a
 12476 1e8d FE040000 		.4byte	.LASF101
 12477 1e91 01       		.byte	0x1
 12478 1e92 30       		.byte	0x30
 12479 1e93 F41D0000 		.4byte	0x1df4
 12480 1e97 05       		.uleb128 0x5
 12481 1e98 03       		.byte	0x3
 12482 1e99 00000000 		.4byte	msn_POS10
 12483 1e9d 1A       		.uleb128 0x1a
 12484 1e9e C5040000 		.4byte	.LASF102
 12485 1ea2 01       		.byte	0x1
 12486 1ea3 31       		.byte	0x31
 12487 1ea4 F41D0000 		.4byte	0x1df4
 12488 1ea8 05       		.uleb128 0x5
 12489 1ea9 03       		.byte	0x3
 12490 1eaa 00000000 		.4byte	msn_POS11
 12491 1eae 1A       		.uleb128 0x1a
 12492 1eaf 08050000 		.4byte	.LASF103
 12493 1eb3 01       		.byte	0x1
 12494 1eb4 32       		.byte	0x32
 12495 1eb5 F41D0000 		.4byte	0x1df4
 12496 1eb9 05       		.uleb128 0x5
 12497 1eba 03       		.byte	0x3
 12498 1ebb 00000000 		.4byte	msn_POS12
 12499 1ebf 1A       		.uleb128 0x1a
 12500 1ec0 12050000 		.4byte	.LASF104
 12501 1ec4 01       		.byte	0x1
 12502 1ec5 33       		.byte	0x33
 12503 1ec6 B41C0000 		.4byte	0x1cb4
 12504 1eca 05       		.uleb128 0x5
 12505 1ecb 03       		.byte	0x3
 12506 1ecc 00000000 		.4byte	msn_POS13
 12507 1ed0 1A       		.uleb128 0x1a
 12508 1ed1 1C050000 		.4byte	.LASF105
 12509 1ed5 01       		.byte	0x1
 12510 1ed6 34       		.byte	0x34
 12511 1ed7 B41C0000 		.4byte	0x1cb4
 12512 1edb 05       		.uleb128 0x5
 12513 1edc 03       		.byte	0x3
 12514 1edd 00000000 		.4byte	msn_POS14
 12515 1ee1 1A       		.uleb128 0x1a
 12516 1ee2 EA040000 		.4byte	.LASF106
 12517 1ee6 01       		.byte	0x1
 12518 1ee7 35       		.byte	0x35
 12519 1ee8 B41C0000 		.4byte	0x1cb4
 12520 1eec 05       		.uleb128 0x5
 12521 1eed 03       		.byte	0x3
 12522 1eee 00000000 		.4byte	msn_POS15
 12523 1ef2 1A       		.uleb128 0x1a
 12524 1ef3 2F050000 		.4byte	.LASF107
 12525 1ef7 01       		.byte	0x1
 12526 1ef8 36       		.byte	0x36
 12527 1ef9 B41C0000 		.4byte	0x1cb4
 12528 1efd 05       		.uleb128 0x5
 12529 1efe 03       		.byte	0x3
 12530 1eff 00000000 		.4byte	msn_POS16
 12531 1f03 1A       		.uleb128 0x1a
ARM GAS  C:\Users\Diego\AppData\Local\Temp\ccIAJaV8.s 			page 260


 12532 1f04 39050000 		.4byte	.LASF108
 12533 1f08 01       		.byte	0x1
 12534 1f09 37       		.byte	0x37
 12535 1f0a B41C0000 		.4byte	0x1cb4
 12536 1f0e 05       		.uleb128 0x5
 12537 1f0f 03       		.byte	0x3
 12538 1f10 00000000 		.4byte	msn_POS17
 12539 1f14 1A       		.uleb128 0x1a
 12540 1f15 43050000 		.4byte	.LASF109
 12541 1f19 01       		.byte	0x1
 12542 1f1a 38       		.byte	0x38
 12543 1f1b B41C0000 		.4byte	0x1cb4
 12544 1f1f 05       		.uleb128 0x5
 12545 1f20 03       		.byte	0x3
 12546 1f21 00000000 		.4byte	msn_POS18
 12547 1f25 1A       		.uleb128 0x1a
 12548 1f26 F4040000 		.4byte	.LASF110
 12549 1f2a 01       		.byte	0x1
 12550 1f2b 39       		.byte	0x39
 12551 1f2c B41C0000 		.4byte	0x1cb4
 12552 1f30 05       		.uleb128 0x5
 12553 1f31 03       		.byte	0x3
 12554 1f32 00000000 		.4byte	msn_POS19
 12555 1f36 1A       		.uleb128 0x1a
 12556 1f37 F3010000 		.4byte	.LASF111
 12557 1f3b 01       		.byte	0x1
 12558 1f3c 3A       		.byte	0x3a
 12559 1f3d F2010000 		.4byte	0x1f2
 12560 1f41 05       		.uleb128 0x5
 12561 1f42 03       		.byte	0x3
 12562 1f43 00000000 		.4byte	prefijo
 12563 1f47 1A       		.uleb128 0x1a
 12564 1f48 A2050000 		.4byte	.LASF112
 12565 1f4c 01       		.byte	0x1
 12566 1f4d 3B       		.byte	0x3b
 12567 1f4e F41D0000 		.4byte	0x1df4
 12568 1f52 05       		.uleb128 0x5
 12569 1f53 03       		.byte	0x3
 12570 1f54 00000000 		.4byte	equipo
 12571 1f58 1A       		.uleb128 0x1a
 12572 1f59 6F050000 		.4byte	.LASF113
 12573 1f5d 01       		.byte	0x1
 12574 1f5e 3F       		.byte	0x3f
 12575 1f5f F41D0000 		.4byte	0x1df4
 12576 1f63 05       		.uleb128 0x5
 12577 1f64 03       		.byte	0x3
 12578 1f65 00000000 		.4byte	msn_fecha
 12579 1f69 1A       		.uleb128 0x1a
 12580 1f6a D3010000 		.4byte	.LASF114
 12581 1f6e 01       		.byte	0x1
 12582 1f6f 40       		.byte	0x40
 12583 1f70 F41D0000 		.4byte	0x1df4
 12584 1f74 05       		.uleb128 0x5
 12585 1f75 03       		.byte	0x3
 12586 1f76 00000000 		.4byte	msn_hora
 12587 1f7a 1A       		.uleb128 0x1a
 12588 1f7b 92010000 		.4byte	.LASF115
ARM GAS  C:\Users\Diego\AppData\Local\Temp\ccIAJaV8.s 			page 261


 12589 1f7f 01       		.byte	0x1
 12590 1f80 41       		.byte	0x41
 12591 1f81 F41D0000 		.4byte	0x1df4
 12592 1f85 05       		.uleb128 0x5
 12593 1f86 03       		.byte	0x3
 12594 1f87 00000000 		.4byte	msn_placa
 12595 1f8b 1A       		.uleb128 0x1a
 12596 1f8c 84020000 		.4byte	.LASF116
 12597 1f90 01       		.byte	0x1
 12598 1f91 42       		.byte	0x42
 12599 1f92 F41D0000 		.4byte	0x1df4
 12600 1f96 05       		.uleb128 0x5
 12601 1f97 03       		.byte	0x3
 12602 1f98 00000000 		.4byte	PRN_MILLEAGE
 12603 1f9c 1A       		.uleb128 0x1a
 12604 1f9d DC010000 		.4byte	.LASF117
 12605 1fa1 01       		.byte	0x1
 12606 1fa2 43       		.byte	0x43
 12607 1fa3 F41D0000 		.4byte	0x1df4
 12608 1fa7 05       		.uleb128 0x5
 12609 1fa8 03       		.byte	0x3
 12610 1fa9 00000000 		.4byte	PRN_TRANSTYPE
 12611 1fad 1A       		.uleb128 0x1a
 12612 1fae 2D010000 		.4byte	.LASF118
 12613 1fb2 01       		.byte	0x1
 12614 1fb3 44       		.byte	0x44
 12615 1fb4 F41D0000 		.4byte	0x1df4
 12616 1fb8 05       		.uleb128 0x5
 12617 1fb9 03       		.byte	0x3
 12618 1fba 00000000 		.4byte	msn_pos
 12619 1fbe 1A       		.uleb128 0x1a
 12620 1fbf DE040000 		.4byte	.LASF119
 12621 1fc3 01       		.byte	0x1
 12622 1fc4 45       		.byte	0x45
 12623 1fc5 F41D0000 		.4byte	0x1df4
 12624 1fc9 05       		.uleb128 0x5
 12625 1fca 03       		.byte	0x3
 12626 1fcb 00000000 		.4byte	msn_product
 12627 1fcf 1A       		.uleb128 0x1a
 12628 1fd0 8A010000 		.4byte	.LASF120
 12629 1fd4 01       		.byte	0x1
 12630 1fd5 46       		.byte	0x46
 12631 1fd6 F41D0000 		.4byte	0x1df4
 12632 1fda 05       		.uleb128 0x5
 12633 1fdb 03       		.byte	0x3
 12634 1fdc 00000000 		.4byte	msn_ppu
 12635 1fe0 1A       		.uleb128 0x1a
 12636 1fe1 6E030000 		.4byte	.LASF121
 12637 1fe5 01       		.byte	0x1
 12638 1fe6 47       		.byte	0x47
 12639 1fe7 F41D0000 		.4byte	0x1df4
 12640 1feb 05       		.uleb128 0x5
 12641 1fec 03       		.byte	0x3
 12642 1fed 00000000 		.4byte	msn_vol
 12643 1ff1 1A       		.uleb128 0x1a
 12644 1ff2 FB020000 		.4byte	.LASF122
 12645 1ff6 01       		.byte	0x1
ARM GAS  C:\Users\Diego\AppData\Local\Temp\ccIAJaV8.s 			page 262


 12646 1ff7 48       		.byte	0x48
 12647 1ff8 F41D0000 		.4byte	0x1df4
 12648 1ffc 05       		.uleb128 0x5
 12649 1ffd 03       		.byte	0x3
 12650 1ffe 00000000 		.4byte	msn_voltot
 12651 2002 1A       		.uleb128 0x1a
 12652 2003 04070000 		.4byte	.LASF123
 12653 2007 01       		.byte	0x1
 12654 2008 49       		.byte	0x49
 12655 2009 F41D0000 		.4byte	0x1df4
 12656 200d 05       		.uleb128 0x5
 12657 200e 03       		.byte	0x3
 12658 200f 00000000 		.4byte	msn_din
 12659 2013 1A       		.uleb128 0x1a
 12660 2014 AF020000 		.4byte	.LASF124
 12661 2018 01       		.byte	0x1
 12662 2019 4A       		.byte	0x4a
 12663 201a F41D0000 		.4byte	0x1df4
 12664 201e 05       		.uleb128 0x5
 12665 201f 03       		.byte	0x3
 12666 2020 00000000 		.4byte	msn_cierre
 12667 2024 1A       		.uleb128 0x1a
 12668 2025 7A020000 		.4byte	.LASF125
 12669 2029 01       		.byte	0x1
 12670 202a 4B       		.byte	0x4b
 12671 202b F41D0000 		.4byte	0x1df4
 12672 202f 05       		.uleb128 0x5
 12673 2030 03       		.byte	0x3
 12674 2031 00000000 		.4byte	msn_venta
 12675 2035 1A       		.uleb128 0x1a
 12676 2036 91020000 		.4byte	.LASF126
 12677 203a 01       		.byte	0x1
 12678 203b 4C       		.byte	0x4c
 12679 203c F41D0000 		.4byte	0x1df4
 12680 2040 05       		.uleb128 0x5
 12681 2041 03       		.byte	0x3
 12682 2042 00000000 		.4byte	msn_numero
 12683 2046 1A       		.uleb128 0x1a
 12684 2047 FF050000 		.4byte	.LASF127
 12685 204b 01       		.byte	0x1
 12686 204c 4D       		.byte	0x4d
 12687 204d F41D0000 		.4byte	0x1df4
 12688 2051 05       		.uleb128 0x5
 12689 2052 03       		.byte	0x3
 12690 2053 00000000 		.4byte	PRN_BALANCE
 12691 2057 1A       		.uleb128 0x1a
 12692 2058 D9050000 		.4byte	.LASF128
 12693 205c 01       		.byte	0x1
 12694 205d 4E       		.byte	0x4e
 12695 205e F41D0000 		.4byte	0x1df4
 12696 2062 05       		.uleb128 0x5
 12697 2063 03       		.byte	0x3
 12698 2064 00000000 		.4byte	PRN_COMPANY
 12699 2068 1A       		.uleb128 0x1a
 12700 2069 2B020000 		.4byte	.LASF129
 12701 206d 01       		.byte	0x1
 12702 206e 4F       		.byte	0x4f
ARM GAS  C:\Users\Diego\AppData\Local\Temp\ccIAJaV8.s 			page 263


 12703 206f F41D0000 		.4byte	0x1df4
 12704 2073 05       		.uleb128 0x5
 12705 2074 03       		.byte	0x3
 12706 2075 00000000 		.4byte	PRN_ACCOUNT
 12707 2079 1A       		.uleb128 0x1a
 12708 207a CA060000 		.4byte	.LASF130
 12709 207e 01       		.byte	0x1
 12710 207f 50       		.byte	0x50
 12711 2080 F41D0000 		.4byte	0x1df4
 12712 2084 05       		.uleb128 0x5
 12713 2085 03       		.byte	0x3
 12714 2086 00000000 		.4byte	PRN_SERIAL
 12715 208a 1A       		.uleb128 0x1a
 12716 208b BA030000 		.4byte	.LASF131
 12717 208f 01       		.byte	0x1
 12718 2090 51       		.byte	0x51
 12719 2091 F41D0000 		.4byte	0x1df4
 12720 2095 05       		.uleb128 0x5
 12721 2096 03       		.byte	0x3
 12722 2097 00000000 		.4byte	PRN_ACCOUNTTYPE
 12723 209b 1A       		.uleb128 0x1a
 12724 209c E1020000 		.4byte	.LASF132
 12725 20a0 01       		.byte	0x1
 12726 20a1 52       		.byte	0x52
 12727 20a2 F41D0000 		.4byte	0x1df4
 12728 20a6 05       		.uleb128 0x5
 12729 20a7 03       		.byte	0x3
 12730 20a8 00000000 		.4byte	PRN_VISITSDAY
 12731 20ac 1A       		.uleb128 0x1a
 12732 20ad 30060000 		.4byte	.LASF133
 12733 20b1 01       		.byte	0x1
 12734 20b2 53       		.byte	0x53
 12735 20b3 F41D0000 		.4byte	0x1df4
 12736 20b7 05       		.uleb128 0x5
 12737 20b8 03       		.byte	0x3
 12738 20b9 00000000 		.4byte	PRN_VISITSWEEK
 12739 20bd 1A       		.uleb128 0x1a
 12740 20be 92050000 		.4byte	.LASF134
 12741 20c2 01       		.byte	0x1
 12742 20c3 54       		.byte	0x54
 12743 20c4 F41D0000 		.4byte	0x1df4
 12744 20c8 05       		.uleb128 0x5
 12745 20c9 03       		.byte	0x3
 12746 20ca 00000000 		.4byte	PRN_VISITSMONTH
 12747 20ce 1A       		.uleb128 0x1a
 12748 20cf 37020000 		.4byte	.LASF135
 12749 20d3 01       		.byte	0x1
 12750 20d4 55       		.byte	0x55
 12751 20d5 F41D0000 		.4byte	0x1df4
 12752 20d9 05       		.uleb128 0x5
 12753 20da 03       		.byte	0x3
 12754 20db 00000000 		.4byte	PRN_VOLUMEDAY
 12755 20df 1A       		.uleb128 0x1a
 12756 20e0 9C010000 		.4byte	.LASF136
 12757 20e4 01       		.byte	0x1
 12758 20e5 56       		.byte	0x56
 12759 20e6 F41D0000 		.4byte	0x1df4
ARM GAS  C:\Users\Diego\AppData\Local\Temp\ccIAJaV8.s 			page 264


 12760 20ea 05       		.uleb128 0x5
 12761 20eb 03       		.byte	0x3
 12762 20ec 00000000 		.4byte	PRN_VOLUMEWEEK
 12763 20f0 1A       		.uleb128 0x1a
 12764 20f1 69010000 		.4byte	.LASF137
 12765 20f5 01       		.byte	0x1
 12766 20f6 57       		.byte	0x57
 12767 20f7 F41D0000 		.4byte	0x1df4
 12768 20fb 05       		.uleb128 0x5
 12769 20fc 03       		.byte	0x3
 12770 20fd 00000000 		.4byte	PRN_VOLUMEMONTH
 12771 2101 1A       		.uleb128 0x1a
 12772 2102 70040000 		.4byte	.LASF138
 12773 2106 01       		.byte	0x1
 12774 2107 58       		.byte	0x58
 12775 2108 F41D0000 		.4byte	0x1df4
 12776 210c 05       		.uleb128 0x5
 12777 210d 03       		.byte	0x3
 12778 210e 00000000 		.4byte	PRN_MONEYDAY
 12779 2112 1A       		.uleb128 0x1a
 12780 2113 76060000 		.4byte	.LASF139
 12781 2117 01       		.byte	0x1
 12782 2118 59       		.byte	0x59
 12783 2119 F41D0000 		.4byte	0x1df4
 12784 211d 05       		.uleb128 0x5
 12785 211e 03       		.byte	0x3
 12786 211f 00000000 		.4byte	PRN_MONEYWEEK
 12787 2123 1A       		.uleb128 0x1a
 12788 2124 1C020000 		.4byte	.LASF140
 12789 2128 01       		.byte	0x1
 12790 2129 5A       		.byte	0x5a
 12791 212a F41D0000 		.4byte	0x1df4
 12792 212e 05       		.uleb128 0x5
 12793 212f 03       		.byte	0x3
 12794 2130 00000000 		.4byte	PRN_MONEYMONTH
 12795 2134 1A       		.uleb128 0x1a
 12796 2135 5E010000 		.4byte	.LASF141
 12797 2139 01       		.byte	0x1
 12798 213a 5B       		.byte	0x5b
 12799 213b F41D0000 		.4byte	0x1df4
 12800 213f 05       		.uleb128 0x5
 12801 2140 03       		.byte	0x3
 12802 2141 00000000 		.4byte	PRN_PRESET
 12803 2145 1A       		.uleb128 0x1a
 12804 2146 68060000 		.4byte	.LASF142
 12805 214a 01       		.byte	0x1
 12806 214b 5C       		.byte	0x5c
 12807 214c F41D0000 		.4byte	0x1df4
 12808 2150 05       		.uleb128 0x5
 12809 2151 03       		.byte	0x3
 12810 2152 00000000 		.4byte	PRN_SIGNATURE
 12811 2156 1A       		.uleb128 0x1a
 12812 2157 29060000 		.4byte	.LASF143
 12813 215b 01       		.byte	0x1
 12814 215c 5D       		.byte	0x5d
 12815 215d F41D0000 		.4byte	0x1df4
 12816 2161 05       		.uleb128 0x5
ARM GAS  C:\Users\Diego\AppData\Local\Temp\ccIAJaV8.s 			page 265


 12817 2162 03       		.byte	0x3
 12818 2163 00000000 		.4byte	PRN_ID
 12819 2167 0B       		.uleb128 0xb
 12820 2168 81000000 		.4byte	0x81
 12821 216c 77210000 		.4byte	0x2177
 12822 2170 0C       		.uleb128 0xc
 12823 2171 CD000000 		.4byte	0xcd
 12824 2175 00       		.byte	0
 12825 2176 00       		.byte	0
 12826 2177 1A       		.uleb128 0x1a
 12827 2178 DC060000 		.4byte	.LASF144
 12828 217c 01       		.byte	0x1
 12829 217d 5E       		.byte	0x5e
 12830 217e 67210000 		.4byte	0x2167
 12831 2182 05       		.uleb128 0x5
 12832 2183 03       		.byte	0x3
 12833 2184 00000000 		.4byte	PRN_CURRENCY
 12834 2188 0B       		.uleb128 0xb
 12835 2189 81000000 		.4byte	0x81
 12836 218d 98210000 		.4byte	0x2198
 12837 2191 0C       		.uleb128 0xc
 12838 2192 CD000000 		.4byte	0xcd
 12839 2196 0F       		.byte	0xf
 12840 2197 00       		.byte	0
 12841 2198 1A       		.uleb128 0x1a
 12842 2199 57020000 		.4byte	.LASF145
 12843 219d 01       		.byte	0x1
 12844 219e 5F       		.byte	0x5f
 12845 219f 88210000 		.4byte	0x2188
 12846 21a3 05       		.uleb128 0x5
 12847 21a4 03       		.byte	0x3
 12848 21a5 00000000 		.4byte	msn_lecact
 12849 21a9 1A       		.uleb128 0x1a
 12850 21aa 7F010000 		.4byte	.LASF146
 12851 21ae 01       		.byte	0x1
 12852 21af 60       		.byte	0x60
 12853 21b0 88210000 		.4byte	0x2188
 12854 21b4 05       		.uleb128 0x5
 12855 21b5 03       		.byte	0x3
 12856 21b6 00000000 		.4byte	msn_lecaan
 12857 21ba 0B       		.uleb128 0xb
 12858 21bb 81000000 		.4byte	0x81
 12859 21bf CA210000 		.4byte	0x21ca
 12860 21c3 0C       		.uleb128 0xc
 12861 21c4 CD000000 		.4byte	0xcd
 12862 21c8 11       		.byte	0x11
 12863 21c9 00       		.byte	0
 12864 21ca 1A       		.uleb128 0x1a
 12865 21cb FC060000 		.4byte	.LASF147
 12866 21cf 01       		.byte	0x1
 12867 21d0 61       		.byte	0x61
 12868 21d1 BA210000 		.4byte	0x21ba
 12869 21d5 05       		.uleb128 0x5
 12870 21d6 03       		.byte	0x3
 12871 21d7 00000000 		.4byte	msn_dif
 12872 21db 1A       		.uleb128 0x1a
 12873 21dc BA020000 		.4byte	.LASF148
ARM GAS  C:\Users\Diego\AppData\Local\Temp\ccIAJaV8.s 			page 266


 12874 21e0 01       		.byte	0x1
 12875 21e1 62       		.byte	0x62
 12876 21e2 B41C0000 		.4byte	0x1cb4
 12877 21e6 05       		.uleb128 0x5
 12878 21e7 03       		.byte	0x3
 12879 21e8 00000000 		.4byte	SEPARATOR
 12880 21ec 1A       		.uleb128 0x1a
 12881 21ed 40010000 		.4byte	.LASF149
 12882 21f1 01       		.byte	0x1
 12883 21f2 63       		.byte	0x63
 12884 21f3 FE1A0000 		.4byte	0x1afe
 12885 21f7 05       		.uleb128 0x5
 12886 21f8 03       		.byte	0x3
 12887 21f9 00000000 		.4byte	ASK_TIME
 12888 21fd 00       		.byte	0
 12889              		.section	.debug_abbrev,"",%progbits
 12890              	.Ldebug_abbrev0:
 12891 0000 01       		.uleb128 0x1
 12892 0001 11       		.uleb128 0x11
 12893 0002 01       		.byte	0x1
 12894 0003 25       		.uleb128 0x25
 12895 0004 0E       		.uleb128 0xe
 12896 0005 13       		.uleb128 0x13
 12897 0006 0B       		.uleb128 0xb
 12898 0007 03       		.uleb128 0x3
 12899 0008 0E       		.uleb128 0xe
 12900 0009 1B       		.uleb128 0x1b
 12901 000a 0E       		.uleb128 0xe
 12902 000b 55       		.uleb128 0x55
 12903 000c 17       		.uleb128 0x17
 12904 000d 11       		.uleb128 0x11
 12905 000e 01       		.uleb128 0x1
 12906 000f 10       		.uleb128 0x10
 12907 0010 17       		.uleb128 0x17
 12908 0011 00       		.byte	0
 12909 0012 00       		.byte	0
 12910 0013 02       		.uleb128 0x2
 12911 0014 24       		.uleb128 0x24
 12912 0015 00       		.byte	0
 12913 0016 0B       		.uleb128 0xb
 12914 0017 0B       		.uleb128 0xb
 12915 0018 3E       		.uleb128 0x3e
 12916 0019 0B       		.uleb128 0xb
 12917 001a 03       		.uleb128 0x3
 12918 001b 0E       		.uleb128 0xe
 12919 001c 00       		.byte	0
 12920 001d 00       		.byte	0
 12921 001e 03       		.uleb128 0x3
 12922 001f 16       		.uleb128 0x16
 12923 0020 00       		.byte	0
 12924 0021 03       		.uleb128 0x3
 12925 0022 0E       		.uleb128 0xe
 12926 0023 3A       		.uleb128 0x3a
 12927 0024 0B       		.uleb128 0xb
 12928 0025 3B       		.uleb128 0x3b
 12929 0026 0B       		.uleb128 0xb
 12930 0027 49       		.uleb128 0x49
ARM GAS  C:\Users\Diego\AppData\Local\Temp\ccIAJaV8.s 			page 267


 12931 0028 13       		.uleb128 0x13
 12932 0029 00       		.byte	0
 12933 002a 00       		.byte	0
 12934 002b 04       		.uleb128 0x4
 12935 002c 24       		.uleb128 0x24
 12936 002d 00       		.byte	0
 12937 002e 0B       		.uleb128 0xb
 12938 002f 0B       		.uleb128 0xb
 12939 0030 3E       		.uleb128 0x3e
 12940 0031 0B       		.uleb128 0xb
 12941 0032 03       		.uleb128 0x3
 12942 0033 08       		.uleb128 0x8
 12943 0034 00       		.byte	0
 12944 0035 00       		.byte	0
 12945 0036 05       		.uleb128 0x5
 12946 0037 16       		.uleb128 0x16
 12947 0038 00       		.byte	0
 12948 0039 03       		.uleb128 0x3
 12949 003a 0E       		.uleb128 0xe
 12950 003b 3A       		.uleb128 0x3a
 12951 003c 0B       		.uleb128 0xb
 12952 003d 3B       		.uleb128 0x3b
 12953 003e 05       		.uleb128 0x5
 12954 003f 49       		.uleb128 0x49
 12955 0040 13       		.uleb128 0x13
 12956 0041 00       		.byte	0
 12957 0042 00       		.byte	0
 12958 0043 06       		.uleb128 0x6
 12959 0044 13       		.uleb128 0x13
 12960 0045 01       		.byte	0x1
 12961 0046 03       		.uleb128 0x3
 12962 0047 0E       		.uleb128 0xe
 12963 0048 0B       		.uleb128 0xb
 12964 0049 05       		.uleb128 0x5
 12965 004a 3A       		.uleb128 0x3a
 12966 004b 0B       		.uleb128 0xb
 12967 004c 3B       		.uleb128 0x3b
 12968 004d 0B       		.uleb128 0xb
 12969 004e 01       		.uleb128 0x1
 12970 004f 13       		.uleb128 0x13
 12971 0050 00       		.byte	0
 12972 0051 00       		.byte	0
 12973 0052 07       		.uleb128 0x7
 12974 0053 0D       		.uleb128 0xd
 12975 0054 00       		.byte	0
 12976 0055 03       		.uleb128 0x3
 12977 0056 08       		.uleb128 0x8
 12978 0057 3A       		.uleb128 0x3a
 12979 0058 0B       		.uleb128 0xb
 12980 0059 3B       		.uleb128 0x3b
 12981 005a 0B       		.uleb128 0xb
 12982 005b 49       		.uleb128 0x49
 12983 005c 13       		.uleb128 0x13
 12984 005d 38       		.uleb128 0x38
 12985 005e 0B       		.uleb128 0xb
 12986 005f 00       		.byte	0
 12987 0060 00       		.byte	0
ARM GAS  C:\Users\Diego\AppData\Local\Temp\ccIAJaV8.s 			page 268


 12988 0061 08       		.uleb128 0x8
 12989 0062 0D       		.uleb128 0xd
 12990 0063 00       		.byte	0
 12991 0064 03       		.uleb128 0x3
 12992 0065 0E       		.uleb128 0xe
 12993 0066 3A       		.uleb128 0x3a
 12994 0067 0B       		.uleb128 0xb
 12995 0068 3B       		.uleb128 0x3b
 12996 0069 0B       		.uleb128 0xb
 12997 006a 49       		.uleb128 0x49
 12998 006b 13       		.uleb128 0x13
 12999 006c 38       		.uleb128 0x38
 13000 006d 0B       		.uleb128 0xb
 13001 006e 00       		.byte	0
 13002 006f 00       		.byte	0
 13003 0070 09       		.uleb128 0x9
 13004 0071 0D       		.uleb128 0xd
 13005 0072 00       		.byte	0
 13006 0073 03       		.uleb128 0x3
 13007 0074 0E       		.uleb128 0xe
 13008 0075 3A       		.uleb128 0x3a
 13009 0076 0B       		.uleb128 0xb
 13010 0077 3B       		.uleb128 0x3b
 13011 0078 0B       		.uleb128 0xb
 13012 0079 49       		.uleb128 0x49
 13013 007a 13       		.uleb128 0x13
 13014 007b 38       		.uleb128 0x38
 13015 007c 05       		.uleb128 0x5
 13016 007d 00       		.byte	0
 13017 007e 00       		.byte	0
 13018 007f 0A       		.uleb128 0xa
 13019 0080 0D       		.uleb128 0xd
 13020 0081 00       		.byte	0
 13021 0082 03       		.uleb128 0x3
 13022 0083 08       		.uleb128 0x8
 13023 0084 3A       		.uleb128 0x3a
 13024 0085 0B       		.uleb128 0xb
 13025 0086 3B       		.uleb128 0x3b
 13026 0087 0B       		.uleb128 0xb
 13027 0088 49       		.uleb128 0x49
 13028 0089 13       		.uleb128 0x13
 13029 008a 38       		.uleb128 0x38
 13030 008b 05       		.uleb128 0x5
 13031 008c 00       		.byte	0
 13032 008d 00       		.byte	0
 13033 008e 0B       		.uleb128 0xb
 13034 008f 01       		.uleb128 0x1
 13035 0090 01       		.byte	0x1
 13036 0091 49       		.uleb128 0x49
 13037 0092 13       		.uleb128 0x13
 13038 0093 01       		.uleb128 0x1
 13039 0094 13       		.uleb128 0x13
 13040 0095 00       		.byte	0
 13041 0096 00       		.byte	0
 13042 0097 0C       		.uleb128 0xc
 13043 0098 21       		.uleb128 0x21
 13044 0099 00       		.byte	0
ARM GAS  C:\Users\Diego\AppData\Local\Temp\ccIAJaV8.s 			page 269


 13045 009a 49       		.uleb128 0x49
 13046 009b 13       		.uleb128 0x13
 13047 009c 2F       		.uleb128 0x2f
 13048 009d 0B       		.uleb128 0xb
 13049 009e 00       		.byte	0
 13050 009f 00       		.byte	0
 13051 00a0 0D       		.uleb128 0xd
 13052 00a1 2E       		.uleb128 0x2e
 13053 00a2 01       		.byte	0x1
 13054 00a3 3F       		.uleb128 0x3f
 13055 00a4 19       		.uleb128 0x19
 13056 00a5 03       		.uleb128 0x3
 13057 00a6 0E       		.uleb128 0xe
 13058 00a7 3A       		.uleb128 0x3a
 13059 00a8 0B       		.uleb128 0xb
 13060 00a9 3B       		.uleb128 0x3b
 13061 00aa 0B       		.uleb128 0xb
 13062 00ab 27       		.uleb128 0x27
 13063 00ac 19       		.uleb128 0x19
 13064 00ad 11       		.uleb128 0x11
 13065 00ae 01       		.uleb128 0x1
 13066 00af 12       		.uleb128 0x12
 13067 00b0 06       		.uleb128 0x6
 13068 00b1 40       		.uleb128 0x40
 13069 00b2 18       		.uleb128 0x18
 13070 00b3 9642     		.uleb128 0x2116
 13071 00b5 19       		.uleb128 0x19
 13072 00b6 01       		.uleb128 0x1
 13073 00b7 13       		.uleb128 0x13
 13074 00b8 00       		.byte	0
 13075 00b9 00       		.byte	0
 13076 00ba 0E       		.uleb128 0xe
 13077 00bb 05       		.uleb128 0x5
 13078 00bc 00       		.byte	0
 13079 00bd 03       		.uleb128 0x3
 13080 00be 0E       		.uleb128 0xe
 13081 00bf 3A       		.uleb128 0x3a
 13082 00c0 0B       		.uleb128 0xb
 13083 00c1 3B       		.uleb128 0x3b
 13084 00c2 0B       		.uleb128 0xb
 13085 00c3 49       		.uleb128 0x49
 13086 00c4 13       		.uleb128 0x13
 13087 00c5 02       		.uleb128 0x2
 13088 00c6 18       		.uleb128 0x18
 13089 00c7 00       		.byte	0
 13090 00c8 00       		.byte	0
 13091 00c9 0F       		.uleb128 0xf
 13092 00ca 34       		.uleb128 0x34
 13093 00cb 00       		.byte	0
 13094 00cc 03       		.uleb128 0x3
 13095 00cd 0E       		.uleb128 0xe
 13096 00ce 3A       		.uleb128 0x3a
 13097 00cf 0B       		.uleb128 0xb
 13098 00d0 3B       		.uleb128 0x3b
 13099 00d1 0B       		.uleb128 0xb
 13100 00d2 49       		.uleb128 0x49
 13101 00d3 13       		.uleb128 0x13
ARM GAS  C:\Users\Diego\AppData\Local\Temp\ccIAJaV8.s 			page 270


 13102 00d4 02       		.uleb128 0x2
 13103 00d5 18       		.uleb128 0x18
 13104 00d6 00       		.byte	0
 13105 00d7 00       		.byte	0
 13106 00d8 10       		.uleb128 0x10
 13107 00d9 0B       		.uleb128 0xb
 13108 00da 01       		.byte	0x1
 13109 00db 11       		.uleb128 0x11
 13110 00dc 01       		.uleb128 0x1
 13111 00dd 12       		.uleb128 0x12
 13112 00de 06       		.uleb128 0x6
 13113 00df 01       		.uleb128 0x1
 13114 00e0 13       		.uleb128 0x13
 13115 00e1 00       		.byte	0
 13116 00e2 00       		.byte	0
 13117 00e3 11       		.uleb128 0x11
 13118 00e4 34       		.uleb128 0x34
 13119 00e5 00       		.byte	0
 13120 00e6 03       		.uleb128 0x3
 13121 00e7 08       		.uleb128 0x8
 13122 00e8 3A       		.uleb128 0x3a
 13123 00e9 0B       		.uleb128 0xb
 13124 00ea 3B       		.uleb128 0x3b
 13125 00eb 0B       		.uleb128 0xb
 13126 00ec 49       		.uleb128 0x49
 13127 00ed 13       		.uleb128 0x13
 13128 00ee 02       		.uleb128 0x2
 13129 00ef 18       		.uleb128 0x18
 13130 00f0 00       		.byte	0
 13131 00f1 00       		.byte	0
 13132 00f2 12       		.uleb128 0x12
 13133 00f3 34       		.uleb128 0x34
 13134 00f4 00       		.byte	0
 13135 00f5 03       		.uleb128 0x3
 13136 00f6 08       		.uleb128 0x8
 13137 00f7 3A       		.uleb128 0x3a
 13138 00f8 0B       		.uleb128 0xb
 13139 00f9 3B       		.uleb128 0x3b
 13140 00fa 05       		.uleb128 0x5
 13141 00fb 49       		.uleb128 0x49
 13142 00fc 13       		.uleb128 0x13
 13143 00fd 02       		.uleb128 0x2
 13144 00fe 18       		.uleb128 0x18
 13145 00ff 00       		.byte	0
 13146 0100 00       		.byte	0
 13147 0101 13       		.uleb128 0x13
 13148 0102 0B       		.uleb128 0xb
 13149 0103 01       		.byte	0x1
 13150 0104 11       		.uleb128 0x11
 13151 0105 01       		.uleb128 0x1
 13152 0106 12       		.uleb128 0x12
 13153 0107 06       		.uleb128 0x6
 13154 0108 00       		.byte	0
 13155 0109 00       		.byte	0
 13156 010a 14       		.uleb128 0x14
 13157 010b 2E       		.uleb128 0x2e
 13158 010c 01       		.byte	0x1
ARM GAS  C:\Users\Diego\AppData\Local\Temp\ccIAJaV8.s 			page 271


 13159 010d 3F       		.uleb128 0x3f
 13160 010e 19       		.uleb128 0x19
 13161 010f 03       		.uleb128 0x3
 13162 0110 0E       		.uleb128 0xe
 13163 0111 3A       		.uleb128 0x3a
 13164 0112 0B       		.uleb128 0xb
 13165 0113 3B       		.uleb128 0x3b
 13166 0114 05       		.uleb128 0x5
 13167 0115 27       		.uleb128 0x27
 13168 0116 19       		.uleb128 0x19
 13169 0117 11       		.uleb128 0x11
 13170 0118 01       		.uleb128 0x1
 13171 0119 12       		.uleb128 0x12
 13172 011a 06       		.uleb128 0x6
 13173 011b 40       		.uleb128 0x40
 13174 011c 18       		.uleb128 0x18
 13175 011d 9642     		.uleb128 0x2116
 13176 011f 19       		.uleb128 0x19
 13177 0120 01       		.uleb128 0x1
 13178 0121 13       		.uleb128 0x13
 13179 0122 00       		.byte	0
 13180 0123 00       		.byte	0
 13181 0124 15       		.uleb128 0x15
 13182 0125 34       		.uleb128 0x34
 13183 0126 00       		.byte	0
 13184 0127 03       		.uleb128 0x3
 13185 0128 0E       		.uleb128 0xe
 13186 0129 3A       		.uleb128 0x3a
 13187 012a 0B       		.uleb128 0xb
 13188 012b 3B       		.uleb128 0x3b
 13189 012c 05       		.uleb128 0x5
 13190 012d 49       		.uleb128 0x49
 13191 012e 13       		.uleb128 0x13
 13192 012f 02       		.uleb128 0x2
 13193 0130 18       		.uleb128 0x18
 13194 0131 00       		.byte	0
 13195 0132 00       		.byte	0
 13196 0133 16       		.uleb128 0x16
 13197 0134 05       		.uleb128 0x5
 13198 0135 00       		.byte	0
 13199 0136 03       		.uleb128 0x3
 13200 0137 0E       		.uleb128 0xe
 13201 0138 3A       		.uleb128 0x3a
 13202 0139 0B       		.uleb128 0xb
 13203 013a 3B       		.uleb128 0x3b
 13204 013b 05       		.uleb128 0x5
 13205 013c 49       		.uleb128 0x49
 13206 013d 13       		.uleb128 0x13
 13207 013e 02       		.uleb128 0x2
 13208 013f 18       		.uleb128 0x18
 13209 0140 00       		.byte	0
 13210 0141 00       		.byte	0
 13211 0142 17       		.uleb128 0x17
 13212 0143 34       		.uleb128 0x34
 13213 0144 00       		.byte	0
 13214 0145 03       		.uleb128 0x3
 13215 0146 0E       		.uleb128 0xe
ARM GAS  C:\Users\Diego\AppData\Local\Temp\ccIAJaV8.s 			page 272


 13216 0147 3A       		.uleb128 0x3a
 13217 0148 0B       		.uleb128 0xb
 13218 0149 3B       		.uleb128 0x3b
 13219 014a 05       		.uleb128 0x5
 13220 014b 49       		.uleb128 0x49
 13221 014c 13       		.uleb128 0x13
 13222 014d 00       		.byte	0
 13223 014e 00       		.byte	0
 13224 014f 18       		.uleb128 0x18
 13225 0150 34       		.uleb128 0x34
 13226 0151 00       		.byte	0
 13227 0152 03       		.uleb128 0x3
 13228 0153 0E       		.uleb128 0xe
 13229 0154 3A       		.uleb128 0x3a
 13230 0155 0B       		.uleb128 0xb
 13231 0156 3B       		.uleb128 0x3b
 13232 0157 05       		.uleb128 0x5
 13233 0158 49       		.uleb128 0x49
 13234 0159 13       		.uleb128 0x13
 13235 015a 3F       		.uleb128 0x3f
 13236 015b 19       		.uleb128 0x19
 13237 015c 3C       		.uleb128 0x3c
 13238 015d 19       		.uleb128 0x19
 13239 015e 00       		.byte	0
 13240 015f 00       		.byte	0
 13241 0160 19       		.uleb128 0x19
 13242 0161 35       		.uleb128 0x35
 13243 0162 00       		.byte	0
 13244 0163 49       		.uleb128 0x49
 13245 0164 13       		.uleb128 0x13
 13246 0165 00       		.byte	0
 13247 0166 00       		.byte	0
 13248 0167 1A       		.uleb128 0x1a
 13249 0168 34       		.uleb128 0x34
 13250 0169 00       		.byte	0
 13251 016a 03       		.uleb128 0x3
 13252 016b 0E       		.uleb128 0xe
 13253 016c 3A       		.uleb128 0x3a
 13254 016d 0B       		.uleb128 0xb
 13255 016e 3B       		.uleb128 0x3b
 13256 016f 0B       		.uleb128 0xb
 13257 0170 49       		.uleb128 0x49
 13258 0171 13       		.uleb128 0x13
 13259 0172 3F       		.uleb128 0x3f
 13260 0173 19       		.uleb128 0x19
 13261 0174 02       		.uleb128 0x2
 13262 0175 18       		.uleb128 0x18
 13263 0176 00       		.byte	0
 13264 0177 00       		.byte	0
 13265 0178 1B       		.uleb128 0x1b
 13266 0179 34       		.uleb128 0x34
 13267 017a 00       		.byte	0
 13268 017b 03       		.uleb128 0x3
 13269 017c 08       		.uleb128 0x8
 13270 017d 3A       		.uleb128 0x3a
 13271 017e 0B       		.uleb128 0xb
 13272 017f 3B       		.uleb128 0x3b
ARM GAS  C:\Users\Diego\AppData\Local\Temp\ccIAJaV8.s 			page 273


 13273 0180 0B       		.uleb128 0xb
 13274 0181 49       		.uleb128 0x49
 13275 0182 13       		.uleb128 0x13
 13276 0183 3F       		.uleb128 0x3f
 13277 0184 19       		.uleb128 0x19
 13278 0185 02       		.uleb128 0x2
 13279 0186 18       		.uleb128 0x18
 13280 0187 00       		.byte	0
 13281 0188 00       		.byte	0
 13282 0189 00       		.byte	0
 13283              		.section	.debug_aranges,"",%progbits
 13284 0000 2C000000 		.4byte	0x2c
 13285 0004 0200     		.2byte	0x2
 13286 0006 00000000 		.4byte	.Ldebug_info0
 13287 000a 04       		.byte	0x4
 13288 000b 00       		.byte	0
 13289 000c 0000     		.2byte	0
 13290 000e 0000     		.2byte	0
 13291 0010 00000000 		.4byte	.LFB64
 13292 0014 70140000 		.4byte	.LFE64-.LFB64
 13293 0018 00000000 		.4byte	.LFB65
 13294 001c 58160000 		.4byte	.LFE65-.LFB65
 13295 0020 00000000 		.4byte	.LFB66
 13296 0024 D0120000 		.4byte	.LFE66-.LFB66
 13297 0028 00000000 		.4byte	0
 13298 002c 00000000 		.4byte	0
 13299              		.section	.debug_ranges,"",%progbits
 13300              	.Ldebug_ranges0:
 13301 0000 00000000 		.4byte	.LFB64
 13302 0004 70140000 		.4byte	.LFE64
 13303 0008 00000000 		.4byte	.LFB65
 13304 000c 58160000 		.4byte	.LFE65
 13305 0010 00000000 		.4byte	.LFB66
 13306 0014 D0120000 		.4byte	.LFE66
 13307 0018 00000000 		.4byte	0
 13308 001c 00000000 		.4byte	0
 13309              		.section	.debug_line,"",%progbits
 13310              	.Ldebug_line0:
 13311 0000 D1120000 		.section	.debug_str,"MS",%progbits,1
 13311      02005B01 
 13311      00000201 
 13311      FB0E0D00 
 13311      01010101 
 13312              	.LASF89:
 13313 0000 6D736E5F 		.ascii	"msn_original\000"
 13313      6F726967 
 13313      696E616C 
 13313      00
 13314              	.LASF34:
 13315 000d 4E6F7A7A 		.ascii	"Nozzle\000"
 13315      6C6500
 13316              	.LASF67:
 13317 0014 50756D70 		.ascii	"PumpAddress\000"
 13317      41646472 
 13317      65737300 
 13318              	.LASF60:
 13319 0020 696E745F 		.ascii	"int_salenumber\000"
ARM GAS  C:\Users\Diego\AppData\Local\Temp\ccIAJaV8.s 			page 274


 13319      73616C65 
 13319      6E756D62 
 13319      657200
 13320              	.LASF8:
 13321 002f 756E7369 		.ascii	"unsigned int\000"
 13321      676E6564 
 13321      20696E74 
 13321      00
 13322              	.LASF39:
 13323 003c 64617465 		.ascii	"date_sum\000"
 13323      5F73756D 
 13323      00
 13324              	.LASF56:
 13325 0045 73616C65 		.ascii	"sale_number\000"
 13325      5F6E756D 
 13325      62657200 
 13326              	.LASF9:
 13327 0051 5F5F696E 		.ascii	"__int32_t\000"
 13327      7433325F 
 13327      7400
 13328              	.LASF72:
 13329 005b 44656356 		.ascii	"DecVol\000"
 13329      6F6C00
 13330              	.LASF150:
 13331 0062 474E5520 		.ascii	"GNU C11 5.4.1 20160609 (release) [ARM/embedded-5-br"
 13331      43313120 
 13331      352E342E 
 13331      31203230 
 13331      31363036 
 13332 0095 616E6368 		.ascii	"anch revision 237715] -mcpu=cortex-m3 -mthumb -g -O"
 13332      20726576 
 13332      6973696F 
 13332      6E203233 
 13332      37373135 
 13333 00c8 30202D66 		.ascii	"0 -ffunction-sections -ffat-lto-objects\000"
 13333      66756E63 
 13333      74696F6E 
 13333      2D736563 
 13333      74696F6E 
 13334              	.LASF64:
 13335 00f0 73696465 		.ascii	"side\000"
 13335      00
 13336              	.LASF85:
 13337 00f5 6D736E5F 		.ascii	"msn_footer2\000"
 13337      666F6F74 
 13337      65723200 
 13338              	.LASF86:
 13339 0101 6D736E5F 		.ascii	"msn_footer3\000"
 13339      666F6F74 
 13339      65723300 
 13340              	.LASF87:
 13341 010d 6D736E5F 		.ascii	"msn_footer4\000"
 13341      666F6F74 
 13341      65723400 
 13342              	.LASF30:
 13343 0119 50726F63 		.ascii	"ProcessedvolumeSale\000"
 13343      65737365 
ARM GAS  C:\Users\Diego\AppData\Local\Temp\ccIAJaV8.s 			page 275


 13343      64766F6C 
 13343      756D6553 
 13343      616C6500 
 13344              	.LASF118:
 13345 012d 6D736E5F 		.ascii	"msn_pos\000"
 13345      706F7300 
 13346              	.LASF42:
 13347 0135 5072696E 		.ascii	"PrintShift\000"
 13347      74536869 
 13347      667400
 13348              	.LASF149:
 13349 0140 41534B5F 		.ascii	"ASK_TIME\000"
 13349      54494D45 
 13349      00
 13350              	.LASF31:
 13351 0149 50726F63 		.ascii	"ProcessedPPU\000"
 13351      65737365 
 13351      64505055 
 13351      00
 13352              	.LASF55:
 13353 0156 52656365 		.ascii	"Receipt\000"
 13353      69707400 
 13354              	.LASF141:
 13355 015e 50524E5F 		.ascii	"PRN_PRESET\000"
 13355      50524553 
 13355      455400
 13356              	.LASF137:
 13357 0169 50524E5F 		.ascii	"PRN_VOLUMEMONTH\000"
 13357      564F4C55 
 13357      4D454D4F 
 13357      4E544800 
 13358              	.LASF14:
 13359 0179 666C6F61 		.ascii	"float\000"
 13359      7400
 13360              	.LASF146:
 13361 017f 6D736E5F 		.ascii	"msn_lecaan\000"
 13361      6C656361 
 13361      616E00
 13362              	.LASF120:
 13363 018a 6D736E5F 		.ascii	"msn_ppu\000"
 13363      70707500 
 13364              	.LASF115:
 13365 0192 6D736E5F 		.ascii	"msn_placa\000"
 13365      706C6163 
 13365      6100
 13366              	.LASF136:
 13367 019c 50524E5F 		.ascii	"PRN_VOLUMEWEEK\000"
 13367      564F4C55 
 13367      4D455745 
 13367      454B00
 13368              	.LASF50:
 13369 01ab 5072696E 		.ascii	"PrintPOS\000"
 13369      74504F53 
 13369      00
 13370              	.LASF7:
 13371 01b4 6C6F6E67 		.ascii	"long long unsigned int\000"
 13371      206C6F6E 
ARM GAS  C:\Users\Diego\AppData\Local\Temp\ccIAJaV8.s 			page 276


 13371      6720756E 
 13371      7369676E 
 13371      65642069 
 13372              	.LASF78:
 13373 01cb 6D736E5F 		.ascii	"msn_EDS\000"
 13373      45445300 
 13374              	.LASF114:
 13375 01d3 6D736E5F 		.ascii	"msn_hora\000"
 13375      686F7261 
 13375      00
 13376              	.LASF117:
 13377 01dc 50524E5F 		.ascii	"PRN_TRANSTYPE\000"
 13377      5452414E 
 13377      53545950 
 13377      4500
 13378              	.LASF88:
 13379 01ea 6D736E5F 		.ascii	"msn_copy\000"
 13379      636F7079 
 13379      00
 13380              	.LASF111:
 13381 01f3 70726566 		.ascii	"prefijo\000"
 13381      696A6F00 
 13382              	.LASF59:
 13383 01fb 64617465 		.ascii	"date_copy\000"
 13383      5F636F70 
 13383      7900
 13384              	.LASF71:
 13385 0205 546F7461 		.ascii	"TotalRequestType\000"
 13385      6C526571 
 13385      75657374 
 13385      54797065 
 13385      00
 13386              	.LASF40:
 13387 0216 4C434452 		.ascii	"LCDRx\000"
 13387      7800
 13388              	.LASF140:
 13389 021c 50524E5F 		.ascii	"PRN_MONEYMONTH\000"
 13389      4D4F4E45 
 13389      594D4F4E 
 13389      544800
 13390              	.LASF129:
 13391 022b 50524E5F 		.ascii	"PRN_ACCOUNT\000"
 13391      4143434F 
 13391      554E5400 
 13392              	.LASF135:
 13393 0237 50524E5F 		.ascii	"PRN_VOLUMEDAY\000"
 13393      564F4C55 
 13393      4D454441 
 13393      5900
 13394              	.LASF77:
 13395 0245 6D736E5F 		.ascii	"msn_POS\000"
 13395      504F5300 
 13396              	.LASF32:
 13397 024d 6D736E5F 		.ascii	"msn_plate\000"
 13397      706C6174 
 13397      6500
 13398              	.LASF145:
ARM GAS  C:\Users\Diego\AppData\Local\Temp\ccIAJaV8.s 			page 277


 13399 0257 6D736E5F 		.ascii	"msn_lecact\000"
 13399      6C656361 
 13399      637400
 13400              	.LASF62:
 13401 0262 696E745F 		.ascii	"int_shiftnumber\000"
 13401      73686966 
 13401      746E756D 
 13401      62657200 
 13402              	.LASF63:
 13403 0272 4C434468 		.ascii	"LCDhose\000"
 13403      6F736500 
 13404              	.LASF125:
 13405 027a 6D736E5F 		.ascii	"msn_venta\000"
 13405      76656E74 
 13405      6100
 13406              	.LASF116:
 13407 0284 50524E5F 		.ascii	"PRN_MILLEAGE\000"
 13407      4D494C4C 
 13407      45414745 
 13407      00
 13408              	.LASF126:
 13409 0291 6D736E5F 		.ascii	"msn_numero\000"
 13409      6E756D65 
 13409      726F00
 13410              	.LASF29:
 13411 029c 50726F63 		.ascii	"ProcessedmoneySale\000"
 13411      65737365 
 13411      646D6F6E 
 13411      65795361 
 13411      6C6500
 13412              	.LASF124:
 13413 02af 6D736E5F 		.ascii	"msn_cierre\000"
 13413      63696572 
 13413      726500
 13414              	.LASF148:
 13415 02ba 53455041 		.ascii	"SEPARATOR\000"
 13415      5241544F 
 13415      5200
 13416              	.LASF26:
 13417 02c4 73746174 		.ascii	"states\000"
 13417      657300
 13418              	.LASF17:
 13419 02cb 63686172 		.ascii	"char\000"
 13419      00
 13420              	.LASF57:
 13421 02d0 73616C65 		.ascii	"sale_number_copy\000"
 13421      5F6E756D 
 13421      6265725F 
 13421      636F7079 
 13421      00
 13422              	.LASF132:
 13423 02e1 50524E5F 		.ascii	"PRN_VISITSDAY\000"
 13423      56495349 
 13423      54534441 
 13423      5900
 13424              	.LASF12:
 13425 02ef 75696E74 		.ascii	"uint16\000"
ARM GAS  C:\Users\Diego\AppData\Local\Temp\ccIAJaV8.s 			page 278


 13425      313600
 13426              	.LASF13:
 13427 02f6 696E7438 		.ascii	"int8\000"
 13427      00
 13428              	.LASF122:
 13429 02fb 6D736E5F 		.ascii	"msn_voltot\000"
 13429      766F6C74 
 13429      6F7400
 13430              	.LASF16:
 13431 0306 63686172 		.ascii	"char8\000"
 13431      3800
 13432              	.LASF70:
 13433 030c 506F7369 		.ascii	"Positions\000"
 13433      74696F6E 
 13433      7300
 13434              	.LASF91:
 13435 0316 6D736E5F 		.ascii	"msn_gasoline\000"
 13435      6761736F 
 13435      6C696E65 
 13435      00
 13436              	.LASF22:
 13437 0323 6D6F6E65 		.ascii	"moneySale\000"
 13437      7953616C 
 13437      6500
 13438              	.LASF6:
 13439 032d 6C6F6E67 		.ascii	"long long int\000"
 13439      206C6F6E 
 13439      6720696E 
 13439      7400
 13440              	.LASF92:
 13441 033b 6D736E5F 		.ascii	"msn_extra\000"
 13441      65787472 
 13441      6100
 13442              	.LASF24:
 13443 0345 70707553 		.ascii	"ppuSale\000"
 13443      616C6500 
 13444              	.LASF53:
 13445 034d 506F6C6C 		.ascii	"PollCounter\000"
 13445      436F756E 
 13445      74657200 
 13446              	.LASF21:
 13447 0359 7070754E 		.ascii	"ppuNozzle\000"
 13447      6F7A7A6C 
 13447      6500
 13448              	.LASF44:
 13449 0363 6C656374 		.ascii	"lectactual\000"
 13449      61637475 
 13449      616C00
 13450              	.LASF121:
 13451 036e 6D736E5F 		.ascii	"msn_vol\000"
 13451      766F6C00 
 13452              	.LASF47:
 13453 0376 61637475 		.ascii	"actual\000"
 13453      616C00
 13454              	.LASF66:
 13455 037d 4D657073 		.ascii	"MepsanSendTo\000"
 13455      616E5365 
ARM GAS  C:\Users\Diego\AppData\Local\Temp\ccIAJaV8.s 			page 279


 13455      6E64546F 
 13455      00
 13456              	.LASF90:
 13457 038a 6D736E5F 		.ascii	"msn_diesel\000"
 13457      64696573 
 13457      656C00
 13458              	.LASF27:
 13459 0395 4D657073 		.ascii	"MepsanStore\000"
 13459      616E5374 
 13459      6F726500 
 13460              	.LASF54:
 13461 03a1 43757272 		.ascii	"CurrentState\000"
 13461      656E7453 
 13461      74617465 
 13461      00
 13462              	.LASF18:
 13463 03ae 6C6F6E67 		.ascii	"long double\000"
 13463      20646F75 
 13463      626C6500 
 13464              	.LASF131:
 13465 03ba 50524E5F 		.ascii	"PRN_ACCOUNTTYPE\000"
 13465      4143434F 
 13465      554E5454 
 13465      59504500 
 13466              	.LASF93:
 13467 03ca 6D736E5F 		.ascii	"msn_POS2\000"
 13467      504F5332 
 13467      00
 13468              	.LASF94:
 13469 03d3 6D736E5F 		.ascii	"msn_POS3\000"
 13469      504F5333 
 13469      00
 13470              	.LASF95:
 13471 03dc 6D736E5F 		.ascii	"msn_POS4\000"
 13471      504F5334 
 13471      00
 13472              	.LASF96:
 13473 03e5 6D736E5F 		.ascii	"msn_POS5\000"
 13473      504F5335 
 13473      00
 13474              	.LASF97:
 13475 03ee 6D736E5F 		.ascii	"msn_POS6\000"
 13475      504F5336 
 13475      00
 13476              	.LASF98:
 13477 03f7 6D736E5F 		.ascii	"msn_POS7\000"
 13477      504F5337 
 13477      00
 13478              	.LASF99:
 13479 0400 6D736E5F 		.ascii	"msn_POS8\000"
 13479      504F5338 
 13479      00
 13480              	.LASF100:
 13481 0409 6D736E5F 		.ascii	"msn_POS9\000"
 13481      504F5339 
 13481      00
 13482              	.LASF2:
ARM GAS  C:\Users\Diego\AppData\Local\Temp\ccIAJaV8.s 			page 280


 13483 0412 73686F72 		.ascii	"short int\000"
 13483      7420696E 
 13483      7400
 13484              	.LASF69:
 13485 041c 6372635F 		.ascii	"crc_hi\000"
 13485      686900
 13486              	.LASF4:
 13487 0423 6C6F6E67 		.ascii	"long int\000"
 13487      20696E74 
 13487      00
 13488              	.LASF52:
 13489 042c 49544D5F 		.ascii	"ITM_RxBuffer\000"
 13489      52784275 
 13489      66666572 
 13489      00
 13490              	.LASF28:
 13491 0439 50726F63 		.ascii	"ProcessedTotals\000"
 13491      65737365 
 13491      64546F74 
 13491      616C7300 
 13492              	.LASF49:
 13493 0449 72657374 		.ascii	"resta\000"
 13493      6100
 13494              	.LASF45:
 13495 044f 6D656D6F 		.ascii	"memoria\000"
 13495      72696100 
 13496              	.LASF73:
 13497 0457 746F7563 		.ascii	"touch1\000"
 13497      683100
 13498              	.LASF35:
 13499 045e 436F7079 		.ascii	"Copy\000"
 13499      00
 13500              	.LASF43:
 13501 0463 6C656374 		.ascii	"lectanterior\000"
 13501      616E7465 
 13501      72696F72 
 13501      00
 13502              	.LASF138:
 13503 0470 50524E5F 		.ascii	"PRN_MONEYDAY\000"
 13503      4D4F4E45 
 13503      59444159 
 13503      00
 13504              	.LASF152:
 13505 047d 463A5C55 		.ascii	"F:\\Users\\Diego\\Documents\\GitHub\\Mepsan\\Mepsan"
 13505      73657273 
 13505      5C446965 
 13505      676F5C44 
 13505      6F63756D 
 13506 04aa 2E637964 		.ascii	".cydsn\000"
 13506      736E00
 13507              	.LASF68:
 13508 04b1 6372635F 		.ascii	"crc_lo\000"
 13508      6C6F00
 13509              	.LASF20:
 13510 04b8 746F7461 		.ascii	"totalsNozzle\000"
 13510      6C734E6F 
 13510      7A7A6C65 
ARM GAS  C:\Users\Diego\AppData\Local\Temp\ccIAJaV8.s 			page 281


 13510      00
 13511              	.LASF102:
 13512 04c5 6D736E5F 		.ascii	"msn_POS11\000"
 13512      504F5331 
 13512      3100
 13513              	.LASF65:
 13514 04cf 4D657073 		.ascii	"MepsanResponse\000"
 13514      616E5265 
 13514      73706F6E 
 13514      736500
 13515              	.LASF119:
 13516 04de 6D736E5F 		.ascii	"msn_product\000"
 13516      70726F64 
 13516      75637400 
 13517              	.LASF106:
 13518 04ea 6D736E5F 		.ascii	"msn_POS15\000"
 13518      504F5331 
 13518      3500
 13519              	.LASF110:
 13520 04f4 6D736E5F 		.ascii	"msn_POS19\000"
 13520      504F5331 
 13520      3900
 13521              	.LASF101:
 13522 04fe 6D736E5F 		.ascii	"msn_POS10\000"
 13522      504F5331 
 13522      3000
 13523              	.LASF103:
 13524 0508 6D736E5F 		.ascii	"msn_POS12\000"
 13524      504F5331 
 13524      3200
 13525              	.LASF104:
 13526 0512 6D736E5F 		.ascii	"msn_POS13\000"
 13526      504F5331 
 13526      3300
 13527              	.LASF105:
 13528 051c 6D736E5F 		.ascii	"msn_POS14\000"
 13528      504F5331 
 13528      3400
 13529              	.LASF19:
 13530 0526 73697A65 		.ascii	"sizetype\000"
 13530      74797065 
 13530      00
 13531              	.LASF107:
 13532 052f 6D736E5F 		.ascii	"msn_POS16\000"
 13532      504F5331 
 13532      3600
 13533              	.LASF108:
 13534 0539 6D736E5F 		.ascii	"msn_POS17\000"
 13534      504F5331 
 13534      3700
 13535              	.LASF109:
 13536 0543 6D736E5F 		.ascii	"msn_POS18\000"
 13536      504F5331 
 13536      3800
 13537              	.LASF5:
 13538 054d 6C6F6E67 		.ascii	"long unsigned int\000"
 13538      20756E73 
ARM GAS  C:\Users\Diego\AppData\Local\Temp\ccIAJaV8.s 			page 282


 13538      69676E65 
 13538      6420696E 
 13538      7400
 13539              	.LASF51:
 13540 055f 61646472 		.ascii	"address\000"
 13540      65737300 
 13541              	.LASF10:
 13542 0567 696E7433 		.ascii	"int32_t\000"
 13542      325F7400 
 13543              	.LASF113:
 13544 056f 6D736E5F 		.ascii	"msn_fecha\000"
 13544      66656368 
 13544      6100
 13545              	.LASF41:
 13546 0579 5072696E 		.ascii	"PrintReceipt\000"
 13546      74526563 
 13546      65697074 
 13546      00
 13547              	.LASF38:
 13548 0586 73637265 		.ascii	"screen_size\000"
 13548      656E5F73 
 13548      697A6500 
 13549              	.LASF134:
 13550 0592 50524E5F 		.ascii	"PRN_VISITSMONTH\000"
 13550      56495349 
 13550      54534D4F 
 13550      4E544800 
 13551              	.LASF112:
 13552 05a2 65717569 		.ascii	"equipo\000"
 13552      706F00
 13553              	.LASF1:
 13554 05a9 756E7369 		.ascii	"unsigned char\000"
 13554      676E6564 
 13554      20636861 
 13554      7200
 13555              	.LASF84:
 13556 05b7 6D736E5F 		.ascii	"msn_footer\000"
 13556      666F6F74 
 13556      657200
 13557              	.LASF61:
 13558 05c2 73686966 		.ascii	"shift_number\000"
 13558      745F6E75 
 13558      6D626572 
 13558      00
 13559              	.LASF75:
 13560 05cf 4C494E45 		.ascii	"LINE_FEED\000"
 13560      5F464545 
 13560      4400
 13561              	.LASF128:
 13562 05d9 50524E5F 		.ascii	"PRN_COMPANY\000"
 13562      434F4D50 
 13562      414E5900 
 13563              	.LASF46:
 13564 05e5 72657375 		.ascii	"resultado\000"
 13564      6C746164 
 13564      6F00
 13565              	.LASF33:
ARM GAS  C:\Users\Diego\AppData\Local\Temp\ccIAJaV8.s 			page 283


 13566 05ef 4D657052 		.ascii	"MepRequest\000"
 13566      65717565 
 13566      737400
 13567              	.LASF37:
 13568 05fa 70756D70 		.ascii	"pump\000"
 13568      00
 13569              	.LASF127:
 13570 05ff 50524E5F 		.ascii	"PRN_BALANCE\000"
 13570      42414C41 
 13570      4E434500 
 13571              	.LASF151:
 13572 060b 7072696E 		.ascii	"printer.c\000"
 13572      7465722E 
 13572      6300
 13573              	.LASF48:
 13574 0615 616E7465 		.ascii	"anterior\000"
 13574      72696F72 
 13574      00
 13575              	.LASF23:
 13576 061e 766F6C75 		.ascii	"volumeSale\000"
 13576      6D655361 
 13576      6C6500
 13577              	.LASF143:
 13578 0629 50524E5F 		.ascii	"PRN_ID\000"
 13578      494400
 13579              	.LASF133:
 13580 0630 50524E5F 		.ascii	"PRN_VISITSWEEK\000"
 13580      56495349 
 13580      54535745 
 13580      454B00
 13581              	.LASF0:
 13582 063f 7369676E 		.ascii	"signed char\000"
 13582      65642063 
 13582      68617200 
 13583              	.LASF58:
 13584 064b 686F7572 		.ascii	"hour_copy\000"
 13584      5F636F70 
 13584      7900
 13585              	.LASF3:
 13586 0655 73686F72 		.ascii	"short unsigned int\000"
 13586      7420756E 
 13586      7369676E 
 13586      65642069 
 13586      6E7400
 13587              	.LASF142:
 13588 0668 50524E5F 		.ascii	"PRN_SIGNATURE\000"
 13588      5349474E 
 13588      41545552 
 13588      4500
 13589              	.LASF139:
 13590 0676 50524E5F 		.ascii	"PRN_MONEYWEEK\000"
 13590      4D4F4E45 
 13590      59574545 
 13590      4B00
 13591              	.LASF25:
 13592 0684 70726F64 		.ascii	"productSale\000"
 13592      75637453 
ARM GAS  C:\Users\Diego\AppData\Local\Temp\ccIAJaV8.s 			page 284


 13592      616C6500 
 13593              	.LASF79:
 13594 0690 6D736E5F 		.ascii	"msn_EDS2\000"
 13594      45445332 
 13594      00
 13595              	.LASF80:
 13596 0699 6D736E5F 		.ascii	"msn_EDS3\000"
 13596      45445333 
 13596      00
 13597              	.LASF81:
 13598 06a2 6D736E5F 		.ascii	"msn_EDS4\000"
 13598      45445334 
 13598      00
 13599              	.LASF82:
 13600 06ab 6D736E5F 		.ascii	"msn_EDS5\000"
 13600      45445335 
 13600      00
 13601              	.LASF83:
 13602 06b4 6D736E5F 		.ascii	"msn_EDS6\000"
 13602      45445336 
 13602      00
 13603              	.LASF11:
 13604 06bd 75696E74 		.ascii	"uint8\000"
 13604      3800
 13605              	.LASF15:
 13606 06c3 646F7562 		.ascii	"double\000"
 13606      6C6500
 13607              	.LASF130:
 13608 06ca 50524E5F 		.ascii	"PRN_SERIAL\000"
 13608      53455249 
 13608      414C00
 13609              	.LASF74:
 13610 06d5 64697247 		.ascii	"dirGbr\000"
 13610      627200
 13611              	.LASF144:
 13612 06dc 50524E5F 		.ascii	"PRN_CURRENCY\000"
 13612      43555252 
 13612      454E4359 
 13612      00
 13613              	.LASF76:
 13614 06e9 566F6C53 		.ascii	"VolSimbol\000"
 13614      696D626F 
 13614      6C00
 13615              	.LASF36:
 13616 06f3 706F7369 		.ascii	"position\000"
 13616      74696F6E 
 13616      00
 13617              	.LASF147:
 13618 06fc 6D736E5F 		.ascii	"msn_dif\000"
 13618      64696600 
 13619              	.LASF123:
 13620 0704 6D736E5F 		.ascii	"msn_din\000"
 13620      64696E00 
 13621              		.ident	"GCC: (GNU Tools for ARM Embedded Processors) 5.4.1 20160609 (release) [ARM/embedded-5-bran
