ARM GAS  C:\Users\Diego\AppData\Local\Temp\ccz6pbcU.s 			page 1


   1              		.syntax unified
   2              		.cpu cortex-m3
   3              		.fpu softvfp
   4              		.eabi_attribute 20, 1
   5              		.eabi_attribute 21, 1
   6              		.eabi_attribute 23, 3
   7              		.eabi_attribute 24, 1
   8              		.eabi_attribute 25, 1
   9              		.eabi_attribute 26, 1
  10              		.eabi_attribute 30, 6
  11              		.eabi_attribute 34, 1
  12              		.eabi_attribute 18, 4
  13              		.thumb
  14              		.syntax unified
  15              		.file	"printer.c"
  16              		.text
  17              	.Ltext0:
  18              		.cfi_sections	.debug_frame
  19              		.comm	PollCounter,2,2
  20              		.comm	CurrentState,1,1
  21              		.comm	Receipt,1,1
  22              		.comm	sale_number,6,4
  23              		.comm	sale_number_copy,6,4
  24              		.comm	int_salenumber,1,1
  25              		.comm	shift_number,6,4
  26              		.comm	int_shiftnumber,1,1
  27              		.comm	LCDhose,1,1
  28              		.comm	side,1236,4
  29              		.comm	MepsanResponse,50,4
  30              		.comm	MepsanSendTo,50,4
  31              		.comm	PumpAddress,15,4
  32              		.comm	CRC,2,2
  33              		.comm	crc_lo,1,1
  34              		.comm	crc_hi,1,1
  35              		.comm	Positions,1,1
  36              		.comm	TotalRequestType,1,1
  37              		.comm	DecVol,1,1
  38              		.comm	touch1,20,4
  39              		.comm	dirGbr,1,1
  40              		.global	LINE_FEED
  41              		.data
  42              		.type	LINE_FEED, %object
  43              		.size	LINE_FEED, 1
  44              	LINE_FEED:
  45 0000 0A       		.byte	10
  46              		.global	VolSimbol
  47 0001 000000   		.align	2
  48              		.type	VolSimbol, %object
  49              		.size	VolSimbol, 1
  50              	VolSimbol:
  51 0004 47       		.ascii	"G"
  52              		.global	msn_EDS
  53 0005 000000   		.align	2
  54              		.type	msn_EDS, %object
  55              		.size	msn_EDS, 32
  56              	msn_EDS:
  57 0008 20202020 		.ascii	"          EDS LA FERIA          "
ARM GAS  C:\Users\Diego\AppData\Local\Temp\ccz6pbcU.s 			page 2


  57      20202020 
  57      20204544 
  57      53204C41 
  57      20464552 
  58              		.global	msn_EDS2
  59              		.align	2
  60              		.type	msn_EDS2, %object
  61              		.size	msn_EDS2, 32
  62              	msn_EDS2:
  63 0028 20202049 		.ascii	"   INVERSIONES RUEDA MIRANDA    "
  63      4E564552 
  63      53494F4E 
  63      45532052 
  63      55454441 
  64              		.global	msn_EDS3
  65              		.align	2
  66              		.type	msn_EDS3, %object
  67              		.size	msn_EDS3, 32
  68              	msn_EDS3:
  69 0048 20202020 		.ascii	"       Nit 901.045.547-9        "
  69      2020204E 
  69      69742039 
  69      30312E30 
  69      34352E35 
  70              		.global	msn_EDS4
  71              		.align	2
  72              		.type	msn_EDS4, %object
  73              		.size	msn_EDS4, 32
  74              	msn_EDS4:
  75 0068 20202020 		.ascii	"         Tel: 3003281474        "
  75      20202020 
  75      2054656C 
  75      3A203330 
  75      30333238 
  76              		.global	msn_EDS5
  77              		.align	2
  78              		.type	msn_EDS5, %object
  79              		.size	msn_EDS5, 32
  80              	msn_EDS5:
  81 0088 20202020 		.ascii	"        CRA 3 No. 19 - 64       "
  81      20202020 
  81      43524120 
  81      33204E6F 
  81      2E203139 
  82              		.global	msn_EDS6
  83              		.align	2
  84              		.type	msn_EDS6, %object
  85              		.size	msn_EDS6, 32
  86              	msn_EDS6:
  87 00a8 20202020 		.ascii	"     FUNDACION - MAGDALENA      "
  87      2046554E 
  87      44414349 
  87      4F4E202D 
  87      204D4147 
  88              		.global	msn_footer
  89              		.align	2
  90              		.type	msn_footer, %object
ARM GAS  C:\Users\Diego\AppData\Local\Temp\ccz6pbcU.s 			page 3


  91              		.size	msn_footer, 32
  92              	msn_footer:
  93 00c8 20202020 		.ascii	"     GRACIAS POR SU COMPRA      "
  93      20475241 
  93      43494153 
  93      20504F52 
  93      20535520 
  94              		.global	msn_footer2
  95              		.align	2
  96              		.type	msn_footer2, %object
  97              		.size	msn_footer2, 32
  98              	msn_footer2:
  99 00e8 20202020 		.ascii	"          VUELVA PRONTO         "
  99      20202020 
  99      20205655 
  99      454C5641 
  99      2050524F 
 100              		.global	msn_footer3
 101              		.align	2
 102              		.type	msn_footer3, %object
 103              		.size	msn_footer3, 32
 104              	msn_footer3:
 105 0108 4669726D 		.ascii	"Firma:                          "
 105      613A2020 
 105      20202020 
 105      20202020 
 105      20202020 
 106              		.global	msn_footer4
 107              		.align	2
 108              		.type	msn_footer4, %object
 109              		.size	msn_footer4, 32
 110              	msn_footer4:
 111 0128 5F5F5F5F 		.ascii	"________________________________"
 111      5F5F5F5F 
 111      5F5F5F5F 
 111      5F5F5F5F 
 111      5F5F5F5F 
 112              		.global	msn_copy
 113              		.align	2
 114              		.type	msn_copy, %object
 115              		.size	msn_copy, 32
 116              	msn_copy:
 117 0148 20202020 		.ascii	"             COPIA              "
 117      20202020 
 117      20202020 
 117      20434F50 
 117      49412020 
 118              		.global	msn_diesel
 119              		.align	2
 120              		.type	msn_diesel, %object
 121              		.size	msn_diesel, 9
 122              	msn_diesel:
 123 0168 44696573 		.ascii	"Diesel   "
 123      656C2020 
 123      20
 124              		.global	msn_gasoline
 125 0171 000000   		.align	2
ARM GAS  C:\Users\Diego\AppData\Local\Temp\ccz6pbcU.s 			page 4


 126              		.type	msn_gasoline, %object
 127              		.size	msn_gasoline, 9
 128              	msn_gasoline:
 129 0174 436F7272 		.ascii	"Corriente"
 129      69656E74 
 129      65
 130              		.global	msn_fecha
 131 017d 000000   		.align	2
 132              		.type	msn_fecha, %object
 133              		.size	msn_fecha, 13
 134              	msn_fecha:
 135 0180 46656368 		.ascii	"Fecha      : "
 135      61202020 
 135      2020203A 
 135      20
 136              		.global	msn_hora
 137 018d 000000   		.align	2
 138              		.type	msn_hora, %object
 139              		.size	msn_hora, 13
 140              	msn_hora:
 141 0190 486F7261 		.ascii	"Hora       : "
 141      20202020 
 141      2020203A 
 141      20
 142              		.global	msn_placa
 143 019d 000000   		.align	2
 144              		.type	msn_placa, %object
 145              		.size	msn_placa, 13
 146              	msn_placa:
 147 01a0 506C6163 		.ascii	"Placa      : "
 147      61202020 
 147      2020203A 
 147      20
 148              		.global	PRN_MILLEAGE
 149 01ad 000000   		.align	2
 150              		.type	PRN_MILLEAGE, %object
 151              		.size	PRN_MILLEAGE, 13
 152              	PRN_MILLEAGE:
 153 01b0 4B696C6F 		.ascii	"Kilometraje: "
 153      6D657472 
 153      616A653A 
 153      20
 154              		.global	PRN_TRANSTYPE
 155 01bd 000000   		.align	2
 156              		.type	PRN_TRANSTYPE, %object
 157              		.size	PRN_TRANSTYPE, 13
 158              	PRN_TRANSTYPE:
 159 01c0 5469706F 		.ascii	"Tipo       : "
 159      20202020 
 159      2020203A 
 159      20
 160              		.global	msn_pos
 161 01cd 000000   		.align	2
 162              		.type	msn_pos, %object
 163              		.size	msn_pos, 13
 164              	msn_pos:
 165 01d0 506F7369 		.ascii	"Posicion   : "
ARM GAS  C:\Users\Diego\AppData\Local\Temp\ccz6pbcU.s 			page 5


 165      63696F6E 
 165      2020203A 
 165      20
 166              		.global	msn_product
 167 01dd 000000   		.align	2
 168              		.type	msn_product, %object
 169              		.size	msn_product, 13
 170              	msn_product:
 171 01e0 50726F64 		.ascii	"Producto   : "
 171      7563746F 
 171      2020203A 
 171      20
 172              		.global	msn_ppu
 173 01ed 000000   		.align	2
 174              		.type	msn_ppu, %object
 175              		.size	msn_ppu, 13
 176              	msn_ppu:
 177 01f0 50707520 		.ascii	"Ppu        : "
 177      20202020 
 177      2020203A 
 177      20
 178              		.global	msn_vol
 179 01fd 000000   		.align	2
 180              		.type	msn_vol, %object
 181              		.size	msn_vol, 13
 182              	msn_vol:
 183 0200 566F6C75 		.ascii	"Volumen    : "
 183      6D656E20 
 183      2020203A 
 183      20
 184              		.global	msn_voltot
 185 020d 000000   		.align	2
 186              		.type	msn_voltot, %object
 187              		.size	msn_voltot, 13
 188              	msn_voltot:
 189 0210 546F742E 		.ascii	"Tot.Vol    : "
 189      566F6C20 
 189      2020203A 
 189      20
 190              		.global	msn_din
 191 021d 000000   		.align	2
 192              		.type	msn_din, %object
 193              		.size	msn_din, 13
 194              	msn_din:
 195 0220 496D706F 		.ascii	"Importe    : "
 195      72746520 
 195      2020203A 
 195      20
 196              		.global	msn_cierre
 197 022d 000000   		.align	2
 198              		.type	msn_cierre, %object
 199              		.size	msn_cierre, 13
 200              	msn_cierre:
 201 0230 43696572 		.ascii	"Cierre No  : "
 201      7265204E 
 201      6F20203A 
 201      20
ARM GAS  C:\Users\Diego\AppData\Local\Temp\ccz6pbcU.s 			page 6


 202              		.global	msn_venta
 203 023d 000000   		.align	2
 204              		.type	msn_venta, %object
 205              		.size	msn_venta, 13
 206              	msn_venta:
 207 0240 56656E74 		.ascii	"Venta No   : "
 207      61204E6F 
 207      2020203A 
 207      20
 208              		.global	msn_numero
 209 024d 000000   		.align	2
 210              		.type	msn_numero, %object
 211              		.size	msn_numero, 13
 212              	msn_numero:
 213 0250 436F6E73 		.ascii	"Consecutivo: "
 213      65637574 
 213      69766F3A 
 213      20
 214              		.global	PRN_BALANCE
 215 025d 000000   		.align	2
 216              		.type	PRN_BALANCE, %object
 217              		.size	PRN_BALANCE, 13
 218              	PRN_BALANCE:
 219 0260 53616C64 		.ascii	"Saldo      : "
 219      6F202020 
 219      2020203A 
 219      20
 220              		.global	PRN_COMPANY
 221 026d 000000   		.align	2
 222              		.type	PRN_COMPANY, %object
 223              		.size	PRN_COMPANY, 13
 224              	PRN_COMPANY:
 225 0270 456D7072 		.ascii	"Empresa    : "
 225      65736120 
 225      2020203A 
 225      20
 226              		.global	PRN_ACCOUNT
 227 027d 000000   		.align	2
 228              		.type	PRN_ACCOUNT, %object
 229              		.size	PRN_ACCOUNT, 13
 230              	PRN_ACCOUNT:
 231 0280 4375656E 		.ascii	"Cuenta     : "
 231      74612020 
 231      2020203A 
 231      20
 232              		.global	PRN_SERIAL
 233 028d 000000   		.align	2
 234              		.type	PRN_SERIAL, %object
 235              		.size	PRN_SERIAL, 13
 236              	PRN_SERIAL:
 237 0290 53657269 		.ascii	"Serial     : "
 237      616C2020 
 237      2020203A 
 237      20
 238              		.global	PRN_ACCOUNTTYPE
 239 029d 000000   		.align	2
 240              		.type	PRN_ACCOUNTTYPE, %object
ARM GAS  C:\Users\Diego\AppData\Local\Temp\ccz6pbcU.s 			page 7


 241              		.size	PRN_ACCOUNTTYPE, 13
 242              	PRN_ACCOUNTTYPE:
 243 02a0 5469706F 		.ascii	"Tipo Cuenta: "
 243      20437565 
 243      6E74613A 
 243      20
 244              		.global	PRN_VISITSDAY
 245 02ad 000000   		.align	2
 246              		.type	PRN_VISITSDAY, %object
 247              		.size	PRN_VISITSDAY, 13
 248              	PRN_VISITSDAY:
 249 02b0 56697369 		.ascii	"Visitas Dia: "
 249      74617320 
 249      4469613A 
 249      20
 250              		.global	PRN_VISITSWEEK
 251 02bd 000000   		.align	2
 252              		.type	PRN_VISITSWEEK, %object
 253              		.size	PRN_VISITSWEEK, 13
 254              	PRN_VISITSWEEK:
 255 02c0 56697369 		.ascii	"Visitas Sem: "
 255      74617320 
 255      53656D3A 
 255      20
 256              		.global	PRN_VISITSMONTH
 257 02cd 000000   		.align	2
 258              		.type	PRN_VISITSMONTH, %object
 259              		.size	PRN_VISITSMONTH, 13
 260              	PRN_VISITSMONTH:
 261 02d0 56697369 		.ascii	"Visitas Mes: "
 261      74617320 
 261      4D65733A 
 261      20
 262              		.global	PRN_VOLUMEDAY
 263 02dd 000000   		.align	2
 264              		.type	PRN_VOLUMEDAY, %object
 265              		.size	PRN_VOLUMEDAY, 13
 266              	PRN_VOLUMEDAY:
 267 02e0 566F6C75 		.ascii	"Volumen Dia: "
 267      6D656E20 
 267      4469613A 
 267      20
 268              		.global	PRN_VOLUMEWEEK
 269 02ed 000000   		.align	2
 270              		.type	PRN_VOLUMEWEEK, %object
 271              		.size	PRN_VOLUMEWEEK, 13
 272              	PRN_VOLUMEWEEK:
 273 02f0 566F6C75 		.ascii	"Volumen Sem: "
 273      6D656E20 
 273      53656D3A 
 273      20
 274              		.global	PRN_VOLUMEMONTH
 275 02fd 000000   		.align	2
 276              		.type	PRN_VOLUMEMONTH, %object
 277              		.size	PRN_VOLUMEMONTH, 13
 278              	PRN_VOLUMEMONTH:
 279 0300 566F6C75 		.ascii	"Volumen Mes: "
ARM GAS  C:\Users\Diego\AppData\Local\Temp\ccz6pbcU.s 			page 8


 279      6D656E20 
 279      4D65733A 
 279      20
 280              		.global	PRN_MONEYDAY
 281 030d 000000   		.align	2
 282              		.type	PRN_MONEYDAY, %object
 283              		.size	PRN_MONEYDAY, 13
 284              	PRN_MONEYDAY:
 285 0310 44696E65 		.ascii	"Dinero Dia : "
 285      726F2044 
 285      6961203A 
 285      20
 286              		.global	PRN_MONEYWEEK
 287 031d 000000   		.align	2
 288              		.type	PRN_MONEYWEEK, %object
 289              		.size	PRN_MONEYWEEK, 13
 290              	PRN_MONEYWEEK:
 291 0320 44696E65 		.ascii	"Dinero Sem : "
 291      726F2053 
 291      656D203A 
 291      20
 292              		.global	PRN_MONEYMONTH
 293 032d 000000   		.align	2
 294              		.type	PRN_MONEYMONTH, %object
 295              		.size	PRN_MONEYMONTH, 13
 296              	PRN_MONEYMONTH:
 297 0330 44696E65 		.ascii	"Dinero Mes : "
 297      726F204D 
 297      6573203A 
 297      20
 298              		.global	PRN_PRESET
 299 033d 000000   		.align	2
 300              		.type	PRN_PRESET, %object
 301              		.size	PRN_PRESET, 13
 302              	PRN_PRESET:
 303 0340 56616C6F 		.ascii	"Valor Prog.: "
 303      72205072 
 303      6F672E3A 
 303      20
 304              		.global	PRN_SIGNATURE
 305 034d 000000   		.align	2
 306              		.type	PRN_SIGNATURE, %object
 307              		.size	PRN_SIGNATURE, 13
 308              	PRN_SIGNATURE:
 309 0350 4669726D 		.ascii	"Firma      : "
 309      61202020 
 309      2020203A 
 309      20
 310              		.global	PRN_ID
 311 035d 000000   		.align	2
 312              		.type	PRN_ID, %object
 313              		.size	PRN_ID, 13
 314              	PRN_ID:
 315 0360 43656475 		.ascii	"Cedula     : "
 315      6C612020 
 315      2020203A 
 315      20
ARM GAS  C:\Users\Diego\AppData\Local\Temp\ccz6pbcU.s 			page 9


 316              		.global	PRN_CURRENCY
 317 036d 000000   		.align	2
 318              		.type	PRN_CURRENCY, %object
 319              		.size	PRN_CURRENCY, 1
 320              	PRN_CURRENCY:
 321 0370 24       		.ascii	"$"
 322              		.global	msn_lecact
 323 0371 000000   		.align	2
 324              		.type	msn_lecact, %object
 325              		.size	msn_lecact, 16
 326              	msn_lecact:
 327 0374 566F6C75 		.ascii	"Volumen actual: "
 327      6D656E20 
 327      61637475 
 327      616C3A20 
 328              		.global	msn_lecaan
 329              		.align	2
 330              		.type	msn_lecaan, %object
 331              		.size	msn_lecaan, 16
 332              	msn_lecaan:
 333 0384 566F6C2E 		.ascii	"Vol. anterior:  "
 333      20616E74 
 333      6572696F 
 333      723A2020 
 334              		.global	msn_dif
 335              		.align	2
 336              		.type	msn_dif, %object
 337              		.size	msn_dif, 18
 338              	msn_dif:
 339 0394 566F6C2E 		.ascii	"Vol. dispensado:  "
 339      20646973 
 339      70656E73 
 339      61646F3A 
 339      2020
 340              		.global	SEPARATOR
 341 03a6 0000     		.align	2
 342              		.type	SEPARATOR, %object
 343              		.size	SEPARATOR, 32
 344              	SEPARATOR:
 345 03a8 2A2A2A2A 		.ascii	"********************************"
 345      2A2A2A2A 
 345      2A2A2A2A 
 345      2A2A2A2A 
 345      2A2A2A2A 
 346              		.global	ASK_TIME
 347              		.align	2
 348              		.type	ASK_TIME, %object
 349              		.size	ASK_TIME, 6
 350              	ASK_TIME:
 351 03c8 5A       		.byte	90
 352 03c9 A5       		.byte	-91
 353 03ca 03       		.byte	3
 354 03cb 81       		.byte	-127
 355 03cc 20       		.byte	32
 356 03cd 07       		.byte	7
 357              		.section	.text.PrintReceipt,"ax",%progbits
 358              		.align	2
ARM GAS  C:\Users\Diego\AppData\Local\Temp\ccz6pbcU.s 			page 10


 359              		.global	PrintReceipt
 360              		.thumb
 361              		.thumb_func
 362              		.type	PrintReceipt, %function
 363              	PrintReceipt:
 364              	.LFB64:
 365              		.file 1 "printer.c"
   1:printer.c     **** /* ========================================
   2:printer.c     ****  *
   3:printer.c     ****  * Copyright YOUR COMPANY, THE YEAR
   4:printer.c     ****  * All Rights Reserved
   5:printer.c     ****  * UNPUBLISHED, LICENSED SOFTWARE.
   6:printer.c     ****  *
   7:printer.c     ****  * CONFIDENTIAL AND PROPRIETARY INFORMATION
   8:printer.c     ****  * WHICH IS THE PROPERTY OF your company.
   9:printer.c     ****  *
  10:printer.c     ****  * ========================================
  11:printer.c     **** */
  12:printer.c     **** #include <project.h>
  13:printer.c     **** #include <GVar.h>
  14:printer.c     **** #include <stdio.h>
  15:printer.c     **** #include <stdlib.h>
  16:printer.c     **** #include <string.h>
  17:printer.c     **** 
  18:printer.c     **** uint8 LINE_FEED = 0x0A;
  19:printer.c     **** char VolSimbol[1] = "G";
  20:printer.c     **** 
  21:printer.c     **** 
  22:printer.c     **** /***********  Temporal messages ******************/
  23:printer.c     **** uint8 msn_EDS[32]       = "          EDS LA FERIA          ";
  24:printer.c     **** uint8 msn_EDS2[32]      = "   INVERSIONES RUEDA MIRANDA    ";
  25:printer.c     **** uint8 msn_EDS3[32]      = "       Nit 901.045.547-9        ";
  26:printer.c     **** uint8 msn_EDS4[32]      = "         Tel: 3003281474        ";
  27:printer.c     **** uint8 msn_EDS5[32]      = "        CRA 3 No. 19 - 64       ";
  28:printer.c     **** uint8 msn_EDS6[32]      = "     FUNDACION - MAGDALENA      ";
  29:printer.c     **** uint8 msn_footer[32]    = "     GRACIAS POR SU COMPRA      ";
  30:printer.c     **** uint8 msn_footer2[32]   = "          VUELVA PRONTO         ";
  31:printer.c     **** uint8 msn_footer3[32]   = "Firma:                          ";
  32:printer.c     **** uint8 msn_footer4[32]   = "________________________________";
  33:printer.c     **** uint8 msn_copy[32]      = "             COPIA              ";
  34:printer.c     **** uint8 msn_diesel[9]     = "Diesel   ";
  35:printer.c     **** uint8 msn_gasoline[9]   = "Corriente";
  36:printer.c     **** 
  37:printer.c     **** /*********** informative messages ****************/
  38:printer.c     **** 
  39:printer.c     **** uint8 msn_fecha[13]       = "Fecha      : ";
  40:printer.c     **** uint8 msn_hora[13]        = "Hora       : ";
  41:printer.c     **** uint8 msn_placa[13]       = "Placa      : ";
  42:printer.c     **** uint8 PRN_MILLEAGE[13]    = "Kilometraje: ";
  43:printer.c     **** uint8 PRN_TRANSTYPE[13]   = "Tipo       : ";
  44:printer.c     **** uint8 msn_pos[13]         = "Posicion   : ";
  45:printer.c     **** uint8 msn_product[13]     = "Producto   : ";
  46:printer.c     **** uint8 msn_ppu[13]         = "Ppu        : ";
  47:printer.c     **** uint8 msn_vol[13]         = "Volumen    : ";
  48:printer.c     **** uint8 msn_voltot[13]      = "Tot.Vol    : ";
  49:printer.c     **** uint8 msn_din[13]         = "Importe    : ";
  50:printer.c     **** uint8 msn_cierre[13]      = "Cierre No  : ";
ARM GAS  C:\Users\Diego\AppData\Local\Temp\ccz6pbcU.s 			page 11


  51:printer.c     **** uint8 msn_venta[13]       = "Venta No   : ";
  52:printer.c     **** uint8 msn_numero[13]      = "Consecutivo: ";
  53:printer.c     **** uint8 PRN_BALANCE[13]     = "Saldo      : ";
  54:printer.c     **** uint8 PRN_COMPANY[13]     = "Empresa    : ";
  55:printer.c     **** uint8 PRN_ACCOUNT[13]     = "Cuenta     : ";
  56:printer.c     **** uint8 PRN_SERIAL[13]      = "Serial     : ";
  57:printer.c     **** uint8 PRN_ACCOUNTTYPE[13] = "Tipo Cuenta: ";
  58:printer.c     **** uint8 PRN_VISITSDAY[13]   = "Visitas Dia: ";
  59:printer.c     **** uint8 PRN_VISITSWEEK[13]  = "Visitas Sem: ";
  60:printer.c     **** uint8 PRN_VISITSMONTH[13] = "Visitas Mes: ";
  61:printer.c     **** uint8 PRN_VOLUMEDAY[13]   = "Volumen Dia: ";
  62:printer.c     **** uint8 PRN_VOLUMEWEEK[13]  = "Volumen Sem: ";
  63:printer.c     **** uint8 PRN_VOLUMEMONTH[13] = "Volumen Mes: ";
  64:printer.c     **** uint8 PRN_MONEYDAY[13]    = "Dinero Dia : ";
  65:printer.c     **** uint8 PRN_MONEYWEEK[13]   = "Dinero Sem : ";
  66:printer.c     **** uint8 PRN_MONEYMONTH[13]  = "Dinero Mes : ";
  67:printer.c     **** uint8 PRN_PRESET[13]      = "Valor Prog.: ";
  68:printer.c     **** uint8 PRN_SIGNATURE[13]   = "Firma      : ";
  69:printer.c     **** uint8 PRN_ID[13]          = "Cedula     : ";
  70:printer.c     **** uint8 PRN_CURRENCY[1]     = "$";
  71:printer.c     **** uint8 msn_lecact[16]      ="Volumen actual: ";
  72:printer.c     **** uint8 msn_lecaan[16]      ="Vol. anterior:  ";
  73:printer.c     **** uint8 msn_dif[18]         ="Vol. dispensado:  ";
  74:printer.c     **** uint8 SEPARATOR[32]       = "********************************";
  75:printer.c     **** uint8 ASK_TIME[]={0x5A, 0xA5, 0x03, 0x81, 0x20, 0x07};
  76:printer.c     **** 
  77:printer.c     **** 
  78:printer.c     **** 
  79:printer.c     **** void PrintReceipt(uint8 address){
 366              		.loc 1 79 0
 367              		.cfi_startproc
 368              		@ args = 0, pretend = 0, frame = 72
 369              		@ frame_needed = 1, uses_anonymous_args = 0
 370 0000 90B5     		push	{r4, r7, lr}
 371              		.cfi_def_cfa_offset 12
 372              		.cfi_offset 4, -12
 373              		.cfi_offset 7, -8
 374              		.cfi_offset 14, -4
 375 0002 93B0     		sub	sp, sp, #76
 376              		.cfi_def_cfa_offset 88
 377 0004 00AF     		add	r7, sp, #0
 378              		.cfi_def_cfa_register 7
 379 0006 0346     		mov	r3, r0
 380 0008 FB71     		strb	r3, [r7, #7]
  80:printer.c     ****     int8 screen_size;  
  81:printer.c     ****     screen_size = 0;
 381              		.loc 1 81 0
 382 000a 0023     		movs	r3, #0
 383 000c 87F84730 		strb	r3, [r7, #71]
  82:printer.c     ****     sale_number[5]=(int_salenumber/10000)+48;
 384              		.loc 1 82 0
 385 0010 C64B     		ldr	r3, .L141
 386 0012 1B78     		ldrb	r3, [r3]	@ zero_extendqisi2
 387 0014 C64A     		ldr	r2, .L141+4
 388 0016 82FB0312 		smull	r1, r2, r2, r3
 389 001a 1213     		asrs	r2, r2, #12
 390 001c DB17     		asrs	r3, r3, #31
ARM GAS  C:\Users\Diego\AppData\Local\Temp\ccz6pbcU.s 			page 12


 391 001e D31A     		subs	r3, r2, r3
 392 0020 DBB2     		uxtb	r3, r3
 393 0022 3033     		adds	r3, r3, #48
 394 0024 DAB2     		uxtb	r2, r3
 395 0026 C34B     		ldr	r3, .L141+8
 396 0028 5A71     		strb	r2, [r3, #5]
  83:printer.c     **** 	sale_number[4]=((int_salenumber%10000)/1000)+48;
 397              		.loc 1 83 0
 398 002a C04B     		ldr	r3, .L141
 399 002c 1B78     		ldrb	r3, [r3]	@ zero_extendqisi2
 400 002e 1A46     		mov	r2, r3
 401 0030 BF4B     		ldr	r3, .L141+4
 402 0032 83FB0213 		smull	r1, r3, r3, r2
 403 0036 1913     		asrs	r1, r3, #12
 404 0038 D317     		asrs	r3, r2, #31
 405 003a CB1A     		subs	r3, r1, r3
 406 003c 42F21071 		movw	r1, #10000
 407 0040 01FB03F3 		mul	r3, r1, r3
 408 0044 D31A     		subs	r3, r2, r3
 409 0046 BC4A     		ldr	r2, .L141+12
 410 0048 82FB0312 		smull	r1, r2, r2, r3
 411 004c 9211     		asrs	r2, r2, #6
 412 004e DB17     		asrs	r3, r3, #31
 413 0050 D31A     		subs	r3, r2, r3
 414 0052 DBB2     		uxtb	r3, r3
 415 0054 3033     		adds	r3, r3, #48
 416 0056 DAB2     		uxtb	r2, r3
 417 0058 B64B     		ldr	r3, .L141+8
 418 005a 1A71     		strb	r2, [r3, #4]
  84:printer.c     **** 	sale_number[3]=(((int_salenumber%10000)%1000)/100)+48;
 419              		.loc 1 84 0
 420 005c B34B     		ldr	r3, .L141
 421 005e 1B78     		ldrb	r3, [r3]	@ zero_extendqisi2
 422 0060 1A46     		mov	r2, r3
 423 0062 B34B     		ldr	r3, .L141+4
 424 0064 83FB0213 		smull	r1, r3, r3, r2
 425 0068 1913     		asrs	r1, r3, #12
 426 006a D317     		asrs	r3, r2, #31
 427 006c CB1A     		subs	r3, r1, r3
 428 006e 42F21071 		movw	r1, #10000
 429 0072 01FB03F3 		mul	r3, r1, r3
 430 0076 D31A     		subs	r3, r2, r3
 431 0078 AF4A     		ldr	r2, .L141+12
 432 007a 82FB0312 		smull	r1, r2, r2, r3
 433 007e 9111     		asrs	r1, r2, #6
 434 0080 DA17     		asrs	r2, r3, #31
 435 0082 8A1A     		subs	r2, r1, r2
 436 0084 4FF47A71 		mov	r1, #1000
 437 0088 01FB02F2 		mul	r2, r1, r2
 438 008c 9A1A     		subs	r2, r3, r2
 439 008e AB4B     		ldr	r3, .L141+16
 440 0090 83FB0213 		smull	r1, r3, r3, r2
 441 0094 5911     		asrs	r1, r3, #5
 442 0096 D317     		asrs	r3, r2, #31
 443 0098 CB1A     		subs	r3, r1, r3
 444 009a DBB2     		uxtb	r3, r3
 445 009c 3033     		adds	r3, r3, #48
ARM GAS  C:\Users\Diego\AppData\Local\Temp\ccz6pbcU.s 			page 13


 446 009e DAB2     		uxtb	r2, r3
 447 00a0 A44B     		ldr	r3, .L141+8
 448 00a2 DA70     		strb	r2, [r3, #3]
  85:printer.c     **** 	sale_number[2]=((((int_salenumber%10000)%1000)%100)/10)+48;	
 449              		.loc 1 85 0
 450 00a4 A14B     		ldr	r3, .L141
 451 00a6 1B78     		ldrb	r3, [r3]	@ zero_extendqisi2
 452 00a8 A14A     		ldr	r2, .L141+4
 453 00aa 82FB0312 		smull	r1, r2, r2, r3
 454 00ae 1113     		asrs	r1, r2, #12
 455 00b0 DA17     		asrs	r2, r3, #31
 456 00b2 8A1A     		subs	r2, r1, r2
 457 00b4 42F21071 		movw	r1, #10000
 458 00b8 01FB02F2 		mul	r2, r1, r2
 459 00bc 9A1A     		subs	r2, r3, r2
 460 00be 9E4B     		ldr	r3, .L141+12
 461 00c0 83FB0213 		smull	r1, r3, r3, r2
 462 00c4 9911     		asrs	r1, r3, #6
 463 00c6 D317     		asrs	r3, r2, #31
 464 00c8 CB1A     		subs	r3, r1, r3
 465 00ca 4FF47A71 		mov	r1, #1000
 466 00ce 01FB03F3 		mul	r3, r1, r3
 467 00d2 D31A     		subs	r3, r2, r3
 468 00d4 994A     		ldr	r2, .L141+16
 469 00d6 82FB0312 		smull	r1, r2, r2, r3
 470 00da 5111     		asrs	r1, r2, #5
 471 00dc DA17     		asrs	r2, r3, #31
 472 00de 8A1A     		subs	r2, r1, r2
 473 00e0 6421     		movs	r1, #100
 474 00e2 01FB02F2 		mul	r2, r1, r2
 475 00e6 9A1A     		subs	r2, r3, r2
 476 00e8 954B     		ldr	r3, .L141+20
 477 00ea 83FB0213 		smull	r1, r3, r3, r2
 478 00ee 9910     		asrs	r1, r3, #2
 479 00f0 D317     		asrs	r3, r2, #31
 480 00f2 CB1A     		subs	r3, r1, r3
 481 00f4 DBB2     		uxtb	r3, r3
 482 00f6 3033     		adds	r3, r3, #48
 483 00f8 DAB2     		uxtb	r2, r3
 484 00fa 8E4B     		ldr	r3, .L141+8
 485 00fc 9A70     		strb	r2, [r3, #2]
  86:printer.c     **** 	sale_number[1]=((((int_salenumber%10000)%1000)%100)%10)+48;
 486              		.loc 1 86 0
 487 00fe 8B4B     		ldr	r3, .L141
 488 0100 1B78     		ldrb	r3, [r3]	@ zero_extendqisi2
 489 0102 8B4A     		ldr	r2, .L141+4
 490 0104 82FB0312 		smull	r1, r2, r2, r3
 491 0108 1113     		asrs	r1, r2, #12
 492 010a DA17     		asrs	r2, r3, #31
 493 010c 8A1A     		subs	r2, r1, r2
 494 010e 42F21071 		movw	r1, #10000
 495 0112 01FB02F2 		mul	r2, r1, r2
 496 0116 9A1A     		subs	r2, r3, r2
 497 0118 874B     		ldr	r3, .L141+12
 498 011a 83FB0213 		smull	r1, r3, r3, r2
 499 011e 9911     		asrs	r1, r3, #6
 500 0120 D317     		asrs	r3, r2, #31
ARM GAS  C:\Users\Diego\AppData\Local\Temp\ccz6pbcU.s 			page 14


 501 0122 CB1A     		subs	r3, r1, r3
 502 0124 4FF47A71 		mov	r1, #1000
 503 0128 01FB03F3 		mul	r3, r1, r3
 504 012c D31A     		subs	r3, r2, r3
 505 012e 834A     		ldr	r2, .L141+16
 506 0130 82FB0312 		smull	r1, r2, r2, r3
 507 0134 5111     		asrs	r1, r2, #5
 508 0136 DA17     		asrs	r2, r3, #31
 509 0138 8A1A     		subs	r2, r1, r2
 510 013a 6421     		movs	r1, #100
 511 013c 01FB02F2 		mul	r2, r1, r2
 512 0140 9A1A     		subs	r2, r3, r2
 513 0142 7F4B     		ldr	r3, .L141+20
 514 0144 83FB0213 		smull	r1, r3, r3, r2
 515 0148 9910     		asrs	r1, r3, #2
 516 014a D317     		asrs	r3, r2, #31
 517 014c C91A     		subs	r1, r1, r3
 518 014e 0B46     		mov	r3, r1
 519 0150 9B00     		lsls	r3, r3, #2
 520 0152 0B44     		add	r3, r3, r1
 521 0154 5B00     		lsls	r3, r3, #1
 522 0156 D11A     		subs	r1, r2, r3
 523 0158 CBB2     		uxtb	r3, r1
 524 015a 3033     		adds	r3, r3, #48
 525 015c DAB2     		uxtb	r2, r3
 526 015e 754B     		ldr	r3, .L141+8
 527 0160 5A70     		strb	r2, [r3, #1]
 528              	.LBB2:
  87:printer.c     ****     for(uint8 i = 1; i<6; i++){
 529              		.loc 1 87 0
 530 0162 0123     		movs	r3, #1
 531 0164 87F84630 		strb	r3, [r7, #70]
 532 0168 0FE0     		b	.L2
 533              	.L3:
  88:printer.c     ****         EEPROM_1_WriteByte(sale_number[i],i);
 534              		.loc 1 88 0 discriminator 3
 535 016a 97F84630 		ldrb	r3, [r7, #70]	@ zero_extendqisi2
 536 016e 714A     		ldr	r2, .L141+8
 537 0170 D35C     		ldrb	r3, [r2, r3]	@ zero_extendqisi2
 538 0172 97F84620 		ldrb	r2, [r7, #70]	@ zero_extendqisi2
 539 0176 92B2     		uxth	r2, r2
 540 0178 1146     		mov	r1, r2
 541 017a 1846     		mov	r0, r3
 542 017c FFF7FEFF 		bl	EEPROM_1_WriteByte
  87:printer.c     ****     for(uint8 i = 1; i<6; i++){
 543              		.loc 1 87 0 discriminator 3
 544 0180 97F84630 		ldrb	r3, [r7, #70]	@ zero_extendqisi2
 545 0184 0133     		adds	r3, r3, #1
 546 0186 87F84630 		strb	r3, [r7, #70]
 547              	.L2:
  87:printer.c     ****     for(uint8 i = 1; i<6; i++){
 548              		.loc 1 87 0 is_stmt 0 discriminator 1
 549 018a 97F84630 		ldrb	r3, [r7, #70]	@ zero_extendqisi2
 550 018e 052B     		cmp	r3, #5
 551 0190 EBD9     		bls	.L3
 552              	.LBE2:
  89:printer.c     ****     }
ARM GAS  C:\Users\Diego\AppData\Local\Temp\ccz6pbcU.s 			page 15


  90:printer.c     ****     while(screen_size == 0){
 553              		.loc 1 90 0 is_stmt 1
 554 0192 1BE0     		b	.L4
 555              	.L7:
 556              	.LBB3:
  91:printer.c     ****         for(uint8 LCDRx = 0; LCDRx < 6; LCDRx++){
 557              		.loc 1 91 0
 558 0194 0023     		movs	r3, #0
 559 0196 87F84530 		strb	r3, [r7, #69]
 560 019a 0BE0     		b	.L5
 561              	.L6:
  92:printer.c     ****             screen_PutChar(ASK_TIME[LCDRx]);
 562              		.loc 1 92 0 discriminator 3
 563 019c 97F84530 		ldrb	r3, [r7, #69]	@ zero_extendqisi2
 564 01a0 684A     		ldr	r2, .L141+24
 565 01a2 D35C     		ldrb	r3, [r2, r3]	@ zero_extendqisi2
 566 01a4 1846     		mov	r0, r3
 567 01a6 FFF7FEFF 		bl	screen_PutChar
  91:printer.c     ****         for(uint8 LCDRx = 0; LCDRx < 6; LCDRx++){
 568              		.loc 1 91 0 discriminator 3
 569 01aa 97F84530 		ldrb	r3, [r7, #69]	@ zero_extendqisi2
 570 01ae 0133     		adds	r3, r3, #1
 571 01b0 87F84530 		strb	r3, [r7, #69]
 572              	.L5:
  91:printer.c     ****         for(uint8 LCDRx = 0; LCDRx < 6; LCDRx++){
 573              		.loc 1 91 0 is_stmt 0 discriminator 1
 574 01b4 97F84530 		ldrb	r3, [r7, #69]	@ zero_extendqisi2
 575 01b8 052B     		cmp	r3, #5
 576 01ba EFD9     		bls	.L6
 577              	.LBE3:
  93:printer.c     ****         }
  94:printer.c     ****         CyDelay(4);
 578              		.loc 1 94 0 is_stmt 1
 579 01bc 0420     		movs	r0, #4
 580 01be FFF7FEFF 		bl	CyDelay
  95:printer.c     ****         screen_size = screen_GetRxBufferSize();
 581              		.loc 1 95 0
 582 01c2 FFF7FEFF 		bl	screen_GetRxBufferSize
 583 01c6 0346     		mov	r3, r0
 584 01c8 87F84730 		strb	r3, [r7, #71]
 585              	.L4:
  90:printer.c     ****         for(uint8 LCDRx = 0; LCDRx < 6; LCDRx++){
 586              		.loc 1 90 0
 587 01cc 97F94730 		ldrsb	r3, [r7, #71]
 588 01d0 002B     		cmp	r3, #0
 589 01d2 DFD0     		beq	.L7
  96:printer.c     ****     }
  97:printer.c     ****     if(screen_size >= 13 ){
 590              		.loc 1 97 0
 591 01d4 97F94730 		ldrsb	r3, [r7, #71]
 592 01d8 0C2B     		cmp	r3, #12
 593 01da 54DD     		ble	.L11
 594              	.LBB4:
  98:printer.c     ****         for(uint8 LCDRx = 0; LCDRx < screen_size; LCDRx++){
 595              		.loc 1 98 0
 596 01dc 0023     		movs	r3, #0
 597 01de 87F84430 		strb	r3, [r7, #68]
ARM GAS  C:\Users\Diego\AppData\Local\Temp\ccz6pbcU.s 			page 16


 598 01e2 0CE0     		b	.L9
 599              	.L10:
  99:printer.c     ****             touch1[LCDRx] = screen_ReadRxData();
 600              		.loc 1 99 0 discriminator 3
 601 01e4 97F84440 		ldrb	r4, [r7, #68]	@ zero_extendqisi2
 602 01e8 FFF7FEFF 		bl	screen_ReadRxData
 603 01ec 0346     		mov	r3, r0
 604 01ee 1A46     		mov	r2, r3
 605 01f0 554B     		ldr	r3, .L141+28
 606 01f2 1A55     		strb	r2, [r3, r4]
  98:printer.c     ****         for(uint8 LCDRx = 0; LCDRx < screen_size; LCDRx++){
 607              		.loc 1 98 0 discriminator 3
 608 01f4 97F84430 		ldrb	r3, [r7, #68]	@ zero_extendqisi2
 609 01f8 0133     		adds	r3, r3, #1
 610 01fa 87F84430 		strb	r3, [r7, #68]
 611              	.L9:
  98:printer.c     ****         for(uint8 LCDRx = 0; LCDRx < screen_size; LCDRx++){
 612              		.loc 1 98 0 is_stmt 0 discriminator 1
 613 01fe 97F84420 		ldrb	r2, [r7, #68]	@ zero_extendqisi2
 614 0202 97F94730 		ldrsb	r3, [r7, #71]
 615 0206 9A42     		cmp	r2, r3
 616 0208 ECDB     		blt	.L10
 617              	.LBE4:
 100:printer.c     ****         }
 101:printer.c     ****         screen_size = 0;
 618              		.loc 1 101 0 is_stmt 1
 619 020a 0023     		movs	r3, #0
 620 020c 87F84730 		strb	r3, [r7, #71]
 102:printer.c     ****     }
 103:printer.c     ****     while(touch1[8] == 0x00){
 621              		.loc 1 103 0
 622 0210 39E0     		b	.L11
 623              	.L16:
 624              	.LBB5:
 104:printer.c     ****          for(uint8 LCDRx = 0; LCDRx < 6; LCDRx++){
 625              		.loc 1 104 0
 626 0212 0023     		movs	r3, #0
 627 0214 87F84330 		strb	r3, [r7, #67]
 628 0218 0BE0     		b	.L12
 629              	.L13:
 105:printer.c     ****             screen_PutChar(ASK_TIME[LCDRx]);
 630              		.loc 1 105 0 discriminator 3
 631 021a 97F84330 		ldrb	r3, [r7, #67]	@ zero_extendqisi2
 632 021e 494A     		ldr	r2, .L141+24
 633 0220 D35C     		ldrb	r3, [r2, r3]	@ zero_extendqisi2
 634 0222 1846     		mov	r0, r3
 635 0224 FFF7FEFF 		bl	screen_PutChar
 104:printer.c     ****          for(uint8 LCDRx = 0; LCDRx < 6; LCDRx++){
 636              		.loc 1 104 0 discriminator 3
 637 0228 97F84330 		ldrb	r3, [r7, #67]	@ zero_extendqisi2
 638 022c 0133     		adds	r3, r3, #1
 639 022e 87F84330 		strb	r3, [r7, #67]
 640              	.L12:
 104:printer.c     ****          for(uint8 LCDRx = 0; LCDRx < 6; LCDRx++){
 641              		.loc 1 104 0 is_stmt 0 discriminator 1
 642 0232 97F84330 		ldrb	r3, [r7, #67]	@ zero_extendqisi2
 643 0236 052B     		cmp	r3, #5
ARM GAS  C:\Users\Diego\AppData\Local\Temp\ccz6pbcU.s 			page 17


 644 0238 EFD9     		bls	.L13
 645              	.LBE5:
 106:printer.c     ****         }
 107:printer.c     ****         CyDelay(4);
 646              		.loc 1 107 0 is_stmt 1
 647 023a 0420     		movs	r0, #4
 648 023c FFF7FEFF 		bl	CyDelay
 108:printer.c     ****         screen_size = screen_GetRxBufferSize();
 649              		.loc 1 108 0
 650 0240 FFF7FEFF 		bl	screen_GetRxBufferSize
 651 0244 0346     		mov	r3, r0
 652 0246 87F84730 		strb	r3, [r7, #71]
 109:printer.c     ****         if(screen_size >= 13 ){
 653              		.loc 1 109 0
 654 024a 97F94730 		ldrsb	r3, [r7, #71]
 655 024e 0C2B     		cmp	r3, #12
 656 0250 19DD     		ble	.L11
 657              	.LBB6:
 110:printer.c     ****             for(uint8 LCDRx = 0; LCDRx < screen_size; LCDRx++){
 658              		.loc 1 110 0
 659 0252 0023     		movs	r3, #0
 660 0254 87F84230 		strb	r3, [r7, #66]
 661 0258 0CE0     		b	.L14
 662              	.L15:
 111:printer.c     ****                 touch1[LCDRx] = screen_ReadRxData();
 663              		.loc 1 111 0 discriminator 3
 664 025a 97F84240 		ldrb	r4, [r7, #66]	@ zero_extendqisi2
 665 025e FFF7FEFF 		bl	screen_ReadRxData
 666 0262 0346     		mov	r3, r0
 667 0264 1A46     		mov	r2, r3
 668 0266 384B     		ldr	r3, .L141+28
 669 0268 1A55     		strb	r2, [r3, r4]
 110:printer.c     ****             for(uint8 LCDRx = 0; LCDRx < screen_size; LCDRx++){
 670              		.loc 1 110 0 discriminator 3
 671 026a 97F84230 		ldrb	r3, [r7, #66]	@ zero_extendqisi2
 672 026e 0133     		adds	r3, r3, #1
 673 0270 87F84230 		strb	r3, [r7, #66]
 674              	.L14:
 110:printer.c     ****             for(uint8 LCDRx = 0; LCDRx < screen_size; LCDRx++){
 675              		.loc 1 110 0 is_stmt 0 discriminator 1
 676 0274 97F84220 		ldrb	r2, [r7, #66]	@ zero_extendqisi2
 677 0278 97F94730 		ldrsb	r3, [r7, #71]
 678 027c 9A42     		cmp	r2, r3
 679 027e ECDB     		blt	.L15
 680              	.LBE6:
 112:printer.c     ****             }
 113:printer.c     ****             screen_size = 0;
 681              		.loc 1 113 0 is_stmt 1
 682 0280 0023     		movs	r3, #0
 683 0282 87F84730 		strb	r3, [r7, #71]
 684              	.L11:
 103:printer.c     ****          for(uint8 LCDRx = 0; LCDRx < 6; LCDRx++){
 685              		.loc 1 103 0
 686 0286 304B     		ldr	r3, .L141+28
 687 0288 1B7A     		ldrb	r3, [r3, #8]	@ zero_extendqisi2
 688 028a 002B     		cmp	r3, #0
 689 028c C1D0     		beq	.L16
ARM GAS  C:\Users\Diego\AppData\Local\Temp\ccz6pbcU.s 			page 18


 690              	.LBB7:
 114:printer.c     ****         }
 115:printer.c     ****     }    
 116:printer.c     **** 	for(uint8 x = 0; x < 32; x ++){
 691              		.loc 1 116 0
 692 028e 0023     		movs	r3, #0
 693 0290 87F84130 		strb	r3, [r7, #65]
 694 0294 0BE0     		b	.L17
 695              	.L18:
 117:printer.c     **** 		PRINTER_A_PutChar(msn_EDS[x]);
 696              		.loc 1 117 0 discriminator 3
 697 0296 97F84130 		ldrb	r3, [r7, #65]	@ zero_extendqisi2
 698 029a 2C4A     		ldr	r2, .L141+32
 699 029c D35C     		ldrb	r3, [r2, r3]	@ zero_extendqisi2
 700 029e 1846     		mov	r0, r3
 701 02a0 FFF7FEFF 		bl	PRINTER_A_PutChar
 116:printer.c     **** 		PRINTER_A_PutChar(msn_EDS[x]);
 702              		.loc 1 116 0 discriminator 3
 703 02a4 97F84130 		ldrb	r3, [r7, #65]	@ zero_extendqisi2
 704 02a8 0133     		adds	r3, r3, #1
 705 02aa 87F84130 		strb	r3, [r7, #65]
 706              	.L17:
 116:printer.c     **** 		PRINTER_A_PutChar(msn_EDS[x]);
 707              		.loc 1 116 0 is_stmt 0 discriminator 1
 708 02ae 97F84130 		ldrb	r3, [r7, #65]	@ zero_extendqisi2
 709 02b2 1F2B     		cmp	r3, #31
 710 02b4 EFD9     		bls	.L18
 711              	.LBE7:
 118:printer.c     **** 	}
 119:printer.c     ****     PRINTER_A_PutChar(LINE_FEED);
 712              		.loc 1 119 0 is_stmt 1
 713 02b6 264B     		ldr	r3, .L141+36
 714 02b8 1B78     		ldrb	r3, [r3]	@ zero_extendqisi2
 715 02ba 1846     		mov	r0, r3
 716 02bc FFF7FEFF 		bl	PRINTER_A_PutChar
 717              	.LBB8:
 120:printer.c     **** 	for(uint8 x = 0; x < 32; x ++){
 718              		.loc 1 120 0
 719 02c0 0023     		movs	r3, #0
 720 02c2 87F84030 		strb	r3, [r7, #64]
 721 02c6 0BE0     		b	.L19
 722              	.L20:
 121:printer.c     **** 		PRINTER_A_PutChar(msn_EDS2[x]);
 723              		.loc 1 121 0 discriminator 3
 724 02c8 97F84030 		ldrb	r3, [r7, #64]	@ zero_extendqisi2
 725 02cc 214A     		ldr	r2, .L141+40
 726 02ce D35C     		ldrb	r3, [r2, r3]	@ zero_extendqisi2
 727 02d0 1846     		mov	r0, r3
 728 02d2 FFF7FEFF 		bl	PRINTER_A_PutChar
 120:printer.c     **** 	for(uint8 x = 0; x < 32; x ++){
 729              		.loc 1 120 0 discriminator 3
 730 02d6 97F84030 		ldrb	r3, [r7, #64]	@ zero_extendqisi2
 731 02da 0133     		adds	r3, r3, #1
 732 02dc 87F84030 		strb	r3, [r7, #64]
 733              	.L19:
 120:printer.c     **** 	for(uint8 x = 0; x < 32; x ++){
 734              		.loc 1 120 0 is_stmt 0 discriminator 1
ARM GAS  C:\Users\Diego\AppData\Local\Temp\ccz6pbcU.s 			page 19


 735 02e0 97F84030 		ldrb	r3, [r7, #64]	@ zero_extendqisi2
 736 02e4 1F2B     		cmp	r3, #31
 737 02e6 EFD9     		bls	.L20
 738              	.LBE8:
 122:printer.c     **** 	}
 123:printer.c     **** 	PRINTER_A_PutChar(LINE_FEED);
 739              		.loc 1 123 0 is_stmt 1
 740 02e8 194B     		ldr	r3, .L141+36
 741 02ea 1B78     		ldrb	r3, [r3]	@ zero_extendqisi2
 742 02ec 1846     		mov	r0, r3
 743 02ee FFF7FEFF 		bl	PRINTER_A_PutChar
 744              	.LBB9:
 124:printer.c     **** 	for(uint8 x = 0; x < 32; x ++){
 745              		.loc 1 124 0
 746 02f2 0023     		movs	r3, #0
 747 02f4 87F83F30 		strb	r3, [r7, #63]
 748 02f8 0BE0     		b	.L21
 749              	.L22:
 125:printer.c     **** 		PRINTER_A_PutChar(msn_EDS3[x]);
 750              		.loc 1 125 0 discriminator 3
 751 02fa 97F83F30 		ldrb	r3, [r7, #63]	@ zero_extendqisi2
 752 02fe 164A     		ldr	r2, .L141+44
 753 0300 D35C     		ldrb	r3, [r2, r3]	@ zero_extendqisi2
 754 0302 1846     		mov	r0, r3
 755 0304 FFF7FEFF 		bl	PRINTER_A_PutChar
 124:printer.c     **** 	for(uint8 x = 0; x < 32; x ++){
 756              		.loc 1 124 0 discriminator 3
 757 0308 97F83F30 		ldrb	r3, [r7, #63]	@ zero_extendqisi2
 758 030c 0133     		adds	r3, r3, #1
 759 030e 87F83F30 		strb	r3, [r7, #63]
 760              	.L21:
 124:printer.c     **** 	for(uint8 x = 0; x < 32; x ++){
 761              		.loc 1 124 0 is_stmt 0 discriminator 1
 762 0312 97F83F30 		ldrb	r3, [r7, #63]	@ zero_extendqisi2
 763 0316 1F2B     		cmp	r3, #31
 764 0318 EFD9     		bls	.L22
 765              	.LBE9:
 126:printer.c     **** 	}
 127:printer.c     **** 	PRINTER_A_PutChar(LINE_FEED);
 766              		.loc 1 127 0 is_stmt 1
 767 031a 0D4B     		ldr	r3, .L141+36
 768 031c 1B78     		ldrb	r3, [r3]	@ zero_extendqisi2
 769 031e 1846     		mov	r0, r3
 770 0320 FFF7FEFF 		bl	PRINTER_A_PutChar
 771              	.LBB10:
 128:printer.c     **** 	for(uint8 x = 0; x < 32; x ++){
 772              		.loc 1 128 0
 773 0324 0023     		movs	r3, #0
 774 0326 87F83E30 		strb	r3, [r7, #62]
 775 032a 23E0     		b	.L23
 776              	.L142:
 777              		.align	2
 778              	.L141:
 779 032c 00000000 		.word	int_salenumber
 780 0330 AD8BDB68 		.word	1759218605
 781 0334 00000000 		.word	sale_number
 782 0338 D34D6210 		.word	274877907
ARM GAS  C:\Users\Diego\AppData\Local\Temp\ccz6pbcU.s 			page 20


 783 033c 1F85EB51 		.word	1374389535
 784 0340 67666666 		.word	1717986919
 785 0344 00000000 		.word	ASK_TIME
 786 0348 00000000 		.word	touch1
 787 034c 00000000 		.word	msn_EDS
 788 0350 00000000 		.word	LINE_FEED
 789 0354 00000000 		.word	msn_EDS2
 790 0358 00000000 		.word	msn_EDS3
 791              	.L24:
 129:printer.c     **** 		PRINTER_A_PutChar(msn_EDS4[x]);
 792              		.loc 1 129 0 discriminator 3
 793 035c 97F83E30 		ldrb	r3, [r7, #62]	@ zero_extendqisi2
 794 0360 BD4A     		ldr	r2, .L143
 795 0362 D35C     		ldrb	r3, [r2, r3]	@ zero_extendqisi2
 796 0364 1846     		mov	r0, r3
 797 0366 FFF7FEFF 		bl	PRINTER_A_PutChar
 128:printer.c     **** 	for(uint8 x = 0; x < 32; x ++){
 798              		.loc 1 128 0 discriminator 3
 799 036a 97F83E30 		ldrb	r3, [r7, #62]	@ zero_extendqisi2
 800 036e 0133     		adds	r3, r3, #1
 801 0370 87F83E30 		strb	r3, [r7, #62]
 802              	.L23:
 128:printer.c     **** 	for(uint8 x = 0; x < 32; x ++){
 803              		.loc 1 128 0 is_stmt 0 discriminator 1
 804 0374 97F83E30 		ldrb	r3, [r7, #62]	@ zero_extendqisi2
 805 0378 1F2B     		cmp	r3, #31
 806 037a EFD9     		bls	.L24
 807              	.LBE10:
 130:printer.c     **** 	}
 131:printer.c     ****     PRINTER_A_PutChar(LINE_FEED);
 808              		.loc 1 131 0 is_stmt 1
 809 037c B74B     		ldr	r3, .L143+4
 810 037e 1B78     		ldrb	r3, [r3]	@ zero_extendqisi2
 811 0380 1846     		mov	r0, r3
 812 0382 FFF7FEFF 		bl	PRINTER_A_PutChar
 813              	.LBB11:
 132:printer.c     ****     for(uint8 x = 0; x < 32; x ++){
 814              		.loc 1 132 0
 815 0386 0023     		movs	r3, #0
 816 0388 87F83D30 		strb	r3, [r7, #61]
 817 038c 0BE0     		b	.L25
 818              	.L26:
 133:printer.c     **** 		PRINTER_A_PutChar(msn_EDS5[x]);
 819              		.loc 1 133 0 discriminator 3
 820 038e 97F83D30 		ldrb	r3, [r7, #61]	@ zero_extendqisi2
 821 0392 B34A     		ldr	r2, .L143+8
 822 0394 D35C     		ldrb	r3, [r2, r3]	@ zero_extendqisi2
 823 0396 1846     		mov	r0, r3
 824 0398 FFF7FEFF 		bl	PRINTER_A_PutChar
 132:printer.c     ****     for(uint8 x = 0; x < 32; x ++){
 825              		.loc 1 132 0 discriminator 3
 826 039c 97F83D30 		ldrb	r3, [r7, #61]	@ zero_extendqisi2
 827 03a0 0133     		adds	r3, r3, #1
 828 03a2 87F83D30 		strb	r3, [r7, #61]
 829              	.L25:
 132:printer.c     ****     for(uint8 x = 0; x < 32; x ++){
 830              		.loc 1 132 0 is_stmt 0 discriminator 1
ARM GAS  C:\Users\Diego\AppData\Local\Temp\ccz6pbcU.s 			page 21


 831 03a6 97F83D30 		ldrb	r3, [r7, #61]	@ zero_extendqisi2
 832 03aa 1F2B     		cmp	r3, #31
 833 03ac EFD9     		bls	.L26
 834              	.LBE11:
 134:printer.c     **** 	}
 135:printer.c     ****     PRINTER_A_PutChar(LINE_FEED);
 835              		.loc 1 135 0 is_stmt 1
 836 03ae AB4B     		ldr	r3, .L143+4
 837 03b0 1B78     		ldrb	r3, [r3]	@ zero_extendqisi2
 838 03b2 1846     		mov	r0, r3
 839 03b4 FFF7FEFF 		bl	PRINTER_A_PutChar
 840              	.LBB12:
 136:printer.c     ****     for(uint8 x = 0; x < 32; x ++){
 841              		.loc 1 136 0
 842 03b8 0023     		movs	r3, #0
 843 03ba 87F83C30 		strb	r3, [r7, #60]
 844 03be 0BE0     		b	.L27
 845              	.L28:
 137:printer.c     **** 		PRINTER_A_PutChar(msn_EDS6[x]);
 846              		.loc 1 137 0 discriminator 3
 847 03c0 97F83C30 		ldrb	r3, [r7, #60]	@ zero_extendqisi2
 848 03c4 A74A     		ldr	r2, .L143+12
 849 03c6 D35C     		ldrb	r3, [r2, r3]	@ zero_extendqisi2
 850 03c8 1846     		mov	r0, r3
 851 03ca FFF7FEFF 		bl	PRINTER_A_PutChar
 136:printer.c     ****     for(uint8 x = 0; x < 32; x ++){
 852              		.loc 1 136 0 discriminator 3
 853 03ce 97F83C30 		ldrb	r3, [r7, #60]	@ zero_extendqisi2
 854 03d2 0133     		adds	r3, r3, #1
 855 03d4 87F83C30 		strb	r3, [r7, #60]
 856              	.L27:
 136:printer.c     ****     for(uint8 x = 0; x < 32; x ++){
 857              		.loc 1 136 0 is_stmt 0 discriminator 1
 858 03d8 97F83C30 		ldrb	r3, [r7, #60]	@ zero_extendqisi2
 859 03dc 1F2B     		cmp	r3, #31
 860 03de EFD9     		bls	.L28
 861              	.LBE12:
 138:printer.c     **** 	}    
 139:printer.c     ****     PRINTER_A_PutChar(LINE_FEED);
 862              		.loc 1 139 0 is_stmt 1
 863 03e0 9E4B     		ldr	r3, .L143+4
 864 03e2 1B78     		ldrb	r3, [r3]	@ zero_extendqisi2
 865 03e4 1846     		mov	r0, r3
 866 03e6 FFF7FEFF 		bl	PRINTER_A_PutChar
 867              	.LBB13:
 140:printer.c     **** 	for(uint8 x = 0; x < 32; x ++){
 868              		.loc 1 140 0
 869 03ea 0023     		movs	r3, #0
 870 03ec 87F83B30 		strb	r3, [r7, #59]
 871 03f0 0BE0     		b	.L29
 872              	.L30:
 141:printer.c     **** 		PRINTER_A_PutChar(SEPARATOR[x]);
 873              		.loc 1 141 0 discriminator 3
 874 03f2 97F83B30 		ldrb	r3, [r7, #59]	@ zero_extendqisi2
 875 03f6 9C4A     		ldr	r2, .L143+16
 876 03f8 D35C     		ldrb	r3, [r2, r3]	@ zero_extendqisi2
 877 03fa 1846     		mov	r0, r3
ARM GAS  C:\Users\Diego\AppData\Local\Temp\ccz6pbcU.s 			page 22


 878 03fc FFF7FEFF 		bl	PRINTER_A_PutChar
 140:printer.c     **** 	for(uint8 x = 0; x < 32; x ++){
 879              		.loc 1 140 0 discriminator 3
 880 0400 97F83B30 		ldrb	r3, [r7, #59]	@ zero_extendqisi2
 881 0404 0133     		adds	r3, r3, #1
 882 0406 87F83B30 		strb	r3, [r7, #59]
 883              	.L29:
 140:printer.c     **** 	for(uint8 x = 0; x < 32; x ++){
 884              		.loc 1 140 0 is_stmt 0 discriminator 1
 885 040a 97F83B30 		ldrb	r3, [r7, #59]	@ zero_extendqisi2
 886 040e 1F2B     		cmp	r3, #31
 887 0410 EFD9     		bls	.L30
 888              	.LBE13:
 142:printer.c     **** 	}
 143:printer.c     ****     PRINTER_A_PutChar(LINE_FEED);
 889              		.loc 1 143 0 is_stmt 1
 890 0412 924B     		ldr	r3, .L143+4
 891 0414 1B78     		ldrb	r3, [r3]	@ zero_extendqisi2
 892 0416 1846     		mov	r0, r3
 893 0418 FFF7FEFF 		bl	PRINTER_A_PutChar
 894              	.LBB14:
 144:printer.c     ****     /********** FECHA ***************/
 145:printer.c     **** 	for(uint8 x = 0; x < 13; x ++){
 895              		.loc 1 145 0
 896 041c 0023     		movs	r3, #0
 897 041e 87F83A30 		strb	r3, [r7, #58]
 898 0422 0BE0     		b	.L31
 899              	.L32:
 146:printer.c     **** 		PRINTER_A_PutChar(msn_fecha[x]);
 900              		.loc 1 146 0 discriminator 3
 901 0424 97F83A30 		ldrb	r3, [r7, #58]	@ zero_extendqisi2
 902 0428 904A     		ldr	r2, .L143+20
 903 042a D35C     		ldrb	r3, [r2, r3]	@ zero_extendqisi2
 904 042c 1846     		mov	r0, r3
 905 042e FFF7FEFF 		bl	PRINTER_A_PutChar
 145:printer.c     **** 		PRINTER_A_PutChar(msn_fecha[x]);
 906              		.loc 1 145 0 discriminator 3
 907 0432 97F83A30 		ldrb	r3, [r7, #58]	@ zero_extendqisi2
 908 0436 0133     		adds	r3, r3, #1
 909 0438 87F83A30 		strb	r3, [r7, #58]
 910              	.L31:
 145:printer.c     **** 		PRINTER_A_PutChar(msn_fecha[x]);
 911              		.loc 1 145 0 is_stmt 0 discriminator 1
 912 043c 97F83A30 		ldrb	r3, [r7, #58]	@ zero_extendqisi2
 913 0440 0C2B     		cmp	r3, #12
 914 0442 EFD9     		bls	.L32
 915              	.LBE14:
 147:printer.c     **** 	}
 148:printer.c     ****     PRINTER_A_PutChar(((touch1[8] >> 4) + 0x30)) ;
 916              		.loc 1 148 0 is_stmt 1
 917 0444 8A4B     		ldr	r3, .L143+24
 918 0446 1B7A     		ldrb	r3, [r3, #8]	@ zero_extendqisi2
 919 0448 1B09     		lsrs	r3, r3, #4
 920 044a DBB2     		uxtb	r3, r3
 921 044c 3033     		adds	r3, r3, #48
 922 044e DBB2     		uxtb	r3, r3
 923 0450 1846     		mov	r0, r3
ARM GAS  C:\Users\Diego\AppData\Local\Temp\ccz6pbcU.s 			page 23


 924 0452 FFF7FEFF 		bl	PRINTER_A_PutChar
 149:printer.c     **** 	PRINTER_A_PutChar(((touch1[8] & 0x0F) + 0x30));
 925              		.loc 1 149 0
 926 0456 864B     		ldr	r3, .L143+24
 927 0458 1B7A     		ldrb	r3, [r3, #8]	@ zero_extendqisi2
 928 045a 03F00F03 		and	r3, r3, #15
 929 045e DBB2     		uxtb	r3, r3
 930 0460 3033     		adds	r3, r3, #48
 931 0462 DBB2     		uxtb	r3, r3
 932 0464 1846     		mov	r0, r3
 933 0466 FFF7FEFF 		bl	PRINTER_A_PutChar
 150:printer.c     ****     PRINTER_A_PutChar('/');
 934              		.loc 1 150 0
 935 046a 2F20     		movs	r0, #47
 936 046c FFF7FEFF 		bl	PRINTER_A_PutChar
 151:printer.c     ****     PRINTER_A_PutChar(((touch1[7] >> 4) + 0x30)) ;
 937              		.loc 1 151 0
 938 0470 7F4B     		ldr	r3, .L143+24
 939 0472 DB79     		ldrb	r3, [r3, #7]	@ zero_extendqisi2
 940 0474 1B09     		lsrs	r3, r3, #4
 941 0476 DBB2     		uxtb	r3, r3
 942 0478 3033     		adds	r3, r3, #48
 943 047a DBB2     		uxtb	r3, r3
 944 047c 1846     		mov	r0, r3
 945 047e FFF7FEFF 		bl	PRINTER_A_PutChar
 152:printer.c     ****     PRINTER_A_PutChar(((touch1[7] & 0x0F) + 0x30));
 946              		.loc 1 152 0
 947 0482 7B4B     		ldr	r3, .L143+24
 948 0484 DB79     		ldrb	r3, [r3, #7]	@ zero_extendqisi2
 949 0486 03F00F03 		and	r3, r3, #15
 950 048a DBB2     		uxtb	r3, r3
 951 048c 3033     		adds	r3, r3, #48
 952 048e DBB2     		uxtb	r3, r3
 953 0490 1846     		mov	r0, r3
 954 0492 FFF7FEFF 		bl	PRINTER_A_PutChar
 153:printer.c     ****     PRINTER_A_PutChar('/');    
 955              		.loc 1 153 0
 956 0496 2F20     		movs	r0, #47
 957 0498 FFF7FEFF 		bl	PRINTER_A_PutChar
 154:printer.c     ****     PRINTER_A_PutChar(((touch1[6] >> 4) + 0x30));
 958              		.loc 1 154 0
 959 049c 744B     		ldr	r3, .L143+24
 960 049e 9B79     		ldrb	r3, [r3, #6]	@ zero_extendqisi2
 961 04a0 1B09     		lsrs	r3, r3, #4
 962 04a2 DBB2     		uxtb	r3, r3
 963 04a4 3033     		adds	r3, r3, #48
 964 04a6 DBB2     		uxtb	r3, r3
 965 04a8 1846     		mov	r0, r3
 966 04aa FFF7FEFF 		bl	PRINTER_A_PutChar
 155:printer.c     ****     PRINTER_A_PutChar(((touch1[6] & 0x0F) + 0x30));
 967              		.loc 1 155 0
 968 04ae 704B     		ldr	r3, .L143+24
 969 04b0 9B79     		ldrb	r3, [r3, #6]	@ zero_extendqisi2
 970 04b2 03F00F03 		and	r3, r3, #15
 971 04b6 DBB2     		uxtb	r3, r3
 972 04b8 3033     		adds	r3, r3, #48
 973 04ba DBB2     		uxtb	r3, r3
ARM GAS  C:\Users\Diego\AppData\Local\Temp\ccz6pbcU.s 			page 24


 974 04bc 1846     		mov	r0, r3
 975 04be FFF7FEFF 		bl	PRINTER_A_PutChar
 156:printer.c     **** 	PRINTER_A_PutChar(LINE_FEED);
 976              		.loc 1 156 0
 977 04c2 664B     		ldr	r3, .L143+4
 978 04c4 1B78     		ldrb	r3, [r3]	@ zero_extendqisi2
 979 04c6 1846     		mov	r0, r3
 980 04c8 FFF7FEFF 		bl	PRINTER_A_PutChar
 981              	.LBB15:
 157:printer.c     ****     /********** HORA ***************/
 158:printer.c     **** 	for(uint8 x = 0; x < 13; x ++){
 982              		.loc 1 158 0
 983 04cc 0023     		movs	r3, #0
 984 04ce 87F83930 		strb	r3, [r7, #57]
 985 04d2 0BE0     		b	.L33
 986              	.L34:
 159:printer.c     **** 		PRINTER_A_PutChar(msn_hora[x]);
 987              		.loc 1 159 0 discriminator 3
 988 04d4 97F83930 		ldrb	r3, [r7, #57]	@ zero_extendqisi2
 989 04d8 664A     		ldr	r2, .L143+28
 990 04da D35C     		ldrb	r3, [r2, r3]	@ zero_extendqisi2
 991 04dc 1846     		mov	r0, r3
 992 04de FFF7FEFF 		bl	PRINTER_A_PutChar
 158:printer.c     **** 		PRINTER_A_PutChar(msn_hora[x]);
 993              		.loc 1 158 0 discriminator 3
 994 04e2 97F83930 		ldrb	r3, [r7, #57]	@ zero_extendqisi2
 995 04e6 0133     		adds	r3, r3, #1
 996 04e8 87F83930 		strb	r3, [r7, #57]
 997              	.L33:
 158:printer.c     **** 		PRINTER_A_PutChar(msn_hora[x]);
 998              		.loc 1 158 0 is_stmt 0 discriminator 1
 999 04ec 97F83930 		ldrb	r3, [r7, #57]	@ zero_extendqisi2
 1000 04f0 0C2B     		cmp	r3, #12
 1001 04f2 EFD9     		bls	.L34
 1002              	.LBE15:
 160:printer.c     **** 	}
 161:printer.c     ****     PRINTER_A_PutChar(((touch1[10] >> 4) + 0x30)) ;
 1003              		.loc 1 161 0 is_stmt 1
 1004 04f4 5E4B     		ldr	r3, .L143+24
 1005 04f6 9B7A     		ldrb	r3, [r3, #10]	@ zero_extendqisi2
 1006 04f8 1B09     		lsrs	r3, r3, #4
 1007 04fa DBB2     		uxtb	r3, r3
 1008 04fc 3033     		adds	r3, r3, #48
 1009 04fe DBB2     		uxtb	r3, r3
 1010 0500 1846     		mov	r0, r3
 1011 0502 FFF7FEFF 		bl	PRINTER_A_PutChar
 162:printer.c     ****     PRINTER_A_PutChar(((touch1[10] & 0x0F) + 0x30));
 1012              		.loc 1 162 0
 1013 0506 5A4B     		ldr	r3, .L143+24
 1014 0508 9B7A     		ldrb	r3, [r3, #10]	@ zero_extendqisi2
 1015 050a 03F00F03 		and	r3, r3, #15
 1016 050e DBB2     		uxtb	r3, r3
 1017 0510 3033     		adds	r3, r3, #48
 1018 0512 DBB2     		uxtb	r3, r3
 1019 0514 1846     		mov	r0, r3
 1020 0516 FFF7FEFF 		bl	PRINTER_A_PutChar
 163:printer.c     ****     PRINTER_A_PutChar(':');
ARM GAS  C:\Users\Diego\AppData\Local\Temp\ccz6pbcU.s 			page 25


 1021              		.loc 1 163 0
 1022 051a 3A20     		movs	r0, #58
 1023 051c FFF7FEFF 		bl	PRINTER_A_PutChar
 164:printer.c     ****     PRINTER_A_PutChar(((touch1[11] >> 4) + 0x30)) ;
 1024              		.loc 1 164 0
 1025 0520 534B     		ldr	r3, .L143+24
 1026 0522 DB7A     		ldrb	r3, [r3, #11]	@ zero_extendqisi2
 1027 0524 1B09     		lsrs	r3, r3, #4
 1028 0526 DBB2     		uxtb	r3, r3
 1029 0528 3033     		adds	r3, r3, #48
 1030 052a DBB2     		uxtb	r3, r3
 1031 052c 1846     		mov	r0, r3
 1032 052e FFF7FEFF 		bl	PRINTER_A_PutChar
 165:printer.c     ****     PRINTER_A_PutChar(((touch1[11] & 0x0F) + 0x30));
 1033              		.loc 1 165 0
 1034 0532 4F4B     		ldr	r3, .L143+24
 1035 0534 DB7A     		ldrb	r3, [r3, #11]	@ zero_extendqisi2
 1036 0536 03F00F03 		and	r3, r3, #15
 1037 053a DBB2     		uxtb	r3, r3
 1038 053c 3033     		adds	r3, r3, #48
 1039 053e DBB2     		uxtb	r3, r3
 1040 0540 1846     		mov	r0, r3
 1041 0542 FFF7FEFF 		bl	PRINTER_A_PutChar
 166:printer.c     ****     PRINTER_A_PutChar(':');
 1042              		.loc 1 166 0
 1043 0546 3A20     		movs	r0, #58
 1044 0548 FFF7FEFF 		bl	PRINTER_A_PutChar
 167:printer.c     ****     PRINTER_A_PutChar(((touch1[12] >> 4) + 0x30));
 1045              		.loc 1 167 0
 1046 054c 484B     		ldr	r3, .L143+24
 1047 054e 1B7B     		ldrb	r3, [r3, #12]	@ zero_extendqisi2
 1048 0550 1B09     		lsrs	r3, r3, #4
 1049 0552 DBB2     		uxtb	r3, r3
 1050 0554 3033     		adds	r3, r3, #48
 1051 0556 DBB2     		uxtb	r3, r3
 1052 0558 1846     		mov	r0, r3
 1053 055a FFF7FEFF 		bl	PRINTER_A_PutChar
 168:printer.c     **** 	PRINTER_A_PutChar(((touch1[12] & 0x0F) + 0x30));
 1054              		.loc 1 168 0
 1055 055e 444B     		ldr	r3, .L143+24
 1056 0560 1B7B     		ldrb	r3, [r3, #12]	@ zero_extendqisi2
 1057 0562 03F00F03 		and	r3, r3, #15
 1058 0566 DBB2     		uxtb	r3, r3
 1059 0568 3033     		adds	r3, r3, #48
 1060 056a DBB2     		uxtb	r3, r3
 1061 056c 1846     		mov	r0, r3
 1062 056e FFF7FEFF 		bl	PRINTER_A_PutChar
 169:printer.c     **** 	
 170:printer.c     ****     PRINTER_A_PutChar(LINE_FEED);
 1063              		.loc 1 170 0
 1064 0572 3A4B     		ldr	r3, .L143+4
 1065 0574 1B78     		ldrb	r3, [r3]	@ zero_extendqisi2
 1066 0576 1846     		mov	r0, r3
 1067 0578 FFF7FEFF 		bl	PRINTER_A_PutChar
 1068              	.LBB16:
 171:printer.c     ****     for(uint8 x = 0; x < 32; x ++){
 1069              		.loc 1 171 0
ARM GAS  C:\Users\Diego\AppData\Local\Temp\ccz6pbcU.s 			page 26


 1070 057c 0023     		movs	r3, #0
 1071 057e 87F83830 		strb	r3, [r7, #56]
 1072 0582 0BE0     		b	.L35
 1073              	.L36:
 172:printer.c     **** 		PRINTER_A_PutChar(SEPARATOR[x]);
 1074              		.loc 1 172 0 discriminator 3
 1075 0584 97F83830 		ldrb	r3, [r7, #56]	@ zero_extendqisi2
 1076 0588 374A     		ldr	r2, .L143+16
 1077 058a D35C     		ldrb	r3, [r2, r3]	@ zero_extendqisi2
 1078 058c 1846     		mov	r0, r3
 1079 058e FFF7FEFF 		bl	PRINTER_A_PutChar
 171:printer.c     ****     for(uint8 x = 0; x < 32; x ++){
 1080              		.loc 1 171 0 discriminator 3
 1081 0592 97F83830 		ldrb	r3, [r7, #56]	@ zero_extendqisi2
 1082 0596 0133     		adds	r3, r3, #1
 1083 0598 87F83830 		strb	r3, [r7, #56]
 1084              	.L35:
 171:printer.c     ****     for(uint8 x = 0; x < 32; x ++){
 1085              		.loc 1 171 0 is_stmt 0 discriminator 1
 1086 059c 97F83830 		ldrb	r3, [r7, #56]	@ zero_extendqisi2
 1087 05a0 1F2B     		cmp	r3, #31
 1088 05a2 EFD9     		bls	.L36
 1089              	.LBE16:
 173:printer.c     **** 	}
 174:printer.c     ****             
 175:printer.c     **** 	/***** body ******/
 176:printer.c     **** 	if(address == side.a.dir){
 1090              		.loc 1 176 0 is_stmt 1
 1091 05a4 344B     		ldr	r3, .L143+32
 1092 05a6 1B78     		ldrb	r3, [r3]	@ zero_extendqisi2
 1093 05a8 FA79     		ldrb	r2, [r7, #7]	@ zero_extendqisi2
 1094 05aa 9A42     		cmp	r2, r3
 1095 05ac 40F03F82 		bne	.L37
 177:printer.c     ****         if(side.a.Copy == 1){
 1096              		.loc 1 177 0
 1097 05b0 314B     		ldr	r3, .L143+32
 1098 05b2 93F83431 		ldrb	r3, [r3, #308]	@ zero_extendqisi2
 1099 05b6 012B     		cmp	r3, #1
 1100 05b8 2CD1     		bne	.L38
 1101              	.LBB17:
 178:printer.c     ****             for(uint8 x = 0; x < 32; x ++){
 1102              		.loc 1 178 0
 1103 05ba 0023     		movs	r3, #0
 1104 05bc 87F83730 		strb	r3, [r7, #55]
 1105 05c0 0BE0     		b	.L39
 1106              	.L40:
 179:printer.c     ****         		PRINTER_A_PutChar(msn_copy[x]);
 1107              		.loc 1 179 0 discriminator 3
 1108 05c2 97F83730 		ldrb	r3, [r7, #55]	@ zero_extendqisi2
 1109 05c6 2D4A     		ldr	r2, .L143+36
 1110 05c8 D35C     		ldrb	r3, [r2, r3]	@ zero_extendqisi2
 1111 05ca 1846     		mov	r0, r3
 1112 05cc FFF7FEFF 		bl	PRINTER_A_PutChar
 178:printer.c     ****             for(uint8 x = 0; x < 32; x ++){
 1113              		.loc 1 178 0 discriminator 3
 1114 05d0 97F83730 		ldrb	r3, [r7, #55]	@ zero_extendqisi2
 1115 05d4 0133     		adds	r3, r3, #1
ARM GAS  C:\Users\Diego\AppData\Local\Temp\ccz6pbcU.s 			page 27


 1116 05d6 87F83730 		strb	r3, [r7, #55]
 1117              	.L39:
 178:printer.c     ****             for(uint8 x = 0; x < 32; x ++){
 1118              		.loc 1 178 0 is_stmt 0 discriminator 1
 1119 05da 97F83730 		ldrb	r3, [r7, #55]	@ zero_extendqisi2
 1120 05de 1F2B     		cmp	r3, #31
 1121 05e0 EFD9     		bls	.L40
 1122              	.LBE17:
 180:printer.c     ****         	}
 181:printer.c     ****             PRINTER_A_PutChar(LINE_FEED);
 1123              		.loc 1 181 0 is_stmt 1
 1124 05e2 1E4B     		ldr	r3, .L143+4
 1125 05e4 1B78     		ldrb	r3, [r3]	@ zero_extendqisi2
 1126 05e6 1846     		mov	r0, r3
 1127 05e8 FFF7FEFF 		bl	PRINTER_A_PutChar
 1128              	.LBB18:
 182:printer.c     ****             for(uint8 x = 0; x < 32; x ++){
 1129              		.loc 1 182 0
 1130 05ec 0023     		movs	r3, #0
 1131 05ee 87F83630 		strb	r3, [r7, #54]
 1132 05f2 0BE0     		b	.L41
 1133              	.L42:
 183:printer.c     ****         		PRINTER_A_PutChar(SEPARATOR[x]);
 1134              		.loc 1 183 0 discriminator 3
 1135 05f4 97F83630 		ldrb	r3, [r7, #54]	@ zero_extendqisi2
 1136 05f8 1B4A     		ldr	r2, .L143+16
 1137 05fa D35C     		ldrb	r3, [r2, r3]	@ zero_extendqisi2
 1138 05fc 1846     		mov	r0, r3
 1139 05fe FFF7FEFF 		bl	PRINTER_A_PutChar
 182:printer.c     ****             for(uint8 x = 0; x < 32; x ++){
 1140              		.loc 1 182 0 discriminator 3
 1141 0602 97F83630 		ldrb	r3, [r7, #54]	@ zero_extendqisi2
 1142 0606 0133     		adds	r3, r3, #1
 1143 0608 87F83630 		strb	r3, [r7, #54]
 1144              	.L41:
 182:printer.c     ****             for(uint8 x = 0; x < 32; x ++){
 1145              		.loc 1 182 0 is_stmt 0 discriminator 1
 1146 060c 97F83630 		ldrb	r3, [r7, #54]	@ zero_extendqisi2
 1147 0610 1F2B     		cmp	r3, #31
 1148 0612 EFD9     		bls	.L42
 1149              	.L38:
 1150              	.LBE18:
 184:printer.c     ****         	}            
 185:printer.c     ****         }
 186:printer.c     ****         PRINTER_A_PutChar(LINE_FEED);
 1151              		.loc 1 186 0 is_stmt 1
 1152 0614 114B     		ldr	r3, .L143+4
 1153 0616 1B78     		ldrb	r3, [r3]	@ zero_extendqisi2
 1154 0618 1846     		mov	r0, r3
 1155 061a FFF7FEFF 		bl	PRINTER_A_PutChar
 1156              	.LBB19:
 187:printer.c     ****         for(uint8 x = 0; x < 13; x ++){
 1157              		.loc 1 187 0
 1158 061e 0023     		movs	r3, #0
 1159 0620 87F83530 		strb	r3, [r7, #53]
 1160 0624 0BE0     		b	.L43
 1161              	.L44:
ARM GAS  C:\Users\Diego\AppData\Local\Temp\ccz6pbcU.s 			page 28


 188:printer.c     ****     		PRINTER_A_PutChar(msn_venta[x]);
 1162              		.loc 1 188 0 discriminator 3
 1163 0626 97F83530 		ldrb	r3, [r7, #53]	@ zero_extendqisi2
 1164 062a 154A     		ldr	r2, .L143+40
 1165 062c D35C     		ldrb	r3, [r2, r3]	@ zero_extendqisi2
 1166 062e 1846     		mov	r0, r3
 1167 0630 FFF7FEFF 		bl	PRINTER_A_PutChar
 187:printer.c     ****         for(uint8 x = 0; x < 13; x ++){
 1168              		.loc 1 187 0 discriminator 3
 1169 0634 97F83530 		ldrb	r3, [r7, #53]	@ zero_extendqisi2
 1170 0638 0133     		adds	r3, r3, #1
 1171 063a 87F83530 		strb	r3, [r7, #53]
 1172              	.L43:
 187:printer.c     ****         for(uint8 x = 0; x < 13; x ++){
 1173              		.loc 1 187 0 is_stmt 0 discriminator 1
 1174 063e 97F83530 		ldrb	r3, [r7, #53]	@ zero_extendqisi2
 1175 0642 0C2B     		cmp	r3, #12
 1176 0644 EFD9     		bls	.L44
 1177              	.LBE19:
 189:printer.c     ****     	}
 190:printer.c     ****         if(side.a.Copy == 1){
 1178              		.loc 1 190 0 is_stmt 1
 1179 0646 0C4B     		ldr	r3, .L143+32
 1180 0648 93F83431 		ldrb	r3, [r3, #308]	@ zero_extendqisi2
 1181 064c 012B     		cmp	r3, #1
 1182 064e 2AD1     		bne	.L45
 1183              	.LBB20:
 191:printer.c     ****            for(uint8 x = 5; x > 0; x --){
 1184              		.loc 1 191 0
 1185 0650 0523     		movs	r3, #5
 1186 0652 87F83430 		strb	r3, [r7, #52]
 1187 0656 21E0     		b	.L46
 1188              	.L144:
 1189              		.align	2
 1190              	.L143:
 1191 0658 00000000 		.word	msn_EDS4
 1192 065c 00000000 		.word	LINE_FEED
 1193 0660 00000000 		.word	msn_EDS5
 1194 0664 00000000 		.word	msn_EDS6
 1195 0668 00000000 		.word	SEPARATOR
 1196 066c 00000000 		.word	msn_fecha
 1197 0670 00000000 		.word	touch1
 1198 0674 00000000 		.word	msn_hora
 1199 0678 00000000 		.word	side
 1200 067c 00000000 		.word	msn_copy
 1201 0680 00000000 		.word	msn_venta
 1202              	.L47:
 192:printer.c     ****         		PRINTER_A_PutChar(sale_number_copy[x]);
 1203              		.loc 1 192 0 discriminator 3
 1204 0684 97F83430 		ldrb	r3, [r7, #52]	@ zero_extendqisi2
 1205 0688 CA4A     		ldr	r2, .L145
 1206 068a D35C     		ldrb	r3, [r2, r3]	@ zero_extendqisi2
 1207 068c 1846     		mov	r0, r3
 1208 068e FFF7FEFF 		bl	PRINTER_A_PutChar
 191:printer.c     ****            for(uint8 x = 5; x > 0; x --){
 1209              		.loc 1 191 0 discriminator 3
 1210 0692 97F83430 		ldrb	r3, [r7, #52]	@ zero_extendqisi2
ARM GAS  C:\Users\Diego\AppData\Local\Temp\ccz6pbcU.s 			page 29


 1211 0696 013B     		subs	r3, r3, #1
 1212 0698 87F83430 		strb	r3, [r7, #52]
 1213              	.L46:
 191:printer.c     ****            for(uint8 x = 5; x > 0; x --){
 1214              		.loc 1 191 0 is_stmt 0 discriminator 1
 1215 069c 97F83430 		ldrb	r3, [r7, #52]	@ zero_extendqisi2
 1216 06a0 002B     		cmp	r3, #0
 1217 06a2 EFD1     		bne	.L47
 1218 06a4 19E0     		b	.L48
 1219              	.L45:
 1220              	.LBE20:
 1221              	.LBB21:
 193:printer.c     ****         	} 
 194:printer.c     ****         }else{
 195:printer.c     ****             for(uint8 x = 5; x > 0; x --){
 1222              		.loc 1 195 0 is_stmt 1
 1223 06a6 0523     		movs	r3, #5
 1224 06a8 87F83330 		strb	r3, [r7, #51]
 1225 06ac 0BE0     		b	.L49
 1226              	.L50:
 196:printer.c     ****         		PRINTER_A_PutChar(sale_number[x]);
 1227              		.loc 1 196 0 discriminator 3
 1228 06ae 97F83330 		ldrb	r3, [r7, #51]	@ zero_extendqisi2
 1229 06b2 C14A     		ldr	r2, .L145+4
 1230 06b4 D35C     		ldrb	r3, [r2, r3]	@ zero_extendqisi2
 1231 06b6 1846     		mov	r0, r3
 1232 06b8 FFF7FEFF 		bl	PRINTER_A_PutChar
 195:printer.c     ****         		PRINTER_A_PutChar(sale_number[x]);
 1233              		.loc 1 195 0 discriminator 3
 1234 06bc 97F83330 		ldrb	r3, [r7, #51]	@ zero_extendqisi2
 1235 06c0 013B     		subs	r3, r3, #1
 1236 06c2 87F83330 		strb	r3, [r7, #51]
 1237              	.L49:
 195:printer.c     ****         		PRINTER_A_PutChar(sale_number[x]);
 1238              		.loc 1 195 0 is_stmt 0 discriminator 1
 1239 06c6 97F83330 		ldrb	r3, [r7, #51]	@ zero_extendqisi2
 1240 06ca 002B     		cmp	r3, #0
 1241 06cc EFD1     		bne	.L50
 1242              	.LBE21:
 197:printer.c     ****         	}
 198:printer.c     ****             int_salenumber++;
 1243              		.loc 1 198 0 is_stmt 1
 1244 06ce BB4B     		ldr	r3, .L145+8
 1245 06d0 1B78     		ldrb	r3, [r3]	@ zero_extendqisi2
 1246 06d2 0133     		adds	r3, r3, #1
 1247 06d4 DAB2     		uxtb	r2, r3
 1248 06d6 B94B     		ldr	r3, .L145+8
 1249 06d8 1A70     		strb	r2, [r3]
 1250              	.L48:
 199:printer.c     ****         }
 200:printer.c     ****         PRINTER_A_PutChar(LINE_FEED);
 1251              		.loc 1 200 0
 1252 06da B94B     		ldr	r3, .L145+12
 1253 06dc 1B78     		ldrb	r3, [r3]	@ zero_extendqisi2
 1254 06de 1846     		mov	r0, r3
 1255 06e0 FFF7FEFF 		bl	PRINTER_A_PutChar
 1256              	.LBB22:
ARM GAS  C:\Users\Diego\AppData\Local\Temp\ccz6pbcU.s 			page 30


 201:printer.c     ****     	for(uint8 x = 0; x < 13; x ++){
 1257              		.loc 1 201 0
 1258 06e4 0023     		movs	r3, #0
 1259 06e6 87F83230 		strb	r3, [r7, #50]
 1260 06ea 0BE0     		b	.L51
 1261              	.L52:
 202:printer.c     ****     		PRINTER_A_PutChar(msn_placa[x]);
 1262              		.loc 1 202 0 discriminator 3
 1263 06ec 97F83230 		ldrb	r3, [r7, #50]	@ zero_extendqisi2
 1264 06f0 B44A     		ldr	r2, .L145+16
 1265 06f2 D35C     		ldrb	r3, [r2, r3]	@ zero_extendqisi2
 1266 06f4 1846     		mov	r0, r3
 1267 06f6 FFF7FEFF 		bl	PRINTER_A_PutChar
 201:printer.c     ****     	for(uint8 x = 0; x < 13; x ++){
 1268              		.loc 1 201 0 discriminator 3
 1269 06fa 97F83230 		ldrb	r3, [r7, #50]	@ zero_extendqisi2
 1270 06fe 0133     		adds	r3, r3, #1
 1271 0700 87F83230 		strb	r3, [r7, #50]
 1272              	.L51:
 201:printer.c     ****     	for(uint8 x = 0; x < 13; x ++){
 1273              		.loc 1 201 0 is_stmt 0 discriminator 1
 1274 0704 97F83230 		ldrb	r3, [r7, #50]	@ zero_extendqisi2
 1275 0708 0C2B     		cmp	r3, #12
 1276 070a EFD9     		bls	.L52
 1277              	.LBE22:
 1278              	.LBB23:
 203:printer.c     ****     	}
 204:printer.c     **** 		for(uint8 x = 0; x < 8; x ++){
 1279              		.loc 1 204 0 is_stmt 1
 1280 070c 0023     		movs	r3, #0
 1281 070e 87F83130 		strb	r3, [r7, #49]
 1282 0712 0DE0     		b	.L53
 1283              	.L54:
 205:printer.c     **** 			PRINTER_A_PutChar(side.a.msn_plate[x]);
 1284              		.loc 1 205 0 discriminator 3
 1285 0714 97F83130 		ldrb	r3, [r7, #49]	@ zero_extendqisi2
 1286 0718 AB4A     		ldr	r2, .L145+20
 1287 071a 1344     		add	r3, r3, r2
 1288 071c 93F82331 		ldrb	r3, [r3, #291]	@ zero_extendqisi2
 1289 0720 1846     		mov	r0, r3
 1290 0722 FFF7FEFF 		bl	PRINTER_A_PutChar
 204:printer.c     **** 			PRINTER_A_PutChar(side.a.msn_plate[x]);
 1291              		.loc 1 204 0 discriminator 3
 1292 0726 97F83130 		ldrb	r3, [r7, #49]	@ zero_extendqisi2
 1293 072a 0133     		adds	r3, r3, #1
 1294 072c 87F83130 		strb	r3, [r7, #49]
 1295              	.L53:
 204:printer.c     **** 			PRINTER_A_PutChar(side.a.msn_plate[x]);
 1296              		.loc 1 204 0 is_stmt 0 discriminator 1
 1297 0730 97F83130 		ldrb	r3, [r7, #49]	@ zero_extendqisi2
 1298 0734 072B     		cmp	r3, #7
 1299 0736 EDD9     		bls	.L54
 1300              	.LBE23:
 206:printer.c     **** 		}  
 207:printer.c     ****         PRINTER_A_PutChar(LINE_FEED);
 1301              		.loc 1 207 0 is_stmt 1
 1302 0738 A14B     		ldr	r3, .L145+12
ARM GAS  C:\Users\Diego\AppData\Local\Temp\ccz6pbcU.s 			page 31


 1303 073a 1B78     		ldrb	r3, [r3]	@ zero_extendqisi2
 1304 073c 1846     		mov	r0, r3
 1305 073e FFF7FEFF 		bl	PRINTER_A_PutChar
 1306              	.LBB24:
 208:printer.c     ****         for(uint8 x = 0; x < 13; x ++){
 1307              		.loc 1 208 0
 1308 0742 0023     		movs	r3, #0
 1309 0744 87F83030 		strb	r3, [r7, #48]
 1310 0748 0BE0     		b	.L55
 1311              	.L56:
 209:printer.c     **** 			PRINTER_A_PutChar(PRN_MILLEAGE[x]);
 1312              		.loc 1 209 0 discriminator 3
 1313 074a 97F83030 		ldrb	r3, [r7, #48]	@ zero_extendqisi2
 1314 074e 9F4A     		ldr	r2, .L145+24
 1315 0750 D35C     		ldrb	r3, [r2, r3]	@ zero_extendqisi2
 1316 0752 1846     		mov	r0, r3
 1317 0754 FFF7FEFF 		bl	PRINTER_A_PutChar
 208:printer.c     ****         for(uint8 x = 0; x < 13; x ++){
 1318              		.loc 1 208 0 discriminator 3
 1319 0758 97F83030 		ldrb	r3, [r7, #48]	@ zero_extendqisi2
 1320 075c 0133     		adds	r3, r3, #1
 1321 075e 87F83030 		strb	r3, [r7, #48]
 1322              	.L55:
 208:printer.c     ****         for(uint8 x = 0; x < 13; x ++){
 1323              		.loc 1 208 0 is_stmt 0 discriminator 1
 1324 0762 97F83030 		ldrb	r3, [r7, #48]	@ zero_extendqisi2
 1325 0766 0C2B     		cmp	r3, #12
 1326 0768 EFD9     		bls	.L56
 1327              	.LBE24:
 1328              	.LBB25:
 210:printer.c     **** 		}          
 211:printer.c     ****         for(uint8 x = 0; x <6; x ++){
 1329              		.loc 1 211 0 is_stmt 1
 1330 076a 0023     		movs	r3, #0
 1331 076c 87F82F30 		strb	r3, [r7, #47]
 1332 0770 0DE0     		b	.L57
 1333              	.L58:
 212:printer.c     **** 			PRINTER_A_PutChar(side.a.km[x]);
 1334              		.loc 1 212 0 discriminator 3
 1335 0772 97F82F30 		ldrb	r3, [r7, #47]	@ zero_extendqisi2
 1336 0776 944A     		ldr	r2, .L145+20
 1337 0778 1344     		add	r3, r3, r2
 1338 077a 93F82D31 		ldrb	r3, [r3, #301]	@ zero_extendqisi2
 1339 077e 1846     		mov	r0, r3
 1340 0780 FFF7FEFF 		bl	PRINTER_A_PutChar
 211:printer.c     **** 			PRINTER_A_PutChar(side.a.km[x]);
 1341              		.loc 1 211 0 discriminator 3
 1342 0784 97F82F30 		ldrb	r3, [r7, #47]	@ zero_extendqisi2
 1343 0788 0133     		adds	r3, r3, #1
 1344 078a 87F82F30 		strb	r3, [r7, #47]
 1345              	.L57:
 211:printer.c     **** 			PRINTER_A_PutChar(side.a.km[x]);
 1346              		.loc 1 211 0 is_stmt 0 discriminator 1
 1347 078e 97F82F30 		ldrb	r3, [r7, #47]	@ zero_extendqisi2
 1348 0792 052B     		cmp	r3, #5
 1349 0794 EDD9     		bls	.L58
 1350              	.LBE25:
ARM GAS  C:\Users\Diego\AppData\Local\Temp\ccz6pbcU.s 			page 32


 213:printer.c     **** 		}  
 214:printer.c     ****         PRINTER_A_PutChar(LINE_FEED);
 1351              		.loc 1 214 0 is_stmt 1
 1352 0796 8A4B     		ldr	r3, .L145+12
 1353 0798 1B78     		ldrb	r3, [r3]	@ zero_extendqisi2
 1354 079a 1846     		mov	r0, r3
 1355 079c FFF7FEFF 		bl	PRINTER_A_PutChar
 1356              	.LBB26:
 215:printer.c     **** 		for(uint8 x = 0; x < 13; x ++){
 1357              		.loc 1 215 0
 1358 07a0 0023     		movs	r3, #0
 1359 07a2 87F82E30 		strb	r3, [r7, #46]
 1360 07a6 0BE0     		b	.L59
 1361              	.L60:
 216:printer.c     **** 			PRINTER_A_PutChar(msn_pos[x]);
 1362              		.loc 1 216 0 discriminator 3
 1363 07a8 97F82E30 		ldrb	r3, [r7, #46]	@ zero_extendqisi2
 1364 07ac 884A     		ldr	r2, .L145+28
 1365 07ae D35C     		ldrb	r3, [r2, r3]	@ zero_extendqisi2
 1366 07b0 1846     		mov	r0, r3
 1367 07b2 FFF7FEFF 		bl	PRINTER_A_PutChar
 215:printer.c     **** 		for(uint8 x = 0; x < 13; x ++){
 1368              		.loc 1 215 0 discriminator 3
 1369 07b6 97F82E30 		ldrb	r3, [r7, #46]	@ zero_extendqisi2
 1370 07ba 0133     		adds	r3, r3, #1
 1371 07bc 87F82E30 		strb	r3, [r7, #46]
 1372              	.L59:
 215:printer.c     **** 		for(uint8 x = 0; x < 13; x ++){
 1373              		.loc 1 215 0 is_stmt 0 discriminator 1
 1374 07c0 97F82E30 		ldrb	r3, [r7, #46]	@ zero_extendqisi2
 1375 07c4 0C2B     		cmp	r3, #12
 1376 07c6 EFD9     		bls	.L60
 1377              	.LBE26:
 217:printer.c     **** 		}
 218:printer.c     **** 		PRINTER_A_PutChar((side.a.dir)+ 0x31);
 1378              		.loc 1 218 0 is_stmt 1
 1379 07c8 7F4B     		ldr	r3, .L145+20
 1380 07ca 1B78     		ldrb	r3, [r3]	@ zero_extendqisi2
 1381 07cc 3133     		adds	r3, r3, #49
 1382 07ce DBB2     		uxtb	r3, r3
 1383 07d0 1846     		mov	r0, r3
 1384 07d2 FFF7FEFF 		bl	PRINTER_A_PutChar
 219:printer.c     **** 		PRINTER_A_PutChar(LINE_FEED);
 1385              		.loc 1 219 0
 1386 07d6 7A4B     		ldr	r3, .L145+12
 1387 07d8 1B78     		ldrb	r3, [r3]	@ zero_extendqisi2
 1388 07da 1846     		mov	r0, r3
 1389 07dc FFF7FEFF 		bl	PRINTER_A_PutChar
 1390              	.LBB27:
 220:printer.c     **** 		for(uint8 x = 0; x < 13; x ++){
 1391              		.loc 1 220 0
 1392 07e0 0023     		movs	r3, #0
 1393 07e2 87F82D30 		strb	r3, [r7, #45]
 1394 07e6 0BE0     		b	.L61
 1395              	.L62:
 221:printer.c     **** 			PRINTER_A_PutChar(msn_product[x]);
 1396              		.loc 1 221 0 discriminator 3
ARM GAS  C:\Users\Diego\AppData\Local\Temp\ccz6pbcU.s 			page 33


 1397 07e8 97F82D30 		ldrb	r3, [r7, #45]	@ zero_extendqisi2
 1398 07ec 794A     		ldr	r2, .L145+32
 1399 07ee D35C     		ldrb	r3, [r2, r3]	@ zero_extendqisi2
 1400 07f0 1846     		mov	r0, r3
 1401 07f2 FFF7FEFF 		bl	PRINTER_A_PutChar
 220:printer.c     **** 		for(uint8 x = 0; x < 13; x ++){
 1402              		.loc 1 220 0 discriminator 3
 1403 07f6 97F82D30 		ldrb	r3, [r7, #45]	@ zero_extendqisi2
 1404 07fa 0133     		adds	r3, r3, #1
 1405 07fc 87F82D30 		strb	r3, [r7, #45]
 1406              	.L61:
 220:printer.c     **** 		for(uint8 x = 0; x < 13; x ++){
 1407              		.loc 1 220 0 is_stmt 0 discriminator 1
 1408 0800 97F82D30 		ldrb	r3, [r7, #45]	@ zero_extendqisi2
 1409 0804 0C2B     		cmp	r3, #12
 1410 0806 EFD9     		bls	.L62
 1411              	.LBE27:
 222:printer.c     **** 		}
 223:printer.c     ****         if(side.a.Nozzle == 0x01){
 1412              		.loc 1 223 0 is_stmt 1
 1413 0808 6F4B     		ldr	r3, .L145+20
 1414 080a 93F82C31 		ldrb	r3, [r3, #300]	@ zero_extendqisi2
 1415 080e 012B     		cmp	r3, #1
 1416 0810 14D1     		bne	.L63
 1417              	.LBB28:
 224:printer.c     ****     		for(uint8 x = 0; x < 9; x ++){
 1418              		.loc 1 224 0
 1419 0812 0023     		movs	r3, #0
 1420 0814 87F82C30 		strb	r3, [r7, #44]
 1421 0818 0BE0     		b	.L64
 1422              	.L65:
 225:printer.c     ****     			PRINTER_A_PutChar(msn_gasoline[x]);
 1423              		.loc 1 225 0 discriminator 3
 1424 081a 97F82C30 		ldrb	r3, [r7, #44]	@ zero_extendqisi2
 1425 081e 6E4A     		ldr	r2, .L145+36
 1426 0820 D35C     		ldrb	r3, [r2, r3]	@ zero_extendqisi2
 1427 0822 1846     		mov	r0, r3
 1428 0824 FFF7FEFF 		bl	PRINTER_A_PutChar
 224:printer.c     ****     		for(uint8 x = 0; x < 9; x ++){
 1429              		.loc 1 224 0 discriminator 3
 1430 0828 97F82C30 		ldrb	r3, [r7, #44]	@ zero_extendqisi2
 1431 082c 0133     		adds	r3, r3, #1
 1432 082e 87F82C30 		strb	r3, [r7, #44]
 1433              	.L64:
 224:printer.c     ****     		for(uint8 x = 0; x < 9; x ++){
 1434              		.loc 1 224 0 is_stmt 0 discriminator 1
 1435 0832 97F82C30 		ldrb	r3, [r7, #44]	@ zero_extendqisi2
 1436 0836 082B     		cmp	r3, #8
 1437 0838 EFD9     		bls	.L65
 1438 083a 13E0     		b	.L66
 1439              	.L63:
 1440              	.LBE28:
 1441              	.LBB29:
 226:printer.c     ****     		}
 227:printer.c     ****         }else{
 228:printer.c     ****             for(uint8 x = 0; x < 9; x ++){
 1442              		.loc 1 228 0 is_stmt 1
ARM GAS  C:\Users\Diego\AppData\Local\Temp\ccz6pbcU.s 			page 34


 1443 083c 0023     		movs	r3, #0
 1444 083e 87F82B30 		strb	r3, [r7, #43]
 1445 0842 0BE0     		b	.L67
 1446              	.L68:
 229:printer.c     ****     			PRINTER_A_PutChar(msn_diesel[x]);
 1447              		.loc 1 229 0 discriminator 3
 1448 0844 97F82B30 		ldrb	r3, [r7, #43]	@ zero_extendqisi2
 1449 0848 644A     		ldr	r2, .L145+40
 1450 084a D35C     		ldrb	r3, [r2, r3]	@ zero_extendqisi2
 1451 084c 1846     		mov	r0, r3
 1452 084e FFF7FEFF 		bl	PRINTER_A_PutChar
 228:printer.c     ****     			PRINTER_A_PutChar(msn_diesel[x]);
 1453              		.loc 1 228 0 discriminator 3
 1454 0852 97F82B30 		ldrb	r3, [r7, #43]	@ zero_extendqisi2
 1455 0856 0133     		adds	r3, r3, #1
 1456 0858 87F82B30 		strb	r3, [r7, #43]
 1457              	.L67:
 228:printer.c     ****     			PRINTER_A_PutChar(msn_diesel[x]);
 1458              		.loc 1 228 0 is_stmt 0 discriminator 1
 1459 085c 97F82B30 		ldrb	r3, [r7, #43]	@ zero_extendqisi2
 1460 0860 082B     		cmp	r3, #8
 1461 0862 EFD9     		bls	.L68
 1462              	.L66:
 1463              	.LBE29:
 230:printer.c     ****     		}
 231:printer.c     ****         } 
 232:printer.c     ****         PRINTER_A_PutChar(LINE_FEED); 	
 1464              		.loc 1 232 0 is_stmt 1
 1465 0864 564B     		ldr	r3, .L145+12
 1466 0866 1B78     		ldrb	r3, [r3]	@ zero_extendqisi2
 1467 0868 1846     		mov	r0, r3
 1468 086a FFF7FEFF 		bl	PRINTER_A_PutChar
 1469              	.LBB30:
 233:printer.c     **** 		for(uint8 x = 0; x < 13; x ++){
 1470              		.loc 1 233 0
 1471 086e 0023     		movs	r3, #0
 1472 0870 87F82A30 		strb	r3, [r7, #42]
 1473 0874 0BE0     		b	.L69
 1474              	.L70:
 234:printer.c     **** 			PRINTER_A_PutChar(msn_ppu[x]);
 1475              		.loc 1 234 0 discriminator 3
 1476 0876 97F82A30 		ldrb	r3, [r7, #42]	@ zero_extendqisi2
 1477 087a 594A     		ldr	r2, .L145+44
 1478 087c D35C     		ldrb	r3, [r2, r3]	@ zero_extendqisi2
 1479 087e 1846     		mov	r0, r3
 1480 0880 FFF7FEFF 		bl	PRINTER_A_PutChar
 233:printer.c     **** 		for(uint8 x = 0; x < 13; x ++){
 1481              		.loc 1 233 0 discriminator 3
 1482 0884 97F82A30 		ldrb	r3, [r7, #42]	@ zero_extendqisi2
 1483 0888 0133     		adds	r3, r3, #1
 1484 088a 87F82A30 		strb	r3, [r7, #42]
 1485              	.L69:
 233:printer.c     **** 		for(uint8 x = 0; x < 13; x ++){
 1486              		.loc 1 233 0 is_stmt 0 discriminator 1
 1487 088e 97F82A30 		ldrb	r3, [r7, #42]	@ zero_extendqisi2
 1488 0892 0C2B     		cmp	r3, #12
 1489 0894 EFD9     		bls	.L70
ARM GAS  C:\Users\Diego\AppData\Local\Temp\ccz6pbcU.s 			page 35


 1490              	.LBE30:
 235:printer.c     **** 		}
 236:printer.c     **** 		PRINTER_A_PutChar(PRN_CURRENCY[0]);  
 1491              		.loc 1 236 0 is_stmt 1
 1492 0896 534B     		ldr	r3, .L145+48
 1493 0898 1B78     		ldrb	r3, [r3]	@ zero_extendqisi2
 1494 089a 1846     		mov	r0, r3
 1495 089c FFF7FEFF 		bl	PRINTER_A_PutChar
 237:printer.c     **** 		PRINTER_A_PutChar(' ');
 1496              		.loc 1 237 0
 1497 08a0 2020     		movs	r0, #32
 1498 08a2 FFF7FEFF 		bl	PRINTER_A_PutChar
 1499              	.LBB31:
 238:printer.c     **** 		for(uint8 x = 1; x < 6; x ++){
 1500              		.loc 1 238 0
 1501 08a6 0123     		movs	r3, #1
 1502 08a8 87F82930 		strb	r3, [r7, #41]
 1503 08ac 17E0     		b	.L71
 1504              	.L72:
 239:printer.c     **** 			PRINTER_A_PutChar(side.a.ProcessedPPU[side.a.Nozzle-1][x]);
 1505              		.loc 1 239 0 discriminator 3
 1506 08ae 464B     		ldr	r3, .L145+20
 1507 08b0 93F82C31 		ldrb	r3, [r3, #300]	@ zero_extendqisi2
 1508 08b4 5A1E     		subs	r2, r3, #1
 1509 08b6 97F82910 		ldrb	r1, [r7, #41]	@ zero_extendqisi2
 1510 08ba 4348     		ldr	r0, .L145+20
 1511 08bc 1346     		mov	r3, r2
 1512 08be 5B00     		lsls	r3, r3, #1
 1513 08c0 1344     		add	r3, r3, r2
 1514 08c2 5B00     		lsls	r3, r3, #1
 1515 08c4 0344     		add	r3, r3, r0
 1516 08c6 0B44     		add	r3, r3, r1
 1517 08c8 03F20B13 		addw	r3, r3, #267
 1518 08cc 1B78     		ldrb	r3, [r3]	@ zero_extendqisi2
 1519 08ce 1846     		mov	r0, r3
 1520 08d0 FFF7FEFF 		bl	PRINTER_A_PutChar
 238:printer.c     **** 		for(uint8 x = 1; x < 6; x ++){
 1521              		.loc 1 238 0 discriminator 3
 1522 08d4 97F82930 		ldrb	r3, [r7, #41]	@ zero_extendqisi2
 1523 08d8 0133     		adds	r3, r3, #1
 1524 08da 87F82930 		strb	r3, [r7, #41]
 1525              	.L71:
 238:printer.c     **** 		for(uint8 x = 1; x < 6; x ++){
 1526              		.loc 1 238 0 is_stmt 0 discriminator 1
 1527 08de 97F82930 		ldrb	r3, [r7, #41]	@ zero_extendqisi2
 1528 08e2 052B     		cmp	r3, #5
 1529 08e4 E3D9     		bls	.L72
 1530              	.LBE31:
 240:printer.c     **** 		}
 241:printer.c     ****         PRINTER_A_PutChar(LINE_FEED);
 1531              		.loc 1 241 0 is_stmt 1
 1532 08e6 364B     		ldr	r3, .L145+12
 1533 08e8 1B78     		ldrb	r3, [r3]	@ zero_extendqisi2
 1534 08ea 1846     		mov	r0, r3
 1535 08ec FFF7FEFF 		bl	PRINTER_A_PutChar
 1536              	.LBB32:
 242:printer.c     **** 		for(uint8 x = 0; x < 13; x ++){
ARM GAS  C:\Users\Diego\AppData\Local\Temp\ccz6pbcU.s 			page 36


 1537              		.loc 1 242 0
 1538 08f0 0023     		movs	r3, #0
 1539 08f2 87F82830 		strb	r3, [r7, #40]
 1540 08f6 0BE0     		b	.L73
 1541              	.L74:
 243:printer.c     **** 			PRINTER_A_PutChar(msn_vol[x]);
 1542              		.loc 1 243 0 discriminator 3
 1543 08f8 97F82830 		ldrb	r3, [r7, #40]	@ zero_extendqisi2
 1544 08fc 3A4A     		ldr	r2, .L145+52
 1545 08fe D35C     		ldrb	r3, [r2, r3]	@ zero_extendqisi2
 1546 0900 1846     		mov	r0, r3
 1547 0902 FFF7FEFF 		bl	PRINTER_A_PutChar
 242:printer.c     **** 		for(uint8 x = 0; x < 13; x ++){
 1548              		.loc 1 242 0 discriminator 3
 1549 0906 97F82830 		ldrb	r3, [r7, #40]	@ zero_extendqisi2
 1550 090a 0133     		adds	r3, r3, #1
 1551 090c 87F82830 		strb	r3, [r7, #40]
 1552              	.L73:
 242:printer.c     **** 		for(uint8 x = 0; x < 13; x ++){
 1553              		.loc 1 242 0 is_stmt 0 discriminator 1
 1554 0910 97F82830 		ldrb	r3, [r7, #40]	@ zero_extendqisi2
 1555 0914 0C2B     		cmp	r3, #12
 1556 0916 EFD9     		bls	.L74
 1557              	.LBE32:
 1558              	.LBB33:
 244:printer.c     **** 		}
 245:printer.c     **** 		for(uint8 x = 0; x < 8; x ++){
 1559              		.loc 1 245 0 is_stmt 1
 1560 0918 0023     		movs	r3, #0
 1561 091a 87F82730 		strb	r3, [r7, #39]
 1562 091e 18E0     		b	.L75
 1563              	.L77:
 246:printer.c     **** 			if((8-x) == DecVol)
 1564              		.loc 1 246 0
 1565 0920 97F82730 		ldrb	r3, [r7, #39]	@ zero_extendqisi2
 1566 0924 C3F10803 		rsb	r3, r3, #8
 1567 0928 304A     		ldr	r2, .L145+56
 1568 092a 1278     		ldrb	r2, [r2]	@ zero_extendqisi2
 1569 092c 9342     		cmp	r3, r2
 1570 092e 02D1     		bne	.L76
 247:printer.c     **** 				PRINTER_A_PutChar('.');
 1571              		.loc 1 247 0
 1572 0930 2E20     		movs	r0, #46
 1573 0932 FFF7FEFF 		bl	PRINTER_A_PutChar
 1574              	.L76:
 248:printer.c     **** 			PRINTER_A_PutChar(side.a.ProcessedvolumeSale[x]);        
 1575              		.loc 1 248 0 discriminator 2
 1576 0936 97F82730 		ldrb	r3, [r7, #39]	@ zero_extendqisi2
 1577 093a 234A     		ldr	r2, .L145+20
 1578 093c 1344     		add	r3, r3, r2
 1579 093e 93F80331 		ldrb	r3, [r3, #259]	@ zero_extendqisi2
 1580 0942 1846     		mov	r0, r3
 1581 0944 FFF7FEFF 		bl	PRINTER_A_PutChar
 245:printer.c     **** 			if((8-x) == DecVol)
 1582              		.loc 1 245 0 discriminator 2
 1583 0948 97F82730 		ldrb	r3, [r7, #39]	@ zero_extendqisi2
 1584 094c 0133     		adds	r3, r3, #1
ARM GAS  C:\Users\Diego\AppData\Local\Temp\ccz6pbcU.s 			page 37


 1585 094e 87F82730 		strb	r3, [r7, #39]
 1586              	.L75:
 245:printer.c     **** 			if((8-x) == DecVol)
 1587              		.loc 1 245 0 is_stmt 0 discriminator 1
 1588 0952 97F82730 		ldrb	r3, [r7, #39]	@ zero_extendqisi2
 1589 0956 072B     		cmp	r3, #7
 1590 0958 E2D9     		bls	.L77
 1591              	.LBE33:
 249:printer.c     **** 		}
 250:printer.c     **** 		PRINTER_A_PutChar(' ');
 1592              		.loc 1 250 0 is_stmt 1
 1593 095a 2020     		movs	r0, #32
 1594 095c FFF7FEFF 		bl	PRINTER_A_PutChar
 251:printer.c     **** 		PRINTER_A_PutChar(VolSimbol[0]);
 1595              		.loc 1 251 0
 1596 0960 234B     		ldr	r3, .L145+60
 1597 0962 1B78     		ldrb	r3, [r3]	@ zero_extendqisi2
 1598 0964 1846     		mov	r0, r3
 1599 0966 FFF7FEFF 		bl	PRINTER_A_PutChar
 252:printer.c     **** 		PRINTER_A_PutChar(LINE_FEED); 
 1600              		.loc 1 252 0
 1601 096a 154B     		ldr	r3, .L145+12
 1602 096c 1B78     		ldrb	r3, [r3]	@ zero_extendqisi2
 1603 096e 1846     		mov	r0, r3
 1604 0970 FFF7FEFF 		bl	PRINTER_A_PutChar
 1605              	.LBB34:
 253:printer.c     **** 		for(uint8 x = 0; x < 13; x ++){
 1606              		.loc 1 253 0
 1607 0974 0023     		movs	r3, #0
 1608 0976 87F82630 		strb	r3, [r7, #38]
 1609 097a 0BE0     		b	.L78
 1610              	.L79:
 254:printer.c     **** 			PRINTER_A_PutChar(msn_din[x]);
 1611              		.loc 1 254 0 discriminator 3
 1612 097c 97F82630 		ldrb	r3, [r7, #38]	@ zero_extendqisi2
 1613 0980 1C4A     		ldr	r2, .L145+64
 1614 0982 D35C     		ldrb	r3, [r2, r3]	@ zero_extendqisi2
 1615 0984 1846     		mov	r0, r3
 1616 0986 FFF7FEFF 		bl	PRINTER_A_PutChar
 253:printer.c     **** 		for(uint8 x = 0; x < 13; x ++){
 1617              		.loc 1 253 0 discriminator 3
 1618 098a 97F82630 		ldrb	r3, [r7, #38]	@ zero_extendqisi2
 1619 098e 0133     		adds	r3, r3, #1
 1620 0990 87F82630 		strb	r3, [r7, #38]
 1621              	.L78:
 253:printer.c     **** 		for(uint8 x = 0; x < 13; x ++){
 1622              		.loc 1 253 0 is_stmt 0 discriminator 1
 1623 0994 97F82630 		ldrb	r3, [r7, #38]	@ zero_extendqisi2
 1624 0998 0C2B     		cmp	r3, #12
 1625 099a EFD9     		bls	.L79
 1626              	.LBE34:
 255:printer.c     **** 		}     
 256:printer.c     **** 		PRINTER_A_PutChar(PRN_CURRENCY[0]);  
 1627              		.loc 1 256 0 is_stmt 1
 1628 099c 114B     		ldr	r3, .L145+48
 1629 099e 1B78     		ldrb	r3, [r3]	@ zero_extendqisi2
 1630 09a0 1846     		mov	r0, r3
ARM GAS  C:\Users\Diego\AppData\Local\Temp\ccz6pbcU.s 			page 38


 1631 09a2 FFF7FEFF 		bl	PRINTER_A_PutChar
 257:printer.c     **** 		PRINTER_A_PutChar(' ');
 1632              		.loc 1 257 0
 1633 09a6 2020     		movs	r0, #32
 1634 09a8 FFF7FEFF 		bl	PRINTER_A_PutChar
 1635              	.LBB35:
 258:printer.c     **** 		for(uint8 x = 0; x <7; x ++){
 1636              		.loc 1 258 0
 1637 09ac 0023     		movs	r3, #0
 1638 09ae 87F82530 		strb	r3, [r7, #37]
 1639 09b2 2FE0     		b	.L80
 1640              	.L146:
 1641              		.align	2
 1642              	.L145:
 1643 09b4 00000000 		.word	sale_number_copy
 1644 09b8 00000000 		.word	sale_number
 1645 09bc 00000000 		.word	int_salenumber
 1646 09c0 00000000 		.word	LINE_FEED
 1647 09c4 00000000 		.word	msn_placa
 1648 09c8 00000000 		.word	side
 1649 09cc 00000000 		.word	PRN_MILLEAGE
 1650 09d0 00000000 		.word	msn_pos
 1651 09d4 00000000 		.word	msn_product
 1652 09d8 00000000 		.word	msn_gasoline
 1653 09dc 00000000 		.word	msn_diesel
 1654 09e0 00000000 		.word	msn_ppu
 1655 09e4 00000000 		.word	PRN_CURRENCY
 1656 09e8 00000000 		.word	msn_vol
 1657 09ec 00000000 		.word	DecVol
 1658 09f0 00000000 		.word	VolSimbol
 1659 09f4 00000000 		.word	msn_din
 1660              	.L81:
 259:printer.c     **** 			PRINTER_A_PutChar(side.a.ProcessedmoneySale[x]);
 1661              		.loc 1 259 0 discriminator 3
 1662 09f8 97F82530 		ldrb	r3, [r7, #37]	@ zero_extendqisi2
 1663 09fc AD4A     		ldr	r2, .L147
 1664 09fe 1344     		add	r3, r3, r2
 1665 0a00 93F8FB30 		ldrb	r3, [r3, #251]	@ zero_extendqisi2
 1666 0a04 1846     		mov	r0, r3
 1667 0a06 FFF7FEFF 		bl	PRINTER_A_PutChar
 258:printer.c     **** 		for(uint8 x = 0; x <7; x ++){
 1668              		.loc 1 258 0 discriminator 3
 1669 0a0a 97F82530 		ldrb	r3, [r7, #37]	@ zero_extendqisi2
 1670 0a0e 0133     		adds	r3, r3, #1
 1671 0a10 87F82530 		strb	r3, [r7, #37]
 1672              	.L80:
 258:printer.c     **** 		for(uint8 x = 0; x <7; x ++){
 1673              		.loc 1 258 0 is_stmt 0 discriminator 1
 1674 0a14 97F82530 		ldrb	r3, [r7, #37]	@ zero_extendqisi2
 1675 0a18 062B     		cmp	r3, #6
 1676 0a1a EDD9     		bls	.L81
 1677              	.LBE35:
 260:printer.c     **** 		}		
 261:printer.c     **** 		PRINTER_A_PutChar(LINE_FEED);
 1678              		.loc 1 261 0 is_stmt 1
 1679 0a1c A64B     		ldr	r3, .L147+4
 1680 0a1e 1B78     		ldrb	r3, [r3]	@ zero_extendqisi2
ARM GAS  C:\Users\Diego\AppData\Local\Temp\ccz6pbcU.s 			page 39


 1681 0a20 1846     		mov	r0, r3
 1682 0a22 FFF7FEFF 		bl	PRINTER_A_PutChar
 262:printer.c     ****         side.a.Copy = 1;
 1683              		.loc 1 262 0
 1684 0a26 A34B     		ldr	r3, .L147
 1685 0a28 0122     		movs	r2, #1
 1686 0a2a 83F83421 		strb	r2, [r3, #308]
 1687              	.L37:
 263:printer.c     **** 	}	
 264:printer.c     **** 	if(address == side.b.dir){
 1688              		.loc 1 264 0
 1689 0a2e A14B     		ldr	r3, .L147
 1690 0a30 93F83531 		ldrb	r3, [r3, #309]	@ zero_extendqisi2
 1691 0a34 FA79     		ldrb	r2, [r7, #7]	@ zero_extendqisi2
 1692 0a36 9A42     		cmp	r2, r3
 1693 0a38 40F0DF81 		bne	.L82
 265:printer.c     **** 		if(side.b.Copy == 1){
 1694              		.loc 1 265 0
 1695 0a3c 9D4B     		ldr	r3, .L147
 1696 0a3e 93F86932 		ldrb	r3, [r3, #617]	@ zero_extendqisi2
 1697 0a42 012B     		cmp	r3, #1
 1698 0a44 2CD1     		bne	.L83
 1699              	.LBB36:
 266:printer.c     ****             for(uint8 x = 0; x < 32; x ++){
 1700              		.loc 1 266 0
 1701 0a46 0023     		movs	r3, #0
 1702 0a48 87F82430 		strb	r3, [r7, #36]
 1703 0a4c 0BE0     		b	.L84
 1704              	.L85:
 267:printer.c     ****         		PRINTER_A_PutChar(msn_copy[x]);
 1705              		.loc 1 267 0 discriminator 3
 1706 0a4e 97F82430 		ldrb	r3, [r7, #36]	@ zero_extendqisi2
 1707 0a52 9A4A     		ldr	r2, .L147+8
 1708 0a54 D35C     		ldrb	r3, [r2, r3]	@ zero_extendqisi2
 1709 0a56 1846     		mov	r0, r3
 1710 0a58 FFF7FEFF 		bl	PRINTER_A_PutChar
 266:printer.c     ****             for(uint8 x = 0; x < 32; x ++){
 1711              		.loc 1 266 0 discriminator 3
 1712 0a5c 97F82430 		ldrb	r3, [r7, #36]	@ zero_extendqisi2
 1713 0a60 0133     		adds	r3, r3, #1
 1714 0a62 87F82430 		strb	r3, [r7, #36]
 1715              	.L84:
 266:printer.c     ****             for(uint8 x = 0; x < 32; x ++){
 1716              		.loc 1 266 0 is_stmt 0 discriminator 1
 1717 0a66 97F82430 		ldrb	r3, [r7, #36]	@ zero_extendqisi2
 1718 0a6a 1F2B     		cmp	r3, #31
 1719 0a6c EFD9     		bls	.L85
 1720              	.LBE36:
 268:printer.c     ****         	}
 269:printer.c     ****             PRINTER_A_PutChar(LINE_FEED);
 1721              		.loc 1 269 0 is_stmt 1
 1722 0a6e 924B     		ldr	r3, .L147+4
 1723 0a70 1B78     		ldrb	r3, [r3]	@ zero_extendqisi2
 1724 0a72 1846     		mov	r0, r3
 1725 0a74 FFF7FEFF 		bl	PRINTER_A_PutChar
 1726              	.LBB37:
 270:printer.c     ****             for(uint8 x = 0; x < 32; x ++){
ARM GAS  C:\Users\Diego\AppData\Local\Temp\ccz6pbcU.s 			page 40


 1727              		.loc 1 270 0
 1728 0a78 0023     		movs	r3, #0
 1729 0a7a 87F82330 		strb	r3, [r7, #35]
 1730 0a7e 0BE0     		b	.L86
 1731              	.L87:
 271:printer.c     ****         		PRINTER_A_PutChar(SEPARATOR[x]);
 1732              		.loc 1 271 0 discriminator 3
 1733 0a80 97F82330 		ldrb	r3, [r7, #35]	@ zero_extendqisi2
 1734 0a84 8E4A     		ldr	r2, .L147+12
 1735 0a86 D35C     		ldrb	r3, [r2, r3]	@ zero_extendqisi2
 1736 0a88 1846     		mov	r0, r3
 1737 0a8a FFF7FEFF 		bl	PRINTER_A_PutChar
 270:printer.c     ****             for(uint8 x = 0; x < 32; x ++){
 1738              		.loc 1 270 0 discriminator 3
 1739 0a8e 97F82330 		ldrb	r3, [r7, #35]	@ zero_extendqisi2
 1740 0a92 0133     		adds	r3, r3, #1
 1741 0a94 87F82330 		strb	r3, [r7, #35]
 1742              	.L86:
 270:printer.c     ****             for(uint8 x = 0; x < 32; x ++){
 1743              		.loc 1 270 0 is_stmt 0 discriminator 1
 1744 0a98 97F82330 		ldrb	r3, [r7, #35]	@ zero_extendqisi2
 1745 0a9c 1F2B     		cmp	r3, #31
 1746 0a9e EFD9     		bls	.L87
 1747              	.L83:
 1748              	.LBE37:
 272:printer.c     ****         	}            
 273:printer.c     ****         }    
 274:printer.c     ****         PRINTER_A_PutChar(LINE_FEED);
 1749              		.loc 1 274 0 is_stmt 1
 1750 0aa0 854B     		ldr	r3, .L147+4
 1751 0aa2 1B78     		ldrb	r3, [r3]	@ zero_extendqisi2
 1752 0aa4 1846     		mov	r0, r3
 1753 0aa6 FFF7FEFF 		bl	PRINTER_A_PutChar
 1754              	.LBB38:
 275:printer.c     ****         for(uint8 x = 0; x < 13; x ++){
 1755              		.loc 1 275 0
 1756 0aaa 0023     		movs	r3, #0
 1757 0aac 87F82230 		strb	r3, [r7, #34]
 1758 0ab0 0BE0     		b	.L88
 1759              	.L89:
 276:printer.c     ****     		PRINTER_A_PutChar(msn_venta[x]);
 1760              		.loc 1 276 0 discriminator 3
 1761 0ab2 97F82230 		ldrb	r3, [r7, #34]	@ zero_extendqisi2
 1762 0ab6 834A     		ldr	r2, .L147+16
 1763 0ab8 D35C     		ldrb	r3, [r2, r3]	@ zero_extendqisi2
 1764 0aba 1846     		mov	r0, r3
 1765 0abc FFF7FEFF 		bl	PRINTER_A_PutChar
 275:printer.c     ****         for(uint8 x = 0; x < 13; x ++){
 1766              		.loc 1 275 0 discriminator 3
 1767 0ac0 97F82230 		ldrb	r3, [r7, #34]	@ zero_extendqisi2
 1768 0ac4 0133     		adds	r3, r3, #1
 1769 0ac6 87F82230 		strb	r3, [r7, #34]
 1770              	.L88:
 275:printer.c     ****         for(uint8 x = 0; x < 13; x ++){
 1771              		.loc 1 275 0 is_stmt 0 discriminator 1
 1772 0aca 97F82230 		ldrb	r3, [r7, #34]	@ zero_extendqisi2
 1773 0ace 0C2B     		cmp	r3, #12
ARM GAS  C:\Users\Diego\AppData\Local\Temp\ccz6pbcU.s 			page 41


 1774 0ad0 EFD9     		bls	.L89
 1775              	.LBE38:
 277:printer.c     ****     	}
 278:printer.c     ****         if(side.b.Copy == 1){
 1776              		.loc 1 278 0 is_stmt 1
 1777 0ad2 784B     		ldr	r3, .L147
 1778 0ad4 93F86932 		ldrb	r3, [r3, #617]	@ zero_extendqisi2
 1779 0ad8 012B     		cmp	r3, #1
 1780 0ada 14D1     		bne	.L90
 1781              	.LBB39:
 279:printer.c     ****            for(uint8 x = 5; x > 0; x --){
 1782              		.loc 1 279 0
 1783 0adc 0523     		movs	r3, #5
 1784 0ade 87F82130 		strb	r3, [r7, #33]
 1785 0ae2 0BE0     		b	.L91
 1786              	.L92:
 280:printer.c     ****         		PRINTER_A_PutChar(sale_number_copy[x]);
 1787              		.loc 1 280 0 discriminator 3
 1788 0ae4 97F82130 		ldrb	r3, [r7, #33]	@ zero_extendqisi2
 1789 0ae8 774A     		ldr	r2, .L147+20
 1790 0aea D35C     		ldrb	r3, [r2, r3]	@ zero_extendqisi2
 1791 0aec 1846     		mov	r0, r3
 1792 0aee FFF7FEFF 		bl	PRINTER_A_PutChar
 279:printer.c     ****            for(uint8 x = 5; x > 0; x --){
 1793              		.loc 1 279 0 discriminator 3
 1794 0af2 97F82130 		ldrb	r3, [r7, #33]	@ zero_extendqisi2
 1795 0af6 013B     		subs	r3, r3, #1
 1796 0af8 87F82130 		strb	r3, [r7, #33]
 1797              	.L91:
 279:printer.c     ****            for(uint8 x = 5; x > 0; x --){
 1798              		.loc 1 279 0 is_stmt 0 discriminator 1
 1799 0afc 97F82130 		ldrb	r3, [r7, #33]	@ zero_extendqisi2
 1800 0b00 002B     		cmp	r3, #0
 1801 0b02 EFD1     		bne	.L92
 1802 0b04 19E0     		b	.L93
 1803              	.L90:
 1804              	.LBE39:
 1805              	.LBB40:
 281:printer.c     ****         	} 
 282:printer.c     ****         }else{
 283:printer.c     ****             for(uint8 x = 5; x > 0; x --){
 1806              		.loc 1 283 0 is_stmt 1
 1807 0b06 0523     		movs	r3, #5
 1808 0b08 87F82030 		strb	r3, [r7, #32]
 1809 0b0c 0BE0     		b	.L94
 1810              	.L95:
 284:printer.c     ****         		PRINTER_A_PutChar(sale_number[x]);
 1811              		.loc 1 284 0 discriminator 3
 1812 0b0e 97F82030 		ldrb	r3, [r7, #32]	@ zero_extendqisi2
 1813 0b12 6E4A     		ldr	r2, .L147+24
 1814 0b14 D35C     		ldrb	r3, [r2, r3]	@ zero_extendqisi2
 1815 0b16 1846     		mov	r0, r3
 1816 0b18 FFF7FEFF 		bl	PRINTER_A_PutChar
 283:printer.c     ****         		PRINTER_A_PutChar(sale_number[x]);
 1817              		.loc 1 283 0 discriminator 3
 1818 0b1c 97F82030 		ldrb	r3, [r7, #32]	@ zero_extendqisi2
 1819 0b20 013B     		subs	r3, r3, #1
ARM GAS  C:\Users\Diego\AppData\Local\Temp\ccz6pbcU.s 			page 42


 1820 0b22 87F82030 		strb	r3, [r7, #32]
 1821              	.L94:
 283:printer.c     ****         		PRINTER_A_PutChar(sale_number[x]);
 1822              		.loc 1 283 0 is_stmt 0 discriminator 1
 1823 0b26 97F82030 		ldrb	r3, [r7, #32]	@ zero_extendqisi2
 1824 0b2a 002B     		cmp	r3, #0
 1825 0b2c EFD1     		bne	.L95
 1826              	.LBE40:
 285:printer.c     ****         	}
 286:printer.c     ****             int_salenumber++;
 1827              		.loc 1 286 0 is_stmt 1
 1828 0b2e 684B     		ldr	r3, .L147+28
 1829 0b30 1B78     		ldrb	r3, [r3]	@ zero_extendqisi2
 1830 0b32 0133     		adds	r3, r3, #1
 1831 0b34 DAB2     		uxtb	r2, r3
 1832 0b36 664B     		ldr	r3, .L147+28
 1833 0b38 1A70     		strb	r2, [r3]
 1834              	.L93:
 287:printer.c     ****         }
 288:printer.c     ****         PRINTER_A_PutChar(LINE_FEED);
 1835              		.loc 1 288 0
 1836 0b3a 5F4B     		ldr	r3, .L147+4
 1837 0b3c 1B78     		ldrb	r3, [r3]	@ zero_extendqisi2
 1838 0b3e 1846     		mov	r0, r3
 1839 0b40 FFF7FEFF 		bl	PRINTER_A_PutChar
 1840              	.LBB41:
 289:printer.c     ****     	for(uint8 x = 0; x < 13; x ++){
 1841              		.loc 1 289 0
 1842 0b44 0023     		movs	r3, #0
 1843 0b46 FB77     		strb	r3, [r7, #31]
 1844 0b48 08E0     		b	.L96
 1845              	.L97:
 290:printer.c     ****     		PRINTER_A_PutChar(msn_placa[x]);
 1846              		.loc 1 290 0 discriminator 3
 1847 0b4a FB7F     		ldrb	r3, [r7, #31]	@ zero_extendqisi2
 1848 0b4c 614A     		ldr	r2, .L147+32
 1849 0b4e D35C     		ldrb	r3, [r2, r3]	@ zero_extendqisi2
 1850 0b50 1846     		mov	r0, r3
 1851 0b52 FFF7FEFF 		bl	PRINTER_A_PutChar
 289:printer.c     ****     	for(uint8 x = 0; x < 13; x ++){
 1852              		.loc 1 289 0 discriminator 3
 1853 0b56 FB7F     		ldrb	r3, [r7, #31]	@ zero_extendqisi2
 1854 0b58 0133     		adds	r3, r3, #1
 1855 0b5a FB77     		strb	r3, [r7, #31]
 1856              	.L96:
 289:printer.c     ****     	for(uint8 x = 0; x < 13; x ++){
 1857              		.loc 1 289 0 is_stmt 0 discriminator 1
 1858 0b5c FB7F     		ldrb	r3, [r7, #31]	@ zero_extendqisi2
 1859 0b5e 0C2B     		cmp	r3, #12
 1860 0b60 F3D9     		bls	.L97
 1861              	.LBE41:
 1862              	.LBB42:
 291:printer.c     ****     	}
 292:printer.c     **** 		for(uint8 x = 0; x < 8; x ++){
 1863              		.loc 1 292 0 is_stmt 1
 1864 0b62 0023     		movs	r3, #0
 1865 0b64 BB77     		strb	r3, [r7, #30]
ARM GAS  C:\Users\Diego\AppData\Local\Temp\ccz6pbcU.s 			page 43


 1866 0b66 0AE0     		b	.L98
 1867              	.L99:
 293:printer.c     **** 			PRINTER_A_PutChar(side.b.msn_plate[x]);
 1868              		.loc 1 293 0 discriminator 3
 1869 0b68 BB7F     		ldrb	r3, [r7, #30]	@ zero_extendqisi2
 1870 0b6a 524A     		ldr	r2, .L147
 1871 0b6c 1344     		add	r3, r3, r2
 1872 0b6e 93F85832 		ldrb	r3, [r3, #600]	@ zero_extendqisi2
 1873 0b72 1846     		mov	r0, r3
 1874 0b74 FFF7FEFF 		bl	PRINTER_A_PutChar
 292:printer.c     **** 			PRINTER_A_PutChar(side.b.msn_plate[x]);
 1875              		.loc 1 292 0 discriminator 3
 1876 0b78 BB7F     		ldrb	r3, [r7, #30]	@ zero_extendqisi2
 1877 0b7a 0133     		adds	r3, r3, #1
 1878 0b7c BB77     		strb	r3, [r7, #30]
 1879              	.L98:
 292:printer.c     **** 			PRINTER_A_PutChar(side.b.msn_plate[x]);
 1880              		.loc 1 292 0 is_stmt 0 discriminator 1
 1881 0b7e BB7F     		ldrb	r3, [r7, #30]	@ zero_extendqisi2
 1882 0b80 072B     		cmp	r3, #7
 1883 0b82 F1D9     		bls	.L99
 1884              	.LBE42:
 294:printer.c     **** 		}  
 295:printer.c     ****         PRINTER_A_PutChar(LINE_FEED);
 1885              		.loc 1 295 0 is_stmt 1
 1886 0b84 4C4B     		ldr	r3, .L147+4
 1887 0b86 1B78     		ldrb	r3, [r3]	@ zero_extendqisi2
 1888 0b88 1846     		mov	r0, r3
 1889 0b8a FFF7FEFF 		bl	PRINTER_A_PutChar
 1890              	.LBB43:
 296:printer.c     ****         for(uint8 x = 0; x < 13; x ++){
 1891              		.loc 1 296 0
 1892 0b8e 0023     		movs	r3, #0
 1893 0b90 7B77     		strb	r3, [r7, #29]
 1894 0b92 08E0     		b	.L100
 1895              	.L101:
 297:printer.c     **** 			PRINTER_A_PutChar(PRN_MILLEAGE[x]);
 1896              		.loc 1 297 0 discriminator 3
 1897 0b94 7B7F     		ldrb	r3, [r7, #29]	@ zero_extendqisi2
 1898 0b96 504A     		ldr	r2, .L147+36
 1899 0b98 D35C     		ldrb	r3, [r2, r3]	@ zero_extendqisi2
 1900 0b9a 1846     		mov	r0, r3
 1901 0b9c FFF7FEFF 		bl	PRINTER_A_PutChar
 296:printer.c     ****         for(uint8 x = 0; x < 13; x ++){
 1902              		.loc 1 296 0 discriminator 3
 1903 0ba0 7B7F     		ldrb	r3, [r7, #29]	@ zero_extendqisi2
 1904 0ba2 0133     		adds	r3, r3, #1
 1905 0ba4 7B77     		strb	r3, [r7, #29]
 1906              	.L100:
 296:printer.c     ****         for(uint8 x = 0; x < 13; x ++){
 1907              		.loc 1 296 0 is_stmt 0 discriminator 1
 1908 0ba6 7B7F     		ldrb	r3, [r7, #29]	@ zero_extendqisi2
 1909 0ba8 0C2B     		cmp	r3, #12
 1910 0baa F3D9     		bls	.L101
 1911              	.LBE43:
 1912              	.LBB44:
 298:printer.c     **** 		}          
ARM GAS  C:\Users\Diego\AppData\Local\Temp\ccz6pbcU.s 			page 44


 299:printer.c     ****         for(uint8 x = 0; x <6; x ++){
 1913              		.loc 1 299 0 is_stmt 1
 1914 0bac 0023     		movs	r3, #0
 1915 0bae 3B77     		strb	r3, [r7, #28]
 1916 0bb0 0AE0     		b	.L102
 1917              	.L103:
 300:printer.c     **** 			PRINTER_A_PutChar(side.b.km[x]);
 1918              		.loc 1 300 0 discriminator 3
 1919 0bb2 3B7F     		ldrb	r3, [r7, #28]	@ zero_extendqisi2
 1920 0bb4 3F4A     		ldr	r2, .L147
 1921 0bb6 1344     		add	r3, r3, r2
 1922 0bb8 93F86232 		ldrb	r3, [r3, #610]	@ zero_extendqisi2
 1923 0bbc 1846     		mov	r0, r3
 1924 0bbe FFF7FEFF 		bl	PRINTER_A_PutChar
 299:printer.c     **** 			PRINTER_A_PutChar(side.b.km[x]);
 1925              		.loc 1 299 0 discriminator 3
 1926 0bc2 3B7F     		ldrb	r3, [r7, #28]	@ zero_extendqisi2
 1927 0bc4 0133     		adds	r3, r3, #1
 1928 0bc6 3B77     		strb	r3, [r7, #28]
 1929              	.L102:
 299:printer.c     **** 			PRINTER_A_PutChar(side.b.km[x]);
 1930              		.loc 1 299 0 is_stmt 0 discriminator 1
 1931 0bc8 3B7F     		ldrb	r3, [r7, #28]	@ zero_extendqisi2
 1932 0bca 052B     		cmp	r3, #5
 1933 0bcc F1D9     		bls	.L103
 1934              	.LBE44:
 301:printer.c     **** 		}          
 302:printer.c     ****         PRINTER_A_PutChar(LINE_FEED);
 1935              		.loc 1 302 0 is_stmt 1
 1936 0bce 3A4B     		ldr	r3, .L147+4
 1937 0bd0 1B78     		ldrb	r3, [r3]	@ zero_extendqisi2
 1938 0bd2 1846     		mov	r0, r3
 1939 0bd4 FFF7FEFF 		bl	PRINTER_A_PutChar
 1940              	.LBB45:
 303:printer.c     **** 		for(uint8 x = 0; x < 13; x ++){
 1941              		.loc 1 303 0
 1942 0bd8 0023     		movs	r3, #0
 1943 0bda FB76     		strb	r3, [r7, #27]
 1944 0bdc 08E0     		b	.L104
 1945              	.L105:
 304:printer.c     **** 			PRINTER_A_PutChar(msn_pos[x]);
 1946              		.loc 1 304 0 discriminator 3
 1947 0bde FB7E     		ldrb	r3, [r7, #27]	@ zero_extendqisi2
 1948 0be0 3E4A     		ldr	r2, .L147+40
 1949 0be2 D35C     		ldrb	r3, [r2, r3]	@ zero_extendqisi2
 1950 0be4 1846     		mov	r0, r3
 1951 0be6 FFF7FEFF 		bl	PRINTER_A_PutChar
 303:printer.c     **** 		for(uint8 x = 0; x < 13; x ++){
 1952              		.loc 1 303 0 discriminator 3
 1953 0bea FB7E     		ldrb	r3, [r7, #27]	@ zero_extendqisi2
 1954 0bec 0133     		adds	r3, r3, #1
 1955 0bee FB76     		strb	r3, [r7, #27]
 1956              	.L104:
 303:printer.c     **** 		for(uint8 x = 0; x < 13; x ++){
 1957              		.loc 1 303 0 is_stmt 0 discriminator 1
 1958 0bf0 FB7E     		ldrb	r3, [r7, #27]	@ zero_extendqisi2
 1959 0bf2 0C2B     		cmp	r3, #12
ARM GAS  C:\Users\Diego\AppData\Local\Temp\ccz6pbcU.s 			page 45


 1960 0bf4 F3D9     		bls	.L105
 1961              	.LBE45:
 305:printer.c     **** 		}
 306:printer.c     **** 		PRINTER_A_PutChar((side.b.dir)+ 0x31);
 1962              		.loc 1 306 0 is_stmt 1
 1963 0bf6 2F4B     		ldr	r3, .L147
 1964 0bf8 93F83531 		ldrb	r3, [r3, #309]	@ zero_extendqisi2
 1965 0bfc 3133     		adds	r3, r3, #49
 1966 0bfe DBB2     		uxtb	r3, r3
 1967 0c00 1846     		mov	r0, r3
 1968 0c02 FFF7FEFF 		bl	PRINTER_A_PutChar
 307:printer.c     **** 		PRINTER_A_PutChar(LINE_FEED);
 1969              		.loc 1 307 0
 1970 0c06 2C4B     		ldr	r3, .L147+4
 1971 0c08 1B78     		ldrb	r3, [r3]	@ zero_extendqisi2
 1972 0c0a 1846     		mov	r0, r3
 1973 0c0c FFF7FEFF 		bl	PRINTER_A_PutChar
 1974              	.LBB46:
 308:printer.c     **** 		for(uint8 x = 0; x < 13; x ++){
 1975              		.loc 1 308 0
 1976 0c10 0023     		movs	r3, #0
 1977 0c12 BB76     		strb	r3, [r7, #26]
 1978 0c14 08E0     		b	.L106
 1979              	.L107:
 309:printer.c     **** 			PRINTER_A_PutChar(msn_product[x]);
 1980              		.loc 1 309 0 discriminator 3
 1981 0c16 BB7E     		ldrb	r3, [r7, #26]	@ zero_extendqisi2
 1982 0c18 314A     		ldr	r2, .L147+44
 1983 0c1a D35C     		ldrb	r3, [r2, r3]	@ zero_extendqisi2
 1984 0c1c 1846     		mov	r0, r3
 1985 0c1e FFF7FEFF 		bl	PRINTER_A_PutChar
 308:printer.c     **** 		for(uint8 x = 0; x < 13; x ++){
 1986              		.loc 1 308 0 discriminator 3
 1987 0c22 BB7E     		ldrb	r3, [r7, #26]	@ zero_extendqisi2
 1988 0c24 0133     		adds	r3, r3, #1
 1989 0c26 BB76     		strb	r3, [r7, #26]
 1990              	.L106:
 308:printer.c     **** 		for(uint8 x = 0; x < 13; x ++){
 1991              		.loc 1 308 0 is_stmt 0 discriminator 1
 1992 0c28 BB7E     		ldrb	r3, [r7, #26]	@ zero_extendqisi2
 1993 0c2a 0C2B     		cmp	r3, #12
 1994 0c2c F3D9     		bls	.L107
 1995              	.LBE46:
 310:printer.c     **** 		}
 311:printer.c     **** 		if(side.b.Nozzle == 0x02){
 1996              		.loc 1 311 0 is_stmt 1
 1997 0c2e 214B     		ldr	r3, .L147
 1998 0c30 93F86132 		ldrb	r3, [r3, #609]	@ zero_extendqisi2
 1999 0c34 022B     		cmp	r3, #2
 2000 0c36 0FD1     		bne	.L108
 2001              	.LBB47:
 312:printer.c     ****     		for(uint8 x = 0; x < 9; x ++){
 2002              		.loc 1 312 0
 2003 0c38 0023     		movs	r3, #0
 2004 0c3a 7B76     		strb	r3, [r7, #25]
 2005 0c3c 08E0     		b	.L109
 2006              	.L110:
ARM GAS  C:\Users\Diego\AppData\Local\Temp\ccz6pbcU.s 			page 46


 313:printer.c     ****     			PRINTER_A_PutChar(msn_gasoline[x]);  //aso 1 producto
 2007              		.loc 1 313 0 discriminator 3
 2008 0c3e 7B7E     		ldrb	r3, [r7, #25]	@ zero_extendqisi2
 2009 0c40 284A     		ldr	r2, .L147+48
 2010 0c42 D35C     		ldrb	r3, [r2, r3]	@ zero_extendqisi2
 2011 0c44 1846     		mov	r0, r3
 2012 0c46 FFF7FEFF 		bl	PRINTER_A_PutChar
 312:printer.c     ****     		for(uint8 x = 0; x < 9; x ++){
 2013              		.loc 1 312 0 discriminator 3
 2014 0c4a 7B7E     		ldrb	r3, [r7, #25]	@ zero_extendqisi2
 2015 0c4c 0133     		adds	r3, r3, #1
 2016 0c4e 7B76     		strb	r3, [r7, #25]
 2017              	.L109:
 312:printer.c     ****     		for(uint8 x = 0; x < 9; x ++){
 2018              		.loc 1 312 0 is_stmt 0 discriminator 1
 2019 0c50 7B7E     		ldrb	r3, [r7, #25]	@ zero_extendqisi2
 2020 0c52 082B     		cmp	r3, #8
 2021 0c54 F3D9     		bls	.L110
 2022 0c56 0EE0     		b	.L111
 2023              	.L108:
 2024              	.LBE47:
 2025              	.LBB48:
 314:printer.c     ****     		}
 315:printer.c     ****         }else{
 316:printer.c     ****             for(uint8 x = 0; x < 9; x ++){
 2026              		.loc 1 316 0 is_stmt 1
 2027 0c58 0023     		movs	r3, #0
 2028 0c5a 3B76     		strb	r3, [r7, #24]
 2029 0c5c 08E0     		b	.L112
 2030              	.L113:
 317:printer.c     ****     			PRINTER_A_PutChar(msn_gasoline[x]);
 2031              		.loc 1 317 0 discriminator 3
 2032 0c5e 3B7E     		ldrb	r3, [r7, #24]	@ zero_extendqisi2
 2033 0c60 204A     		ldr	r2, .L147+48
 2034 0c62 D35C     		ldrb	r3, [r2, r3]	@ zero_extendqisi2
 2035 0c64 1846     		mov	r0, r3
 2036 0c66 FFF7FEFF 		bl	PRINTER_A_PutChar
 316:printer.c     ****     			PRINTER_A_PutChar(msn_gasoline[x]);
 2037              		.loc 1 316 0 discriminator 3
 2038 0c6a 3B7E     		ldrb	r3, [r7, #24]	@ zero_extendqisi2
 2039 0c6c 0133     		adds	r3, r3, #1
 2040 0c6e 3B76     		strb	r3, [r7, #24]
 2041              	.L112:
 316:printer.c     ****     			PRINTER_A_PutChar(msn_gasoline[x]);
 2042              		.loc 1 316 0 is_stmt 0 discriminator 1
 2043 0c70 3B7E     		ldrb	r3, [r7, #24]	@ zero_extendqisi2
 2044 0c72 082B     		cmp	r3, #8
 2045 0c74 F3D9     		bls	.L113
 2046              	.L111:
 2047              	.LBE48:
 318:printer.c     ****     		}
 319:printer.c     ****         }
 320:printer.c     ****         PRINTER_A_PutChar(LINE_FEED); 	
 2048              		.loc 1 320 0 is_stmt 1
 2049 0c76 104B     		ldr	r3, .L147+4
 2050 0c78 1B78     		ldrb	r3, [r3]	@ zero_extendqisi2
 2051 0c7a 1846     		mov	r0, r3
ARM GAS  C:\Users\Diego\AppData\Local\Temp\ccz6pbcU.s 			page 47


 2052 0c7c FFF7FEFF 		bl	PRINTER_A_PutChar
 2053              	.LBB49:
 321:printer.c     **** 		for(uint8 x = 0; x < 13; x ++){
 2054              		.loc 1 321 0
 2055 0c80 0023     		movs	r3, #0
 2056 0c82 FB75     		strb	r3, [r7, #23]
 2057 0c84 08E0     		b	.L114
 2058              	.L115:
 322:printer.c     **** 			PRINTER_A_PutChar(msn_ppu[x]);
 2059              		.loc 1 322 0 discriminator 3
 2060 0c86 FB7D     		ldrb	r3, [r7, #23]	@ zero_extendqisi2
 2061 0c88 174A     		ldr	r2, .L147+52
 2062 0c8a D35C     		ldrb	r3, [r2, r3]	@ zero_extendqisi2
 2063 0c8c 1846     		mov	r0, r3
 2064 0c8e FFF7FEFF 		bl	PRINTER_A_PutChar
 321:printer.c     **** 		for(uint8 x = 0; x < 13; x ++){
 2065              		.loc 1 321 0 discriminator 3
 2066 0c92 FB7D     		ldrb	r3, [r7, #23]	@ zero_extendqisi2
 2067 0c94 0133     		adds	r3, r3, #1
 2068 0c96 FB75     		strb	r3, [r7, #23]
 2069              	.L114:
 321:printer.c     **** 		for(uint8 x = 0; x < 13; x ++){
 2070              		.loc 1 321 0 is_stmt 0 discriminator 1
 2071 0c98 FB7D     		ldrb	r3, [r7, #23]	@ zero_extendqisi2
 2072 0c9a 0C2B     		cmp	r3, #12
 2073 0c9c F3D9     		bls	.L115
 2074              	.LBE49:
 323:printer.c     **** 		}
 324:printer.c     **** 		PRINTER_A_PutChar(PRN_CURRENCY[0]);  
 2075              		.loc 1 324 0 is_stmt 1
 2076 0c9e 134B     		ldr	r3, .L147+56
 2077 0ca0 1B78     		ldrb	r3, [r3]	@ zero_extendqisi2
 2078 0ca2 1846     		mov	r0, r3
 2079 0ca4 FFF7FEFF 		bl	PRINTER_A_PutChar
 325:printer.c     **** 		PRINTER_A_PutChar(' ');
 2080              		.loc 1 325 0
 2081 0ca8 2020     		movs	r0, #32
 2082 0caa FFF7FEFF 		bl	PRINTER_A_PutChar
 2083              	.LBB50:
 326:printer.c     **** 		for(uint8 x = 1; x < 6; x ++){
 2084              		.loc 1 326 0
 2085 0cae 0123     		movs	r3, #1
 2086 0cb0 BB75     		strb	r3, [r7, #22]
 2087 0cb2 32E0     		b	.L116
 2088              	.L148:
 2089              		.align	2
 2090              	.L147:
 2091 0cb4 00000000 		.word	side
 2092 0cb8 00000000 		.word	LINE_FEED
 2093 0cbc 00000000 		.word	msn_copy
 2094 0cc0 00000000 		.word	SEPARATOR
 2095 0cc4 00000000 		.word	msn_venta
 2096 0cc8 00000000 		.word	sale_number_copy
 2097 0ccc 00000000 		.word	sale_number
 2098 0cd0 00000000 		.word	int_salenumber
 2099 0cd4 00000000 		.word	msn_placa
 2100 0cd8 00000000 		.word	PRN_MILLEAGE
ARM GAS  C:\Users\Diego\AppData\Local\Temp\ccz6pbcU.s 			page 48


 2101 0cdc 00000000 		.word	msn_pos
 2102 0ce0 00000000 		.word	msn_product
 2103 0ce4 00000000 		.word	msn_gasoline
 2104 0ce8 00000000 		.word	msn_ppu
 2105 0cec 00000000 		.word	PRN_CURRENCY
 2106              	.L117:
 327:printer.c     **** 			PRINTER_A_PutChar(side.b.ProcessedPPU[side.b.Nozzle - 1][x]);
 2107              		.loc 1 327 0 discriminator 3
 2108 0cf0 944B     		ldr	r3, .L149
 2109 0cf2 93F86132 		ldrb	r3, [r3, #609]	@ zero_extendqisi2
 2110 0cf6 5A1E     		subs	r2, r3, #1
 2111 0cf8 B97D     		ldrb	r1, [r7, #22]	@ zero_extendqisi2
 2112 0cfa 9248     		ldr	r0, .L149
 2113 0cfc 1346     		mov	r3, r2
 2114 0cfe 5B00     		lsls	r3, r3, #1
 2115 0d00 1344     		add	r3, r3, r2
 2116 0d02 5B00     		lsls	r3, r3, #1
 2117 0d04 0344     		add	r3, r3, r0
 2118 0d06 0B44     		add	r3, r3, r1
 2119 0d08 03F51073 		add	r3, r3, #576
 2120 0d0c 1B78     		ldrb	r3, [r3]	@ zero_extendqisi2
 2121 0d0e 1846     		mov	r0, r3
 2122 0d10 FFF7FEFF 		bl	PRINTER_A_PutChar
 326:printer.c     **** 		for(uint8 x = 1; x < 6; x ++){
 2123              		.loc 1 326 0 discriminator 3
 2124 0d14 BB7D     		ldrb	r3, [r7, #22]	@ zero_extendqisi2
 2125 0d16 0133     		adds	r3, r3, #1
 2126 0d18 BB75     		strb	r3, [r7, #22]
 2127              	.L116:
 326:printer.c     **** 		for(uint8 x = 1; x < 6; x ++){
 2128              		.loc 1 326 0 is_stmt 0 discriminator 1
 2129 0d1a BB7D     		ldrb	r3, [r7, #22]	@ zero_extendqisi2
 2130 0d1c 052B     		cmp	r3, #5
 2131 0d1e E7D9     		bls	.L117
 2132              	.LBE50:
 328:printer.c     **** 		}
 329:printer.c     ****         PRINTER_A_PutChar(LINE_FEED);
 2133              		.loc 1 329 0 is_stmt 1
 2134 0d20 894B     		ldr	r3, .L149+4
 2135 0d22 1B78     		ldrb	r3, [r3]	@ zero_extendqisi2
 2136 0d24 1846     		mov	r0, r3
 2137 0d26 FFF7FEFF 		bl	PRINTER_A_PutChar
 2138              	.LBB51:
 330:printer.c     **** 		for(uint8 x = 0; x < 13; x ++){
 2139              		.loc 1 330 0
 2140 0d2a 0023     		movs	r3, #0
 2141 0d2c 7B75     		strb	r3, [r7, #21]
 2142 0d2e 08E0     		b	.L118
 2143              	.L119:
 331:printer.c     **** 			PRINTER_A_PutChar(msn_vol[x]);
 2144              		.loc 1 331 0 discriminator 3
 2145 0d30 7B7D     		ldrb	r3, [r7, #21]	@ zero_extendqisi2
 2146 0d32 864A     		ldr	r2, .L149+8
 2147 0d34 D35C     		ldrb	r3, [r2, r3]	@ zero_extendqisi2
 2148 0d36 1846     		mov	r0, r3
 2149 0d38 FFF7FEFF 		bl	PRINTER_A_PutChar
 330:printer.c     **** 		for(uint8 x = 0; x < 13; x ++){
ARM GAS  C:\Users\Diego\AppData\Local\Temp\ccz6pbcU.s 			page 49


 2150              		.loc 1 330 0 discriminator 3
 2151 0d3c 7B7D     		ldrb	r3, [r7, #21]	@ zero_extendqisi2
 2152 0d3e 0133     		adds	r3, r3, #1
 2153 0d40 7B75     		strb	r3, [r7, #21]
 2154              	.L118:
 330:printer.c     **** 		for(uint8 x = 0; x < 13; x ++){
 2155              		.loc 1 330 0 is_stmt 0 discriminator 1
 2156 0d42 7B7D     		ldrb	r3, [r7, #21]	@ zero_extendqisi2
 2157 0d44 0C2B     		cmp	r3, #12
 2158 0d46 F3D9     		bls	.L119
 2159              	.LBE51:
 2160              	.LBB52:
 332:printer.c     **** 		}
 333:printer.c     **** 		for(uint8 x = 0; x < 8; x ++){
 2161              		.loc 1 333 0 is_stmt 1
 2162 0d48 0023     		movs	r3, #0
 2163 0d4a 3B75     		strb	r3, [r7, #20]
 2164 0d4c 14E0     		b	.L120
 2165              	.L122:
 334:printer.c     **** 			if((8-x) == DecVol)
 2166              		.loc 1 334 0
 2167 0d4e 3B7D     		ldrb	r3, [r7, #20]	@ zero_extendqisi2
 2168 0d50 C3F10803 		rsb	r3, r3, #8
 2169 0d54 7E4A     		ldr	r2, .L149+12
 2170 0d56 1278     		ldrb	r2, [r2]	@ zero_extendqisi2
 2171 0d58 9342     		cmp	r3, r2
 2172 0d5a 02D1     		bne	.L121
 335:printer.c     **** 				PRINTER_A_PutChar('.');
 2173              		.loc 1 335 0
 2174 0d5c 2E20     		movs	r0, #46
 2175 0d5e FFF7FEFF 		bl	PRINTER_A_PutChar
 2176              	.L121:
 336:printer.c     **** 			PRINTER_A_PutChar(side.b.ProcessedvolumeSale[x]);        
 2177              		.loc 1 336 0 discriminator 2
 2178 0d62 3B7D     		ldrb	r3, [r7, #20]	@ zero_extendqisi2
 2179 0d64 774A     		ldr	r2, .L149
 2180 0d66 1344     		add	r3, r3, r2
 2181 0d68 93F83832 		ldrb	r3, [r3, #568]	@ zero_extendqisi2
 2182 0d6c 1846     		mov	r0, r3
 2183 0d6e FFF7FEFF 		bl	PRINTER_A_PutChar
 333:printer.c     **** 			if((8-x) == DecVol)
 2184              		.loc 1 333 0 discriminator 2
 2185 0d72 3B7D     		ldrb	r3, [r7, #20]	@ zero_extendqisi2
 2186 0d74 0133     		adds	r3, r3, #1
 2187 0d76 3B75     		strb	r3, [r7, #20]
 2188              	.L120:
 333:printer.c     **** 			if((8-x) == DecVol)
 2189              		.loc 1 333 0 is_stmt 0 discriminator 1
 2190 0d78 3B7D     		ldrb	r3, [r7, #20]	@ zero_extendqisi2
 2191 0d7a 072B     		cmp	r3, #7
 2192 0d7c E7D9     		bls	.L122
 2193              	.LBE52:
 337:printer.c     **** 		}
 338:printer.c     **** 		PRINTER_A_PutChar(' ');
 2194              		.loc 1 338 0 is_stmt 1
 2195 0d7e 2020     		movs	r0, #32
 2196 0d80 FFF7FEFF 		bl	PRINTER_A_PutChar
ARM GAS  C:\Users\Diego\AppData\Local\Temp\ccz6pbcU.s 			page 50


 339:printer.c     **** 		PRINTER_A_PutChar(VolSimbol[0]);
 2197              		.loc 1 339 0
 2198 0d84 734B     		ldr	r3, .L149+16
 2199 0d86 1B78     		ldrb	r3, [r3]	@ zero_extendqisi2
 2200 0d88 1846     		mov	r0, r3
 2201 0d8a FFF7FEFF 		bl	PRINTER_A_PutChar
 340:printer.c     **** 		PRINTER_A_PutChar(LINE_FEED); 
 2202              		.loc 1 340 0
 2203 0d8e 6E4B     		ldr	r3, .L149+4
 2204 0d90 1B78     		ldrb	r3, [r3]	@ zero_extendqisi2
 2205 0d92 1846     		mov	r0, r3
 2206 0d94 FFF7FEFF 		bl	PRINTER_A_PutChar
 2207              	.LBB53:
 341:printer.c     **** 		for(uint8 x = 0; x < 13; x ++){
 2208              		.loc 1 341 0
 2209 0d98 0023     		movs	r3, #0
 2210 0d9a FB74     		strb	r3, [r7, #19]
 2211 0d9c 08E0     		b	.L123
 2212              	.L124:
 342:printer.c     **** 			PRINTER_A_PutChar(msn_din[x]);
 2213              		.loc 1 342 0 discriminator 3
 2214 0d9e FB7C     		ldrb	r3, [r7, #19]	@ zero_extendqisi2
 2215 0da0 6D4A     		ldr	r2, .L149+20
 2216 0da2 D35C     		ldrb	r3, [r2, r3]	@ zero_extendqisi2
 2217 0da4 1846     		mov	r0, r3
 2218 0da6 FFF7FEFF 		bl	PRINTER_A_PutChar
 341:printer.c     **** 		for(uint8 x = 0; x < 13; x ++){
 2219              		.loc 1 341 0 discriminator 3
 2220 0daa FB7C     		ldrb	r3, [r7, #19]	@ zero_extendqisi2
 2221 0dac 0133     		adds	r3, r3, #1
 2222 0dae FB74     		strb	r3, [r7, #19]
 2223              	.L123:
 341:printer.c     **** 		for(uint8 x = 0; x < 13; x ++){
 2224              		.loc 1 341 0 is_stmt 0 discriminator 1
 2225 0db0 FB7C     		ldrb	r3, [r7, #19]	@ zero_extendqisi2
 2226 0db2 0C2B     		cmp	r3, #12
 2227 0db4 F3D9     		bls	.L124
 2228              	.LBE53:
 343:printer.c     **** 		}     
 344:printer.c     **** 		PRINTER_A_PutChar(PRN_CURRENCY[0]);  
 2229              		.loc 1 344 0 is_stmt 1
 2230 0db6 694B     		ldr	r3, .L149+24
 2231 0db8 1B78     		ldrb	r3, [r3]	@ zero_extendqisi2
 2232 0dba 1846     		mov	r0, r3
 2233 0dbc FFF7FEFF 		bl	PRINTER_A_PutChar
 345:printer.c     **** 		PRINTER_A_PutChar(' ');
 2234              		.loc 1 345 0
 2235 0dc0 2020     		movs	r0, #32
 2236 0dc2 FFF7FEFF 		bl	PRINTER_A_PutChar
 2237              	.LBB54:
 346:printer.c     **** 		for(uint8 x = 0; x < 7; x ++){
 2238              		.loc 1 346 0
 2239 0dc6 0023     		movs	r3, #0
 2240 0dc8 BB74     		strb	r3, [r7, #18]
 2241 0dca 0AE0     		b	.L125
 2242              	.L126:
 347:printer.c     **** 			PRINTER_A_PutChar(side.b.ProcessedmoneySale[x]);
ARM GAS  C:\Users\Diego\AppData\Local\Temp\ccz6pbcU.s 			page 51


 2243              		.loc 1 347 0 discriminator 3
 2244 0dcc BB7C     		ldrb	r3, [r7, #18]	@ zero_extendqisi2
 2245 0dce 5D4A     		ldr	r2, .L149
 2246 0dd0 1344     		add	r3, r3, r2
 2247 0dd2 93F83032 		ldrb	r3, [r3, #560]	@ zero_extendqisi2
 2248 0dd6 1846     		mov	r0, r3
 2249 0dd8 FFF7FEFF 		bl	PRINTER_A_PutChar
 346:printer.c     **** 		for(uint8 x = 0; x < 7; x ++){
 2250              		.loc 1 346 0 discriminator 3
 2251 0ddc BB7C     		ldrb	r3, [r7, #18]	@ zero_extendqisi2
 2252 0dde 0133     		adds	r3, r3, #1
 2253 0de0 BB74     		strb	r3, [r7, #18]
 2254              	.L125:
 346:printer.c     **** 		for(uint8 x = 0; x < 7; x ++){
 2255              		.loc 1 346 0 is_stmt 0 discriminator 1
 2256 0de2 BB7C     		ldrb	r3, [r7, #18]	@ zero_extendqisi2
 2257 0de4 062B     		cmp	r3, #6
 2258 0de6 F1D9     		bls	.L126
 2259              	.LBE54:
 348:printer.c     **** 		}		
 349:printer.c     **** 		PRINTER_A_PutChar(LINE_FEED);
 2260              		.loc 1 349 0 is_stmt 1
 2261 0de8 574B     		ldr	r3, .L149+4
 2262 0dea 1B78     		ldrb	r3, [r3]	@ zero_extendqisi2
 2263 0dec 1846     		mov	r0, r3
 2264 0dee FFF7FEFF 		bl	PRINTER_A_PutChar
 350:printer.c     ****         side.b.Copy = 1;
 2265              		.loc 1 350 0
 2266 0df2 544B     		ldr	r3, .L149
 2267 0df4 0122     		movs	r2, #1
 2268 0df6 83F86922 		strb	r2, [r3, #617]
 2269              	.L82:
 2270              	.LBB55:
 351:printer.c     **** 	}
 352:printer.c     **** 	
 353:printer.c     **** //    if(address == side.c.dir){
 354:printer.c     **** //        if(side.c.Copy == 1){
 355:printer.c     **** //            for(uint8 x = 0; x < 32; x ++){
 356:printer.c     **** //        		PRINTER_A_PutChar(msn_copy[x]);
 357:printer.c     **** //        	}
 358:printer.c     **** //            PRINTER_A_PutChar(LINE_FEED);
 359:printer.c     **** //            for(uint8 x = 0; x < 32; x ++){
 360:printer.c     **** //        		PRINTER_A_PutChar(SEPARATOR[x]);
 361:printer.c     **** //        	}            
 362:printer.c     **** //        }
 363:printer.c     **** //        PRINTER_A_PutChar(LINE_FEED);
 364:printer.c     **** //        for(uint8 x = 0; x < 13; x ++){
 365:printer.c     **** //    		PRINTER_A_PutChar(msn_venta[x]);
 366:printer.c     **** //    	}
 367:printer.c     **** //        if(side.c.Copy == 1){
 368:printer.c     **** //           for(uint8 x = 5; x > 0; x --){
 369:printer.c     **** //        		PRINTER_A_PutChar(sale_number_copy[x]);
 370:printer.c     **** //        	} 
 371:printer.c     **** //        }else{
 372:printer.c     **** //            for(uint8 x = 5; x > 0; x --){
 373:printer.c     **** //        		PRINTER_A_PutChar(sale_number[x]);
 374:printer.c     **** //        	}
ARM GAS  C:\Users\Diego\AppData\Local\Temp\ccz6pbcU.s 			page 52


 375:printer.c     **** //            int_salenumber++;
 376:printer.c     **** //        }
 377:printer.c     **** //        PRINTER_A_PutChar(LINE_FEED);
 378:printer.c     **** //    	for(uint8 x = 0; x < 13; x ++){
 379:printer.c     **** //    		PRINTER_A_PutChar(msn_placa[x]);
 380:printer.c     **** //    	}
 381:printer.c     **** //		for(uint8 x = 0; x < 8; x ++){
 382:printer.c     **** //			PRINTER_A_PutChar(side.c.msn_plate[x]);
 383:printer.c     **** //		}  
 384:printer.c     **** //        PRINTER_A_PutChar(LINE_FEED);
 385:printer.c     **** //        for(uint8 x = 0; x < 13; x ++){
 386:printer.c     **** //			PRINTER_A_PutChar(PRN_MILLEAGE[x]);
 387:printer.c     **** //		}          
 388:printer.c     **** //        for(uint8 x = 0; x <6; x ++){
 389:printer.c     **** //			PRINTER_A_PutChar(side.c.km[x]);
 390:printer.c     **** //		}  
 391:printer.c     **** //        PRINTER_A_PutChar(LINE_FEED);
 392:printer.c     **** //		for(uint8 x = 0; x < 13; x ++){
 393:printer.c     **** //			PRINTER_A_PutChar(msn_pos[x]);
 394:printer.c     **** //		}
 395:printer.c     **** //		PRINTER_A_PutChar((side.c.dir)+ 0x31);
 396:printer.c     **** //		PRINTER_A_PutChar(LINE_FEED);
 397:printer.c     **** //		for(uint8 x = 0; x < 13; x ++){
 398:printer.c     **** //			PRINTER_A_PutChar(msn_product[x]);
 399:printer.c     **** //		}
 400:printer.c     **** //        
 401:printer.c     **** //		for(uint8 x = 0; x < 9; x ++){
 402:printer.c     **** //			PRINTER_A_PutChar(msn_diesel[x]);
 403:printer.c     **** //		}
 404:printer.c     **** //        
 405:printer.c     **** //        PRINTER_A_PutChar(LINE_FEED); 	
 406:printer.c     **** //		for(uint8 x = 0; x < 13; x ++){
 407:printer.c     **** //			PRINTER_A_PutChar(msn_ppu[x]);
 408:printer.c     **** //		}
 409:printer.c     **** //		PRINTER_A_PutChar(PRN_CURRENCY[0]);  
 410:printer.c     **** //		PRINTER_A_PutChar(' ');
 411:printer.c     **** //		for(uint8 x = 1; x < 6; x ++){
 412:printer.c     **** //			PRINTER_A_PutChar(side.c.ProcessedPPU[side.c.Nozzle-1][x]);
 413:printer.c     **** //		}
 414:printer.c     **** //        PRINTER_A_PutChar(LINE_FEED);
 415:printer.c     **** //		for(uint8 x = 0; x < 13; x ++){
 416:printer.c     **** //			PRINTER_A_PutChar(msn_vol[x]);
 417:printer.c     **** //		}
 418:printer.c     **** //		for(uint8 x = 0; x < 8; x ++){
 419:printer.c     **** //			if((8-x) == DecVol)
 420:printer.c     **** //				PRINTER_A_PutChar('.');
 421:printer.c     **** //			PRINTER_A_PutChar(side.c.ProcessedvolumeSale[x]);        
 422:printer.c     **** //		}
 423:printer.c     **** //		PRINTER_A_PutChar(' ');
 424:printer.c     **** //		PRINTER_A_PutChar(VolSimbol[0]);
 425:printer.c     **** //		PRINTER_A_PutChar(LINE_FEED); 
 426:printer.c     **** //		for(uint8 x = 0; x < 13; x ++){
 427:printer.c     **** //			PRINTER_A_PutChar(msn_din[x]);
 428:printer.c     **** //		}     
 429:printer.c     **** //		PRINTER_A_PutChar(PRN_CURRENCY[0]);  
 430:printer.c     **** //		PRINTER_A_PutChar(' ');
 431:printer.c     **** //		for(uint8 x = 0; x < 8; x ++){
ARM GAS  C:\Users\Diego\AppData\Local\Temp\ccz6pbcU.s 			page 53


 432:printer.c     **** //			PRINTER_A_PutChar(side.c.ProcessedmoneySale[x]);
 433:printer.c     **** //		}		
 434:printer.c     **** //		PRINTER_A_PutChar(LINE_FEED);
 435:printer.c     **** //        side.c.Copy = 1;
 436:printer.c     **** //	}
 437:printer.c     **** //	
 438:printer.c     **** //    if(address == side.d.dir){
 439:printer.c     **** //        if(side.d.Copy == 1){
 440:printer.c     **** //            for(uint8 x = 0; x < 32; x ++){
 441:printer.c     **** //        		PRINTER_A_PutChar(msn_copy[x]);
 442:printer.c     **** //        	}
 443:printer.c     **** //            PRINTER_A_PutChar(LINE_FEED);
 444:printer.c     **** //            for(uint8 x = 0; x < 32; x ++){
 445:printer.c     **** //        		PRINTER_A_PutChar(SEPARATOR[x]);
 446:printer.c     **** //        	}            
 447:printer.c     **** //        }
 448:printer.c     **** //        PRINTER_A_PutChar(LINE_FEED);
 449:printer.c     **** //        for(uint8 x = 0; x < 13; x ++){
 450:printer.c     **** //    		PRINTER_A_PutChar(msn_venta[x]);
 451:printer.c     **** //    	}
 452:printer.c     **** //        if(side.d.Copy == 1){
 453:printer.c     **** //           for(uint8 x = 5; x > 0; x --){
 454:printer.c     **** //        		PRINTER_A_PutChar(sale_number_copy[x]);
 455:printer.c     **** //        	} 
 456:printer.c     **** //        }else{
 457:printer.c     **** //            for(uint8 x = 5; x > 0; x --){
 458:printer.c     **** //        		PRINTER_A_PutChar(sale_number[x]);
 459:printer.c     **** //        	}
 460:printer.c     **** //            int_salenumber++;
 461:printer.c     **** //        }
 462:printer.c     **** //        PRINTER_A_PutChar(LINE_FEED);
 463:printer.c     **** //    	for(uint8 x = 0; x < 13; x ++){
 464:printer.c     **** //    		PRINTER_A_PutChar(msn_placa[x]);
 465:printer.c     **** //    	}
 466:printer.c     **** //		for(uint8 x = 0; x < 8; x ++){
 467:printer.c     **** //			PRINTER_A_PutChar(side.d.msn_plate[x]);
 468:printer.c     **** //		}  
 469:printer.c     **** //        PRINTER_A_PutChar(LINE_FEED);
 470:printer.c     **** //        for(uint8 x = 0; x < 13; x ++){
 471:printer.c     **** //			PRINTER_A_PutChar(PRN_MILLEAGE[x]);
 472:printer.c     **** //		}          
 473:printer.c     **** //        for(uint8 x = 0; x <6; x ++){
 474:printer.c     **** //			PRINTER_A_PutChar(side.d.km[x]);
 475:printer.c     **** //		}  
 476:printer.c     **** //        PRINTER_A_PutChar(LINE_FEED);
 477:printer.c     **** //		for(uint8 x = 0; x < 13; x ++){
 478:printer.c     **** //			PRINTER_A_PutChar(msn_pos[x]);
 479:printer.c     **** //		}
 480:printer.c     **** //		PRINTER_A_PutChar((side.d.dir)+ 0x31);
 481:printer.c     **** //		PRINTER_A_PutChar(LINE_FEED);
 482:printer.c     **** //		for(uint8 x = 0; x < 13; x ++){
 483:printer.c     **** //			PRINTER_A_PutChar(msn_product[x]);
 484:printer.c     **** //		}        
 485:printer.c     **** //        for(uint8 x = 0; x < 9; x ++){
 486:printer.c     **** //			PRINTER_A_PutChar(msn_gasoline[x]);
 487:printer.c     **** //		}        
 488:printer.c     **** //        PRINTER_A_PutChar(LINE_FEED); 	
ARM GAS  C:\Users\Diego\AppData\Local\Temp\ccz6pbcU.s 			page 54


 489:printer.c     **** //		for(uint8 x = 0; x < 13; x ++){
 490:printer.c     **** //			PRINTER_A_PutChar(msn_ppu[x]);
 491:printer.c     **** //		}
 492:printer.c     **** //		PRINTER_A_PutChar(PRN_CURRENCY[0]);  
 493:printer.c     **** //		PRINTER_A_PutChar(' ');
 494:printer.c     **** //		for(uint8 x = 1; x < 6; x ++){
 495:printer.c     **** //			PRINTER_A_PutChar(side.d.ProcessedPPU[side.d.Nozzle-1][x]);
 496:printer.c     **** //		}
 497:printer.c     **** //        PRINTER_A_PutChar(LINE_FEED);
 498:printer.c     **** //		for(uint8 x = 0; x < 13; x ++){
 499:printer.c     **** //			PRINTER_A_PutChar(msn_vol[x]);
 500:printer.c     **** //		}
 501:printer.c     **** //		for(uint8 x = 0; x < 8; x ++){
 502:printer.c     **** //			if((8-x) == DecVol)
 503:printer.c     **** //				PRINTER_A_PutChar('.');
 504:printer.c     **** //			PRINTER_A_PutChar(side.d.ProcessedvolumeSale[x]);        
 505:printer.c     **** //		}
 506:printer.c     **** //		PRINTER_A_PutChar(' ');
 507:printer.c     **** //		PRINTER_A_PutChar(VolSimbol[0]);
 508:printer.c     **** //		PRINTER_A_PutChar(LINE_FEED); 
 509:printer.c     **** //		for(uint8 x = 0; x < 13; x ++){
 510:printer.c     **** //			PRINTER_A_PutChar(msn_din[x]);
 511:printer.c     **** //		}     
 512:printer.c     **** //		PRINTER_A_PutChar(PRN_CURRENCY[0]);  
 513:printer.c     **** //		PRINTER_A_PutChar(' ');
 514:printer.c     **** //		for(uint8 x = 0; x < 8; x ++){
 515:printer.c     **** //			PRINTER_A_PutChar(side.d.ProcessedmoneySale[x]);
 516:printer.c     **** //		}		
 517:printer.c     **** //		PRINTER_A_PutChar(LINE_FEED);
 518:printer.c     **** //        side.d.Copy = 1;
 519:printer.c     **** //	}
 520:printer.c     **** 	
 521:printer.c     **** 	/******FOOTER*****/
 522:printer.c     **** 	for(uint8 x = 0; x < 32; x ++){
 2271              		.loc 1 522 0
 2272 0dfa 0023     		movs	r3, #0
 2273 0dfc 7B74     		strb	r3, [r7, #17]
 2274 0dfe 08E0     		b	.L127
 2275              	.L128:
 523:printer.c     **** 		PRINTER_A_PutChar(SEPARATOR[x]);
 2276              		.loc 1 523 0 discriminator 3
 2277 0e00 7B7C     		ldrb	r3, [r7, #17]	@ zero_extendqisi2
 2278 0e02 574A     		ldr	r2, .L149+28
 2279 0e04 D35C     		ldrb	r3, [r2, r3]	@ zero_extendqisi2
 2280 0e06 1846     		mov	r0, r3
 2281 0e08 FFF7FEFF 		bl	PRINTER_A_PutChar
 522:printer.c     **** 		PRINTER_A_PutChar(SEPARATOR[x]);
 2282              		.loc 1 522 0 discriminator 3
 2283 0e0c 7B7C     		ldrb	r3, [r7, #17]	@ zero_extendqisi2
 2284 0e0e 0133     		adds	r3, r3, #1
 2285 0e10 7B74     		strb	r3, [r7, #17]
 2286              	.L127:
 522:printer.c     **** 		PRINTER_A_PutChar(SEPARATOR[x]);
 2287              		.loc 1 522 0 is_stmt 0 discriminator 1
 2288 0e12 7B7C     		ldrb	r3, [r7, #17]	@ zero_extendqisi2
 2289 0e14 1F2B     		cmp	r3, #31
 2290 0e16 F3D9     		bls	.L128
ARM GAS  C:\Users\Diego\AppData\Local\Temp\ccz6pbcU.s 			page 55


 2291              	.LBE55:
 524:printer.c     **** 	}
 525:printer.c     ****     PRINTER_A_PutChar(LINE_FEED);    
 2292              		.loc 1 525 0 is_stmt 1
 2293 0e18 4B4B     		ldr	r3, .L149+4
 2294 0e1a 1B78     		ldrb	r3, [r3]	@ zero_extendqisi2
 2295 0e1c 1846     		mov	r0, r3
 2296 0e1e FFF7FEFF 		bl	PRINTER_A_PutChar
 2297              	.LBB56:
 526:printer.c     **** 	for(uint8 x = 0; x < 32; x ++){
 2298              		.loc 1 526 0
 2299 0e22 0023     		movs	r3, #0
 2300 0e24 3B74     		strb	r3, [r7, #16]
 2301 0e26 08E0     		b	.L129
 2302              	.L130:
 527:printer.c     **** 		PRINTER_A_PutChar(msn_footer3[x]);
 2303              		.loc 1 527 0 discriminator 3
 2304 0e28 3B7C     		ldrb	r3, [r7, #16]	@ zero_extendqisi2
 2305 0e2a 4E4A     		ldr	r2, .L149+32
 2306 0e2c D35C     		ldrb	r3, [r2, r3]	@ zero_extendqisi2
 2307 0e2e 1846     		mov	r0, r3
 2308 0e30 FFF7FEFF 		bl	PRINTER_A_PutChar
 526:printer.c     **** 	for(uint8 x = 0; x < 32; x ++){
 2309              		.loc 1 526 0 discriminator 3
 2310 0e34 3B7C     		ldrb	r3, [r7, #16]	@ zero_extendqisi2
 2311 0e36 0133     		adds	r3, r3, #1
 2312 0e38 3B74     		strb	r3, [r7, #16]
 2313              	.L129:
 526:printer.c     **** 	for(uint8 x = 0; x < 32; x ++){
 2314              		.loc 1 526 0 is_stmt 0 discriminator 1
 2315 0e3a 3B7C     		ldrb	r3, [r7, #16]	@ zero_extendqisi2
 2316 0e3c 1F2B     		cmp	r3, #31
 2317 0e3e F3D9     		bls	.L130
 2318              	.LBE56:
 528:printer.c     **** 	}
 529:printer.c     ****     PRINTER_A_PutChar(LINE_FEED);
 2319              		.loc 1 529 0 is_stmt 1
 2320 0e40 414B     		ldr	r3, .L149+4
 2321 0e42 1B78     		ldrb	r3, [r3]	@ zero_extendqisi2
 2322 0e44 1846     		mov	r0, r3
 2323 0e46 FFF7FEFF 		bl	PRINTER_A_PutChar
 530:printer.c     ****     PRINTER_A_PutChar(LINE_FEED);
 2324              		.loc 1 530 0
 2325 0e4a 3F4B     		ldr	r3, .L149+4
 2326 0e4c 1B78     		ldrb	r3, [r3]	@ zero_extendqisi2
 2327 0e4e 1846     		mov	r0, r3
 2328 0e50 FFF7FEFF 		bl	PRINTER_A_PutChar
 2329              	.LBB57:
 531:printer.c     **** 	for(uint8 x = 0; x < 32; x ++){
 2330              		.loc 1 531 0
 2331 0e54 0023     		movs	r3, #0
 2332 0e56 FB73     		strb	r3, [r7, #15]
 2333 0e58 08E0     		b	.L131
 2334              	.L132:
 532:printer.c     **** 		PRINTER_A_PutChar(msn_footer4[x]);
 2335              		.loc 1 532 0 discriminator 3
 2336 0e5a FB7B     		ldrb	r3, [r7, #15]	@ zero_extendqisi2
ARM GAS  C:\Users\Diego\AppData\Local\Temp\ccz6pbcU.s 			page 56


 2337 0e5c 424A     		ldr	r2, .L149+36
 2338 0e5e D35C     		ldrb	r3, [r2, r3]	@ zero_extendqisi2
 2339 0e60 1846     		mov	r0, r3
 2340 0e62 FFF7FEFF 		bl	PRINTER_A_PutChar
 531:printer.c     **** 	for(uint8 x = 0; x < 32; x ++){
 2341              		.loc 1 531 0 discriminator 3
 2342 0e66 FB7B     		ldrb	r3, [r7, #15]	@ zero_extendqisi2
 2343 0e68 0133     		adds	r3, r3, #1
 2344 0e6a FB73     		strb	r3, [r7, #15]
 2345              	.L131:
 531:printer.c     **** 	for(uint8 x = 0; x < 32; x ++){
 2346              		.loc 1 531 0 is_stmt 0 discriminator 1
 2347 0e6c FB7B     		ldrb	r3, [r7, #15]	@ zero_extendqisi2
 2348 0e6e 1F2B     		cmp	r3, #31
 2349 0e70 F3D9     		bls	.L132
 2350              	.LBE57:
 533:printer.c     **** 	}
 534:printer.c     **** 	PRINTER_A_PutChar(LINE_FEED);    
 2351              		.loc 1 534 0 is_stmt 1
 2352 0e72 354B     		ldr	r3, .L149+4
 2353 0e74 1B78     		ldrb	r3, [r3]	@ zero_extendqisi2
 2354 0e76 1846     		mov	r0, r3
 2355 0e78 FFF7FEFF 		bl	PRINTER_A_PutChar
 2356              	.LBB58:
 535:printer.c     ****     for(uint8 x = 0; x < 32; x ++){
 2357              		.loc 1 535 0
 2358 0e7c 0023     		movs	r3, #0
 2359 0e7e BB73     		strb	r3, [r7, #14]
 2360 0e80 08E0     		b	.L133
 2361              	.L134:
 536:printer.c     **** 		PRINTER_A_PutChar(SEPARATOR[x]);
 2362              		.loc 1 536 0 discriminator 3
 2363 0e82 BB7B     		ldrb	r3, [r7, #14]	@ zero_extendqisi2
 2364 0e84 364A     		ldr	r2, .L149+28
 2365 0e86 D35C     		ldrb	r3, [r2, r3]	@ zero_extendqisi2
 2366 0e88 1846     		mov	r0, r3
 2367 0e8a FFF7FEFF 		bl	PRINTER_A_PutChar
 535:printer.c     ****     for(uint8 x = 0; x < 32; x ++){
 2368              		.loc 1 535 0 discriminator 3
 2369 0e8e BB7B     		ldrb	r3, [r7, #14]	@ zero_extendqisi2
 2370 0e90 0133     		adds	r3, r3, #1
 2371 0e92 BB73     		strb	r3, [r7, #14]
 2372              	.L133:
 535:printer.c     ****     for(uint8 x = 0; x < 32; x ++){
 2373              		.loc 1 535 0 is_stmt 0 discriminator 1
 2374 0e94 BB7B     		ldrb	r3, [r7, #14]	@ zero_extendqisi2
 2375 0e96 1F2B     		cmp	r3, #31
 2376 0e98 F3D9     		bls	.L134
 2377              	.LBE58:
 537:printer.c     **** 	}
 538:printer.c     ****     PRINTER_A_PutChar(LINE_FEED);
 2378              		.loc 1 538 0 is_stmt 1
 2379 0e9a 2B4B     		ldr	r3, .L149+4
 2380 0e9c 1B78     		ldrb	r3, [r3]	@ zero_extendqisi2
 2381 0e9e 1846     		mov	r0, r3
 2382 0ea0 FFF7FEFF 		bl	PRINTER_A_PutChar
 2383              	.LBB59:
ARM GAS  C:\Users\Diego\AppData\Local\Temp\ccz6pbcU.s 			page 57


 539:printer.c     **** 	for(uint8 x = 0; x < 32; x ++){
 2384              		.loc 1 539 0
 2385 0ea4 0023     		movs	r3, #0
 2386 0ea6 7B73     		strb	r3, [r7, #13]
 2387 0ea8 08E0     		b	.L135
 2388              	.L136:
 540:printer.c     **** 		PRINTER_A_PutChar(msn_footer[x]);
 2389              		.loc 1 540 0 discriminator 3
 2390 0eaa 7B7B     		ldrb	r3, [r7, #13]	@ zero_extendqisi2
 2391 0eac 2F4A     		ldr	r2, .L149+40
 2392 0eae D35C     		ldrb	r3, [r2, r3]	@ zero_extendqisi2
 2393 0eb0 1846     		mov	r0, r3
 2394 0eb2 FFF7FEFF 		bl	PRINTER_A_PutChar
 539:printer.c     **** 	for(uint8 x = 0; x < 32; x ++){
 2395              		.loc 1 539 0 discriminator 3
 2396 0eb6 7B7B     		ldrb	r3, [r7, #13]	@ zero_extendqisi2
 2397 0eb8 0133     		adds	r3, r3, #1
 2398 0eba 7B73     		strb	r3, [r7, #13]
 2399              	.L135:
 539:printer.c     **** 	for(uint8 x = 0; x < 32; x ++){
 2400              		.loc 1 539 0 is_stmt 0 discriminator 1
 2401 0ebc 7B7B     		ldrb	r3, [r7, #13]	@ zero_extendqisi2
 2402 0ebe 1F2B     		cmp	r3, #31
 2403 0ec0 F3D9     		bls	.L136
 2404              	.LBE59:
 541:printer.c     **** 	}
 542:printer.c     **** 	PRINTER_A_PutChar(LINE_FEED);
 2405              		.loc 1 542 0 is_stmt 1
 2406 0ec2 214B     		ldr	r3, .L149+4
 2407 0ec4 1B78     		ldrb	r3, [r3]	@ zero_extendqisi2
 2408 0ec6 1846     		mov	r0, r3
 2409 0ec8 FFF7FEFF 		bl	PRINTER_A_PutChar
 2410              	.LBB60:
 543:printer.c     **** 	for(uint8 x = 0; x < 32; x ++){
 2411              		.loc 1 543 0
 2412 0ecc 0023     		movs	r3, #0
 2413 0ece 3B73     		strb	r3, [r7, #12]
 2414 0ed0 08E0     		b	.L137
 2415              	.L138:
 544:printer.c     **** 		PRINTER_A_PutChar(msn_footer2[x]);
 2416              		.loc 1 544 0 discriminator 3
 2417 0ed2 3B7B     		ldrb	r3, [r7, #12]	@ zero_extendqisi2
 2418 0ed4 264A     		ldr	r2, .L149+44
 2419 0ed6 D35C     		ldrb	r3, [r2, r3]	@ zero_extendqisi2
 2420 0ed8 1846     		mov	r0, r3
 2421 0eda FFF7FEFF 		bl	PRINTER_A_PutChar
 543:printer.c     **** 	for(uint8 x = 0; x < 32; x ++){
 2422              		.loc 1 543 0 discriminator 3
 2423 0ede 3B7B     		ldrb	r3, [r7, #12]	@ zero_extendqisi2
 2424 0ee0 0133     		adds	r3, r3, #1
 2425 0ee2 3B73     		strb	r3, [r7, #12]
 2426              	.L137:
 543:printer.c     **** 	for(uint8 x = 0; x < 32; x ++){
 2427              		.loc 1 543 0 is_stmt 0 discriminator 1
 2428 0ee4 3B7B     		ldrb	r3, [r7, #12]	@ zero_extendqisi2
 2429 0ee6 1F2B     		cmp	r3, #31
 2430 0ee8 F3D9     		bls	.L138
ARM GAS  C:\Users\Diego\AppData\Local\Temp\ccz6pbcU.s 			page 58


 2431              	.LBE60:
 545:printer.c     **** 	}    
 546:printer.c     ****     PRINTER_A_PutChar(LINE_FEED);
 2432              		.loc 1 546 0 is_stmt 1
 2433 0eea 174B     		ldr	r3, .L149+4
 2434 0eec 1B78     		ldrb	r3, [r3]	@ zero_extendqisi2
 2435 0eee 1846     		mov	r0, r3
 2436 0ef0 FFF7FEFF 		bl	PRINTER_A_PutChar
 547:printer.c     ****     PRINTER_A_PutChar(LINE_FEED);
 2437              		.loc 1 547 0
 2438 0ef4 144B     		ldr	r3, .L149+4
 2439 0ef6 1B78     		ldrb	r3, [r3]	@ zero_extendqisi2
 2440 0ef8 1846     		mov	r0, r3
 2441 0efa FFF7FEFF 		bl	PRINTER_A_PutChar
 548:printer.c     ****     PRINTER_A_PutChar(LINE_FEED);
 2442              		.loc 1 548 0
 2443 0efe 124B     		ldr	r3, .L149+4
 2444 0f00 1B78     		ldrb	r3, [r3]	@ zero_extendqisi2
 2445 0f02 1846     		mov	r0, r3
 2446 0f04 FFF7FEFF 		bl	PRINTER_A_PutChar
 549:printer.c     ****     PRINTER_A_PutChar(LINE_FEED);
 2447              		.loc 1 549 0
 2448 0f08 0F4B     		ldr	r3, .L149+4
 2449 0f0a 1B78     		ldrb	r3, [r3]	@ zero_extendqisi2
 2450 0f0c 1846     		mov	r0, r3
 2451 0f0e FFF7FEFF 		bl	PRINTER_A_PutChar
 550:printer.c     ****     PRINTER_A_PutChar(LINE_FEED);
 2452              		.loc 1 550 0
 2453 0f12 0D4B     		ldr	r3, .L149+4
 2454 0f14 1B78     		ldrb	r3, [r3]	@ zero_extendqisi2
 2455 0f16 1846     		mov	r0, r3
 2456 0f18 FFF7FEFF 		bl	PRINTER_A_PutChar
 2457              	.LBB61:
 551:printer.c     ****     for(uint8 x = 0; x < 6; x ++){
 2458              		.loc 1 551 0
 2459 0f1c 0023     		movs	r3, #0
 2460 0f1e FB72     		strb	r3, [r7, #11]
 2461 0f20 08E0     		b	.L139
 2462              	.L140:
 552:printer.c     ****         sale_number_copy[x] = sale_number[x];
 2463              		.loc 1 552 0 discriminator 3
 2464 0f22 FB7A     		ldrb	r3, [r7, #11]	@ zero_extendqisi2
 2465 0f24 FA7A     		ldrb	r2, [r7, #11]	@ zero_extendqisi2
 2466 0f26 1349     		ldr	r1, .L149+48
 2467 0f28 895C     		ldrb	r1, [r1, r2]	@ zero_extendqisi2
 2468 0f2a 134A     		ldr	r2, .L149+52
 2469 0f2c D154     		strb	r1, [r2, r3]
 551:printer.c     ****     for(uint8 x = 0; x < 6; x ++){
 2470              		.loc 1 551 0 discriminator 3
 2471 0f2e FB7A     		ldrb	r3, [r7, #11]	@ zero_extendqisi2
 2472 0f30 0133     		adds	r3, r3, #1
 2473 0f32 FB72     		strb	r3, [r7, #11]
 2474              	.L139:
 551:printer.c     ****     for(uint8 x = 0; x < 6; x ++){
 2475              		.loc 1 551 0 is_stmt 0 discriminator 1
 2476 0f34 FB7A     		ldrb	r3, [r7, #11]	@ zero_extendqisi2
 2477 0f36 052B     		cmp	r3, #5
ARM GAS  C:\Users\Diego\AppData\Local\Temp\ccz6pbcU.s 			page 59


 2478 0f38 F3D9     		bls	.L140
 2479              	.LBE61:
 553:printer.c     ****     }
 554:printer.c     **** }
 2480              		.loc 1 554 0 is_stmt 1
 2481 0f3a 00BF     		nop
 2482 0f3c 4C37     		adds	r7, r7, #76
 2483              		.cfi_def_cfa_offset 12
 2484 0f3e BD46     		mov	sp, r7
 2485              		.cfi_def_cfa_register 13
 2486              		@ sp needed
 2487 0f40 90BD     		pop	{r4, r7, pc}
 2488              	.L150:
 2489 0f42 00BF     		.align	2
 2490              	.L149:
 2491 0f44 00000000 		.word	side
 2492 0f48 00000000 		.word	LINE_FEED
 2493 0f4c 00000000 		.word	msn_vol
 2494 0f50 00000000 		.word	DecVol
 2495 0f54 00000000 		.word	VolSimbol
 2496 0f58 00000000 		.word	msn_din
 2497 0f5c 00000000 		.word	PRN_CURRENCY
 2498 0f60 00000000 		.word	SEPARATOR
 2499 0f64 00000000 		.word	msn_footer3
 2500 0f68 00000000 		.word	msn_footer4
 2501 0f6c 00000000 		.word	msn_footer
 2502 0f70 00000000 		.word	msn_footer2
 2503 0f74 00000000 		.word	sale_number
 2504 0f78 00000000 		.word	sale_number_copy
 2505              		.cfi_endproc
 2506              	.LFE64:
 2507              		.size	PrintReceipt, .-PrintReceipt
 2508              		.section	.text.PrintShift,"ax",%progbits
 2509              		.align	2
 2510              		.global	PrintShift
 2511              		.thumb
 2512              		.thumb_func
 2513              		.type	PrintShift, %function
 2514              	PrintShift:
 2515              	.LFB65:
 555:printer.c     **** 
 556:printer.c     **** void PrintShift(void){
 2516              		.loc 1 556 0
 2517              		.cfi_startproc
 2518              		@ args = 0, pretend = 0, frame = 120
 2519              		@ frame_needed = 1, uses_anonymous_args = 0
 2520 0000 90B5     		push	{r4, r7, lr}
 2521              		.cfi_def_cfa_offset 12
 2522              		.cfi_offset 4, -12
 2523              		.cfi_offset 7, -8
 2524              		.cfi_offset 14, -4
 2525 0002 9FB0     		sub	sp, sp, #124
 2526              		.cfi_def_cfa_offset 136
 2527 0004 00AF     		add	r7, sp, #0
 2528              		.cfi_def_cfa_register 7
 557:printer.c     ****     uint8 screen_size,pos;
 558:printer.c     ****     screen_size = 0;
ARM GAS  C:\Users\Diego\AppData\Local\Temp\ccz6pbcU.s 			page 60


 2529              		.loc 1 558 0
 2530 0006 0023     		movs	r3, #0
 2531 0008 87F87730 		strb	r3, [r7, #119]
 559:printer.c     ****     char8 lectanterior[10],lectactual[10],memoria[10],resultado[10];
 560:printer.c     ****     uint32 actual,anterior,resta;
 561:printer.c     ****     while(screen_size == 0){
 2532              		.loc 1 561 0
 2533 000c 1BE0     		b	.L152
 2534              	.L155:
 2535              	.LBB62:
 562:printer.c     ****         for(uint8 LCDRx = 0; LCDRx < 6; LCDRx++){
 2536              		.loc 1 562 0
 2537 000e 0023     		movs	r3, #0
 2538 0010 87F87530 		strb	r3, [r7, #117]
 2539 0014 0BE0     		b	.L153
 2540              	.L154:
 563:printer.c     ****             screen_PutChar(ASK_TIME[LCDRx]);
 2541              		.loc 1 563 0 discriminator 3
 2542 0016 97F87530 		ldrb	r3, [r7, #117]	@ zero_extendqisi2
 2543 001a C94A     		ldr	r2, .L271
 2544 001c D35C     		ldrb	r3, [r2, r3]	@ zero_extendqisi2
 2545 001e 1846     		mov	r0, r3
 2546 0020 FFF7FEFF 		bl	screen_PutChar
 562:printer.c     ****         for(uint8 LCDRx = 0; LCDRx < 6; LCDRx++){
 2547              		.loc 1 562 0 discriminator 3
 2548 0024 97F87530 		ldrb	r3, [r7, #117]	@ zero_extendqisi2
 2549 0028 0133     		adds	r3, r3, #1
 2550 002a 87F87530 		strb	r3, [r7, #117]
 2551              	.L153:
 562:printer.c     ****         for(uint8 LCDRx = 0; LCDRx < 6; LCDRx++){
 2552              		.loc 1 562 0 is_stmt 0 discriminator 1
 2553 002e 97F87530 		ldrb	r3, [r7, #117]	@ zero_extendqisi2
 2554 0032 052B     		cmp	r3, #5
 2555 0034 EFD9     		bls	.L154
 2556              	.LBE62:
 564:printer.c     ****         }
 565:printer.c     ****         CyDelay(5);
 2557              		.loc 1 565 0 is_stmt 1
 2558 0036 0520     		movs	r0, #5
 2559 0038 FFF7FEFF 		bl	CyDelay
 566:printer.c     ****         screen_size = screen_GetRxBufferSize();
 2560              		.loc 1 566 0
 2561 003c FFF7FEFF 		bl	screen_GetRxBufferSize
 2562 0040 0346     		mov	r3, r0
 2563 0042 87F87730 		strb	r3, [r7, #119]
 2564              	.L152:
 561:printer.c     ****         for(uint8 LCDRx = 0; LCDRx < 6; LCDRx++){
 2565              		.loc 1 561 0
 2566 0046 97F87730 		ldrb	r3, [r7, #119]	@ zero_extendqisi2
 2567 004a 002B     		cmp	r3, #0
 2568 004c DFD0     		beq	.L155
 567:printer.c     ****     }
 568:printer.c     ****     if(screen_size >= 13 ){
 2569              		.loc 1 568 0
 2570 004e 97F87730 		ldrb	r3, [r7, #119]	@ zero_extendqisi2
 2571 0052 0C2B     		cmp	r3, #12
 2572 0054 54D9     		bls	.L159
ARM GAS  C:\Users\Diego\AppData\Local\Temp\ccz6pbcU.s 			page 61


 2573              	.LBB63:
 569:printer.c     ****         for(uint8 LCDRx = 0; LCDRx < screen_size; LCDRx++){
 2574              		.loc 1 569 0
 2575 0056 0023     		movs	r3, #0
 2576 0058 87F87430 		strb	r3, [r7, #116]
 2577 005c 0CE0     		b	.L157
 2578              	.L158:
 570:printer.c     ****             touch1[LCDRx] = screen_ReadRxData();
 2579              		.loc 1 570 0 discriminator 3
 2580 005e 97F87440 		ldrb	r4, [r7, #116]	@ zero_extendqisi2
 2581 0062 FFF7FEFF 		bl	screen_ReadRxData
 2582 0066 0346     		mov	r3, r0
 2583 0068 1A46     		mov	r2, r3
 2584 006a B64B     		ldr	r3, .L271+4
 2585 006c 1A55     		strb	r2, [r3, r4]
 569:printer.c     ****         for(uint8 LCDRx = 0; LCDRx < screen_size; LCDRx++){
 2586              		.loc 1 569 0 discriminator 3
 2587 006e 97F87430 		ldrb	r3, [r7, #116]	@ zero_extendqisi2
 2588 0072 0133     		adds	r3, r3, #1
 2589 0074 87F87430 		strb	r3, [r7, #116]
 2590              	.L157:
 569:printer.c     ****         for(uint8 LCDRx = 0; LCDRx < screen_size; LCDRx++){
 2591              		.loc 1 569 0 is_stmt 0 discriminator 1
 2592 0078 97F87420 		ldrb	r2, [r7, #116]	@ zero_extendqisi2
 2593 007c 97F87730 		ldrb	r3, [r7, #119]	@ zero_extendqisi2
 2594 0080 9A42     		cmp	r2, r3
 2595 0082 ECD3     		bcc	.L158
 2596              	.LBE63:
 571:printer.c     ****         }
 572:printer.c     ****         screen_size = 0;
 2597              		.loc 1 572 0 is_stmt 1
 2598 0084 0023     		movs	r3, #0
 2599 0086 87F87730 		strb	r3, [r7, #119]
 573:printer.c     ****     }
 574:printer.c     ****     while(touch1[8] == 0x00){
 2600              		.loc 1 574 0
 2601 008a 39E0     		b	.L159
 2602              	.L164:
 2603              	.LBB64:
 575:printer.c     ****          for(uint8 LCDRx = 0; LCDRx < 6; LCDRx++){
 2604              		.loc 1 575 0
 2605 008c 0023     		movs	r3, #0
 2606 008e 87F87330 		strb	r3, [r7, #115]
 2607 0092 0BE0     		b	.L160
 2608              	.L161:
 576:printer.c     ****             screen_PutChar(ASK_TIME[LCDRx]);
 2609              		.loc 1 576 0 discriminator 3
 2610 0094 97F87330 		ldrb	r3, [r7, #115]	@ zero_extendqisi2
 2611 0098 A94A     		ldr	r2, .L271
 2612 009a D35C     		ldrb	r3, [r2, r3]	@ zero_extendqisi2
 2613 009c 1846     		mov	r0, r3
 2614 009e FFF7FEFF 		bl	screen_PutChar
 575:printer.c     ****          for(uint8 LCDRx = 0; LCDRx < 6; LCDRx++){
 2615              		.loc 1 575 0 discriminator 3
 2616 00a2 97F87330 		ldrb	r3, [r7, #115]	@ zero_extendqisi2
 2617 00a6 0133     		adds	r3, r3, #1
 2618 00a8 87F87330 		strb	r3, [r7, #115]
ARM GAS  C:\Users\Diego\AppData\Local\Temp\ccz6pbcU.s 			page 62


 2619              	.L160:
 575:printer.c     ****          for(uint8 LCDRx = 0; LCDRx < 6; LCDRx++){
 2620              		.loc 1 575 0 is_stmt 0 discriminator 1
 2621 00ac 97F87330 		ldrb	r3, [r7, #115]	@ zero_extendqisi2
 2622 00b0 052B     		cmp	r3, #5
 2623 00b2 EFD9     		bls	.L161
 2624              	.LBE64:
 577:printer.c     ****         }
 578:printer.c     ****         CyDelay(4);
 2625              		.loc 1 578 0 is_stmt 1
 2626 00b4 0420     		movs	r0, #4
 2627 00b6 FFF7FEFF 		bl	CyDelay
 579:printer.c     ****         screen_size = screen_GetRxBufferSize();
 2628              		.loc 1 579 0
 2629 00ba FFF7FEFF 		bl	screen_GetRxBufferSize
 2630 00be 0346     		mov	r3, r0
 2631 00c0 87F87730 		strb	r3, [r7, #119]
 580:printer.c     ****         if(screen_size >= 13 ){
 2632              		.loc 1 580 0
 2633 00c4 97F87730 		ldrb	r3, [r7, #119]	@ zero_extendqisi2
 2634 00c8 0C2B     		cmp	r3, #12
 2635 00ca 19D9     		bls	.L159
 2636              	.LBB65:
 581:printer.c     ****             for(uint8 LCDRx = 0; LCDRx < screen_size; LCDRx++){
 2637              		.loc 1 581 0
 2638 00cc 0023     		movs	r3, #0
 2639 00ce 87F87230 		strb	r3, [r7, #114]
 2640 00d2 0CE0     		b	.L162
 2641              	.L163:
 582:printer.c     ****                 touch1[LCDRx] = screen_ReadRxData();
 2642              		.loc 1 582 0 discriminator 3
 2643 00d4 97F87240 		ldrb	r4, [r7, #114]	@ zero_extendqisi2
 2644 00d8 FFF7FEFF 		bl	screen_ReadRxData
 2645 00dc 0346     		mov	r3, r0
 2646 00de 1A46     		mov	r2, r3
 2647 00e0 984B     		ldr	r3, .L271+4
 2648 00e2 1A55     		strb	r2, [r3, r4]
 581:printer.c     ****             for(uint8 LCDRx = 0; LCDRx < screen_size; LCDRx++){
 2649              		.loc 1 581 0 discriminator 3
 2650 00e4 97F87230 		ldrb	r3, [r7, #114]	@ zero_extendqisi2
 2651 00e8 0133     		adds	r3, r3, #1
 2652 00ea 87F87230 		strb	r3, [r7, #114]
 2653              	.L162:
 581:printer.c     ****             for(uint8 LCDRx = 0; LCDRx < screen_size; LCDRx++){
 2654              		.loc 1 581 0 is_stmt 0 discriminator 1
 2655 00ee 97F87220 		ldrb	r2, [r7, #114]	@ zero_extendqisi2
 2656 00f2 97F87730 		ldrb	r3, [r7, #119]	@ zero_extendqisi2
 2657 00f6 9A42     		cmp	r2, r3
 2658 00f8 ECD3     		bcc	.L163
 2659              	.LBE65:
 583:printer.c     ****             }
 584:printer.c     ****             screen_size = 0;
 2660              		.loc 1 584 0 is_stmt 1
 2661 00fa 0023     		movs	r3, #0
 2662 00fc 87F87730 		strb	r3, [r7, #119]
 2663              	.L159:
 574:printer.c     ****          for(uint8 LCDRx = 0; LCDRx < 6; LCDRx++){
ARM GAS  C:\Users\Diego\AppData\Local\Temp\ccz6pbcU.s 			page 63


 2664              		.loc 1 574 0
 2665 0100 904B     		ldr	r3, .L271+4
 2666 0102 1B7A     		ldrb	r3, [r3, #8]	@ zero_extendqisi2
 2667 0104 002B     		cmp	r3, #0
 2668 0106 C1D0     		beq	.L164
 585:printer.c     ****         }
 586:printer.c     ****     }
 587:printer.c     **** 
 588:printer.c     ****     int_shiftnumber++;
 2669              		.loc 1 588 0
 2670 0108 8F4B     		ldr	r3, .L271+8
 2671 010a 1B78     		ldrb	r3, [r3]	@ zero_extendqisi2
 2672 010c 0133     		adds	r3, r3, #1
 2673 010e DAB2     		uxtb	r2, r3
 2674 0110 8D4B     		ldr	r3, .L271+8
 2675 0112 1A70     		strb	r2, [r3]
 589:printer.c     ****     shift_number[5]=(int_shiftnumber/10000)+48;
 2676              		.loc 1 589 0
 2677 0114 8C4B     		ldr	r3, .L271+8
 2678 0116 1B78     		ldrb	r3, [r3]	@ zero_extendqisi2
 2679 0118 8C4A     		ldr	r2, .L271+12
 2680 011a 82FB0312 		smull	r1, r2, r2, r3
 2681 011e 1213     		asrs	r2, r2, #12
 2682 0120 DB17     		asrs	r3, r3, #31
 2683 0122 D31A     		subs	r3, r2, r3
 2684 0124 DBB2     		uxtb	r3, r3
 2685 0126 3033     		adds	r3, r3, #48
 2686 0128 DAB2     		uxtb	r2, r3
 2687 012a 894B     		ldr	r3, .L271+16
 2688 012c 5A71     		strb	r2, [r3, #5]
 590:printer.c     **** 	shift_number[4]=((int_shiftnumber%10000)/1000)+48;
 2689              		.loc 1 590 0
 2690 012e 864B     		ldr	r3, .L271+8
 2691 0130 1B78     		ldrb	r3, [r3]	@ zero_extendqisi2
 2692 0132 1A46     		mov	r2, r3
 2693 0134 854B     		ldr	r3, .L271+12
 2694 0136 83FB0213 		smull	r1, r3, r3, r2
 2695 013a 1913     		asrs	r1, r3, #12
 2696 013c D317     		asrs	r3, r2, #31
 2697 013e CB1A     		subs	r3, r1, r3
 2698 0140 42F21071 		movw	r1, #10000
 2699 0144 01FB03F3 		mul	r3, r1, r3
 2700 0148 D31A     		subs	r3, r2, r3
 2701 014a 824A     		ldr	r2, .L271+20
 2702 014c 82FB0312 		smull	r1, r2, r2, r3
 2703 0150 9211     		asrs	r2, r2, #6
 2704 0152 DB17     		asrs	r3, r3, #31
 2705 0154 D31A     		subs	r3, r2, r3
 2706 0156 DBB2     		uxtb	r3, r3
 2707 0158 3033     		adds	r3, r3, #48
 2708 015a DAB2     		uxtb	r2, r3
 2709 015c 7C4B     		ldr	r3, .L271+16
 2710 015e 1A71     		strb	r2, [r3, #4]
 591:printer.c     **** 	shift_number[3]=(((int_shiftnumber%10000)%1000)/100)+48;
 2711              		.loc 1 591 0
 2712 0160 794B     		ldr	r3, .L271+8
 2713 0162 1B78     		ldrb	r3, [r3]	@ zero_extendqisi2
ARM GAS  C:\Users\Diego\AppData\Local\Temp\ccz6pbcU.s 			page 64


 2714 0164 1A46     		mov	r2, r3
 2715 0166 794B     		ldr	r3, .L271+12
 2716 0168 83FB0213 		smull	r1, r3, r3, r2
 2717 016c 1913     		asrs	r1, r3, #12
 2718 016e D317     		asrs	r3, r2, #31
 2719 0170 CB1A     		subs	r3, r1, r3
 2720 0172 42F21071 		movw	r1, #10000
 2721 0176 01FB03F3 		mul	r3, r1, r3
 2722 017a D31A     		subs	r3, r2, r3
 2723 017c 754A     		ldr	r2, .L271+20
 2724 017e 82FB0312 		smull	r1, r2, r2, r3
 2725 0182 9111     		asrs	r1, r2, #6
 2726 0184 DA17     		asrs	r2, r3, #31
 2727 0186 8A1A     		subs	r2, r1, r2
 2728 0188 4FF47A71 		mov	r1, #1000
 2729 018c 01FB02F2 		mul	r2, r1, r2
 2730 0190 9A1A     		subs	r2, r3, r2
 2731 0192 714B     		ldr	r3, .L271+24
 2732 0194 83FB0213 		smull	r1, r3, r3, r2
 2733 0198 5911     		asrs	r1, r3, #5
 2734 019a D317     		asrs	r3, r2, #31
 2735 019c CB1A     		subs	r3, r1, r3
 2736 019e DBB2     		uxtb	r3, r3
 2737 01a0 3033     		adds	r3, r3, #48
 2738 01a2 DAB2     		uxtb	r2, r3
 2739 01a4 6A4B     		ldr	r3, .L271+16
 2740 01a6 DA70     		strb	r2, [r3, #3]
 592:printer.c     **** 	shift_number[2]=((((int_shiftnumber%10000)%1000)%100)/10)+48;	
 2741              		.loc 1 592 0
 2742 01a8 674B     		ldr	r3, .L271+8
 2743 01aa 1B78     		ldrb	r3, [r3]	@ zero_extendqisi2
 2744 01ac 674A     		ldr	r2, .L271+12
 2745 01ae 82FB0312 		smull	r1, r2, r2, r3
 2746 01b2 1113     		asrs	r1, r2, #12
 2747 01b4 DA17     		asrs	r2, r3, #31
 2748 01b6 8A1A     		subs	r2, r1, r2
 2749 01b8 42F21071 		movw	r1, #10000
 2750 01bc 01FB02F2 		mul	r2, r1, r2
 2751 01c0 9A1A     		subs	r2, r3, r2
 2752 01c2 644B     		ldr	r3, .L271+20
 2753 01c4 83FB0213 		smull	r1, r3, r3, r2
 2754 01c8 9911     		asrs	r1, r3, #6
 2755 01ca D317     		asrs	r3, r2, #31
 2756 01cc CB1A     		subs	r3, r1, r3
 2757 01ce 4FF47A71 		mov	r1, #1000
 2758 01d2 01FB03F3 		mul	r3, r1, r3
 2759 01d6 D31A     		subs	r3, r2, r3
 2760 01d8 5F4A     		ldr	r2, .L271+24
 2761 01da 82FB0312 		smull	r1, r2, r2, r3
 2762 01de 5111     		asrs	r1, r2, #5
 2763 01e0 DA17     		asrs	r2, r3, #31
 2764 01e2 8A1A     		subs	r2, r1, r2
 2765 01e4 6421     		movs	r1, #100
 2766 01e6 01FB02F2 		mul	r2, r1, r2
 2767 01ea 9A1A     		subs	r2, r3, r2
 2768 01ec 5B4B     		ldr	r3, .L271+28
 2769 01ee 83FB0213 		smull	r1, r3, r3, r2
ARM GAS  C:\Users\Diego\AppData\Local\Temp\ccz6pbcU.s 			page 65


 2770 01f2 9910     		asrs	r1, r3, #2
 2771 01f4 D317     		asrs	r3, r2, #31
 2772 01f6 CB1A     		subs	r3, r1, r3
 2773 01f8 DBB2     		uxtb	r3, r3
 2774 01fa 3033     		adds	r3, r3, #48
 2775 01fc DAB2     		uxtb	r2, r3
 2776 01fe 544B     		ldr	r3, .L271+16
 2777 0200 9A70     		strb	r2, [r3, #2]
 593:printer.c     **** 	shift_number[1]=((((int_shiftnumber%10000)%1000)%100)%10)+48;
 2778              		.loc 1 593 0
 2779 0202 514B     		ldr	r3, .L271+8
 2780 0204 1B78     		ldrb	r3, [r3]	@ zero_extendqisi2
 2781 0206 514A     		ldr	r2, .L271+12
 2782 0208 82FB0312 		smull	r1, r2, r2, r3
 2783 020c 1113     		asrs	r1, r2, #12
 2784 020e DA17     		asrs	r2, r3, #31
 2785 0210 8A1A     		subs	r2, r1, r2
 2786 0212 42F21071 		movw	r1, #10000
 2787 0216 01FB02F2 		mul	r2, r1, r2
 2788 021a 9A1A     		subs	r2, r3, r2
 2789 021c 4D4B     		ldr	r3, .L271+20
 2790 021e 83FB0213 		smull	r1, r3, r3, r2
 2791 0222 9911     		asrs	r1, r3, #6
 2792 0224 D317     		asrs	r3, r2, #31
 2793 0226 CB1A     		subs	r3, r1, r3
 2794 0228 4FF47A71 		mov	r1, #1000
 2795 022c 01FB03F3 		mul	r3, r1, r3
 2796 0230 D31A     		subs	r3, r2, r3
 2797 0232 494A     		ldr	r2, .L271+24
 2798 0234 82FB0312 		smull	r1, r2, r2, r3
 2799 0238 5111     		asrs	r1, r2, #5
 2800 023a DA17     		asrs	r2, r3, #31
 2801 023c 8A1A     		subs	r2, r1, r2
 2802 023e 6421     		movs	r1, #100
 2803 0240 01FB02F2 		mul	r2, r1, r2
 2804 0244 9A1A     		subs	r2, r3, r2
 2805 0246 454B     		ldr	r3, .L271+28
 2806 0248 83FB0213 		smull	r1, r3, r3, r2
 2807 024c 9910     		asrs	r1, r3, #2
 2808 024e D317     		asrs	r3, r2, #31
 2809 0250 C91A     		subs	r1, r1, r3
 2810 0252 0B46     		mov	r3, r1
 2811 0254 9B00     		lsls	r3, r3, #2
 2812 0256 0B44     		add	r3, r3, r1
 2813 0258 5B00     		lsls	r3, r3, #1
 2814 025a D11A     		subs	r1, r2, r3
 2815 025c CBB2     		uxtb	r3, r1
 2816 025e 3033     		adds	r3, r3, #48
 2817 0260 DAB2     		uxtb	r2, r3
 2818 0262 3B4B     		ldr	r3, .L271+16
 2819 0264 5A70     		strb	r2, [r3, #1]
 2820              	.LBB66:
 594:printer.c     ****     for(uint8 i = 7; i<13; i++){
 2821              		.loc 1 594 0
 2822 0266 0723     		movs	r3, #7
 2823 0268 87F87130 		strb	r3, [r7, #113]
 2824 026c 10E0     		b	.L165
ARM GAS  C:\Users\Diego\AppData\Local\Temp\ccz6pbcU.s 			page 66


 2825              	.L166:
 595:printer.c     ****         EEPROM_1_WriteByte(shift_number[i-6],i);
 2826              		.loc 1 595 0 discriminator 3
 2827 026e 97F87130 		ldrb	r3, [r7, #113]	@ zero_extendqisi2
 2828 0272 063B     		subs	r3, r3, #6
 2829 0274 364A     		ldr	r2, .L271+16
 2830 0276 D35C     		ldrb	r3, [r2, r3]	@ zero_extendqisi2
 2831 0278 97F87120 		ldrb	r2, [r7, #113]	@ zero_extendqisi2
 2832 027c 92B2     		uxth	r2, r2
 2833 027e 1146     		mov	r1, r2
 2834 0280 1846     		mov	r0, r3
 2835 0282 FFF7FEFF 		bl	EEPROM_1_WriteByte
 594:printer.c     ****     for(uint8 i = 7; i<13; i++){
 2836              		.loc 1 594 0 discriminator 3
 2837 0286 97F87130 		ldrb	r3, [r7, #113]	@ zero_extendqisi2
 2838 028a 0133     		adds	r3, r3, #1
 2839 028c 87F87130 		strb	r3, [r7, #113]
 2840              	.L165:
 594:printer.c     ****     for(uint8 i = 7; i<13; i++){
 2841              		.loc 1 594 0 is_stmt 0 discriminator 1
 2842 0290 97F87130 		ldrb	r3, [r7, #113]	@ zero_extendqisi2
 2843 0294 0C2B     		cmp	r3, #12
 2844 0296 EAD9     		bls	.L166
 2845              	.LBE66:
 596:printer.c     ****     }
 597:printer.c     ****     PRINTER_A_PutChar(LINE_FEED);
 2846              		.loc 1 597 0 is_stmt 1
 2847 0298 314B     		ldr	r3, .L271+32
 2848 029a 1B78     		ldrb	r3, [r3]	@ zero_extendqisi2
 2849 029c 1846     		mov	r0, r3
 2850 029e FFF7FEFF 		bl	PRINTER_A_PutChar
 2851              	.LBB67:
 598:printer.c     **** 	for(uint8 x = 0; x < 32; x ++){
 2852              		.loc 1 598 0
 2853 02a2 0023     		movs	r3, #0
 2854 02a4 87F87030 		strb	r3, [r7, #112]
 2855 02a8 0BE0     		b	.L167
 2856              	.L168:
 599:printer.c     **** 		PRINTER_A_PutChar(msn_EDS[x]);   // Encabezado de estacin
 2857              		.loc 1 599 0 discriminator 3
 2858 02aa 97F87030 		ldrb	r3, [r7, #112]	@ zero_extendqisi2
 2859 02ae 2D4A     		ldr	r2, .L271+36
 2860 02b0 D35C     		ldrb	r3, [r2, r3]	@ zero_extendqisi2
 2861 02b2 1846     		mov	r0, r3
 2862 02b4 FFF7FEFF 		bl	PRINTER_A_PutChar
 598:printer.c     **** 	for(uint8 x = 0; x < 32; x ++){
 2863              		.loc 1 598 0 discriminator 3
 2864 02b8 97F87030 		ldrb	r3, [r7, #112]	@ zero_extendqisi2
 2865 02bc 0133     		adds	r3, r3, #1
 2866 02be 87F87030 		strb	r3, [r7, #112]
 2867              	.L167:
 598:printer.c     **** 	for(uint8 x = 0; x < 32; x ++){
 2868              		.loc 1 598 0 is_stmt 0 discriminator 1
 2869 02c2 97F87030 		ldrb	r3, [r7, #112]	@ zero_extendqisi2
 2870 02c6 1F2B     		cmp	r3, #31
 2871 02c8 EFD9     		bls	.L168
 2872              	.LBE67:
ARM GAS  C:\Users\Diego\AppData\Local\Temp\ccz6pbcU.s 			page 67


 600:printer.c     **** 	}
 601:printer.c     **** 	PRINTER_A_PutChar(LINE_FEED);
 2873              		.loc 1 601 0 is_stmt 1
 2874 02ca 254B     		ldr	r3, .L271+32
 2875 02cc 1B78     		ldrb	r3, [r3]	@ zero_extendqisi2
 2876 02ce 1846     		mov	r0, r3
 2877 02d0 FFF7FEFF 		bl	PRINTER_A_PutChar
 2878              	.LBB68:
 602:printer.c     **** 	for(uint8 x = 0; x < 32; x ++){
 2879              		.loc 1 602 0
 2880 02d4 0023     		movs	r3, #0
 2881 02d6 87F86F30 		strb	r3, [r7, #111]
 2882 02da 0BE0     		b	.L169
 2883              	.L170:
 603:printer.c     **** 		PRINTER_A_PutChar(msn_EDS2[x]);
 2884              		.loc 1 603 0 discriminator 3
 2885 02dc 97F86F30 		ldrb	r3, [r7, #111]	@ zero_extendqisi2
 2886 02e0 214A     		ldr	r2, .L271+40
 2887 02e2 D35C     		ldrb	r3, [r2, r3]	@ zero_extendqisi2
 2888 02e4 1846     		mov	r0, r3
 2889 02e6 FFF7FEFF 		bl	PRINTER_A_PutChar
 602:printer.c     **** 	for(uint8 x = 0; x < 32; x ++){
 2890              		.loc 1 602 0 discriminator 3
 2891 02ea 97F86F30 		ldrb	r3, [r7, #111]	@ zero_extendqisi2
 2892 02ee 0133     		adds	r3, r3, #1
 2893 02f0 87F86F30 		strb	r3, [r7, #111]
 2894              	.L169:
 602:printer.c     **** 	for(uint8 x = 0; x < 32; x ++){
 2895              		.loc 1 602 0 is_stmt 0 discriminator 1
 2896 02f4 97F86F30 		ldrb	r3, [r7, #111]	@ zero_extendqisi2
 2897 02f8 1F2B     		cmp	r3, #31
 2898 02fa EFD9     		bls	.L170
 2899              	.LBE68:
 604:printer.c     **** 	}
 605:printer.c     **** 	PRINTER_A_PutChar(LINE_FEED);
 2900              		.loc 1 605 0 is_stmt 1
 2901 02fc 184B     		ldr	r3, .L271+32
 2902 02fe 1B78     		ldrb	r3, [r3]	@ zero_extendqisi2
 2903 0300 1846     		mov	r0, r3
 2904 0302 FFF7FEFF 		bl	PRINTER_A_PutChar
 2905              	.LBB69:
 606:printer.c     **** 	for(uint8 x = 0; x < 32; x ++){
 2906              		.loc 1 606 0
 2907 0306 0023     		movs	r3, #0
 2908 0308 87F86E30 		strb	r3, [r7, #110]
 2909 030c 0BE0     		b	.L171
 2910              	.L172:
 607:printer.c     **** 		PRINTER_A_PutChar(msn_EDS3[x]);
 2911              		.loc 1 607 0 discriminator 3
 2912 030e 97F86E30 		ldrb	r3, [r7, #110]	@ zero_extendqisi2
 2913 0312 164A     		ldr	r2, .L271+44
 2914 0314 D35C     		ldrb	r3, [r2, r3]	@ zero_extendqisi2
 2915 0316 1846     		mov	r0, r3
 2916 0318 FFF7FEFF 		bl	PRINTER_A_PutChar
 606:printer.c     **** 	for(uint8 x = 0; x < 32; x ++){
 2917              		.loc 1 606 0 discriminator 3
 2918 031c 97F86E30 		ldrb	r3, [r7, #110]	@ zero_extendqisi2
ARM GAS  C:\Users\Diego\AppData\Local\Temp\ccz6pbcU.s 			page 68


 2919 0320 0133     		adds	r3, r3, #1
 2920 0322 87F86E30 		strb	r3, [r7, #110]
 2921              	.L171:
 606:printer.c     **** 	for(uint8 x = 0; x < 32; x ++){
 2922              		.loc 1 606 0 is_stmt 0 discriminator 1
 2923 0326 97F86E30 		ldrb	r3, [r7, #110]	@ zero_extendqisi2
 2924 032a 1F2B     		cmp	r3, #31
 2925 032c EFD9     		bls	.L172
 2926              	.LBE69:
 608:printer.c     **** 	}
 609:printer.c     **** 	PRINTER_A_PutChar(LINE_FEED);
 2927              		.loc 1 609 0 is_stmt 1
 2928 032e 0C4B     		ldr	r3, .L271+32
 2929 0330 1B78     		ldrb	r3, [r3]	@ zero_extendqisi2
 2930 0332 1846     		mov	r0, r3
 2931 0334 FFF7FEFF 		bl	PRINTER_A_PutChar
 2932              	.LBB70:
 610:printer.c     **** 	for(uint8 x = 0; x < 32; x ++){
 2933              		.loc 1 610 0
 2934 0338 0023     		movs	r3, #0
 2935 033a 87F86D30 		strb	r3, [r7, #109]
 2936 033e 23E0     		b	.L173
 2937              	.L272:
 2938              		.align	2
 2939              	.L271:
 2940 0340 00000000 		.word	ASK_TIME
 2941 0344 00000000 		.word	touch1
 2942 0348 00000000 		.word	int_shiftnumber
 2943 034c AD8BDB68 		.word	1759218605
 2944 0350 00000000 		.word	shift_number
 2945 0354 D34D6210 		.word	274877907
 2946 0358 1F85EB51 		.word	1374389535
 2947 035c 67666666 		.word	1717986919
 2948 0360 00000000 		.word	LINE_FEED
 2949 0364 00000000 		.word	msn_EDS
 2950 0368 00000000 		.word	msn_EDS2
 2951 036c 00000000 		.word	msn_EDS3
 2952              	.L174:
 611:printer.c     **** 		PRINTER_A_PutChar(msn_EDS4[x]);
 2953              		.loc 1 611 0 discriminator 3
 2954 0370 97F86D30 		ldrb	r3, [r7, #109]	@ zero_extendqisi2
 2955 0374 C44A     		ldr	r2, .L273
 2956 0376 D35C     		ldrb	r3, [r2, r3]	@ zero_extendqisi2
 2957 0378 1846     		mov	r0, r3
 2958 037a FFF7FEFF 		bl	PRINTER_A_PutChar
 610:printer.c     **** 	for(uint8 x = 0; x < 32; x ++){
 2959              		.loc 1 610 0 discriminator 3
 2960 037e 97F86D30 		ldrb	r3, [r7, #109]	@ zero_extendqisi2
 2961 0382 0133     		adds	r3, r3, #1
 2962 0384 87F86D30 		strb	r3, [r7, #109]
 2963              	.L173:
 610:printer.c     **** 	for(uint8 x = 0; x < 32; x ++){
 2964              		.loc 1 610 0 is_stmt 0 discriminator 1
 2965 0388 97F86D30 		ldrb	r3, [r7, #109]	@ zero_extendqisi2
 2966 038c 1F2B     		cmp	r3, #31
 2967 038e EFD9     		bls	.L174
 2968              	.LBE70:
ARM GAS  C:\Users\Diego\AppData\Local\Temp\ccz6pbcU.s 			page 69


 612:printer.c     **** 	}
 613:printer.c     **** 	PRINTER_A_PutChar(LINE_FEED);  
 2969              		.loc 1 613 0 is_stmt 1
 2970 0390 BE4B     		ldr	r3, .L273+4
 2971 0392 1B78     		ldrb	r3, [r3]	@ zero_extendqisi2
 2972 0394 1846     		mov	r0, r3
 2973 0396 FFF7FEFF 		bl	PRINTER_A_PutChar
 2974              	.LBB71:
 614:printer.c     **** 	for(uint8 x = 0; x < 32; x ++){
 2975              		.loc 1 614 0
 2976 039a 0023     		movs	r3, #0
 2977 039c 87F86C30 		strb	r3, [r7, #108]
 2978 03a0 0BE0     		b	.L175
 2979              	.L176:
 615:printer.c     **** 		PRINTER_A_PutChar(SEPARATOR[x]); //Separador de seccin
 2980              		.loc 1 615 0 discriminator 3
 2981 03a2 97F86C30 		ldrb	r3, [r7, #108]	@ zero_extendqisi2
 2982 03a6 BA4A     		ldr	r2, .L273+8
 2983 03a8 D35C     		ldrb	r3, [r2, r3]	@ zero_extendqisi2
 2984 03aa 1846     		mov	r0, r3
 2985 03ac FFF7FEFF 		bl	PRINTER_A_PutChar
 614:printer.c     **** 	for(uint8 x = 0; x < 32; x ++){
 2986              		.loc 1 614 0 discriminator 3
 2987 03b0 97F86C30 		ldrb	r3, [r7, #108]	@ zero_extendqisi2
 2988 03b4 0133     		adds	r3, r3, #1
 2989 03b6 87F86C30 		strb	r3, [r7, #108]
 2990              	.L175:
 614:printer.c     **** 	for(uint8 x = 0; x < 32; x ++){
 2991              		.loc 1 614 0 is_stmt 0 discriminator 1
 2992 03ba 97F86C30 		ldrb	r3, [r7, #108]	@ zero_extendqisi2
 2993 03be 1F2B     		cmp	r3, #31
 2994 03c0 EFD9     		bls	.L176
 2995              	.LBE71:
 616:printer.c     **** 	}
 617:printer.c     ****     PRINTER_A_PutChar(LINE_FEED);
 2996              		.loc 1 617 0 is_stmt 1
 2997 03c2 B24B     		ldr	r3, .L273+4
 2998 03c4 1B78     		ldrb	r3, [r3]	@ zero_extendqisi2
 2999 03c6 1846     		mov	r0, r3
 3000 03c8 FFF7FEFF 		bl	PRINTER_A_PutChar
 3001              	.LBB72:
 618:printer.c     ****     /********** FECHA ***************/
 619:printer.c     **** 	for(uint8 x = 0; x < 13; x ++){
 3002              		.loc 1 619 0
 3003 03cc 0023     		movs	r3, #0
 3004 03ce 87F86B30 		strb	r3, [r7, #107]
 3005 03d2 0BE0     		b	.L177
 3006              	.L178:
 620:printer.c     **** 		PRINTER_A_PutChar(msn_fecha[x]);
 3007              		.loc 1 620 0 discriminator 3
 3008 03d4 97F86B30 		ldrb	r3, [r7, #107]	@ zero_extendqisi2
 3009 03d8 AE4A     		ldr	r2, .L273+12
 3010 03da D35C     		ldrb	r3, [r2, r3]	@ zero_extendqisi2
 3011 03dc 1846     		mov	r0, r3
 3012 03de FFF7FEFF 		bl	PRINTER_A_PutChar
 619:printer.c     **** 		PRINTER_A_PutChar(msn_fecha[x]);
 3013              		.loc 1 619 0 discriminator 3
ARM GAS  C:\Users\Diego\AppData\Local\Temp\ccz6pbcU.s 			page 70


 3014 03e2 97F86B30 		ldrb	r3, [r7, #107]	@ zero_extendqisi2
 3015 03e6 0133     		adds	r3, r3, #1
 3016 03e8 87F86B30 		strb	r3, [r7, #107]
 3017              	.L177:
 619:printer.c     **** 		PRINTER_A_PutChar(msn_fecha[x]);
 3018              		.loc 1 619 0 is_stmt 0 discriminator 1
 3019 03ec 97F86B30 		ldrb	r3, [r7, #107]	@ zero_extendqisi2
 3020 03f0 0C2B     		cmp	r3, #12
 3021 03f2 EFD9     		bls	.L178
 3022              	.LBE72:
 621:printer.c     **** 	}
 622:printer.c     ****     PRINTER_A_PutChar(((touch1[6] >> 4) + 0x30));
 3023              		.loc 1 622 0 is_stmt 1
 3024 03f4 A84B     		ldr	r3, .L273+16
 3025 03f6 9B79     		ldrb	r3, [r3, #6]	@ zero_extendqisi2
 3026 03f8 1B09     		lsrs	r3, r3, #4
 3027 03fa DBB2     		uxtb	r3, r3
 3028 03fc 3033     		adds	r3, r3, #48
 3029 03fe DBB2     		uxtb	r3, r3
 3030 0400 1846     		mov	r0, r3
 3031 0402 FFF7FEFF 		bl	PRINTER_A_PutChar
 623:printer.c     ****     PRINTER_A_PutChar(((touch1[6] & 0x0F) + 0x30));
 3032              		.loc 1 623 0
 3033 0406 A44B     		ldr	r3, .L273+16
 3034 0408 9B79     		ldrb	r3, [r3, #6]	@ zero_extendqisi2
 3035 040a 03F00F03 		and	r3, r3, #15
 3036 040e DBB2     		uxtb	r3, r3
 3037 0410 3033     		adds	r3, r3, #48
 3038 0412 DBB2     		uxtb	r3, r3
 3039 0414 1846     		mov	r0, r3
 3040 0416 FFF7FEFF 		bl	PRINTER_A_PutChar
 624:printer.c     ****     PRINTER_A_PutChar('/');
 3041              		.loc 1 624 0
 3042 041a 2F20     		movs	r0, #47
 3043 041c FFF7FEFF 		bl	PRINTER_A_PutChar
 625:printer.c     ****     PRINTER_A_PutChar(((touch1[7] >> 4) + 0x30)) ;
 3044              		.loc 1 625 0
 3045 0420 9D4B     		ldr	r3, .L273+16
 3046 0422 DB79     		ldrb	r3, [r3, #7]	@ zero_extendqisi2
 3047 0424 1B09     		lsrs	r3, r3, #4
 3048 0426 DBB2     		uxtb	r3, r3
 3049 0428 3033     		adds	r3, r3, #48
 3050 042a DBB2     		uxtb	r3, r3
 3051 042c 1846     		mov	r0, r3
 3052 042e FFF7FEFF 		bl	PRINTER_A_PutChar
 626:printer.c     ****     PRINTER_A_PutChar(((touch1[7] & 0x0F) + 0x30));
 3053              		.loc 1 626 0
 3054 0432 994B     		ldr	r3, .L273+16
 3055 0434 DB79     		ldrb	r3, [r3, #7]	@ zero_extendqisi2
 3056 0436 03F00F03 		and	r3, r3, #15
 3057 043a DBB2     		uxtb	r3, r3
 3058 043c 3033     		adds	r3, r3, #48
 3059 043e DBB2     		uxtb	r3, r3
 3060 0440 1846     		mov	r0, r3
 3061 0442 FFF7FEFF 		bl	PRINTER_A_PutChar
 627:printer.c     ****     PRINTER_A_PutChar('/');
 3062              		.loc 1 627 0
ARM GAS  C:\Users\Diego\AppData\Local\Temp\ccz6pbcU.s 			page 71


 3063 0446 2F20     		movs	r0, #47
 3064 0448 FFF7FEFF 		bl	PRINTER_A_PutChar
 628:printer.c     ****     PRINTER_A_PutChar(((touch1[8] >> 4) + 0x30)) ;
 3065              		.loc 1 628 0
 3066 044c 924B     		ldr	r3, .L273+16
 3067 044e 1B7A     		ldrb	r3, [r3, #8]	@ zero_extendqisi2
 3068 0450 1B09     		lsrs	r3, r3, #4
 3069 0452 DBB2     		uxtb	r3, r3
 3070 0454 3033     		adds	r3, r3, #48
 3071 0456 DBB2     		uxtb	r3, r3
 3072 0458 1846     		mov	r0, r3
 3073 045a FFF7FEFF 		bl	PRINTER_A_PutChar
 629:printer.c     **** 	PRINTER_A_PutChar(((touch1[8] & 0x0F) + 0x30));
 3074              		.loc 1 629 0
 3075 045e 8E4B     		ldr	r3, .L273+16
 3076 0460 1B7A     		ldrb	r3, [r3, #8]	@ zero_extendqisi2
 3077 0462 03F00F03 		and	r3, r3, #15
 3078 0466 DBB2     		uxtb	r3, r3
 3079 0468 3033     		adds	r3, r3, #48
 3080 046a DBB2     		uxtb	r3, r3
 3081 046c 1846     		mov	r0, r3
 3082 046e FFF7FEFF 		bl	PRINTER_A_PutChar
 630:printer.c     **** 
 631:printer.c     **** 	PRINTER_A_PutChar(LINE_FEED);
 3083              		.loc 1 631 0
 3084 0472 864B     		ldr	r3, .L273+4
 3085 0474 1B78     		ldrb	r3, [r3]	@ zero_extendqisi2
 3086 0476 1846     		mov	r0, r3
 3087 0478 FFF7FEFF 		bl	PRINTER_A_PutChar
 3088              	.LBB73:
 632:printer.c     ****     /********** HORA ***************/
 633:printer.c     **** 	for(uint8 x = 0; x < 13; x ++){
 3089              		.loc 1 633 0
 3090 047c 0023     		movs	r3, #0
 3091 047e 87F86A30 		strb	r3, [r7, #106]
 3092 0482 0BE0     		b	.L179
 3093              	.L180:
 634:printer.c     **** 		PRINTER_A_PutChar(msn_hora[x]);
 3094              		.loc 1 634 0 discriminator 3
 3095 0484 97F86A30 		ldrb	r3, [r7, #106]	@ zero_extendqisi2
 3096 0488 844A     		ldr	r2, .L273+20
 3097 048a D35C     		ldrb	r3, [r2, r3]	@ zero_extendqisi2
 3098 048c 1846     		mov	r0, r3
 3099 048e FFF7FEFF 		bl	PRINTER_A_PutChar
 633:printer.c     **** 		PRINTER_A_PutChar(msn_hora[x]);
 3100              		.loc 1 633 0 discriminator 3
 3101 0492 97F86A30 		ldrb	r3, [r7, #106]	@ zero_extendqisi2
 3102 0496 0133     		adds	r3, r3, #1
 3103 0498 87F86A30 		strb	r3, [r7, #106]
 3104              	.L179:
 633:printer.c     **** 		PRINTER_A_PutChar(msn_hora[x]);
 3105              		.loc 1 633 0 is_stmt 0 discriminator 1
 3106 049c 97F86A30 		ldrb	r3, [r7, #106]	@ zero_extendqisi2
 3107 04a0 0C2B     		cmp	r3, #12
 3108 04a2 EFD9     		bls	.L180
 3109              	.LBE73:
 635:printer.c     **** 	}
ARM GAS  C:\Users\Diego\AppData\Local\Temp\ccz6pbcU.s 			page 72


 636:printer.c     ****     PRINTER_A_PutChar(((touch1[10] >> 4) + 0x30)) ;
 3110              		.loc 1 636 0 is_stmt 1
 3111 04a4 7C4B     		ldr	r3, .L273+16
 3112 04a6 9B7A     		ldrb	r3, [r3, #10]	@ zero_extendqisi2
 3113 04a8 1B09     		lsrs	r3, r3, #4
 3114 04aa DBB2     		uxtb	r3, r3
 3115 04ac 3033     		adds	r3, r3, #48
 3116 04ae DBB2     		uxtb	r3, r3
 3117 04b0 1846     		mov	r0, r3
 3118 04b2 FFF7FEFF 		bl	PRINTER_A_PutChar
 637:printer.c     ****     PRINTER_A_PutChar(((touch1[10] & 0x0F) + 0x30));
 3119              		.loc 1 637 0
 3120 04b6 784B     		ldr	r3, .L273+16
 3121 04b8 9B7A     		ldrb	r3, [r3, #10]	@ zero_extendqisi2
 3122 04ba 03F00F03 		and	r3, r3, #15
 3123 04be DBB2     		uxtb	r3, r3
 3124 04c0 3033     		adds	r3, r3, #48
 3125 04c2 DBB2     		uxtb	r3, r3
 3126 04c4 1846     		mov	r0, r3
 3127 04c6 FFF7FEFF 		bl	PRINTER_A_PutChar
 638:printer.c     ****     PRINTER_A_PutChar(':');
 3128              		.loc 1 638 0
 3129 04ca 3A20     		movs	r0, #58
 3130 04cc FFF7FEFF 		bl	PRINTER_A_PutChar
 639:printer.c     ****     PRINTER_A_PutChar(((touch1[11] >> 4) + 0x30)) ;
 3131              		.loc 1 639 0
 3132 04d0 714B     		ldr	r3, .L273+16
 3133 04d2 DB7A     		ldrb	r3, [r3, #11]	@ zero_extendqisi2
 3134 04d4 1B09     		lsrs	r3, r3, #4
 3135 04d6 DBB2     		uxtb	r3, r3
 3136 04d8 3033     		adds	r3, r3, #48
 3137 04da DBB2     		uxtb	r3, r3
 3138 04dc 1846     		mov	r0, r3
 3139 04de FFF7FEFF 		bl	PRINTER_A_PutChar
 640:printer.c     ****     PRINTER_A_PutChar(((touch1[11] & 0x0F) + 0x30));
 3140              		.loc 1 640 0
 3141 04e2 6D4B     		ldr	r3, .L273+16
 3142 04e4 DB7A     		ldrb	r3, [r3, #11]	@ zero_extendqisi2
 3143 04e6 03F00F03 		and	r3, r3, #15
 3144 04ea DBB2     		uxtb	r3, r3
 3145 04ec 3033     		adds	r3, r3, #48
 3146 04ee DBB2     		uxtb	r3, r3
 3147 04f0 1846     		mov	r0, r3
 3148 04f2 FFF7FEFF 		bl	PRINTER_A_PutChar
 641:printer.c     ****     PRINTER_A_PutChar(':');
 3149              		.loc 1 641 0
 3150 04f6 3A20     		movs	r0, #58
 3151 04f8 FFF7FEFF 		bl	PRINTER_A_PutChar
 642:printer.c     ****     PRINTER_A_PutChar(((touch1[12] >> 4) + 0x30));
 3152              		.loc 1 642 0
 3153 04fc 664B     		ldr	r3, .L273+16
 3154 04fe 1B7B     		ldrb	r3, [r3, #12]	@ zero_extendqisi2
 3155 0500 1B09     		lsrs	r3, r3, #4
 3156 0502 DBB2     		uxtb	r3, r3
 3157 0504 3033     		adds	r3, r3, #48
 3158 0506 DBB2     		uxtb	r3, r3
 3159 0508 1846     		mov	r0, r3
ARM GAS  C:\Users\Diego\AppData\Local\Temp\ccz6pbcU.s 			page 73


 3160 050a FFF7FEFF 		bl	PRINTER_A_PutChar
 643:printer.c     **** 	PRINTER_A_PutChar(((touch1[12] & 0x0F) + 0x30));
 3161              		.loc 1 643 0
 3162 050e 624B     		ldr	r3, .L273+16
 3163 0510 1B7B     		ldrb	r3, [r3, #12]	@ zero_extendqisi2
 3164 0512 03F00F03 		and	r3, r3, #15
 3165 0516 DBB2     		uxtb	r3, r3
 3166 0518 3033     		adds	r3, r3, #48
 3167 051a DBB2     		uxtb	r3, r3
 3168 051c 1846     		mov	r0, r3
 3169 051e FFF7FEFF 		bl	PRINTER_A_PutChar
 644:printer.c     ****     PRINTER_A_PutChar(LINE_FEED);
 3170              		.loc 1 644 0
 3171 0522 5A4B     		ldr	r3, .L273+4
 3172 0524 1B78     		ldrb	r3, [r3]	@ zero_extendqisi2
 3173 0526 1846     		mov	r0, r3
 3174 0528 FFF7FEFF 		bl	PRINTER_A_PutChar
 3175              	.LBB74:
 645:printer.c     ****     for(uint8 x = 0; x < 32; x ++){
 3176              		.loc 1 645 0
 3177 052c 0023     		movs	r3, #0
 3178 052e 87F86930 		strb	r3, [r7, #105]
 3179 0532 0BE0     		b	.L181
 3180              	.L182:
 646:printer.c     **** 		PRINTER_A_PutChar(SEPARATOR[x]);
 3181              		.loc 1 646 0 discriminator 3
 3182 0534 97F86930 		ldrb	r3, [r7, #105]	@ zero_extendqisi2
 3183 0538 554A     		ldr	r2, .L273+8
 3184 053a D35C     		ldrb	r3, [r2, r3]	@ zero_extendqisi2
 3185 053c 1846     		mov	r0, r3
 3186 053e FFF7FEFF 		bl	PRINTER_A_PutChar
 645:printer.c     ****     for(uint8 x = 0; x < 32; x ++){
 3187              		.loc 1 645 0 discriminator 3
 3188 0542 97F86930 		ldrb	r3, [r7, #105]	@ zero_extendqisi2
 3189 0546 0133     		adds	r3, r3, #1
 3190 0548 87F86930 		strb	r3, [r7, #105]
 3191              	.L181:
 645:printer.c     ****     for(uint8 x = 0; x < 32; x ++){
 3192              		.loc 1 645 0 is_stmt 0 discriminator 1
 3193 054c 97F86930 		ldrb	r3, [r7, #105]	@ zero_extendqisi2
 3194 0550 1F2B     		cmp	r3, #31
 3195 0552 EFD9     		bls	.L182
 3196              	.LBE74:
 647:printer.c     **** 	} 
 648:printer.c     ****     PRINTER_A_PutChar(LINE_FEED);
 3197              		.loc 1 648 0 is_stmt 1
 3198 0554 4D4B     		ldr	r3, .L273+4
 3199 0556 1B78     		ldrb	r3, [r3]	@ zero_extendqisi2
 3200 0558 1846     		mov	r0, r3
 3201 055a FFF7FEFF 		bl	PRINTER_A_PutChar
 3202              	.LBB75:
 649:printer.c     ****     ////////////////////////////////////////
 650:printer.c     **** 	for(uint8 x = 0; x < 13; x ++){
 3203              		.loc 1 650 0
 3204 055e 0023     		movs	r3, #0
 3205 0560 87F86830 		strb	r3, [r7, #104]
 3206 0564 0BE0     		b	.L183
ARM GAS  C:\Users\Diego\AppData\Local\Temp\ccz6pbcU.s 			page 74


 3207              	.L184:
 651:printer.c     **** 		PRINTER_A_PutChar(msn_cierre[x]);
 3208              		.loc 1 651 0 discriminator 3
 3209 0566 97F86830 		ldrb	r3, [r7, #104]	@ zero_extendqisi2
 3210 056a 4D4A     		ldr	r2, .L273+24
 3211 056c D35C     		ldrb	r3, [r2, r3]	@ zero_extendqisi2
 3212 056e 1846     		mov	r0, r3
 3213 0570 FFF7FEFF 		bl	PRINTER_A_PutChar
 650:printer.c     **** 		PRINTER_A_PutChar(msn_cierre[x]);
 3214              		.loc 1 650 0 discriminator 3
 3215 0574 97F86830 		ldrb	r3, [r7, #104]	@ zero_extendqisi2
 3216 0578 0133     		adds	r3, r3, #1
 3217 057a 87F86830 		strb	r3, [r7, #104]
 3218              	.L183:
 650:printer.c     **** 		PRINTER_A_PutChar(msn_cierre[x]);
 3219              		.loc 1 650 0 is_stmt 0 discriminator 1
 3220 057e 97F86830 		ldrb	r3, [r7, #104]	@ zero_extendqisi2
 3221 0582 0C2B     		cmp	r3, #12
 3222 0584 EFD9     		bls	.L184
 3223              	.LBE75:
 3224              	.LBB76:
 652:printer.c     **** 	}     
 653:printer.c     **** 	for(uint8 x = 5; x > 0; x --){
 3225              		.loc 1 653 0 is_stmt 1
 3226 0586 0523     		movs	r3, #5
 3227 0588 87F86730 		strb	r3, [r7, #103]
 3228 058c 0BE0     		b	.L185
 3229              	.L186:
 654:printer.c     **** 		PRINTER_A_PutChar(shift_number[x]);   //Nmero de cierre
 3230              		.loc 1 654 0 discriminator 3
 3231 058e 97F86730 		ldrb	r3, [r7, #103]	@ zero_extendqisi2
 3232 0592 444A     		ldr	r2, .L273+28
 3233 0594 D35C     		ldrb	r3, [r2, r3]	@ zero_extendqisi2
 3234 0596 1846     		mov	r0, r3
 3235 0598 FFF7FEFF 		bl	PRINTER_A_PutChar
 653:printer.c     **** 		PRINTER_A_PutChar(shift_number[x]);   //Nmero de cierre
 3236              		.loc 1 653 0 discriminator 3
 3237 059c 97F86730 		ldrb	r3, [r7, #103]	@ zero_extendqisi2
 3238 05a0 013B     		subs	r3, r3, #1
 3239 05a2 87F86730 		strb	r3, [r7, #103]
 3240              	.L185:
 653:printer.c     **** 		PRINTER_A_PutChar(shift_number[x]);   //Nmero de cierre
 3241              		.loc 1 653 0 is_stmt 0 discriminator 1
 3242 05a6 97F86730 		ldrb	r3, [r7, #103]	@ zero_extendqisi2
 3243 05aa 002B     		cmp	r3, #0
 3244 05ac EFD1     		bne	.L186
 3245              	.LBE76:
 655:printer.c     **** 	}
 656:printer.c     **** 	PRINTER_A_PutChar(LINE_FEED);
 3246              		.loc 1 656 0 is_stmt 1
 3247 05ae 374B     		ldr	r3, .L273+4
 3248 05b0 1B78     		ldrb	r3, [r3]	@ zero_extendqisi2
 3249 05b2 1846     		mov	r0, r3
 3250 05b4 FFF7FEFF 		bl	PRINTER_A_PutChar
 657:printer.c     ****     PRINTER_A_PutChar(LINE_FEED);
 3251              		.loc 1 657 0
 3252 05b8 344B     		ldr	r3, .L273+4
ARM GAS  C:\Users\Diego\AppData\Local\Temp\ccz6pbcU.s 			page 75


 3253 05ba 1B78     		ldrb	r3, [r3]	@ zero_extendqisi2
 3254 05bc 1846     		mov	r0, r3
 3255 05be FFF7FEFF 		bl	PRINTER_A_PutChar
 3256              	.LBB77:
 658:printer.c     ****     for(uint8 x = 0; x < 13; x ++){
 3257              		.loc 1 658 0
 3258 05c2 0023     		movs	r3, #0
 3259 05c4 87F86630 		strb	r3, [r7, #102]
 3260 05c8 0BE0     		b	.L187
 3261              	.L188:
 659:printer.c     ****         PRINTER_A_PutChar(msn_pos[x]);
 3262              		.loc 1 659 0 discriminator 3
 3263 05ca 97F86630 		ldrb	r3, [r7, #102]	@ zero_extendqisi2
 3264 05ce 364A     		ldr	r2, .L273+32
 3265 05d0 D35C     		ldrb	r3, [r2, r3]	@ zero_extendqisi2
 3266 05d2 1846     		mov	r0, r3
 3267 05d4 FFF7FEFF 		bl	PRINTER_A_PutChar
 658:printer.c     ****     for(uint8 x = 0; x < 13; x ++){
 3268              		.loc 1 658 0 discriminator 3
 3269 05d8 97F86630 		ldrb	r3, [r7, #102]	@ zero_extendqisi2
 3270 05dc 0133     		adds	r3, r3, #1
 3271 05de 87F86630 		strb	r3, [r7, #102]
 3272              	.L187:
 658:printer.c     ****     for(uint8 x = 0; x < 13; x ++){
 3273              		.loc 1 658 0 is_stmt 0 discriminator 1
 3274 05e2 97F86630 		ldrb	r3, [r7, #102]	@ zero_extendqisi2
 3275 05e6 0C2B     		cmp	r3, #12
 3276 05e8 EFD9     		bls	.L188
 3277              	.LBE77:
 660:printer.c     ****     }
 661:printer.c     ****     PRINTER_A_PutChar(side.a.dir + 0x31);
 3278              		.loc 1 661 0 is_stmt 1
 3279 05ea 304B     		ldr	r3, .L273+36
 3280 05ec 1B78     		ldrb	r3, [r3]	@ zero_extendqisi2
 3281 05ee 3133     		adds	r3, r3, #49
 3282 05f0 DBB2     		uxtb	r3, r3
 3283 05f2 1846     		mov	r0, r3
 3284 05f4 FFF7FEFF 		bl	PRINTER_A_PutChar
 662:printer.c     ****     PRINTER_A_PutChar(LINE_FEED);
 3285              		.loc 1 662 0
 3286 05f8 244B     		ldr	r3, .L273+4
 3287 05fa 1B78     		ldrb	r3, [r3]	@ zero_extendqisi2
 3288 05fc 1846     		mov	r0, r3
 3289 05fe FFF7FEFF 		bl	PRINTER_A_PutChar
 3290              	.LBB78:
 663:printer.c     **** 	for(uint8 x = 0; x < 16; x ++){
 3291              		.loc 1 663 0
 3292 0602 0023     		movs	r3, #0
 3293 0604 87F86530 		strb	r3, [r7, #101]
 3294 0608 0BE0     		b	.L189
 3295              	.L190:
 664:printer.c     **** 		PRINTER_A_PutChar(msn_lecact[x]);
 3296              		.loc 1 664 0 discriminator 3
 3297 060a 97F86530 		ldrb	r3, [r7, #101]	@ zero_extendqisi2
 3298 060e 284A     		ldr	r2, .L273+40
 3299 0610 D35C     		ldrb	r3, [r2, r3]	@ zero_extendqisi2
 3300 0612 1846     		mov	r0, r3
ARM GAS  C:\Users\Diego\AppData\Local\Temp\ccz6pbcU.s 			page 76


 3301 0614 FFF7FEFF 		bl	PRINTER_A_PutChar
 663:printer.c     **** 	for(uint8 x = 0; x < 16; x ++){
 3302              		.loc 1 663 0 discriminator 3
 3303 0618 97F86530 		ldrb	r3, [r7, #101]	@ zero_extendqisi2
 3304 061c 0133     		adds	r3, r3, #1
 3305 061e 87F86530 		strb	r3, [r7, #101]
 3306              	.L189:
 663:printer.c     **** 	for(uint8 x = 0; x < 16; x ++){
 3307              		.loc 1 663 0 is_stmt 0 discriminator 1
 3308 0622 97F86530 		ldrb	r3, [r7, #101]	@ zero_extendqisi2
 3309 0626 0F2B     		cmp	r3, #15
 3310 0628 EFD9     		bls	.L190
 3311              	.LBE78:
 665:printer.c     **** 	}
 666:printer.c     **** 	PRINTER_A_PutChar(LINE_FEED);	
 3312              		.loc 1 666 0 is_stmt 1
 3313 062a 184B     		ldr	r3, .L273+4
 3314 062c 1B78     		ldrb	r3, [r3]	@ zero_extendqisi2
 3315 062e 1846     		mov	r0, r3
 3316 0630 FFF7FEFF 		bl	PRINTER_A_PutChar
 3317              	.LBB79:
 667:printer.c     ****                           
 668:printer.c     ****     for(uint8 x = 0; x < 10; x ++){ 
 3318              		.loc 1 668 0
 3319 0634 0023     		movs	r3, #0
 3320 0636 87F86430 		strb	r3, [r7, #100]
 3321 063a 18E0     		b	.L191
 3322              	.L193:
 669:printer.c     ****         if((10-x) == DecVol)
 3323              		.loc 1 669 0
 3324 063c 97F86430 		ldrb	r3, [r7, #100]	@ zero_extendqisi2
 3325 0640 C3F10A03 		rsb	r3, r3, #10
 3326 0644 1B4A     		ldr	r2, .L273+44
 3327 0646 1278     		ldrb	r2, [r2]	@ zero_extendqisi2
 3328 0648 9342     		cmp	r3, r2
 3329 064a 02D1     		bne	.L192
 670:printer.c     ****             PRINTER_A_PutChar('.');
 3330              		.loc 1 670 0
 3331 064c 2E20     		movs	r0, #46
 3332 064e FFF7FEFF 		bl	PRINTER_A_PutChar
 3333              	.L192:
 671:printer.c     ****         PRINTER_A_PutChar(side.a.ProcessedTotals[0][0][x]);
 3334              		.loc 1 671 0 discriminator 2
 3335 0652 97F86430 		ldrb	r3, [r7, #100]	@ zero_extendqisi2
 3336 0656 154A     		ldr	r2, .L273+36
 3337 0658 1344     		add	r3, r3, r2
 3338 065a 93F88330 		ldrb	r3, [r3, #131]	@ zero_extendqisi2
 3339 065e 1846     		mov	r0, r3
 3340 0660 FFF7FEFF 		bl	PRINTER_A_PutChar
 668:printer.c     ****         if((10-x) == DecVol)
 3341              		.loc 1 668 0 discriminator 2
 3342 0664 97F86430 		ldrb	r3, [r7, #100]	@ zero_extendqisi2
 3343 0668 0133     		adds	r3, r3, #1
 3344 066a 87F86430 		strb	r3, [r7, #100]
 3345              	.L191:
 668:printer.c     ****         if((10-x) == DecVol)
 3346              		.loc 1 668 0 is_stmt 0 discriminator 1
ARM GAS  C:\Users\Diego\AppData\Local\Temp\ccz6pbcU.s 			page 77


 3347 066e 97F86430 		ldrb	r3, [r7, #100]	@ zero_extendqisi2
 3348 0672 092B     		cmp	r3, #9
 3349 0674 E2D9     		bls	.L193
 3350              	.LBE79:
 672:printer.c     ****     }
 673:printer.c     ****     PRINTER_A_PutChar(LINE_FEED);
 3351              		.loc 1 673 0 is_stmt 1
 3352 0676 054B     		ldr	r3, .L273+4
 3353 0678 1B78     		ldrb	r3, [r3]	@ zero_extendqisi2
 3354 067a 1846     		mov	r0, r3
 3355 067c FFF7FEFF 		bl	PRINTER_A_PutChar
 3356              	.LBB80:
 674:printer.c     ****     for(uint8 x = 0; x < 10; x++){
 3357              		.loc 1 674 0
 3358 0680 0023     		movs	r3, #0
 3359 0682 87F86330 		strb	r3, [r7, #99]
 3360 0686 28E0     		b	.L194
 3361              	.L274:
 3362              		.align	2
 3363              	.L273:
 3364 0688 00000000 		.word	msn_EDS4
 3365 068c 00000000 		.word	LINE_FEED
 3366 0690 00000000 		.word	SEPARATOR
 3367 0694 00000000 		.word	msn_fecha
 3368 0698 00000000 		.word	touch1
 3369 069c 00000000 		.word	msn_hora
 3370 06a0 00000000 		.word	msn_cierre
 3371 06a4 00000000 		.word	shift_number
 3372 06a8 00000000 		.word	msn_pos
 3373 06ac 00000000 		.word	side
 3374 06b0 00000000 		.word	msn_lecact
 3375 06b4 00000000 		.word	DecVol
 3376              	.L197:
 675:printer.c     ****         pos = x;
 3377              		.loc 1 675 0
 3378 06b8 97F86330 		ldrb	r3, [r7, #99]
 3379 06bc 87F87630 		strb	r3, [r7, #118]
 676:printer.c     ****         if(side.a.ProcessedTotals[0][0][x] != 0x00 )
 3380              		.loc 1 676 0
 3381 06c0 97F86330 		ldrb	r3, [r7, #99]	@ zero_extendqisi2
 3382 06c4 C94A     		ldr	r2, .L275
 3383 06c6 1344     		add	r3, r3, r2
 3384 06c8 93F88330 		ldrb	r3, [r3, #131]	@ zero_extendqisi2
 3385 06cc 002B     		cmp	r3, #0
 3386 06ce 09D1     		bne	.L270
 674:printer.c     ****     for(uint8 x = 0; x < 10; x++){
 3387              		.loc 1 674 0 discriminator 2
 3388 06d0 97F86330 		ldrb	r3, [r7, #99]	@ zero_extendqisi2
 3389 06d4 0133     		adds	r3, r3, #1
 3390 06d6 87F86330 		strb	r3, [r7, #99]
 3391              	.L194:
 674:printer.c     ****     for(uint8 x = 0; x < 10; x++){
 3392              		.loc 1 674 0 is_stmt 0 discriminator 1
 3393 06da 97F86330 		ldrb	r3, [r7, #99]	@ zero_extendqisi2
 3394 06de 092B     		cmp	r3, #9
 3395 06e0 EAD9     		bls	.L197
 3396 06e2 00E0     		b	.L196
ARM GAS  C:\Users\Diego\AppData\Local\Temp\ccz6pbcU.s 			page 78


 3397              	.L270:
 677:printer.c     ****             break;
 3398              		.loc 1 677 0 is_stmt 1
 3399 06e4 00BF     		nop
 3400              	.L196:
 3401              	.LBE80:
 3402              	.LBB81:
 678:printer.c     ****     }
 679:printer.c     **** 	for(uint8 x = 0; x < 16; x ++){
 3403              		.loc 1 679 0
 3404 06e6 0023     		movs	r3, #0
 3405 06e8 87F86230 		strb	r3, [r7, #98]
 3406 06ec 0BE0     		b	.L198
 3407              	.L199:
 680:printer.c     **** 		PRINTER_A_PutChar(msn_lecaan[x]);
 3408              		.loc 1 680 0 discriminator 3
 3409 06ee 97F86230 		ldrb	r3, [r7, #98]	@ zero_extendqisi2
 3410 06f2 BF4A     		ldr	r2, .L275+4
 3411 06f4 D35C     		ldrb	r3, [r2, r3]	@ zero_extendqisi2
 3412 06f6 1846     		mov	r0, r3
 3413 06f8 FFF7FEFF 		bl	PRINTER_A_PutChar
 679:printer.c     **** 		PRINTER_A_PutChar(msn_lecaan[x]);
 3414              		.loc 1 679 0 discriminator 3
 3415 06fc 97F86230 		ldrb	r3, [r7, #98]	@ zero_extendqisi2
 3416 0700 0133     		adds	r3, r3, #1
 3417 0702 87F86230 		strb	r3, [r7, #98]
 3418              	.L198:
 679:printer.c     **** 		PRINTER_A_PutChar(msn_lecaan[x]);
 3419              		.loc 1 679 0 is_stmt 0 discriminator 1
 3420 0706 97F86230 		ldrb	r3, [r7, #98]	@ zero_extendqisi2
 3421 070a 0F2B     		cmp	r3, #15
 3422 070c EFD9     		bls	.L199
 3423              	.LBE81:
 681:printer.c     **** 	}
 682:printer.c     ****     PRINTER_A_PutChar(LINE_FEED);
 3424              		.loc 1 682 0 is_stmt 1
 3425 070e B94B     		ldr	r3, .L275+8
 3426 0710 1B78     		ldrb	r3, [r3]	@ zero_extendqisi2
 3427 0712 1846     		mov	r0, r3
 3428 0714 FFF7FEFF 		bl	PRINTER_A_PutChar
 3429              	.LBB82:
 683:printer.c     ****     for(uint8 x = 0; x < 10; x ++){
 3430              		.loc 1 683 0
 3431 0718 0023     		movs	r3, #0
 3432 071a 87F86130 		strb	r3, [r7, #97]
 3433 071e 15E0     		b	.L200
 3434              	.L201:
 684:printer.c     ****         memoria[x] = EEPROM_1_ReadByte(36+x);
 3435              		.loc 1 684 0 discriminator 3
 3436 0720 97F86140 		ldrb	r4, [r7, #97]	@ zero_extendqisi2
 3437 0724 97F86130 		ldrb	r3, [r7, #97]	@ zero_extendqisi2
 3438 0728 9BB2     		uxth	r3, r3
 3439 072a 2433     		adds	r3, r3, #36
 3440 072c 9BB2     		uxth	r3, r3
 3441 072e 1846     		mov	r0, r3
 3442 0730 FFF7FEFF 		bl	EEPROM_1_ReadByte
 3443 0734 0346     		mov	r3, r0
ARM GAS  C:\Users\Diego\AppData\Local\Temp\ccz6pbcU.s 			page 79


 3444 0736 1A46     		mov	r2, r3
 3445 0738 07F17803 		add	r3, r7, #120
 3446 073c 2344     		add	r3, r3, r4
 3447 073e 03F8682C 		strb	r2, [r3, #-104]
 683:printer.c     ****     for(uint8 x = 0; x < 10; x ++){
 3448              		.loc 1 683 0 discriminator 3
 3449 0742 97F86130 		ldrb	r3, [r7, #97]	@ zero_extendqisi2
 3450 0746 0133     		adds	r3, r3, #1
 3451 0748 87F86130 		strb	r3, [r7, #97]
 3452              	.L200:
 683:printer.c     ****     for(uint8 x = 0; x < 10; x ++){
 3453              		.loc 1 683 0 is_stmt 0 discriminator 1
 3454 074c 97F86130 		ldrb	r3, [r7, #97]	@ zero_extendqisi2
 3455 0750 092B     		cmp	r3, #9
 3456 0752 E5D9     		bls	.L201
 3457              	.LBE82:
 3458              	.LBB83:
 685:printer.c     ****     }
 686:printer.c     ****     for(uint8 x = 0; x < 10; x ++){ 
 3459              		.loc 1 686 0 is_stmt 1
 3460 0754 0023     		movs	r3, #0
 3461 0756 87F86030 		strb	r3, [r7, #96]
 3462 075a 19E0     		b	.L202
 3463              	.L204:
 687:printer.c     ****         if((10-x) == DecVol)
 3464              		.loc 1 687 0
 3465 075c 97F86030 		ldrb	r3, [r7, #96]	@ zero_extendqisi2
 3466 0760 C3F10A03 		rsb	r3, r3, #10
 3467 0764 A44A     		ldr	r2, .L275+12
 3468 0766 1278     		ldrb	r2, [r2]	@ zero_extendqisi2
 3469 0768 9342     		cmp	r3, r2
 3470 076a 02D1     		bne	.L203
 688:printer.c     ****             PRINTER_A_PutChar('.');
 3471              		.loc 1 688 0
 3472 076c 2E20     		movs	r0, #46
 3473 076e FFF7FEFF 		bl	PRINTER_A_PutChar
 3474              	.L203:
 689:printer.c     ****         PRINTER_A_PutChar(memoria[x]);
 3475              		.loc 1 689 0 discriminator 2
 3476 0772 97F86030 		ldrb	r3, [r7, #96]	@ zero_extendqisi2
 3477 0776 07F17802 		add	r2, r7, #120
 3478 077a 1344     		add	r3, r3, r2
 3479 077c 13F8683C 		ldrb	r3, [r3, #-104]	@ zero_extendqisi2
 3480 0780 1846     		mov	r0, r3
 3481 0782 FFF7FEFF 		bl	PRINTER_A_PutChar
 686:printer.c     ****         if((10-x) == DecVol)
 3482              		.loc 1 686 0 discriminator 2
 3483 0786 97F86030 		ldrb	r3, [r7, #96]	@ zero_extendqisi2
 3484 078a 0133     		adds	r3, r3, #1
 3485 078c 87F86030 		strb	r3, [r7, #96]
 3486              	.L202:
 686:printer.c     ****         if((10-x) == DecVol)
 3487              		.loc 1 686 0 is_stmt 0 discriminator 1
 3488 0790 97F86030 		ldrb	r3, [r7, #96]	@ zero_extendqisi2
 3489 0794 092B     		cmp	r3, #9
 3490 0796 E1D9     		bls	.L204
 3491              	.LBE83:
ARM GAS  C:\Users\Diego\AppData\Local\Temp\ccz6pbcU.s 			page 80


 690:printer.c     ****     }
 691:printer.c     ****     PRINTER_A_PutChar(LINE_FEED);
 3492              		.loc 1 691 0 is_stmt 1
 3493 0798 964B     		ldr	r3, .L275+8
 3494 079a 1B78     		ldrb	r3, [r3]	@ zero_extendqisi2
 3495 079c 1846     		mov	r0, r3
 3496 079e FFF7FEFF 		bl	PRINTER_A_PutChar
 3497              	.LBB84:
 692:printer.c     ****     
 693:printer.c     ****     for(uint8 x = pos; x < 10; x++ ){
 3498              		.loc 1 693 0
 3499 07a2 97F87630 		ldrb	r3, [r7, #118]
 3500 07a6 87F85F30 		strb	r3, [r7, #95]
 3501 07aa 2DE0     		b	.L205
 3502              	.L206:
 694:printer.c     ****         lectactual[x-pos] = side.a.ProcessedTotals[0][0][x];
 3503              		.loc 1 694 0 discriminator 3
 3504 07ac 97F85F20 		ldrb	r2, [r7, #95]	@ zero_extendqisi2
 3505 07b0 97F87630 		ldrb	r3, [r7, #118]	@ zero_extendqisi2
 3506 07b4 D31A     		subs	r3, r2, r3
 3507 07b6 97F85F20 		ldrb	r2, [r7, #95]	@ zero_extendqisi2
 3508 07ba 8C49     		ldr	r1, .L275
 3509 07bc 0A44     		add	r2, r2, r1
 3510 07be 92F88320 		ldrb	r2, [r2, #131]	@ zero_extendqisi2
 3511 07c2 07F17801 		add	r1, r7, #120
 3512 07c6 0B44     		add	r3, r3, r1
 3513 07c8 03F85C2C 		strb	r2, [r3, #-92]
 695:printer.c     ****         lectanterior[x-pos] = memoria[x];
 3514              		.loc 1 695 0 discriminator 3
 3515 07cc 97F85F20 		ldrb	r2, [r7, #95]	@ zero_extendqisi2
 3516 07d0 97F87630 		ldrb	r3, [r7, #118]	@ zero_extendqisi2
 3517 07d4 D31A     		subs	r3, r2, r3
 3518 07d6 97F85F20 		ldrb	r2, [r7, #95]	@ zero_extendqisi2
 3519 07da 07F17801 		add	r1, r7, #120
 3520 07de 0A44     		add	r2, r2, r1
 3521 07e0 12F8682C 		ldrb	r2, [r2, #-104]	@ zero_extendqisi2
 3522 07e4 07F17801 		add	r1, r7, #120
 3523 07e8 0B44     		add	r3, r3, r1
 3524 07ea 03F8502C 		strb	r2, [r3, #-80]
 696:printer.c     ****         resultado[x] = 0x00;
 3525              		.loc 1 696 0 discriminator 3
 3526 07ee 97F85F30 		ldrb	r3, [r7, #95]	@ zero_extendqisi2
 3527 07f2 07F17802 		add	r2, r7, #120
 3528 07f6 1344     		add	r3, r3, r2
 3529 07f8 0022     		movs	r2, #0
 3530 07fa 03F8742C 		strb	r2, [r3, #-116]
 693:printer.c     ****         lectactual[x-pos] = side.a.ProcessedTotals[0][0][x];
 3531              		.loc 1 693 0 discriminator 3
 3532 07fe 97F85F30 		ldrb	r3, [r7, #95]	@ zero_extendqisi2
 3533 0802 0133     		adds	r3, r3, #1
 3534 0804 87F85F30 		strb	r3, [r7, #95]
 3535              	.L205:
 693:printer.c     ****         lectactual[x-pos] = side.a.ProcessedTotals[0][0][x];
 3536              		.loc 1 693 0 is_stmt 0 discriminator 1
 3537 0808 97F85F30 		ldrb	r3, [r7, #95]	@ zero_extendqisi2
 3538 080c 092B     		cmp	r3, #9
 3539 080e CDD9     		bls	.L206
ARM GAS  C:\Users\Diego\AppData\Local\Temp\ccz6pbcU.s 			page 81


 3540              	.LBE84:
 697:printer.c     ****     }
 698:printer.c     ****     
 699:printer.c     ****     anterior = atoi(lectanterior);
 3541              		.loc 1 699 0 is_stmt 1
 3542 0810 07F12803 		add	r3, r7, #40
 3543 0814 1846     		mov	r0, r3
 3544 0816 FFF7FEFF 		bl	atoi
 3545 081a 0346     		mov	r3, r0
 3546 081c FB63     		str	r3, [r7, #60]
 700:printer.c     ****     actual = atoi(lectactual);
 3547              		.loc 1 700 0
 3548 081e 07F11C03 		add	r3, r7, #28
 3549 0822 1846     		mov	r0, r3
 3550 0824 FFF7FEFF 		bl	atoi
 3551 0828 0346     		mov	r3, r0
 3552 082a BB63     		str	r3, [r7, #56]
 701:printer.c     ****     resta =  actual - anterior;
 3553              		.loc 1 701 0
 3554 082c BA6B     		ldr	r2, [r7, #56]
 3555 082e FB6B     		ldr	r3, [r7, #60]
 3556 0830 D31A     		subs	r3, r2, r3
 3557 0832 7B63     		str	r3, [r7, #52]
 702:printer.c     ****     itoa(resta,resultado,10);
 3558              		.loc 1 702 0
 3559 0834 7B6B     		ldr	r3, [r7, #52]
 3560 0836 391D     		adds	r1, r7, #4
 3561 0838 0A22     		movs	r2, #10
 3562 083a 1846     		mov	r0, r3
 3563 083c FFF7FEFF 		bl	itoa
 3564              	.LBB85:
 703:printer.c     ****     
 704:printer.c     ****     for(uint8 x = 0; x < 18; x ++){
 3565              		.loc 1 704 0
 3566 0840 0023     		movs	r3, #0
 3567 0842 87F85E30 		strb	r3, [r7, #94]
 3568 0846 0BE0     		b	.L207
 3569              	.L208:
 705:printer.c     ****         PRINTER_A_PutChar(msn_dif[x]);
 3570              		.loc 1 705 0 discriminator 3
 3571 0848 97F85E30 		ldrb	r3, [r7, #94]	@ zero_extendqisi2
 3572 084c 6B4A     		ldr	r2, .L275+16
 3573 084e D35C     		ldrb	r3, [r2, r3]	@ zero_extendqisi2
 3574 0850 1846     		mov	r0, r3
 3575 0852 FFF7FEFF 		bl	PRINTER_A_PutChar
 704:printer.c     ****         PRINTER_A_PutChar(msn_dif[x]);
 3576              		.loc 1 704 0 discriminator 3
 3577 0856 97F85E30 		ldrb	r3, [r7, #94]	@ zero_extendqisi2
 3578 085a 0133     		adds	r3, r3, #1
 3579 085c 87F85E30 		strb	r3, [r7, #94]
 3580              	.L207:
 704:printer.c     ****         PRINTER_A_PutChar(msn_dif[x]);
 3581              		.loc 1 704 0 is_stmt 0 discriminator 1
 3582 0860 97F85E30 		ldrb	r3, [r7, #94]	@ zero_extendqisi2
 3583 0864 112B     		cmp	r3, #17
 3584 0866 EFD9     		bls	.L208
 3585              	.LBE85:
ARM GAS  C:\Users\Diego\AppData\Local\Temp\ccz6pbcU.s 			page 82


 706:printer.c     ****     }
 707:printer.c     ****     PRINTER_A_PutChar(LINE_FEED);
 3586              		.loc 1 707 0 is_stmt 1
 3587 0868 624B     		ldr	r3, .L275+8
 3588 086a 1B78     		ldrb	r3, [r3]	@ zero_extendqisi2
 3589 086c 1846     		mov	r0, r3
 3590 086e FFF7FEFF 		bl	PRINTER_A_PutChar
 3591              	.LBB86:
 708:printer.c     ****     for(uint8 x = 0; x < 10; x ++){
 3592              		.loc 1 708 0
 3593 0872 0023     		movs	r3, #0
 3594 0874 87F85D30 		strb	r3, [r7, #93]
 3595 0878 19E0     		b	.L209
 3596              	.L211:
 709:printer.c     ****         if((10-x) == DecVol)
 3597              		.loc 1 709 0
 3598 087a 97F85D30 		ldrb	r3, [r7, #93]	@ zero_extendqisi2
 3599 087e C3F10A03 		rsb	r3, r3, #10
 3600 0882 5D4A     		ldr	r2, .L275+12
 3601 0884 1278     		ldrb	r2, [r2]	@ zero_extendqisi2
 3602 0886 9342     		cmp	r3, r2
 3603 0888 02D1     		bne	.L210
 710:printer.c     ****             PRINTER_A_PutChar('.');
 3604              		.loc 1 710 0
 3605 088a 2E20     		movs	r0, #46
 3606 088c FFF7FEFF 		bl	PRINTER_A_PutChar
 3607              	.L210:
 711:printer.c     ****         PRINTER_A_PutChar(resultado[x]);
 3608              		.loc 1 711 0 discriminator 2
 3609 0890 97F85D30 		ldrb	r3, [r7, #93]	@ zero_extendqisi2
 3610 0894 07F17802 		add	r2, r7, #120
 3611 0898 1344     		add	r3, r3, r2
 3612 089a 13F8743C 		ldrb	r3, [r3, #-116]	@ zero_extendqisi2
 3613 089e 1846     		mov	r0, r3
 3614 08a0 FFF7FEFF 		bl	PRINTER_A_PutChar
 708:printer.c     ****         if((10-x) == DecVol)
 3615              		.loc 1 708 0 discriminator 2
 3616 08a4 97F85D30 		ldrb	r3, [r7, #93]	@ zero_extendqisi2
 3617 08a8 0133     		adds	r3, r3, #1
 3618 08aa 87F85D30 		strb	r3, [r7, #93]
 3619              	.L209:
 708:printer.c     ****         if((10-x) == DecVol)
 3620              		.loc 1 708 0 is_stmt 0 discriminator 1
 3621 08ae 97F85D30 		ldrb	r3, [r7, #93]	@ zero_extendqisi2
 3622 08b2 092B     		cmp	r3, #9
 3623 08b4 E1D9     		bls	.L211
 3624              	.LBE86:
 712:printer.c     ****     }
 713:printer.c     ****     PRINTER_A_PutChar(LINE_FEED);
 3625              		.loc 1 713 0 is_stmt 1
 3626 08b6 4F4B     		ldr	r3, .L275+8
 3627 08b8 1B78     		ldrb	r3, [r3]	@ zero_extendqisi2
 3628 08ba 1846     		mov	r0, r3
 3629 08bc FFF7FEFF 		bl	PRINTER_A_PutChar
 3630              	.LBB87:
 714:printer.c     ****     for(uint8 x = 0; x < 32; x ++){
 3631              		.loc 1 714 0
ARM GAS  C:\Users\Diego\AppData\Local\Temp\ccz6pbcU.s 			page 83


 3632 08c0 0023     		movs	r3, #0
 3633 08c2 87F85C30 		strb	r3, [r7, #92]
 3634 08c6 0BE0     		b	.L212
 3635              	.L213:
 715:printer.c     ****         PRINTER_A_PutChar(SEPARATOR[x]);
 3636              		.loc 1 715 0 discriminator 3
 3637 08c8 97F85C30 		ldrb	r3, [r7, #92]	@ zero_extendqisi2
 3638 08cc 4C4A     		ldr	r2, .L275+20
 3639 08ce D35C     		ldrb	r3, [r2, r3]	@ zero_extendqisi2
 3640 08d0 1846     		mov	r0, r3
 3641 08d2 FFF7FEFF 		bl	PRINTER_A_PutChar
 714:printer.c     ****     for(uint8 x = 0; x < 32; x ++){
 3642              		.loc 1 714 0 discriminator 3
 3643 08d6 97F85C30 		ldrb	r3, [r7, #92]	@ zero_extendqisi2
 3644 08da 0133     		adds	r3, r3, #1
 3645 08dc 87F85C30 		strb	r3, [r7, #92]
 3646              	.L212:
 714:printer.c     ****     for(uint8 x = 0; x < 32; x ++){
 3647              		.loc 1 714 0 is_stmt 0 discriminator 1
 3648 08e0 97F85C30 		ldrb	r3, [r7, #92]	@ zero_extendqisi2
 3649 08e4 1F2B     		cmp	r3, #31
 3650 08e6 EFD9     		bls	.L213
 3651              	.LBE87:
 716:printer.c     ****     }  
 717:printer.c     ****     PRINTER_A_PutChar(LINE_FEED);
 3652              		.loc 1 717 0 is_stmt 1
 3653 08e8 424B     		ldr	r3, .L275+8
 3654 08ea 1B78     		ldrb	r3, [r3]	@ zero_extendqisi2
 3655 08ec 1846     		mov	r0, r3
 3656 08ee FFF7FEFF 		bl	PRINTER_A_PutChar
 3657              	.LBB88:
 718:printer.c     ****     for(uint8 x = 0; x < 13; x ++){
 3658              		.loc 1 718 0
 3659 08f2 0023     		movs	r3, #0
 3660 08f4 87F85B30 		strb	r3, [r7, #91]
 3661 08f8 0BE0     		b	.L214
 3662              	.L215:
 719:printer.c     ****         PRINTER_A_PutChar(msn_pos[x]);
 3663              		.loc 1 719 0 discriminator 3
 3664 08fa 97F85B30 		ldrb	r3, [r7, #91]	@ zero_extendqisi2
 3665 08fe 414A     		ldr	r2, .L275+24
 3666 0900 D35C     		ldrb	r3, [r2, r3]	@ zero_extendqisi2
 3667 0902 1846     		mov	r0, r3
 3668 0904 FFF7FEFF 		bl	PRINTER_A_PutChar
 718:printer.c     ****     for(uint8 x = 0; x < 13; x ++){
 3669              		.loc 1 718 0 discriminator 3
 3670 0908 97F85B30 		ldrb	r3, [r7, #91]	@ zero_extendqisi2
 3671 090c 0133     		adds	r3, r3, #1
 3672 090e 87F85B30 		strb	r3, [r7, #91]
 3673              	.L214:
 718:printer.c     ****     for(uint8 x = 0; x < 13; x ++){
 3674              		.loc 1 718 0 is_stmt 0 discriminator 1
 3675 0912 97F85B30 		ldrb	r3, [r7, #91]	@ zero_extendqisi2
 3676 0916 0C2B     		cmp	r3, #12
 3677 0918 EFD9     		bls	.L215
 3678              	.LBE88:
 720:printer.c     ****     }
ARM GAS  C:\Users\Diego\AppData\Local\Temp\ccz6pbcU.s 			page 84


 721:printer.c     ****     PRINTER_A_PutChar(side.b.dir + 0x31);
 3679              		.loc 1 721 0 is_stmt 1
 3680 091a 344B     		ldr	r3, .L275
 3681 091c 93F83531 		ldrb	r3, [r3, #309]	@ zero_extendqisi2
 3682 0920 3133     		adds	r3, r3, #49
 3683 0922 DBB2     		uxtb	r3, r3
 3684 0924 1846     		mov	r0, r3
 3685 0926 FFF7FEFF 		bl	PRINTER_A_PutChar
 722:printer.c     ****     PRINTER_A_PutChar(LINE_FEED);
 3686              		.loc 1 722 0
 3687 092a 324B     		ldr	r3, .L275+8
 3688 092c 1B78     		ldrb	r3, [r3]	@ zero_extendqisi2
 3689 092e 1846     		mov	r0, r3
 3690 0930 FFF7FEFF 		bl	PRINTER_A_PutChar
 3691              	.LBB89:
 723:printer.c     ****     for(uint8 x = 0; x < 16; x ++){
 3692              		.loc 1 723 0
 3693 0934 0023     		movs	r3, #0
 3694 0936 87F85A30 		strb	r3, [r7, #90]
 3695 093a 0BE0     		b	.L216
 3696              	.L217:
 724:printer.c     **** 		PRINTER_A_PutChar(msn_lecact[x]);
 3697              		.loc 1 724 0 discriminator 3
 3698 093c 97F85A30 		ldrb	r3, [r7, #90]	@ zero_extendqisi2
 3699 0940 314A     		ldr	r2, .L275+28
 3700 0942 D35C     		ldrb	r3, [r2, r3]	@ zero_extendqisi2
 3701 0944 1846     		mov	r0, r3
 3702 0946 FFF7FEFF 		bl	PRINTER_A_PutChar
 723:printer.c     ****     for(uint8 x = 0; x < 16; x ++){
 3703              		.loc 1 723 0 discriminator 3
 3704 094a 97F85A30 		ldrb	r3, [r7, #90]	@ zero_extendqisi2
 3705 094e 0133     		adds	r3, r3, #1
 3706 0950 87F85A30 		strb	r3, [r7, #90]
 3707              	.L216:
 723:printer.c     ****     for(uint8 x = 0; x < 16; x ++){
 3708              		.loc 1 723 0 is_stmt 0 discriminator 1
 3709 0954 97F85A30 		ldrb	r3, [r7, #90]	@ zero_extendqisi2
 3710 0958 0F2B     		cmp	r3, #15
 3711 095a EFD9     		bls	.L217
 3712              	.LBE89:
 725:printer.c     **** 	}
 726:printer.c     **** 	PRINTER_A_PutChar(LINE_FEED);
 3713              		.loc 1 726 0 is_stmt 1
 3714 095c 254B     		ldr	r3, .L275+8
 3715 095e 1B78     		ldrb	r3, [r3]	@ zero_extendqisi2
 3716 0960 1846     		mov	r0, r3
 3717 0962 FFF7FEFF 		bl	PRINTER_A_PutChar
 3718              	.LBB90:
 727:printer.c     ****     for(uint8 x = 0; x < 10; x ++){ 
 3719              		.loc 1 727 0
 3720 0966 0023     		movs	r3, #0
 3721 0968 87F85930 		strb	r3, [r7, #89]
 3722 096c 18E0     		b	.L218
 3723              	.L220:
 728:printer.c     ****         if((10-x) == DecVol)
 3724              		.loc 1 728 0
 3725 096e 97F85930 		ldrb	r3, [r7, #89]	@ zero_extendqisi2
ARM GAS  C:\Users\Diego\AppData\Local\Temp\ccz6pbcU.s 			page 85


 3726 0972 C3F10A03 		rsb	r3, r3, #10
 3727 0976 204A     		ldr	r2, .L275+12
 3728 0978 1278     		ldrb	r2, [r2]	@ zero_extendqisi2
 3729 097a 9342     		cmp	r3, r2
 3730 097c 02D1     		bne	.L219
 729:printer.c     ****             PRINTER_A_PutChar('.');
 3731              		.loc 1 729 0
 3732 097e 2E20     		movs	r0, #46
 3733 0980 FFF7FEFF 		bl	PRINTER_A_PutChar
 3734              	.L219:
 730:printer.c     ****         PRINTER_A_PutChar(side.b.ProcessedTotals[0][0][x]);
 3735              		.loc 1 730 0 discriminator 2
 3736 0984 97F85930 		ldrb	r3, [r7, #89]	@ zero_extendqisi2
 3737 0988 184A     		ldr	r2, .L275
 3738 098a 1344     		add	r3, r3, r2
 3739 098c 93F8B831 		ldrb	r3, [r3, #440]	@ zero_extendqisi2
 3740 0990 1846     		mov	r0, r3
 3741 0992 FFF7FEFF 		bl	PRINTER_A_PutChar
 727:printer.c     ****         if((10-x) == DecVol)
 3742              		.loc 1 727 0 discriminator 2
 3743 0996 97F85930 		ldrb	r3, [r7, #89]	@ zero_extendqisi2
 3744 099a 0133     		adds	r3, r3, #1
 3745 099c 87F85930 		strb	r3, [r7, #89]
 3746              	.L218:
 727:printer.c     ****         if((10-x) == DecVol)
 3747              		.loc 1 727 0 is_stmt 0 discriminator 1
 3748 09a0 97F85930 		ldrb	r3, [r7, #89]	@ zero_extendqisi2
 3749 09a4 092B     		cmp	r3, #9
 3750 09a6 E2D9     		bls	.L220
 3751              	.LBE90:
 731:printer.c     ****     }
 732:printer.c     ****     PRINTER_A_PutChar(LINE_FEED);
 3752              		.loc 1 732 0 is_stmt 1
 3753 09a8 124B     		ldr	r3, .L275+8
 3754 09aa 1B78     		ldrb	r3, [r3]	@ zero_extendqisi2
 3755 09ac 1846     		mov	r0, r3
 3756 09ae FFF7FEFF 		bl	PRINTER_A_PutChar
 3757              	.LBB91:
 733:printer.c     **** 	for(uint8 x = 0; x < 16; x ++){
 3758              		.loc 1 733 0
 3759 09b2 0023     		movs	r3, #0
 3760 09b4 87F85830 		strb	r3, [r7, #88]
 3761 09b8 0BE0     		b	.L221
 3762              	.L222:
 734:printer.c     **** 		PRINTER_A_PutChar(msn_lecaan[x]);
 3763              		.loc 1 734 0 discriminator 3
 3764 09ba 97F85830 		ldrb	r3, [r7, #88]	@ zero_extendqisi2
 3765 09be 0C4A     		ldr	r2, .L275+4
 3766 09c0 D35C     		ldrb	r3, [r2, r3]	@ zero_extendqisi2
 3767 09c2 1846     		mov	r0, r3
 3768 09c4 FFF7FEFF 		bl	PRINTER_A_PutChar
 733:printer.c     **** 	for(uint8 x = 0; x < 16; x ++){
 3769              		.loc 1 733 0 discriminator 3
 3770 09c8 97F85830 		ldrb	r3, [r7, #88]	@ zero_extendqisi2
 3771 09cc 0133     		adds	r3, r3, #1
 3772 09ce 87F85830 		strb	r3, [r7, #88]
 3773              	.L221:
ARM GAS  C:\Users\Diego\AppData\Local\Temp\ccz6pbcU.s 			page 86


 733:printer.c     **** 	for(uint8 x = 0; x < 16; x ++){
 3774              		.loc 1 733 0 is_stmt 0 discriminator 1
 3775 09d2 97F85830 		ldrb	r3, [r7, #88]	@ zero_extendqisi2
 3776 09d6 0F2B     		cmp	r3, #15
 3777 09d8 EFD9     		bls	.L222
 3778              	.LBE91:
 735:printer.c     **** 	}
 736:printer.c     ****     PRINTER_A_PutChar(LINE_FEED);
 3779              		.loc 1 736 0 is_stmt 1
 3780 09da 064B     		ldr	r3, .L275+8
 3781 09dc 1B78     		ldrb	r3, [r3]	@ zero_extendqisi2
 3782 09de 1846     		mov	r0, r3
 3783 09e0 FFF7FEFF 		bl	PRINTER_A_PutChar
 3784              	.LBB92:
 737:printer.c     ****     for(uint8 x = 0; x < 10; x ++){
 3785              		.loc 1 737 0
 3786 09e4 0023     		movs	r3, #0
 3787 09e6 87F85730 		strb	r3, [r7, #87]
 3788 09ea 25E0     		b	.L223
 3789              	.L276:
 3790              		.align	2
 3791              	.L275:
 3792 09ec 00000000 		.word	side
 3793 09f0 00000000 		.word	msn_lecaan
 3794 09f4 00000000 		.word	LINE_FEED
 3795 09f8 00000000 		.word	DecVol
 3796 09fc 00000000 		.word	msn_dif
 3797 0a00 00000000 		.word	SEPARATOR
 3798 0a04 00000000 		.word	msn_pos
 3799 0a08 00000000 		.word	msn_lecact
 3800              	.L224:
 738:printer.c     ****         memoria[x] = EEPROM_1_ReadByte(46+x);
 3801              		.loc 1 738 0 discriminator 3
 3802 0a0c 97F85740 		ldrb	r4, [r7, #87]	@ zero_extendqisi2
 3803 0a10 97F85730 		ldrb	r3, [r7, #87]	@ zero_extendqisi2
 3804 0a14 9BB2     		uxth	r3, r3
 3805 0a16 2E33     		adds	r3, r3, #46
 3806 0a18 9BB2     		uxth	r3, r3
 3807 0a1a 1846     		mov	r0, r3
 3808 0a1c FFF7FEFF 		bl	EEPROM_1_ReadByte
 3809 0a20 0346     		mov	r3, r0
 3810 0a22 1A46     		mov	r2, r3
 3811 0a24 07F17803 		add	r3, r7, #120
 3812 0a28 2344     		add	r3, r3, r4
 3813 0a2a 03F8682C 		strb	r2, [r3, #-104]
 737:printer.c     ****     for(uint8 x = 0; x < 10; x ++){
 3814              		.loc 1 737 0 discriminator 3
 3815 0a2e 97F85730 		ldrb	r3, [r7, #87]	@ zero_extendqisi2
 3816 0a32 0133     		adds	r3, r3, #1
 3817 0a34 87F85730 		strb	r3, [r7, #87]
 3818              	.L223:
 737:printer.c     ****     for(uint8 x = 0; x < 10; x ++){
 3819              		.loc 1 737 0 is_stmt 0 discriminator 1
 3820 0a38 97F85730 		ldrb	r3, [r7, #87]	@ zero_extendqisi2
 3821 0a3c 092B     		cmp	r3, #9
 3822 0a3e E5D9     		bls	.L224
 3823              	.LBE92:
ARM GAS  C:\Users\Diego\AppData\Local\Temp\ccz6pbcU.s 			page 87


 3824              	.LBB93:
 739:printer.c     ****     }
 740:printer.c     ****     for(uint8 x = 0; x < 10; x ++){ 
 3825              		.loc 1 740 0 is_stmt 1
 3826 0a40 0023     		movs	r3, #0
 3827 0a42 87F85630 		strb	r3, [r7, #86]
 3828 0a46 19E0     		b	.L225
 3829              	.L227:
 741:printer.c     ****         if((10-x) == DecVol)
 3830              		.loc 1 741 0
 3831 0a48 97F85630 		ldrb	r3, [r7, #86]	@ zero_extendqisi2
 3832 0a4c C3F10A03 		rsb	r3, r3, #10
 3833 0a50 D24A     		ldr	r2, .L277
 3834 0a52 1278     		ldrb	r2, [r2]	@ zero_extendqisi2
 3835 0a54 9342     		cmp	r3, r2
 3836 0a56 02D1     		bne	.L226
 742:printer.c     ****             PRINTER_A_PutChar('.');
 3837              		.loc 1 742 0
 3838 0a58 2E20     		movs	r0, #46
 3839 0a5a FFF7FEFF 		bl	PRINTER_A_PutChar
 3840              	.L226:
 743:printer.c     ****         PRINTER_A_PutChar(memoria[x]);
 3841              		.loc 1 743 0 discriminator 2
 3842 0a5e 97F85630 		ldrb	r3, [r7, #86]	@ zero_extendqisi2
 3843 0a62 07F17802 		add	r2, r7, #120
 3844 0a66 1344     		add	r3, r3, r2
 3845 0a68 13F8683C 		ldrb	r3, [r3, #-104]	@ zero_extendqisi2
 3846 0a6c 1846     		mov	r0, r3
 3847 0a6e FFF7FEFF 		bl	PRINTER_A_PutChar
 740:printer.c     ****         if((10-x) == DecVol)
 3848              		.loc 1 740 0 discriminator 2
 3849 0a72 97F85630 		ldrb	r3, [r7, #86]	@ zero_extendqisi2
 3850 0a76 0133     		adds	r3, r3, #1
 3851 0a78 87F85630 		strb	r3, [r7, #86]
 3852              	.L225:
 740:printer.c     ****         if((10-x) == DecVol)
 3853              		.loc 1 740 0 is_stmt 0 discriminator 1
 3854 0a7c 97F85630 		ldrb	r3, [r7, #86]	@ zero_extendqisi2
 3855 0a80 092B     		cmp	r3, #9
 3856 0a82 E1D9     		bls	.L227
 3857              	.LBE93:
 744:printer.c     ****     }
 745:printer.c     ****     PRINTER_A_PutChar(LINE_FEED);
 3858              		.loc 1 745 0 is_stmt 1
 3859 0a84 C64B     		ldr	r3, .L277+4
 3860 0a86 1B78     		ldrb	r3, [r3]	@ zero_extendqisi2
 3861 0a88 1846     		mov	r0, r3
 3862 0a8a FFF7FEFF 		bl	PRINTER_A_PutChar
 3863              	.LBB94:
 746:printer.c     ****     for(uint8 x = pos; x < 10; x++ ){
 3864              		.loc 1 746 0
 3865 0a8e 97F87630 		ldrb	r3, [r7, #118]
 3866 0a92 87F85530 		strb	r3, [r7, #85]
 3867 0a96 2DE0     		b	.L228
 3868              	.L229:
 747:printer.c     ****         lectactual[x-pos] = side.b.ProcessedTotals[0][0][x];
 3869              		.loc 1 747 0 discriminator 3
ARM GAS  C:\Users\Diego\AppData\Local\Temp\ccz6pbcU.s 			page 88


 3870 0a98 97F85520 		ldrb	r2, [r7, #85]	@ zero_extendqisi2
 3871 0a9c 97F87630 		ldrb	r3, [r7, #118]	@ zero_extendqisi2
 3872 0aa0 D31A     		subs	r3, r2, r3
 3873 0aa2 97F85520 		ldrb	r2, [r7, #85]	@ zero_extendqisi2
 3874 0aa6 BF49     		ldr	r1, .L277+8
 3875 0aa8 0A44     		add	r2, r2, r1
 3876 0aaa 92F8B821 		ldrb	r2, [r2, #440]	@ zero_extendqisi2
 3877 0aae 07F17801 		add	r1, r7, #120
 3878 0ab2 0B44     		add	r3, r3, r1
 3879 0ab4 03F85C2C 		strb	r2, [r3, #-92]
 748:printer.c     ****         lectanterior[x-pos] = memoria[x];
 3880              		.loc 1 748 0 discriminator 3
 3881 0ab8 97F85520 		ldrb	r2, [r7, #85]	@ zero_extendqisi2
 3882 0abc 97F87630 		ldrb	r3, [r7, #118]	@ zero_extendqisi2
 3883 0ac0 D31A     		subs	r3, r2, r3
 3884 0ac2 97F85520 		ldrb	r2, [r7, #85]	@ zero_extendqisi2
 3885 0ac6 07F17801 		add	r1, r7, #120
 3886 0aca 0A44     		add	r2, r2, r1
 3887 0acc 12F8682C 		ldrb	r2, [r2, #-104]	@ zero_extendqisi2
 3888 0ad0 07F17801 		add	r1, r7, #120
 3889 0ad4 0B44     		add	r3, r3, r1
 3890 0ad6 03F8502C 		strb	r2, [r3, #-80]
 749:printer.c     ****         resultado[x] = 0x00;
 3891              		.loc 1 749 0 discriminator 3
 3892 0ada 97F85530 		ldrb	r3, [r7, #85]	@ zero_extendqisi2
 3893 0ade 07F17802 		add	r2, r7, #120
 3894 0ae2 1344     		add	r3, r3, r2
 3895 0ae4 0022     		movs	r2, #0
 3896 0ae6 03F8742C 		strb	r2, [r3, #-116]
 746:printer.c     ****         lectactual[x-pos] = side.b.ProcessedTotals[0][0][x];
 3897              		.loc 1 746 0 discriminator 3
 3898 0aea 97F85530 		ldrb	r3, [r7, #85]	@ zero_extendqisi2
 3899 0aee 0133     		adds	r3, r3, #1
 3900 0af0 87F85530 		strb	r3, [r7, #85]
 3901              	.L228:
 746:printer.c     ****         lectactual[x-pos] = side.b.ProcessedTotals[0][0][x];
 3902              		.loc 1 746 0 is_stmt 0 discriminator 1
 3903 0af4 97F85530 		ldrb	r3, [r7, #85]	@ zero_extendqisi2
 3904 0af8 092B     		cmp	r3, #9
 3905 0afa CDD9     		bls	.L229
 3906              	.LBE94:
 750:printer.c     ****     }
 751:printer.c     ****     
 752:printer.c     ****     anterior = atoi(lectanterior);
 3907              		.loc 1 752 0 is_stmt 1
 3908 0afc 07F12803 		add	r3, r7, #40
 3909 0b00 1846     		mov	r0, r3
 3910 0b02 FFF7FEFF 		bl	atoi
 3911 0b06 0346     		mov	r3, r0
 3912 0b08 FB63     		str	r3, [r7, #60]
 753:printer.c     ****     actual = atoi(lectactual);
 3913              		.loc 1 753 0
 3914 0b0a 07F11C03 		add	r3, r7, #28
 3915 0b0e 1846     		mov	r0, r3
 3916 0b10 FFF7FEFF 		bl	atoi
 3917 0b14 0346     		mov	r3, r0
 3918 0b16 BB63     		str	r3, [r7, #56]
ARM GAS  C:\Users\Diego\AppData\Local\Temp\ccz6pbcU.s 			page 89


 754:printer.c     ****     resta =  actual - anterior;
 3919              		.loc 1 754 0
 3920 0b18 BA6B     		ldr	r2, [r7, #56]
 3921 0b1a FB6B     		ldr	r3, [r7, #60]
 3922 0b1c D31A     		subs	r3, r2, r3
 3923 0b1e 7B63     		str	r3, [r7, #52]
 755:printer.c     ****     itoa(resta,resultado,10);
 3924              		.loc 1 755 0
 3925 0b20 7B6B     		ldr	r3, [r7, #52]
 3926 0b22 391D     		adds	r1, r7, #4
 3927 0b24 0A22     		movs	r2, #10
 3928 0b26 1846     		mov	r0, r3
 3929 0b28 FFF7FEFF 		bl	itoa
 3930              	.LBB95:
 756:printer.c     ****     for(uint8 x = 0; x < 18; x ++){
 3931              		.loc 1 756 0
 3932 0b2c 0023     		movs	r3, #0
 3933 0b2e 87F85430 		strb	r3, [r7, #84]
 3934 0b32 0BE0     		b	.L230
 3935              	.L231:
 757:printer.c     ****         PRINTER_A_PutChar(msn_dif[x]);
 3936              		.loc 1 757 0 discriminator 3
 3937 0b34 97F85430 		ldrb	r3, [r7, #84]	@ zero_extendqisi2
 3938 0b38 9B4A     		ldr	r2, .L277+12
 3939 0b3a D35C     		ldrb	r3, [r2, r3]	@ zero_extendqisi2
 3940 0b3c 1846     		mov	r0, r3
 3941 0b3e FFF7FEFF 		bl	PRINTER_A_PutChar
 756:printer.c     ****     for(uint8 x = 0; x < 18; x ++){
 3942              		.loc 1 756 0 discriminator 3
 3943 0b42 97F85430 		ldrb	r3, [r7, #84]	@ zero_extendqisi2
 3944 0b46 0133     		adds	r3, r3, #1
 3945 0b48 87F85430 		strb	r3, [r7, #84]
 3946              	.L230:
 756:printer.c     ****     for(uint8 x = 0; x < 18; x ++){
 3947              		.loc 1 756 0 is_stmt 0 discriminator 1
 3948 0b4c 97F85430 		ldrb	r3, [r7, #84]	@ zero_extendqisi2
 3949 0b50 112B     		cmp	r3, #17
 3950 0b52 EFD9     		bls	.L231
 3951              	.LBE95:
 758:printer.c     ****     }
 759:printer.c     ****     PRINTER_A_PutChar(LINE_FEED);
 3952              		.loc 1 759 0 is_stmt 1
 3953 0b54 924B     		ldr	r3, .L277+4
 3954 0b56 1B78     		ldrb	r3, [r3]	@ zero_extendqisi2
 3955 0b58 1846     		mov	r0, r3
 3956 0b5a FFF7FEFF 		bl	PRINTER_A_PutChar
 3957              	.LBB96:
 760:printer.c     ****     for(uint8 x = 0; x < 10; x ++){
 3958              		.loc 1 760 0
 3959 0b5e 0023     		movs	r3, #0
 3960 0b60 87F85330 		strb	r3, [r7, #83]
 3961 0b64 19E0     		b	.L232
 3962              	.L234:
 761:printer.c     ****         if((10-x) == DecVol)
 3963              		.loc 1 761 0
 3964 0b66 97F85330 		ldrb	r3, [r7, #83]	@ zero_extendqisi2
 3965 0b6a C3F10A03 		rsb	r3, r3, #10
ARM GAS  C:\Users\Diego\AppData\Local\Temp\ccz6pbcU.s 			page 90


 3966 0b6e 8B4A     		ldr	r2, .L277
 3967 0b70 1278     		ldrb	r2, [r2]	@ zero_extendqisi2
 3968 0b72 9342     		cmp	r3, r2
 3969 0b74 02D1     		bne	.L233
 762:printer.c     ****             PRINTER_A_PutChar('.');
 3970              		.loc 1 762 0
 3971 0b76 2E20     		movs	r0, #46
 3972 0b78 FFF7FEFF 		bl	PRINTER_A_PutChar
 3973              	.L233:
 763:printer.c     ****         PRINTER_A_PutChar(resultado[x]);
 3974              		.loc 1 763 0 discriminator 2
 3975 0b7c 97F85330 		ldrb	r3, [r7, #83]	@ zero_extendqisi2
 3976 0b80 07F17802 		add	r2, r7, #120
 3977 0b84 1344     		add	r3, r3, r2
 3978 0b86 13F8743C 		ldrb	r3, [r3, #-116]	@ zero_extendqisi2
 3979 0b8a 1846     		mov	r0, r3
 3980 0b8c FFF7FEFF 		bl	PRINTER_A_PutChar
 760:printer.c     ****         if((10-x) == DecVol)
 3981              		.loc 1 760 0 discriminator 2
 3982 0b90 97F85330 		ldrb	r3, [r7, #83]	@ zero_extendqisi2
 3983 0b94 0133     		adds	r3, r3, #1
 3984 0b96 87F85330 		strb	r3, [r7, #83]
 3985              	.L232:
 760:printer.c     ****         if((10-x) == DecVol)
 3986              		.loc 1 760 0 is_stmt 0 discriminator 1
 3987 0b9a 97F85330 		ldrb	r3, [r7, #83]	@ zero_extendqisi2
 3988 0b9e 092B     		cmp	r3, #9
 3989 0ba0 E1D9     		bls	.L234
 3990              	.LBE96:
 764:printer.c     ****     }
 765:printer.c     ****     PRINTER_A_PutChar(LINE_FEED);
 3991              		.loc 1 765 0 is_stmt 1
 3992 0ba2 7F4B     		ldr	r3, .L277+4
 3993 0ba4 1B78     		ldrb	r3, [r3]	@ zero_extendqisi2
 3994 0ba6 1846     		mov	r0, r3
 3995 0ba8 FFF7FEFF 		bl	PRINTER_A_PutChar
 766:printer.c     ****     
 767:printer.c     ****     if((Positions-1)>= 3){
 3996              		.loc 1 767 0
 3997 0bac 7F4B     		ldr	r3, .L277+16
 3998 0bae 1B78     		ldrb	r3, [r3]	@ zero_extendqisi2
 3999 0bb0 013B     		subs	r3, r3, #1
 4000 0bb2 022B     		cmp	r3, #2
 4001 0bb4 40F31781 		ble	.L235
 4002              	.LBB97:
 768:printer.c     ****         for(uint8 x = 0; x < 32; x ++){
 4003              		.loc 1 768 0
 4004 0bb8 0023     		movs	r3, #0
 4005 0bba 87F85230 		strb	r3, [r7, #82]
 4006 0bbe 0BE0     		b	.L236
 4007              	.L237:
 769:printer.c     ****             PRINTER_A_PutChar(SEPARATOR[x]);
 4008              		.loc 1 769 0 discriminator 3
 4009 0bc0 97F85230 		ldrb	r3, [r7, #82]	@ zero_extendqisi2
 4010 0bc4 7A4A     		ldr	r2, .L277+20
 4011 0bc6 D35C     		ldrb	r3, [r2, r3]	@ zero_extendqisi2
 4012 0bc8 1846     		mov	r0, r3
ARM GAS  C:\Users\Diego\AppData\Local\Temp\ccz6pbcU.s 			page 91


 4013 0bca FFF7FEFF 		bl	PRINTER_A_PutChar
 768:printer.c     ****         for(uint8 x = 0; x < 32; x ++){
 4014              		.loc 1 768 0 discriminator 3
 4015 0bce 97F85230 		ldrb	r3, [r7, #82]	@ zero_extendqisi2
 4016 0bd2 0133     		adds	r3, r3, #1
 4017 0bd4 87F85230 		strb	r3, [r7, #82]
 4018              	.L236:
 768:printer.c     ****         for(uint8 x = 0; x < 32; x ++){
 4019              		.loc 1 768 0 is_stmt 0 discriminator 1
 4020 0bd8 97F85230 		ldrb	r3, [r7, #82]	@ zero_extendqisi2
 4021 0bdc 1F2B     		cmp	r3, #31
 4022 0bde EFD9     		bls	.L237
 4023              	.LBE97:
 770:printer.c     ****         }           
 771:printer.c     ****         PRINTER_A_PutChar(LINE_FEED);
 4024              		.loc 1 771 0 is_stmt 1
 4025 0be0 6F4B     		ldr	r3, .L277+4
 4026 0be2 1B78     		ldrb	r3, [r3]	@ zero_extendqisi2
 4027 0be4 1846     		mov	r0, r3
 4028 0be6 FFF7FEFF 		bl	PRINTER_A_PutChar
 4029              	.LBB98:
 772:printer.c     ****         for(uint8 x = 0; x < 13; x ++){
 4030              		.loc 1 772 0
 4031 0bea 0023     		movs	r3, #0
 4032 0bec 87F85130 		strb	r3, [r7, #81]
 4033 0bf0 0BE0     		b	.L238
 4034              	.L239:
 773:printer.c     ****             PRINTER_A_PutChar(msn_pos[x]);
 4035              		.loc 1 773 0 discriminator 3
 4036 0bf2 97F85130 		ldrb	r3, [r7, #81]	@ zero_extendqisi2
 4037 0bf6 6F4A     		ldr	r2, .L277+24
 4038 0bf8 D35C     		ldrb	r3, [r2, r3]	@ zero_extendqisi2
 4039 0bfa 1846     		mov	r0, r3
 4040 0bfc FFF7FEFF 		bl	PRINTER_A_PutChar
 772:printer.c     ****         for(uint8 x = 0; x < 13; x ++){
 4041              		.loc 1 772 0 discriminator 3
 4042 0c00 97F85130 		ldrb	r3, [r7, #81]	@ zero_extendqisi2
 4043 0c04 0133     		adds	r3, r3, #1
 4044 0c06 87F85130 		strb	r3, [r7, #81]
 4045              	.L238:
 772:printer.c     ****         for(uint8 x = 0; x < 13; x ++){
 4046              		.loc 1 772 0 is_stmt 0 discriminator 1
 4047 0c0a 97F85130 		ldrb	r3, [r7, #81]	@ zero_extendqisi2
 4048 0c0e 0C2B     		cmp	r3, #12
 4049 0c10 EFD9     		bls	.L239
 4050              	.LBE98:
 774:printer.c     ****         }
 775:printer.c     ****         PRINTER_A_PutChar(side.c.dir + 0x31);
 4051              		.loc 1 775 0 is_stmt 1
 4052 0c12 644B     		ldr	r3, .L277+8
 4053 0c14 93F86A32 		ldrb	r3, [r3, #618]	@ zero_extendqisi2
 4054 0c18 3133     		adds	r3, r3, #49
 4055 0c1a DBB2     		uxtb	r3, r3
 4056 0c1c 1846     		mov	r0, r3
 4057 0c1e FFF7FEFF 		bl	PRINTER_A_PutChar
 776:printer.c     ****         PRINTER_A_PutChar(LINE_FEED);              
 4058              		.loc 1 776 0
ARM GAS  C:\Users\Diego\AppData\Local\Temp\ccz6pbcU.s 			page 92


 4059 0c22 5F4B     		ldr	r3, .L277+4
 4060 0c24 1B78     		ldrb	r3, [r3]	@ zero_extendqisi2
 4061 0c26 1846     		mov	r0, r3
 4062 0c28 FFF7FEFF 		bl	PRINTER_A_PutChar
 4063              	.LBB99:
 777:printer.c     ****         for(uint8 x = 0; x < 10; x ++){ 
 4064              		.loc 1 777 0
 4065 0c2c 0023     		movs	r3, #0
 4066 0c2e 87F85030 		strb	r3, [r7, #80]
 4067 0c32 18E0     		b	.L240
 4068              	.L242:
 778:printer.c     ****             if((10-x) == DecVol)
 4069              		.loc 1 778 0
 4070 0c34 97F85030 		ldrb	r3, [r7, #80]	@ zero_extendqisi2
 4071 0c38 C3F10A03 		rsb	r3, r3, #10
 4072 0c3c 574A     		ldr	r2, .L277
 4073 0c3e 1278     		ldrb	r2, [r2]	@ zero_extendqisi2
 4074 0c40 9342     		cmp	r3, r2
 4075 0c42 02D1     		bne	.L241
 779:printer.c     ****                 PRINTER_A_PutChar('.');
 4076              		.loc 1 779 0
 4077 0c44 2E20     		movs	r0, #46
 4078 0c46 FFF7FEFF 		bl	PRINTER_A_PutChar
 4079              	.L241:
 780:printer.c     ****             PRINTER_A_PutChar(side.c.ProcessedTotals[0][0][x]);
 4080              		.loc 1 780 0 discriminator 2
 4081 0c4a 97F85030 		ldrb	r3, [r7, #80]	@ zero_extendqisi2
 4082 0c4e 554A     		ldr	r2, .L277+8
 4083 0c50 1344     		add	r3, r3, r2
 4084 0c52 93F8ED32 		ldrb	r3, [r3, #749]	@ zero_extendqisi2
 4085 0c56 1846     		mov	r0, r3
 4086 0c58 FFF7FEFF 		bl	PRINTER_A_PutChar
 777:printer.c     ****             if((10-x) == DecVol)
 4087              		.loc 1 777 0 discriminator 2
 4088 0c5c 97F85030 		ldrb	r3, [r7, #80]	@ zero_extendqisi2
 4089 0c60 0133     		adds	r3, r3, #1
 4090 0c62 87F85030 		strb	r3, [r7, #80]
 4091              	.L240:
 777:printer.c     ****             if((10-x) == DecVol)
 4092              		.loc 1 777 0 is_stmt 0 discriminator 1
 4093 0c66 97F85030 		ldrb	r3, [r7, #80]	@ zero_extendqisi2
 4094 0c6a 092B     		cmp	r3, #9
 4095 0c6c E2D9     		bls	.L242
 4096              	.LBE99:
 781:printer.c     ****         }
 782:printer.c     ****         PRINTER_A_PutChar(LINE_FEED);
 4097              		.loc 1 782 0 is_stmt 1
 4098 0c6e 4C4B     		ldr	r3, .L277+4
 4099 0c70 1B78     		ldrb	r3, [r3]	@ zero_extendqisi2
 4100 0c72 1846     		mov	r0, r3
 4101 0c74 FFF7FEFF 		bl	PRINTER_A_PutChar
 4102              	.LBB100:
 783:printer.c     ****     	for(uint8 x = 0; x < 16; x ++){
 4103              		.loc 1 783 0
 4104 0c78 0023     		movs	r3, #0
 4105 0c7a 87F84F30 		strb	r3, [r7, #79]
 4106 0c7e 0BE0     		b	.L243
ARM GAS  C:\Users\Diego\AppData\Local\Temp\ccz6pbcU.s 			page 93


 4107              	.L244:
 784:printer.c     ****     		PRINTER_A_PutChar(msn_lecaan[x]);
 4108              		.loc 1 784 0 discriminator 3
 4109 0c80 97F84F30 		ldrb	r3, [r7, #79]	@ zero_extendqisi2
 4110 0c84 4C4A     		ldr	r2, .L277+28
 4111 0c86 D35C     		ldrb	r3, [r2, r3]	@ zero_extendqisi2
 4112 0c88 1846     		mov	r0, r3
 4113 0c8a FFF7FEFF 		bl	PRINTER_A_PutChar
 783:printer.c     ****     	for(uint8 x = 0; x < 16; x ++){
 4114              		.loc 1 783 0 discriminator 3
 4115 0c8e 97F84F30 		ldrb	r3, [r7, #79]	@ zero_extendqisi2
 4116 0c92 0133     		adds	r3, r3, #1
 4117 0c94 87F84F30 		strb	r3, [r7, #79]
 4118              	.L243:
 783:printer.c     ****     	for(uint8 x = 0; x < 16; x ++){
 4119              		.loc 1 783 0 is_stmt 0 discriminator 1
 4120 0c98 97F84F30 		ldrb	r3, [r7, #79]	@ zero_extendqisi2
 4121 0c9c 0F2B     		cmp	r3, #15
 4122 0c9e EFD9     		bls	.L244
 4123              	.LBE100:
 785:printer.c     ****     	}
 786:printer.c     ****         PRINTER_A_PutChar(LINE_FEED);
 4124              		.loc 1 786 0 is_stmt 1
 4125 0ca0 3F4B     		ldr	r3, .L277+4
 4126 0ca2 1B78     		ldrb	r3, [r3]	@ zero_extendqisi2
 4127 0ca4 1846     		mov	r0, r3
 4128 0ca6 FFF7FEFF 		bl	PRINTER_A_PutChar
 4129              	.LBB101:
 787:printer.c     ****         for(uint8 x = 0; x < 32; x ++){
 4130              		.loc 1 787 0
 4131 0caa 0023     		movs	r3, #0
 4132 0cac 87F84E30 		strb	r3, [r7, #78]
 4133 0cb0 0BE0     		b	.L245
 4134              	.L246:
 788:printer.c     ****             PRINTER_A_PutChar(SEPARATOR[x]);
 4135              		.loc 1 788 0 discriminator 3
 4136 0cb2 97F84E30 		ldrb	r3, [r7, #78]	@ zero_extendqisi2
 4137 0cb6 3E4A     		ldr	r2, .L277+20
 4138 0cb8 D35C     		ldrb	r3, [r2, r3]	@ zero_extendqisi2
 4139 0cba 1846     		mov	r0, r3
 4140 0cbc FFF7FEFF 		bl	PRINTER_A_PutChar
 787:printer.c     ****         for(uint8 x = 0; x < 32; x ++){
 4141              		.loc 1 787 0 discriminator 3
 4142 0cc0 97F84E30 		ldrb	r3, [r7, #78]	@ zero_extendqisi2
 4143 0cc4 0133     		adds	r3, r3, #1
 4144 0cc6 87F84E30 		strb	r3, [r7, #78]
 4145              	.L245:
 787:printer.c     ****         for(uint8 x = 0; x < 32; x ++){
 4146              		.loc 1 787 0 is_stmt 0 discriminator 1
 4147 0cca 97F84E30 		ldrb	r3, [r7, #78]	@ zero_extendqisi2
 4148 0cce 1F2B     		cmp	r3, #31
 4149 0cd0 EFD9     		bls	.L246
 4150              	.LBE101:
 789:printer.c     ****         }   
 790:printer.c     ****         PRINTER_A_PutChar(LINE_FEED);
 4151              		.loc 1 790 0 is_stmt 1
 4152 0cd2 334B     		ldr	r3, .L277+4
ARM GAS  C:\Users\Diego\AppData\Local\Temp\ccz6pbcU.s 			page 94


 4153 0cd4 1B78     		ldrb	r3, [r3]	@ zero_extendqisi2
 4154 0cd6 1846     		mov	r0, r3
 4155 0cd8 FFF7FEFF 		bl	PRINTER_A_PutChar
 4156              	.LBB102:
 791:printer.c     ****     	for(uint8 x = 0; x < 13; x ++){
 4157              		.loc 1 791 0
 4158 0cdc 0023     		movs	r3, #0
 4159 0cde 87F84D30 		strb	r3, [r7, #77]
 4160 0ce2 0BE0     		b	.L247
 4161              	.L248:
 792:printer.c     ****             PRINTER_A_PutChar(msn_pos[x]);
 4162              		.loc 1 792 0 discriminator 3
 4163 0ce4 97F84D30 		ldrb	r3, [r7, #77]	@ zero_extendqisi2
 4164 0ce8 324A     		ldr	r2, .L277+24
 4165 0cea D35C     		ldrb	r3, [r2, r3]	@ zero_extendqisi2
 4166 0cec 1846     		mov	r0, r3
 4167 0cee FFF7FEFF 		bl	PRINTER_A_PutChar
 791:printer.c     ****     	for(uint8 x = 0; x < 13; x ++){
 4168              		.loc 1 791 0 discriminator 3
 4169 0cf2 97F84D30 		ldrb	r3, [r7, #77]	@ zero_extendqisi2
 4170 0cf6 0133     		adds	r3, r3, #1
 4171 0cf8 87F84D30 		strb	r3, [r7, #77]
 4172              	.L247:
 791:printer.c     ****     	for(uint8 x = 0; x < 13; x ++){
 4173              		.loc 1 791 0 is_stmt 0 discriminator 1
 4174 0cfc 97F84D30 		ldrb	r3, [r7, #77]	@ zero_extendqisi2
 4175 0d00 0C2B     		cmp	r3, #12
 4176 0d02 EFD9     		bls	.L248
 4177              	.LBE102:
 793:printer.c     ****         }
 794:printer.c     ****         PRINTER_A_PutChar(side.d.dir + 0x31);
 4178              		.loc 1 794 0 is_stmt 1
 4179 0d04 274B     		ldr	r3, .L277+8
 4180 0d06 93F89F33 		ldrb	r3, [r3, #927]	@ zero_extendqisi2
 4181 0d0a 3133     		adds	r3, r3, #49
 4182 0d0c DBB2     		uxtb	r3, r3
 4183 0d0e 1846     		mov	r0, r3
 4184 0d10 FFF7FEFF 		bl	PRINTER_A_PutChar
 795:printer.c     ****         PRINTER_A_PutChar(LINE_FEED);                      
 4185              		.loc 1 795 0
 4186 0d14 224B     		ldr	r3, .L277+4
 4187 0d16 1B78     		ldrb	r3, [r3]	@ zero_extendqisi2
 4188 0d18 1846     		mov	r0, r3
 4189 0d1a FFF7FEFF 		bl	PRINTER_A_PutChar
 4190              	.LBB103:
 796:printer.c     ****         for(uint8 x = 0; x < 10; x ++){ 
 4191              		.loc 1 796 0
 4192 0d1e 0023     		movs	r3, #0
 4193 0d20 87F84C30 		strb	r3, [r7, #76]
 4194 0d24 18E0     		b	.L249
 4195              	.L251:
 797:printer.c     ****             if((10-x) == DecVol)
 4196              		.loc 1 797 0
 4197 0d26 97F84C30 		ldrb	r3, [r7, #76]	@ zero_extendqisi2
 4198 0d2a C3F10A03 		rsb	r3, r3, #10
 4199 0d2e 1B4A     		ldr	r2, .L277
 4200 0d30 1278     		ldrb	r2, [r2]	@ zero_extendqisi2
ARM GAS  C:\Users\Diego\AppData\Local\Temp\ccz6pbcU.s 			page 95


 4201 0d32 9342     		cmp	r3, r2
 4202 0d34 02D1     		bne	.L250
 798:printer.c     ****                 PRINTER_A_PutChar('.');
 4203              		.loc 1 798 0
 4204 0d36 2E20     		movs	r0, #46
 4205 0d38 FFF7FEFF 		bl	PRINTER_A_PutChar
 4206              	.L250:
 799:printer.c     ****             PRINTER_A_PutChar(side.d.ProcessedTotals[0][0][x]);
 4207              		.loc 1 799 0 discriminator 2
 4208 0d3c 97F84C30 		ldrb	r3, [r7, #76]	@ zero_extendqisi2
 4209 0d40 184A     		ldr	r2, .L277+8
 4210 0d42 1344     		add	r3, r3, r2
 4211 0d44 93F82234 		ldrb	r3, [r3, #1058]	@ zero_extendqisi2
 4212 0d48 1846     		mov	r0, r3
 4213 0d4a FFF7FEFF 		bl	PRINTER_A_PutChar
 796:printer.c     ****             if((10-x) == DecVol)
 4214              		.loc 1 796 0 discriminator 2
 4215 0d4e 97F84C30 		ldrb	r3, [r7, #76]	@ zero_extendqisi2
 4216 0d52 0133     		adds	r3, r3, #1
 4217 0d54 87F84C30 		strb	r3, [r7, #76]
 4218              	.L249:
 796:printer.c     ****             if((10-x) == DecVol)
 4219              		.loc 1 796 0 is_stmt 0 discriminator 1
 4220 0d58 97F84C30 		ldrb	r3, [r7, #76]	@ zero_extendqisi2
 4221 0d5c 092B     		cmp	r3, #9
 4222 0d5e E2D9     		bls	.L251
 4223              	.LBE103:
 800:printer.c     ****         }
 801:printer.c     ****         PRINTER_A_PutChar(LINE_FEED);
 4224              		.loc 1 801 0 is_stmt 1
 4225 0d60 0F4B     		ldr	r3, .L277+4
 4226 0d62 1B78     		ldrb	r3, [r3]	@ zero_extendqisi2
 4227 0d64 1846     		mov	r0, r3
 4228 0d66 FFF7FEFF 		bl	PRINTER_A_PutChar
 4229              	.LBB104:
 802:printer.c     ****     	for(uint8 x = 0; x < 16; x ++){
 4230              		.loc 1 802 0
 4231 0d6a 0023     		movs	r3, #0
 4232 0d6c 87F84B30 		strb	r3, [r7, #75]
 4233 0d70 0BE0     		b	.L252
 4234              	.L253:
 803:printer.c     ****     		PRINTER_A_PutChar(msn_lecaan[x]);
 4235              		.loc 1 803 0 discriminator 3
 4236 0d72 97F84B30 		ldrb	r3, [r7, #75]	@ zero_extendqisi2
 4237 0d76 104A     		ldr	r2, .L277+28
 4238 0d78 D35C     		ldrb	r3, [r2, r3]	@ zero_extendqisi2
 4239 0d7a 1846     		mov	r0, r3
 4240 0d7c FFF7FEFF 		bl	PRINTER_A_PutChar
 802:printer.c     ****     	for(uint8 x = 0; x < 16; x ++){
 4241              		.loc 1 802 0 discriminator 3
 4242 0d80 97F84B30 		ldrb	r3, [r7, #75]	@ zero_extendqisi2
 4243 0d84 0133     		adds	r3, r3, #1
 4244 0d86 87F84B30 		strb	r3, [r7, #75]
 4245              	.L252:
 802:printer.c     ****     	for(uint8 x = 0; x < 16; x ++){
 4246              		.loc 1 802 0 is_stmt 0 discriminator 1
 4247 0d8a 97F84B30 		ldrb	r3, [r7, #75]	@ zero_extendqisi2
ARM GAS  C:\Users\Diego\AppData\Local\Temp\ccz6pbcU.s 			page 96


 4248 0d8e 0F2B     		cmp	r3, #15
 4249 0d90 EFD9     		bls	.L253
 4250              	.LBE104:
 4251              	.LBB105:
 804:printer.c     ****     	}
 805:printer.c     ****         
 806:printer.c     ****         for(uint8 x = 0; x < 24; x ++){
 4252              		.loc 1 806 0 is_stmt 1
 4253 0d92 0023     		movs	r3, #0
 4254 0d94 87F84A30 		strb	r3, [r7, #74]
 4255 0d98 1CE0     		b	.L254
 4256              	.L278:
 4257 0d9a 00BF     		.align	2
 4258              	.L277:
 4259 0d9c 00000000 		.word	DecVol
 4260 0da0 00000000 		.word	LINE_FEED
 4261 0da4 00000000 		.word	side
 4262 0da8 00000000 		.word	msn_dif
 4263 0dac 00000000 		.word	Positions
 4264 0db0 00000000 		.word	SEPARATOR
 4265 0db4 00000000 		.word	msn_pos
 4266 0db8 00000000 		.word	msn_lecaan
 4267              	.L255:
 807:printer.c     ****             PRINTER_A_PutChar(SEPARATOR[x]);
 4268              		.loc 1 807 0 discriminator 3
 4269 0dbc 97F84A30 		ldrb	r3, [r7, #74]	@ zero_extendqisi2
 4270 0dc0 724A     		ldr	r2, .L279
 4271 0dc2 D35C     		ldrb	r3, [r2, r3]	@ zero_extendqisi2
 4272 0dc4 1846     		mov	r0, r3
 4273 0dc6 FFF7FEFF 		bl	PRINTER_A_PutChar
 806:printer.c     ****             PRINTER_A_PutChar(SEPARATOR[x]);
 4274              		.loc 1 806 0 discriminator 3
 4275 0dca 97F84A30 		ldrb	r3, [r7, #74]	@ zero_extendqisi2
 4276 0dce 0133     		adds	r3, r3, #1
 4277 0dd0 87F84A30 		strb	r3, [r7, #74]
 4278              	.L254:
 806:printer.c     ****             PRINTER_A_PutChar(SEPARATOR[x]);
 4279              		.loc 1 806 0 is_stmt 0 discriminator 1
 4280 0dd4 97F84A30 		ldrb	r3, [r7, #74]	@ zero_extendqisi2
 4281 0dd8 172B     		cmp	r3, #23
 4282 0dda EFD9     		bls	.L255
 4283              	.LBE105:
 808:printer.c     ****         }            
 809:printer.c     **** 	    PRINTER_A_PutChar(LINE_FEED);
 4284              		.loc 1 809 0 is_stmt 1
 4285 0ddc 6C4B     		ldr	r3, .L279+4
 4286 0dde 1B78     		ldrb	r3, [r3]	@ zero_extendqisi2
 4287 0de0 1846     		mov	r0, r3
 4288 0de2 FFF7FEFF 		bl	PRINTER_A_PutChar
 4289              	.L235:
 4290              	.LBB106:
 810:printer.c     ****     } 
 811:printer.c     ****     /******FOOTER*****/
 812:printer.c     **** 	for(uint8 x = 0; x < 32; x ++){
 4291              		.loc 1 812 0
 4292 0de6 0023     		movs	r3, #0
 4293 0de8 87F84930 		strb	r3, [r7, #73]
ARM GAS  C:\Users\Diego\AppData\Local\Temp\ccz6pbcU.s 			page 97


 4294 0dec 0BE0     		b	.L256
 4295              	.L257:
 813:printer.c     **** 		PRINTER_A_PutChar(SEPARATOR[x]);
 4296              		.loc 1 813 0 discriminator 3
 4297 0dee 97F84930 		ldrb	r3, [r7, #73]	@ zero_extendqisi2
 4298 0df2 664A     		ldr	r2, .L279
 4299 0df4 D35C     		ldrb	r3, [r2, r3]	@ zero_extendqisi2
 4300 0df6 1846     		mov	r0, r3
 4301 0df8 FFF7FEFF 		bl	PRINTER_A_PutChar
 812:printer.c     **** 		PRINTER_A_PutChar(SEPARATOR[x]);
 4302              		.loc 1 812 0 discriminator 3
 4303 0dfc 97F84930 		ldrb	r3, [r7, #73]	@ zero_extendqisi2
 4304 0e00 0133     		adds	r3, r3, #1
 4305 0e02 87F84930 		strb	r3, [r7, #73]
 4306              	.L256:
 812:printer.c     **** 		PRINTER_A_PutChar(SEPARATOR[x]);
 4307              		.loc 1 812 0 is_stmt 0 discriminator 1
 4308 0e06 97F84930 		ldrb	r3, [r7, #73]	@ zero_extendqisi2
 4309 0e0a 1F2B     		cmp	r3, #31
 4310 0e0c EFD9     		bls	.L257
 4311              	.LBE106:
 814:printer.c     **** 	}
 815:printer.c     **** 	PRINTER_A_PutChar(LINE_FEED);
 4312              		.loc 1 815 0 is_stmt 1
 4313 0e0e 604B     		ldr	r3, .L279+4
 4314 0e10 1B78     		ldrb	r3, [r3]	@ zero_extendqisi2
 4315 0e12 1846     		mov	r0, r3
 4316 0e14 FFF7FEFF 		bl	PRINTER_A_PutChar
 4317              	.LBB107:
 816:printer.c     **** 	for(uint8 x = 0; x < 32; x ++){
 4318              		.loc 1 816 0
 4319 0e18 0023     		movs	r3, #0
 4320 0e1a 87F84830 		strb	r3, [r7, #72]
 4321 0e1e 0BE0     		b	.L258
 4322              	.L259:
 817:printer.c     **** 		PRINTER_A_PutChar(msn_footer[x]);
 4323              		.loc 1 817 0 discriminator 3
 4324 0e20 97F84830 		ldrb	r3, [r7, #72]	@ zero_extendqisi2
 4325 0e24 5B4A     		ldr	r2, .L279+8
 4326 0e26 D35C     		ldrb	r3, [r2, r3]	@ zero_extendqisi2
 4327 0e28 1846     		mov	r0, r3
 4328 0e2a FFF7FEFF 		bl	PRINTER_A_PutChar
 816:printer.c     **** 	for(uint8 x = 0; x < 32; x ++){
 4329              		.loc 1 816 0 discriminator 3
 4330 0e2e 97F84830 		ldrb	r3, [r7, #72]	@ zero_extendqisi2
 4331 0e32 0133     		adds	r3, r3, #1
 4332 0e34 87F84830 		strb	r3, [r7, #72]
 4333              	.L258:
 816:printer.c     **** 	for(uint8 x = 0; x < 32; x ++){
 4334              		.loc 1 816 0 is_stmt 0 discriminator 1
 4335 0e38 97F84830 		ldrb	r3, [r7, #72]	@ zero_extendqisi2
 4336 0e3c 1F2B     		cmp	r3, #31
 4337 0e3e EFD9     		bls	.L259
 4338              	.LBE107:
 818:printer.c     **** 	}
 819:printer.c     **** 	PRINTER_A_PutChar(LINE_FEED);
 4339              		.loc 1 819 0 is_stmt 1
ARM GAS  C:\Users\Diego\AppData\Local\Temp\ccz6pbcU.s 			page 98


 4340 0e40 534B     		ldr	r3, .L279+4
 4341 0e42 1B78     		ldrb	r3, [r3]	@ zero_extendqisi2
 4342 0e44 1846     		mov	r0, r3
 4343 0e46 FFF7FEFF 		bl	PRINTER_A_PutChar
 4344              	.LBB108:
 820:printer.c     **** 	for(uint8 x = 0; x < 32; x ++){
 4345              		.loc 1 820 0
 4346 0e4a 0023     		movs	r3, #0
 4347 0e4c 87F84730 		strb	r3, [r7, #71]
 4348 0e50 0BE0     		b	.L260
 4349              	.L261:
 821:printer.c     **** 		PRINTER_A_PutChar(msn_footer2[x]);
 4350              		.loc 1 821 0 discriminator 3
 4351 0e52 97F84730 		ldrb	r3, [r7, #71]	@ zero_extendqisi2
 4352 0e56 504A     		ldr	r2, .L279+12
 4353 0e58 D35C     		ldrb	r3, [r2, r3]	@ zero_extendqisi2
 4354 0e5a 1846     		mov	r0, r3
 4355 0e5c FFF7FEFF 		bl	PRINTER_A_PutChar
 820:printer.c     **** 	for(uint8 x = 0; x < 32; x ++){
 4356              		.loc 1 820 0 discriminator 3
 4357 0e60 97F84730 		ldrb	r3, [r7, #71]	@ zero_extendqisi2
 4358 0e64 0133     		adds	r3, r3, #1
 4359 0e66 87F84730 		strb	r3, [r7, #71]
 4360              	.L260:
 820:printer.c     **** 	for(uint8 x = 0; x < 32; x ++){
 4361              		.loc 1 820 0 is_stmt 0 discriminator 1
 4362 0e6a 97F84730 		ldrb	r3, [r7, #71]	@ zero_extendqisi2
 4363 0e6e 1F2B     		cmp	r3, #31
 4364 0e70 EFD9     		bls	.L261
 4365              	.LBE108:
 822:printer.c     **** 	}           
 823:printer.c     ****     PRINTER_A_PutChar(LINE_FEED);
 4366              		.loc 1 823 0 is_stmt 1
 4367 0e72 474B     		ldr	r3, .L279+4
 4368 0e74 1B78     		ldrb	r3, [r3]	@ zero_extendqisi2
 4369 0e76 1846     		mov	r0, r3
 4370 0e78 FFF7FEFF 		bl	PRINTER_A_PutChar
 824:printer.c     ****     PRINTER_A_PutChar(LINE_FEED);
 4371              		.loc 1 824 0
 4372 0e7c 444B     		ldr	r3, .L279+4
 4373 0e7e 1B78     		ldrb	r3, [r3]	@ zero_extendqisi2
 4374 0e80 1846     		mov	r0, r3
 4375 0e82 FFF7FEFF 		bl	PRINTER_A_PutChar
 825:printer.c     ****     PRINTER_A_PutChar(LINE_FEED);
 4376              		.loc 1 825 0
 4377 0e86 424B     		ldr	r3, .L279+4
 4378 0e88 1B78     		ldrb	r3, [r3]	@ zero_extendqisi2
 4379 0e8a 1846     		mov	r0, r3
 4380 0e8c FFF7FEFF 		bl	PRINTER_A_PutChar
 826:printer.c     ****     PRINTER_A_PutChar(LINE_FEED);
 4381              		.loc 1 826 0
 4382 0e90 3F4B     		ldr	r3, .L279+4
 4383 0e92 1B78     		ldrb	r3, [r3]	@ zero_extendqisi2
 4384 0e94 1846     		mov	r0, r3
 4385 0e96 FFF7FEFF 		bl	PRINTER_A_PutChar
 827:printer.c     ****     PRINTER_A_PutChar(LINE_FEED);
 4386              		.loc 1 827 0
ARM GAS  C:\Users\Diego\AppData\Local\Temp\ccz6pbcU.s 			page 99


 4387 0e9a 3D4B     		ldr	r3, .L279+4
 4388 0e9c 1B78     		ldrb	r3, [r3]	@ zero_extendqisi2
 4389 0e9e 1846     		mov	r0, r3
 4390 0ea0 FFF7FEFF 		bl	PRINTER_A_PutChar
 4391              	.LBB109:
 828:printer.c     ****     for(uint8 x = 0; x < 10; x++){
 4392              		.loc 1 828 0
 4393 0ea4 0023     		movs	r3, #0
 4394 0ea6 87F84630 		strb	r3, [r7, #70]
 4395 0eaa 13E0     		b	.L262
 4396              	.L263:
 829:printer.c     ****         EEPROM_1_WriteByte(side.a.ProcessedTotals[0][0][x],36+x);        
 4397              		.loc 1 829 0 discriminator 3
 4398 0eac 97F84630 		ldrb	r3, [r7, #70]	@ zero_extendqisi2
 4399 0eb0 3A4A     		ldr	r2, .L279+16
 4400 0eb2 1344     		add	r3, r3, r2
 4401 0eb4 93F88320 		ldrb	r2, [r3, #131]	@ zero_extendqisi2
 4402 0eb8 97F84630 		ldrb	r3, [r7, #70]	@ zero_extendqisi2
 4403 0ebc 9BB2     		uxth	r3, r3
 4404 0ebe 2433     		adds	r3, r3, #36
 4405 0ec0 9BB2     		uxth	r3, r3
 4406 0ec2 1946     		mov	r1, r3
 4407 0ec4 1046     		mov	r0, r2
 4408 0ec6 FFF7FEFF 		bl	EEPROM_1_WriteByte
 828:printer.c     ****     for(uint8 x = 0; x < 10; x++){
 4409              		.loc 1 828 0 discriminator 3
 4410 0eca 97F84630 		ldrb	r3, [r7, #70]	@ zero_extendqisi2
 4411 0ece 0133     		adds	r3, r3, #1
 4412 0ed0 87F84630 		strb	r3, [r7, #70]
 4413              	.L262:
 828:printer.c     ****     for(uint8 x = 0; x < 10; x++){
 4414              		.loc 1 828 0 is_stmt 0 discriminator 1
 4415 0ed4 97F84630 		ldrb	r3, [r7, #70]	@ zero_extendqisi2
 4416 0ed8 092B     		cmp	r3, #9
 4417 0eda E7D9     		bls	.L263
 4418              	.LBE109:
 4419              	.LBB110:
 830:printer.c     ****     }
 831:printer.c     ****     for(uint8 x = 0; x < 10; x++){
 4420              		.loc 1 831 0 is_stmt 1
 4421 0edc 0023     		movs	r3, #0
 4422 0ede 87F84530 		strb	r3, [r7, #69]
 4423 0ee2 13E0     		b	.L264
 4424              	.L265:
 832:printer.c     ****         EEPROM_1_WriteByte(side.b.ProcessedTotals[0][0][x],46+x);
 4425              		.loc 1 832 0 discriminator 3
 4426 0ee4 97F84530 		ldrb	r3, [r7, #69]	@ zero_extendqisi2
 4427 0ee8 2C4A     		ldr	r2, .L279+16
 4428 0eea 1344     		add	r3, r3, r2
 4429 0eec 93F8B821 		ldrb	r2, [r3, #440]	@ zero_extendqisi2
 4430 0ef0 97F84530 		ldrb	r3, [r7, #69]	@ zero_extendqisi2
 4431 0ef4 9BB2     		uxth	r3, r3
 4432 0ef6 2E33     		adds	r3, r3, #46
 4433 0ef8 9BB2     		uxth	r3, r3
 4434 0efa 1946     		mov	r1, r3
 4435 0efc 1046     		mov	r0, r2
 4436 0efe FFF7FEFF 		bl	EEPROM_1_WriteByte
ARM GAS  C:\Users\Diego\AppData\Local\Temp\ccz6pbcU.s 			page 100


 831:printer.c     ****         EEPROM_1_WriteByte(side.b.ProcessedTotals[0][0][x],46+x);
 4437              		.loc 1 831 0 discriminator 3
 4438 0f02 97F84530 		ldrb	r3, [r7, #69]	@ zero_extendqisi2
 4439 0f06 0133     		adds	r3, r3, #1
 4440 0f08 87F84530 		strb	r3, [r7, #69]
 4441              	.L264:
 831:printer.c     ****         EEPROM_1_WriteByte(side.b.ProcessedTotals[0][0][x],46+x);
 4442              		.loc 1 831 0 is_stmt 0 discriminator 1
 4443 0f0c 97F84530 		ldrb	r3, [r7, #69]	@ zero_extendqisi2
 4444 0f10 092B     		cmp	r3, #9
 4445 0f12 E7D9     		bls	.L265
 4446              	.LBE110:
 4447              	.LBB111:
 833:printer.c     ****     }
 834:printer.c     ****     for(uint8 x = 0; x < 10; x++){
 4448              		.loc 1 834 0 is_stmt 1
 4449 0f14 0023     		movs	r3, #0
 4450 0f16 87F84430 		strb	r3, [r7, #68]
 4451 0f1a 13E0     		b	.L266
 4452              	.L267:
 835:printer.c     ****         EEPROM_1_WriteByte(side.c.ProcessedTotals[0][0][x],56+x);
 4453              		.loc 1 835 0 discriminator 3
 4454 0f1c 97F84430 		ldrb	r3, [r7, #68]	@ zero_extendqisi2
 4455 0f20 1E4A     		ldr	r2, .L279+16
 4456 0f22 1344     		add	r3, r3, r2
 4457 0f24 93F8ED22 		ldrb	r2, [r3, #749]	@ zero_extendqisi2
 4458 0f28 97F84430 		ldrb	r3, [r7, #68]	@ zero_extendqisi2
 4459 0f2c 9BB2     		uxth	r3, r3
 4460 0f2e 3833     		adds	r3, r3, #56
 4461 0f30 9BB2     		uxth	r3, r3
 4462 0f32 1946     		mov	r1, r3
 4463 0f34 1046     		mov	r0, r2
 4464 0f36 FFF7FEFF 		bl	EEPROM_1_WriteByte
 834:printer.c     ****         EEPROM_1_WriteByte(side.c.ProcessedTotals[0][0][x],56+x);
 4465              		.loc 1 834 0 discriminator 3
 4466 0f3a 97F84430 		ldrb	r3, [r7, #68]	@ zero_extendqisi2
 4467 0f3e 0133     		adds	r3, r3, #1
 4468 0f40 87F84430 		strb	r3, [r7, #68]
 4469              	.L266:
 834:printer.c     ****         EEPROM_1_WriteByte(side.c.ProcessedTotals[0][0][x],56+x);
 4470              		.loc 1 834 0 is_stmt 0 discriminator 1
 4471 0f44 97F84430 		ldrb	r3, [r7, #68]	@ zero_extendqisi2
 4472 0f48 092B     		cmp	r3, #9
 4473 0f4a E7D9     		bls	.L267
 4474              	.LBE111:
 4475              	.LBB112:
 836:printer.c     ****     }
 837:printer.c     ****     for(uint8 x = 0; x < 10; x++){
 4476              		.loc 1 837 0 is_stmt 1
 4477 0f4c 0023     		movs	r3, #0
 4478 0f4e 87F84330 		strb	r3, [r7, #67]
 4479 0f52 13E0     		b	.L268
 4480              	.L269:
 838:printer.c     ****         EEPROM_1_WriteByte(side.d.ProcessedTotals[0][0][x],66+x);
 4481              		.loc 1 838 0 discriminator 3
 4482 0f54 97F84330 		ldrb	r3, [r7, #67]	@ zero_extendqisi2
 4483 0f58 104A     		ldr	r2, .L279+16
ARM GAS  C:\Users\Diego\AppData\Local\Temp\ccz6pbcU.s 			page 101


 4484 0f5a 1344     		add	r3, r3, r2
 4485 0f5c 93F82224 		ldrb	r2, [r3, #1058]	@ zero_extendqisi2
 4486 0f60 97F84330 		ldrb	r3, [r7, #67]	@ zero_extendqisi2
 4487 0f64 9BB2     		uxth	r3, r3
 4488 0f66 4233     		adds	r3, r3, #66
 4489 0f68 9BB2     		uxth	r3, r3
 4490 0f6a 1946     		mov	r1, r3
 4491 0f6c 1046     		mov	r0, r2
 4492 0f6e FFF7FEFF 		bl	EEPROM_1_WriteByte
 837:printer.c     ****         EEPROM_1_WriteByte(side.d.ProcessedTotals[0][0][x],66+x);
 4493              		.loc 1 837 0 discriminator 3
 4494 0f72 97F84330 		ldrb	r3, [r7, #67]	@ zero_extendqisi2
 4495 0f76 0133     		adds	r3, r3, #1
 4496 0f78 87F84330 		strb	r3, [r7, #67]
 4497              	.L268:
 837:printer.c     ****         EEPROM_1_WriteByte(side.d.ProcessedTotals[0][0][x],66+x);
 4498              		.loc 1 837 0 is_stmt 0 discriminator 1
 4499 0f7c 97F84330 		ldrb	r3, [r7, #67]	@ zero_extendqisi2
 4500 0f80 092B     		cmp	r3, #9
 4501 0f82 E7D9     		bls	.L269
 4502              	.LBE112:
 839:printer.c     ****     }
 840:printer.c     **** }
 4503              		.loc 1 840 0 is_stmt 1
 4504 0f84 00BF     		nop
 4505 0f86 7C37     		adds	r7, r7, #124
 4506              		.cfi_def_cfa_offset 12
 4507 0f88 BD46     		mov	sp, r7
 4508              		.cfi_def_cfa_register 13
 4509              		@ sp needed
 4510 0f8a 90BD     		pop	{r4, r7, pc}
 4511              	.L280:
 4512              		.align	2
 4513              	.L279:
 4514 0f8c 00000000 		.word	SEPARATOR
 4515 0f90 00000000 		.word	LINE_FEED
 4516 0f94 00000000 		.word	msn_footer
 4517 0f98 00000000 		.word	msn_footer2
 4518 0f9c 00000000 		.word	side
 4519              		.cfi_endproc
 4520              	.LFE65:
 4521              		.size	PrintShift, .-PrintShift
 4522              		.text
 4523              	.Letext0:
 4524              		.file 2 "c:\\program files (x86)\\cypress\\psoc creator\\4.2\\psoc creator\\import\\gnu\\arm\\5.4.
 4525              		.file 3 "c:\\program files (x86)\\cypress\\psoc creator\\4.2\\psoc creator\\import\\gnu\\arm\\5.4.
 4526              		.file 4 "Generated_Source\\PSoC5/cytypes.h"
 4527              		.file 5 "./GVar.h"
 4528              		.file 6 "Generated_Source\\PSoC5/core_cm3.h"
 4529              		.section	.debug_info,"",%progbits
 4530              	.Ldebug_info0:
 4531 0000 E6140000 		.4byte	0x14e6
 4532 0004 0400     		.2byte	0x4
 4533 0006 00000000 		.4byte	.Ldebug_abbrev0
 4534 000a 04       		.byte	0x4
 4535 000b 01       		.uleb128 0x1
 4536 000c 4C000000 		.4byte	.LASF123
ARM GAS  C:\Users\Diego\AppData\Local\Temp\ccz6pbcU.s 			page 102


 4537 0010 0C       		.byte	0xc
 4538 0011 2B050000 		.4byte	.LASF124
 4539 0015 1E020000 		.4byte	.LASF125
 4540 0019 00000000 		.4byte	.Ldebug_ranges0+0
 4541 001d 00000000 		.4byte	0
 4542 0021 00000000 		.4byte	.Ldebug_line0
 4543 0025 02       		.uleb128 0x2
 4544 0026 01       		.byte	0x1
 4545 0027 06       		.byte	0x6
 4546 0028 50050000 		.4byte	.LASF0
 4547 002c 02       		.uleb128 0x2
 4548 002d 01       		.byte	0x1
 4549 002e 08       		.byte	0x8
 4550 002f C9040000 		.4byte	.LASF1
 4551 0033 02       		.uleb128 0x2
 4552 0034 02       		.byte	0x2
 4553 0035 05       		.byte	0x5
 4554 0036 D1030000 		.4byte	.LASF2
 4555 003a 02       		.uleb128 0x2
 4556 003b 02       		.byte	0x2
 4557 003c 07       		.byte	0x7
 4558 003d 5C050000 		.4byte	.LASF3
 4559 0041 03       		.uleb128 0x3
 4560 0042 3B000000 		.4byte	.LASF9
 4561 0046 02       		.byte	0x2
 4562 0047 3F       		.byte	0x3f
 4563 0048 4C000000 		.4byte	0x4c
 4564 004c 02       		.uleb128 0x2
 4565 004d 04       		.byte	0x4
 4566 004e 05       		.byte	0x5
 4567 004f E2030000 		.4byte	.LASF4
 4568 0053 02       		.uleb128 0x2
 4569 0054 04       		.byte	0x4
 4570 0055 07       		.byte	0x7
 4571 0056 74040000 		.4byte	.LASF5
 4572 005a 02       		.uleb128 0x2
 4573 005b 08       		.byte	0x8
 4574 005c 05       		.byte	0x5
 4575 005d 1D030000 		.4byte	.LASF6
 4576 0061 02       		.uleb128 0x2
 4577 0062 08       		.byte	0x8
 4578 0063 07       		.byte	0x7
 4579 0064 95010000 		.4byte	.LASF7
 4580 0068 04       		.uleb128 0x4
 4581 0069 04       		.byte	0x4
 4582 006a 05       		.byte	0x5
 4583 006b 696E7400 		.ascii	"int\000"
 4584 006f 02       		.uleb128 0x2
 4585 0070 04       		.byte	0x4
 4586 0071 07       		.byte	0x7
 4587 0072 22000000 		.4byte	.LASF8
 4588 0076 03       		.uleb128 0x3
 4589 0077 8E040000 		.4byte	.LASF10
 4590 007b 03       		.byte	0x3
 4591 007c 2C       		.byte	0x2c
 4592 007d 41000000 		.4byte	0x41
 4593 0081 05       		.uleb128 0x5
ARM GAS  C:\Users\Diego\AppData\Local\Temp\ccz6pbcU.s 			page 103


 4594 0082 C4050000 		.4byte	.LASF11
 4595 0086 04       		.byte	0x4
 4596 0087 E401     		.2byte	0x1e4
 4597 0089 2C000000 		.4byte	0x2c
 4598 008d 05       		.uleb128 0x5
 4599 008e DF020000 		.4byte	.LASF12
 4600 0092 04       		.byte	0x4
 4601 0093 E501     		.2byte	0x1e5
 4602 0095 3A000000 		.4byte	0x3a
 4603 0099 05       		.uleb128 0x5
 4604 009a 63030000 		.4byte	.LASF13
 4605 009e 04       		.byte	0x4
 4606 009f E601     		.2byte	0x1e6
 4607 00a1 53000000 		.4byte	0x53
 4608 00a5 05       		.uleb128 0x5
 4609 00a6 E6020000 		.4byte	.LASF14
 4610 00aa 04       		.byte	0x4
 4611 00ab E701     		.2byte	0x1e7
 4612 00ad 25000000 		.4byte	0x25
 4613 00b1 02       		.uleb128 0x2
 4614 00b2 04       		.byte	0x4
 4615 00b3 04       		.byte	0x4
 4616 00b4 63010000 		.4byte	.LASF15
 4617 00b8 02       		.uleb128 0x2
 4618 00b9 08       		.byte	0x8
 4619 00ba 04       		.byte	0x4
 4620 00bb CA050000 		.4byte	.LASF16
 4621 00bf 05       		.uleb128 0x5
 4622 00c0 F6020000 		.4byte	.LASF17
 4623 00c4 04       		.byte	0x4
 4624 00c5 F501     		.2byte	0x1f5
 4625 00c7 CB000000 		.4byte	0xcb
 4626 00cb 02       		.uleb128 0x2
 4627 00cc 01       		.byte	0x1
 4628 00cd 08       		.byte	0x8
 4629 00ce BB020000 		.4byte	.LASF18
 4630 00d2 02       		.uleb128 0x2
 4631 00d3 08       		.byte	0x8
 4632 00d4 04       		.byte	0x4
 4633 00d5 A6030000 		.4byte	.LASF19
 4634 00d9 02       		.uleb128 0x2
 4635 00da 04       		.byte	0x4
 4636 00db 07       		.byte	0x7
 4637 00dc 6B040000 		.4byte	.LASF20
 4638 00e0 06       		.uleb128 0x6
 4639 00e1 FA050000 		.4byte	.LASF37
 4640 00e5 3501     		.2byte	0x135
 4641 00e7 05       		.byte	0x5
 4642 00e8 23       		.byte	0x23
 4643 00e9 CC010000 		.4byte	0x1cc
 4644 00ed 07       		.uleb128 0x7
 4645 00ee 64697200 		.ascii	"dir\000"
 4646 00f2 05       		.byte	0x5
 4647 00f3 24       		.byte	0x24
 4648 00f4 81000000 		.4byte	0x81
 4649 00f8 00       		.byte	0
 4650 00f9 08       		.uleb128 0x8
ARM GAS  C:\Users\Diego\AppData\Local\Temp\ccz6pbcU.s 			page 104


 4651 00fa 43040000 		.4byte	.LASF21
 4652 00fe 05       		.byte	0x5
 4653 00ff 25       		.byte	0x25
 4654 0100 CC010000 		.4byte	0x1cc
 4655 0104 01       		.byte	0x1
 4656 0105 08       		.uleb128 0x8
 4657 0106 3F030000 		.4byte	.LASF22
 4658 010a 05       		.byte	0x5
 4659 010b 26       		.byte	0x26
 4660 010c E8010000 		.4byte	0x1e8
 4661 0110 29       		.byte	0x29
 4662 0111 08       		.uleb128 0x8
 4663 0112 13030000 		.4byte	.LASF23
 4664 0116 05       		.byte	0x5
 4665 0117 27       		.byte	0x27
 4666 0118 FE010000 		.4byte	0x1fe
 4667 011c 35       		.byte	0x35
 4668 011d 08       		.uleb128 0x8
 4669 011e 3E050000 		.4byte	.LASF24
 4670 0122 05       		.byte	0x5
 4671 0123 28       		.byte	0x28
 4672 0124 FE010000 		.4byte	0x1fe
 4673 0128 39       		.byte	0x39
 4674 0129 08       		.uleb128 0x8
 4675 012a 2B030000 		.4byte	.LASF25
 4676 012e 05       		.byte	0x5
 4677 012f 29       		.byte	0x29
 4678 0130 0E020000 		.4byte	0x20e
 4679 0134 3D       		.byte	0x3d
 4680 0135 08       		.uleb128 0x8
 4681 0136 8B050000 		.4byte	.LASF26
 4682 013a 05       		.byte	0x5
 4683 013b 2A       		.byte	0x2a
 4684 013c 81000000 		.4byte	0x81
 4685 0140 4B       		.byte	0x4b
 4686 0141 08       		.uleb128 0x8
 4687 0142 B4020000 		.4byte	.LASF27
 4688 0146 05       		.byte	0x5
 4689 0147 2B       		.byte	0x2b
 4690 0148 1E020000 		.4byte	0x21e
 4691 014c 4C       		.byte	0x4c
 4692 014d 08       		.uleb128 0x8
 4693 014e 82030000 		.4byte	.LASF28
 4694 0152 05       		.byte	0x5
 4695 0153 2C       		.byte	0x2c
 4696 0154 2E020000 		.4byte	0x22e
 4697 0158 51       		.byte	0x51
 4698 0159 08       		.uleb128 0x8
 4699 015a F8030000 		.4byte	.LASF29
 4700 015e 05       		.byte	0x5
 4701 015f 2D       		.byte	0x2d
 4702 0160 3E020000 		.4byte	0x23e
 4703 0164 83       		.byte	0x83
 4704 0165 08       		.uleb128 0x8
 4705 0166 8C020000 		.4byte	.LASF30
 4706 016a 05       		.byte	0x5
 4707 016b 2E       		.byte	0x2e
ARM GAS  C:\Users\Diego\AppData\Local\Temp\ccz6pbcU.s 			page 105


 4708 016c 5A020000 		.4byte	0x25a
 4709 0170 FB       		.byte	0xfb
 4710 0171 09       		.uleb128 0x9
 4711 0172 03010000 		.4byte	.LASF31
 4712 0176 05       		.byte	0x5
 4713 0177 2F       		.byte	0x2f
 4714 0178 5A020000 		.4byte	0x25a
 4715 017c 0301     		.2byte	0x103
 4716 017e 09       		.uleb128 0x9
 4717 017f 33010000 		.4byte	.LASF32
 4718 0183 05       		.byte	0x5
 4719 0184 30       		.byte	0x30
 4720 0185 6A020000 		.4byte	0x26a
 4721 0189 0B01     		.2byte	0x10b
 4722 018b 09       		.uleb128 0x9
 4723 018c 14020000 		.4byte	.LASF33
 4724 0190 05       		.byte	0x5
 4725 0191 31       		.byte	0x31
 4726 0192 5A020000 		.4byte	0x25a
 4727 0196 2301     		.2byte	0x123
 4728 0198 09       		.uleb128 0x9
 4729 0199 0F050000 		.4byte	.LASF34
 4730 019d 05       		.byte	0x5
 4731 019e 32       		.byte	0x32
 4732 019f 81000000 		.4byte	0x81
 4733 01a3 2B01     		.2byte	0x12b
 4734 01a5 09       		.uleb128 0x9
 4735 01a6 00000000 		.4byte	.LASF35
 4736 01aa 05       		.byte	0x5
 4737 01ab 33       		.byte	0x33
 4738 01ac 81000000 		.4byte	0x81
 4739 01b0 2C01     		.2byte	0x12c
 4740 01b2 0A       		.uleb128 0xa
 4741 01b3 6B6D00   		.ascii	"km\000"
 4742 01b6 05       		.byte	0x5
 4743 01b7 34       		.byte	0x34
 4744 01b8 80020000 		.4byte	0x280
 4745 01bc 2D01     		.2byte	0x12d
 4746 01be 09       		.uleb128 0x9
 4747 01bf 1D040000 		.4byte	.LASF36
 4748 01c3 05       		.byte	0x5
 4749 01c4 35       		.byte	0x35
 4750 01c5 81000000 		.4byte	0x81
 4751 01c9 3401     		.2byte	0x134
 4752 01cb 00       		.byte	0
 4753 01cc 0B       		.uleb128 0xb
 4754 01cd 81000000 		.4byte	0x81
 4755 01d1 E8010000 		.4byte	0x1e8
 4756 01d5 0C       		.uleb128 0xc
 4757 01d6 D9000000 		.4byte	0xd9
 4758 01da 03       		.byte	0x3
 4759 01db 0C       		.uleb128 0xc
 4760 01dc D9000000 		.4byte	0xd9
 4761 01e0 01       		.byte	0x1
 4762 01e1 0C       		.uleb128 0xc
 4763 01e2 D9000000 		.4byte	0xd9
 4764 01e6 04       		.byte	0x4
ARM GAS  C:\Users\Diego\AppData\Local\Temp\ccz6pbcU.s 			page 106


 4765 01e7 00       		.byte	0
 4766 01e8 0B       		.uleb128 0xb
 4767 01e9 81000000 		.4byte	0x81
 4768 01ed FE010000 		.4byte	0x1fe
 4769 01f1 0C       		.uleb128 0xc
 4770 01f2 D9000000 		.4byte	0xd9
 4771 01f6 03       		.byte	0x3
 4772 01f7 0C       		.uleb128 0xc
 4773 01f8 D9000000 		.4byte	0xd9
 4774 01fc 02       		.byte	0x2
 4775 01fd 00       		.byte	0
 4776 01fe 0B       		.uleb128 0xb
 4777 01ff 81000000 		.4byte	0x81
 4778 0203 0E020000 		.4byte	0x20e
 4779 0207 0C       		.uleb128 0xc
 4780 0208 D9000000 		.4byte	0xd9
 4781 020c 03       		.byte	0x3
 4782 020d 00       		.byte	0
 4783 020e 0B       		.uleb128 0xb
 4784 020f 81000000 		.4byte	0x81
 4785 0213 1E020000 		.4byte	0x21e
 4786 0217 0C       		.uleb128 0xc
 4787 0218 D9000000 		.4byte	0xd9
 4788 021c 0D       		.byte	0xd
 4789 021d 00       		.byte	0
 4790 021e 0B       		.uleb128 0xb
 4791 021f 81000000 		.4byte	0x81
 4792 0223 2E020000 		.4byte	0x22e
 4793 0227 0C       		.uleb128 0xc
 4794 0228 D9000000 		.4byte	0xd9
 4795 022c 04       		.byte	0x4
 4796 022d 00       		.byte	0
 4797 022e 0B       		.uleb128 0xb
 4798 022f 81000000 		.4byte	0x81
 4799 0233 3E020000 		.4byte	0x23e
 4800 0237 0C       		.uleb128 0xc
 4801 0238 D9000000 		.4byte	0xd9
 4802 023c 31       		.byte	0x31
 4803 023d 00       		.byte	0
 4804 023e 0B       		.uleb128 0xb
 4805 023f BF000000 		.4byte	0xbf
 4806 0243 5A020000 		.4byte	0x25a
 4807 0247 0C       		.uleb128 0xc
 4808 0248 D9000000 		.4byte	0xd9
 4809 024c 03       		.byte	0x3
 4810 024d 0C       		.uleb128 0xc
 4811 024e D9000000 		.4byte	0xd9
 4812 0252 02       		.byte	0x2
 4813 0253 0C       		.uleb128 0xc
 4814 0254 D9000000 		.4byte	0xd9
 4815 0258 09       		.byte	0x9
 4816 0259 00       		.byte	0
 4817 025a 0B       		.uleb128 0xb
 4818 025b 81000000 		.4byte	0x81
 4819 025f 6A020000 		.4byte	0x26a
 4820 0263 0C       		.uleb128 0xc
 4821 0264 D9000000 		.4byte	0xd9
ARM GAS  C:\Users\Diego\AppData\Local\Temp\ccz6pbcU.s 			page 107


 4822 0268 07       		.byte	0x7
 4823 0269 00       		.byte	0
 4824 026a 0B       		.uleb128 0xb
 4825 026b 81000000 		.4byte	0x81
 4826 026f 80020000 		.4byte	0x280
 4827 0273 0C       		.uleb128 0xc
 4828 0274 D9000000 		.4byte	0xd9
 4829 0278 03       		.byte	0x3
 4830 0279 0C       		.uleb128 0xc
 4831 027a D9000000 		.4byte	0xd9
 4832 027e 05       		.byte	0x5
 4833 027f 00       		.byte	0
 4834 0280 0B       		.uleb128 0xb
 4835 0281 81000000 		.4byte	0x81
 4836 0285 90020000 		.4byte	0x290
 4837 0289 0C       		.uleb128 0xc
 4838 028a D9000000 		.4byte	0xd9
 4839 028e 06       		.byte	0x6
 4840 028f 00       		.byte	0
 4841 0290 06       		.uleb128 0x6
 4842 0291 1A050000 		.4byte	.LASF38
 4843 0295 D404     		.2byte	0x4d4
 4844 0297 05       		.byte	0x5
 4845 0298 38       		.byte	0x38
 4846 0299 C9020000 		.4byte	0x2c9
 4847 029d 07       		.uleb128 0x7
 4848 029e 6100     		.ascii	"a\000"
 4849 02a0 05       		.byte	0x5
 4850 02a1 39       		.byte	0x39
 4851 02a2 E0000000 		.4byte	0xe0
 4852 02a6 00       		.byte	0
 4853 02a7 0A       		.uleb128 0xa
 4854 02a8 6200     		.ascii	"b\000"
 4855 02aa 05       		.byte	0x5
 4856 02ab 3A       		.byte	0x3a
 4857 02ac E0000000 		.4byte	0xe0
 4858 02b0 3501     		.2byte	0x135
 4859 02b2 0A       		.uleb128 0xa
 4860 02b3 6300     		.ascii	"c\000"
 4861 02b5 05       		.byte	0x5
 4862 02b6 3B       		.byte	0x3b
 4863 02b7 E0000000 		.4byte	0xe0
 4864 02bb 6A02     		.2byte	0x26a
 4865 02bd 0A       		.uleb128 0xa
 4866 02be 6400     		.ascii	"d\000"
 4867 02c0 05       		.byte	0x5
 4868 02c1 3C       		.byte	0x3c
 4869 02c2 E0000000 		.4byte	0xe0
 4870 02c6 9F03     		.2byte	0x39f
 4871 02c8 00       		.byte	0
 4872 02c9 0D       		.uleb128 0xd
 4873 02ca A0040000 		.4byte	.LASF41
 4874 02ce 01       		.byte	0x1
 4875 02cf 4F       		.byte	0x4f
 4876 02d0 00000000 		.4byte	.LFB64
 4877 02d4 7C0F0000 		.4byte	.LFE64-.LFB64
 4878 02d8 01       		.uleb128 0x1
ARM GAS  C:\Users\Diego\AppData\Local\Temp\ccz6pbcU.s 			page 108


 4879 02d9 9C       		.byte	0x9c
 4880 02da 40090000 		.4byte	0x940
 4881 02de 0E       		.uleb128 0xe
 4882 02df 86040000 		.4byte	.LASF126
 4883 02e3 01       		.byte	0x1
 4884 02e4 4F       		.byte	0x4f
 4885 02e5 81000000 		.4byte	0x81
 4886 02e9 03       		.uleb128 0x3
 4887 02ea 91       		.byte	0x91
 4888 02eb AF7F     		.sleb128 -81
 4889 02ed 0F       		.uleb128 0xf
 4890 02ee AD040000 		.4byte	.LASF39
 4891 02f2 01       		.byte	0x1
 4892 02f3 50       		.byte	0x50
 4893 02f4 A5000000 		.4byte	0xa5
 4894 02f8 02       		.uleb128 0x2
 4895 02f9 91       		.byte	0x91
 4896 02fa 6F       		.sleb128 -17
 4897 02fb 10       		.uleb128 0x10
 4898 02fc 62010000 		.4byte	.LBB2
 4899 0300 30000000 		.4byte	.LBE2-.LBB2
 4900 0304 15030000 		.4byte	0x315
 4901 0308 11       		.uleb128 0x11
 4902 0309 6900     		.ascii	"i\000"
 4903 030b 01       		.byte	0x1
 4904 030c 57       		.byte	0x57
 4905 030d 81000000 		.4byte	0x81
 4906 0311 02       		.uleb128 0x2
 4907 0312 91       		.byte	0x91
 4908 0313 6E       		.sleb128 -18
 4909 0314 00       		.byte	0
 4910 0315 10       		.uleb128 0x10
 4911 0316 94010000 		.4byte	.LBB3
 4912 031a 28000000 		.4byte	.LBE3-.LBB3
 4913 031e 31030000 		.4byte	0x331
 4914 0322 0F       		.uleb128 0xf
 4915 0323 E5010000 		.4byte	.LASF40
 4916 0327 01       		.byte	0x1
 4917 0328 5B       		.byte	0x5b
 4918 0329 81000000 		.4byte	0x81
 4919 032d 02       		.uleb128 0x2
 4920 032e 91       		.byte	0x91
 4921 032f 6D       		.sleb128 -19
 4922 0330 00       		.byte	0
 4923 0331 10       		.uleb128 0x10
 4924 0332 DC010000 		.4byte	.LBB4
 4925 0336 2E000000 		.4byte	.LBE4-.LBB4
 4926 033a 4D030000 		.4byte	0x34d
 4927 033e 0F       		.uleb128 0xf
 4928 033f E5010000 		.4byte	.LASF40
 4929 0343 01       		.byte	0x1
 4930 0344 62       		.byte	0x62
 4931 0345 81000000 		.4byte	0x81
 4932 0349 02       		.uleb128 0x2
 4933 034a 91       		.byte	0x91
 4934 034b 6C       		.sleb128 -20
 4935 034c 00       		.byte	0
ARM GAS  C:\Users\Diego\AppData\Local\Temp\ccz6pbcU.s 			page 109


 4936 034d 10       		.uleb128 0x10
 4937 034e 12020000 		.4byte	.LBB5
 4938 0352 28000000 		.4byte	.LBE5-.LBB5
 4939 0356 69030000 		.4byte	0x369
 4940 035a 0F       		.uleb128 0xf
 4941 035b E5010000 		.4byte	.LASF40
 4942 035f 01       		.byte	0x1
 4943 0360 68       		.byte	0x68
 4944 0361 81000000 		.4byte	0x81
 4945 0365 02       		.uleb128 0x2
 4946 0366 91       		.byte	0x91
 4947 0367 6B       		.sleb128 -21
 4948 0368 00       		.byte	0
 4949 0369 10       		.uleb128 0x10
 4950 036a 52020000 		.4byte	.LBB6
 4951 036e 2E000000 		.4byte	.LBE6-.LBB6
 4952 0372 85030000 		.4byte	0x385
 4953 0376 0F       		.uleb128 0xf
 4954 0377 E5010000 		.4byte	.LASF40
 4955 037b 01       		.byte	0x1
 4956 037c 6E       		.byte	0x6e
 4957 037d 81000000 		.4byte	0x81
 4958 0381 02       		.uleb128 0x2
 4959 0382 91       		.byte	0x91
 4960 0383 6A       		.sleb128 -22
 4961 0384 00       		.byte	0
 4962 0385 10       		.uleb128 0x10
 4963 0386 8E020000 		.4byte	.LBB7
 4964 038a 28000000 		.4byte	.LBE7-.LBB7
 4965 038e 9F030000 		.4byte	0x39f
 4966 0392 11       		.uleb128 0x11
 4967 0393 7800     		.ascii	"x\000"
 4968 0395 01       		.byte	0x1
 4969 0396 74       		.byte	0x74
 4970 0397 81000000 		.4byte	0x81
 4971 039b 02       		.uleb128 0x2
 4972 039c 91       		.byte	0x91
 4973 039d 69       		.sleb128 -23
 4974 039e 00       		.byte	0
 4975 039f 10       		.uleb128 0x10
 4976 03a0 C0020000 		.4byte	.LBB8
 4977 03a4 28000000 		.4byte	.LBE8-.LBB8
 4978 03a8 B9030000 		.4byte	0x3b9
 4979 03ac 11       		.uleb128 0x11
 4980 03ad 7800     		.ascii	"x\000"
 4981 03af 01       		.byte	0x1
 4982 03b0 78       		.byte	0x78
 4983 03b1 81000000 		.4byte	0x81
 4984 03b5 02       		.uleb128 0x2
 4985 03b6 91       		.byte	0x91
 4986 03b7 68       		.sleb128 -24
 4987 03b8 00       		.byte	0
 4988 03b9 10       		.uleb128 0x10
 4989 03ba F2020000 		.4byte	.LBB9
 4990 03be 28000000 		.4byte	.LBE9-.LBB9
 4991 03c2 D3030000 		.4byte	0x3d3
 4992 03c6 11       		.uleb128 0x11
ARM GAS  C:\Users\Diego\AppData\Local\Temp\ccz6pbcU.s 			page 110


 4993 03c7 7800     		.ascii	"x\000"
 4994 03c9 01       		.byte	0x1
 4995 03ca 7C       		.byte	0x7c
 4996 03cb 81000000 		.4byte	0x81
 4997 03cf 02       		.uleb128 0x2
 4998 03d0 91       		.byte	0x91
 4999 03d1 67       		.sleb128 -25
 5000 03d2 00       		.byte	0
 5001 03d3 10       		.uleb128 0x10
 5002 03d4 24030000 		.4byte	.LBB10
 5003 03d8 58000000 		.4byte	.LBE10-.LBB10
 5004 03dc ED030000 		.4byte	0x3ed
 5005 03e0 11       		.uleb128 0x11
 5006 03e1 7800     		.ascii	"x\000"
 5007 03e3 01       		.byte	0x1
 5008 03e4 80       		.byte	0x80
 5009 03e5 81000000 		.4byte	0x81
 5010 03e9 02       		.uleb128 0x2
 5011 03ea 91       		.byte	0x91
 5012 03eb 66       		.sleb128 -26
 5013 03ec 00       		.byte	0
 5014 03ed 10       		.uleb128 0x10
 5015 03ee 86030000 		.4byte	.LBB11
 5016 03f2 28000000 		.4byte	.LBE11-.LBB11
 5017 03f6 07040000 		.4byte	0x407
 5018 03fa 11       		.uleb128 0x11
 5019 03fb 7800     		.ascii	"x\000"
 5020 03fd 01       		.byte	0x1
 5021 03fe 84       		.byte	0x84
 5022 03ff 81000000 		.4byte	0x81
 5023 0403 02       		.uleb128 0x2
 5024 0404 91       		.byte	0x91
 5025 0405 65       		.sleb128 -27
 5026 0406 00       		.byte	0
 5027 0407 10       		.uleb128 0x10
 5028 0408 B8030000 		.4byte	.LBB12
 5029 040c 28000000 		.4byte	.LBE12-.LBB12
 5030 0410 21040000 		.4byte	0x421
 5031 0414 11       		.uleb128 0x11
 5032 0415 7800     		.ascii	"x\000"
 5033 0417 01       		.byte	0x1
 5034 0418 88       		.byte	0x88
 5035 0419 81000000 		.4byte	0x81
 5036 041d 02       		.uleb128 0x2
 5037 041e 91       		.byte	0x91
 5038 041f 64       		.sleb128 -28
 5039 0420 00       		.byte	0
 5040 0421 10       		.uleb128 0x10
 5041 0422 EA030000 		.4byte	.LBB13
 5042 0426 28000000 		.4byte	.LBE13-.LBB13
 5043 042a 3B040000 		.4byte	0x43b
 5044 042e 11       		.uleb128 0x11
 5045 042f 7800     		.ascii	"x\000"
 5046 0431 01       		.byte	0x1
 5047 0432 8C       		.byte	0x8c
 5048 0433 81000000 		.4byte	0x81
 5049 0437 02       		.uleb128 0x2
ARM GAS  C:\Users\Diego\AppData\Local\Temp\ccz6pbcU.s 			page 111


 5050 0438 91       		.byte	0x91
 5051 0439 63       		.sleb128 -29
 5052 043a 00       		.byte	0
 5053 043b 10       		.uleb128 0x10
 5054 043c 1C040000 		.4byte	.LBB14
 5055 0440 28000000 		.4byte	.LBE14-.LBB14
 5056 0444 55040000 		.4byte	0x455
 5057 0448 11       		.uleb128 0x11
 5058 0449 7800     		.ascii	"x\000"
 5059 044b 01       		.byte	0x1
 5060 044c 91       		.byte	0x91
 5061 044d 81000000 		.4byte	0x81
 5062 0451 02       		.uleb128 0x2
 5063 0452 91       		.byte	0x91
 5064 0453 62       		.sleb128 -30
 5065 0454 00       		.byte	0
 5066 0455 10       		.uleb128 0x10
 5067 0456 CC040000 		.4byte	.LBB15
 5068 045a 28000000 		.4byte	.LBE15-.LBB15
 5069 045e 6F040000 		.4byte	0x46f
 5070 0462 11       		.uleb128 0x11
 5071 0463 7800     		.ascii	"x\000"
 5072 0465 01       		.byte	0x1
 5073 0466 9E       		.byte	0x9e
 5074 0467 81000000 		.4byte	0x81
 5075 046b 02       		.uleb128 0x2
 5076 046c 91       		.byte	0x91
 5077 046d 61       		.sleb128 -31
 5078 046e 00       		.byte	0
 5079 046f 10       		.uleb128 0x10
 5080 0470 7C050000 		.4byte	.LBB16
 5081 0474 28000000 		.4byte	.LBE16-.LBB16
 5082 0478 89040000 		.4byte	0x489
 5083 047c 11       		.uleb128 0x11
 5084 047d 7800     		.ascii	"x\000"
 5085 047f 01       		.byte	0x1
 5086 0480 AB       		.byte	0xab
 5087 0481 81000000 		.4byte	0x81
 5088 0485 02       		.uleb128 0x2
 5089 0486 91       		.byte	0x91
 5090 0487 60       		.sleb128 -32
 5091 0488 00       		.byte	0
 5092 0489 10       		.uleb128 0x10
 5093 048a BA050000 		.4byte	.LBB17
 5094 048e 28000000 		.4byte	.LBE17-.LBB17
 5095 0492 A3040000 		.4byte	0x4a3
 5096 0496 11       		.uleb128 0x11
 5097 0497 7800     		.ascii	"x\000"
 5098 0499 01       		.byte	0x1
 5099 049a B2       		.byte	0xb2
 5100 049b 81000000 		.4byte	0x81
 5101 049f 02       		.uleb128 0x2
 5102 04a0 91       		.byte	0x91
 5103 04a1 5F       		.sleb128 -33
 5104 04a2 00       		.byte	0
 5105 04a3 10       		.uleb128 0x10
 5106 04a4 EC050000 		.4byte	.LBB18
ARM GAS  C:\Users\Diego\AppData\Local\Temp\ccz6pbcU.s 			page 112


 5107 04a8 28000000 		.4byte	.LBE18-.LBB18
 5108 04ac BD040000 		.4byte	0x4bd
 5109 04b0 11       		.uleb128 0x11
 5110 04b1 7800     		.ascii	"x\000"
 5111 04b3 01       		.byte	0x1
 5112 04b4 B6       		.byte	0xb6
 5113 04b5 81000000 		.4byte	0x81
 5114 04b9 02       		.uleb128 0x2
 5115 04ba 91       		.byte	0x91
 5116 04bb 5E       		.sleb128 -34
 5117 04bc 00       		.byte	0
 5118 04bd 10       		.uleb128 0x10
 5119 04be 1E060000 		.4byte	.LBB19
 5120 04c2 28000000 		.4byte	.LBE19-.LBB19
 5121 04c6 D7040000 		.4byte	0x4d7
 5122 04ca 11       		.uleb128 0x11
 5123 04cb 7800     		.ascii	"x\000"
 5124 04cd 01       		.byte	0x1
 5125 04ce BB       		.byte	0xbb
 5126 04cf 81000000 		.4byte	0x81
 5127 04d3 02       		.uleb128 0x2
 5128 04d4 91       		.byte	0x91
 5129 04d5 5D       		.sleb128 -35
 5130 04d6 00       		.byte	0
 5131 04d7 10       		.uleb128 0x10
 5132 04d8 50060000 		.4byte	.LBB20
 5133 04dc 56000000 		.4byte	.LBE20-.LBB20
 5134 04e0 F1040000 		.4byte	0x4f1
 5135 04e4 11       		.uleb128 0x11
 5136 04e5 7800     		.ascii	"x\000"
 5137 04e7 01       		.byte	0x1
 5138 04e8 BF       		.byte	0xbf
 5139 04e9 81000000 		.4byte	0x81
 5140 04ed 02       		.uleb128 0x2
 5141 04ee 91       		.byte	0x91
 5142 04ef 5C       		.sleb128 -36
 5143 04f0 00       		.byte	0
 5144 04f1 10       		.uleb128 0x10
 5145 04f2 A6060000 		.4byte	.LBB21
 5146 04f6 28000000 		.4byte	.LBE21-.LBB21
 5147 04fa 0B050000 		.4byte	0x50b
 5148 04fe 11       		.uleb128 0x11
 5149 04ff 7800     		.ascii	"x\000"
 5150 0501 01       		.byte	0x1
 5151 0502 C3       		.byte	0xc3
 5152 0503 81000000 		.4byte	0x81
 5153 0507 02       		.uleb128 0x2
 5154 0508 91       		.byte	0x91
 5155 0509 5B       		.sleb128 -37
 5156 050a 00       		.byte	0
 5157 050b 10       		.uleb128 0x10
 5158 050c E4060000 		.4byte	.LBB22
 5159 0510 28000000 		.4byte	.LBE22-.LBB22
 5160 0514 25050000 		.4byte	0x525
 5161 0518 11       		.uleb128 0x11
 5162 0519 7800     		.ascii	"x\000"
 5163 051b 01       		.byte	0x1
ARM GAS  C:\Users\Diego\AppData\Local\Temp\ccz6pbcU.s 			page 113


 5164 051c C9       		.byte	0xc9
 5165 051d 81000000 		.4byte	0x81
 5166 0521 02       		.uleb128 0x2
 5167 0522 91       		.byte	0x91
 5168 0523 5A       		.sleb128 -38
 5169 0524 00       		.byte	0
 5170 0525 10       		.uleb128 0x10
 5171 0526 0C070000 		.4byte	.LBB23
 5172 052a 2C000000 		.4byte	.LBE23-.LBB23
 5173 052e 3F050000 		.4byte	0x53f
 5174 0532 11       		.uleb128 0x11
 5175 0533 7800     		.ascii	"x\000"
 5176 0535 01       		.byte	0x1
 5177 0536 CC       		.byte	0xcc
 5178 0537 81000000 		.4byte	0x81
 5179 053b 02       		.uleb128 0x2
 5180 053c 91       		.byte	0x91
 5181 053d 59       		.sleb128 -39
 5182 053e 00       		.byte	0
 5183 053f 10       		.uleb128 0x10
 5184 0540 42070000 		.4byte	.LBB24
 5185 0544 28000000 		.4byte	.LBE24-.LBB24
 5186 0548 59050000 		.4byte	0x559
 5187 054c 11       		.uleb128 0x11
 5188 054d 7800     		.ascii	"x\000"
 5189 054f 01       		.byte	0x1
 5190 0550 D0       		.byte	0xd0
 5191 0551 81000000 		.4byte	0x81
 5192 0555 02       		.uleb128 0x2
 5193 0556 91       		.byte	0x91
 5194 0557 58       		.sleb128 -40
 5195 0558 00       		.byte	0
 5196 0559 10       		.uleb128 0x10
 5197 055a 6A070000 		.4byte	.LBB25
 5198 055e 2C000000 		.4byte	.LBE25-.LBB25
 5199 0562 73050000 		.4byte	0x573
 5200 0566 11       		.uleb128 0x11
 5201 0567 7800     		.ascii	"x\000"
 5202 0569 01       		.byte	0x1
 5203 056a D3       		.byte	0xd3
 5204 056b 81000000 		.4byte	0x81
 5205 056f 02       		.uleb128 0x2
 5206 0570 91       		.byte	0x91
 5207 0571 57       		.sleb128 -41
 5208 0572 00       		.byte	0
 5209 0573 10       		.uleb128 0x10
 5210 0574 A0070000 		.4byte	.LBB26
 5211 0578 28000000 		.4byte	.LBE26-.LBB26
 5212 057c 8D050000 		.4byte	0x58d
 5213 0580 11       		.uleb128 0x11
 5214 0581 7800     		.ascii	"x\000"
 5215 0583 01       		.byte	0x1
 5216 0584 D7       		.byte	0xd7
 5217 0585 81000000 		.4byte	0x81
 5218 0589 02       		.uleb128 0x2
 5219 058a 91       		.byte	0x91
 5220 058b 56       		.sleb128 -42
ARM GAS  C:\Users\Diego\AppData\Local\Temp\ccz6pbcU.s 			page 114


 5221 058c 00       		.byte	0
 5222 058d 10       		.uleb128 0x10
 5223 058e E0070000 		.4byte	.LBB27
 5224 0592 28000000 		.4byte	.LBE27-.LBB27
 5225 0596 A7050000 		.4byte	0x5a7
 5226 059a 11       		.uleb128 0x11
 5227 059b 7800     		.ascii	"x\000"
 5228 059d 01       		.byte	0x1
 5229 059e DC       		.byte	0xdc
 5230 059f 81000000 		.4byte	0x81
 5231 05a3 02       		.uleb128 0x2
 5232 05a4 91       		.byte	0x91
 5233 05a5 55       		.sleb128 -43
 5234 05a6 00       		.byte	0
 5235 05a7 10       		.uleb128 0x10
 5236 05a8 12080000 		.4byte	.LBB28
 5237 05ac 2A000000 		.4byte	.LBE28-.LBB28
 5238 05b0 C1050000 		.4byte	0x5c1
 5239 05b4 11       		.uleb128 0x11
 5240 05b5 7800     		.ascii	"x\000"
 5241 05b7 01       		.byte	0x1
 5242 05b8 E0       		.byte	0xe0
 5243 05b9 81000000 		.4byte	0x81
 5244 05bd 02       		.uleb128 0x2
 5245 05be 91       		.byte	0x91
 5246 05bf 54       		.sleb128 -44
 5247 05c0 00       		.byte	0
 5248 05c1 10       		.uleb128 0x10
 5249 05c2 3C080000 		.4byte	.LBB29
 5250 05c6 28000000 		.4byte	.LBE29-.LBB29
 5251 05ca DB050000 		.4byte	0x5db
 5252 05ce 11       		.uleb128 0x11
 5253 05cf 7800     		.ascii	"x\000"
 5254 05d1 01       		.byte	0x1
 5255 05d2 E4       		.byte	0xe4
 5256 05d3 81000000 		.4byte	0x81
 5257 05d7 02       		.uleb128 0x2
 5258 05d8 91       		.byte	0x91
 5259 05d9 53       		.sleb128 -45
 5260 05da 00       		.byte	0
 5261 05db 10       		.uleb128 0x10
 5262 05dc 6E080000 		.4byte	.LBB30
 5263 05e0 28000000 		.4byte	.LBE30-.LBB30
 5264 05e4 F5050000 		.4byte	0x5f5
 5265 05e8 11       		.uleb128 0x11
 5266 05e9 7800     		.ascii	"x\000"
 5267 05eb 01       		.byte	0x1
 5268 05ec E9       		.byte	0xe9
 5269 05ed 81000000 		.4byte	0x81
 5270 05f1 02       		.uleb128 0x2
 5271 05f2 91       		.byte	0x91
 5272 05f3 52       		.sleb128 -46
 5273 05f4 00       		.byte	0
 5274 05f5 10       		.uleb128 0x10
 5275 05f6 A6080000 		.4byte	.LBB31
 5276 05fa 40000000 		.4byte	.LBE31-.LBB31
 5277 05fe 0F060000 		.4byte	0x60f
ARM GAS  C:\Users\Diego\AppData\Local\Temp\ccz6pbcU.s 			page 115


 5278 0602 11       		.uleb128 0x11
 5279 0603 7800     		.ascii	"x\000"
 5280 0605 01       		.byte	0x1
 5281 0606 EE       		.byte	0xee
 5282 0607 81000000 		.4byte	0x81
 5283 060b 02       		.uleb128 0x2
 5284 060c 91       		.byte	0x91
 5285 060d 51       		.sleb128 -47
 5286 060e 00       		.byte	0
 5287 060f 10       		.uleb128 0x10
 5288 0610 F0080000 		.4byte	.LBB32
 5289 0614 28000000 		.4byte	.LBE32-.LBB32
 5290 0618 29060000 		.4byte	0x629
 5291 061c 11       		.uleb128 0x11
 5292 061d 7800     		.ascii	"x\000"
 5293 061f 01       		.byte	0x1
 5294 0620 F2       		.byte	0xf2
 5295 0621 81000000 		.4byte	0x81
 5296 0625 02       		.uleb128 0x2
 5297 0626 91       		.byte	0x91
 5298 0627 50       		.sleb128 -48
 5299 0628 00       		.byte	0
 5300 0629 10       		.uleb128 0x10
 5301 062a 18090000 		.4byte	.LBB33
 5302 062e 42000000 		.4byte	.LBE33-.LBB33
 5303 0632 43060000 		.4byte	0x643
 5304 0636 11       		.uleb128 0x11
 5305 0637 7800     		.ascii	"x\000"
 5306 0639 01       		.byte	0x1
 5307 063a F5       		.byte	0xf5
 5308 063b 81000000 		.4byte	0x81
 5309 063f 02       		.uleb128 0x2
 5310 0640 91       		.byte	0x91
 5311 0641 4F       		.sleb128 -49
 5312 0642 00       		.byte	0
 5313 0643 10       		.uleb128 0x10
 5314 0644 74090000 		.4byte	.LBB34
 5315 0648 28000000 		.4byte	.LBE34-.LBB34
 5316 064c 5D060000 		.4byte	0x65d
 5317 0650 11       		.uleb128 0x11
 5318 0651 7800     		.ascii	"x\000"
 5319 0653 01       		.byte	0x1
 5320 0654 FD       		.byte	0xfd
 5321 0655 81000000 		.4byte	0x81
 5322 0659 02       		.uleb128 0x2
 5323 065a 91       		.byte	0x91
 5324 065b 4E       		.sleb128 -50
 5325 065c 00       		.byte	0
 5326 065d 10       		.uleb128 0x10
 5327 065e AC090000 		.4byte	.LBB35
 5328 0662 70000000 		.4byte	.LBE35-.LBB35
 5329 0666 78060000 		.4byte	0x678
 5330 066a 12       		.uleb128 0x12
 5331 066b 7800     		.ascii	"x\000"
 5332 066d 01       		.byte	0x1
 5333 066e 0201     		.2byte	0x102
 5334 0670 81000000 		.4byte	0x81
ARM GAS  C:\Users\Diego\AppData\Local\Temp\ccz6pbcU.s 			page 116


 5335 0674 02       		.uleb128 0x2
 5336 0675 91       		.byte	0x91
 5337 0676 4D       		.sleb128 -51
 5338 0677 00       		.byte	0
 5339 0678 10       		.uleb128 0x10
 5340 0679 460A0000 		.4byte	.LBB36
 5341 067d 28000000 		.4byte	.LBE36-.LBB36
 5342 0681 93060000 		.4byte	0x693
 5343 0685 12       		.uleb128 0x12
 5344 0686 7800     		.ascii	"x\000"
 5345 0688 01       		.byte	0x1
 5346 0689 0A01     		.2byte	0x10a
 5347 068b 81000000 		.4byte	0x81
 5348 068f 02       		.uleb128 0x2
 5349 0690 91       		.byte	0x91
 5350 0691 4C       		.sleb128 -52
 5351 0692 00       		.byte	0
 5352 0693 10       		.uleb128 0x10
 5353 0694 780A0000 		.4byte	.LBB37
 5354 0698 28000000 		.4byte	.LBE37-.LBB37
 5355 069c AE060000 		.4byte	0x6ae
 5356 06a0 12       		.uleb128 0x12
 5357 06a1 7800     		.ascii	"x\000"
 5358 06a3 01       		.byte	0x1
 5359 06a4 0E01     		.2byte	0x10e
 5360 06a6 81000000 		.4byte	0x81
 5361 06aa 02       		.uleb128 0x2
 5362 06ab 91       		.byte	0x91
 5363 06ac 4B       		.sleb128 -53
 5364 06ad 00       		.byte	0
 5365 06ae 10       		.uleb128 0x10
 5366 06af AA0A0000 		.4byte	.LBB38
 5367 06b3 28000000 		.4byte	.LBE38-.LBB38
 5368 06b7 C9060000 		.4byte	0x6c9
 5369 06bb 12       		.uleb128 0x12
 5370 06bc 7800     		.ascii	"x\000"
 5371 06be 01       		.byte	0x1
 5372 06bf 1301     		.2byte	0x113
 5373 06c1 81000000 		.4byte	0x81
 5374 06c5 02       		.uleb128 0x2
 5375 06c6 91       		.byte	0x91
 5376 06c7 4A       		.sleb128 -54
 5377 06c8 00       		.byte	0
 5378 06c9 10       		.uleb128 0x10
 5379 06ca DC0A0000 		.4byte	.LBB39
 5380 06ce 2A000000 		.4byte	.LBE39-.LBB39
 5381 06d2 E4060000 		.4byte	0x6e4
 5382 06d6 12       		.uleb128 0x12
 5383 06d7 7800     		.ascii	"x\000"
 5384 06d9 01       		.byte	0x1
 5385 06da 1701     		.2byte	0x117
 5386 06dc 81000000 		.4byte	0x81
 5387 06e0 02       		.uleb128 0x2
 5388 06e1 91       		.byte	0x91
 5389 06e2 49       		.sleb128 -55
 5390 06e3 00       		.byte	0
 5391 06e4 10       		.uleb128 0x10
ARM GAS  C:\Users\Diego\AppData\Local\Temp\ccz6pbcU.s 			page 117


 5392 06e5 060B0000 		.4byte	.LBB40
 5393 06e9 28000000 		.4byte	.LBE40-.LBB40
 5394 06ed FF060000 		.4byte	0x6ff
 5395 06f1 12       		.uleb128 0x12
 5396 06f2 7800     		.ascii	"x\000"
 5397 06f4 01       		.byte	0x1
 5398 06f5 1B01     		.2byte	0x11b
 5399 06f7 81000000 		.4byte	0x81
 5400 06fb 02       		.uleb128 0x2
 5401 06fc 91       		.byte	0x91
 5402 06fd 48       		.sleb128 -56
 5403 06fe 00       		.byte	0
 5404 06ff 10       		.uleb128 0x10
 5405 0700 440B0000 		.4byte	.LBB41
 5406 0704 1E000000 		.4byte	.LBE41-.LBB41
 5407 0708 1A070000 		.4byte	0x71a
 5408 070c 12       		.uleb128 0x12
 5409 070d 7800     		.ascii	"x\000"
 5410 070f 01       		.byte	0x1
 5411 0710 2101     		.2byte	0x121
 5412 0712 81000000 		.4byte	0x81
 5413 0716 02       		.uleb128 0x2
 5414 0717 91       		.byte	0x91
 5415 0718 47       		.sleb128 -57
 5416 0719 00       		.byte	0
 5417 071a 10       		.uleb128 0x10
 5418 071b 620B0000 		.4byte	.LBB42
 5419 071f 22000000 		.4byte	.LBE42-.LBB42
 5420 0723 35070000 		.4byte	0x735
 5421 0727 12       		.uleb128 0x12
 5422 0728 7800     		.ascii	"x\000"
 5423 072a 01       		.byte	0x1
 5424 072b 2401     		.2byte	0x124
 5425 072d 81000000 		.4byte	0x81
 5426 0731 02       		.uleb128 0x2
 5427 0732 91       		.byte	0x91
 5428 0733 46       		.sleb128 -58
 5429 0734 00       		.byte	0
 5430 0735 10       		.uleb128 0x10
 5431 0736 8E0B0000 		.4byte	.LBB43
 5432 073a 1E000000 		.4byte	.LBE43-.LBB43
 5433 073e 50070000 		.4byte	0x750
 5434 0742 12       		.uleb128 0x12
 5435 0743 7800     		.ascii	"x\000"
 5436 0745 01       		.byte	0x1
 5437 0746 2801     		.2byte	0x128
 5438 0748 81000000 		.4byte	0x81
 5439 074c 02       		.uleb128 0x2
 5440 074d 91       		.byte	0x91
 5441 074e 45       		.sleb128 -59
 5442 074f 00       		.byte	0
 5443 0750 10       		.uleb128 0x10
 5444 0751 AC0B0000 		.4byte	.LBB44
 5445 0755 22000000 		.4byte	.LBE44-.LBB44
 5446 0759 6B070000 		.4byte	0x76b
 5447 075d 12       		.uleb128 0x12
 5448 075e 7800     		.ascii	"x\000"
ARM GAS  C:\Users\Diego\AppData\Local\Temp\ccz6pbcU.s 			page 118


 5449 0760 01       		.byte	0x1
 5450 0761 2B01     		.2byte	0x12b
 5451 0763 81000000 		.4byte	0x81
 5452 0767 02       		.uleb128 0x2
 5453 0768 91       		.byte	0x91
 5454 0769 44       		.sleb128 -60
 5455 076a 00       		.byte	0
 5456 076b 10       		.uleb128 0x10
 5457 076c D80B0000 		.4byte	.LBB45
 5458 0770 1E000000 		.4byte	.LBE45-.LBB45
 5459 0774 86070000 		.4byte	0x786
 5460 0778 12       		.uleb128 0x12
 5461 0779 7800     		.ascii	"x\000"
 5462 077b 01       		.byte	0x1
 5463 077c 2F01     		.2byte	0x12f
 5464 077e 81000000 		.4byte	0x81
 5465 0782 02       		.uleb128 0x2
 5466 0783 91       		.byte	0x91
 5467 0784 43       		.sleb128 -61
 5468 0785 00       		.byte	0
 5469 0786 10       		.uleb128 0x10
 5470 0787 100C0000 		.4byte	.LBB46
 5471 078b 1E000000 		.4byte	.LBE46-.LBB46
 5472 078f A1070000 		.4byte	0x7a1
 5473 0793 12       		.uleb128 0x12
 5474 0794 7800     		.ascii	"x\000"
 5475 0796 01       		.byte	0x1
 5476 0797 3401     		.2byte	0x134
 5477 0799 81000000 		.4byte	0x81
 5478 079d 02       		.uleb128 0x2
 5479 079e 91       		.byte	0x91
 5480 079f 42       		.sleb128 -62
 5481 07a0 00       		.byte	0
 5482 07a1 10       		.uleb128 0x10
 5483 07a2 380C0000 		.4byte	.LBB47
 5484 07a6 20000000 		.4byte	.LBE47-.LBB47
 5485 07aa BC070000 		.4byte	0x7bc
 5486 07ae 12       		.uleb128 0x12
 5487 07af 7800     		.ascii	"x\000"
 5488 07b1 01       		.byte	0x1
 5489 07b2 3801     		.2byte	0x138
 5490 07b4 81000000 		.4byte	0x81
 5491 07b8 02       		.uleb128 0x2
 5492 07b9 91       		.byte	0x91
 5493 07ba 41       		.sleb128 -63
 5494 07bb 00       		.byte	0
 5495 07bc 10       		.uleb128 0x10
 5496 07bd 580C0000 		.4byte	.LBB48
 5497 07c1 1E000000 		.4byte	.LBE48-.LBB48
 5498 07c5 D7070000 		.4byte	0x7d7
 5499 07c9 12       		.uleb128 0x12
 5500 07ca 7800     		.ascii	"x\000"
 5501 07cc 01       		.byte	0x1
 5502 07cd 3C01     		.2byte	0x13c
 5503 07cf 81000000 		.4byte	0x81
 5504 07d3 02       		.uleb128 0x2
 5505 07d4 91       		.byte	0x91
ARM GAS  C:\Users\Diego\AppData\Local\Temp\ccz6pbcU.s 			page 119


 5506 07d5 40       		.sleb128 -64
 5507 07d6 00       		.byte	0
 5508 07d7 10       		.uleb128 0x10
 5509 07d8 800C0000 		.4byte	.LBB49
 5510 07dc 1E000000 		.4byte	.LBE49-.LBB49
 5511 07e0 F3070000 		.4byte	0x7f3
 5512 07e4 12       		.uleb128 0x12
 5513 07e5 7800     		.ascii	"x\000"
 5514 07e7 01       		.byte	0x1
 5515 07e8 4101     		.2byte	0x141
 5516 07ea 81000000 		.4byte	0x81
 5517 07ee 03       		.uleb128 0x3
 5518 07ef 91       		.byte	0x91
 5519 07f0 BF7F     		.sleb128 -65
 5520 07f2 00       		.byte	0
 5521 07f3 10       		.uleb128 0x10
 5522 07f4 AE0C0000 		.4byte	.LBB50
 5523 07f8 72000000 		.4byte	.LBE50-.LBB50
 5524 07fc 0F080000 		.4byte	0x80f
 5525 0800 12       		.uleb128 0x12
 5526 0801 7800     		.ascii	"x\000"
 5527 0803 01       		.byte	0x1
 5528 0804 4601     		.2byte	0x146
 5529 0806 81000000 		.4byte	0x81
 5530 080a 03       		.uleb128 0x3
 5531 080b 91       		.byte	0x91
 5532 080c BE7F     		.sleb128 -66
 5533 080e 00       		.byte	0
 5534 080f 10       		.uleb128 0x10
 5535 0810 2A0D0000 		.4byte	.LBB51
 5536 0814 1E000000 		.4byte	.LBE51-.LBB51
 5537 0818 2B080000 		.4byte	0x82b
 5538 081c 12       		.uleb128 0x12
 5539 081d 7800     		.ascii	"x\000"
 5540 081f 01       		.byte	0x1
 5541 0820 4A01     		.2byte	0x14a
 5542 0822 81000000 		.4byte	0x81
 5543 0826 03       		.uleb128 0x3
 5544 0827 91       		.byte	0x91
 5545 0828 BD7F     		.sleb128 -67
 5546 082a 00       		.byte	0
 5547 082b 10       		.uleb128 0x10
 5548 082c 480D0000 		.4byte	.LBB52
 5549 0830 36000000 		.4byte	.LBE52-.LBB52
 5550 0834 47080000 		.4byte	0x847
 5551 0838 12       		.uleb128 0x12
 5552 0839 7800     		.ascii	"x\000"
 5553 083b 01       		.byte	0x1
 5554 083c 4D01     		.2byte	0x14d
 5555 083e 81000000 		.4byte	0x81
 5556 0842 03       		.uleb128 0x3
 5557 0843 91       		.byte	0x91
 5558 0844 BC7F     		.sleb128 -68
 5559 0846 00       		.byte	0
 5560 0847 10       		.uleb128 0x10
 5561 0848 980D0000 		.4byte	.LBB53
 5562 084c 1E000000 		.4byte	.LBE53-.LBB53
ARM GAS  C:\Users\Diego\AppData\Local\Temp\ccz6pbcU.s 			page 120


 5563 0850 63080000 		.4byte	0x863
 5564 0854 12       		.uleb128 0x12
 5565 0855 7800     		.ascii	"x\000"
 5566 0857 01       		.byte	0x1
 5567 0858 5501     		.2byte	0x155
 5568 085a 81000000 		.4byte	0x81
 5569 085e 03       		.uleb128 0x3
 5570 085f 91       		.byte	0x91
 5571 0860 BB7F     		.sleb128 -69
 5572 0862 00       		.byte	0
 5573 0863 10       		.uleb128 0x10
 5574 0864 C60D0000 		.4byte	.LBB54
 5575 0868 22000000 		.4byte	.LBE54-.LBB54
 5576 086c 7F080000 		.4byte	0x87f
 5577 0870 12       		.uleb128 0x12
 5578 0871 7800     		.ascii	"x\000"
 5579 0873 01       		.byte	0x1
 5580 0874 5A01     		.2byte	0x15a
 5581 0876 81000000 		.4byte	0x81
 5582 087a 03       		.uleb128 0x3
 5583 087b 91       		.byte	0x91
 5584 087c BA7F     		.sleb128 -70
 5585 087e 00       		.byte	0
 5586 087f 10       		.uleb128 0x10
 5587 0880 FA0D0000 		.4byte	.LBB55
 5588 0884 1E000000 		.4byte	.LBE55-.LBB55
 5589 0888 9B080000 		.4byte	0x89b
 5590 088c 12       		.uleb128 0x12
 5591 088d 7800     		.ascii	"x\000"
 5592 088f 01       		.byte	0x1
 5593 0890 0A02     		.2byte	0x20a
 5594 0892 81000000 		.4byte	0x81
 5595 0896 03       		.uleb128 0x3
 5596 0897 91       		.byte	0x91
 5597 0898 B97F     		.sleb128 -71
 5598 089a 00       		.byte	0
 5599 089b 10       		.uleb128 0x10
 5600 089c 220E0000 		.4byte	.LBB56
 5601 08a0 1E000000 		.4byte	.LBE56-.LBB56
 5602 08a4 B7080000 		.4byte	0x8b7
 5603 08a8 12       		.uleb128 0x12
 5604 08a9 7800     		.ascii	"x\000"
 5605 08ab 01       		.byte	0x1
 5606 08ac 0E02     		.2byte	0x20e
 5607 08ae 81000000 		.4byte	0x81
 5608 08b2 03       		.uleb128 0x3
 5609 08b3 91       		.byte	0x91
 5610 08b4 B87F     		.sleb128 -72
 5611 08b6 00       		.byte	0
 5612 08b7 10       		.uleb128 0x10
 5613 08b8 540E0000 		.4byte	.LBB57
 5614 08bc 1E000000 		.4byte	.LBE57-.LBB57
 5615 08c0 D3080000 		.4byte	0x8d3
 5616 08c4 12       		.uleb128 0x12
 5617 08c5 7800     		.ascii	"x\000"
 5618 08c7 01       		.byte	0x1
 5619 08c8 1302     		.2byte	0x213
ARM GAS  C:\Users\Diego\AppData\Local\Temp\ccz6pbcU.s 			page 121


 5620 08ca 81000000 		.4byte	0x81
 5621 08ce 03       		.uleb128 0x3
 5622 08cf 91       		.byte	0x91
 5623 08d0 B77F     		.sleb128 -73
 5624 08d2 00       		.byte	0
 5625 08d3 10       		.uleb128 0x10
 5626 08d4 7C0E0000 		.4byte	.LBB58
 5627 08d8 1E000000 		.4byte	.LBE58-.LBB58
 5628 08dc EF080000 		.4byte	0x8ef
 5629 08e0 12       		.uleb128 0x12
 5630 08e1 7800     		.ascii	"x\000"
 5631 08e3 01       		.byte	0x1
 5632 08e4 1702     		.2byte	0x217
 5633 08e6 81000000 		.4byte	0x81
 5634 08ea 03       		.uleb128 0x3
 5635 08eb 91       		.byte	0x91
 5636 08ec B67F     		.sleb128 -74
 5637 08ee 00       		.byte	0
 5638 08ef 10       		.uleb128 0x10
 5639 08f0 A40E0000 		.4byte	.LBB59
 5640 08f4 1E000000 		.4byte	.LBE59-.LBB59
 5641 08f8 0B090000 		.4byte	0x90b
 5642 08fc 12       		.uleb128 0x12
 5643 08fd 7800     		.ascii	"x\000"
 5644 08ff 01       		.byte	0x1
 5645 0900 1B02     		.2byte	0x21b
 5646 0902 81000000 		.4byte	0x81
 5647 0906 03       		.uleb128 0x3
 5648 0907 91       		.byte	0x91
 5649 0908 B57F     		.sleb128 -75
 5650 090a 00       		.byte	0
 5651 090b 10       		.uleb128 0x10
 5652 090c CC0E0000 		.4byte	.LBB60
 5653 0910 1E000000 		.4byte	.LBE60-.LBB60
 5654 0914 27090000 		.4byte	0x927
 5655 0918 12       		.uleb128 0x12
 5656 0919 7800     		.ascii	"x\000"
 5657 091b 01       		.byte	0x1
 5658 091c 1F02     		.2byte	0x21f
 5659 091e 81000000 		.4byte	0x81
 5660 0922 03       		.uleb128 0x3
 5661 0923 91       		.byte	0x91
 5662 0924 B47F     		.sleb128 -76
 5663 0926 00       		.byte	0
 5664 0927 13       		.uleb128 0x13
 5665 0928 1C0F0000 		.4byte	.LBB61
 5666 092c 1E000000 		.4byte	.LBE61-.LBB61
 5667 0930 12       		.uleb128 0x12
 5668 0931 7800     		.ascii	"x\000"
 5669 0933 01       		.byte	0x1
 5670 0934 2702     		.2byte	0x227
 5671 0936 81000000 		.4byte	0x81
 5672 093a 03       		.uleb128 0x3
 5673 093b 91       		.byte	0x91
 5674 093c B37F     		.sleb128 -77
 5675 093e 00       		.byte	0
 5676 093f 00       		.byte	0
ARM GAS  C:\Users\Diego\AppData\Local\Temp\ccz6pbcU.s 			page 122


 5677 0940 14       		.uleb128 0x14
 5678 0941 1F010000 		.4byte	.LASF42
 5679 0945 01       		.byte	0x1
 5680 0946 2C02     		.2byte	0x22c
 5681 0948 00000000 		.4byte	.LFB65
 5682 094c A00F0000 		.4byte	.LFE65-.LFB65
 5683 0950 01       		.uleb128 0x1
 5684 0951 9C       		.byte	0x9c
 5685 0952 4F0F0000 		.4byte	0xf4f
 5686 0956 15       		.uleb128 0x15
 5687 0957 AD040000 		.4byte	.LASF39
 5688 095b 01       		.byte	0x1
 5689 095c 2D02     		.2byte	0x22d
 5690 095e 81000000 		.4byte	0x81
 5691 0962 02       		.uleb128 0x2
 5692 0963 91       		.byte	0x91
 5693 0964 6F       		.sleb128 -17
 5694 0965 12       		.uleb128 0x12
 5695 0966 706F7300 		.ascii	"pos\000"
 5696 096a 01       		.byte	0x1
 5697 096b 2D02     		.2byte	0x22d
 5698 096d 81000000 		.4byte	0x81
 5699 0971 02       		.uleb128 0x2
 5700 0972 91       		.byte	0x91
 5701 0973 6E       		.sleb128 -18
 5702 0974 15       		.uleb128 0x15
 5703 0975 22040000 		.4byte	.LASF43
 5704 0979 01       		.byte	0x1
 5705 097a 2F02     		.2byte	0x22f
 5706 097c 4F0F0000 		.4byte	0xf4f
 5707 0980 03       		.uleb128 0x3
 5708 0981 91       		.byte	0x91
 5709 0982 A07F     		.sleb128 -96
 5710 0984 15       		.uleb128 0x15
 5711 0985 49030000 		.4byte	.LASF44
 5712 0989 01       		.byte	0x1
 5713 098a 2F02     		.2byte	0x22f
 5714 098c 4F0F0000 		.4byte	0xf4f
 5715 0990 03       		.uleb128 0x3
 5716 0991 91       		.byte	0x91
 5717 0992 947F     		.sleb128 -108
 5718 0994 15       		.uleb128 0x15
 5719 0995 0E040000 		.4byte	.LASF45
 5720 0999 01       		.byte	0x1
 5721 099a 2F02     		.2byte	0x22f
 5722 099c 4F0F0000 		.4byte	0xf4f
 5723 09a0 03       		.uleb128 0x3
 5724 09a1 91       		.byte	0x91
 5725 09a2 887F     		.sleb128 -120
 5726 09a4 15       		.uleb128 0x15
 5727 09a5 05050000 		.4byte	.LASF46
 5728 09a9 01       		.byte	0x1
 5729 09aa 2F02     		.2byte	0x22f
 5730 09ac 4F0F0000 		.4byte	0xf4f
 5731 09b0 03       		.uleb128 0x3
 5732 09b1 91       		.byte	0x91
 5733 09b2 FC7E     		.sleb128 -132
ARM GAS  C:\Users\Diego\AppData\Local\Temp\ccz6pbcU.s 			page 123


 5734 09b4 15       		.uleb128 0x15
 5735 09b5 5C030000 		.4byte	.LASF47
 5736 09b9 01       		.byte	0x1
 5737 09ba 3002     		.2byte	0x230
 5738 09bc 99000000 		.4byte	0x99
 5739 09c0 03       		.uleb128 0x3
 5740 09c1 91       		.byte	0x91
 5741 09c2 B07F     		.sleb128 -80
 5742 09c4 15       		.uleb128 0x15
 5743 09c5 35050000 		.4byte	.LASF48
 5744 09c9 01       		.byte	0x1
 5745 09ca 3002     		.2byte	0x230
 5746 09cc 99000000 		.4byte	0x99
 5747 09d0 03       		.uleb128 0x3
 5748 09d1 91       		.byte	0x91
 5749 09d2 B47F     		.sleb128 -76
 5750 09d4 15       		.uleb128 0x15
 5751 09d5 08040000 		.4byte	.LASF49
 5752 09d9 01       		.byte	0x1
 5753 09da 3002     		.2byte	0x230
 5754 09dc 99000000 		.4byte	0x99
 5755 09e0 03       		.uleb128 0x3
 5756 09e1 91       		.byte	0x91
 5757 09e2 AC7F     		.sleb128 -84
 5758 09e4 10       		.uleb128 0x10
 5759 09e5 0E000000 		.4byte	.LBB62
 5760 09e9 28000000 		.4byte	.LBE62-.LBB62
 5761 09ed 010A0000 		.4byte	0xa01
 5762 09f1 15       		.uleb128 0x15
 5763 09f2 E5010000 		.4byte	.LASF40
 5764 09f6 01       		.byte	0x1
 5765 09f7 3202     		.2byte	0x232
 5766 09f9 81000000 		.4byte	0x81
 5767 09fd 02       		.uleb128 0x2
 5768 09fe 91       		.byte	0x91
 5769 09ff 6D       		.sleb128 -19
 5770 0a00 00       		.byte	0
 5771 0a01 10       		.uleb128 0x10
 5772 0a02 56000000 		.4byte	.LBB63
 5773 0a06 2E000000 		.4byte	.LBE63-.LBB63
 5774 0a0a 1E0A0000 		.4byte	0xa1e
 5775 0a0e 15       		.uleb128 0x15
 5776 0a0f E5010000 		.4byte	.LASF40
 5777 0a13 01       		.byte	0x1
 5778 0a14 3902     		.2byte	0x239
 5779 0a16 81000000 		.4byte	0x81
 5780 0a1a 02       		.uleb128 0x2
 5781 0a1b 91       		.byte	0x91
 5782 0a1c 6C       		.sleb128 -20
 5783 0a1d 00       		.byte	0
 5784 0a1e 10       		.uleb128 0x10
 5785 0a1f 8C000000 		.4byte	.LBB64
 5786 0a23 28000000 		.4byte	.LBE64-.LBB64
 5787 0a27 3B0A0000 		.4byte	0xa3b
 5788 0a2b 15       		.uleb128 0x15
 5789 0a2c E5010000 		.4byte	.LASF40
 5790 0a30 01       		.byte	0x1
ARM GAS  C:\Users\Diego\AppData\Local\Temp\ccz6pbcU.s 			page 124


 5791 0a31 3F02     		.2byte	0x23f
 5792 0a33 81000000 		.4byte	0x81
 5793 0a37 02       		.uleb128 0x2
 5794 0a38 91       		.byte	0x91
 5795 0a39 6B       		.sleb128 -21
 5796 0a3a 00       		.byte	0
 5797 0a3b 10       		.uleb128 0x10
 5798 0a3c CC000000 		.4byte	.LBB65
 5799 0a40 2E000000 		.4byte	.LBE65-.LBB65
 5800 0a44 580A0000 		.4byte	0xa58
 5801 0a48 15       		.uleb128 0x15
 5802 0a49 E5010000 		.4byte	.LASF40
 5803 0a4d 01       		.byte	0x1
 5804 0a4e 4502     		.2byte	0x245
 5805 0a50 81000000 		.4byte	0x81
 5806 0a54 02       		.uleb128 0x2
 5807 0a55 91       		.byte	0x91
 5808 0a56 6A       		.sleb128 -22
 5809 0a57 00       		.byte	0
 5810 0a58 10       		.uleb128 0x10
 5811 0a59 66020000 		.4byte	.LBB66
 5812 0a5d 32000000 		.4byte	.LBE66-.LBB66
 5813 0a61 730A0000 		.4byte	0xa73
 5814 0a65 12       		.uleb128 0x12
 5815 0a66 6900     		.ascii	"i\000"
 5816 0a68 01       		.byte	0x1
 5817 0a69 5202     		.2byte	0x252
 5818 0a6b 81000000 		.4byte	0x81
 5819 0a6f 02       		.uleb128 0x2
 5820 0a70 91       		.byte	0x91
 5821 0a71 69       		.sleb128 -23
 5822 0a72 00       		.byte	0
 5823 0a73 10       		.uleb128 0x10
 5824 0a74 A2020000 		.4byte	.LBB67
 5825 0a78 28000000 		.4byte	.LBE67-.LBB67
 5826 0a7c 8E0A0000 		.4byte	0xa8e
 5827 0a80 12       		.uleb128 0x12
 5828 0a81 7800     		.ascii	"x\000"
 5829 0a83 01       		.byte	0x1
 5830 0a84 5602     		.2byte	0x256
 5831 0a86 81000000 		.4byte	0x81
 5832 0a8a 02       		.uleb128 0x2
 5833 0a8b 91       		.byte	0x91
 5834 0a8c 68       		.sleb128 -24
 5835 0a8d 00       		.byte	0
 5836 0a8e 10       		.uleb128 0x10
 5837 0a8f D4020000 		.4byte	.LBB68
 5838 0a93 28000000 		.4byte	.LBE68-.LBB68
 5839 0a97 A90A0000 		.4byte	0xaa9
 5840 0a9b 12       		.uleb128 0x12
 5841 0a9c 7800     		.ascii	"x\000"
 5842 0a9e 01       		.byte	0x1
 5843 0a9f 5A02     		.2byte	0x25a
 5844 0aa1 81000000 		.4byte	0x81
 5845 0aa5 02       		.uleb128 0x2
 5846 0aa6 91       		.byte	0x91
 5847 0aa7 67       		.sleb128 -25
ARM GAS  C:\Users\Diego\AppData\Local\Temp\ccz6pbcU.s 			page 125


 5848 0aa8 00       		.byte	0
 5849 0aa9 10       		.uleb128 0x10
 5850 0aaa 06030000 		.4byte	.LBB69
 5851 0aae 28000000 		.4byte	.LBE69-.LBB69
 5852 0ab2 C40A0000 		.4byte	0xac4
 5853 0ab6 12       		.uleb128 0x12
 5854 0ab7 7800     		.ascii	"x\000"
 5855 0ab9 01       		.byte	0x1
 5856 0aba 5E02     		.2byte	0x25e
 5857 0abc 81000000 		.4byte	0x81
 5858 0ac0 02       		.uleb128 0x2
 5859 0ac1 91       		.byte	0x91
 5860 0ac2 66       		.sleb128 -26
 5861 0ac3 00       		.byte	0
 5862 0ac4 10       		.uleb128 0x10
 5863 0ac5 38030000 		.4byte	.LBB70
 5864 0ac9 58000000 		.4byte	.LBE70-.LBB70
 5865 0acd DF0A0000 		.4byte	0xadf
 5866 0ad1 12       		.uleb128 0x12
 5867 0ad2 7800     		.ascii	"x\000"
 5868 0ad4 01       		.byte	0x1
 5869 0ad5 6202     		.2byte	0x262
 5870 0ad7 81000000 		.4byte	0x81
 5871 0adb 02       		.uleb128 0x2
 5872 0adc 91       		.byte	0x91
 5873 0add 65       		.sleb128 -27
 5874 0ade 00       		.byte	0
 5875 0adf 10       		.uleb128 0x10
 5876 0ae0 9A030000 		.4byte	.LBB71
 5877 0ae4 28000000 		.4byte	.LBE71-.LBB71
 5878 0ae8 FA0A0000 		.4byte	0xafa
 5879 0aec 12       		.uleb128 0x12
 5880 0aed 7800     		.ascii	"x\000"
 5881 0aef 01       		.byte	0x1
 5882 0af0 6602     		.2byte	0x266
 5883 0af2 81000000 		.4byte	0x81
 5884 0af6 02       		.uleb128 0x2
 5885 0af7 91       		.byte	0x91
 5886 0af8 64       		.sleb128 -28
 5887 0af9 00       		.byte	0
 5888 0afa 10       		.uleb128 0x10
 5889 0afb CC030000 		.4byte	.LBB72
 5890 0aff 28000000 		.4byte	.LBE72-.LBB72
 5891 0b03 150B0000 		.4byte	0xb15
 5892 0b07 12       		.uleb128 0x12
 5893 0b08 7800     		.ascii	"x\000"
 5894 0b0a 01       		.byte	0x1
 5895 0b0b 6B02     		.2byte	0x26b
 5896 0b0d 81000000 		.4byte	0x81
 5897 0b11 02       		.uleb128 0x2
 5898 0b12 91       		.byte	0x91
 5899 0b13 63       		.sleb128 -29
 5900 0b14 00       		.byte	0
 5901 0b15 10       		.uleb128 0x10
 5902 0b16 7C040000 		.4byte	.LBB73
 5903 0b1a 28000000 		.4byte	.LBE73-.LBB73
 5904 0b1e 300B0000 		.4byte	0xb30
ARM GAS  C:\Users\Diego\AppData\Local\Temp\ccz6pbcU.s 			page 126


 5905 0b22 12       		.uleb128 0x12
 5906 0b23 7800     		.ascii	"x\000"
 5907 0b25 01       		.byte	0x1
 5908 0b26 7902     		.2byte	0x279
 5909 0b28 81000000 		.4byte	0x81
 5910 0b2c 02       		.uleb128 0x2
 5911 0b2d 91       		.byte	0x91
 5912 0b2e 62       		.sleb128 -30
 5913 0b2f 00       		.byte	0
 5914 0b30 10       		.uleb128 0x10
 5915 0b31 2C050000 		.4byte	.LBB74
 5916 0b35 28000000 		.4byte	.LBE74-.LBB74
 5917 0b39 4B0B0000 		.4byte	0xb4b
 5918 0b3d 12       		.uleb128 0x12
 5919 0b3e 7800     		.ascii	"x\000"
 5920 0b40 01       		.byte	0x1
 5921 0b41 8502     		.2byte	0x285
 5922 0b43 81000000 		.4byte	0x81
 5923 0b47 02       		.uleb128 0x2
 5924 0b48 91       		.byte	0x91
 5925 0b49 61       		.sleb128 -31
 5926 0b4a 00       		.byte	0
 5927 0b4b 10       		.uleb128 0x10
 5928 0b4c 5E050000 		.4byte	.LBB75
 5929 0b50 28000000 		.4byte	.LBE75-.LBB75
 5930 0b54 660B0000 		.4byte	0xb66
 5931 0b58 12       		.uleb128 0x12
 5932 0b59 7800     		.ascii	"x\000"
 5933 0b5b 01       		.byte	0x1
 5934 0b5c 8A02     		.2byte	0x28a
 5935 0b5e 81000000 		.4byte	0x81
 5936 0b62 02       		.uleb128 0x2
 5937 0b63 91       		.byte	0x91
 5938 0b64 60       		.sleb128 -32
 5939 0b65 00       		.byte	0
 5940 0b66 10       		.uleb128 0x10
 5941 0b67 86050000 		.4byte	.LBB76
 5942 0b6b 28000000 		.4byte	.LBE76-.LBB76
 5943 0b6f 810B0000 		.4byte	0xb81
 5944 0b73 12       		.uleb128 0x12
 5945 0b74 7800     		.ascii	"x\000"
 5946 0b76 01       		.byte	0x1
 5947 0b77 8D02     		.2byte	0x28d
 5948 0b79 81000000 		.4byte	0x81
 5949 0b7d 02       		.uleb128 0x2
 5950 0b7e 91       		.byte	0x91
 5951 0b7f 5F       		.sleb128 -33
 5952 0b80 00       		.byte	0
 5953 0b81 10       		.uleb128 0x10
 5954 0b82 C2050000 		.4byte	.LBB77
 5955 0b86 28000000 		.4byte	.LBE77-.LBB77
 5956 0b8a 9C0B0000 		.4byte	0xb9c
 5957 0b8e 12       		.uleb128 0x12
 5958 0b8f 7800     		.ascii	"x\000"
 5959 0b91 01       		.byte	0x1
 5960 0b92 9202     		.2byte	0x292
 5961 0b94 81000000 		.4byte	0x81
ARM GAS  C:\Users\Diego\AppData\Local\Temp\ccz6pbcU.s 			page 127


 5962 0b98 02       		.uleb128 0x2
 5963 0b99 91       		.byte	0x91
 5964 0b9a 5E       		.sleb128 -34
 5965 0b9b 00       		.byte	0
 5966 0b9c 10       		.uleb128 0x10
 5967 0b9d 02060000 		.4byte	.LBB78
 5968 0ba1 28000000 		.4byte	.LBE78-.LBB78
 5969 0ba5 B70B0000 		.4byte	0xbb7
 5970 0ba9 12       		.uleb128 0x12
 5971 0baa 7800     		.ascii	"x\000"
 5972 0bac 01       		.byte	0x1
 5973 0bad 9702     		.2byte	0x297
 5974 0baf 81000000 		.4byte	0x81
 5975 0bb3 02       		.uleb128 0x2
 5976 0bb4 91       		.byte	0x91
 5977 0bb5 5D       		.sleb128 -35
 5978 0bb6 00       		.byte	0
 5979 0bb7 10       		.uleb128 0x10
 5980 0bb8 34060000 		.4byte	.LBB79
 5981 0bbc 42000000 		.4byte	.LBE79-.LBB79
 5982 0bc0 D20B0000 		.4byte	0xbd2
 5983 0bc4 12       		.uleb128 0x12
 5984 0bc5 7800     		.ascii	"x\000"
 5985 0bc7 01       		.byte	0x1
 5986 0bc8 9C02     		.2byte	0x29c
 5987 0bca 81000000 		.4byte	0x81
 5988 0bce 02       		.uleb128 0x2
 5989 0bcf 91       		.byte	0x91
 5990 0bd0 5C       		.sleb128 -36
 5991 0bd1 00       		.byte	0
 5992 0bd2 10       		.uleb128 0x10
 5993 0bd3 80060000 		.4byte	.LBB80
 5994 0bd7 66000000 		.4byte	.LBE80-.LBB80
 5995 0bdb ED0B0000 		.4byte	0xbed
 5996 0bdf 12       		.uleb128 0x12
 5997 0be0 7800     		.ascii	"x\000"
 5998 0be2 01       		.byte	0x1
 5999 0be3 A202     		.2byte	0x2a2
 6000 0be5 81000000 		.4byte	0x81
 6001 0be9 02       		.uleb128 0x2
 6002 0bea 91       		.byte	0x91
 6003 0beb 5B       		.sleb128 -37
 6004 0bec 00       		.byte	0
 6005 0bed 10       		.uleb128 0x10
 6006 0bee E6060000 		.4byte	.LBB81
 6007 0bf2 28000000 		.4byte	.LBE81-.LBB81
 6008 0bf6 080C0000 		.4byte	0xc08
 6009 0bfa 12       		.uleb128 0x12
 6010 0bfb 7800     		.ascii	"x\000"
 6011 0bfd 01       		.byte	0x1
 6012 0bfe A702     		.2byte	0x2a7
 6013 0c00 81000000 		.4byte	0x81
 6014 0c04 02       		.uleb128 0x2
 6015 0c05 91       		.byte	0x91
 6016 0c06 5A       		.sleb128 -38
 6017 0c07 00       		.byte	0
 6018 0c08 10       		.uleb128 0x10
ARM GAS  C:\Users\Diego\AppData\Local\Temp\ccz6pbcU.s 			page 128


 6019 0c09 18070000 		.4byte	.LBB82
 6020 0c0d 3C000000 		.4byte	.LBE82-.LBB82
 6021 0c11 230C0000 		.4byte	0xc23
 6022 0c15 12       		.uleb128 0x12
 6023 0c16 7800     		.ascii	"x\000"
 6024 0c18 01       		.byte	0x1
 6025 0c19 AB02     		.2byte	0x2ab
 6026 0c1b 81000000 		.4byte	0x81
 6027 0c1f 02       		.uleb128 0x2
 6028 0c20 91       		.byte	0x91
 6029 0c21 59       		.sleb128 -39
 6030 0c22 00       		.byte	0
 6031 0c23 10       		.uleb128 0x10
 6032 0c24 54070000 		.4byte	.LBB83
 6033 0c28 44000000 		.4byte	.LBE83-.LBB83
 6034 0c2c 3E0C0000 		.4byte	0xc3e
 6035 0c30 12       		.uleb128 0x12
 6036 0c31 7800     		.ascii	"x\000"
 6037 0c33 01       		.byte	0x1
 6038 0c34 AE02     		.2byte	0x2ae
 6039 0c36 81000000 		.4byte	0x81
 6040 0c3a 02       		.uleb128 0x2
 6041 0c3b 91       		.byte	0x91
 6042 0c3c 58       		.sleb128 -40
 6043 0c3d 00       		.byte	0
 6044 0c3e 10       		.uleb128 0x10
 6045 0c3f A2070000 		.4byte	.LBB84
 6046 0c43 6E000000 		.4byte	.LBE84-.LBB84
 6047 0c47 590C0000 		.4byte	0xc59
 6048 0c4b 12       		.uleb128 0x12
 6049 0c4c 7800     		.ascii	"x\000"
 6050 0c4e 01       		.byte	0x1
 6051 0c4f B502     		.2byte	0x2b5
 6052 0c51 81000000 		.4byte	0x81
 6053 0c55 02       		.uleb128 0x2
 6054 0c56 91       		.byte	0x91
 6055 0c57 57       		.sleb128 -41
 6056 0c58 00       		.byte	0
 6057 0c59 10       		.uleb128 0x10
 6058 0c5a 40080000 		.4byte	.LBB85
 6059 0c5e 28000000 		.4byte	.LBE85-.LBB85
 6060 0c62 740C0000 		.4byte	0xc74
 6061 0c66 12       		.uleb128 0x12
 6062 0c67 7800     		.ascii	"x\000"
 6063 0c69 01       		.byte	0x1
 6064 0c6a C002     		.2byte	0x2c0
 6065 0c6c 81000000 		.4byte	0x81
 6066 0c70 02       		.uleb128 0x2
 6067 0c71 91       		.byte	0x91
 6068 0c72 56       		.sleb128 -42
 6069 0c73 00       		.byte	0
 6070 0c74 10       		.uleb128 0x10
 6071 0c75 72080000 		.4byte	.LBB86
 6072 0c79 44000000 		.4byte	.LBE86-.LBB86
 6073 0c7d 8F0C0000 		.4byte	0xc8f
 6074 0c81 12       		.uleb128 0x12
 6075 0c82 7800     		.ascii	"x\000"
ARM GAS  C:\Users\Diego\AppData\Local\Temp\ccz6pbcU.s 			page 129


 6076 0c84 01       		.byte	0x1
 6077 0c85 C402     		.2byte	0x2c4
 6078 0c87 81000000 		.4byte	0x81
 6079 0c8b 02       		.uleb128 0x2
 6080 0c8c 91       		.byte	0x91
 6081 0c8d 55       		.sleb128 -43
 6082 0c8e 00       		.byte	0
 6083 0c8f 10       		.uleb128 0x10
 6084 0c90 C0080000 		.4byte	.LBB87
 6085 0c94 28000000 		.4byte	.LBE87-.LBB87
 6086 0c98 AA0C0000 		.4byte	0xcaa
 6087 0c9c 12       		.uleb128 0x12
 6088 0c9d 7800     		.ascii	"x\000"
 6089 0c9f 01       		.byte	0x1
 6090 0ca0 CA02     		.2byte	0x2ca
 6091 0ca2 81000000 		.4byte	0x81
 6092 0ca6 02       		.uleb128 0x2
 6093 0ca7 91       		.byte	0x91
 6094 0ca8 54       		.sleb128 -44
 6095 0ca9 00       		.byte	0
 6096 0caa 10       		.uleb128 0x10
 6097 0cab F2080000 		.4byte	.LBB88
 6098 0caf 28000000 		.4byte	.LBE88-.LBB88
 6099 0cb3 C50C0000 		.4byte	0xcc5
 6100 0cb7 12       		.uleb128 0x12
 6101 0cb8 7800     		.ascii	"x\000"
 6102 0cba 01       		.byte	0x1
 6103 0cbb CE02     		.2byte	0x2ce
 6104 0cbd 81000000 		.4byte	0x81
 6105 0cc1 02       		.uleb128 0x2
 6106 0cc2 91       		.byte	0x91
 6107 0cc3 53       		.sleb128 -45
 6108 0cc4 00       		.byte	0
 6109 0cc5 10       		.uleb128 0x10
 6110 0cc6 34090000 		.4byte	.LBB89
 6111 0cca 28000000 		.4byte	.LBE89-.LBB89
 6112 0cce E00C0000 		.4byte	0xce0
 6113 0cd2 12       		.uleb128 0x12
 6114 0cd3 7800     		.ascii	"x\000"
 6115 0cd5 01       		.byte	0x1
 6116 0cd6 D302     		.2byte	0x2d3
 6117 0cd8 81000000 		.4byte	0x81
 6118 0cdc 02       		.uleb128 0x2
 6119 0cdd 91       		.byte	0x91
 6120 0cde 52       		.sleb128 -46
 6121 0cdf 00       		.byte	0
 6122 0ce0 10       		.uleb128 0x10
 6123 0ce1 66090000 		.4byte	.LBB90
 6124 0ce5 42000000 		.4byte	.LBE90-.LBB90
 6125 0ce9 FB0C0000 		.4byte	0xcfb
 6126 0ced 12       		.uleb128 0x12
 6127 0cee 7800     		.ascii	"x\000"
 6128 0cf0 01       		.byte	0x1
 6129 0cf1 D702     		.2byte	0x2d7
 6130 0cf3 81000000 		.4byte	0x81
 6131 0cf7 02       		.uleb128 0x2
 6132 0cf8 91       		.byte	0x91
ARM GAS  C:\Users\Diego\AppData\Local\Temp\ccz6pbcU.s 			page 130


 6133 0cf9 51       		.sleb128 -47
 6134 0cfa 00       		.byte	0
 6135 0cfb 10       		.uleb128 0x10
 6136 0cfc B2090000 		.4byte	.LBB91
 6137 0d00 28000000 		.4byte	.LBE91-.LBB91
 6138 0d04 160D0000 		.4byte	0xd16
 6139 0d08 12       		.uleb128 0x12
 6140 0d09 7800     		.ascii	"x\000"
 6141 0d0b 01       		.byte	0x1
 6142 0d0c DD02     		.2byte	0x2dd
 6143 0d0e 81000000 		.4byte	0x81
 6144 0d12 02       		.uleb128 0x2
 6145 0d13 91       		.byte	0x91
 6146 0d14 50       		.sleb128 -48
 6147 0d15 00       		.byte	0
 6148 0d16 10       		.uleb128 0x10
 6149 0d17 E4090000 		.4byte	.LBB92
 6150 0d1b 5C000000 		.4byte	.LBE92-.LBB92
 6151 0d1f 310D0000 		.4byte	0xd31
 6152 0d23 12       		.uleb128 0x12
 6153 0d24 7800     		.ascii	"x\000"
 6154 0d26 01       		.byte	0x1
 6155 0d27 E102     		.2byte	0x2e1
 6156 0d29 81000000 		.4byte	0x81
 6157 0d2d 02       		.uleb128 0x2
 6158 0d2e 91       		.byte	0x91
 6159 0d2f 4F       		.sleb128 -49
 6160 0d30 00       		.byte	0
 6161 0d31 10       		.uleb128 0x10
 6162 0d32 400A0000 		.4byte	.LBB93
 6163 0d36 44000000 		.4byte	.LBE93-.LBB93
 6164 0d3a 4C0D0000 		.4byte	0xd4c
 6165 0d3e 12       		.uleb128 0x12
 6166 0d3f 7800     		.ascii	"x\000"
 6167 0d41 01       		.byte	0x1
 6168 0d42 E402     		.2byte	0x2e4
 6169 0d44 81000000 		.4byte	0x81
 6170 0d48 02       		.uleb128 0x2
 6171 0d49 91       		.byte	0x91
 6172 0d4a 4E       		.sleb128 -50
 6173 0d4b 00       		.byte	0
 6174 0d4c 10       		.uleb128 0x10
 6175 0d4d 8E0A0000 		.4byte	.LBB94
 6176 0d51 6E000000 		.4byte	.LBE94-.LBB94
 6177 0d55 670D0000 		.4byte	0xd67
 6178 0d59 12       		.uleb128 0x12
 6179 0d5a 7800     		.ascii	"x\000"
 6180 0d5c 01       		.byte	0x1
 6181 0d5d EA02     		.2byte	0x2ea
 6182 0d5f 81000000 		.4byte	0x81
 6183 0d63 02       		.uleb128 0x2
 6184 0d64 91       		.byte	0x91
 6185 0d65 4D       		.sleb128 -51
 6186 0d66 00       		.byte	0
 6187 0d67 10       		.uleb128 0x10
 6188 0d68 2C0B0000 		.4byte	.LBB95
 6189 0d6c 28000000 		.4byte	.LBE95-.LBB95
ARM GAS  C:\Users\Diego\AppData\Local\Temp\ccz6pbcU.s 			page 131


 6190 0d70 820D0000 		.4byte	0xd82
 6191 0d74 12       		.uleb128 0x12
 6192 0d75 7800     		.ascii	"x\000"
 6193 0d77 01       		.byte	0x1
 6194 0d78 F402     		.2byte	0x2f4
 6195 0d7a 81000000 		.4byte	0x81
 6196 0d7e 02       		.uleb128 0x2
 6197 0d7f 91       		.byte	0x91
 6198 0d80 4C       		.sleb128 -52
 6199 0d81 00       		.byte	0
 6200 0d82 10       		.uleb128 0x10
 6201 0d83 5E0B0000 		.4byte	.LBB96
 6202 0d87 44000000 		.4byte	.LBE96-.LBB96
 6203 0d8b 9D0D0000 		.4byte	0xd9d
 6204 0d8f 12       		.uleb128 0x12
 6205 0d90 7800     		.ascii	"x\000"
 6206 0d92 01       		.byte	0x1
 6207 0d93 F802     		.2byte	0x2f8
 6208 0d95 81000000 		.4byte	0x81
 6209 0d99 02       		.uleb128 0x2
 6210 0d9a 91       		.byte	0x91
 6211 0d9b 4B       		.sleb128 -53
 6212 0d9c 00       		.byte	0
 6213 0d9d 10       		.uleb128 0x10
 6214 0d9e B80B0000 		.4byte	.LBB97
 6215 0da2 28000000 		.4byte	.LBE97-.LBB97
 6216 0da6 B80D0000 		.4byte	0xdb8
 6217 0daa 12       		.uleb128 0x12
 6218 0dab 7800     		.ascii	"x\000"
 6219 0dad 01       		.byte	0x1
 6220 0dae 0003     		.2byte	0x300
 6221 0db0 81000000 		.4byte	0x81
 6222 0db4 02       		.uleb128 0x2
 6223 0db5 91       		.byte	0x91
 6224 0db6 4A       		.sleb128 -54
 6225 0db7 00       		.byte	0
 6226 0db8 10       		.uleb128 0x10
 6227 0db9 EA0B0000 		.4byte	.LBB98
 6228 0dbd 28000000 		.4byte	.LBE98-.LBB98
 6229 0dc1 D30D0000 		.4byte	0xdd3
 6230 0dc5 12       		.uleb128 0x12
 6231 0dc6 7800     		.ascii	"x\000"
 6232 0dc8 01       		.byte	0x1
 6233 0dc9 0403     		.2byte	0x304
 6234 0dcb 81000000 		.4byte	0x81
 6235 0dcf 02       		.uleb128 0x2
 6236 0dd0 91       		.byte	0x91
 6237 0dd1 49       		.sleb128 -55
 6238 0dd2 00       		.byte	0
 6239 0dd3 10       		.uleb128 0x10
 6240 0dd4 2C0C0000 		.4byte	.LBB99
 6241 0dd8 42000000 		.4byte	.LBE99-.LBB99
 6242 0ddc EE0D0000 		.4byte	0xdee
 6243 0de0 12       		.uleb128 0x12
 6244 0de1 7800     		.ascii	"x\000"
 6245 0de3 01       		.byte	0x1
 6246 0de4 0903     		.2byte	0x309
ARM GAS  C:\Users\Diego\AppData\Local\Temp\ccz6pbcU.s 			page 132


 6247 0de6 81000000 		.4byte	0x81
 6248 0dea 02       		.uleb128 0x2
 6249 0deb 91       		.byte	0x91
 6250 0dec 48       		.sleb128 -56
 6251 0ded 00       		.byte	0
 6252 0dee 10       		.uleb128 0x10
 6253 0def 780C0000 		.4byte	.LBB100
 6254 0df3 28000000 		.4byte	.LBE100-.LBB100
 6255 0df7 090E0000 		.4byte	0xe09
 6256 0dfb 12       		.uleb128 0x12
 6257 0dfc 7800     		.ascii	"x\000"
 6258 0dfe 01       		.byte	0x1
 6259 0dff 0F03     		.2byte	0x30f
 6260 0e01 81000000 		.4byte	0x81
 6261 0e05 02       		.uleb128 0x2
 6262 0e06 91       		.byte	0x91
 6263 0e07 47       		.sleb128 -57
 6264 0e08 00       		.byte	0
 6265 0e09 10       		.uleb128 0x10
 6266 0e0a AA0C0000 		.4byte	.LBB101
 6267 0e0e 28000000 		.4byte	.LBE101-.LBB101
 6268 0e12 240E0000 		.4byte	0xe24
 6269 0e16 12       		.uleb128 0x12
 6270 0e17 7800     		.ascii	"x\000"
 6271 0e19 01       		.byte	0x1
 6272 0e1a 1303     		.2byte	0x313
 6273 0e1c 81000000 		.4byte	0x81
 6274 0e20 02       		.uleb128 0x2
 6275 0e21 91       		.byte	0x91
 6276 0e22 46       		.sleb128 -58
 6277 0e23 00       		.byte	0
 6278 0e24 10       		.uleb128 0x10
 6279 0e25 DC0C0000 		.4byte	.LBB102
 6280 0e29 28000000 		.4byte	.LBE102-.LBB102
 6281 0e2d 3F0E0000 		.4byte	0xe3f
 6282 0e31 12       		.uleb128 0x12
 6283 0e32 7800     		.ascii	"x\000"
 6284 0e34 01       		.byte	0x1
 6285 0e35 1703     		.2byte	0x317
 6286 0e37 81000000 		.4byte	0x81
 6287 0e3b 02       		.uleb128 0x2
 6288 0e3c 91       		.byte	0x91
 6289 0e3d 45       		.sleb128 -59
 6290 0e3e 00       		.byte	0
 6291 0e3f 10       		.uleb128 0x10
 6292 0e40 1E0D0000 		.4byte	.LBB103
 6293 0e44 42000000 		.4byte	.LBE103-.LBB103
 6294 0e48 5A0E0000 		.4byte	0xe5a
 6295 0e4c 12       		.uleb128 0x12
 6296 0e4d 7800     		.ascii	"x\000"
 6297 0e4f 01       		.byte	0x1
 6298 0e50 1C03     		.2byte	0x31c
 6299 0e52 81000000 		.4byte	0x81
 6300 0e56 02       		.uleb128 0x2
 6301 0e57 91       		.byte	0x91
 6302 0e58 44       		.sleb128 -60
 6303 0e59 00       		.byte	0
ARM GAS  C:\Users\Diego\AppData\Local\Temp\ccz6pbcU.s 			page 133


 6304 0e5a 10       		.uleb128 0x10
 6305 0e5b 6A0D0000 		.4byte	.LBB104
 6306 0e5f 28000000 		.4byte	.LBE104-.LBB104
 6307 0e63 750E0000 		.4byte	0xe75
 6308 0e67 12       		.uleb128 0x12
 6309 0e68 7800     		.ascii	"x\000"
 6310 0e6a 01       		.byte	0x1
 6311 0e6b 2203     		.2byte	0x322
 6312 0e6d 81000000 		.4byte	0x81
 6313 0e71 02       		.uleb128 0x2
 6314 0e72 91       		.byte	0x91
 6315 0e73 43       		.sleb128 -61
 6316 0e74 00       		.byte	0
 6317 0e75 10       		.uleb128 0x10
 6318 0e76 920D0000 		.4byte	.LBB105
 6319 0e7a 4A000000 		.4byte	.LBE105-.LBB105
 6320 0e7e 900E0000 		.4byte	0xe90
 6321 0e82 12       		.uleb128 0x12
 6322 0e83 7800     		.ascii	"x\000"
 6323 0e85 01       		.byte	0x1
 6324 0e86 2603     		.2byte	0x326
 6325 0e88 81000000 		.4byte	0x81
 6326 0e8c 02       		.uleb128 0x2
 6327 0e8d 91       		.byte	0x91
 6328 0e8e 42       		.sleb128 -62
 6329 0e8f 00       		.byte	0
 6330 0e90 10       		.uleb128 0x10
 6331 0e91 E60D0000 		.4byte	.LBB106
 6332 0e95 28000000 		.4byte	.LBE106-.LBB106
 6333 0e99 AB0E0000 		.4byte	0xeab
 6334 0e9d 12       		.uleb128 0x12
 6335 0e9e 7800     		.ascii	"x\000"
 6336 0ea0 01       		.byte	0x1
 6337 0ea1 2C03     		.2byte	0x32c
 6338 0ea3 81000000 		.4byte	0x81
 6339 0ea7 02       		.uleb128 0x2
 6340 0ea8 91       		.byte	0x91
 6341 0ea9 41       		.sleb128 -63
 6342 0eaa 00       		.byte	0
 6343 0eab 10       		.uleb128 0x10
 6344 0eac 180E0000 		.4byte	.LBB107
 6345 0eb0 28000000 		.4byte	.LBE107-.LBB107
 6346 0eb4 C60E0000 		.4byte	0xec6
 6347 0eb8 12       		.uleb128 0x12
 6348 0eb9 7800     		.ascii	"x\000"
 6349 0ebb 01       		.byte	0x1
 6350 0ebc 3003     		.2byte	0x330
 6351 0ebe 81000000 		.4byte	0x81
 6352 0ec2 02       		.uleb128 0x2
 6353 0ec3 91       		.byte	0x91
 6354 0ec4 40       		.sleb128 -64
 6355 0ec5 00       		.byte	0
 6356 0ec6 10       		.uleb128 0x10
 6357 0ec7 4A0E0000 		.4byte	.LBB108
 6358 0ecb 28000000 		.4byte	.LBE108-.LBB108
 6359 0ecf E20E0000 		.4byte	0xee2
 6360 0ed3 12       		.uleb128 0x12
ARM GAS  C:\Users\Diego\AppData\Local\Temp\ccz6pbcU.s 			page 134


 6361 0ed4 7800     		.ascii	"x\000"
 6362 0ed6 01       		.byte	0x1
 6363 0ed7 3403     		.2byte	0x334
 6364 0ed9 81000000 		.4byte	0x81
 6365 0edd 03       		.uleb128 0x3
 6366 0ede 91       		.byte	0x91
 6367 0edf BF7F     		.sleb128 -65
 6368 0ee1 00       		.byte	0
 6369 0ee2 10       		.uleb128 0x10
 6370 0ee3 A40E0000 		.4byte	.LBB109
 6371 0ee7 38000000 		.4byte	.LBE109-.LBB109
 6372 0eeb FE0E0000 		.4byte	0xefe
 6373 0eef 12       		.uleb128 0x12
 6374 0ef0 7800     		.ascii	"x\000"
 6375 0ef2 01       		.byte	0x1
 6376 0ef3 3C03     		.2byte	0x33c
 6377 0ef5 81000000 		.4byte	0x81
 6378 0ef9 03       		.uleb128 0x3
 6379 0efa 91       		.byte	0x91
 6380 0efb BE7F     		.sleb128 -66
 6381 0efd 00       		.byte	0
 6382 0efe 10       		.uleb128 0x10
 6383 0eff DC0E0000 		.4byte	.LBB110
 6384 0f03 38000000 		.4byte	.LBE110-.LBB110
 6385 0f07 1A0F0000 		.4byte	0xf1a
 6386 0f0b 12       		.uleb128 0x12
 6387 0f0c 7800     		.ascii	"x\000"
 6388 0f0e 01       		.byte	0x1
 6389 0f0f 3F03     		.2byte	0x33f
 6390 0f11 81000000 		.4byte	0x81
 6391 0f15 03       		.uleb128 0x3
 6392 0f16 91       		.byte	0x91
 6393 0f17 BD7F     		.sleb128 -67
 6394 0f19 00       		.byte	0
 6395 0f1a 10       		.uleb128 0x10
 6396 0f1b 140F0000 		.4byte	.LBB111
 6397 0f1f 38000000 		.4byte	.LBE111-.LBB111
 6398 0f23 360F0000 		.4byte	0xf36
 6399 0f27 12       		.uleb128 0x12
 6400 0f28 7800     		.ascii	"x\000"
 6401 0f2a 01       		.byte	0x1
 6402 0f2b 4203     		.2byte	0x342
 6403 0f2d 81000000 		.4byte	0x81
 6404 0f31 03       		.uleb128 0x3
 6405 0f32 91       		.byte	0x91
 6406 0f33 BC7F     		.sleb128 -68
 6407 0f35 00       		.byte	0
 6408 0f36 13       		.uleb128 0x13
 6409 0f37 4C0F0000 		.4byte	.LBB112
 6410 0f3b 38000000 		.4byte	.LBE112-.LBB112
 6411 0f3f 12       		.uleb128 0x12
 6412 0f40 7800     		.ascii	"x\000"
 6413 0f42 01       		.byte	0x1
 6414 0f43 4503     		.2byte	0x345
 6415 0f45 81000000 		.4byte	0x81
 6416 0f49 03       		.uleb128 0x3
 6417 0f4a 91       		.byte	0x91
ARM GAS  C:\Users\Diego\AppData\Local\Temp\ccz6pbcU.s 			page 135


 6418 0f4b BB7F     		.sleb128 -69
 6419 0f4d 00       		.byte	0
 6420 0f4e 00       		.byte	0
 6421 0f4f 0B       		.uleb128 0xb
 6422 0f50 BF000000 		.4byte	0xbf
 6423 0f54 5F0F0000 		.4byte	0xf5f
 6424 0f58 0C       		.uleb128 0xc
 6425 0f59 D9000000 		.4byte	0xd9
 6426 0f5d 09       		.byte	0x9
 6427 0f5e 00       		.byte	0
 6428 0f5f 16       		.uleb128 0x16
 6429 0f60 EB030000 		.4byte	.LASF50
 6430 0f64 06       		.byte	0x6
 6431 0f65 1207     		.2byte	0x712
 6432 0f67 6B0F0000 		.4byte	0xf6b
 6433 0f6b 17       		.uleb128 0x17
 6434 0f6c 76000000 		.4byte	0x76
 6435 0f70 18       		.uleb128 0x18
 6436 0f71 33030000 		.4byte	.LASF51
 6437 0f75 05       		.byte	0x5
 6438 0f76 10       		.byte	0x10
 6439 0f77 8D000000 		.4byte	0x8d
 6440 0f7b 05       		.uleb128 0x5
 6441 0f7c 03       		.byte	0x3
 6442 0f7d 00000000 		.4byte	PollCounter
 6443 0f81 18       		.uleb128 0x18
 6444 0f82 8E030000 		.4byte	.LASF52
 6445 0f86 05       		.byte	0x5
 6446 0f87 11       		.byte	0x11
 6447 0f88 81000000 		.4byte	0x81
 6448 0f8c 05       		.uleb128 0x5
 6449 0f8d 03       		.byte	0x3
 6450 0f8e 00000000 		.4byte	CurrentState
 6451 0f92 18       		.uleb128 0x18
 6452 0f93 40010000 		.4byte	.LASF53
 6453 0f97 05       		.byte	0x5
 6454 0f98 12       		.byte	0x12
 6455 0f99 81000000 		.4byte	0x81
 6456 0f9d 05       		.uleb128 0x5
 6457 0f9e 03       		.byte	0x3
 6458 0f9f 00000000 		.4byte	Receipt
 6459 0fa3 0B       		.uleb128 0xb
 6460 0fa4 81000000 		.4byte	0x81
 6461 0fa8 B30F0000 		.4byte	0xfb3
 6462 0fac 0C       		.uleb128 0xc
 6463 0fad D9000000 		.4byte	0xd9
 6464 0fb1 05       		.byte	0x5
 6465 0fb2 00       		.byte	0
 6466 0fb3 18       		.uleb128 0x18
 6467 0fb4 2F000000 		.4byte	.LASF54
 6468 0fb8 05       		.byte	0x5
 6469 0fb9 13       		.byte	0x13
 6470 0fba A30F0000 		.4byte	0xfa3
 6471 0fbe 05       		.uleb128 0x5
 6472 0fbf 03       		.byte	0x3
 6473 0fc0 00000000 		.4byte	sale_number
 6474 0fc4 18       		.uleb128 0x18
ARM GAS  C:\Users\Diego\AppData\Local\Temp\ccz6pbcU.s 			page 136


 6475 0fc5 C0020000 		.4byte	.LASF55
 6476 0fc9 05       		.byte	0x5
 6477 0fca 14       		.byte	0x14
 6478 0fcb A30F0000 		.4byte	0xfa3
 6479 0fcf 05       		.uleb128 0x5
 6480 0fd0 03       		.byte	0x3
 6481 0fd1 00000000 		.4byte	sale_number_copy
 6482 0fd5 18       		.uleb128 0x18
 6483 0fd6 13000000 		.4byte	.LASF56
 6484 0fda 05       		.byte	0x5
 6485 0fdb 15       		.byte	0x15
 6486 0fdc 81000000 		.4byte	0x81
 6487 0fe0 05       		.uleb128 0x5
 6488 0fe1 03       		.byte	0x3
 6489 0fe2 00000000 		.4byte	int_salenumber
 6490 0fe6 18       		.uleb128 0x18
 6491 0fe7 E2040000 		.4byte	.LASF57
 6492 0feb 05       		.byte	0x5
 6493 0fec 16       		.byte	0x16
 6494 0fed A30F0000 		.4byte	0xfa3
 6495 0ff1 05       		.uleb128 0x5
 6496 0ff2 03       		.byte	0x3
 6497 0ff3 00000000 		.4byte	shift_number
 6498 0ff7 18       		.uleb128 0x18
 6499 0ff8 52020000 		.4byte	.LASF58
 6500 0ffc 05       		.byte	0x5
 6501 0ffd 17       		.byte	0x17
 6502 0ffe 81000000 		.4byte	0x81
 6503 1002 05       		.uleb128 0x5
 6504 1003 03       		.byte	0x3
 6505 1004 00000000 		.4byte	int_shiftnumber
 6506 1008 18       		.uleb128 0x18
 6507 1009 62020000 		.4byte	.LASF59
 6508 100d 05       		.byte	0x5
 6509 100e 18       		.byte	0x18
 6510 100f 81000000 		.4byte	0x81
 6511 1013 05       		.uleb128 0x5
 6512 1014 03       		.byte	0x3
 6513 1015 00000000 		.4byte	LCDhose
 6514 1019 18       		.uleb128 0x18
 6515 101a DA000000 		.4byte	.LASF60
 6516 101e 05       		.byte	0x5
 6517 101f 3F       		.byte	0x3f
 6518 1020 90020000 		.4byte	0x290
 6519 1024 05       		.uleb128 0x5
 6520 1025 03       		.byte	0x3
 6521 1026 00000000 		.4byte	side
 6522 102a 18       		.uleb128 0x18
 6523 102b 50040000 		.4byte	.LASF61
 6524 102f 05       		.byte	0x5
 6525 1030 48       		.byte	0x48
 6526 1031 2E020000 		.4byte	0x22e
 6527 1035 05       		.uleb128 0x5
 6528 1036 03       		.byte	0x3
 6529 1037 00000000 		.4byte	MepsanResponse
 6530 103b 18       		.uleb128 0x18
 6531 103c 6A030000 		.4byte	.LASF62
ARM GAS  C:\Users\Diego\AppData\Local\Temp\ccz6pbcU.s 			page 137


 6532 1040 05       		.byte	0x5
 6533 1041 49       		.byte	0x49
 6534 1042 2E020000 		.4byte	0x22e
 6535 1046 05       		.uleb128 0x5
 6536 1047 03       		.byte	0x3
 6537 1048 00000000 		.4byte	MepsanSendTo
 6538 104c 0B       		.uleb128 0xb
 6539 104d 81000000 		.4byte	0x81
 6540 1051 5C100000 		.4byte	0x105c
 6541 1055 0C       		.uleb128 0xc
 6542 1056 D9000000 		.4byte	0xd9
 6543 105a 0E       		.byte	0xe
 6544 105b 00       		.byte	0
 6545 105c 18       		.uleb128 0x18
 6546 105d 07000000 		.4byte	.LASF63
 6547 1061 05       		.byte	0x5
 6548 1062 4A       		.byte	0x4a
 6549 1063 4C100000 		.4byte	0x104c
 6550 1067 05       		.uleb128 0x5
 6551 1068 03       		.byte	0x3
 6552 1069 00000000 		.4byte	PumpAddress
 6553 106d 19       		.uleb128 0x19
 6554 106e 43524300 		.ascii	"CRC\000"
 6555 1072 05       		.byte	0x5
 6556 1073 4B       		.byte	0x4b
 6557 1074 8D000000 		.4byte	0x8d
 6558 1078 05       		.uleb128 0x5
 6559 1079 03       		.byte	0x3
 6560 107a 00000000 		.4byte	CRC
 6561 107e 18       		.uleb128 0x18
 6562 107f 3C040000 		.4byte	.LASF64
 6563 1083 05       		.byte	0x5
 6564 1084 4C       		.byte	0x4c
 6565 1085 81000000 		.4byte	0x81
 6566 1089 05       		.uleb128 0x5
 6567 108a 03       		.byte	0x3
 6568 108b 00000000 		.4byte	crc_lo
 6569 108f 18       		.uleb128 0x18
 6570 1090 DB030000 		.4byte	.LASF65
 6571 1094 05       		.byte	0x5
 6572 1095 4C       		.byte	0x4c
 6573 1096 81000000 		.4byte	0x81
 6574 109a 05       		.uleb128 0x5
 6575 109b 03       		.byte	0x3
 6576 109c 00000000 		.4byte	crc_hi
 6577 10a0 18       		.uleb128 0x18
 6578 10a1 FC020000 		.4byte	.LASF66
 6579 10a5 05       		.byte	0x5
 6580 10a6 4D       		.byte	0x4d
 6581 10a7 81000000 		.4byte	0x81
 6582 10ab 05       		.uleb128 0x5
 6583 10ac 03       		.byte	0x3
 6584 10ad 00000000 		.4byte	Positions
 6585 10b1 18       		.uleb128 0x18
 6586 10b2 D4010000 		.4byte	.LASF67
 6587 10b6 05       		.byte	0x5
 6588 10b7 4E       		.byte	0x4e
ARM GAS  C:\Users\Diego\AppData\Local\Temp\ccz6pbcU.s 			page 138


 6589 10b8 81000000 		.4byte	0x81
 6590 10bc 05       		.uleb128 0x5
 6591 10bd 03       		.byte	0x3
 6592 10be 00000000 		.4byte	TotalRequestType
 6593 10c2 18       		.uleb128 0x18
 6594 10c3 45000000 		.4byte	.LASF68
 6595 10c7 05       		.byte	0x5
 6596 10c8 4F       		.byte	0x4f
 6597 10c9 81000000 		.4byte	0x81
 6598 10cd 05       		.uleb128 0x5
 6599 10ce 03       		.byte	0x3
 6600 10cf 00000000 		.4byte	DecVol
 6601 10d3 0B       		.uleb128 0xb
 6602 10d4 81000000 		.4byte	0x81
 6603 10d8 E3100000 		.4byte	0x10e3
 6604 10dc 0C       		.uleb128 0xc
 6605 10dd D9000000 		.4byte	0xd9
 6606 10e1 13       		.byte	0x13
 6607 10e2 00       		.byte	0
 6608 10e3 18       		.uleb128 0x18
 6609 10e4 16040000 		.4byte	.LASF69
 6610 10e8 05       		.byte	0x5
 6611 10e9 58       		.byte	0x58
 6612 10ea D3100000 		.4byte	0x10d3
 6613 10ee 05       		.uleb128 0x5
 6614 10ef 03       		.byte	0x3
 6615 10f0 00000000 		.4byte	touch1
 6616 10f4 18       		.uleb128 0x18
 6617 10f5 DC050000 		.4byte	.LASF70
 6618 10f9 05       		.byte	0x5
 6619 10fa 61       		.byte	0x61
 6620 10fb 81000000 		.4byte	0x81
 6621 10ff 05       		.uleb128 0x5
 6622 1100 03       		.byte	0x3
 6623 1101 00000000 		.4byte	dirGbr
 6624 1105 18       		.uleb128 0x18
 6625 1106 EF040000 		.4byte	.LASF71
 6626 110a 01       		.byte	0x1
 6627 110b 12       		.byte	0x12
 6628 110c 81000000 		.4byte	0x81
 6629 1110 05       		.uleb128 0x5
 6630 1111 03       		.byte	0x3
 6631 1112 00000000 		.4byte	LINE_FEED
 6632 1116 0B       		.uleb128 0xb
 6633 1117 CB000000 		.4byte	0xcb
 6634 111b 26110000 		.4byte	0x1126
 6635 111f 0C       		.uleb128 0xc
 6636 1120 D9000000 		.4byte	0xd9
 6637 1124 00       		.byte	0
 6638 1125 00       		.byte	0
 6639 1126 18       		.uleb128 0x18
 6640 1127 F0050000 		.4byte	.LASF72
 6641 112b 01       		.byte	0x1
 6642 112c 13       		.byte	0x13
 6643 112d 16110000 		.4byte	0x1116
 6644 1131 05       		.uleb128 0x5
 6645 1132 03       		.byte	0x3
ARM GAS  C:\Users\Diego\AppData\Local\Temp\ccz6pbcU.s 			page 139


 6646 1133 00000000 		.4byte	VolSimbol
 6647 1137 0B       		.uleb128 0xb
 6648 1138 81000000 		.4byte	0x81
 6649 113c 47110000 		.4byte	0x1147
 6650 1140 0C       		.uleb128 0xc
 6651 1141 D9000000 		.4byte	0xd9
 6652 1145 1F       		.byte	0x1f
 6653 1146 00       		.byte	0
 6654 1147 18       		.uleb128 0x18
 6655 1148 AC010000 		.4byte	.LASF73
 6656 114c 01       		.byte	0x1
 6657 114d 17       		.byte	0x17
 6658 114e 37110000 		.4byte	0x1137
 6659 1152 05       		.uleb128 0x5
 6660 1153 03       		.byte	0x3
 6661 1154 00000000 		.4byte	msn_EDS
 6662 1158 18       		.uleb128 0x18
 6663 1159 97050000 		.4byte	.LASF74
 6664 115d 01       		.byte	0x1
 6665 115e 18       		.byte	0x18
 6666 115f 37110000 		.4byte	0x1137
 6667 1163 05       		.uleb128 0x5
 6668 1164 03       		.byte	0x3
 6669 1165 00000000 		.4byte	msn_EDS2
 6670 1169 18       		.uleb128 0x18
 6671 116a A0050000 		.4byte	.LASF75
 6672 116e 01       		.byte	0x1
 6673 116f 19       		.byte	0x19
 6674 1170 37110000 		.4byte	0x1137
 6675 1174 05       		.uleb128 0x5
 6676 1175 03       		.byte	0x3
 6677 1176 00000000 		.4byte	msn_EDS3
 6678 117a 18       		.uleb128 0x18
 6679 117b A9050000 		.4byte	.LASF76
 6680 117f 01       		.byte	0x1
 6681 1180 1A       		.byte	0x1a
 6682 1181 37110000 		.4byte	0x1137
 6683 1185 05       		.uleb128 0x5
 6684 1186 03       		.byte	0x3
 6685 1187 00000000 		.4byte	msn_EDS4
 6686 118b 18       		.uleb128 0x18
 6687 118c B2050000 		.4byte	.LASF77
 6688 1190 01       		.byte	0x1
 6689 1191 1B       		.byte	0x1b
 6690 1192 37110000 		.4byte	0x1137
 6691 1196 05       		.uleb128 0x5
 6692 1197 03       		.byte	0x3
 6693 1198 00000000 		.4byte	msn_EDS5
 6694 119c 18       		.uleb128 0x18
 6695 119d BB050000 		.4byte	.LASF78
 6696 11a1 01       		.byte	0x1
 6697 11a2 1C       		.byte	0x1c
 6698 11a3 37110000 		.4byte	0x1137
 6699 11a7 05       		.uleb128 0x5
 6700 11a8 03       		.byte	0x3
 6701 11a9 00000000 		.4byte	msn_EDS6
 6702 11ad 18       		.uleb128 0x18
ARM GAS  C:\Users\Diego\AppData\Local\Temp\ccz6pbcU.s 			page 140


 6703 11ae D7040000 		.4byte	.LASF79
 6704 11b2 01       		.byte	0x1
 6705 11b3 1D       		.byte	0x1d
 6706 11b4 37110000 		.4byte	0x1137
 6707 11b8 05       		.uleb128 0x5
 6708 11b9 03       		.byte	0x3
 6709 11ba 00000000 		.4byte	msn_footer
 6710 11be 18       		.uleb128 0x18
 6711 11bf DF000000 		.4byte	.LASF80
 6712 11c3 01       		.byte	0x1
 6713 11c4 1E       		.byte	0x1e
 6714 11c5 37110000 		.4byte	0x1137
 6715 11c9 05       		.uleb128 0x5
 6716 11ca 03       		.byte	0x3
 6717 11cb 00000000 		.4byte	msn_footer2
 6718 11cf 18       		.uleb128 0x18
 6719 11d0 EB000000 		.4byte	.LASF81
 6720 11d4 01       		.byte	0x1
 6721 11d5 1F       		.byte	0x1f
 6722 11d6 37110000 		.4byte	0x1137
 6723 11da 05       		.uleb128 0x5
 6724 11db 03       		.byte	0x3
 6725 11dc 00000000 		.4byte	msn_footer3
 6726 11e0 18       		.uleb128 0x18
 6727 11e1 F7000000 		.4byte	.LASF82
 6728 11e5 01       		.byte	0x1
 6729 11e6 20       		.byte	0x20
 6730 11e7 37110000 		.4byte	0x1137
 6731 11eb 05       		.uleb128 0x5
 6732 11ec 03       		.byte	0x3
 6733 11ed 00000000 		.4byte	msn_footer4
 6734 11f1 18       		.uleb128 0x18
 6735 11f2 CB010000 		.4byte	.LASF83
 6736 11f6 01       		.byte	0x1
 6737 11f7 21       		.byte	0x21
 6738 11f8 37110000 		.4byte	0x1137
 6739 11fc 05       		.uleb128 0x5
 6740 11fd 03       		.byte	0x3
 6741 11fe 00000000 		.4byte	msn_copy
 6742 1202 0B       		.uleb128 0xb
 6743 1203 81000000 		.4byte	0x81
 6744 1207 12120000 		.4byte	0x1212
 6745 120b 0C       		.uleb128 0xc
 6746 120c D9000000 		.4byte	0xd9
 6747 1210 08       		.byte	0x8
 6748 1211 00       		.byte	0
 6749 1212 18       		.uleb128 0x18
 6750 1213 77030000 		.4byte	.LASF84
 6751 1217 01       		.byte	0x1
 6752 1218 22       		.byte	0x22
 6753 1219 02120000 		.4byte	0x1202
 6754 121d 05       		.uleb128 0x5
 6755 121e 03       		.byte	0x3
 6756 121f 00000000 		.4byte	msn_diesel
 6757 1223 18       		.uleb128 0x18
 6758 1224 06030000 		.4byte	.LASF85
 6759 1228 01       		.byte	0x1
ARM GAS  C:\Users\Diego\AppData\Local\Temp\ccz6pbcU.s 			page 141


 6760 1229 23       		.byte	0x23
 6761 122a 02120000 		.4byte	0x1202
 6762 122e 05       		.uleb128 0x5
 6763 122f 03       		.byte	0x3
 6764 1230 00000000 		.4byte	msn_gasoline
 6765 1234 0B       		.uleb128 0xb
 6766 1235 81000000 		.4byte	0x81
 6767 1239 44120000 		.4byte	0x1244
 6768 123d 0C       		.uleb128 0xc
 6769 123e D9000000 		.4byte	0xd9
 6770 1242 0C       		.byte	0xc
 6771 1243 00       		.byte	0
 6772 1244 18       		.uleb128 0x18
 6773 1245 96040000 		.4byte	.LASF86
 6774 1249 01       		.byte	0x1
 6775 124a 27       		.byte	0x27
 6776 124b 34120000 		.4byte	0x1234
 6777 124f 05       		.uleb128 0x5
 6778 1250 03       		.byte	0x3
 6779 1251 00000000 		.4byte	msn_fecha
 6780 1255 18       		.uleb128 0x18
 6781 1256 B4010000 		.4byte	.LASF87
 6782 125a 01       		.byte	0x1
 6783 125b 28       		.byte	0x28
 6784 125c 34120000 		.4byte	0x1234
 6785 1260 05       		.uleb128 0x5
 6786 1261 03       		.byte	0x3
 6787 1262 00000000 		.4byte	msn_hora
 6788 1266 18       		.uleb128 0x18
 6789 1267 7C010000 		.4byte	.LASF88
 6790 126b 01       		.byte	0x1
 6791 126c 29       		.byte	0x29
 6792 126d 34120000 		.4byte	0x1234
 6793 1271 05       		.uleb128 0x5
 6794 1272 03       		.byte	0x3
 6795 1273 00000000 		.4byte	msn_placa
 6796 1277 18       		.uleb128 0x18
 6797 1278 74020000 		.4byte	.LASF89
 6798 127c 01       		.byte	0x1
 6799 127d 2A       		.byte	0x2a
 6800 127e 34120000 		.4byte	0x1234
 6801 1282 05       		.uleb128 0x5
 6802 1283 03       		.byte	0x3
 6803 1284 00000000 		.4byte	PRN_MILLEAGE
 6804 1288 18       		.uleb128 0x18
 6805 1289 BD010000 		.4byte	.LASF90
 6806 128d 01       		.byte	0x1
 6807 128e 2B       		.byte	0x2b
 6808 128f 34120000 		.4byte	0x1234
 6809 1293 05       		.uleb128 0x5
 6810 1294 03       		.byte	0x3
 6811 1295 00000000 		.4byte	PRN_TRANSTYPE
 6812 1299 18       		.uleb128 0x18
 6813 129a 17010000 		.4byte	.LASF91
 6814 129e 01       		.byte	0x1
 6815 129f 2C       		.byte	0x2c
 6816 12a0 34120000 		.4byte	0x1234
ARM GAS  C:\Users\Diego\AppData\Local\Temp\ccz6pbcU.s 			page 142


 6817 12a4 05       		.uleb128 0x5
 6818 12a5 03       		.byte	0x3
 6819 12a6 00000000 		.4byte	msn_pos
 6820 12aa 18       		.uleb128 0x18
 6821 12ab 5F040000 		.4byte	.LASF92
 6822 12af 01       		.byte	0x1
 6823 12b0 2D       		.byte	0x2d
 6824 12b1 34120000 		.4byte	0x1234
 6825 12b5 05       		.uleb128 0x5
 6826 12b6 03       		.byte	0x3
 6827 12b7 00000000 		.4byte	msn_product
 6828 12bb 18       		.uleb128 0x18
 6829 12bc 74010000 		.4byte	.LASF93
 6830 12c0 01       		.byte	0x1
 6831 12c1 2E       		.byte	0x2e
 6832 12c2 34120000 		.4byte	0x1234
 6833 12c6 05       		.uleb128 0x5
 6834 12c7 03       		.byte	0x3
 6835 12c8 00000000 		.4byte	msn_ppu
 6836 12cc 18       		.uleb128 0x18
 6837 12cd 54030000 		.4byte	.LASF94
 6838 12d1 01       		.byte	0x1
 6839 12d2 2F       		.byte	0x2f
 6840 12d3 34120000 		.4byte	0x1234
 6841 12d7 05       		.uleb128 0x5
 6842 12d8 03       		.byte	0x3
 6843 12d9 00000000 		.4byte	msn_vol
 6844 12dd 18       		.uleb128 0x18
 6845 12de EB020000 		.4byte	.LASF95
 6846 12e2 01       		.byte	0x1
 6847 12e3 30       		.byte	0x30
 6848 12e4 34120000 		.4byte	0x1234
 6849 12e8 05       		.uleb128 0x5
 6850 12e9 03       		.byte	0x3
 6851 12ea 00000000 		.4byte	msn_voltot
 6852 12ee 18       		.uleb128 0x18
 6853 12ef 0B060000 		.4byte	.LASF96
 6854 12f3 01       		.byte	0x1
 6855 12f4 31       		.byte	0x31
 6856 12f5 34120000 		.4byte	0x1234
 6857 12f9 05       		.uleb128 0x5
 6858 12fa 03       		.byte	0x3
 6859 12fb 00000000 		.4byte	msn_din
 6860 12ff 18       		.uleb128 0x18
 6861 1300 9F020000 		.4byte	.LASF97
 6862 1304 01       		.byte	0x1
 6863 1305 32       		.byte	0x32
 6864 1306 34120000 		.4byte	0x1234
 6865 130a 05       		.uleb128 0x5
 6866 130b 03       		.byte	0x3
 6867 130c 00000000 		.4byte	msn_cierre
 6868 1310 18       		.uleb128 0x18
 6869 1311 6A020000 		.4byte	.LASF98
 6870 1315 01       		.byte	0x1
 6871 1316 33       		.byte	0x33
 6872 1317 34120000 		.4byte	0x1234
 6873 131b 05       		.uleb128 0x5
ARM GAS  C:\Users\Diego\AppData\Local\Temp\ccz6pbcU.s 			page 143


 6874 131c 03       		.byte	0x3
 6875 131d 00000000 		.4byte	msn_venta
 6876 1321 18       		.uleb128 0x18
 6877 1322 81020000 		.4byte	.LASF99
 6878 1326 01       		.byte	0x1
 6879 1327 34       		.byte	0x34
 6880 1328 34120000 		.4byte	0x1234
 6881 132c 05       		.uleb128 0x5
 6882 132d 03       		.byte	0x3
 6883 132e 00000000 		.4byte	msn_numero
 6884 1332 18       		.uleb128 0x18
 6885 1333 1F050000 		.4byte	.LASF100
 6886 1337 01       		.byte	0x1
 6887 1338 35       		.byte	0x35
 6888 1339 34120000 		.4byte	0x1234
 6889 133d 05       		.uleb128 0x5
 6890 133e 03       		.byte	0x3
 6891 133f 00000000 		.4byte	PRN_BALANCE
 6892 1343 18       		.uleb128 0x18
 6893 1344 F9040000 		.4byte	.LASF101
 6894 1348 01       		.byte	0x1
 6895 1349 36       		.byte	0x36
 6896 134a 34120000 		.4byte	0x1234
 6897 134e 05       		.uleb128 0x5
 6898 134f 03       		.byte	0x3
 6899 1350 00000000 		.4byte	PRN_COMPANY
 6900 1354 18       		.uleb128 0x18
 6901 1355 FA010000 		.4byte	.LASF102
 6902 1359 01       		.byte	0x1
 6903 135a 37       		.byte	0x37
 6904 135b 34120000 		.4byte	0x1234
 6905 135f 05       		.uleb128 0x5
 6906 1360 03       		.byte	0x3
 6907 1361 00000000 		.4byte	PRN_ACCOUNT
 6908 1365 18       		.uleb128 0x18
 6909 1366 D1050000 		.4byte	.LASF103
 6910 136a 01       		.byte	0x1
 6911 136b 38       		.byte	0x38
 6912 136c 34120000 		.4byte	0x1234
 6913 1370 05       		.uleb128 0x5
 6914 1371 03       		.byte	0x3
 6915 1372 00000000 		.4byte	PRN_SERIAL
 6916 1376 18       		.uleb128 0x18
 6917 1377 B2030000 		.4byte	.LASF104
 6918 137b 01       		.byte	0x1
 6919 137c 39       		.byte	0x39
 6920 137d 34120000 		.4byte	0x1234
 6921 1381 05       		.uleb128 0x5
 6922 1382 03       		.byte	0x3
 6923 1383 00000000 		.4byte	PRN_ACCOUNTTYPE
 6924 1387 18       		.uleb128 0x18
 6925 1388 D1020000 		.4byte	.LASF105
 6926 138c 01       		.byte	0x1
 6927 138d 3A       		.byte	0x3a
 6928 138e 34120000 		.4byte	0x1234
 6929 1392 05       		.uleb128 0x5
 6930 1393 03       		.byte	0x3
ARM GAS  C:\Users\Diego\AppData\Local\Temp\ccz6pbcU.s 			page 144


 6931 1394 00000000 		.4byte	PRN_VISITSDAY
 6932 1398 18       		.uleb128 0x18
 6933 1399 C2030000 		.4byte	.LASF106
 6934 139d 01       		.byte	0x1
 6935 139e 3B       		.byte	0x3b
 6936 139f 34120000 		.4byte	0x1234
 6937 13a3 05       		.uleb128 0x5
 6938 13a4 03       		.byte	0x3
 6939 13a5 00000000 		.4byte	PRN_VISITSWEEK
 6940 13a9 18       		.uleb128 0x18
 6941 13aa B9040000 		.4byte	.LASF107
 6942 13ae 01       		.byte	0x1
 6943 13af 3C       		.byte	0x3c
 6944 13b0 34120000 		.4byte	0x1234
 6945 13b4 05       		.uleb128 0x5
 6946 13b5 03       		.byte	0x3
 6947 13b6 00000000 		.4byte	PRN_VISITSMONTH
 6948 13ba 18       		.uleb128 0x18
 6949 13bb 06020000 		.4byte	.LASF108
 6950 13bf 01       		.byte	0x1
 6951 13c0 3D       		.byte	0x3d
 6952 13c1 34120000 		.4byte	0x1234
 6953 13c5 05       		.uleb128 0x5
 6954 13c6 03       		.byte	0x3
 6955 13c7 00000000 		.4byte	PRN_VOLUMEDAY
 6956 13cb 18       		.uleb128 0x18
 6957 13cc 86010000 		.4byte	.LASF109
 6958 13d0 01       		.byte	0x1
 6959 13d1 3E       		.byte	0x3e
 6960 13d2 34120000 		.4byte	0x1234
 6961 13d6 05       		.uleb128 0x5
 6962 13d7 03       		.byte	0x3
 6963 13d8 00000000 		.4byte	PRN_VOLUMEWEEK
 6964 13dc 18       		.uleb128 0x18
 6965 13dd 53010000 		.4byte	.LASF110
 6966 13e1 01       		.byte	0x1
 6967 13e2 3F       		.byte	0x3f
 6968 13e3 34120000 		.4byte	0x1234
 6969 13e7 05       		.uleb128 0x5
 6970 13e8 03       		.byte	0x3
 6971 13e9 00000000 		.4byte	PRN_VOLUMEMONTH
 6972 13ed 18       		.uleb128 0x18
 6973 13ee 2F040000 		.4byte	.LASF111
 6974 13f2 01       		.byte	0x1
 6975 13f3 40       		.byte	0x40
 6976 13f4 34120000 		.4byte	0x1234
 6977 13f8 05       		.uleb128 0x5
 6978 13f9 03       		.byte	0x3
 6979 13fa 00000000 		.4byte	PRN_MONEYDAY
 6980 13fe 18       		.uleb128 0x18
 6981 13ff 7D050000 		.4byte	.LASF112
 6982 1403 01       		.byte	0x1
 6983 1404 41       		.byte	0x41
 6984 1405 34120000 		.4byte	0x1234
 6985 1409 05       		.uleb128 0x5
 6986 140a 03       		.byte	0x3
 6987 140b 00000000 		.4byte	PRN_MONEYWEEK
ARM GAS  C:\Users\Diego\AppData\Local\Temp\ccz6pbcU.s 			page 145


 6988 140f 18       		.uleb128 0x18
 6989 1410 EB010000 		.4byte	.LASF113
 6990 1414 01       		.byte	0x1
 6991 1415 42       		.byte	0x42
 6992 1416 34120000 		.4byte	0x1234
 6993 141a 05       		.uleb128 0x5
 6994 141b 03       		.byte	0x3
 6995 141c 00000000 		.4byte	PRN_MONEYMONTH
 6996 1420 18       		.uleb128 0x18
 6997 1421 48010000 		.4byte	.LASF114
 6998 1425 01       		.byte	0x1
 6999 1426 43       		.byte	0x43
 7000 1427 34120000 		.4byte	0x1234
 7001 142b 05       		.uleb128 0x5
 7002 142c 03       		.byte	0x3
 7003 142d 00000000 		.4byte	PRN_PRESET
 7004 1431 18       		.uleb128 0x18
 7005 1432 6F050000 		.4byte	.LASF115
 7006 1436 01       		.byte	0x1
 7007 1437 44       		.byte	0x44
 7008 1438 34120000 		.4byte	0x1234
 7009 143c 05       		.uleb128 0x5
 7010 143d 03       		.byte	0x3
 7011 143e 00000000 		.4byte	PRN_SIGNATURE
 7012 1442 18       		.uleb128 0x18
 7013 1443 49050000 		.4byte	.LASF116
 7014 1447 01       		.byte	0x1
 7015 1448 45       		.byte	0x45
 7016 1449 34120000 		.4byte	0x1234
 7017 144d 05       		.uleb128 0x5
 7018 144e 03       		.byte	0x3
 7019 144f 00000000 		.4byte	PRN_ID
 7020 1453 0B       		.uleb128 0xb
 7021 1454 81000000 		.4byte	0x81
 7022 1458 63140000 		.4byte	0x1463
 7023 145c 0C       		.uleb128 0xc
 7024 145d D9000000 		.4byte	0xd9
 7025 1461 00       		.byte	0
 7026 1462 00       		.byte	0
 7027 1463 18       		.uleb128 0x18
 7028 1464 E3050000 		.4byte	.LASF117
 7029 1468 01       		.byte	0x1
 7030 1469 46       		.byte	0x46
 7031 146a 53140000 		.4byte	0x1453
 7032 146e 05       		.uleb128 0x5
 7033 146f 03       		.byte	0x3
 7034 1470 00000000 		.4byte	PRN_CURRENCY
 7035 1474 0B       		.uleb128 0xb
 7036 1475 81000000 		.4byte	0x81
 7037 1479 84140000 		.4byte	0x1484
 7038 147d 0C       		.uleb128 0xc
 7039 147e D9000000 		.4byte	0xd9
 7040 1482 0F       		.byte	0xf
 7041 1483 00       		.byte	0
 7042 1484 18       		.uleb128 0x18
 7043 1485 9B030000 		.4byte	.LASF118
 7044 1489 01       		.byte	0x1
ARM GAS  C:\Users\Diego\AppData\Local\Temp\ccz6pbcU.s 			page 146


 7045 148a 47       		.byte	0x47
 7046 148b 74140000 		.4byte	0x1474
 7047 148f 05       		.uleb128 0x5
 7048 1490 03       		.byte	0x3
 7049 1491 00000000 		.4byte	msn_lecact
 7050 1495 18       		.uleb128 0x18
 7051 1496 69010000 		.4byte	.LASF119
 7052 149a 01       		.byte	0x1
 7053 149b 48       		.byte	0x48
 7054 149c 74140000 		.4byte	0x1474
 7055 14a0 05       		.uleb128 0x5
 7056 14a1 03       		.byte	0x3
 7057 14a2 00000000 		.4byte	msn_lecaan
 7058 14a6 0B       		.uleb128 0xb
 7059 14a7 81000000 		.4byte	0x81
 7060 14ab B6140000 		.4byte	0x14b6
 7061 14af 0C       		.uleb128 0xc
 7062 14b0 D9000000 		.4byte	0xd9
 7063 14b4 11       		.byte	0x11
 7064 14b5 00       		.byte	0
 7065 14b6 18       		.uleb128 0x18
 7066 14b7 03060000 		.4byte	.LASF120
 7067 14bb 01       		.byte	0x1
 7068 14bc 49       		.byte	0x49
 7069 14bd A6140000 		.4byte	0x14a6
 7070 14c1 05       		.uleb128 0x5
 7071 14c2 03       		.byte	0x3
 7072 14c3 00000000 		.4byte	msn_dif
 7073 14c7 18       		.uleb128 0x18
 7074 14c8 AA020000 		.4byte	.LASF121
 7075 14cc 01       		.byte	0x1
 7076 14cd 4A       		.byte	0x4a
 7077 14ce 37110000 		.4byte	0x1137
 7078 14d2 05       		.uleb128 0x5
 7079 14d3 03       		.byte	0x3
 7080 14d4 00000000 		.4byte	SEPARATOR
 7081 14d8 18       		.uleb128 0x18
 7082 14d9 2A010000 		.4byte	.LASF122
 7083 14dd 01       		.byte	0x1
 7084 14de 4B       		.byte	0x4b
 7085 14df A30F0000 		.4byte	0xfa3
 7086 14e3 05       		.uleb128 0x5
 7087 14e4 03       		.byte	0x3
 7088 14e5 00000000 		.4byte	ASK_TIME
 7089 14e9 00       		.byte	0
 7090              		.section	.debug_abbrev,"",%progbits
 7091              	.Ldebug_abbrev0:
 7092 0000 01       		.uleb128 0x1
 7093 0001 11       		.uleb128 0x11
 7094 0002 01       		.byte	0x1
 7095 0003 25       		.uleb128 0x25
 7096 0004 0E       		.uleb128 0xe
 7097 0005 13       		.uleb128 0x13
 7098 0006 0B       		.uleb128 0xb
 7099 0007 03       		.uleb128 0x3
 7100 0008 0E       		.uleb128 0xe
 7101 0009 1B       		.uleb128 0x1b
ARM GAS  C:\Users\Diego\AppData\Local\Temp\ccz6pbcU.s 			page 147


 7102 000a 0E       		.uleb128 0xe
 7103 000b 55       		.uleb128 0x55
 7104 000c 17       		.uleb128 0x17
 7105 000d 11       		.uleb128 0x11
 7106 000e 01       		.uleb128 0x1
 7107 000f 10       		.uleb128 0x10
 7108 0010 17       		.uleb128 0x17
 7109 0011 00       		.byte	0
 7110 0012 00       		.byte	0
 7111 0013 02       		.uleb128 0x2
 7112 0014 24       		.uleb128 0x24
 7113 0015 00       		.byte	0
 7114 0016 0B       		.uleb128 0xb
 7115 0017 0B       		.uleb128 0xb
 7116 0018 3E       		.uleb128 0x3e
 7117 0019 0B       		.uleb128 0xb
 7118 001a 03       		.uleb128 0x3
 7119 001b 0E       		.uleb128 0xe
 7120 001c 00       		.byte	0
 7121 001d 00       		.byte	0
 7122 001e 03       		.uleb128 0x3
 7123 001f 16       		.uleb128 0x16
 7124 0020 00       		.byte	0
 7125 0021 03       		.uleb128 0x3
 7126 0022 0E       		.uleb128 0xe
 7127 0023 3A       		.uleb128 0x3a
 7128 0024 0B       		.uleb128 0xb
 7129 0025 3B       		.uleb128 0x3b
 7130 0026 0B       		.uleb128 0xb
 7131 0027 49       		.uleb128 0x49
 7132 0028 13       		.uleb128 0x13
 7133 0029 00       		.byte	0
 7134 002a 00       		.byte	0
 7135 002b 04       		.uleb128 0x4
 7136 002c 24       		.uleb128 0x24
 7137 002d 00       		.byte	0
 7138 002e 0B       		.uleb128 0xb
 7139 002f 0B       		.uleb128 0xb
 7140 0030 3E       		.uleb128 0x3e
 7141 0031 0B       		.uleb128 0xb
 7142 0032 03       		.uleb128 0x3
 7143 0033 08       		.uleb128 0x8
 7144 0034 00       		.byte	0
 7145 0035 00       		.byte	0
 7146 0036 05       		.uleb128 0x5
 7147 0037 16       		.uleb128 0x16
 7148 0038 00       		.byte	0
 7149 0039 03       		.uleb128 0x3
 7150 003a 0E       		.uleb128 0xe
 7151 003b 3A       		.uleb128 0x3a
 7152 003c 0B       		.uleb128 0xb
 7153 003d 3B       		.uleb128 0x3b
 7154 003e 05       		.uleb128 0x5
 7155 003f 49       		.uleb128 0x49
 7156 0040 13       		.uleb128 0x13
 7157 0041 00       		.byte	0
 7158 0042 00       		.byte	0
ARM GAS  C:\Users\Diego\AppData\Local\Temp\ccz6pbcU.s 			page 148


 7159 0043 06       		.uleb128 0x6
 7160 0044 13       		.uleb128 0x13
 7161 0045 01       		.byte	0x1
 7162 0046 03       		.uleb128 0x3
 7163 0047 0E       		.uleb128 0xe
 7164 0048 0B       		.uleb128 0xb
 7165 0049 05       		.uleb128 0x5
 7166 004a 3A       		.uleb128 0x3a
 7167 004b 0B       		.uleb128 0xb
 7168 004c 3B       		.uleb128 0x3b
 7169 004d 0B       		.uleb128 0xb
 7170 004e 01       		.uleb128 0x1
 7171 004f 13       		.uleb128 0x13
 7172 0050 00       		.byte	0
 7173 0051 00       		.byte	0
 7174 0052 07       		.uleb128 0x7
 7175 0053 0D       		.uleb128 0xd
 7176 0054 00       		.byte	0
 7177 0055 03       		.uleb128 0x3
 7178 0056 08       		.uleb128 0x8
 7179 0057 3A       		.uleb128 0x3a
 7180 0058 0B       		.uleb128 0xb
 7181 0059 3B       		.uleb128 0x3b
 7182 005a 0B       		.uleb128 0xb
 7183 005b 49       		.uleb128 0x49
 7184 005c 13       		.uleb128 0x13
 7185 005d 38       		.uleb128 0x38
 7186 005e 0B       		.uleb128 0xb
 7187 005f 00       		.byte	0
 7188 0060 00       		.byte	0
 7189 0061 08       		.uleb128 0x8
 7190 0062 0D       		.uleb128 0xd
 7191 0063 00       		.byte	0
 7192 0064 03       		.uleb128 0x3
 7193 0065 0E       		.uleb128 0xe
 7194 0066 3A       		.uleb128 0x3a
 7195 0067 0B       		.uleb128 0xb
 7196 0068 3B       		.uleb128 0x3b
 7197 0069 0B       		.uleb128 0xb
 7198 006a 49       		.uleb128 0x49
 7199 006b 13       		.uleb128 0x13
 7200 006c 38       		.uleb128 0x38
 7201 006d 0B       		.uleb128 0xb
 7202 006e 00       		.byte	0
 7203 006f 00       		.byte	0
 7204 0070 09       		.uleb128 0x9
 7205 0071 0D       		.uleb128 0xd
 7206 0072 00       		.byte	0
 7207 0073 03       		.uleb128 0x3
 7208 0074 0E       		.uleb128 0xe
 7209 0075 3A       		.uleb128 0x3a
 7210 0076 0B       		.uleb128 0xb
 7211 0077 3B       		.uleb128 0x3b
 7212 0078 0B       		.uleb128 0xb
 7213 0079 49       		.uleb128 0x49
 7214 007a 13       		.uleb128 0x13
 7215 007b 38       		.uleb128 0x38
ARM GAS  C:\Users\Diego\AppData\Local\Temp\ccz6pbcU.s 			page 149


 7216 007c 05       		.uleb128 0x5
 7217 007d 00       		.byte	0
 7218 007e 00       		.byte	0
 7219 007f 0A       		.uleb128 0xa
 7220 0080 0D       		.uleb128 0xd
 7221 0081 00       		.byte	0
 7222 0082 03       		.uleb128 0x3
 7223 0083 08       		.uleb128 0x8
 7224 0084 3A       		.uleb128 0x3a
 7225 0085 0B       		.uleb128 0xb
 7226 0086 3B       		.uleb128 0x3b
 7227 0087 0B       		.uleb128 0xb
 7228 0088 49       		.uleb128 0x49
 7229 0089 13       		.uleb128 0x13
 7230 008a 38       		.uleb128 0x38
 7231 008b 05       		.uleb128 0x5
 7232 008c 00       		.byte	0
 7233 008d 00       		.byte	0
 7234 008e 0B       		.uleb128 0xb
 7235 008f 01       		.uleb128 0x1
 7236 0090 01       		.byte	0x1
 7237 0091 49       		.uleb128 0x49
 7238 0092 13       		.uleb128 0x13
 7239 0093 01       		.uleb128 0x1
 7240 0094 13       		.uleb128 0x13
 7241 0095 00       		.byte	0
 7242 0096 00       		.byte	0
 7243 0097 0C       		.uleb128 0xc
 7244 0098 21       		.uleb128 0x21
 7245 0099 00       		.byte	0
 7246 009a 49       		.uleb128 0x49
 7247 009b 13       		.uleb128 0x13
 7248 009c 2F       		.uleb128 0x2f
 7249 009d 0B       		.uleb128 0xb
 7250 009e 00       		.byte	0
 7251 009f 00       		.byte	0
 7252 00a0 0D       		.uleb128 0xd
 7253 00a1 2E       		.uleb128 0x2e
 7254 00a2 01       		.byte	0x1
 7255 00a3 3F       		.uleb128 0x3f
 7256 00a4 19       		.uleb128 0x19
 7257 00a5 03       		.uleb128 0x3
 7258 00a6 0E       		.uleb128 0xe
 7259 00a7 3A       		.uleb128 0x3a
 7260 00a8 0B       		.uleb128 0xb
 7261 00a9 3B       		.uleb128 0x3b
 7262 00aa 0B       		.uleb128 0xb
 7263 00ab 27       		.uleb128 0x27
 7264 00ac 19       		.uleb128 0x19
 7265 00ad 11       		.uleb128 0x11
 7266 00ae 01       		.uleb128 0x1
 7267 00af 12       		.uleb128 0x12
 7268 00b0 06       		.uleb128 0x6
 7269 00b1 40       		.uleb128 0x40
 7270 00b2 18       		.uleb128 0x18
 7271 00b3 9642     		.uleb128 0x2116
 7272 00b5 19       		.uleb128 0x19
ARM GAS  C:\Users\Diego\AppData\Local\Temp\ccz6pbcU.s 			page 150


 7273 00b6 01       		.uleb128 0x1
 7274 00b7 13       		.uleb128 0x13
 7275 00b8 00       		.byte	0
 7276 00b9 00       		.byte	0
 7277 00ba 0E       		.uleb128 0xe
 7278 00bb 05       		.uleb128 0x5
 7279 00bc 00       		.byte	0
 7280 00bd 03       		.uleb128 0x3
 7281 00be 0E       		.uleb128 0xe
 7282 00bf 3A       		.uleb128 0x3a
 7283 00c0 0B       		.uleb128 0xb
 7284 00c1 3B       		.uleb128 0x3b
 7285 00c2 0B       		.uleb128 0xb
 7286 00c3 49       		.uleb128 0x49
 7287 00c4 13       		.uleb128 0x13
 7288 00c5 02       		.uleb128 0x2
 7289 00c6 18       		.uleb128 0x18
 7290 00c7 00       		.byte	0
 7291 00c8 00       		.byte	0
 7292 00c9 0F       		.uleb128 0xf
 7293 00ca 34       		.uleb128 0x34
 7294 00cb 00       		.byte	0
 7295 00cc 03       		.uleb128 0x3
 7296 00cd 0E       		.uleb128 0xe
 7297 00ce 3A       		.uleb128 0x3a
 7298 00cf 0B       		.uleb128 0xb
 7299 00d0 3B       		.uleb128 0x3b
 7300 00d1 0B       		.uleb128 0xb
 7301 00d2 49       		.uleb128 0x49
 7302 00d3 13       		.uleb128 0x13
 7303 00d4 02       		.uleb128 0x2
 7304 00d5 18       		.uleb128 0x18
 7305 00d6 00       		.byte	0
 7306 00d7 00       		.byte	0
 7307 00d8 10       		.uleb128 0x10
 7308 00d9 0B       		.uleb128 0xb
 7309 00da 01       		.byte	0x1
 7310 00db 11       		.uleb128 0x11
 7311 00dc 01       		.uleb128 0x1
 7312 00dd 12       		.uleb128 0x12
 7313 00de 06       		.uleb128 0x6
 7314 00df 01       		.uleb128 0x1
 7315 00e0 13       		.uleb128 0x13
 7316 00e1 00       		.byte	0
 7317 00e2 00       		.byte	0
 7318 00e3 11       		.uleb128 0x11
 7319 00e4 34       		.uleb128 0x34
 7320 00e5 00       		.byte	0
 7321 00e6 03       		.uleb128 0x3
 7322 00e7 08       		.uleb128 0x8
 7323 00e8 3A       		.uleb128 0x3a
 7324 00e9 0B       		.uleb128 0xb
 7325 00ea 3B       		.uleb128 0x3b
 7326 00eb 0B       		.uleb128 0xb
 7327 00ec 49       		.uleb128 0x49
 7328 00ed 13       		.uleb128 0x13
 7329 00ee 02       		.uleb128 0x2
ARM GAS  C:\Users\Diego\AppData\Local\Temp\ccz6pbcU.s 			page 151


 7330 00ef 18       		.uleb128 0x18
 7331 00f0 00       		.byte	0
 7332 00f1 00       		.byte	0
 7333 00f2 12       		.uleb128 0x12
 7334 00f3 34       		.uleb128 0x34
 7335 00f4 00       		.byte	0
 7336 00f5 03       		.uleb128 0x3
 7337 00f6 08       		.uleb128 0x8
 7338 00f7 3A       		.uleb128 0x3a
 7339 00f8 0B       		.uleb128 0xb
 7340 00f9 3B       		.uleb128 0x3b
 7341 00fa 05       		.uleb128 0x5
 7342 00fb 49       		.uleb128 0x49
 7343 00fc 13       		.uleb128 0x13
 7344 00fd 02       		.uleb128 0x2
 7345 00fe 18       		.uleb128 0x18
 7346 00ff 00       		.byte	0
 7347 0100 00       		.byte	0
 7348 0101 13       		.uleb128 0x13
 7349 0102 0B       		.uleb128 0xb
 7350 0103 01       		.byte	0x1
 7351 0104 11       		.uleb128 0x11
 7352 0105 01       		.uleb128 0x1
 7353 0106 12       		.uleb128 0x12
 7354 0107 06       		.uleb128 0x6
 7355 0108 00       		.byte	0
 7356 0109 00       		.byte	0
 7357 010a 14       		.uleb128 0x14
 7358 010b 2E       		.uleb128 0x2e
 7359 010c 01       		.byte	0x1
 7360 010d 3F       		.uleb128 0x3f
 7361 010e 19       		.uleb128 0x19
 7362 010f 03       		.uleb128 0x3
 7363 0110 0E       		.uleb128 0xe
 7364 0111 3A       		.uleb128 0x3a
 7365 0112 0B       		.uleb128 0xb
 7366 0113 3B       		.uleb128 0x3b
 7367 0114 05       		.uleb128 0x5
 7368 0115 27       		.uleb128 0x27
 7369 0116 19       		.uleb128 0x19
 7370 0117 11       		.uleb128 0x11
 7371 0118 01       		.uleb128 0x1
 7372 0119 12       		.uleb128 0x12
 7373 011a 06       		.uleb128 0x6
 7374 011b 40       		.uleb128 0x40
 7375 011c 18       		.uleb128 0x18
 7376 011d 9642     		.uleb128 0x2116
 7377 011f 19       		.uleb128 0x19
 7378 0120 01       		.uleb128 0x1
 7379 0121 13       		.uleb128 0x13
 7380 0122 00       		.byte	0
 7381 0123 00       		.byte	0
 7382 0124 15       		.uleb128 0x15
 7383 0125 34       		.uleb128 0x34
 7384 0126 00       		.byte	0
 7385 0127 03       		.uleb128 0x3
 7386 0128 0E       		.uleb128 0xe
ARM GAS  C:\Users\Diego\AppData\Local\Temp\ccz6pbcU.s 			page 152


 7387 0129 3A       		.uleb128 0x3a
 7388 012a 0B       		.uleb128 0xb
 7389 012b 3B       		.uleb128 0x3b
 7390 012c 05       		.uleb128 0x5
 7391 012d 49       		.uleb128 0x49
 7392 012e 13       		.uleb128 0x13
 7393 012f 02       		.uleb128 0x2
 7394 0130 18       		.uleb128 0x18
 7395 0131 00       		.byte	0
 7396 0132 00       		.byte	0
 7397 0133 16       		.uleb128 0x16
 7398 0134 34       		.uleb128 0x34
 7399 0135 00       		.byte	0
 7400 0136 03       		.uleb128 0x3
 7401 0137 0E       		.uleb128 0xe
 7402 0138 3A       		.uleb128 0x3a
 7403 0139 0B       		.uleb128 0xb
 7404 013a 3B       		.uleb128 0x3b
 7405 013b 05       		.uleb128 0x5
 7406 013c 49       		.uleb128 0x49
 7407 013d 13       		.uleb128 0x13
 7408 013e 3F       		.uleb128 0x3f
 7409 013f 19       		.uleb128 0x19
 7410 0140 3C       		.uleb128 0x3c
 7411 0141 19       		.uleb128 0x19
 7412 0142 00       		.byte	0
 7413 0143 00       		.byte	0
 7414 0144 17       		.uleb128 0x17
 7415 0145 35       		.uleb128 0x35
 7416 0146 00       		.byte	0
 7417 0147 49       		.uleb128 0x49
 7418 0148 13       		.uleb128 0x13
 7419 0149 00       		.byte	0
 7420 014a 00       		.byte	0
 7421 014b 18       		.uleb128 0x18
 7422 014c 34       		.uleb128 0x34
 7423 014d 00       		.byte	0
 7424 014e 03       		.uleb128 0x3
 7425 014f 0E       		.uleb128 0xe
 7426 0150 3A       		.uleb128 0x3a
 7427 0151 0B       		.uleb128 0xb
 7428 0152 3B       		.uleb128 0x3b
 7429 0153 0B       		.uleb128 0xb
 7430 0154 49       		.uleb128 0x49
 7431 0155 13       		.uleb128 0x13
 7432 0156 3F       		.uleb128 0x3f
 7433 0157 19       		.uleb128 0x19
 7434 0158 02       		.uleb128 0x2
 7435 0159 18       		.uleb128 0x18
 7436 015a 00       		.byte	0
 7437 015b 00       		.byte	0
 7438 015c 19       		.uleb128 0x19
 7439 015d 34       		.uleb128 0x34
 7440 015e 00       		.byte	0
 7441 015f 03       		.uleb128 0x3
 7442 0160 08       		.uleb128 0x8
 7443 0161 3A       		.uleb128 0x3a
ARM GAS  C:\Users\Diego\AppData\Local\Temp\ccz6pbcU.s 			page 153


 7444 0162 0B       		.uleb128 0xb
 7445 0163 3B       		.uleb128 0x3b
 7446 0164 0B       		.uleb128 0xb
 7447 0165 49       		.uleb128 0x49
 7448 0166 13       		.uleb128 0x13
 7449 0167 3F       		.uleb128 0x3f
 7450 0168 19       		.uleb128 0x19
 7451 0169 02       		.uleb128 0x2
 7452 016a 18       		.uleb128 0x18
 7453 016b 00       		.byte	0
 7454 016c 00       		.byte	0
 7455 016d 00       		.byte	0
 7456              		.section	.debug_aranges,"",%progbits
 7457 0000 24000000 		.4byte	0x24
 7458 0004 0200     		.2byte	0x2
 7459 0006 00000000 		.4byte	.Ldebug_info0
 7460 000a 04       		.byte	0x4
 7461 000b 00       		.byte	0
 7462 000c 0000     		.2byte	0
 7463 000e 0000     		.2byte	0
 7464 0010 00000000 		.4byte	.LFB64
 7465 0014 7C0F0000 		.4byte	.LFE64-.LFB64
 7466 0018 00000000 		.4byte	.LFB65
 7467 001c A00F0000 		.4byte	.LFE65-.LFB65
 7468 0020 00000000 		.4byte	0
 7469 0024 00000000 		.4byte	0
 7470              		.section	.debug_ranges,"",%progbits
 7471              	.Ldebug_ranges0:
 7472 0000 00000000 		.4byte	.LFB64
 7473 0004 7C0F0000 		.4byte	.LFE64
 7474 0008 00000000 		.4byte	.LFB65
 7475 000c A00F0000 		.4byte	.LFE65
 7476 0010 00000000 		.4byte	0
 7477 0014 00000000 		.4byte	0
 7478              		.section	.debug_line,"",%progbits
 7479              	.Ldebug_line0:
 7480 0000 5A0A0000 		.section	.debug_str,"MS",%progbits,1
 7480      02005B01 
 7480      00000201 
 7480      FB0E0D00 
 7480      01010101 
 7481              	.LASF35:
 7482 0000 4E6F7A7A 		.ascii	"Nozzle\000"
 7482      6C6500
 7483              	.LASF63:
 7484 0007 50756D70 		.ascii	"PumpAddress\000"
 7484      41646472 
 7484      65737300 
 7485              	.LASF56:
 7486 0013 696E745F 		.ascii	"int_salenumber\000"
 7486      73616C65 
 7486      6E756D62 
 7486      657200
 7487              	.LASF8:
 7488 0022 756E7369 		.ascii	"unsigned int\000"
 7488      676E6564 
 7488      20696E74 
ARM GAS  C:\Users\Diego\AppData\Local\Temp\ccz6pbcU.s 			page 154


 7488      00
 7489              	.LASF54:
 7490 002f 73616C65 		.ascii	"sale_number\000"
 7490      5F6E756D 
 7490      62657200 
 7491              	.LASF9:
 7492 003b 5F5F696E 		.ascii	"__int32_t\000"
 7492      7433325F 
 7492      7400
 7493              	.LASF68:
 7494 0045 44656356 		.ascii	"DecVol\000"
 7494      6F6C00
 7495              	.LASF123:
 7496 004c 474E5520 		.ascii	"GNU C11 5.4.1 20160609 (release) [ARM/embedded-5-br"
 7496      43313120 
 7496      352E342E 
 7496      31203230 
 7496      31363036 
 7497 007f 616E6368 		.ascii	"anch revision 237715] -mcpu=cortex-m3 -mthumb -g -O"
 7497      20726576 
 7497      6973696F 
 7497      6E203233 
 7497      37373135 
 7498 00b2 30202D66 		.ascii	"0 -ffunction-sections -ffat-lto-objects\000"
 7498      66756E63 
 7498      74696F6E 
 7498      2D736563 
 7498      74696F6E 
 7499              	.LASF60:
 7500 00da 73696465 		.ascii	"side\000"
 7500      00
 7501              	.LASF80:
 7502 00df 6D736E5F 		.ascii	"msn_footer2\000"
 7502      666F6F74 
 7502      65723200 
 7503              	.LASF81:
 7504 00eb 6D736E5F 		.ascii	"msn_footer3\000"
 7504      666F6F74 
 7504      65723300 
 7505              	.LASF82:
 7506 00f7 6D736E5F 		.ascii	"msn_footer4\000"
 7506      666F6F74 
 7506      65723400 
 7507              	.LASF31:
 7508 0103 50726F63 		.ascii	"ProcessedvolumeSale\000"
 7508      65737365 
 7508      64766F6C 
 7508      756D6553 
 7508      616C6500 
 7509              	.LASF91:
 7510 0117 6D736E5F 		.ascii	"msn_pos\000"
 7510      706F7300 
 7511              	.LASF42:
 7512 011f 5072696E 		.ascii	"PrintShift\000"
 7512      74536869 
 7512      667400
 7513              	.LASF122:
ARM GAS  C:\Users\Diego\AppData\Local\Temp\ccz6pbcU.s 			page 155


 7514 012a 41534B5F 		.ascii	"ASK_TIME\000"
 7514      54494D45 
 7514      00
 7515              	.LASF32:
 7516 0133 50726F63 		.ascii	"ProcessedPPU\000"
 7516      65737365 
 7516      64505055 
 7516      00
 7517              	.LASF53:
 7518 0140 52656365 		.ascii	"Receipt\000"
 7518      69707400 
 7519              	.LASF114:
 7520 0148 50524E5F 		.ascii	"PRN_PRESET\000"
 7520      50524553 
 7520      455400
 7521              	.LASF110:
 7522 0153 50524E5F 		.ascii	"PRN_VOLUMEMONTH\000"
 7522      564F4C55 
 7522      4D454D4F 
 7522      4E544800 
 7523              	.LASF15:
 7524 0163 666C6F61 		.ascii	"float\000"
 7524      7400
 7525              	.LASF119:
 7526 0169 6D736E5F 		.ascii	"msn_lecaan\000"
 7526      6C656361 
 7526      616E00
 7527              	.LASF93:
 7528 0174 6D736E5F 		.ascii	"msn_ppu\000"
 7528      70707500 
 7529              	.LASF88:
 7530 017c 6D736E5F 		.ascii	"msn_placa\000"
 7530      706C6163 
 7530      6100
 7531              	.LASF109:
 7532 0186 50524E5F 		.ascii	"PRN_VOLUMEWEEK\000"
 7532      564F4C55 
 7532      4D455745 
 7532      454B00
 7533              	.LASF7:
 7534 0195 6C6F6E67 		.ascii	"long long unsigned int\000"
 7534      206C6F6E 
 7534      6720756E 
 7534      7369676E 
 7534      65642069 
 7535              	.LASF73:
 7536 01ac 6D736E5F 		.ascii	"msn_EDS\000"
 7536      45445300 
 7537              	.LASF87:
 7538 01b4 6D736E5F 		.ascii	"msn_hora\000"
 7538      686F7261 
 7538      00
 7539              	.LASF90:
 7540 01bd 50524E5F 		.ascii	"PRN_TRANSTYPE\000"
 7540      5452414E 
 7540      53545950 
 7540      4500
ARM GAS  C:\Users\Diego\AppData\Local\Temp\ccz6pbcU.s 			page 156


 7541              	.LASF83:
 7542 01cb 6D736E5F 		.ascii	"msn_copy\000"
 7542      636F7079 
 7542      00
 7543              	.LASF67:
 7544 01d4 546F7461 		.ascii	"TotalRequestType\000"
 7544      6C526571 
 7544      75657374 
 7544      54797065 
 7544      00
 7545              	.LASF40:
 7546 01e5 4C434452 		.ascii	"LCDRx\000"
 7546      7800
 7547              	.LASF113:
 7548 01eb 50524E5F 		.ascii	"PRN_MONEYMONTH\000"
 7548      4D4F4E45 
 7548      594D4F4E 
 7548      544800
 7549              	.LASF102:
 7550 01fa 50524E5F 		.ascii	"PRN_ACCOUNT\000"
 7550      4143434F 
 7550      554E5400 
 7551              	.LASF108:
 7552 0206 50524E5F 		.ascii	"PRN_VOLUMEDAY\000"
 7552      564F4C55 
 7552      4D454441 
 7552      5900
 7553              	.LASF33:
 7554 0214 6D736E5F 		.ascii	"msn_plate\000"
 7554      706C6174 
 7554      6500
 7555              	.LASF125:
 7556 021e 433A5C55 		.ascii	"C:\\Users\\Diego\\Documents\\GitHub\\Mepsan\\Mepsan"
 7556      73657273 
 7556      5C446965 
 7556      676F5C44 
 7556      6F63756D 
 7557 024b 2E637964 		.ascii	".cydsn\000"
 7557      736E00
 7558              	.LASF58:
 7559 0252 696E745F 		.ascii	"int_shiftnumber\000"
 7559      73686966 
 7559      746E756D 
 7559      62657200 
 7560              	.LASF59:
 7561 0262 4C434468 		.ascii	"LCDhose\000"
 7561      6F736500 
 7562              	.LASF98:
 7563 026a 6D736E5F 		.ascii	"msn_venta\000"
 7563      76656E74 
 7563      6100
 7564              	.LASF89:
 7565 0274 50524E5F 		.ascii	"PRN_MILLEAGE\000"
 7565      4D494C4C 
 7565      45414745 
 7565      00
 7566              	.LASF99:
ARM GAS  C:\Users\Diego\AppData\Local\Temp\ccz6pbcU.s 			page 157


 7567 0281 6D736E5F 		.ascii	"msn_numero\000"
 7567      6E756D65 
 7567      726F00
 7568              	.LASF30:
 7569 028c 50726F63 		.ascii	"ProcessedmoneySale\000"
 7569      65737365 
 7569      646D6F6E 
 7569      65795361 
 7569      6C6500
 7570              	.LASF97:
 7571 029f 6D736E5F 		.ascii	"msn_cierre\000"
 7571      63696572 
 7571      726500
 7572              	.LASF121:
 7573 02aa 53455041 		.ascii	"SEPARATOR\000"
 7573      5241544F 
 7573      5200
 7574              	.LASF27:
 7575 02b4 73746174 		.ascii	"states\000"
 7575      657300
 7576              	.LASF18:
 7577 02bb 63686172 		.ascii	"char\000"
 7577      00
 7578              	.LASF55:
 7579 02c0 73616C65 		.ascii	"sale_number_copy\000"
 7579      5F6E756D 
 7579      6265725F 
 7579      636F7079 
 7579      00
 7580              	.LASF105:
 7581 02d1 50524E5F 		.ascii	"PRN_VISITSDAY\000"
 7581      56495349 
 7581      54534441 
 7581      5900
 7582              	.LASF12:
 7583 02df 75696E74 		.ascii	"uint16\000"
 7583      313600
 7584              	.LASF14:
 7585 02e6 696E7438 		.ascii	"int8\000"
 7585      00
 7586              	.LASF95:
 7587 02eb 6D736E5F 		.ascii	"msn_voltot\000"
 7587      766F6C74 
 7587      6F7400
 7588              	.LASF17:
 7589 02f6 63686172 		.ascii	"char8\000"
 7589      3800
 7590              	.LASF66:
 7591 02fc 506F7369 		.ascii	"Positions\000"
 7591      74696F6E 
 7591      7300
 7592              	.LASF85:
 7593 0306 6D736E5F 		.ascii	"msn_gasoline\000"
 7593      6761736F 
 7593      6C696E65 
 7593      00
 7594              	.LASF23:
ARM GAS  C:\Users\Diego\AppData\Local\Temp\ccz6pbcU.s 			page 158


 7595 0313 6D6F6E65 		.ascii	"moneySale\000"
 7595      7953616C 
 7595      6500
 7596              	.LASF6:
 7597 031d 6C6F6E67 		.ascii	"long long int\000"
 7597      206C6F6E 
 7597      6720696E 
 7597      7400
 7598              	.LASF25:
 7599 032b 70707553 		.ascii	"ppuSale\000"
 7599      616C6500 
 7600              	.LASF51:
 7601 0333 506F6C6C 		.ascii	"PollCounter\000"
 7601      436F756E 
 7601      74657200 
 7602              	.LASF22:
 7603 033f 7070754E 		.ascii	"ppuNozzle\000"
 7603      6F7A7A6C 
 7603      6500
 7604              	.LASF44:
 7605 0349 6C656374 		.ascii	"lectactual\000"
 7605      61637475 
 7605      616C00
 7606              	.LASF94:
 7607 0354 6D736E5F 		.ascii	"msn_vol\000"
 7607      766F6C00 
 7608              	.LASF47:
 7609 035c 61637475 		.ascii	"actual\000"
 7609      616C00
 7610              	.LASF13:
 7611 0363 75696E74 		.ascii	"uint32\000"
 7611      333200
 7612              	.LASF62:
 7613 036a 4D657073 		.ascii	"MepsanSendTo\000"
 7613      616E5365 
 7613      6E64546F 
 7613      00
 7614              	.LASF84:
 7615 0377 6D736E5F 		.ascii	"msn_diesel\000"
 7615      64696573 
 7615      656C00
 7616              	.LASF28:
 7617 0382 4D657073 		.ascii	"MepsanStore\000"
 7617      616E5374 
 7617      6F726500 
 7618              	.LASF52:
 7619 038e 43757272 		.ascii	"CurrentState\000"
 7619      656E7453 
 7619      74617465 
 7619      00
 7620              	.LASF118:
 7621 039b 6D736E5F 		.ascii	"msn_lecact\000"
 7621      6C656361 
 7621      637400
 7622              	.LASF19:
 7623 03a6 6C6F6E67 		.ascii	"long double\000"
 7623      20646F75 
ARM GAS  C:\Users\Diego\AppData\Local\Temp\ccz6pbcU.s 			page 159


 7623      626C6500 
 7624              	.LASF104:
 7625 03b2 50524E5F 		.ascii	"PRN_ACCOUNTTYPE\000"
 7625      4143434F 
 7625      554E5454 
 7625      59504500 
 7626              	.LASF106:
 7627 03c2 50524E5F 		.ascii	"PRN_VISITSWEEK\000"
 7627      56495349 
 7627      54535745 
 7627      454B00
 7628              	.LASF2:
 7629 03d1 73686F72 		.ascii	"short int\000"
 7629      7420696E 
 7629      7400
 7630              	.LASF65:
 7631 03db 6372635F 		.ascii	"crc_hi\000"
 7631      686900
 7632              	.LASF4:
 7633 03e2 6C6F6E67 		.ascii	"long int\000"
 7633      20696E74 
 7633      00
 7634              	.LASF50:
 7635 03eb 49544D5F 		.ascii	"ITM_RxBuffer\000"
 7635      52784275 
 7635      66666572 
 7635      00
 7636              	.LASF29:
 7637 03f8 50726F63 		.ascii	"ProcessedTotals\000"
 7637      65737365 
 7637      64546F74 
 7637      616C7300 
 7638              	.LASF49:
 7639 0408 72657374 		.ascii	"resta\000"
 7639      6100
 7640              	.LASF45:
 7641 040e 6D656D6F 		.ascii	"memoria\000"
 7641      72696100 
 7642              	.LASF69:
 7643 0416 746F7563 		.ascii	"touch1\000"
 7643      683100
 7644              	.LASF36:
 7645 041d 436F7079 		.ascii	"Copy\000"
 7645      00
 7646              	.LASF43:
 7647 0422 6C656374 		.ascii	"lectanterior\000"
 7647      616E7465 
 7647      72696F72 
 7647      00
 7648              	.LASF111:
 7649 042f 50524E5F 		.ascii	"PRN_MONEYDAY\000"
 7649      4D4F4E45 
 7649      59444159 
 7649      00
 7650              	.LASF64:
 7651 043c 6372635F 		.ascii	"crc_lo\000"
 7651      6C6F00
ARM GAS  C:\Users\Diego\AppData\Local\Temp\ccz6pbcU.s 			page 160


 7652              	.LASF21:
 7653 0443 746F7461 		.ascii	"totalsNozzle\000"
 7653      6C734E6F 
 7653      7A7A6C65 
 7653      00
 7654              	.LASF61:
 7655 0450 4D657073 		.ascii	"MepsanResponse\000"
 7655      616E5265 
 7655      73706F6E 
 7655      736500
 7656              	.LASF92:
 7657 045f 6D736E5F 		.ascii	"msn_product\000"
 7657      70726F64 
 7657      75637400 
 7658              	.LASF20:
 7659 046b 73697A65 		.ascii	"sizetype\000"
 7659      74797065 
 7659      00
 7660              	.LASF5:
 7661 0474 6C6F6E67 		.ascii	"long unsigned int\000"
 7661      20756E73 
 7661      69676E65 
 7661      6420696E 
 7661      7400
 7662              	.LASF126:
 7663 0486 61646472 		.ascii	"address\000"
 7663      65737300 
 7664              	.LASF10:
 7665 048e 696E7433 		.ascii	"int32_t\000"
 7665      325F7400 
 7666              	.LASF86:
 7667 0496 6D736E5F 		.ascii	"msn_fecha\000"
 7667      66656368 
 7667      6100
 7668              	.LASF41:
 7669 04a0 5072696E 		.ascii	"PrintReceipt\000"
 7669      74526563 
 7669      65697074 
 7669      00
 7670              	.LASF39:
 7671 04ad 73637265 		.ascii	"screen_size\000"
 7671      656E5F73 
 7671      697A6500 
 7672              	.LASF107:
 7673 04b9 50524E5F 		.ascii	"PRN_VISITSMONTH\000"
 7673      56495349 
 7673      54534D4F 
 7673      4E544800 
 7674              	.LASF1:
 7675 04c9 756E7369 		.ascii	"unsigned char\000"
 7675      676E6564 
 7675      20636861 
 7675      7200
 7676              	.LASF79:
 7677 04d7 6D736E5F 		.ascii	"msn_footer\000"
 7677      666F6F74 
 7677      657200
ARM GAS  C:\Users\Diego\AppData\Local\Temp\ccz6pbcU.s 			page 161


 7678              	.LASF57:
 7679 04e2 73686966 		.ascii	"shift_number\000"
 7679      745F6E75 
 7679      6D626572 
 7679      00
 7680              	.LASF71:
 7681 04ef 4C494E45 		.ascii	"LINE_FEED\000"
 7681      5F464545 
 7681      4400
 7682              	.LASF101:
 7683 04f9 50524E5F 		.ascii	"PRN_COMPANY\000"
 7683      434F4D50 
 7683      414E5900 
 7684              	.LASF46:
 7685 0505 72657375 		.ascii	"resultado\000"
 7685      6C746164 
 7685      6F00
 7686              	.LASF34:
 7687 050f 4D657052 		.ascii	"MepRequest\000"
 7687      65717565 
 7687      737400
 7688              	.LASF38:
 7689 051a 70756D70 		.ascii	"pump\000"
 7689      00
 7690              	.LASF100:
 7691 051f 50524E5F 		.ascii	"PRN_BALANCE\000"
 7691      42414C41 
 7691      4E434500 
 7692              	.LASF124:
 7693 052b 7072696E 		.ascii	"printer.c\000"
 7693      7465722E 
 7693      6300
 7694              	.LASF48:
 7695 0535 616E7465 		.ascii	"anterior\000"
 7695      72696F72 
 7695      00
 7696              	.LASF24:
 7697 053e 766F6C75 		.ascii	"volumeSale\000"
 7697      6D655361 
 7697      6C6500
 7698              	.LASF116:
 7699 0549 50524E5F 		.ascii	"PRN_ID\000"
 7699      494400
 7700              	.LASF0:
 7701 0550 7369676E 		.ascii	"signed char\000"
 7701      65642063 
 7701      68617200 
 7702              	.LASF3:
 7703 055c 73686F72 		.ascii	"short unsigned int\000"
 7703      7420756E 
 7703      7369676E 
 7703      65642069 
 7703      6E7400
 7704              	.LASF115:
 7705 056f 50524E5F 		.ascii	"PRN_SIGNATURE\000"
 7705      5349474E 
 7705      41545552 
ARM GAS  C:\Users\Diego\AppData\Local\Temp\ccz6pbcU.s 			page 162


 7705      4500
 7706              	.LASF112:
 7707 057d 50524E5F 		.ascii	"PRN_MONEYWEEK\000"
 7707      4D4F4E45 
 7707      59574545 
 7707      4B00
 7708              	.LASF26:
 7709 058b 70726F64 		.ascii	"productSale\000"
 7709      75637453 
 7709      616C6500 
 7710              	.LASF74:
 7711 0597 6D736E5F 		.ascii	"msn_EDS2\000"
 7711      45445332 
 7711      00
 7712              	.LASF75:
 7713 05a0 6D736E5F 		.ascii	"msn_EDS3\000"
 7713      45445333 
 7713      00
 7714              	.LASF76:
 7715 05a9 6D736E5F 		.ascii	"msn_EDS4\000"
 7715      45445334 
 7715      00
 7716              	.LASF77:
 7717 05b2 6D736E5F 		.ascii	"msn_EDS5\000"
 7717      45445335 
 7717      00
 7718              	.LASF78:
 7719 05bb 6D736E5F 		.ascii	"msn_EDS6\000"
 7719      45445336 
 7719      00
 7720              	.LASF11:
 7721 05c4 75696E74 		.ascii	"uint8\000"
 7721      3800
 7722              	.LASF16:
 7723 05ca 646F7562 		.ascii	"double\000"
 7723      6C6500
 7724              	.LASF103:
 7725 05d1 50524E5F 		.ascii	"PRN_SERIAL\000"
 7725      53455249 
 7725      414C00
 7726              	.LASF70:
 7727 05dc 64697247 		.ascii	"dirGbr\000"
 7727      627200
 7728              	.LASF117:
 7729 05e3 50524E5F 		.ascii	"PRN_CURRENCY\000"
 7729      43555252 
 7729      454E4359 
 7729      00
 7730              	.LASF72:
 7731 05f0 566F6C53 		.ascii	"VolSimbol\000"
 7731      696D626F 
 7731      6C00
 7732              	.LASF37:
 7733 05fa 706F7369 		.ascii	"position\000"
 7733      74696F6E 
 7733      00
 7734              	.LASF120:
ARM GAS  C:\Users\Diego\AppData\Local\Temp\ccz6pbcU.s 			page 163


 7735 0603 6D736E5F 		.ascii	"msn_dif\000"
 7735      64696600 
 7736              	.LASF96:
 7737 060b 6D736E5F 		.ascii	"msn_din\000"
 7737      64696E00 
 7738              		.ident	"GCC: (GNU Tools for ARM Embedded Processors) 5.4.1 20160609 (release) [ARM/embedded-5-bran
