ARM GAS  C:\Users\THERMA~1\AppData\Local\Temp\cc965AVb.s 			page 1


   1              		.syntax unified
   2              		.cpu cortex-m3
   3              		.fpu softvfp
   4              		.eabi_attribute 20, 1
   5              		.eabi_attribute 21, 1
   6              		.eabi_attribute 23, 3
   7              		.eabi_attribute 24, 1
   8              		.eabi_attribute 25, 1
   9              		.eabi_attribute 26, 1
  10              		.eabi_attribute 30, 6
  11              		.eabi_attribute 34, 1
  12              		.eabi_attribute 18, 4
  13              		.thumb
  14              		.syntax unified
  15              		.file	"printer.c"
  16              		.text
  17              	.Ltext0:
  18              		.cfi_sections	.debug_frame
  19              		.comm	PollCounter,2,2
  20              		.comm	CurrentState,1,1
  21              		.comm	Receipt,1,1
  22              		.comm	sale_number,6,4
  23              		.comm	int_salenumber,1,1
  24              		.comm	shift_number,6,4
  25              		.comm	int_shiftnumber,1,1
  26              		.comm	LCDhose,1,1
  27              		.comm	side,1204,4
  28              		.comm	MepsanResponse,50,4
  29              		.comm	MepsanSendTo,50,4
  30              		.comm	PumpAddress,15,4
  31              		.comm	CRC,2,2
  32              		.comm	crc_lo,1,1
  33              		.comm	crc_hi,1,1
  34              		.comm	Positions,1,1
  35              		.comm	TotalRequestType,1,1
  36              		.comm	DecVol,1,1
  37              		.comm	touch1,20,4
  38              		.comm	dirGbr,1,1
  39              		.global	LINE_FEED
  40              		.data
  41              		.type	LINE_FEED, %object
  42              		.size	LINE_FEED, 1
  43              	LINE_FEED:
  44 0000 0A       		.byte	10
  45              		.global	VolSimbol
  46 0001 000000   		.align	2
  47              		.type	VolSimbol, %object
  48              		.size	VolSimbol, 1
  49              	VolSimbol:
  50 0004 47       		.ascii	"G"
  51              		.global	msn_EDS
  52 0005 000000   		.align	2
  53              		.type	msn_EDS, %object
  54              		.size	msn_EDS, 22
  55              	msn_EDS:
  56 0008 20202045 		.ascii	"   EDS LA PROVINCIA   "
  56      4453204C 
ARM GAS  C:\Users\THERMA~1\AppData\Local\Temp\cc965AVb.s 			page 2


  56      41205052 
  56      4F56494E 
  56      43494120 
  57              		.global	msn_EDS2
  58 001e 0000     		.align	2
  59              		.type	msn_EDS2, %object
  60              		.size	msn_EDS2, 22
  61              	msn_EDS2:
  62 0020 20202020 		.ascii	"    OMAR MALAGON      "
  62      4F4D4152 
  62      204D414C 
  62      41474F4E 
  62      20202020 
  63              		.global	msn_EDS3
  64 0036 0000     		.align	2
  65              		.type	msn_EDS3, %object
  66              		.size	msn_EDS3, 22
  67              	msn_EDS3:
  68 0038 20202054 		.ascii	"   Tel: 3202361131    "
  68      656C3A20 
  68      33323032 
  68      33363131 
  68      33312020 
  69              		.global	msn_EDS4
  70 004e 0000     		.align	2
  71              		.type	msn_EDS4, %object
  72              		.size	msn_EDS4, 22
  73              	msn_EDS4:
  74 0050 20202020 		.ascii	"    NIT: 4172693-6    "
  74      4E49543A 
  74      20343137 
  74      32363933 
  74      2D362020 
  75              		.global	msn_EDS5
  76 0066 0000     		.align	2
  77              		.type	msn_EDS5, %object
  78              		.size	msn_EDS5, 22
  79              	msn_EDS5:
  80 0068 20202020 		.ascii	"       Km 2 via       "
  80      2020204B 
  80      6D203220 
  80      76696120 
  80      20202020 
  81              		.global	msn_EDS6
  82 007e 0000     		.align	2
  83              		.type	msn_EDS6, %object
  84              		.size	msn_EDS6, 22
  85              	msn_EDS6:
  86 0080 2054696E 		.ascii	" Tinjaca - Sutamarchan"
  86      6A616361 
  86      202D2053 
  86      7574616D 
  86      61726368 
  87              		.global	msn_EDS7
  88 0096 0000     		.align	2
  89              		.type	msn_EDS7, %object
  90              		.size	msn_EDS7, 22
ARM GAS  C:\Users\THERMA~1\AppData\Local\Temp\cc965AVb.s 			page 3


  91              	msn_EDS7:
  92 0098 20202054 		.ascii	"   TINJACA - BOYACA   "
  92      494E4A41 
  92      4341202D 
  92      20424F59 
  92      41434120 
  93              		.global	msn_footer
  94 00ae 0000     		.align	2
  95              		.type	msn_footer, %object
  96              		.size	msn_footer, 22
  97              	msn_footer:
  98 00b0 47524143 		.ascii	"GRACIAS POR SU COMPRA "
  98      49415320 
  98      504F5220 
  98      53552043 
  98      4F4D5052 
  99              		.global	msn_footer2
 100 00c6 0000     		.align	2
 101              		.type	msn_footer2, %object
 102              		.size	msn_footer2, 22
 103              	msn_footer2:
 104 00c8 20202020 		.ascii	"    VUELVA PRONTO     "
 104      5655454C 
 104      56412050 
 104      524F4E54 
 104      4F202020 
 105              		.global	msn_diesel
 106 00de 0000     		.align	2
 107              		.type	msn_diesel, %object
 108              		.size	msn_diesel, 9
 109              	msn_diesel:
 110 00e0 44696573 		.ascii	"Diesel   "
 110      656C2020 
 110      20
 111              		.global	msn_gasoline
 112 00e9 000000   		.align	2
 113              		.type	msn_gasoline, %object
 114              		.size	msn_gasoline, 9
 115              	msn_gasoline:
 116 00ec 436F7272 		.ascii	"Corriente"
 116      69656E74 
 116      65
 117              		.global	msn_fecha
 118 00f5 000000   		.align	2
 119              		.type	msn_fecha, %object
 120              		.size	msn_fecha, 13
 121              	msn_fecha:
 122 00f8 46656368 		.ascii	"Fecha      : "
 122      61202020 
 122      2020203A 
 122      20
 123              		.global	msn_hora
 124 0105 000000   		.align	2
 125              		.type	msn_hora, %object
 126              		.size	msn_hora, 13
 127              	msn_hora:
 128 0108 486F7261 		.ascii	"Hora       : "
ARM GAS  C:\Users\THERMA~1\AppData\Local\Temp\cc965AVb.s 			page 4


 128      20202020 
 128      2020203A 
 128      20
 129              		.global	msn_placa
 130 0115 000000   		.align	2
 131              		.type	msn_placa, %object
 132              		.size	msn_placa, 13
 133              	msn_placa:
 134 0118 506C6163 		.ascii	"Placa      : "
 134      61202020 
 134      2020203A 
 134      20
 135              		.global	PRN_MILLEAGE
 136 0125 000000   		.align	2
 137              		.type	PRN_MILLEAGE, %object
 138              		.size	PRN_MILLEAGE, 13
 139              	PRN_MILLEAGE:
 140 0128 4B696C6F 		.ascii	"Kilometraje: "
 140      6D657472 
 140      616A653A 
 140      20
 141              		.global	PRN_TRANSTYPE
 142 0135 000000   		.align	2
 143              		.type	PRN_TRANSTYPE, %object
 144              		.size	PRN_TRANSTYPE, 13
 145              	PRN_TRANSTYPE:
 146 0138 5469706F 		.ascii	"Tipo       : "
 146      20202020 
 146      2020203A 
 146      20
 147              		.global	msn_pos
 148 0145 000000   		.align	2
 149              		.type	msn_pos, %object
 150              		.size	msn_pos, 13
 151              	msn_pos:
 152 0148 506F7369 		.ascii	"Posicion   : "
 152      63696F6E 
 152      2020203A 
 152      20
 153              		.global	msn_product
 154 0155 000000   		.align	2
 155              		.type	msn_product, %object
 156              		.size	msn_product, 13
 157              	msn_product:
 158 0158 50726F64 		.ascii	"Producto   : "
 158      7563746F 
 158      2020203A 
 158      20
 159              		.global	msn_ppu
 160 0165 000000   		.align	2
 161              		.type	msn_ppu, %object
 162              		.size	msn_ppu, 13
 163              	msn_ppu:
 164 0168 50707520 		.ascii	"Ppu        : "
 164      20202020 
 164      2020203A 
 164      20
ARM GAS  C:\Users\THERMA~1\AppData\Local\Temp\cc965AVb.s 			page 5


 165              		.global	msn_vol
 166 0175 000000   		.align	2
 167              		.type	msn_vol, %object
 168              		.size	msn_vol, 13
 169              	msn_vol:
 170 0178 566F6C75 		.ascii	"Volumen    : "
 170      6D656E20 
 170      2020203A 
 170      20
 171              		.global	msn_voltot
 172 0185 000000   		.align	2
 173              		.type	msn_voltot, %object
 174              		.size	msn_voltot, 13
 175              	msn_voltot:
 176 0188 546F742E 		.ascii	"Tot.Vol    : "
 176      566F6C20 
 176      2020203A 
 176      20
 177              		.global	msn_din
 178 0195 000000   		.align	2
 179              		.type	msn_din, %object
 180              		.size	msn_din, 13
 181              	msn_din:
 182 0198 44696E65 		.ascii	"Dinero     : "
 182      726F2020 
 182      2020203A 
 182      20
 183              		.global	msn_cierre
 184 01a5 000000   		.align	2
 185              		.type	msn_cierre, %object
 186              		.size	msn_cierre, 13
 187              	msn_cierre:
 188 01a8 43696572 		.ascii	"Cierre No  : "
 188      7265204E 
 188      6F20203A 
 188      20
 189              		.global	msn_venta
 190 01b5 000000   		.align	2
 191              		.type	msn_venta, %object
 192              		.size	msn_venta, 13
 193              	msn_venta:
 194 01b8 56656E74 		.ascii	"Venta No   : "
 194      61204E6F 
 194      2020203A 
 194      20
 195              		.global	msn_numero
 196 01c5 000000   		.align	2
 197              		.type	msn_numero, %object
 198              		.size	msn_numero, 13
 199              	msn_numero:
 200 01c8 436F6E73 		.ascii	"Consecutivo: "
 200      65637574 
 200      69766F3A 
 200      20
 201              		.global	PRN_BALANCE
 202 01d5 000000   		.align	2
 203              		.type	PRN_BALANCE, %object
ARM GAS  C:\Users\THERMA~1\AppData\Local\Temp\cc965AVb.s 			page 6


 204              		.size	PRN_BALANCE, 13
 205              	PRN_BALANCE:
 206 01d8 53616C64 		.ascii	"Saldo      : "
 206      6F202020 
 206      2020203A 
 206      20
 207              		.global	PRN_COMPANY
 208 01e5 000000   		.align	2
 209              		.type	PRN_COMPANY, %object
 210              		.size	PRN_COMPANY, 13
 211              	PRN_COMPANY:
 212 01e8 456D7072 		.ascii	"Empresa    : "
 212      65736120 
 212      2020203A 
 212      20
 213              		.global	PRN_ACCOUNT
 214 01f5 000000   		.align	2
 215              		.type	PRN_ACCOUNT, %object
 216              		.size	PRN_ACCOUNT, 13
 217              	PRN_ACCOUNT:
 218 01f8 4375656E 		.ascii	"Cuenta     : "
 218      74612020 
 218      2020203A 
 218      20
 219              		.global	PRN_SERIAL
 220 0205 000000   		.align	2
 221              		.type	PRN_SERIAL, %object
 222              		.size	PRN_SERIAL, 13
 223              	PRN_SERIAL:
 224 0208 53657269 		.ascii	"Serial     : "
 224      616C2020 
 224      2020203A 
 224      20
 225              		.global	PRN_ACCOUNTTYPE
 226 0215 000000   		.align	2
 227              		.type	PRN_ACCOUNTTYPE, %object
 228              		.size	PRN_ACCOUNTTYPE, 13
 229              	PRN_ACCOUNTTYPE:
 230 0218 5469706F 		.ascii	"Tipo Cuenta: "
 230      20437565 
 230      6E74613A 
 230      20
 231              		.global	PRN_VISITSDAY
 232 0225 000000   		.align	2
 233              		.type	PRN_VISITSDAY, %object
 234              		.size	PRN_VISITSDAY, 13
 235              	PRN_VISITSDAY:
 236 0228 56697369 		.ascii	"Visitas Dia: "
 236      74617320 
 236      4469613A 
 236      20
 237              		.global	PRN_VISITSWEEK
 238 0235 000000   		.align	2
 239              		.type	PRN_VISITSWEEK, %object
 240              		.size	PRN_VISITSWEEK, 13
 241              	PRN_VISITSWEEK:
 242 0238 56697369 		.ascii	"Visitas Sem: "
ARM GAS  C:\Users\THERMA~1\AppData\Local\Temp\cc965AVb.s 			page 7


 242      74617320 
 242      53656D3A 
 242      20
 243              		.global	PRN_VISITSMONTH
 244 0245 000000   		.align	2
 245              		.type	PRN_VISITSMONTH, %object
 246              		.size	PRN_VISITSMONTH, 13
 247              	PRN_VISITSMONTH:
 248 0248 56697369 		.ascii	"Visitas Mes: "
 248      74617320 
 248      4D65733A 
 248      20
 249              		.global	PRN_VOLUMEDAY
 250 0255 000000   		.align	2
 251              		.type	PRN_VOLUMEDAY, %object
 252              		.size	PRN_VOLUMEDAY, 13
 253              	PRN_VOLUMEDAY:
 254 0258 566F6C75 		.ascii	"Volumen Dia: "
 254      6D656E20 
 254      4469613A 
 254      20
 255              		.global	PRN_VOLUMEWEEK
 256 0265 000000   		.align	2
 257              		.type	PRN_VOLUMEWEEK, %object
 258              		.size	PRN_VOLUMEWEEK, 13
 259              	PRN_VOLUMEWEEK:
 260 0268 566F6C75 		.ascii	"Volumen Sem: "
 260      6D656E20 
 260      53656D3A 
 260      20
 261              		.global	PRN_VOLUMEMONTH
 262 0275 000000   		.align	2
 263              		.type	PRN_VOLUMEMONTH, %object
 264              		.size	PRN_VOLUMEMONTH, 13
 265              	PRN_VOLUMEMONTH:
 266 0278 566F6C75 		.ascii	"Volumen Mes: "
 266      6D656E20 
 266      4D65733A 
 266      20
 267              		.global	PRN_MONEYDAY
 268 0285 000000   		.align	2
 269              		.type	PRN_MONEYDAY, %object
 270              		.size	PRN_MONEYDAY, 13
 271              	PRN_MONEYDAY:
 272 0288 44696E65 		.ascii	"Dinero Dia : "
 272      726F2044 
 272      6961203A 
 272      20
 273              		.global	PRN_MONEYWEEK
 274 0295 000000   		.align	2
 275              		.type	PRN_MONEYWEEK, %object
 276              		.size	PRN_MONEYWEEK, 13
 277              	PRN_MONEYWEEK:
 278 0298 44696E65 		.ascii	"Dinero Sem : "
 278      726F2053 
 278      656D203A 
 278      20
ARM GAS  C:\Users\THERMA~1\AppData\Local\Temp\cc965AVb.s 			page 8


 279              		.global	PRN_MONEYMONTH
 280 02a5 000000   		.align	2
 281              		.type	PRN_MONEYMONTH, %object
 282              		.size	PRN_MONEYMONTH, 13
 283              	PRN_MONEYMONTH:
 284 02a8 44696E65 		.ascii	"Dinero Mes : "
 284      726F204D 
 284      6573203A 
 284      20
 285              		.global	PRN_PRESET
 286 02b5 000000   		.align	2
 287              		.type	PRN_PRESET, %object
 288              		.size	PRN_PRESET, 13
 289              	PRN_PRESET:
 290 02b8 56616C6F 		.ascii	"Valor Prog.: "
 290      72205072 
 290      6F672E3A 
 290      20
 291              		.global	PRN_SIGNATURE
 292 02c5 000000   		.align	2
 293              		.type	PRN_SIGNATURE, %object
 294              		.size	PRN_SIGNATURE, 13
 295              	PRN_SIGNATURE:
 296 02c8 4669726D 		.ascii	"Firma      : "
 296      61202020 
 296      2020203A 
 296      20
 297              		.global	PRN_ID
 298 02d5 000000   		.align	2
 299              		.type	PRN_ID, %object
 300              		.size	PRN_ID, 13
 301              	PRN_ID:
 302 02d8 43656475 		.ascii	"Cedula     : "
 302      6C612020 
 302      2020203A 
 302      20
 303              		.global	PRN_CURRENCY
 304 02e5 000000   		.align	2
 305              		.type	PRN_CURRENCY, %object
 306              		.size	PRN_CURRENCY, 1
 307              	PRN_CURRENCY:
 308 02e8 24       		.ascii	"$"
 309              		.global	msn_lecact
 310 02e9 000000   		.align	2
 311              		.type	msn_lecact, %object
 312              		.size	msn_lecact, 16
 313              	msn_lecact:
 314 02ec 566F6C75 		.ascii	"Volumen actual: "
 314      6D656E20 
 314      61637475 
 314      616C3A20 
 315              		.global	msn_lecaan
 316              		.align	2
 317              		.type	msn_lecaan, %object
 318              		.size	msn_lecaan, 16
 319              	msn_lecaan:
 320 02fc 566F6C2E 		.ascii	"Vol. anterior:  "
ARM GAS  C:\Users\THERMA~1\AppData\Local\Temp\cc965AVb.s 			page 9


 320      20616E74 
 320      6572696F 
 320      723A2020 
 321              		.global	msn_dif
 322              		.align	2
 323              		.type	msn_dif, %object
 324              		.size	msn_dif, 18
 325              	msn_dif:
 326 030c 566F6C2E 		.ascii	"Vol. dispensado:  "
 326      20646973 
 326      70656E73 
 326      61646F3A 
 326      2020
 327              		.global	SEPARATOR
 328 031e 0000     		.align	2
 329              		.type	SEPARATOR, %object
 330              		.size	SEPARATOR, 24
 331              	SEPARATOR:
 332 0320 2A2A2A2A 		.ascii	"************************"
 332      2A2A2A2A 
 332      2A2A2A2A 
 332      2A2A2A2A 
 332      2A2A2A2A 
 333              		.global	ASK_TIME
 334              		.align	2
 335              		.type	ASK_TIME, %object
 336              		.size	ASK_TIME, 6
 337              	ASK_TIME:
 338 0338 5A       		.byte	90
 339 0339 A5       		.byte	-91
 340 033a 03       		.byte	3
 341 033b 81       		.byte	-127
 342 033c 20       		.byte	32
 343 033d 07       		.byte	7
 344              		.section	.text.PrintReceipt,"ax",%progbits
 345              		.align	2
 346              		.global	PrintReceipt
 347              		.thumb
 348              		.thumb_func
 349              		.type	PrintReceipt, %function
 350              	PrintReceipt:
 351              	.LFB64:
 352              		.file 1 "printer.c"
   1:printer.c     **** /* ========================================
   2:printer.c     ****  *
   3:printer.c     ****  * Copyright YOUR COMPANY, THE YEAR
   4:printer.c     ****  * All Rights Reserved
   5:printer.c     ****  * UNPUBLISHED, LICENSED SOFTWARE.
   6:printer.c     ****  *
   7:printer.c     ****  * CONFIDENTIAL AND PROPRIETARY INFORMATION
   8:printer.c     ****  * WHICH IS THE PROPERTY OF your company.
   9:printer.c     ****  *
  10:printer.c     ****  * ========================================
  11:printer.c     **** */
  12:printer.c     **** #include <project.h>
  13:printer.c     **** #include <GVar.h>
  14:printer.c     **** #include <stdio.h>
ARM GAS  C:\Users\THERMA~1\AppData\Local\Temp\cc965AVb.s 			page 10


  15:printer.c     **** #include <stdlib.h>
  16:printer.c     **** #include <string.h>
  17:printer.c     **** 
  18:printer.c     **** uint8 LINE_FEED = 0x0A;
  19:printer.c     **** char VolSimbol[1] = "G";
  20:printer.c     **** 
  21:printer.c     **** 
  22:printer.c     **** /***********  Temporal messages ******************/
  23:printer.c     **** uint8 msn_EDS[22]       = "   EDS LA PROVINCIA   ";
  24:printer.c     **** uint8 msn_EDS2[22]      = "    OMAR MALAGON      ";
  25:printer.c     **** uint8 msn_EDS3[22]      = "   Tel: 3202361131    ";
  26:printer.c     **** uint8 msn_EDS4[22]      = "    NIT: 4172693-6    ";
  27:printer.c     **** uint8 msn_EDS5[22]      = "       Km 2 via       ";
  28:printer.c     **** uint8 msn_EDS6[22]      = " Tinjaca - Sutamarchan";
  29:printer.c     **** uint8 msn_EDS7[22]      = "   TINJACA - BOYACA   ";
  30:printer.c     **** uint8 msn_footer[22]    = "GRACIAS POR SU COMPRA ";
  31:printer.c     **** uint8 msn_footer2[22]   = "    VUELVA PRONTO     ";
  32:printer.c     **** uint8 msn_diesel[9]     = "Diesel   ";
  33:printer.c     **** uint8 msn_gasoline[9]   = "Corriente";
  34:printer.c     **** 
  35:printer.c     **** /*********** informative messages ****************/
  36:printer.c     **** 
  37:printer.c     **** uint8 msn_fecha[13]       = "Fecha      : ";
  38:printer.c     **** uint8 msn_hora[13]        = "Hora       : ";
  39:printer.c     **** uint8 msn_placa[13]       = "Placa      : ";
  40:printer.c     **** uint8 PRN_MILLEAGE[13]    = "Kilometraje: ";
  41:printer.c     **** uint8 PRN_TRANSTYPE[13]   = "Tipo       : ";
  42:printer.c     **** uint8 msn_pos[13]         = "Posicion   : ";
  43:printer.c     **** uint8 msn_product[13]     = "Producto   : ";
  44:printer.c     **** uint8 msn_ppu[13]         = "Ppu        : ";
  45:printer.c     **** uint8 msn_vol[13]         = "Volumen    : ";
  46:printer.c     **** uint8 msn_voltot[13]      = "Tot.Vol    : ";
  47:printer.c     **** uint8 msn_din[13]         = "Dinero     : ";
  48:printer.c     **** uint8 msn_cierre[13]      = "Cierre No  : ";
  49:printer.c     **** uint8 msn_venta[13]       = "Venta No   : ";
  50:printer.c     **** uint8 msn_numero[13]      = "Consecutivo: ";
  51:printer.c     **** uint8 PRN_BALANCE[13]     = "Saldo      : ";
  52:printer.c     **** uint8 PRN_COMPANY[13]     = "Empresa    : ";
  53:printer.c     **** uint8 PRN_ACCOUNT[13]     = "Cuenta     : ";
  54:printer.c     **** uint8 PRN_SERIAL[13]      = "Serial     : ";
  55:printer.c     **** uint8 PRN_ACCOUNTTYPE[13] = "Tipo Cuenta: ";
  56:printer.c     **** uint8 PRN_VISITSDAY[13]   = "Visitas Dia: ";
  57:printer.c     **** uint8 PRN_VISITSWEEK[13]  = "Visitas Sem: ";
  58:printer.c     **** uint8 PRN_VISITSMONTH[13] = "Visitas Mes: ";
  59:printer.c     **** uint8 PRN_VOLUMEDAY[13]   = "Volumen Dia: ";
  60:printer.c     **** uint8 PRN_VOLUMEWEEK[13]  = "Volumen Sem: ";
  61:printer.c     **** uint8 PRN_VOLUMEMONTH[13] = "Volumen Mes: ";
  62:printer.c     **** uint8 PRN_MONEYDAY[13]    = "Dinero Dia : ";
  63:printer.c     **** uint8 PRN_MONEYWEEK[13]   = "Dinero Sem : ";
  64:printer.c     **** uint8 PRN_MONEYMONTH[13]  = "Dinero Mes : ";
  65:printer.c     **** uint8 PRN_PRESET[13]      = "Valor Prog.: ";
  66:printer.c     **** uint8 PRN_SIGNATURE[13]   = "Firma      : ";
  67:printer.c     **** uint8 PRN_ID[13]          = "Cedula     : ";
  68:printer.c     **** uint8 PRN_CURRENCY[1]     = "$";
  69:printer.c     **** uint8 msn_lecact[16]      ="Volumen actual: ";
  70:printer.c     **** uint8 msn_lecaan[16]      ="Vol. anterior:  ";
  71:printer.c     **** uint8 msn_dif[18]         ="Vol. dispensado:  ";
ARM GAS  C:\Users\THERMA~1\AppData\Local\Temp\cc965AVb.s 			page 11


  72:printer.c     **** uint8 SEPARATOR[24]       = "************************";
  73:printer.c     **** uint8 ASK_TIME[]={0x5A, 0xA5, 0x03, 0x81, 0x20, 0x07};
  74:printer.c     **** 
  75:printer.c     **** 
  76:printer.c     **** 
  77:printer.c     **** void PrintReceipt(uint8 address){
 353              		.loc 1 77 0
 354              		.cfi_startproc
 355              		@ args = 0, pretend = 0, frame = 72
 356              		@ frame_needed = 1, uses_anonymous_args = 0
 357 0000 90B5     		push	{r4, r7, lr}
 358              		.cfi_def_cfa_offset 12
 359              		.cfi_offset 4, -12
 360              		.cfi_offset 7, -8
 361              		.cfi_offset 14, -4
 362 0002 93B0     		sub	sp, sp, #76
 363              		.cfi_def_cfa_offset 88
 364 0004 00AF     		add	r7, sp, #0
 365              		.cfi_def_cfa_register 7
 366 0006 0346     		mov	r3, r0
 367 0008 FB71     		strb	r3, [r7, #7]
  78:printer.c     ****     int8 screen_size;
  79:printer.c     ****     int_salenumber++;
 368              		.loc 1 79 0
 369 000a CC4B     		ldr	r3, .L139
 370 000c 1B78     		ldrb	r3, [r3]	@ zero_extendqisi2
 371 000e 0133     		adds	r3, r3, #1
 372 0010 DAB2     		uxtb	r2, r3
 373 0012 CA4B     		ldr	r3, .L139
 374 0014 1A70     		strb	r2, [r3]
  80:printer.c     ****     sale_number[5]=(int_salenumber/10000)+48;
 375              		.loc 1 80 0
 376 0016 C94B     		ldr	r3, .L139
 377 0018 1B78     		ldrb	r3, [r3]	@ zero_extendqisi2
 378 001a C94A     		ldr	r2, .L139+4
 379 001c 82FB0312 		smull	r1, r2, r2, r3
 380 0020 1213     		asrs	r2, r2, #12
 381 0022 DB17     		asrs	r3, r3, #31
 382 0024 D31A     		subs	r3, r2, r3
 383 0026 DBB2     		uxtb	r3, r3
 384 0028 3033     		adds	r3, r3, #48
 385 002a DAB2     		uxtb	r2, r3
 386 002c C54B     		ldr	r3, .L139+8
 387 002e 5A71     		strb	r2, [r3, #5]
  81:printer.c     **** 	sale_number[4]=((int_salenumber%10000)/1000)+48;
 388              		.loc 1 81 0
 389 0030 C24B     		ldr	r3, .L139
 390 0032 1B78     		ldrb	r3, [r3]	@ zero_extendqisi2
 391 0034 1A46     		mov	r2, r3
 392 0036 C24B     		ldr	r3, .L139+4
 393 0038 83FB0213 		smull	r1, r3, r3, r2
 394 003c 1913     		asrs	r1, r3, #12
 395 003e D317     		asrs	r3, r2, #31
 396 0040 CB1A     		subs	r3, r1, r3
 397 0042 42F21071 		movw	r1, #10000
 398 0046 01FB03F3 		mul	r3, r1, r3
 399 004a D31A     		subs	r3, r2, r3
ARM GAS  C:\Users\THERMA~1\AppData\Local\Temp\cc965AVb.s 			page 12


 400 004c BE4A     		ldr	r2, .L139+12
 401 004e 82FB0312 		smull	r1, r2, r2, r3
 402 0052 9211     		asrs	r2, r2, #6
 403 0054 DB17     		asrs	r3, r3, #31
 404 0056 D31A     		subs	r3, r2, r3
 405 0058 DBB2     		uxtb	r3, r3
 406 005a 3033     		adds	r3, r3, #48
 407 005c DAB2     		uxtb	r2, r3
 408 005e B94B     		ldr	r3, .L139+8
 409 0060 1A71     		strb	r2, [r3, #4]
  82:printer.c     **** 	sale_number[3]=(((int_salenumber%10000)%1000)/100)+48;
 410              		.loc 1 82 0
 411 0062 B64B     		ldr	r3, .L139
 412 0064 1B78     		ldrb	r3, [r3]	@ zero_extendqisi2
 413 0066 1A46     		mov	r2, r3
 414 0068 B54B     		ldr	r3, .L139+4
 415 006a 83FB0213 		smull	r1, r3, r3, r2
 416 006e 1913     		asrs	r1, r3, #12
 417 0070 D317     		asrs	r3, r2, #31
 418 0072 CB1A     		subs	r3, r1, r3
 419 0074 42F21071 		movw	r1, #10000
 420 0078 01FB03F3 		mul	r3, r1, r3
 421 007c D31A     		subs	r3, r2, r3
 422 007e B24A     		ldr	r2, .L139+12
 423 0080 82FB0312 		smull	r1, r2, r2, r3
 424 0084 9111     		asrs	r1, r2, #6
 425 0086 DA17     		asrs	r2, r3, #31
 426 0088 8A1A     		subs	r2, r1, r2
 427 008a 4FF47A71 		mov	r1, #1000
 428 008e 01FB02F2 		mul	r2, r1, r2
 429 0092 9A1A     		subs	r2, r3, r2
 430 0094 AD4B     		ldr	r3, .L139+16
 431 0096 83FB0213 		smull	r1, r3, r3, r2
 432 009a 5911     		asrs	r1, r3, #5
 433 009c D317     		asrs	r3, r2, #31
 434 009e CB1A     		subs	r3, r1, r3
 435 00a0 DBB2     		uxtb	r3, r3
 436 00a2 3033     		adds	r3, r3, #48
 437 00a4 DAB2     		uxtb	r2, r3
 438 00a6 A74B     		ldr	r3, .L139+8
 439 00a8 DA70     		strb	r2, [r3, #3]
  83:printer.c     **** 	sale_number[2]=((((int_salenumber%10000)%1000)%100)/10)+48;	
 440              		.loc 1 83 0
 441 00aa A44B     		ldr	r3, .L139
 442 00ac 1B78     		ldrb	r3, [r3]	@ zero_extendqisi2
 443 00ae A44A     		ldr	r2, .L139+4
 444 00b0 82FB0312 		smull	r1, r2, r2, r3
 445 00b4 1113     		asrs	r1, r2, #12
 446 00b6 DA17     		asrs	r2, r3, #31
 447 00b8 8A1A     		subs	r2, r1, r2
 448 00ba 42F21071 		movw	r1, #10000
 449 00be 01FB02F2 		mul	r2, r1, r2
 450 00c2 9A1A     		subs	r2, r3, r2
 451 00c4 A04B     		ldr	r3, .L139+12
 452 00c6 83FB0213 		smull	r1, r3, r3, r2
 453 00ca 9911     		asrs	r1, r3, #6
 454 00cc D317     		asrs	r3, r2, #31
ARM GAS  C:\Users\THERMA~1\AppData\Local\Temp\cc965AVb.s 			page 13


 455 00ce CB1A     		subs	r3, r1, r3
 456 00d0 4FF47A71 		mov	r1, #1000
 457 00d4 01FB03F3 		mul	r3, r1, r3
 458 00d8 D31A     		subs	r3, r2, r3
 459 00da 9C4A     		ldr	r2, .L139+16
 460 00dc 82FB0312 		smull	r1, r2, r2, r3
 461 00e0 5111     		asrs	r1, r2, #5
 462 00e2 DA17     		asrs	r2, r3, #31
 463 00e4 8A1A     		subs	r2, r1, r2
 464 00e6 6421     		movs	r1, #100
 465 00e8 01FB02F2 		mul	r2, r1, r2
 466 00ec 9A1A     		subs	r2, r3, r2
 467 00ee 984B     		ldr	r3, .L139+20
 468 00f0 83FB0213 		smull	r1, r3, r3, r2
 469 00f4 9910     		asrs	r1, r3, #2
 470 00f6 D317     		asrs	r3, r2, #31
 471 00f8 CB1A     		subs	r3, r1, r3
 472 00fa DBB2     		uxtb	r3, r3
 473 00fc 3033     		adds	r3, r3, #48
 474 00fe DAB2     		uxtb	r2, r3
 475 0100 904B     		ldr	r3, .L139+8
 476 0102 9A70     		strb	r2, [r3, #2]
  84:printer.c     **** 	sale_number[1]=((((int_salenumber%10000)%1000)%100)%10)+48;
 477              		.loc 1 84 0
 478 0104 8D4B     		ldr	r3, .L139
 479 0106 1B78     		ldrb	r3, [r3]	@ zero_extendqisi2
 480 0108 8D4A     		ldr	r2, .L139+4
 481 010a 82FB0312 		smull	r1, r2, r2, r3
 482 010e 1113     		asrs	r1, r2, #12
 483 0110 DA17     		asrs	r2, r3, #31
 484 0112 8A1A     		subs	r2, r1, r2
 485 0114 42F21071 		movw	r1, #10000
 486 0118 01FB02F2 		mul	r2, r1, r2
 487 011c 9A1A     		subs	r2, r3, r2
 488 011e 8A4B     		ldr	r3, .L139+12
 489 0120 83FB0213 		smull	r1, r3, r3, r2
 490 0124 9911     		asrs	r1, r3, #6
 491 0126 D317     		asrs	r3, r2, #31
 492 0128 CB1A     		subs	r3, r1, r3
 493 012a 4FF47A71 		mov	r1, #1000
 494 012e 01FB03F3 		mul	r3, r1, r3
 495 0132 D31A     		subs	r3, r2, r3
 496 0134 854A     		ldr	r2, .L139+16
 497 0136 82FB0312 		smull	r1, r2, r2, r3
 498 013a 5111     		asrs	r1, r2, #5
 499 013c DA17     		asrs	r2, r3, #31
 500 013e 8A1A     		subs	r2, r1, r2
 501 0140 6421     		movs	r1, #100
 502 0142 01FB02F2 		mul	r2, r1, r2
 503 0146 9A1A     		subs	r2, r3, r2
 504 0148 814B     		ldr	r3, .L139+20
 505 014a 83FB0213 		smull	r1, r3, r3, r2
 506 014e 9910     		asrs	r1, r3, #2
 507 0150 D317     		asrs	r3, r2, #31
 508 0152 C91A     		subs	r1, r1, r3
 509 0154 0B46     		mov	r3, r1
 510 0156 9B00     		lsls	r3, r3, #2
ARM GAS  C:\Users\THERMA~1\AppData\Local\Temp\cc965AVb.s 			page 14


 511 0158 0B44     		add	r3, r3, r1
 512 015a 5B00     		lsls	r3, r3, #1
 513 015c D11A     		subs	r1, r2, r3
 514 015e CBB2     		uxtb	r3, r1
 515 0160 3033     		adds	r3, r3, #48
 516 0162 DAB2     		uxtb	r2, r3
 517 0164 774B     		ldr	r3, .L139+8
 518 0166 5A70     		strb	r2, [r3, #1]
 519              	.LBB2:
  85:printer.c     ****     for(uint8 i = 1; i<6; i++){
 520              		.loc 1 85 0
 521 0168 0123     		movs	r3, #1
 522 016a 87F84730 		strb	r3, [r7, #71]
 523 016e 0FE0     		b	.L2
 524              	.L3:
  86:printer.c     ****         EEPROM_1_WriteByte(sale_number[i],i);
 525              		.loc 1 86 0 discriminator 3
 526 0170 97F84730 		ldrb	r3, [r7, #71]	@ zero_extendqisi2
 527 0174 734A     		ldr	r2, .L139+8
 528 0176 D35C     		ldrb	r3, [r2, r3]	@ zero_extendqisi2
 529 0178 97F84720 		ldrb	r2, [r7, #71]	@ zero_extendqisi2
 530 017c 92B2     		uxth	r2, r2
 531 017e 1146     		mov	r1, r2
 532 0180 1846     		mov	r0, r3
 533 0182 FFF7FEFF 		bl	EEPROM_1_WriteByte
  85:printer.c     ****     for(uint8 i = 1; i<6; i++){
 534              		.loc 1 85 0 discriminator 3
 535 0186 97F84730 		ldrb	r3, [r7, #71]	@ zero_extendqisi2
 536 018a 0133     		adds	r3, r3, #1
 537 018c 87F84730 		strb	r3, [r7, #71]
 538              	.L2:
  85:printer.c     ****     for(uint8 i = 1; i<6; i++){
 539              		.loc 1 85 0 is_stmt 0 discriminator 1
 540 0190 97F84730 		ldrb	r3, [r7, #71]	@ zero_extendqisi2
 541 0194 052B     		cmp	r3, #5
 542 0196 EBD9     		bls	.L3
 543              	.LBE2:
 544              	.LBB3:
  87:printer.c     ****     }
  88:printer.c     ****     for(uint8 LCDRx = 0; LCDRx < 6; LCDRx++){
 545              		.loc 1 88 0 is_stmt 1
 546 0198 0023     		movs	r3, #0
 547 019a 87F84630 		strb	r3, [r7, #70]
 548 019e 0BE0     		b	.L4
 549              	.L5:
  89:printer.c     ****         screen_PutChar(ASK_TIME[LCDRx]);
 550              		.loc 1 89 0 discriminator 3
 551 01a0 97F84630 		ldrb	r3, [r7, #70]	@ zero_extendqisi2
 552 01a4 6B4A     		ldr	r2, .L139+24
 553 01a6 D35C     		ldrb	r3, [r2, r3]	@ zero_extendqisi2
 554 01a8 1846     		mov	r0, r3
 555 01aa FFF7FEFF 		bl	screen_PutChar
  88:printer.c     ****         screen_PutChar(ASK_TIME[LCDRx]);
 556              		.loc 1 88 0 discriminator 3
 557 01ae 97F84630 		ldrb	r3, [r7, #70]	@ zero_extendqisi2
 558 01b2 0133     		adds	r3, r3, #1
 559 01b4 87F84630 		strb	r3, [r7, #70]
ARM GAS  C:\Users\THERMA~1\AppData\Local\Temp\cc965AVb.s 			page 15


 560              	.L4:
  88:printer.c     ****         screen_PutChar(ASK_TIME[LCDRx]);
 561              		.loc 1 88 0 is_stmt 0 discriminator 1
 562 01b8 97F84630 		ldrb	r3, [r7, #70]	@ zero_extendqisi2
 563 01bc 052B     		cmp	r3, #5
 564 01be EFD9     		bls	.L5
 565              	.LBE3:
  90:printer.c     ****     }
  91:printer.c     ****     CyDelay(10);
 566              		.loc 1 91 0 is_stmt 1
 567 01c0 0A20     		movs	r0, #10
 568 01c2 FFF7FEFF 		bl	CyDelay
  92:printer.c     ****     screen_size = screen_GetRxBufferSize();
 569              		.loc 1 92 0
 570 01c6 FFF7FEFF 		bl	screen_GetRxBufferSize
 571 01ca 0346     		mov	r3, r0
 572 01cc 7B72     		strb	r3, [r7, #9]
  93:printer.c     ****     if(screen_size >= 13 ){
 573              		.loc 1 93 0
 574 01ce 97F90930 		ldrsb	r3, [r7, #9]
 575 01d2 0C2B     		cmp	r3, #12
 576 01d4 18DD     		ble	.L6
 577              	.LBB4:
  94:printer.c     ****         for(uint8 LCDRx = 0; LCDRx < screen_size; LCDRx++){
 578              		.loc 1 94 0
 579 01d6 0023     		movs	r3, #0
 580 01d8 87F84530 		strb	r3, [r7, #69]
 581 01dc 0CE0     		b	.L7
 582              	.L8:
  95:printer.c     ****             touch1[LCDRx] = screen_ReadRxData();
 583              		.loc 1 95 0 discriminator 3
 584 01de 97F84540 		ldrb	r4, [r7, #69]	@ zero_extendqisi2
 585 01e2 FFF7FEFF 		bl	screen_ReadRxData
 586 01e6 0346     		mov	r3, r0
 587 01e8 1A46     		mov	r2, r3
 588 01ea 5B4B     		ldr	r3, .L139+28
 589 01ec 1A55     		strb	r2, [r3, r4]
  94:printer.c     ****         for(uint8 LCDRx = 0; LCDRx < screen_size; LCDRx++){
 590              		.loc 1 94 0 discriminator 3
 591 01ee 97F84530 		ldrb	r3, [r7, #69]	@ zero_extendqisi2
 592 01f2 0133     		adds	r3, r3, #1
 593 01f4 87F84530 		strb	r3, [r7, #69]
 594              	.L7:
  94:printer.c     ****         for(uint8 LCDRx = 0; LCDRx < screen_size; LCDRx++){
 595              		.loc 1 94 0 is_stmt 0 discriminator 1
 596 01f8 97F84520 		ldrb	r2, [r7, #69]	@ zero_extendqisi2
 597 01fc 97F90930 		ldrsb	r3, [r7, #9]
 598 0200 9A42     		cmp	r2, r3
 599 0202 ECDB     		blt	.L8
 600              	.LBE4:
  96:printer.c     ****         }
  97:printer.c     ****         screen_size = 0;
 601              		.loc 1 97 0 is_stmt 1
 602 0204 0023     		movs	r3, #0
 603 0206 7B72     		strb	r3, [r7, #9]
 604              	.L6:
 605              	.LBB5:
ARM GAS  C:\Users\THERMA~1\AppData\Local\Temp\cc965AVb.s 			page 16


  98:printer.c     ****     }
  99:printer.c     **** 	for(uint8 x = 0; x < 22; x ++){
 606              		.loc 1 99 0
 607 0208 0023     		movs	r3, #0
 608 020a 87F84430 		strb	r3, [r7, #68]
 609 020e 0BE0     		b	.L9
 610              	.L10:
 100:printer.c     **** 		PRINTER_A_PutChar(msn_EDS[x]);
 611              		.loc 1 100 0 discriminator 3
 612 0210 97F84430 		ldrb	r3, [r7, #68]	@ zero_extendqisi2
 613 0214 514A     		ldr	r2, .L139+32
 614 0216 D35C     		ldrb	r3, [r2, r3]	@ zero_extendqisi2
 615 0218 1846     		mov	r0, r3
 616 021a FFF7FEFF 		bl	PRINTER_A_PutChar
  99:printer.c     **** 		PRINTER_A_PutChar(msn_EDS[x]);
 617              		.loc 1 99 0 discriminator 3
 618 021e 97F84430 		ldrb	r3, [r7, #68]	@ zero_extendqisi2
 619 0222 0133     		adds	r3, r3, #1
 620 0224 87F84430 		strb	r3, [r7, #68]
 621              	.L9:
  99:printer.c     **** 		PRINTER_A_PutChar(msn_EDS[x]);
 622              		.loc 1 99 0 is_stmt 0 discriminator 1
 623 0228 97F84430 		ldrb	r3, [r7, #68]	@ zero_extendqisi2
 624 022c 152B     		cmp	r3, #21
 625 022e EFD9     		bls	.L10
 626              	.LBE5:
 101:printer.c     **** 	}
 102:printer.c     ****     PRINTER_A_PutChar(LINE_FEED);
 627              		.loc 1 102 0 is_stmt 1
 628 0230 4B4B     		ldr	r3, .L139+36
 629 0232 1B78     		ldrb	r3, [r3]	@ zero_extendqisi2
 630 0234 1846     		mov	r0, r3
 631 0236 FFF7FEFF 		bl	PRINTER_A_PutChar
 632              	.LBB6:
 103:printer.c     **** 	for(uint8 x = 0; x < 22; x ++){
 633              		.loc 1 103 0
 634 023a 0023     		movs	r3, #0
 635 023c 87F84330 		strb	r3, [r7, #67]
 636 0240 0BE0     		b	.L11
 637              	.L12:
 104:printer.c     **** 		PRINTER_A_PutChar(msn_EDS2[x]);
 638              		.loc 1 104 0 discriminator 3
 639 0242 97F84330 		ldrb	r3, [r7, #67]	@ zero_extendqisi2
 640 0246 474A     		ldr	r2, .L139+40
 641 0248 D35C     		ldrb	r3, [r2, r3]	@ zero_extendqisi2
 642 024a 1846     		mov	r0, r3
 643 024c FFF7FEFF 		bl	PRINTER_A_PutChar
 103:printer.c     **** 	for(uint8 x = 0; x < 22; x ++){
 644              		.loc 1 103 0 discriminator 3
 645 0250 97F84330 		ldrb	r3, [r7, #67]	@ zero_extendqisi2
 646 0254 0133     		adds	r3, r3, #1
 647 0256 87F84330 		strb	r3, [r7, #67]
 648              	.L11:
 103:printer.c     **** 	for(uint8 x = 0; x < 22; x ++){
 649              		.loc 1 103 0 is_stmt 0 discriminator 1
 650 025a 97F84330 		ldrb	r3, [r7, #67]	@ zero_extendqisi2
 651 025e 152B     		cmp	r3, #21
ARM GAS  C:\Users\THERMA~1\AppData\Local\Temp\cc965AVb.s 			page 17


 652 0260 EFD9     		bls	.L12
 653              	.LBE6:
 105:printer.c     **** 	}
 106:printer.c     **** 	PRINTER_A_PutChar(LINE_FEED);
 654              		.loc 1 106 0 is_stmt 1
 655 0262 3F4B     		ldr	r3, .L139+36
 656 0264 1B78     		ldrb	r3, [r3]	@ zero_extendqisi2
 657 0266 1846     		mov	r0, r3
 658 0268 FFF7FEFF 		bl	PRINTER_A_PutChar
 659              	.LBB7:
 107:printer.c     **** 	for(uint8 x = 0; x < 22; x ++){
 660              		.loc 1 107 0
 661 026c 0023     		movs	r3, #0
 662 026e 87F84230 		strb	r3, [r7, #66]
 663 0272 0BE0     		b	.L13
 664              	.L14:
 108:printer.c     **** 		PRINTER_A_PutChar(msn_EDS3[x]);
 665              		.loc 1 108 0 discriminator 3
 666 0274 97F84230 		ldrb	r3, [r7, #66]	@ zero_extendqisi2
 667 0278 3B4A     		ldr	r2, .L139+44
 668 027a D35C     		ldrb	r3, [r2, r3]	@ zero_extendqisi2
 669 027c 1846     		mov	r0, r3
 670 027e FFF7FEFF 		bl	PRINTER_A_PutChar
 107:printer.c     **** 	for(uint8 x = 0; x < 22; x ++){
 671              		.loc 1 107 0 discriminator 3
 672 0282 97F84230 		ldrb	r3, [r7, #66]	@ zero_extendqisi2
 673 0286 0133     		adds	r3, r3, #1
 674 0288 87F84230 		strb	r3, [r7, #66]
 675              	.L13:
 107:printer.c     **** 	for(uint8 x = 0; x < 22; x ++){
 676              		.loc 1 107 0 is_stmt 0 discriminator 1
 677 028c 97F84230 		ldrb	r3, [r7, #66]	@ zero_extendqisi2
 678 0290 152B     		cmp	r3, #21
 679 0292 EFD9     		bls	.L14
 680              	.LBE7:
 109:printer.c     **** 	}
 110:printer.c     **** 	PRINTER_A_PutChar(LINE_FEED);
 681              		.loc 1 110 0 is_stmt 1
 682 0294 324B     		ldr	r3, .L139+36
 683 0296 1B78     		ldrb	r3, [r3]	@ zero_extendqisi2
 684 0298 1846     		mov	r0, r3
 685 029a FFF7FEFF 		bl	PRINTER_A_PutChar
 686              	.LBB8:
 111:printer.c     **** 	for(uint8 x = 0; x < 22; x ++){
 687              		.loc 1 111 0
 688 029e 0023     		movs	r3, #0
 689 02a0 87F84130 		strb	r3, [r7, #65]
 690 02a4 0BE0     		b	.L15
 691              	.L16:
 112:printer.c     **** 		PRINTER_A_PutChar(msn_EDS4[x]);
 692              		.loc 1 112 0 discriminator 3
 693 02a6 97F84130 		ldrb	r3, [r7, #65]	@ zero_extendqisi2
 694 02aa 304A     		ldr	r2, .L139+48
 695 02ac D35C     		ldrb	r3, [r2, r3]	@ zero_extendqisi2
 696 02ae 1846     		mov	r0, r3
 697 02b0 FFF7FEFF 		bl	PRINTER_A_PutChar
 111:printer.c     **** 	for(uint8 x = 0; x < 22; x ++){
ARM GAS  C:\Users\THERMA~1\AppData\Local\Temp\cc965AVb.s 			page 18


 698              		.loc 1 111 0 discriminator 3
 699 02b4 97F84130 		ldrb	r3, [r7, #65]	@ zero_extendqisi2
 700 02b8 0133     		adds	r3, r3, #1
 701 02ba 87F84130 		strb	r3, [r7, #65]
 702              	.L15:
 111:printer.c     **** 	for(uint8 x = 0; x < 22; x ++){
 703              		.loc 1 111 0 is_stmt 0 discriminator 1
 704 02be 97F84130 		ldrb	r3, [r7, #65]	@ zero_extendqisi2
 705 02c2 152B     		cmp	r3, #21
 706 02c4 EFD9     		bls	.L16
 707              	.LBE8:
 113:printer.c     **** 	}
 114:printer.c     ****     PRINTER_A_PutChar(LINE_FEED);
 708              		.loc 1 114 0 is_stmt 1
 709 02c6 264B     		ldr	r3, .L139+36
 710 02c8 1B78     		ldrb	r3, [r3]	@ zero_extendqisi2
 711 02ca 1846     		mov	r0, r3
 712 02cc FFF7FEFF 		bl	PRINTER_A_PutChar
 713              	.LBB9:
 115:printer.c     ****     for(uint8 x = 0; x < 22; x ++){
 714              		.loc 1 115 0
 715 02d0 0023     		movs	r3, #0
 716 02d2 87F84030 		strb	r3, [r7, #64]
 717 02d6 0BE0     		b	.L17
 718              	.L18:
 116:printer.c     **** 		PRINTER_A_PutChar(msn_EDS5[x]);
 719              		.loc 1 116 0 discriminator 3
 720 02d8 97F84030 		ldrb	r3, [r7, #64]	@ zero_extendqisi2
 721 02dc 244A     		ldr	r2, .L139+52
 722 02de D35C     		ldrb	r3, [r2, r3]	@ zero_extendqisi2
 723 02e0 1846     		mov	r0, r3
 724 02e2 FFF7FEFF 		bl	PRINTER_A_PutChar
 115:printer.c     ****     for(uint8 x = 0; x < 22; x ++){
 725              		.loc 1 115 0 discriminator 3
 726 02e6 97F84030 		ldrb	r3, [r7, #64]	@ zero_extendqisi2
 727 02ea 0133     		adds	r3, r3, #1
 728 02ec 87F84030 		strb	r3, [r7, #64]
 729              	.L17:
 115:printer.c     ****     for(uint8 x = 0; x < 22; x ++){
 730              		.loc 1 115 0 is_stmt 0 discriminator 1
 731 02f0 97F84030 		ldrb	r3, [r7, #64]	@ zero_extendqisi2
 732 02f4 152B     		cmp	r3, #21
 733 02f6 EFD9     		bls	.L18
 734              	.LBE9:
 117:printer.c     **** 	}
 118:printer.c     ****     PRINTER_A_PutChar(LINE_FEED);
 735              		.loc 1 118 0 is_stmt 1
 736 02f8 194B     		ldr	r3, .L139+36
 737 02fa 1B78     		ldrb	r3, [r3]	@ zero_extendqisi2
 738 02fc 1846     		mov	r0, r3
 739 02fe FFF7FEFF 		bl	PRINTER_A_PutChar
 740              	.LBB10:
 119:printer.c     ****     for(uint8 x = 0; x < 22; x ++){
 741              		.loc 1 119 0
 742 0302 0023     		movs	r3, #0
 743 0304 87F83F30 		strb	r3, [r7, #63]
 744 0308 0BE0     		b	.L19
ARM GAS  C:\Users\THERMA~1\AppData\Local\Temp\cc965AVb.s 			page 19


 745              	.L20:
 120:printer.c     **** 		PRINTER_A_PutChar(msn_EDS6[x]);
 746              		.loc 1 120 0 discriminator 3
 747 030a 97F83F30 		ldrb	r3, [r7, #63]	@ zero_extendqisi2
 748 030e 194A     		ldr	r2, .L139+56
 749 0310 D35C     		ldrb	r3, [r2, r3]	@ zero_extendqisi2
 750 0312 1846     		mov	r0, r3
 751 0314 FFF7FEFF 		bl	PRINTER_A_PutChar
 119:printer.c     ****     for(uint8 x = 0; x < 22; x ++){
 752              		.loc 1 119 0 discriminator 3
 753 0318 97F83F30 		ldrb	r3, [r7, #63]	@ zero_extendqisi2
 754 031c 0133     		adds	r3, r3, #1
 755 031e 87F83F30 		strb	r3, [r7, #63]
 756              	.L19:
 119:printer.c     ****     for(uint8 x = 0; x < 22; x ++){
 757              		.loc 1 119 0 is_stmt 0 discriminator 1
 758 0322 97F83F30 		ldrb	r3, [r7, #63]	@ zero_extendqisi2
 759 0326 152B     		cmp	r3, #21
 760 0328 EFD9     		bls	.L20
 761              	.LBE10:
 121:printer.c     **** 	}
 122:printer.c     ****     PRINTER_A_PutChar(LINE_FEED);
 762              		.loc 1 122 0 is_stmt 1
 763 032a 0D4B     		ldr	r3, .L139+36
 764 032c 1B78     		ldrb	r3, [r3]	@ zero_extendqisi2
 765 032e 1846     		mov	r0, r3
 766 0330 FFF7FEFF 		bl	PRINTER_A_PutChar
 767              	.LBB11:
 123:printer.c     ****     for(uint8 x = 0; x < 22; x ++){
 768              		.loc 1 123 0
 769 0334 0023     		movs	r3, #0
 770 0336 87F83E30 		strb	r3, [r7, #62]
 771 033a 29E0     		b	.L21
 772              	.L140:
 773              		.align	2
 774              	.L139:
 775 033c 00000000 		.word	int_salenumber
 776 0340 AD8BDB68 		.word	1759218605
 777 0344 00000000 		.word	sale_number
 778 0348 D34D6210 		.word	274877907
 779 034c 1F85EB51 		.word	1374389535
 780 0350 67666666 		.word	1717986919
 781 0354 00000000 		.word	ASK_TIME
 782 0358 00000000 		.word	touch1
 783 035c 00000000 		.word	msn_EDS
 784 0360 00000000 		.word	LINE_FEED
 785 0364 00000000 		.word	msn_EDS2
 786 0368 00000000 		.word	msn_EDS3
 787 036c 00000000 		.word	msn_EDS4
 788 0370 00000000 		.word	msn_EDS5
 789 0374 00000000 		.word	msn_EDS6
 790              	.L22:
 124:printer.c     **** 		PRINTER_A_PutChar(msn_EDS7[x]);
 791              		.loc 1 124 0 discriminator 3
 792 0378 97F83E30 		ldrb	r3, [r7, #62]	@ zero_extendqisi2
 793 037c BD4A     		ldr	r2, .L141
 794 037e D35C     		ldrb	r3, [r2, r3]	@ zero_extendqisi2
ARM GAS  C:\Users\THERMA~1\AppData\Local\Temp\cc965AVb.s 			page 20


 795 0380 1846     		mov	r0, r3
 796 0382 FFF7FEFF 		bl	PRINTER_A_PutChar
 123:printer.c     ****     for(uint8 x = 0; x < 22; x ++){
 797              		.loc 1 123 0 discriminator 3
 798 0386 97F83E30 		ldrb	r3, [r7, #62]	@ zero_extendqisi2
 799 038a 0133     		adds	r3, r3, #1
 800 038c 87F83E30 		strb	r3, [r7, #62]
 801              	.L21:
 123:printer.c     ****     for(uint8 x = 0; x < 22; x ++){
 802              		.loc 1 123 0 is_stmt 0 discriminator 1
 803 0390 97F83E30 		ldrb	r3, [r7, #62]	@ zero_extendqisi2
 804 0394 152B     		cmp	r3, #21
 805 0396 EFD9     		bls	.L22
 806              	.LBE11:
 125:printer.c     **** 	}
 126:printer.c     ****     PRINTER_A_PutChar(LINE_FEED);
 807              		.loc 1 126 0 is_stmt 1
 808 0398 B74B     		ldr	r3, .L141+4
 809 039a 1B78     		ldrb	r3, [r3]	@ zero_extendqisi2
 810 039c 1846     		mov	r0, r3
 811 039e FFF7FEFF 		bl	PRINTER_A_PutChar
 812              	.LBB12:
 127:printer.c     **** 	for(uint8 x = 0; x < 24; x ++){
 813              		.loc 1 127 0
 814 03a2 0023     		movs	r3, #0
 815 03a4 87F83D30 		strb	r3, [r7, #61]
 816 03a8 0BE0     		b	.L23
 817              	.L24:
 128:printer.c     **** 		PRINTER_A_PutChar(SEPARATOR[x]);
 818              		.loc 1 128 0 discriminator 3
 819 03aa 97F83D30 		ldrb	r3, [r7, #61]	@ zero_extendqisi2
 820 03ae B34A     		ldr	r2, .L141+8
 821 03b0 D35C     		ldrb	r3, [r2, r3]	@ zero_extendqisi2
 822 03b2 1846     		mov	r0, r3
 823 03b4 FFF7FEFF 		bl	PRINTER_A_PutChar
 127:printer.c     **** 	for(uint8 x = 0; x < 24; x ++){
 824              		.loc 1 127 0 discriminator 3
 825 03b8 97F83D30 		ldrb	r3, [r7, #61]	@ zero_extendqisi2
 826 03bc 0133     		adds	r3, r3, #1
 827 03be 87F83D30 		strb	r3, [r7, #61]
 828              	.L23:
 127:printer.c     **** 	for(uint8 x = 0; x < 24; x ++){
 829              		.loc 1 127 0 is_stmt 0 discriminator 1
 830 03c2 97F83D30 		ldrb	r3, [r7, #61]	@ zero_extendqisi2
 831 03c6 172B     		cmp	r3, #23
 832 03c8 EFD9     		bls	.L24
 833              	.LBE12:
 129:printer.c     **** 	}
 130:printer.c     ****     PRINTER_A_PutChar(LINE_FEED);
 834              		.loc 1 130 0 is_stmt 1
 835 03ca AB4B     		ldr	r3, .L141+4
 836 03cc 1B78     		ldrb	r3, [r3]	@ zero_extendqisi2
 837 03ce 1846     		mov	r0, r3
 838 03d0 FFF7FEFF 		bl	PRINTER_A_PutChar
 839              	.LBB13:
 131:printer.c     ****     /********** FECHA ***************/
 132:printer.c     **** 	for(uint8 x = 0; x < 13; x ++){
ARM GAS  C:\Users\THERMA~1\AppData\Local\Temp\cc965AVb.s 			page 21


 840              		.loc 1 132 0
 841 03d4 0023     		movs	r3, #0
 842 03d6 87F83C30 		strb	r3, [r7, #60]
 843 03da 0BE0     		b	.L25
 844              	.L26:
 133:printer.c     **** 		PRINTER_A_PutChar(msn_fecha[x]);
 845              		.loc 1 133 0 discriminator 3
 846 03dc 97F83C30 		ldrb	r3, [r7, #60]	@ zero_extendqisi2
 847 03e0 A74A     		ldr	r2, .L141+12
 848 03e2 D35C     		ldrb	r3, [r2, r3]	@ zero_extendqisi2
 849 03e4 1846     		mov	r0, r3
 850 03e6 FFF7FEFF 		bl	PRINTER_A_PutChar
 132:printer.c     **** 		PRINTER_A_PutChar(msn_fecha[x]);
 851              		.loc 1 132 0 discriminator 3
 852 03ea 97F83C30 		ldrb	r3, [r7, #60]	@ zero_extendqisi2
 853 03ee 0133     		adds	r3, r3, #1
 854 03f0 87F83C30 		strb	r3, [r7, #60]
 855              	.L25:
 132:printer.c     **** 		PRINTER_A_PutChar(msn_fecha[x]);
 856              		.loc 1 132 0 is_stmt 0 discriminator 1
 857 03f4 97F83C30 		ldrb	r3, [r7, #60]	@ zero_extendqisi2
 858 03f8 0C2B     		cmp	r3, #12
 859 03fa EFD9     		bls	.L26
 860              	.LBE13:
 134:printer.c     **** 	}
 135:printer.c     ****     PRINTER_A_PutChar(((touch1[8] >> 4) + 0x30)) ;
 861              		.loc 1 135 0 is_stmt 1
 862 03fc A14B     		ldr	r3, .L141+16
 863 03fe 1B7A     		ldrb	r3, [r3, #8]	@ zero_extendqisi2
 864 0400 1B09     		lsrs	r3, r3, #4
 865 0402 DBB2     		uxtb	r3, r3
 866 0404 3033     		adds	r3, r3, #48
 867 0406 DBB2     		uxtb	r3, r3
 868 0408 1846     		mov	r0, r3
 869 040a FFF7FEFF 		bl	PRINTER_A_PutChar
 136:printer.c     **** 	PRINTER_A_PutChar(((touch1[8] & 0x0F) + 0x30));
 870              		.loc 1 136 0
 871 040e 9D4B     		ldr	r3, .L141+16
 872 0410 1B7A     		ldrb	r3, [r3, #8]	@ zero_extendqisi2
 873 0412 03F00F03 		and	r3, r3, #15
 874 0416 DBB2     		uxtb	r3, r3
 875 0418 3033     		adds	r3, r3, #48
 876 041a DBB2     		uxtb	r3, r3
 877 041c 1846     		mov	r0, r3
 878 041e FFF7FEFF 		bl	PRINTER_A_PutChar
 137:printer.c     ****     PRINTER_A_PutChar('/');
 879              		.loc 1 137 0
 880 0422 2F20     		movs	r0, #47
 881 0424 FFF7FEFF 		bl	PRINTER_A_PutChar
 138:printer.c     ****     PRINTER_A_PutChar(((touch1[7] >> 4) + 0x30)) ;
 882              		.loc 1 138 0
 883 0428 964B     		ldr	r3, .L141+16
 884 042a DB79     		ldrb	r3, [r3, #7]	@ zero_extendqisi2
 885 042c 1B09     		lsrs	r3, r3, #4
 886 042e DBB2     		uxtb	r3, r3
 887 0430 3033     		adds	r3, r3, #48
 888 0432 DBB2     		uxtb	r3, r3
ARM GAS  C:\Users\THERMA~1\AppData\Local\Temp\cc965AVb.s 			page 22


 889 0434 1846     		mov	r0, r3
 890 0436 FFF7FEFF 		bl	PRINTER_A_PutChar
 139:printer.c     ****     PRINTER_A_PutChar(((touch1[7] & 0x0F) + 0x30));
 891              		.loc 1 139 0
 892 043a 924B     		ldr	r3, .L141+16
 893 043c DB79     		ldrb	r3, [r3, #7]	@ zero_extendqisi2
 894 043e 03F00F03 		and	r3, r3, #15
 895 0442 DBB2     		uxtb	r3, r3
 896 0444 3033     		adds	r3, r3, #48
 897 0446 DBB2     		uxtb	r3, r3
 898 0448 1846     		mov	r0, r3
 899 044a FFF7FEFF 		bl	PRINTER_A_PutChar
 140:printer.c     ****     PRINTER_A_PutChar('/');    
 900              		.loc 1 140 0
 901 044e 2F20     		movs	r0, #47
 902 0450 FFF7FEFF 		bl	PRINTER_A_PutChar
 141:printer.c     ****     PRINTER_A_PutChar(((touch1[6] >> 4) + 0x30));
 903              		.loc 1 141 0
 904 0454 8B4B     		ldr	r3, .L141+16
 905 0456 9B79     		ldrb	r3, [r3, #6]	@ zero_extendqisi2
 906 0458 1B09     		lsrs	r3, r3, #4
 907 045a DBB2     		uxtb	r3, r3
 908 045c 3033     		adds	r3, r3, #48
 909 045e DBB2     		uxtb	r3, r3
 910 0460 1846     		mov	r0, r3
 911 0462 FFF7FEFF 		bl	PRINTER_A_PutChar
 142:printer.c     ****     PRINTER_A_PutChar(((touch1[6] & 0x0F) + 0x30));
 912              		.loc 1 142 0
 913 0466 874B     		ldr	r3, .L141+16
 914 0468 9B79     		ldrb	r3, [r3, #6]	@ zero_extendqisi2
 915 046a 03F00F03 		and	r3, r3, #15
 916 046e DBB2     		uxtb	r3, r3
 917 0470 3033     		adds	r3, r3, #48
 918 0472 DBB2     		uxtb	r3, r3
 919 0474 1846     		mov	r0, r3
 920 0476 FFF7FEFF 		bl	PRINTER_A_PutChar
 143:printer.c     **** 	PRINTER_A_PutChar(LINE_FEED);
 921              		.loc 1 143 0
 922 047a 7F4B     		ldr	r3, .L141+4
 923 047c 1B78     		ldrb	r3, [r3]	@ zero_extendqisi2
 924 047e 1846     		mov	r0, r3
 925 0480 FFF7FEFF 		bl	PRINTER_A_PutChar
 926              	.LBB14:
 144:printer.c     ****     /********** HORA ***************/
 145:printer.c     **** 	for(uint8 x = 0; x < 13; x ++){
 927              		.loc 1 145 0
 928 0484 0023     		movs	r3, #0
 929 0486 87F83B30 		strb	r3, [r7, #59]
 930 048a 0BE0     		b	.L27
 931              	.L28:
 146:printer.c     **** 		PRINTER_A_PutChar(msn_hora[x]);
 932              		.loc 1 146 0 discriminator 3
 933 048c 97F83B30 		ldrb	r3, [r7, #59]	@ zero_extendqisi2
 934 0490 7D4A     		ldr	r2, .L141+20
 935 0492 D35C     		ldrb	r3, [r2, r3]	@ zero_extendqisi2
 936 0494 1846     		mov	r0, r3
 937 0496 FFF7FEFF 		bl	PRINTER_A_PutChar
ARM GAS  C:\Users\THERMA~1\AppData\Local\Temp\cc965AVb.s 			page 23


 145:printer.c     **** 		PRINTER_A_PutChar(msn_hora[x]);
 938              		.loc 1 145 0 discriminator 3
 939 049a 97F83B30 		ldrb	r3, [r7, #59]	@ zero_extendqisi2
 940 049e 0133     		adds	r3, r3, #1
 941 04a0 87F83B30 		strb	r3, [r7, #59]
 942              	.L27:
 145:printer.c     **** 		PRINTER_A_PutChar(msn_hora[x]);
 943              		.loc 1 145 0 is_stmt 0 discriminator 1
 944 04a4 97F83B30 		ldrb	r3, [r7, #59]	@ zero_extendqisi2
 945 04a8 0C2B     		cmp	r3, #12
 946 04aa EFD9     		bls	.L28
 947              	.LBE14:
 147:printer.c     **** 	}
 148:printer.c     ****     PRINTER_A_PutChar(((touch1[10] >> 4) + 0x30)) ;
 948              		.loc 1 148 0 is_stmt 1
 949 04ac 754B     		ldr	r3, .L141+16
 950 04ae 9B7A     		ldrb	r3, [r3, #10]	@ zero_extendqisi2
 951 04b0 1B09     		lsrs	r3, r3, #4
 952 04b2 DBB2     		uxtb	r3, r3
 953 04b4 3033     		adds	r3, r3, #48
 954 04b6 DBB2     		uxtb	r3, r3
 955 04b8 1846     		mov	r0, r3
 956 04ba FFF7FEFF 		bl	PRINTER_A_PutChar
 149:printer.c     ****     PRINTER_A_PutChar(((touch1[10] & 0x0F) + 0x30));
 957              		.loc 1 149 0
 958 04be 714B     		ldr	r3, .L141+16
 959 04c0 9B7A     		ldrb	r3, [r3, #10]	@ zero_extendqisi2
 960 04c2 03F00F03 		and	r3, r3, #15
 961 04c6 DBB2     		uxtb	r3, r3
 962 04c8 3033     		adds	r3, r3, #48
 963 04ca DBB2     		uxtb	r3, r3
 964 04cc 1846     		mov	r0, r3
 965 04ce FFF7FEFF 		bl	PRINTER_A_PutChar
 150:printer.c     ****     PRINTER_A_PutChar(':');
 966              		.loc 1 150 0
 967 04d2 3A20     		movs	r0, #58
 968 04d4 FFF7FEFF 		bl	PRINTER_A_PutChar
 151:printer.c     ****     PRINTER_A_PutChar(((touch1[11] >> 4) + 0x30)) ;
 969              		.loc 1 151 0
 970 04d8 6A4B     		ldr	r3, .L141+16
 971 04da DB7A     		ldrb	r3, [r3, #11]	@ zero_extendqisi2
 972 04dc 1B09     		lsrs	r3, r3, #4
 973 04de DBB2     		uxtb	r3, r3
 974 04e0 3033     		adds	r3, r3, #48
 975 04e2 DBB2     		uxtb	r3, r3
 976 04e4 1846     		mov	r0, r3
 977 04e6 FFF7FEFF 		bl	PRINTER_A_PutChar
 152:printer.c     ****     PRINTER_A_PutChar(((touch1[11] & 0x0F) + 0x30));
 978              		.loc 1 152 0
 979 04ea 664B     		ldr	r3, .L141+16
 980 04ec DB7A     		ldrb	r3, [r3, #11]	@ zero_extendqisi2
 981 04ee 03F00F03 		and	r3, r3, #15
 982 04f2 DBB2     		uxtb	r3, r3
 983 04f4 3033     		adds	r3, r3, #48
 984 04f6 DBB2     		uxtb	r3, r3
 985 04f8 1846     		mov	r0, r3
 986 04fa FFF7FEFF 		bl	PRINTER_A_PutChar
ARM GAS  C:\Users\THERMA~1\AppData\Local\Temp\cc965AVb.s 			page 24


 153:printer.c     ****     PRINTER_A_PutChar(':');
 987              		.loc 1 153 0
 988 04fe 3A20     		movs	r0, #58
 989 0500 FFF7FEFF 		bl	PRINTER_A_PutChar
 154:printer.c     ****     PRINTER_A_PutChar(((touch1[12] >> 4) + 0x30));
 990              		.loc 1 154 0
 991 0504 5F4B     		ldr	r3, .L141+16
 992 0506 1B7B     		ldrb	r3, [r3, #12]	@ zero_extendqisi2
 993 0508 1B09     		lsrs	r3, r3, #4
 994 050a DBB2     		uxtb	r3, r3
 995 050c 3033     		adds	r3, r3, #48
 996 050e DBB2     		uxtb	r3, r3
 997 0510 1846     		mov	r0, r3
 998 0512 FFF7FEFF 		bl	PRINTER_A_PutChar
 155:printer.c     **** 	PRINTER_A_PutChar(((touch1[12] & 0x0F) + 0x30));
 999              		.loc 1 155 0
 1000 0516 5B4B     		ldr	r3, .L141+16
 1001 0518 1B7B     		ldrb	r3, [r3, #12]	@ zero_extendqisi2
 1002 051a 03F00F03 		and	r3, r3, #15
 1003 051e DBB2     		uxtb	r3, r3
 1004 0520 3033     		adds	r3, r3, #48
 1005 0522 DBB2     		uxtb	r3, r3
 1006 0524 1846     		mov	r0, r3
 1007 0526 FFF7FEFF 		bl	PRINTER_A_PutChar
 156:printer.c     **** 	
 157:printer.c     ****     PRINTER_A_PutChar(LINE_FEED);
 1008              		.loc 1 157 0
 1009 052a 534B     		ldr	r3, .L141+4
 1010 052c 1B78     		ldrb	r3, [r3]	@ zero_extendqisi2
 1011 052e 1846     		mov	r0, r3
 1012 0530 FFF7FEFF 		bl	PRINTER_A_PutChar
 1013              	.LBB15:
 158:printer.c     ****     for(uint8 x = 0; x < 24; x ++){
 1014              		.loc 1 158 0
 1015 0534 0023     		movs	r3, #0
 1016 0536 87F83A30 		strb	r3, [r7, #58]
 1017 053a 0BE0     		b	.L29
 1018              	.L30:
 159:printer.c     **** 		PRINTER_A_PutChar(SEPARATOR[x]);
 1019              		.loc 1 159 0 discriminator 3
 1020 053c 97F83A30 		ldrb	r3, [r7, #58]	@ zero_extendqisi2
 1021 0540 4E4A     		ldr	r2, .L141+8
 1022 0542 D35C     		ldrb	r3, [r2, r3]	@ zero_extendqisi2
 1023 0544 1846     		mov	r0, r3
 1024 0546 FFF7FEFF 		bl	PRINTER_A_PutChar
 158:printer.c     ****     for(uint8 x = 0; x < 24; x ++){
 1025              		.loc 1 158 0 discriminator 3
 1026 054a 97F83A30 		ldrb	r3, [r7, #58]	@ zero_extendqisi2
 1027 054e 0133     		adds	r3, r3, #1
 1028 0550 87F83A30 		strb	r3, [r7, #58]
 1029              	.L29:
 158:printer.c     ****     for(uint8 x = 0; x < 24; x ++){
 1030              		.loc 1 158 0 is_stmt 0 discriminator 1
 1031 0554 97F83A30 		ldrb	r3, [r7, #58]	@ zero_extendqisi2
 1032 0558 172B     		cmp	r3, #23
 1033 055a EFD9     		bls	.L30
 1034              	.LBE15:
ARM GAS  C:\Users\THERMA~1\AppData\Local\Temp\cc965AVb.s 			page 25


 160:printer.c     **** 	}
 161:printer.c     ****     PRINTER_A_PutChar(LINE_FEED); 
 1035              		.loc 1 161 0 is_stmt 1
 1036 055c 464B     		ldr	r3, .L141+4
 1037 055e 1B78     		ldrb	r3, [r3]	@ zero_extendqisi2
 1038 0560 1846     		mov	r0, r3
 1039 0562 FFF7FEFF 		bl	PRINTER_A_PutChar
 1040              	.LBB16:
 162:printer.c     ****     for(uint8 x = 0; x < 13; x ++){
 1041              		.loc 1 162 0
 1042 0566 0023     		movs	r3, #0
 1043 0568 87F83930 		strb	r3, [r7, #57]
 1044 056c 0BE0     		b	.L31
 1045              	.L32:
 163:printer.c     **** 		PRINTER_A_PutChar(msn_venta[x]);
 1046              		.loc 1 163 0 discriminator 3
 1047 056e 97F83930 		ldrb	r3, [r7, #57]	@ zero_extendqisi2
 1048 0572 464A     		ldr	r2, .L141+24
 1049 0574 D35C     		ldrb	r3, [r2, r3]	@ zero_extendqisi2
 1050 0576 1846     		mov	r0, r3
 1051 0578 FFF7FEFF 		bl	PRINTER_A_PutChar
 162:printer.c     ****     for(uint8 x = 0; x < 13; x ++){
 1052              		.loc 1 162 0 discriminator 3
 1053 057c 97F83930 		ldrb	r3, [r7, #57]	@ zero_extendqisi2
 1054 0580 0133     		adds	r3, r3, #1
 1055 0582 87F83930 		strb	r3, [r7, #57]
 1056              	.L31:
 162:printer.c     ****     for(uint8 x = 0; x < 13; x ++){
 1057              		.loc 1 162 0 is_stmt 0 discriminator 1
 1058 0586 97F83930 		ldrb	r3, [r7, #57]	@ zero_extendqisi2
 1059 058a 0C2B     		cmp	r3, #12
 1060 058c EFD9     		bls	.L32
 1061              	.LBE16:
 1062              	.LBB17:
 164:printer.c     **** 	}
 165:printer.c     ****     for(uint8 x = 5; x > 0; x --){
 1063              		.loc 1 165 0 is_stmt 1
 1064 058e 0523     		movs	r3, #5
 1065 0590 87F83830 		strb	r3, [r7, #56]
 1066 0594 0BE0     		b	.L33
 1067              	.L34:
 166:printer.c     **** 		PRINTER_A_PutChar(sale_number[x]);
 1068              		.loc 1 166 0 discriminator 3
 1069 0596 97F83830 		ldrb	r3, [r7, #56]	@ zero_extendqisi2
 1070 059a 3D4A     		ldr	r2, .L141+28
 1071 059c D35C     		ldrb	r3, [r2, r3]	@ zero_extendqisi2
 1072 059e 1846     		mov	r0, r3
 1073 05a0 FFF7FEFF 		bl	PRINTER_A_PutChar
 165:printer.c     **** 		PRINTER_A_PutChar(sale_number[x]);
 1074              		.loc 1 165 0 discriminator 3
 1075 05a4 97F83830 		ldrb	r3, [r7, #56]	@ zero_extendqisi2
 1076 05a8 013B     		subs	r3, r3, #1
 1077 05aa 87F83830 		strb	r3, [r7, #56]
 1078              	.L33:
 165:printer.c     **** 		PRINTER_A_PutChar(sale_number[x]);
 1079              		.loc 1 165 0 is_stmt 0 discriminator 1
 1080 05ae 97F83830 		ldrb	r3, [r7, #56]	@ zero_extendqisi2
ARM GAS  C:\Users\THERMA~1\AppData\Local\Temp\cc965AVb.s 			page 26


 1081 05b2 002B     		cmp	r3, #0
 1082 05b4 EFD1     		bne	.L34
 1083              	.LBE17:
 167:printer.c     **** 	}
 168:printer.c     ****     PRINTER_A_PutChar(LINE_FEED);
 1084              		.loc 1 168 0 is_stmt 1
 1085 05b6 304B     		ldr	r3, .L141+4
 1086 05b8 1B78     		ldrb	r3, [r3]	@ zero_extendqisi2
 1087 05ba 1846     		mov	r0, r3
 1088 05bc FFF7FEFF 		bl	PRINTER_A_PutChar
 1089              	.LBB18:
 169:printer.c     **** 	for(uint8 x = 0; x < 13; x ++){
 1090              		.loc 1 169 0
 1091 05c0 0023     		movs	r3, #0
 1092 05c2 87F83730 		strb	r3, [r7, #55]
 1093 05c6 0BE0     		b	.L35
 1094              	.L36:
 170:printer.c     **** 		PRINTER_A_PutChar(msn_placa[x]);
 1095              		.loc 1 170 0 discriminator 3
 1096 05c8 97F83730 		ldrb	r3, [r7, #55]	@ zero_extendqisi2
 1097 05cc 314A     		ldr	r2, .L141+32
 1098 05ce D35C     		ldrb	r3, [r2, r3]	@ zero_extendqisi2
 1099 05d0 1846     		mov	r0, r3
 1100 05d2 FFF7FEFF 		bl	PRINTER_A_PutChar
 169:printer.c     **** 	for(uint8 x = 0; x < 13; x ++){
 1101              		.loc 1 169 0 discriminator 3
 1102 05d6 97F83730 		ldrb	r3, [r7, #55]	@ zero_extendqisi2
 1103 05da 0133     		adds	r3, r3, #1
 1104 05dc 87F83730 		strb	r3, [r7, #55]
 1105              	.L35:
 169:printer.c     **** 	for(uint8 x = 0; x < 13; x ++){
 1106              		.loc 1 169 0 is_stmt 0 discriminator 1
 1107 05e0 97F83730 		ldrb	r3, [r7, #55]	@ zero_extendqisi2
 1108 05e4 0C2B     		cmp	r3, #12
 1109 05e6 EFD9     		bls	.L36
 1110              	.LBE18:
 171:printer.c     **** 	}
 172:printer.c     **** 	/***** body ******/
 173:printer.c     **** 	if(address == side.a.dir){
 1111              		.loc 1 173 0 is_stmt 1
 1112 05e8 2B4B     		ldr	r3, .L141+36
 1113 05ea 1B78     		ldrb	r3, [r3]	@ zero_extendqisi2
 1114 05ec FA79     		ldrb	r2, [r7, #7]	@ zero_extendqisi2
 1115 05ee 9A42     		cmp	r2, r3
 1116 05f0 40F05381 		bne	.L37
 1117              	.LBB19:
 174:printer.c     **** 		for(uint8 x = 0; x < 8; x ++){
 1118              		.loc 1 174 0
 1119 05f4 0023     		movs	r3, #0
 1120 05f6 87F83630 		strb	r3, [r7, #54]
 1121 05fa 0DE0     		b	.L38
 1122              	.L39:
 175:printer.c     **** 			PRINTER_A_PutChar(side.a.msn_plate[x]);
 1123              		.loc 1 175 0 discriminator 3
 1124 05fc 97F83630 		ldrb	r3, [r7, #54]	@ zero_extendqisi2
 1125 0600 254A     		ldr	r2, .L141+36
 1126 0602 1344     		add	r3, r3, r2
ARM GAS  C:\Users\THERMA~1\AppData\Local\Temp\cc965AVb.s 			page 27


 1127 0604 93F82331 		ldrb	r3, [r3, #291]	@ zero_extendqisi2
 1128 0608 1846     		mov	r0, r3
 1129 060a FFF7FEFF 		bl	PRINTER_A_PutChar
 174:printer.c     **** 		for(uint8 x = 0; x < 8; x ++){
 1130              		.loc 1 174 0 discriminator 3
 1131 060e 97F83630 		ldrb	r3, [r7, #54]	@ zero_extendqisi2
 1132 0612 0133     		adds	r3, r3, #1
 1133 0614 87F83630 		strb	r3, [r7, #54]
 1134              	.L38:
 174:printer.c     **** 		for(uint8 x = 0; x < 8; x ++){
 1135              		.loc 1 174 0 is_stmt 0 discriminator 1
 1136 0618 97F83630 		ldrb	r3, [r7, #54]	@ zero_extendqisi2
 1137 061c 072B     		cmp	r3, #7
 1138 061e EDD9     		bls	.L39
 1139              	.LBE19:
 176:printer.c     **** 		}  
 177:printer.c     ****         PRINTER_A_PutChar(LINE_FEED);
 1140              		.loc 1 177 0 is_stmt 1
 1141 0620 154B     		ldr	r3, .L141+4
 1142 0622 1B78     		ldrb	r3, [r3]	@ zero_extendqisi2
 1143 0624 1846     		mov	r0, r3
 1144 0626 FFF7FEFF 		bl	PRINTER_A_PutChar
 1145              	.LBB20:
 178:printer.c     **** 		for(uint8 x = 0; x < 13; x ++){
 1146              		.loc 1 178 0
 1147 062a 0023     		movs	r3, #0
 1148 062c 87F83530 		strb	r3, [r7, #53]
 1149 0630 0BE0     		b	.L40
 1150              	.L41:
 179:printer.c     **** 			PRINTER_A_PutChar(msn_pos[x]);
 1151              		.loc 1 179 0 discriminator 3
 1152 0632 97F83530 		ldrb	r3, [r7, #53]	@ zero_extendqisi2
 1153 0636 194A     		ldr	r2, .L141+40
 1154 0638 D35C     		ldrb	r3, [r2, r3]	@ zero_extendqisi2
 1155 063a 1846     		mov	r0, r3
 1156 063c FFF7FEFF 		bl	PRINTER_A_PutChar
 178:printer.c     **** 		for(uint8 x = 0; x < 13; x ++){
 1157              		.loc 1 178 0 discriminator 3
 1158 0640 97F83530 		ldrb	r3, [r7, #53]	@ zero_extendqisi2
 1159 0644 0133     		adds	r3, r3, #1
 1160 0646 87F83530 		strb	r3, [r7, #53]
 1161              	.L40:
 178:printer.c     **** 		for(uint8 x = 0; x < 13; x ++){
 1162              		.loc 1 178 0 is_stmt 0 discriminator 1
 1163 064a 97F83530 		ldrb	r3, [r7, #53]	@ zero_extendqisi2
 1164 064e 0C2B     		cmp	r3, #12
 1165 0650 EFD9     		bls	.L41
 1166              	.LBE20:
 180:printer.c     **** 		}
 181:printer.c     **** 		PRINTER_A_PutChar((side.a.dir)+ 0x31);
 1167              		.loc 1 181 0 is_stmt 1
 1168 0652 114B     		ldr	r3, .L141+36
 1169 0654 1B78     		ldrb	r3, [r3]	@ zero_extendqisi2
 1170 0656 3133     		adds	r3, r3, #49
 1171 0658 DBB2     		uxtb	r3, r3
 1172 065a 1846     		mov	r0, r3
 1173 065c FFF7FEFF 		bl	PRINTER_A_PutChar
ARM GAS  C:\Users\THERMA~1\AppData\Local\Temp\cc965AVb.s 			page 28


 182:printer.c     **** 		PRINTER_A_PutChar(LINE_FEED);
 1174              		.loc 1 182 0
 1175 0660 054B     		ldr	r3, .L141+4
 1176 0662 1B78     		ldrb	r3, [r3]	@ zero_extendqisi2
 1177 0664 1846     		mov	r0, r3
 1178 0666 FFF7FEFF 		bl	PRINTER_A_PutChar
 1179              	.LBB21:
 183:printer.c     **** 		for(uint8 x = 0; x < 13; x ++){
 1180              		.loc 1 183 0
 1181 066a 0023     		movs	r3, #0
 1182 066c 87F83430 		strb	r3, [r7, #52]
 1183 0670 22E0     		b	.L42
 1184              	.L142:
 1185 0672 00BF     		.align	2
 1186              	.L141:
 1187 0674 00000000 		.word	msn_EDS7
 1188 0678 00000000 		.word	LINE_FEED
 1189 067c 00000000 		.word	SEPARATOR
 1190 0680 00000000 		.word	msn_fecha
 1191 0684 00000000 		.word	touch1
 1192 0688 00000000 		.word	msn_hora
 1193 068c 00000000 		.word	msn_venta
 1194 0690 00000000 		.word	sale_number
 1195 0694 00000000 		.word	msn_placa
 1196 0698 00000000 		.word	side
 1197 069c 00000000 		.word	msn_pos
 1198              	.L43:
 184:printer.c     **** 			PRINTER_A_PutChar(msn_product[x]);
 1199              		.loc 1 184 0 discriminator 3
 1200 06a0 97F83430 		ldrb	r3, [r7, #52]	@ zero_extendqisi2
 1201 06a4 CE4A     		ldr	r2, .L143
 1202 06a6 D35C     		ldrb	r3, [r2, r3]	@ zero_extendqisi2
 1203 06a8 1846     		mov	r0, r3
 1204 06aa FFF7FEFF 		bl	PRINTER_A_PutChar
 183:printer.c     **** 		for(uint8 x = 0; x < 13; x ++){
 1205              		.loc 1 183 0 discriminator 3
 1206 06ae 97F83430 		ldrb	r3, [r7, #52]	@ zero_extendqisi2
 1207 06b2 0133     		adds	r3, r3, #1
 1208 06b4 87F83430 		strb	r3, [r7, #52]
 1209              	.L42:
 183:printer.c     **** 		for(uint8 x = 0; x < 13; x ++){
 1210              		.loc 1 183 0 is_stmt 0 discriminator 1
 1211 06b8 97F83430 		ldrb	r3, [r7, #52]	@ zero_extendqisi2
 1212 06bc 0C2B     		cmp	r3, #12
 1213 06be EFD9     		bls	.L43
 1214              	.LBE21:
 185:printer.c     **** 		}
 186:printer.c     ****         if(side.a.Nozzle == 0x01){
 1215              		.loc 1 186 0 is_stmt 1
 1216 06c0 C84B     		ldr	r3, .L143+4
 1217 06c2 93F82C31 		ldrb	r3, [r3, #300]	@ zero_extendqisi2
 1218 06c6 012B     		cmp	r3, #1
 1219 06c8 14D1     		bne	.L44
 1220              	.LBB22:
 187:printer.c     ****     		for(uint8 x = 0; x < 9; x ++){
 1221              		.loc 1 187 0
 1222 06ca 0023     		movs	r3, #0
ARM GAS  C:\Users\THERMA~1\AppData\Local\Temp\cc965AVb.s 			page 29


 1223 06cc 87F83330 		strb	r3, [r7, #51]
 1224 06d0 0BE0     		b	.L45
 1225              	.L46:
 188:printer.c     ****     			PRINTER_A_PutChar(msn_diesel[x]);
 1226              		.loc 1 188 0 discriminator 3
 1227 06d2 97F83330 		ldrb	r3, [r7, #51]	@ zero_extendqisi2
 1228 06d6 C44A     		ldr	r2, .L143+8
 1229 06d8 D35C     		ldrb	r3, [r2, r3]	@ zero_extendqisi2
 1230 06da 1846     		mov	r0, r3
 1231 06dc FFF7FEFF 		bl	PRINTER_A_PutChar
 187:printer.c     ****     		for(uint8 x = 0; x < 9; x ++){
 1232              		.loc 1 187 0 discriminator 3
 1233 06e0 97F83330 		ldrb	r3, [r7, #51]	@ zero_extendqisi2
 1234 06e4 0133     		adds	r3, r3, #1
 1235 06e6 87F83330 		strb	r3, [r7, #51]
 1236              	.L45:
 187:printer.c     ****     		for(uint8 x = 0; x < 9; x ++){
 1237              		.loc 1 187 0 is_stmt 0 discriminator 1
 1238 06ea 97F83330 		ldrb	r3, [r7, #51]	@ zero_extendqisi2
 1239 06ee 082B     		cmp	r3, #8
 1240 06f0 EFD9     		bls	.L46
 1241 06f2 13E0     		b	.L47
 1242              	.L44:
 1243              	.LBE22:
 1244              	.LBB23:
 189:printer.c     ****     		}
 190:printer.c     ****         }else{
 191:printer.c     ****             for(uint8 x = 0; x < 9; x ++){
 1245              		.loc 1 191 0 is_stmt 1
 1246 06f4 0023     		movs	r3, #0
 1247 06f6 87F83230 		strb	r3, [r7, #50]
 1248 06fa 0BE0     		b	.L48
 1249              	.L49:
 192:printer.c     ****     			PRINTER_A_PutChar(msn_gasoline[x]);
 1250              		.loc 1 192 0 discriminator 3
 1251 06fc 97F83230 		ldrb	r3, [r7, #50]	@ zero_extendqisi2
 1252 0700 BA4A     		ldr	r2, .L143+12
 1253 0702 D35C     		ldrb	r3, [r2, r3]	@ zero_extendqisi2
 1254 0704 1846     		mov	r0, r3
 1255 0706 FFF7FEFF 		bl	PRINTER_A_PutChar
 191:printer.c     ****     			PRINTER_A_PutChar(msn_gasoline[x]);
 1256              		.loc 1 191 0 discriminator 3
 1257 070a 97F83230 		ldrb	r3, [r7, #50]	@ zero_extendqisi2
 1258 070e 0133     		adds	r3, r3, #1
 1259 0710 87F83230 		strb	r3, [r7, #50]
 1260              	.L48:
 191:printer.c     ****     			PRINTER_A_PutChar(msn_gasoline[x]);
 1261              		.loc 1 191 0 is_stmt 0 discriminator 1
 1262 0714 97F83230 		ldrb	r3, [r7, #50]	@ zero_extendqisi2
 1263 0718 082B     		cmp	r3, #8
 1264 071a EFD9     		bls	.L49
 1265              	.L47:
 1266              	.LBE23:
 193:printer.c     ****     		}
 194:printer.c     ****         }        
 195:printer.c     ****         PRINTER_A_PutChar(LINE_FEED);
 1267              		.loc 1 195 0 is_stmt 1
ARM GAS  C:\Users\THERMA~1\AppData\Local\Temp\cc965AVb.s 			page 30


 1268 071c B44B     		ldr	r3, .L143+16
 1269 071e 1B78     		ldrb	r3, [r3]	@ zero_extendqisi2
 1270 0720 1846     		mov	r0, r3
 1271 0722 FFF7FEFF 		bl	PRINTER_A_PutChar
 1272              	.LBB24:
 196:printer.c     **** 		for(uint8 x = 0; x < 13; x ++){
 1273              		.loc 1 196 0
 1274 0726 0023     		movs	r3, #0
 1275 0728 87F83130 		strb	r3, [r7, #49]
 1276 072c 0BE0     		b	.L50
 1277              	.L51:
 197:printer.c     **** 			PRINTER_A_PutChar(msn_vol[x]);
 1278              		.loc 1 197 0 discriminator 3
 1279 072e 97F83130 		ldrb	r3, [r7, #49]	@ zero_extendqisi2
 1280 0732 B04A     		ldr	r2, .L143+20
 1281 0734 D35C     		ldrb	r3, [r2, r3]	@ zero_extendqisi2
 1282 0736 1846     		mov	r0, r3
 1283 0738 FFF7FEFF 		bl	PRINTER_A_PutChar
 196:printer.c     **** 		for(uint8 x = 0; x < 13; x ++){
 1284              		.loc 1 196 0 discriminator 3
 1285 073c 97F83130 		ldrb	r3, [r7, #49]	@ zero_extendqisi2
 1286 0740 0133     		adds	r3, r3, #1
 1287 0742 87F83130 		strb	r3, [r7, #49]
 1288              	.L50:
 196:printer.c     **** 		for(uint8 x = 0; x < 13; x ++){
 1289              		.loc 1 196 0 is_stmt 0 discriminator 1
 1290 0746 97F83130 		ldrb	r3, [r7, #49]	@ zero_extendqisi2
 1291 074a 0C2B     		cmp	r3, #12
 1292 074c EFD9     		bls	.L51
 1293              	.LBE24:
 1294              	.LBB25:
 198:printer.c     **** 		}
 199:printer.c     **** 		for(uint8 x = 0; x < 8; x ++){
 1295              		.loc 1 199 0 is_stmt 1
 1296 074e 0023     		movs	r3, #0
 1297 0750 87F83030 		strb	r3, [r7, #48]
 1298 0754 18E0     		b	.L52
 1299              	.L54:
 200:printer.c     **** 			if((8-x) == DecVol)
 1300              		.loc 1 200 0
 1301 0756 97F83030 		ldrb	r3, [r7, #48]	@ zero_extendqisi2
 1302 075a C3F10803 		rsb	r3, r3, #8
 1303 075e A64A     		ldr	r2, .L143+24
 1304 0760 1278     		ldrb	r2, [r2]	@ zero_extendqisi2
 1305 0762 9342     		cmp	r3, r2
 1306 0764 02D1     		bne	.L53
 201:printer.c     **** 				PRINTER_A_PutChar('.');
 1307              		.loc 1 201 0
 1308 0766 2E20     		movs	r0, #46
 1309 0768 FFF7FEFF 		bl	PRINTER_A_PutChar
 1310              	.L53:
 202:printer.c     **** 			PRINTER_A_PutChar(side.a.ProcessedvolumeSale[x]);        
 1311              		.loc 1 202 0 discriminator 2
 1312 076c 97F83030 		ldrb	r3, [r7, #48]	@ zero_extendqisi2
 1313 0770 9C4A     		ldr	r2, .L143+4
 1314 0772 1344     		add	r3, r3, r2
 1315 0774 93F80331 		ldrb	r3, [r3, #259]	@ zero_extendqisi2
ARM GAS  C:\Users\THERMA~1\AppData\Local\Temp\cc965AVb.s 			page 31


 1316 0778 1846     		mov	r0, r3
 1317 077a FFF7FEFF 		bl	PRINTER_A_PutChar
 199:printer.c     **** 			if((8-x) == DecVol)
 1318              		.loc 1 199 0 discriminator 2
 1319 077e 97F83030 		ldrb	r3, [r7, #48]	@ zero_extendqisi2
 1320 0782 0133     		adds	r3, r3, #1
 1321 0784 87F83030 		strb	r3, [r7, #48]
 1322              	.L52:
 199:printer.c     **** 			if((8-x) == DecVol)
 1323              		.loc 1 199 0 is_stmt 0 discriminator 1
 1324 0788 97F83030 		ldrb	r3, [r7, #48]	@ zero_extendqisi2
 1325 078c 072B     		cmp	r3, #7
 1326 078e E2D9     		bls	.L54
 1327              	.LBE25:
 203:printer.c     **** 		}
 204:printer.c     **** 		PRINTER_A_PutChar(' ');
 1328              		.loc 1 204 0 is_stmt 1
 1329 0790 2020     		movs	r0, #32
 1330 0792 FFF7FEFF 		bl	PRINTER_A_PutChar
 205:printer.c     **** 		PRINTER_A_PutChar(VolSimbol[0]);
 1331              		.loc 1 205 0
 1332 0796 994B     		ldr	r3, .L143+28
 1333 0798 1B78     		ldrb	r3, [r3]	@ zero_extendqisi2
 1334 079a 1846     		mov	r0, r3
 1335 079c FFF7FEFF 		bl	PRINTER_A_PutChar
 206:printer.c     **** 		PRINTER_A_PutChar(LINE_FEED); 
 1336              		.loc 1 206 0
 1337 07a0 934B     		ldr	r3, .L143+16
 1338 07a2 1B78     		ldrb	r3, [r3]	@ zero_extendqisi2
 1339 07a4 1846     		mov	r0, r3
 1340 07a6 FFF7FEFF 		bl	PRINTER_A_PutChar
 1341              	.LBB26:
 207:printer.c     **** 		for(uint8 x = 0; x < 13; x ++){
 1342              		.loc 1 207 0
 1343 07aa 0023     		movs	r3, #0
 1344 07ac 87F82F30 		strb	r3, [r7, #47]
 1345 07b0 0BE0     		b	.L55
 1346              	.L56:
 208:printer.c     **** 			PRINTER_A_PutChar(msn_din[x]);
 1347              		.loc 1 208 0 discriminator 3
 1348 07b2 97F82F30 		ldrb	r3, [r7, #47]	@ zero_extendqisi2
 1349 07b6 924A     		ldr	r2, .L143+32
 1350 07b8 D35C     		ldrb	r3, [r2, r3]	@ zero_extendqisi2
 1351 07ba 1846     		mov	r0, r3
 1352 07bc FFF7FEFF 		bl	PRINTER_A_PutChar
 207:printer.c     **** 		for(uint8 x = 0; x < 13; x ++){
 1353              		.loc 1 207 0 discriminator 3
 1354 07c0 97F82F30 		ldrb	r3, [r7, #47]	@ zero_extendqisi2
 1355 07c4 0133     		adds	r3, r3, #1
 1356 07c6 87F82F30 		strb	r3, [r7, #47]
 1357              	.L55:
 207:printer.c     **** 		for(uint8 x = 0; x < 13; x ++){
 1358              		.loc 1 207 0 is_stmt 0 discriminator 1
 1359 07ca 97F82F30 		ldrb	r3, [r7, #47]	@ zero_extendqisi2
 1360 07ce 0C2B     		cmp	r3, #12
 1361 07d0 EFD9     		bls	.L56
 1362              	.LBE26:
ARM GAS  C:\Users\THERMA~1\AppData\Local\Temp\cc965AVb.s 			page 32


 209:printer.c     **** 		}     
 210:printer.c     **** 		PRINTER_A_PutChar(PRN_CURRENCY[0]);  
 1363              		.loc 1 210 0 is_stmt 1
 1364 07d2 8C4B     		ldr	r3, .L143+36
 1365 07d4 1B78     		ldrb	r3, [r3]	@ zero_extendqisi2
 1366 07d6 1846     		mov	r0, r3
 1367 07d8 FFF7FEFF 		bl	PRINTER_A_PutChar
 211:printer.c     **** 		PRINTER_A_PutChar(' ');
 1368              		.loc 1 211 0
 1369 07dc 2020     		movs	r0, #32
 1370 07de FFF7FEFF 		bl	PRINTER_A_PutChar
 1371              	.LBB27:
 212:printer.c     **** 		for(uint8 x = 0; x < 8; x ++){
 1372              		.loc 1 212 0
 1373 07e2 0023     		movs	r3, #0
 1374 07e4 87F82E30 		strb	r3, [r7, #46]
 1375 07e8 0DE0     		b	.L57
 1376              	.L58:
 213:printer.c     **** 			PRINTER_A_PutChar(side.a.ProcessedmoneySale[x]);
 1377              		.loc 1 213 0 discriminator 3
 1378 07ea 97F82E30 		ldrb	r3, [r7, #46]	@ zero_extendqisi2
 1379 07ee 7D4A     		ldr	r2, .L143+4
 1380 07f0 1344     		add	r3, r3, r2
 1381 07f2 93F8FB30 		ldrb	r3, [r3, #251]	@ zero_extendqisi2
 1382 07f6 1846     		mov	r0, r3
 1383 07f8 FFF7FEFF 		bl	PRINTER_A_PutChar
 212:printer.c     **** 		for(uint8 x = 0; x < 8; x ++){
 1384              		.loc 1 212 0 discriminator 3
 1385 07fc 97F82E30 		ldrb	r3, [r7, #46]	@ zero_extendqisi2
 1386 0800 0133     		adds	r3, r3, #1
 1387 0802 87F82E30 		strb	r3, [r7, #46]
 1388              	.L57:
 212:printer.c     **** 		for(uint8 x = 0; x < 8; x ++){
 1389              		.loc 1 212 0 is_stmt 0 discriminator 1
 1390 0806 97F82E30 		ldrb	r3, [r7, #46]	@ zero_extendqisi2
 1391 080a 072B     		cmp	r3, #7
 1392 080c EDD9     		bls	.L58
 1393              	.LBE27:
 214:printer.c     **** 		}
 215:printer.c     **** 		PRINTER_A_PutChar(LINE_FEED); 	
 1394              		.loc 1 215 0 is_stmt 1
 1395 080e 784B     		ldr	r3, .L143+16
 1396 0810 1B78     		ldrb	r3, [r3]	@ zero_extendqisi2
 1397 0812 1846     		mov	r0, r3
 1398 0814 FFF7FEFF 		bl	PRINTER_A_PutChar
 1399              	.LBB28:
 216:printer.c     **** 		for(uint8 x = 0; x < 13; x ++){
 1400              		.loc 1 216 0
 1401 0818 0023     		movs	r3, #0
 1402 081a 87F82D30 		strb	r3, [r7, #45]
 1403 081e 0BE0     		b	.L59
 1404              	.L60:
 217:printer.c     **** 			PRINTER_A_PutChar(msn_ppu[x]);
 1405              		.loc 1 217 0 discriminator 3
 1406 0820 97F82D30 		ldrb	r3, [r7, #45]	@ zero_extendqisi2
 1407 0824 784A     		ldr	r2, .L143+40
 1408 0826 D35C     		ldrb	r3, [r2, r3]	@ zero_extendqisi2
ARM GAS  C:\Users\THERMA~1\AppData\Local\Temp\cc965AVb.s 			page 33


 1409 0828 1846     		mov	r0, r3
 1410 082a FFF7FEFF 		bl	PRINTER_A_PutChar
 216:printer.c     **** 		for(uint8 x = 0; x < 13; x ++){
 1411              		.loc 1 216 0 discriminator 3
 1412 082e 97F82D30 		ldrb	r3, [r7, #45]	@ zero_extendqisi2
 1413 0832 0133     		adds	r3, r3, #1
 1414 0834 87F82D30 		strb	r3, [r7, #45]
 1415              	.L59:
 216:printer.c     **** 		for(uint8 x = 0; x < 13; x ++){
 1416              		.loc 1 216 0 is_stmt 0 discriminator 1
 1417 0838 97F82D30 		ldrb	r3, [r7, #45]	@ zero_extendqisi2
 1418 083c 0C2B     		cmp	r3, #12
 1419 083e EFD9     		bls	.L60
 1420              	.LBE28:
 218:printer.c     **** 		}
 219:printer.c     **** 		PRINTER_A_PutChar(PRN_CURRENCY[0]);  
 1421              		.loc 1 219 0 is_stmt 1
 1422 0840 704B     		ldr	r3, .L143+36
 1423 0842 1B78     		ldrb	r3, [r3]	@ zero_extendqisi2
 1424 0844 1846     		mov	r0, r3
 1425 0846 FFF7FEFF 		bl	PRINTER_A_PutChar
 220:printer.c     **** 		PRINTER_A_PutChar(' ');
 1426              		.loc 1 220 0
 1427 084a 2020     		movs	r0, #32
 1428 084c FFF7FEFF 		bl	PRINTER_A_PutChar
 1429              	.LBB29:
 221:printer.c     **** 		for(uint8 x = 1; x < 6; x ++){
 1430              		.loc 1 221 0
 1431 0850 0123     		movs	r3, #1
 1432 0852 87F82C30 		strb	r3, [r7, #44]
 1433 0856 17E0     		b	.L61
 1434              	.L62:
 222:printer.c     **** 			PRINTER_A_PutChar(side.a.ProcessedPPU[side.a.Nozzle-1][x]);
 1435              		.loc 1 222 0 discriminator 3
 1436 0858 624B     		ldr	r3, .L143+4
 1437 085a 93F82C31 		ldrb	r3, [r3, #300]	@ zero_extendqisi2
 1438 085e 5A1E     		subs	r2, r3, #1
 1439 0860 97F82C10 		ldrb	r1, [r7, #44]	@ zero_extendqisi2
 1440 0864 5F48     		ldr	r0, .L143+4
 1441 0866 1346     		mov	r3, r2
 1442 0868 5B00     		lsls	r3, r3, #1
 1443 086a 1344     		add	r3, r3, r2
 1444 086c 5B00     		lsls	r3, r3, #1
 1445 086e 0344     		add	r3, r3, r0
 1446 0870 0B44     		add	r3, r3, r1
 1447 0872 03F20B13 		addw	r3, r3, #267
 1448 0876 1B78     		ldrb	r3, [r3]	@ zero_extendqisi2
 1449 0878 1846     		mov	r0, r3
 1450 087a FFF7FEFF 		bl	PRINTER_A_PutChar
 221:printer.c     **** 		for(uint8 x = 1; x < 6; x ++){
 1451              		.loc 1 221 0 discriminator 3
 1452 087e 97F82C30 		ldrb	r3, [r7, #44]	@ zero_extendqisi2
 1453 0882 0133     		adds	r3, r3, #1
 1454 0884 87F82C30 		strb	r3, [r7, #44]
 1455              	.L61:
 221:printer.c     **** 		for(uint8 x = 1; x < 6; x ++){
 1456              		.loc 1 221 0 is_stmt 0 discriminator 1
ARM GAS  C:\Users\THERMA~1\AppData\Local\Temp\cc965AVb.s 			page 34


 1457 0888 97F82C30 		ldrb	r3, [r7, #44]	@ zero_extendqisi2
 1458 088c 052B     		cmp	r3, #5
 1459 088e E3D9     		bls	.L62
 1460              	.LBE29:
 223:printer.c     **** 		}
 224:printer.c     **** 		PRINTER_A_PutChar(LINE_FEED);
 1461              		.loc 1 224 0 is_stmt 1
 1462 0890 574B     		ldr	r3, .L143+16
 1463 0892 1B78     		ldrb	r3, [r3]	@ zero_extendqisi2
 1464 0894 1846     		mov	r0, r3
 1465 0896 FFF7FEFF 		bl	PRINTER_A_PutChar
 1466              	.L37:
 225:printer.c     **** 	}
 226:printer.c     **** 	
 227:printer.c     **** 	if(address == side.b.dir){
 1467              		.loc 1 227 0
 1468 089a 524B     		ldr	r3, .L143+4
 1469 089c 93F82D31 		ldrb	r3, [r3, #301]	@ zero_extendqisi2
 1470 08a0 FA79     		ldrb	r2, [r7, #7]	@ zero_extendqisi2
 1471 08a2 9A42     		cmp	r2, r3
 1472 08a4 40F05681 		bne	.L63
 1473              	.LBB30:
 228:printer.c     **** 		for(uint8 x = 0; x < 8; x ++){
 1474              		.loc 1 228 0
 1475 08a8 0023     		movs	r3, #0
 1476 08aa 87F82B30 		strb	r3, [r7, #43]
 1477 08ae 0DE0     		b	.L64
 1478              	.L65:
 229:printer.c     **** 			PRINTER_A_PutChar(side.b.msn_plate[x]);
 1479              		.loc 1 229 0 discriminator 3
 1480 08b0 97F82B30 		ldrb	r3, [r7, #43]	@ zero_extendqisi2
 1481 08b4 4B4A     		ldr	r2, .L143+4
 1482 08b6 1344     		add	r3, r3, r2
 1483 08b8 93F85032 		ldrb	r3, [r3, #592]	@ zero_extendqisi2
 1484 08bc 1846     		mov	r0, r3
 1485 08be FFF7FEFF 		bl	PRINTER_A_PutChar
 228:printer.c     **** 		for(uint8 x = 0; x < 8; x ++){
 1486              		.loc 1 228 0 discriminator 3
 1487 08c2 97F82B30 		ldrb	r3, [r7, #43]	@ zero_extendqisi2
 1488 08c6 0133     		adds	r3, r3, #1
 1489 08c8 87F82B30 		strb	r3, [r7, #43]
 1490              	.L64:
 228:printer.c     **** 		for(uint8 x = 0; x < 8; x ++){
 1491              		.loc 1 228 0 is_stmt 0 discriminator 1
 1492 08cc 97F82B30 		ldrb	r3, [r7, #43]	@ zero_extendqisi2
 1493 08d0 072B     		cmp	r3, #7
 1494 08d2 EDD9     		bls	.L65
 1495              	.LBE30:
 230:printer.c     **** 		}
 231:printer.c     ****         PRINTER_A_PutChar(LINE_FEED);
 1496              		.loc 1 231 0 is_stmt 1
 1497 08d4 464B     		ldr	r3, .L143+16
 1498 08d6 1B78     		ldrb	r3, [r3]	@ zero_extendqisi2
 1499 08d8 1846     		mov	r0, r3
 1500 08da FFF7FEFF 		bl	PRINTER_A_PutChar
 1501              	.LBB31:
 232:printer.c     **** 		for(uint8 x = 0; x < 13; x ++){
ARM GAS  C:\Users\THERMA~1\AppData\Local\Temp\cc965AVb.s 			page 35


 1502              		.loc 1 232 0
 1503 08de 0023     		movs	r3, #0
 1504 08e0 87F82A30 		strb	r3, [r7, #42]
 1505 08e4 0BE0     		b	.L66
 1506              	.L67:
 233:printer.c     **** 			PRINTER_A_PutChar(msn_pos[x]);
 1507              		.loc 1 233 0 discriminator 3
 1508 08e6 97F82A30 		ldrb	r3, [r7, #42]	@ zero_extendqisi2
 1509 08ea 484A     		ldr	r2, .L143+44
 1510 08ec D35C     		ldrb	r3, [r2, r3]	@ zero_extendqisi2
 1511 08ee 1846     		mov	r0, r3
 1512 08f0 FFF7FEFF 		bl	PRINTER_A_PutChar
 232:printer.c     **** 		for(uint8 x = 0; x < 13; x ++){
 1513              		.loc 1 232 0 discriminator 3
 1514 08f4 97F82A30 		ldrb	r3, [r7, #42]	@ zero_extendqisi2
 1515 08f8 0133     		adds	r3, r3, #1
 1516 08fa 87F82A30 		strb	r3, [r7, #42]
 1517              	.L66:
 232:printer.c     **** 		for(uint8 x = 0; x < 13; x ++){
 1518              		.loc 1 232 0 is_stmt 0 discriminator 1
 1519 08fe 97F82A30 		ldrb	r3, [r7, #42]	@ zero_extendqisi2
 1520 0902 0C2B     		cmp	r3, #12
 1521 0904 EFD9     		bls	.L67
 1522              	.LBE31:
 234:printer.c     **** 		}
 235:printer.c     **** 		PRINTER_A_PutChar((side.b.dir)+ 0x31);
 1523              		.loc 1 235 0 is_stmt 1
 1524 0906 374B     		ldr	r3, .L143+4
 1525 0908 93F82D31 		ldrb	r3, [r3, #301]	@ zero_extendqisi2
 1526 090c 3133     		adds	r3, r3, #49
 1527 090e DBB2     		uxtb	r3, r3
 1528 0910 1846     		mov	r0, r3
 1529 0912 FFF7FEFF 		bl	PRINTER_A_PutChar
 236:printer.c     **** 		PRINTER_A_PutChar(LINE_FEED);
 1530              		.loc 1 236 0
 1531 0916 364B     		ldr	r3, .L143+16
 1532 0918 1B78     		ldrb	r3, [r3]	@ zero_extendqisi2
 1533 091a 1846     		mov	r0, r3
 1534 091c FFF7FEFF 		bl	PRINTER_A_PutChar
 1535              	.LBB32:
 237:printer.c     **** 		for(uint8 x = 0; x < 13; x ++){
 1536              		.loc 1 237 0
 1537 0920 0023     		movs	r3, #0
 1538 0922 87F82930 		strb	r3, [r7, #41]
 1539 0926 0BE0     		b	.L68
 1540              	.L69:
 238:printer.c     **** 			PRINTER_A_PutChar(msn_product[x]);
 1541              		.loc 1 238 0 discriminator 3
 1542 0928 97F82930 		ldrb	r3, [r7, #41]	@ zero_extendqisi2
 1543 092c 2C4A     		ldr	r2, .L143
 1544 092e D35C     		ldrb	r3, [r2, r3]	@ zero_extendqisi2
 1545 0930 1846     		mov	r0, r3
 1546 0932 FFF7FEFF 		bl	PRINTER_A_PutChar
 237:printer.c     **** 		for(uint8 x = 0; x < 13; x ++){
 1547              		.loc 1 237 0 discriminator 3
 1548 0936 97F82930 		ldrb	r3, [r7, #41]	@ zero_extendqisi2
 1549 093a 0133     		adds	r3, r3, #1
ARM GAS  C:\Users\THERMA~1\AppData\Local\Temp\cc965AVb.s 			page 36


 1550 093c 87F82930 		strb	r3, [r7, #41]
 1551              	.L68:
 237:printer.c     **** 		for(uint8 x = 0; x < 13; x ++){
 1552              		.loc 1 237 0 is_stmt 0 discriminator 1
 1553 0940 97F82930 		ldrb	r3, [r7, #41]	@ zero_extendqisi2
 1554 0944 0C2B     		cmp	r3, #12
 1555 0946 EFD9     		bls	.L69
 1556              	.LBE32:
 239:printer.c     **** 		}
 240:printer.c     **** 		if(side.b.Nozzle == 0x02){
 1557              		.loc 1 240 0 is_stmt 1
 1558 0948 264B     		ldr	r3, .L143+4
 1559 094a 93F85932 		ldrb	r3, [r3, #601]	@ zero_extendqisi2
 1560 094e 022B     		cmp	r3, #2
 1561 0950 14D1     		bne	.L70
 1562              	.LBB33:
 241:printer.c     ****     		for(uint8 x = 0; x < 9; x ++){
 1563              		.loc 1 241 0
 1564 0952 0023     		movs	r3, #0
 1565 0954 87F82830 		strb	r3, [r7, #40]
 1566 0958 0BE0     		b	.L71
 1567              	.L72:
 242:printer.c     ****     			PRINTER_A_PutChar(msn_diesel[x]);
 1568              		.loc 1 242 0 discriminator 3
 1569 095a 97F82830 		ldrb	r3, [r7, #40]	@ zero_extendqisi2
 1570 095e 224A     		ldr	r2, .L143+8
 1571 0960 D35C     		ldrb	r3, [r2, r3]	@ zero_extendqisi2
 1572 0962 1846     		mov	r0, r3
 1573 0964 FFF7FEFF 		bl	PRINTER_A_PutChar
 241:printer.c     ****     		for(uint8 x = 0; x < 9; x ++){
 1574              		.loc 1 241 0 discriminator 3
 1575 0968 97F82830 		ldrb	r3, [r7, #40]	@ zero_extendqisi2
 1576 096c 0133     		adds	r3, r3, #1
 1577 096e 87F82830 		strb	r3, [r7, #40]
 1578              	.L71:
 241:printer.c     ****     		for(uint8 x = 0; x < 9; x ++){
 1579              		.loc 1 241 0 is_stmt 0 discriminator 1
 1580 0972 97F82830 		ldrb	r3, [r7, #40]	@ zero_extendqisi2
 1581 0976 082B     		cmp	r3, #8
 1582 0978 EFD9     		bls	.L72
 1583 097a 13E0     		b	.L73
 1584              	.L70:
 1585              	.LBE33:
 1586              	.LBB34:
 243:printer.c     ****     		}
 244:printer.c     ****         }else{
 245:printer.c     ****             for(uint8 x = 0; x < 9; x ++){
 1587              		.loc 1 245 0 is_stmt 1
 1588 097c 0023     		movs	r3, #0
 1589 097e 87F82730 		strb	r3, [r7, #39]
 1590 0982 0BE0     		b	.L74
 1591              	.L75:
 246:printer.c     ****     			PRINTER_A_PutChar(msn_gasoline[x]);
 1592              		.loc 1 246 0 discriminator 3
 1593 0984 97F82730 		ldrb	r3, [r7, #39]	@ zero_extendqisi2
 1594 0988 184A     		ldr	r2, .L143+12
 1595 098a D35C     		ldrb	r3, [r2, r3]	@ zero_extendqisi2
ARM GAS  C:\Users\THERMA~1\AppData\Local\Temp\cc965AVb.s 			page 37


 1596 098c 1846     		mov	r0, r3
 1597 098e FFF7FEFF 		bl	PRINTER_A_PutChar
 245:printer.c     ****     			PRINTER_A_PutChar(msn_gasoline[x]);
 1598              		.loc 1 245 0 discriminator 3
 1599 0992 97F82730 		ldrb	r3, [r7, #39]	@ zero_extendqisi2
 1600 0996 0133     		adds	r3, r3, #1
 1601 0998 87F82730 		strb	r3, [r7, #39]
 1602              	.L74:
 245:printer.c     ****     			PRINTER_A_PutChar(msn_gasoline[x]);
 1603              		.loc 1 245 0 is_stmt 0 discriminator 1
 1604 099c 97F82730 		ldrb	r3, [r7, #39]	@ zero_extendqisi2
 1605 09a0 082B     		cmp	r3, #8
 1606 09a2 EFD9     		bls	.L75
 1607              	.L73:
 1608              	.LBE34:
 247:printer.c     ****     		}
 248:printer.c     ****         }
 249:printer.c     ****         PRINTER_A_PutChar(LINE_FEED);
 1609              		.loc 1 249 0 is_stmt 1
 1610 09a4 124B     		ldr	r3, .L143+16
 1611 09a6 1B78     		ldrb	r3, [r3]	@ zero_extendqisi2
 1612 09a8 1846     		mov	r0, r3
 1613 09aa FFF7FEFF 		bl	PRINTER_A_PutChar
 1614              	.LBB35:
 250:printer.c     **** 		for(uint8 x = 0; x < 13; x ++){
 1615              		.loc 1 250 0
 1616 09ae 0023     		movs	r3, #0
 1617 09b0 87F82630 		strb	r3, [r7, #38]
 1618 09b4 0BE0     		b	.L76
 1619              	.L77:
 251:printer.c     **** 			PRINTER_A_PutChar(msn_vol[x]);
 1620              		.loc 1 251 0 discriminator 3
 1621 09b6 97F82630 		ldrb	r3, [r7, #38]	@ zero_extendqisi2
 1622 09ba 0E4A     		ldr	r2, .L143+20
 1623 09bc D35C     		ldrb	r3, [r2, r3]	@ zero_extendqisi2
 1624 09be 1846     		mov	r0, r3
 1625 09c0 FFF7FEFF 		bl	PRINTER_A_PutChar
 250:printer.c     **** 		for(uint8 x = 0; x < 13; x ++){
 1626              		.loc 1 250 0 discriminator 3
 1627 09c4 97F82630 		ldrb	r3, [r7, #38]	@ zero_extendqisi2
 1628 09c8 0133     		adds	r3, r3, #1
 1629 09ca 87F82630 		strb	r3, [r7, #38]
 1630              	.L76:
 250:printer.c     **** 		for(uint8 x = 0; x < 13; x ++){
 1631              		.loc 1 250 0 is_stmt 0 discriminator 1
 1632 09ce 97F82630 		ldrb	r3, [r7, #38]	@ zero_extendqisi2
 1633 09d2 0C2B     		cmp	r3, #12
 1634 09d4 EFD9     		bls	.L77
 1635              	.LBE35:
 1636              	.LBB36:
 252:printer.c     **** 		}
 253:printer.c     **** 		for(uint8 x = 0; x < 8; x ++){
 1637              		.loc 1 253 0 is_stmt 1
 1638 09d6 0023     		movs	r3, #0
 1639 09d8 87F82530 		strb	r3, [r7, #37]
 1640 09dc 31E0     		b	.L78
 1641              	.L144:
ARM GAS  C:\Users\THERMA~1\AppData\Local\Temp\cc965AVb.s 			page 38


 1642 09de 00BF     		.align	2
 1643              	.L143:
 1644 09e0 00000000 		.word	msn_product
 1645 09e4 00000000 		.word	side
 1646 09e8 00000000 		.word	msn_diesel
 1647 09ec 00000000 		.word	msn_gasoline
 1648 09f0 00000000 		.word	LINE_FEED
 1649 09f4 00000000 		.word	msn_vol
 1650 09f8 00000000 		.word	DecVol
 1651 09fc 00000000 		.word	VolSimbol
 1652 0a00 00000000 		.word	msn_din
 1653 0a04 00000000 		.word	PRN_CURRENCY
 1654 0a08 00000000 		.word	msn_ppu
 1655 0a0c 00000000 		.word	msn_pos
 1656              	.L80:
 254:printer.c     **** 			if((8-x) == DecVol)
 1657              		.loc 1 254 0
 1658 0a10 97F82530 		ldrb	r3, [r7, #37]	@ zero_extendqisi2
 1659 0a14 C3F10803 		rsb	r3, r3, #8
 1660 0a18 BE4A     		ldr	r2, .L145
 1661 0a1a 1278     		ldrb	r2, [r2]	@ zero_extendqisi2
 1662 0a1c 9342     		cmp	r3, r2
 1663 0a1e 02D1     		bne	.L79
 255:printer.c     **** 				PRINTER_A_PutChar('.');
 1664              		.loc 1 255 0
 1665 0a20 2E20     		movs	r0, #46
 1666 0a22 FFF7FEFF 		bl	PRINTER_A_PutChar
 1667              	.L79:
 256:printer.c     **** 			PRINTER_A_PutChar(side.b.ProcessedvolumeSale[x]);        
 1668              		.loc 1 256 0 discriminator 2
 1669 0a26 97F82530 		ldrb	r3, [r7, #37]	@ zero_extendqisi2
 1670 0a2a BB4A     		ldr	r2, .L145+4
 1671 0a2c 1344     		add	r3, r3, r2
 1672 0a2e 93F83032 		ldrb	r3, [r3, #560]	@ zero_extendqisi2
 1673 0a32 1846     		mov	r0, r3
 1674 0a34 FFF7FEFF 		bl	PRINTER_A_PutChar
 253:printer.c     **** 			if((8-x) == DecVol)
 1675              		.loc 1 253 0 discriminator 2
 1676 0a38 97F82530 		ldrb	r3, [r7, #37]	@ zero_extendqisi2
 1677 0a3c 0133     		adds	r3, r3, #1
 1678 0a3e 87F82530 		strb	r3, [r7, #37]
 1679              	.L78:
 253:printer.c     **** 			if((8-x) == DecVol)
 1680              		.loc 1 253 0 is_stmt 0 discriminator 1
 1681 0a42 97F82530 		ldrb	r3, [r7, #37]	@ zero_extendqisi2
 1682 0a46 072B     		cmp	r3, #7
 1683 0a48 E2D9     		bls	.L80
 1684              	.LBE36:
 257:printer.c     **** 		}
 258:printer.c     **** 		PRINTER_A_PutChar(' ');
 1685              		.loc 1 258 0 is_stmt 1
 1686 0a4a 2020     		movs	r0, #32
 1687 0a4c FFF7FEFF 		bl	PRINTER_A_PutChar
 259:printer.c     **** 		PRINTER_A_PutChar(VolSimbol[0]);
 1688              		.loc 1 259 0
 1689 0a50 B24B     		ldr	r3, .L145+8
 1690 0a52 1B78     		ldrb	r3, [r3]	@ zero_extendqisi2
ARM GAS  C:\Users\THERMA~1\AppData\Local\Temp\cc965AVb.s 			page 39


 1691 0a54 1846     		mov	r0, r3
 1692 0a56 FFF7FEFF 		bl	PRINTER_A_PutChar
 260:printer.c     **** 		PRINTER_A_PutChar(LINE_FEED); 
 1693              		.loc 1 260 0
 1694 0a5a B14B     		ldr	r3, .L145+12
 1695 0a5c 1B78     		ldrb	r3, [r3]	@ zero_extendqisi2
 1696 0a5e 1846     		mov	r0, r3
 1697 0a60 FFF7FEFF 		bl	PRINTER_A_PutChar
 1698              	.LBB37:
 261:printer.c     **** 		for(uint8 x = 0; x < 13; x ++){
 1699              		.loc 1 261 0
 1700 0a64 0023     		movs	r3, #0
 1701 0a66 87F82430 		strb	r3, [r7, #36]
 1702 0a6a 0BE0     		b	.L81
 1703              	.L82:
 262:printer.c     **** 			PRINTER_A_PutChar(msn_din[x]);
 1704              		.loc 1 262 0 discriminator 3
 1705 0a6c 97F82430 		ldrb	r3, [r7, #36]	@ zero_extendqisi2
 1706 0a70 AC4A     		ldr	r2, .L145+16
 1707 0a72 D35C     		ldrb	r3, [r2, r3]	@ zero_extendqisi2
 1708 0a74 1846     		mov	r0, r3
 1709 0a76 FFF7FEFF 		bl	PRINTER_A_PutChar
 261:printer.c     **** 		for(uint8 x = 0; x < 13; x ++){
 1710              		.loc 1 261 0 discriminator 3
 1711 0a7a 97F82430 		ldrb	r3, [r7, #36]	@ zero_extendqisi2
 1712 0a7e 0133     		adds	r3, r3, #1
 1713 0a80 87F82430 		strb	r3, [r7, #36]
 1714              	.L81:
 261:printer.c     **** 		for(uint8 x = 0; x < 13; x ++){
 1715              		.loc 1 261 0 is_stmt 0 discriminator 1
 1716 0a84 97F82430 		ldrb	r3, [r7, #36]	@ zero_extendqisi2
 1717 0a88 0C2B     		cmp	r3, #12
 1718 0a8a EFD9     		bls	.L82
 1719              	.LBE37:
 263:printer.c     **** 		}     
 264:printer.c     **** 		PRINTER_A_PutChar(PRN_CURRENCY[0]);  
 1720              		.loc 1 264 0 is_stmt 1
 1721 0a8c A64B     		ldr	r3, .L145+20
 1722 0a8e 1B78     		ldrb	r3, [r3]	@ zero_extendqisi2
 1723 0a90 1846     		mov	r0, r3
 1724 0a92 FFF7FEFF 		bl	PRINTER_A_PutChar
 265:printer.c     **** 		PRINTER_A_PutChar(' ');
 1725              		.loc 1 265 0
 1726 0a96 2020     		movs	r0, #32
 1727 0a98 FFF7FEFF 		bl	PRINTER_A_PutChar
 1728              	.LBB38:
 266:printer.c     **** 		for(uint8 x = 0; x < 8; x ++){
 1729              		.loc 1 266 0
 1730 0a9c 0023     		movs	r3, #0
 1731 0a9e 87F82330 		strb	r3, [r7, #35]
 1732 0aa2 0DE0     		b	.L83
 1733              	.L84:
 267:printer.c     **** 			PRINTER_A_PutChar(side.b.ProcessedmoneySale[x]);
 1734              		.loc 1 267 0 discriminator 3
 1735 0aa4 97F82330 		ldrb	r3, [r7, #35]	@ zero_extendqisi2
 1736 0aa8 9B4A     		ldr	r2, .L145+4
 1737 0aaa 1344     		add	r3, r3, r2
ARM GAS  C:\Users\THERMA~1\AppData\Local\Temp\cc965AVb.s 			page 40


 1738 0aac 93F82832 		ldrb	r3, [r3, #552]	@ zero_extendqisi2
 1739 0ab0 1846     		mov	r0, r3
 1740 0ab2 FFF7FEFF 		bl	PRINTER_A_PutChar
 266:printer.c     **** 		for(uint8 x = 0; x < 8; x ++){
 1741              		.loc 1 266 0 discriminator 3
 1742 0ab6 97F82330 		ldrb	r3, [r7, #35]	@ zero_extendqisi2
 1743 0aba 0133     		adds	r3, r3, #1
 1744 0abc 87F82330 		strb	r3, [r7, #35]
 1745              	.L83:
 266:printer.c     **** 		for(uint8 x = 0; x < 8; x ++){
 1746              		.loc 1 266 0 is_stmt 0 discriminator 1
 1747 0ac0 97F82330 		ldrb	r3, [r7, #35]	@ zero_extendqisi2
 1748 0ac4 072B     		cmp	r3, #7
 1749 0ac6 EDD9     		bls	.L84
 1750              	.LBE38:
 268:printer.c     **** 		}
 269:printer.c     **** 		PRINTER_A_PutChar(LINE_FEED); 	
 1751              		.loc 1 269 0 is_stmt 1
 1752 0ac8 954B     		ldr	r3, .L145+12
 1753 0aca 1B78     		ldrb	r3, [r3]	@ zero_extendqisi2
 1754 0acc 1846     		mov	r0, r3
 1755 0ace FFF7FEFF 		bl	PRINTER_A_PutChar
 1756              	.LBB39:
 270:printer.c     **** 		for(uint8 x = 0; x < 13; x ++){
 1757              		.loc 1 270 0
 1758 0ad2 0023     		movs	r3, #0
 1759 0ad4 87F82230 		strb	r3, [r7, #34]
 1760 0ad8 0BE0     		b	.L85
 1761              	.L86:
 271:printer.c     **** 			PRINTER_A_PutChar(msn_ppu[x]);
 1762              		.loc 1 271 0 discriminator 3
 1763 0ada 97F82230 		ldrb	r3, [r7, #34]	@ zero_extendqisi2
 1764 0ade 934A     		ldr	r2, .L145+24
 1765 0ae0 D35C     		ldrb	r3, [r2, r3]	@ zero_extendqisi2
 1766 0ae2 1846     		mov	r0, r3
 1767 0ae4 FFF7FEFF 		bl	PRINTER_A_PutChar
 270:printer.c     **** 		for(uint8 x = 0; x < 13; x ++){
 1768              		.loc 1 270 0 discriminator 3
 1769 0ae8 97F82230 		ldrb	r3, [r7, #34]	@ zero_extendqisi2
 1770 0aec 0133     		adds	r3, r3, #1
 1771 0aee 87F82230 		strb	r3, [r7, #34]
 1772              	.L85:
 270:printer.c     **** 		for(uint8 x = 0; x < 13; x ++){
 1773              		.loc 1 270 0 is_stmt 0 discriminator 1
 1774 0af2 97F82230 		ldrb	r3, [r7, #34]	@ zero_extendqisi2
 1775 0af6 0C2B     		cmp	r3, #12
 1776 0af8 EFD9     		bls	.L86
 1777              	.LBE39:
 272:printer.c     **** 		}
 273:printer.c     **** 		PRINTER_A_PutChar(PRN_CURRENCY[0]);  
 1778              		.loc 1 273 0 is_stmt 1
 1779 0afa 8B4B     		ldr	r3, .L145+20
 1780 0afc 1B78     		ldrb	r3, [r3]	@ zero_extendqisi2
 1781 0afe 1846     		mov	r0, r3
 1782 0b00 FFF7FEFF 		bl	PRINTER_A_PutChar
 274:printer.c     **** 		PRINTER_A_PutChar(' ');
 1783              		.loc 1 274 0
ARM GAS  C:\Users\THERMA~1\AppData\Local\Temp\cc965AVb.s 			page 41


 1784 0b04 2020     		movs	r0, #32
 1785 0b06 FFF7FEFF 		bl	PRINTER_A_PutChar
 1786              	.LBB40:
 275:printer.c     **** 		for(uint8 x = 1; x < 6; x ++){
 1787              		.loc 1 275 0
 1788 0b0a 0123     		movs	r3, #1
 1789 0b0c 87F82130 		strb	r3, [r7, #33]
 1790 0b10 17E0     		b	.L87
 1791              	.L88:
 276:printer.c     **** 			PRINTER_A_PutChar(side.b.ProcessedPPU[side.b.Nozzle - 1][x]);
 1792              		.loc 1 276 0 discriminator 3
 1793 0b12 814B     		ldr	r3, .L145+4
 1794 0b14 93F85932 		ldrb	r3, [r3, #601]	@ zero_extendqisi2
 1795 0b18 5A1E     		subs	r2, r3, #1
 1796 0b1a 97F82110 		ldrb	r1, [r7, #33]	@ zero_extendqisi2
 1797 0b1e 7E48     		ldr	r0, .L145+4
 1798 0b20 1346     		mov	r3, r2
 1799 0b22 5B00     		lsls	r3, r3, #1
 1800 0b24 1344     		add	r3, r3, r2
 1801 0b26 5B00     		lsls	r3, r3, #1
 1802 0b28 0344     		add	r3, r3, r0
 1803 0b2a 0B44     		add	r3, r3, r1
 1804 0b2c 03F50E73 		add	r3, r3, #568
 1805 0b30 1B78     		ldrb	r3, [r3]	@ zero_extendqisi2
 1806 0b32 1846     		mov	r0, r3
 1807 0b34 FFF7FEFF 		bl	PRINTER_A_PutChar
 275:printer.c     **** 		for(uint8 x = 1; x < 6; x ++){
 1808              		.loc 1 275 0 discriminator 3
 1809 0b38 97F82130 		ldrb	r3, [r7, #33]	@ zero_extendqisi2
 1810 0b3c 0133     		adds	r3, r3, #1
 1811 0b3e 87F82130 		strb	r3, [r7, #33]
 1812              	.L87:
 275:printer.c     **** 		for(uint8 x = 1; x < 6; x ++){
 1813              		.loc 1 275 0 is_stmt 0 discriminator 1
 1814 0b42 97F82130 		ldrb	r3, [r7, #33]	@ zero_extendqisi2
 1815 0b46 052B     		cmp	r3, #5
 1816 0b48 E3D9     		bls	.L88
 1817              	.LBE40:
 277:printer.c     **** 		}
 278:printer.c     **** 		PRINTER_A_PutChar(LINE_FEED);
 1818              		.loc 1 278 0 is_stmt 1
 1819 0b4a 754B     		ldr	r3, .L145+12
 1820 0b4c 1B78     		ldrb	r3, [r3]	@ zero_extendqisi2
 1821 0b4e 1846     		mov	r0, r3
 1822 0b50 FFF7FEFF 		bl	PRINTER_A_PutChar
 1823              	.L63:
 279:printer.c     **** 	}
 280:printer.c     **** 	
 281:printer.c     **** 	if(address == side.c.dir){
 1824              		.loc 1 281 0
 1825 0b54 704B     		ldr	r3, .L145+4
 1826 0b56 93F85A32 		ldrb	r3, [r3, #602]	@ zero_extendqisi2
 1827 0b5a FA79     		ldrb	r2, [r7, #7]	@ zero_extendqisi2
 1828 0b5c 9A42     		cmp	r2, r3
 1829 0b5e 40F00281 		bne	.L89
 1830              	.LBB41:
 282:printer.c     **** 		for(uint8 x = 0; x < 8; x ++){
ARM GAS  C:\Users\THERMA~1\AppData\Local\Temp\cc965AVb.s 			page 42


 1831              		.loc 1 282 0
 1832 0b62 0023     		movs	r3, #0
 1833 0b64 87F82030 		strb	r3, [r7, #32]
 1834 0b68 0DE0     		b	.L90
 1835              	.L91:
 283:printer.c     **** 			PRINTER_A_PutChar(side.c.msn_plate[x]);
 1836              		.loc 1 283 0 discriminator 3
 1837 0b6a 97F82030 		ldrb	r3, [r7, #32]	@ zero_extendqisi2
 1838 0b6e 6A4A     		ldr	r2, .L145+4
 1839 0b70 1344     		add	r3, r3, r2
 1840 0b72 93F87D33 		ldrb	r3, [r3, #893]	@ zero_extendqisi2
 1841 0b76 1846     		mov	r0, r3
 1842 0b78 FFF7FEFF 		bl	PRINTER_A_PutChar
 282:printer.c     **** 		for(uint8 x = 0; x < 8; x ++){
 1843              		.loc 1 282 0 discriminator 3
 1844 0b7c 97F82030 		ldrb	r3, [r7, #32]	@ zero_extendqisi2
 1845 0b80 0133     		adds	r3, r3, #1
 1846 0b82 87F82030 		strb	r3, [r7, #32]
 1847              	.L90:
 282:printer.c     **** 		for(uint8 x = 0; x < 8; x ++){
 1848              		.loc 1 282 0 is_stmt 0 discriminator 1
 1849 0b86 97F82030 		ldrb	r3, [r7, #32]	@ zero_extendqisi2
 1850 0b8a 072B     		cmp	r3, #7
 1851 0b8c EDD9     		bls	.L91
 1852              	.LBE41:
 284:printer.c     **** 		}  
 285:printer.c     ****         PRINTER_A_PutChar(LINE_FEED);
 1853              		.loc 1 285 0 is_stmt 1
 1854 0b8e 644B     		ldr	r3, .L145+12
 1855 0b90 1B78     		ldrb	r3, [r3]	@ zero_extendqisi2
 1856 0b92 1846     		mov	r0, r3
 1857 0b94 FFF7FEFF 		bl	PRINTER_A_PutChar
 1858              	.LBB42:
 286:printer.c     **** 		for(uint8 x = 0; x < 13; x ++){
 1859              		.loc 1 286 0
 1860 0b98 0023     		movs	r3, #0
 1861 0b9a FB77     		strb	r3, [r7, #31]
 1862 0b9c 08E0     		b	.L92
 1863              	.L93:
 287:printer.c     **** 			PRINTER_A_PutChar(msn_pos[x]);
 1864              		.loc 1 287 0 discriminator 3
 1865 0b9e FB7F     		ldrb	r3, [r7, #31]	@ zero_extendqisi2
 1866 0ba0 634A     		ldr	r2, .L145+28
 1867 0ba2 D35C     		ldrb	r3, [r2, r3]	@ zero_extendqisi2
 1868 0ba4 1846     		mov	r0, r3
 1869 0ba6 FFF7FEFF 		bl	PRINTER_A_PutChar
 286:printer.c     **** 		for(uint8 x = 0; x < 13; x ++){
 1870              		.loc 1 286 0 discriminator 3
 1871 0baa FB7F     		ldrb	r3, [r7, #31]	@ zero_extendqisi2
 1872 0bac 0133     		adds	r3, r3, #1
 1873 0bae FB77     		strb	r3, [r7, #31]
 1874              	.L92:
 286:printer.c     **** 		for(uint8 x = 0; x < 13; x ++){
 1875              		.loc 1 286 0 is_stmt 0 discriminator 1
 1876 0bb0 FB7F     		ldrb	r3, [r7, #31]	@ zero_extendqisi2
 1877 0bb2 0C2B     		cmp	r3, #12
 1878 0bb4 F3D9     		bls	.L93
ARM GAS  C:\Users\THERMA~1\AppData\Local\Temp\cc965AVb.s 			page 43


 1879              	.LBE42:
 288:printer.c     **** 		}
 289:printer.c     **** 		PRINTER_A_PutChar((side.c.dir)+ 0x31);
 1880              		.loc 1 289 0 is_stmt 1
 1881 0bb6 584B     		ldr	r3, .L145+4
 1882 0bb8 93F85A32 		ldrb	r3, [r3, #602]	@ zero_extendqisi2
 1883 0bbc 3133     		adds	r3, r3, #49
 1884 0bbe DBB2     		uxtb	r3, r3
 1885 0bc0 1846     		mov	r0, r3
 1886 0bc2 FFF7FEFF 		bl	PRINTER_A_PutChar
 290:printer.c     **** 		PRINTER_A_PutChar(LINE_FEED);
 1887              		.loc 1 290 0
 1888 0bc6 564B     		ldr	r3, .L145+12
 1889 0bc8 1B78     		ldrb	r3, [r3]	@ zero_extendqisi2
 1890 0bca 1846     		mov	r0, r3
 1891 0bcc FFF7FEFF 		bl	PRINTER_A_PutChar
 1892              	.LBB43:
 291:printer.c     **** 		for(uint8 x = 0; x < 13; x ++){
 1893              		.loc 1 291 0
 1894 0bd0 0023     		movs	r3, #0
 1895 0bd2 BB77     		strb	r3, [r7, #30]
 1896 0bd4 08E0     		b	.L94
 1897              	.L95:
 292:printer.c     **** 			PRINTER_A_PutChar(msn_product[x]);
 1898              		.loc 1 292 0 discriminator 3
 1899 0bd6 BB7F     		ldrb	r3, [r7, #30]	@ zero_extendqisi2
 1900 0bd8 564A     		ldr	r2, .L145+32
 1901 0bda D35C     		ldrb	r3, [r2, r3]	@ zero_extendqisi2
 1902 0bdc 1846     		mov	r0, r3
 1903 0bde FFF7FEFF 		bl	PRINTER_A_PutChar
 291:printer.c     **** 		for(uint8 x = 0; x < 13; x ++){
 1904              		.loc 1 291 0 discriminator 3
 1905 0be2 BB7F     		ldrb	r3, [r7, #30]	@ zero_extendqisi2
 1906 0be4 0133     		adds	r3, r3, #1
 1907 0be6 BB77     		strb	r3, [r7, #30]
 1908              	.L94:
 291:printer.c     **** 		for(uint8 x = 0; x < 13; x ++){
 1909              		.loc 1 291 0 is_stmt 0 discriminator 1
 1910 0be8 BB7F     		ldrb	r3, [r7, #30]	@ zero_extendqisi2
 1911 0bea 0C2B     		cmp	r3, #12
 1912 0bec F3D9     		bls	.L95
 1913              	.LBE43:
 1914              	.LBB44:
 293:printer.c     **** 		}
 294:printer.c     **** 		for(uint8 x = 0; x < 8; x ++){
 1915              		.loc 1 294 0 is_stmt 1
 1916 0bee 0023     		movs	r3, #0
 1917 0bf0 7B77     		strb	r3, [r7, #29]
 1918 0bf2 08E0     		b	.L96
 1919              	.L97:
 295:printer.c     **** 			PRINTER_A_PutChar(msn_diesel[x]);
 1920              		.loc 1 295 0 discriminator 3
 1921 0bf4 7B7F     		ldrb	r3, [r7, #29]	@ zero_extendqisi2
 1922 0bf6 504A     		ldr	r2, .L145+36
 1923 0bf8 D35C     		ldrb	r3, [r2, r3]	@ zero_extendqisi2
 1924 0bfa 1846     		mov	r0, r3
 1925 0bfc FFF7FEFF 		bl	PRINTER_A_PutChar
ARM GAS  C:\Users\THERMA~1\AppData\Local\Temp\cc965AVb.s 			page 44


 294:printer.c     **** 			PRINTER_A_PutChar(msn_diesel[x]);
 1926              		.loc 1 294 0 discriminator 3
 1927 0c00 7B7F     		ldrb	r3, [r7, #29]	@ zero_extendqisi2
 1928 0c02 0133     		adds	r3, r3, #1
 1929 0c04 7B77     		strb	r3, [r7, #29]
 1930              	.L96:
 294:printer.c     **** 			PRINTER_A_PutChar(msn_diesel[x]);
 1931              		.loc 1 294 0 is_stmt 0 discriminator 1
 1932 0c06 7B7F     		ldrb	r3, [r7, #29]	@ zero_extendqisi2
 1933 0c08 072B     		cmp	r3, #7
 1934 0c0a F3D9     		bls	.L97
 1935              	.LBE44:
 296:printer.c     **** 		}
 297:printer.c     ****         PRINTER_A_PutChar(LINE_FEED);
 1936              		.loc 1 297 0 is_stmt 1
 1937 0c0c 444B     		ldr	r3, .L145+12
 1938 0c0e 1B78     		ldrb	r3, [r3]	@ zero_extendqisi2
 1939 0c10 1846     		mov	r0, r3
 1940 0c12 FFF7FEFF 		bl	PRINTER_A_PutChar
 1941              	.LBB45:
 298:printer.c     **** 		for(uint8 x = 0; x < 13; x ++){
 1942              		.loc 1 298 0
 1943 0c16 0023     		movs	r3, #0
 1944 0c18 3B77     		strb	r3, [r7, #28]
 1945 0c1a 08E0     		b	.L98
 1946              	.L99:
 299:printer.c     **** 			PRINTER_A_PutChar(msn_vol[x]);
 1947              		.loc 1 299 0 discriminator 3
 1948 0c1c 3B7F     		ldrb	r3, [r7, #28]	@ zero_extendqisi2
 1949 0c1e 474A     		ldr	r2, .L145+40
 1950 0c20 D35C     		ldrb	r3, [r2, r3]	@ zero_extendqisi2
 1951 0c22 1846     		mov	r0, r3
 1952 0c24 FFF7FEFF 		bl	PRINTER_A_PutChar
 298:printer.c     **** 		for(uint8 x = 0; x < 13; x ++){
 1953              		.loc 1 298 0 discriminator 3
 1954 0c28 3B7F     		ldrb	r3, [r7, #28]	@ zero_extendqisi2
 1955 0c2a 0133     		adds	r3, r3, #1
 1956 0c2c 3B77     		strb	r3, [r7, #28]
 1957              	.L98:
 298:printer.c     **** 		for(uint8 x = 0; x < 13; x ++){
 1958              		.loc 1 298 0 is_stmt 0 discriminator 1
 1959 0c2e 3B7F     		ldrb	r3, [r7, #28]	@ zero_extendqisi2
 1960 0c30 0C2B     		cmp	r3, #12
 1961 0c32 F3D9     		bls	.L99
 1962              	.LBE45:
 1963              	.LBB46:
 300:printer.c     **** 		}
 301:printer.c     **** 		for(uint8 x = 0; x < 8; x ++){
 1964              		.loc 1 301 0 is_stmt 1
 1965 0c34 0023     		movs	r3, #0
 1966 0c36 FB76     		strb	r3, [r7, #27]
 1967 0c38 14E0     		b	.L100
 1968              	.L102:
 302:printer.c     **** 			if((8-x) == DecVol)
 1969              		.loc 1 302 0
 1970 0c3a FB7E     		ldrb	r3, [r7, #27]	@ zero_extendqisi2
 1971 0c3c C3F10803 		rsb	r3, r3, #8
ARM GAS  C:\Users\THERMA~1\AppData\Local\Temp\cc965AVb.s 			page 45


 1972 0c40 344A     		ldr	r2, .L145
 1973 0c42 1278     		ldrb	r2, [r2]	@ zero_extendqisi2
 1974 0c44 9342     		cmp	r3, r2
 1975 0c46 02D1     		bne	.L101
 303:printer.c     **** 				PRINTER_A_PutChar('.');
 1976              		.loc 1 303 0
 1977 0c48 2E20     		movs	r0, #46
 1978 0c4a FFF7FEFF 		bl	PRINTER_A_PutChar
 1979              	.L101:
 304:printer.c     **** 			PRINTER_A_PutChar(side.c.ProcessedvolumeSale[x]);        
 1980              		.loc 1 304 0 discriminator 2
 1981 0c4e FB7E     		ldrb	r3, [r7, #27]	@ zero_extendqisi2
 1982 0c50 314A     		ldr	r2, .L145+4
 1983 0c52 1344     		add	r3, r3, r2
 1984 0c54 93F85D33 		ldrb	r3, [r3, #861]	@ zero_extendqisi2
 1985 0c58 1846     		mov	r0, r3
 1986 0c5a FFF7FEFF 		bl	PRINTER_A_PutChar
 301:printer.c     **** 			if((8-x) == DecVol)
 1987              		.loc 1 301 0 discriminator 2
 1988 0c5e FB7E     		ldrb	r3, [r7, #27]	@ zero_extendqisi2
 1989 0c60 0133     		adds	r3, r3, #1
 1990 0c62 FB76     		strb	r3, [r7, #27]
 1991              	.L100:
 301:printer.c     **** 			if((8-x) == DecVol)
 1992              		.loc 1 301 0 is_stmt 0 discriminator 1
 1993 0c64 FB7E     		ldrb	r3, [r7, #27]	@ zero_extendqisi2
 1994 0c66 072B     		cmp	r3, #7
 1995 0c68 E7D9     		bls	.L102
 1996              	.LBE46:
 305:printer.c     **** 		}
 306:printer.c     **** 		PRINTER_A_PutChar(' ');
 1997              		.loc 1 306 0 is_stmt 1
 1998 0c6a 2020     		movs	r0, #32
 1999 0c6c FFF7FEFF 		bl	PRINTER_A_PutChar
 307:printer.c     **** 		PRINTER_A_PutChar(VolSimbol[0]);
 2000              		.loc 1 307 0
 2001 0c70 2A4B     		ldr	r3, .L145+8
 2002 0c72 1B78     		ldrb	r3, [r3]	@ zero_extendqisi2
 2003 0c74 1846     		mov	r0, r3
 2004 0c76 FFF7FEFF 		bl	PRINTER_A_PutChar
 308:printer.c     **** 		PRINTER_A_PutChar(LINE_FEED); 
 2005              		.loc 1 308 0
 2006 0c7a 294B     		ldr	r3, .L145+12
 2007 0c7c 1B78     		ldrb	r3, [r3]	@ zero_extendqisi2
 2008 0c7e 1846     		mov	r0, r3
 2009 0c80 FFF7FEFF 		bl	PRINTER_A_PutChar
 2010              	.LBB47:
 309:printer.c     **** 		for(uint8 x = 0; x < 13; x ++){
 2011              		.loc 1 309 0
 2012 0c84 0023     		movs	r3, #0
 2013 0c86 BB76     		strb	r3, [r7, #26]
 2014 0c88 08E0     		b	.L103
 2015              	.L104:
 310:printer.c     **** 			PRINTER_A_PutChar(msn_din[x]);
 2016              		.loc 1 310 0 discriminator 3
 2017 0c8a BB7E     		ldrb	r3, [r7, #26]	@ zero_extendqisi2
 2018 0c8c 254A     		ldr	r2, .L145+16
ARM GAS  C:\Users\THERMA~1\AppData\Local\Temp\cc965AVb.s 			page 46


 2019 0c8e D35C     		ldrb	r3, [r2, r3]	@ zero_extendqisi2
 2020 0c90 1846     		mov	r0, r3
 2021 0c92 FFF7FEFF 		bl	PRINTER_A_PutChar
 309:printer.c     **** 		for(uint8 x = 0; x < 13; x ++){
 2022              		.loc 1 309 0 discriminator 3
 2023 0c96 BB7E     		ldrb	r3, [r7, #26]	@ zero_extendqisi2
 2024 0c98 0133     		adds	r3, r3, #1
 2025 0c9a BB76     		strb	r3, [r7, #26]
 2026              	.L103:
 309:printer.c     **** 		for(uint8 x = 0; x < 13; x ++){
 2027              		.loc 1 309 0 is_stmt 0 discriminator 1
 2028 0c9c BB7E     		ldrb	r3, [r7, #26]	@ zero_extendqisi2
 2029 0c9e 0C2B     		cmp	r3, #12
 2030 0ca0 F3D9     		bls	.L104
 2031              	.LBE47:
 311:printer.c     **** 		}     
 312:printer.c     **** 		PRINTER_A_PutChar(PRN_CURRENCY[0]);  
 2032              		.loc 1 312 0 is_stmt 1
 2033 0ca2 214B     		ldr	r3, .L145+20
 2034 0ca4 1B78     		ldrb	r3, [r3]	@ zero_extendqisi2
 2035 0ca6 1846     		mov	r0, r3
 2036 0ca8 FFF7FEFF 		bl	PRINTER_A_PutChar
 313:printer.c     **** 		PRINTER_A_PutChar(' ');
 2037              		.loc 1 313 0
 2038 0cac 2020     		movs	r0, #32
 2039 0cae FFF7FEFF 		bl	PRINTER_A_PutChar
 2040              	.LBB48:
 314:printer.c     **** 		for(uint8 x = 0; x < 8; x ++){
 2041              		.loc 1 314 0
 2042 0cb2 0023     		movs	r3, #0
 2043 0cb4 7B76     		strb	r3, [r7, #25]
 2044 0cb6 0AE0     		b	.L105
 2045              	.L106:
 315:printer.c     **** 			PRINTER_A_PutChar(side.c.ProcessedmoneySale[x]);
 2046              		.loc 1 315 0 discriminator 3
 2047 0cb8 7B7E     		ldrb	r3, [r7, #25]	@ zero_extendqisi2
 2048 0cba 174A     		ldr	r2, .L145+4
 2049 0cbc 1344     		add	r3, r3, r2
 2050 0cbe 93F85533 		ldrb	r3, [r3, #853]	@ zero_extendqisi2
 2051 0cc2 1846     		mov	r0, r3
 2052 0cc4 FFF7FEFF 		bl	PRINTER_A_PutChar
 314:printer.c     **** 		for(uint8 x = 0; x < 8; x ++){
 2053              		.loc 1 314 0 discriminator 3
 2054 0cc8 7B7E     		ldrb	r3, [r7, #25]	@ zero_extendqisi2
 2055 0cca 0133     		adds	r3, r3, #1
 2056 0ccc 7B76     		strb	r3, [r7, #25]
 2057              	.L105:
 314:printer.c     **** 		for(uint8 x = 0; x < 8; x ++){
 2058              		.loc 1 314 0 is_stmt 0 discriminator 1
 2059 0cce 7B7E     		ldrb	r3, [r7, #25]	@ zero_extendqisi2
 2060 0cd0 072B     		cmp	r3, #7
 2061 0cd2 F1D9     		bls	.L106
 2062              	.LBE48:
 316:printer.c     **** 		}
 317:printer.c     **** 		PRINTER_A_PutChar(LINE_FEED); 	
 2063              		.loc 1 317 0 is_stmt 1
 2064 0cd4 124B     		ldr	r3, .L145+12
ARM GAS  C:\Users\THERMA~1\AppData\Local\Temp\cc965AVb.s 			page 47


 2065 0cd6 1B78     		ldrb	r3, [r3]	@ zero_extendqisi2
 2066 0cd8 1846     		mov	r0, r3
 2067 0cda FFF7FEFF 		bl	PRINTER_A_PutChar
 2068              	.LBB49:
 318:printer.c     **** 		for(uint8 x = 0; x < 13; x ++){
 2069              		.loc 1 318 0
 2070 0cde 0023     		movs	r3, #0
 2071 0ce0 3B76     		strb	r3, [r7, #24]
 2072 0ce2 08E0     		b	.L107
 2073              	.L108:
 319:printer.c     **** 			PRINTER_A_PutChar(msn_ppu[x]);
 2074              		.loc 1 319 0 discriminator 3
 2075 0ce4 3B7E     		ldrb	r3, [r7, #24]	@ zero_extendqisi2
 2076 0ce6 114A     		ldr	r2, .L145+24
 2077 0ce8 D35C     		ldrb	r3, [r2, r3]	@ zero_extendqisi2
 2078 0cea 1846     		mov	r0, r3
 2079 0cec FFF7FEFF 		bl	PRINTER_A_PutChar
 318:printer.c     **** 		for(uint8 x = 0; x < 13; x ++){
 2080              		.loc 1 318 0 discriminator 3
 2081 0cf0 3B7E     		ldrb	r3, [r7, #24]	@ zero_extendqisi2
 2082 0cf2 0133     		adds	r3, r3, #1
 2083 0cf4 3B76     		strb	r3, [r7, #24]
 2084              	.L107:
 318:printer.c     **** 		for(uint8 x = 0; x < 13; x ++){
 2085              		.loc 1 318 0 is_stmt 0 discriminator 1
 2086 0cf6 3B7E     		ldrb	r3, [r7, #24]	@ zero_extendqisi2
 2087 0cf8 0C2B     		cmp	r3, #12
 2088 0cfa F3D9     		bls	.L108
 2089              	.LBE49:
 320:printer.c     **** 		}
 321:printer.c     **** 		PRINTER_A_PutChar(PRN_CURRENCY[0]);  
 2090              		.loc 1 321 0 is_stmt 1
 2091 0cfc 0A4B     		ldr	r3, .L145+20
 2092 0cfe 1B78     		ldrb	r3, [r3]	@ zero_extendqisi2
 2093 0d00 1846     		mov	r0, r3
 2094 0d02 FFF7FEFF 		bl	PRINTER_A_PutChar
 322:printer.c     **** 		PRINTER_A_PutChar(' ');
 2095              		.loc 1 322 0
 2096 0d06 2020     		movs	r0, #32
 2097 0d08 FFF7FEFF 		bl	PRINTER_A_PutChar
 2098              	.LBB50:
 323:printer.c     **** 		for(uint8 x = 1; x < 6; x ++){
 2099              		.loc 1 323 0
 2100 0d0c 0123     		movs	r3, #1
 2101 0d0e FB75     		strb	r3, [r7, #23]
 2102 0d10 21E0     		b	.L109
 2103              	.L146:
 2104 0d12 00BF     		.align	2
 2105              	.L145:
 2106 0d14 00000000 		.word	DecVol
 2107 0d18 00000000 		.word	side
 2108 0d1c 00000000 		.word	VolSimbol
 2109 0d20 00000000 		.word	LINE_FEED
 2110 0d24 00000000 		.word	msn_din
 2111 0d28 00000000 		.word	PRN_CURRENCY
 2112 0d2c 00000000 		.word	msn_ppu
 2113 0d30 00000000 		.word	msn_pos
ARM GAS  C:\Users\THERMA~1\AppData\Local\Temp\cc965AVb.s 			page 48


 2114 0d34 00000000 		.word	msn_product
 2115 0d38 00000000 		.word	msn_diesel
 2116 0d3c 00000000 		.word	msn_vol
 2117              	.L110:
 324:printer.c     **** 			PRINTER_A_PutChar(side.c.ProcessedPPU[0][x]);
 2118              		.loc 1 324 0 discriminator 3
 2119 0d40 FB7D     		ldrb	r3, [r7, #23]	@ zero_extendqisi2
 2120 0d42 A74A     		ldr	r2, .L147
 2121 0d44 1344     		add	r3, r3, r2
 2122 0d46 93F86533 		ldrb	r3, [r3, #869]	@ zero_extendqisi2
 2123 0d4a 1846     		mov	r0, r3
 2124 0d4c FFF7FEFF 		bl	PRINTER_A_PutChar
 323:printer.c     **** 		for(uint8 x = 1; x < 6; x ++){
 2125              		.loc 1 323 0 discriminator 3
 2126 0d50 FB7D     		ldrb	r3, [r7, #23]	@ zero_extendqisi2
 2127 0d52 0133     		adds	r3, r3, #1
 2128 0d54 FB75     		strb	r3, [r7, #23]
 2129              	.L109:
 323:printer.c     **** 		for(uint8 x = 1; x < 6; x ++){
 2130              		.loc 1 323 0 is_stmt 0 discriminator 1
 2131 0d56 FB7D     		ldrb	r3, [r7, #23]	@ zero_extendqisi2
 2132 0d58 052B     		cmp	r3, #5
 2133 0d5a F1D9     		bls	.L110
 2134              	.LBE50:
 325:printer.c     **** 		}
 326:printer.c     **** 		PRINTER_A_PutChar(LINE_FEED);
 2135              		.loc 1 326 0 is_stmt 1
 2136 0d5c A14B     		ldr	r3, .L147+4
 2137 0d5e 1B78     		ldrb	r3, [r3]	@ zero_extendqisi2
 2138 0d60 1846     		mov	r0, r3
 2139 0d62 FFF7FEFF 		bl	PRINTER_A_PutChar
 2140              	.L89:
 327:printer.c     **** 	}
 328:printer.c     **** 	
 329:printer.c     ****     if(address == side.d.dir){
 2141              		.loc 1 329 0
 2142 0d66 9E4B     		ldr	r3, .L147
 2143 0d68 93F88733 		ldrb	r3, [r3, #903]	@ zero_extendqisi2
 2144 0d6c FA79     		ldrb	r2, [r7, #7]	@ zero_extendqisi2
 2145 0d6e 9A42     		cmp	r2, r3
 2146 0d70 40F0E180 		bne	.L111
 2147              	.LBB51:
 330:printer.c     **** 		for(uint8 x = 0; x < 8; x ++){
 2148              		.loc 1 330 0
 2149 0d74 0023     		movs	r3, #0
 2150 0d76 BB75     		strb	r3, [r7, #22]
 2151 0d78 0AE0     		b	.L112
 2152              	.L113:
 331:printer.c     **** 			PRINTER_A_PutChar(side.d.msn_plate[x]);
 2153              		.loc 1 331 0 discriminator 3
 2154 0d7a BB7D     		ldrb	r3, [r7, #22]	@ zero_extendqisi2
 2155 0d7c 984A     		ldr	r2, .L147
 2156 0d7e 1344     		add	r3, r3, r2
 2157 0d80 93F8AA34 		ldrb	r3, [r3, #1194]	@ zero_extendqisi2
 2158 0d84 1846     		mov	r0, r3
 2159 0d86 FFF7FEFF 		bl	PRINTER_A_PutChar
 330:printer.c     **** 		for(uint8 x = 0; x < 8; x ++){
ARM GAS  C:\Users\THERMA~1\AppData\Local\Temp\cc965AVb.s 			page 49


 2160              		.loc 1 330 0 discriminator 3
 2161 0d8a BB7D     		ldrb	r3, [r7, #22]	@ zero_extendqisi2
 2162 0d8c 0133     		adds	r3, r3, #1
 2163 0d8e BB75     		strb	r3, [r7, #22]
 2164              	.L112:
 330:printer.c     **** 		for(uint8 x = 0; x < 8; x ++){
 2165              		.loc 1 330 0 is_stmt 0 discriminator 1
 2166 0d90 BB7D     		ldrb	r3, [r7, #22]	@ zero_extendqisi2
 2167 0d92 072B     		cmp	r3, #7
 2168 0d94 F1D9     		bls	.L113
 2169              	.LBE51:
 2170              	.LBB52:
 332:printer.c     **** 		}  
 333:printer.c     **** 		for(uint8 x = 0; x < 13; x ++){
 2171              		.loc 1 333 0 is_stmt 1
 2172 0d96 0023     		movs	r3, #0
 2173 0d98 7B75     		strb	r3, [r7, #21]
 2174 0d9a 08E0     		b	.L114
 2175              	.L115:
 334:printer.c     **** 			PRINTER_A_PutChar(msn_pos[x]);
 2176              		.loc 1 334 0 discriminator 3
 2177 0d9c 7B7D     		ldrb	r3, [r7, #21]	@ zero_extendqisi2
 2178 0d9e 924A     		ldr	r2, .L147+8
 2179 0da0 D35C     		ldrb	r3, [r2, r3]	@ zero_extendqisi2
 2180 0da2 1846     		mov	r0, r3
 2181 0da4 FFF7FEFF 		bl	PRINTER_A_PutChar
 333:printer.c     **** 			PRINTER_A_PutChar(msn_pos[x]);
 2182              		.loc 1 333 0 discriminator 3
 2183 0da8 7B7D     		ldrb	r3, [r7, #21]	@ zero_extendqisi2
 2184 0daa 0133     		adds	r3, r3, #1
 2185 0dac 7B75     		strb	r3, [r7, #21]
 2186              	.L114:
 333:printer.c     **** 			PRINTER_A_PutChar(msn_pos[x]);
 2187              		.loc 1 333 0 is_stmt 0 discriminator 1
 2188 0dae 7B7D     		ldrb	r3, [r7, #21]	@ zero_extendqisi2
 2189 0db0 0C2B     		cmp	r3, #12
 2190 0db2 F3D9     		bls	.L115
 2191              	.LBE52:
 335:printer.c     **** 		}
 336:printer.c     **** 		PRINTER_A_PutChar((side.d.dir)+ 0x31);
 2192              		.loc 1 336 0 is_stmt 1
 2193 0db4 8A4B     		ldr	r3, .L147
 2194 0db6 93F88733 		ldrb	r3, [r3, #903]	@ zero_extendqisi2
 2195 0dba 3133     		adds	r3, r3, #49
 2196 0dbc DBB2     		uxtb	r3, r3
 2197 0dbe 1846     		mov	r0, r3
 2198 0dc0 FFF7FEFF 		bl	PRINTER_A_PutChar
 337:printer.c     **** 		PRINTER_A_PutChar(LINE_FEED);
 2199              		.loc 1 337 0
 2200 0dc4 874B     		ldr	r3, .L147+4
 2201 0dc6 1B78     		ldrb	r3, [r3]	@ zero_extendqisi2
 2202 0dc8 1846     		mov	r0, r3
 2203 0dca FFF7FEFF 		bl	PRINTER_A_PutChar
 338:printer.c     **** 		PRINTER_A_PutChar(LINE_FEED);
 2204              		.loc 1 338 0
 2205 0dce 854B     		ldr	r3, .L147+4
 2206 0dd0 1B78     		ldrb	r3, [r3]	@ zero_extendqisi2
ARM GAS  C:\Users\THERMA~1\AppData\Local\Temp\cc965AVb.s 			page 50


 2207 0dd2 1846     		mov	r0, r3
 2208 0dd4 FFF7FEFF 		bl	PRINTER_A_PutChar
 2209              	.LBB53:
 339:printer.c     **** 		for(uint8 x = 0; x < 13; x ++){
 2210              		.loc 1 339 0
 2211 0dd8 0023     		movs	r3, #0
 2212 0dda 3B75     		strb	r3, [r7, #20]
 2213 0ddc 08E0     		b	.L116
 2214              	.L117:
 340:printer.c     **** 			PRINTER_A_PutChar(msn_product[x]);
 2215              		.loc 1 340 0 discriminator 3
 2216 0dde 3B7D     		ldrb	r3, [r7, #20]	@ zero_extendqisi2
 2217 0de0 824A     		ldr	r2, .L147+12
 2218 0de2 D35C     		ldrb	r3, [r2, r3]	@ zero_extendqisi2
 2219 0de4 1846     		mov	r0, r3
 2220 0de6 FFF7FEFF 		bl	PRINTER_A_PutChar
 339:printer.c     **** 		for(uint8 x = 0; x < 13; x ++){
 2221              		.loc 1 339 0 discriminator 3
 2222 0dea 3B7D     		ldrb	r3, [r7, #20]	@ zero_extendqisi2
 2223 0dec 0133     		adds	r3, r3, #1
 2224 0dee 3B75     		strb	r3, [r7, #20]
 2225              	.L116:
 339:printer.c     **** 		for(uint8 x = 0; x < 13; x ++){
 2226              		.loc 1 339 0 is_stmt 0 discriminator 1
 2227 0df0 3B7D     		ldrb	r3, [r7, #20]	@ zero_extendqisi2
 2228 0df2 0C2B     		cmp	r3, #12
 2229 0df4 F3D9     		bls	.L117
 2230              	.LBE53:
 2231              	.LBB54:
 341:printer.c     **** 		}
 342:printer.c     **** 		for(uint8 x = 0; x < 8; x ++){
 2232              		.loc 1 342 0 is_stmt 1
 2233 0df6 0023     		movs	r3, #0
 2234 0df8 FB74     		strb	r3, [r7, #19]
 2235 0dfa 08E0     		b	.L118
 2236              	.L119:
 343:printer.c     **** 			PRINTER_A_PutChar(msn_diesel[x]);
 2237              		.loc 1 343 0 discriminator 3
 2238 0dfc FB7C     		ldrb	r3, [r7, #19]	@ zero_extendqisi2
 2239 0dfe 7C4A     		ldr	r2, .L147+16
 2240 0e00 D35C     		ldrb	r3, [r2, r3]	@ zero_extendqisi2
 2241 0e02 1846     		mov	r0, r3
 2242 0e04 FFF7FEFF 		bl	PRINTER_A_PutChar
 342:printer.c     **** 			PRINTER_A_PutChar(msn_diesel[x]);
 2243              		.loc 1 342 0 discriminator 3
 2244 0e08 FB7C     		ldrb	r3, [r7, #19]	@ zero_extendqisi2
 2245 0e0a 0133     		adds	r3, r3, #1
 2246 0e0c FB74     		strb	r3, [r7, #19]
 2247              	.L118:
 342:printer.c     **** 			PRINTER_A_PutChar(msn_diesel[x]);
 2248              		.loc 1 342 0 is_stmt 0 discriminator 1
 2249 0e0e FB7C     		ldrb	r3, [r7, #19]	@ zero_extendqisi2
 2250 0e10 072B     		cmp	r3, #7
 2251 0e12 F3D9     		bls	.L119
 2252              	.LBE54:
 2253              	.LBB55:
 344:printer.c     **** 		}
ARM GAS  C:\Users\THERMA~1\AppData\Local\Temp\cc965AVb.s 			page 51


 345:printer.c     **** 		for(uint8 x = 0; x < 13; x ++){
 2254              		.loc 1 345 0 is_stmt 1
 2255 0e14 0023     		movs	r3, #0
 2256 0e16 BB74     		strb	r3, [r7, #18]
 2257 0e18 08E0     		b	.L120
 2258              	.L121:
 346:printer.c     **** 			PRINTER_A_PutChar(msn_vol[x]);
 2259              		.loc 1 346 0 discriminator 3
 2260 0e1a BB7C     		ldrb	r3, [r7, #18]	@ zero_extendqisi2
 2261 0e1c 754A     		ldr	r2, .L147+20
 2262 0e1e D35C     		ldrb	r3, [r2, r3]	@ zero_extendqisi2
 2263 0e20 1846     		mov	r0, r3
 2264 0e22 FFF7FEFF 		bl	PRINTER_A_PutChar
 345:printer.c     **** 			PRINTER_A_PutChar(msn_vol[x]);
 2265              		.loc 1 345 0 discriminator 3
 2266 0e26 BB7C     		ldrb	r3, [r7, #18]	@ zero_extendqisi2
 2267 0e28 0133     		adds	r3, r3, #1
 2268 0e2a BB74     		strb	r3, [r7, #18]
 2269              	.L120:
 345:printer.c     **** 			PRINTER_A_PutChar(msn_vol[x]);
 2270              		.loc 1 345 0 is_stmt 0 discriminator 1
 2271 0e2c BB7C     		ldrb	r3, [r7, #18]	@ zero_extendqisi2
 2272 0e2e 0C2B     		cmp	r3, #12
 2273 0e30 F3D9     		bls	.L121
 2274              	.LBE55:
 2275              	.LBB56:
 347:printer.c     **** 		}
 348:printer.c     **** 		for(uint8 x = 0; x < 8; x ++){
 2276              		.loc 1 348 0 is_stmt 1
 2277 0e32 0023     		movs	r3, #0
 2278 0e34 7B74     		strb	r3, [r7, #17]
 2279 0e36 14E0     		b	.L122
 2280              	.L124:
 349:printer.c     **** 			if((8-x) == DecVol)
 2281              		.loc 1 349 0
 2282 0e38 7B7C     		ldrb	r3, [r7, #17]	@ zero_extendqisi2
 2283 0e3a C3F10803 		rsb	r3, r3, #8
 2284 0e3e 6E4A     		ldr	r2, .L147+24
 2285 0e40 1278     		ldrb	r2, [r2]	@ zero_extendqisi2
 2286 0e42 9342     		cmp	r3, r2
 2287 0e44 02D1     		bne	.L123
 350:printer.c     **** 				PRINTER_A_PutChar('.');
 2288              		.loc 1 350 0
 2289 0e46 2E20     		movs	r0, #46
 2290 0e48 FFF7FEFF 		bl	PRINTER_A_PutChar
 2291              	.L123:
 351:printer.c     **** 			PRINTER_A_PutChar(side.d.ProcessedvolumeSale[x]);        
 2292              		.loc 1 351 0 discriminator 2
 2293 0e4c 7B7C     		ldrb	r3, [r7, #17]	@ zero_extendqisi2
 2294 0e4e 644A     		ldr	r2, .L147
 2295 0e50 1344     		add	r3, r3, r2
 2296 0e52 93F88A34 		ldrb	r3, [r3, #1162]	@ zero_extendqisi2
 2297 0e56 1846     		mov	r0, r3
 2298 0e58 FFF7FEFF 		bl	PRINTER_A_PutChar
 348:printer.c     **** 			if((8-x) == DecVol)
 2299              		.loc 1 348 0 discriminator 2
 2300 0e5c 7B7C     		ldrb	r3, [r7, #17]	@ zero_extendqisi2
ARM GAS  C:\Users\THERMA~1\AppData\Local\Temp\cc965AVb.s 			page 52


 2301 0e5e 0133     		adds	r3, r3, #1
 2302 0e60 7B74     		strb	r3, [r7, #17]
 2303              	.L122:
 348:printer.c     **** 			if((8-x) == DecVol)
 2304              		.loc 1 348 0 is_stmt 0 discriminator 1
 2305 0e62 7B7C     		ldrb	r3, [r7, #17]	@ zero_extendqisi2
 2306 0e64 072B     		cmp	r3, #7
 2307 0e66 E7D9     		bls	.L124
 2308              	.LBE56:
 352:printer.c     **** 		}
 353:printer.c     **** 		PRINTER_A_PutChar(' ');
 2309              		.loc 1 353 0 is_stmt 1
 2310 0e68 2020     		movs	r0, #32
 2311 0e6a FFF7FEFF 		bl	PRINTER_A_PutChar
 354:printer.c     **** 		PRINTER_A_PutChar(VolSimbol[0]);
 2312              		.loc 1 354 0
 2313 0e6e 634B     		ldr	r3, .L147+28
 2314 0e70 1B78     		ldrb	r3, [r3]	@ zero_extendqisi2
 2315 0e72 1846     		mov	r0, r3
 2316 0e74 FFF7FEFF 		bl	PRINTER_A_PutChar
 355:printer.c     **** 		PRINTER_A_PutChar(LINE_FEED); 
 2317              		.loc 1 355 0
 2318 0e78 5A4B     		ldr	r3, .L147+4
 2319 0e7a 1B78     		ldrb	r3, [r3]	@ zero_extendqisi2
 2320 0e7c 1846     		mov	r0, r3
 2321 0e7e FFF7FEFF 		bl	PRINTER_A_PutChar
 2322              	.LBB57:
 356:printer.c     **** 		for(uint8 x = 0; x < 13; x ++){
 2323              		.loc 1 356 0
 2324 0e82 0023     		movs	r3, #0
 2325 0e84 3B74     		strb	r3, [r7, #16]
 2326 0e86 08E0     		b	.L125
 2327              	.L126:
 357:printer.c     **** 			PRINTER_A_PutChar(msn_din[x]);
 2328              		.loc 1 357 0 discriminator 3
 2329 0e88 3B7C     		ldrb	r3, [r7, #16]	@ zero_extendqisi2
 2330 0e8a 5D4A     		ldr	r2, .L147+32
 2331 0e8c D35C     		ldrb	r3, [r2, r3]	@ zero_extendqisi2
 2332 0e8e 1846     		mov	r0, r3
 2333 0e90 FFF7FEFF 		bl	PRINTER_A_PutChar
 356:printer.c     **** 		for(uint8 x = 0; x < 13; x ++){
 2334              		.loc 1 356 0 discriminator 3
 2335 0e94 3B7C     		ldrb	r3, [r7, #16]	@ zero_extendqisi2
 2336 0e96 0133     		adds	r3, r3, #1
 2337 0e98 3B74     		strb	r3, [r7, #16]
 2338              	.L125:
 356:printer.c     **** 		for(uint8 x = 0; x < 13; x ++){
 2339              		.loc 1 356 0 is_stmt 0 discriminator 1
 2340 0e9a 3B7C     		ldrb	r3, [r7, #16]	@ zero_extendqisi2
 2341 0e9c 0C2B     		cmp	r3, #12
 2342 0e9e F3D9     		bls	.L126
 2343              	.LBE57:
 358:printer.c     **** 		}     
 359:printer.c     **** 		PRINTER_A_PutChar(PRN_CURRENCY[0]);  
 2344              		.loc 1 359 0 is_stmt 1
 2345 0ea0 584B     		ldr	r3, .L147+36
 2346 0ea2 1B78     		ldrb	r3, [r3]	@ zero_extendqisi2
ARM GAS  C:\Users\THERMA~1\AppData\Local\Temp\cc965AVb.s 			page 53


 2347 0ea4 1846     		mov	r0, r3
 2348 0ea6 FFF7FEFF 		bl	PRINTER_A_PutChar
 360:printer.c     **** 		PRINTER_A_PutChar(' ');
 2349              		.loc 1 360 0
 2350 0eaa 2020     		movs	r0, #32
 2351 0eac FFF7FEFF 		bl	PRINTER_A_PutChar
 2352              	.LBB58:
 361:printer.c     **** 		for(uint8 x = 0; x < 8; x ++){
 2353              		.loc 1 361 0
 2354 0eb0 0023     		movs	r3, #0
 2355 0eb2 FB73     		strb	r3, [r7, #15]
 2356 0eb4 0AE0     		b	.L127
 2357              	.L128:
 362:printer.c     **** 			PRINTER_A_PutChar(side.d.ProcessedmoneySale[x]);
 2358              		.loc 1 362 0 discriminator 3
 2359 0eb6 FB7B     		ldrb	r3, [r7, #15]	@ zero_extendqisi2
 2360 0eb8 494A     		ldr	r2, .L147
 2361 0eba 1344     		add	r3, r3, r2
 2362 0ebc 93F88234 		ldrb	r3, [r3, #1154]	@ zero_extendqisi2
 2363 0ec0 1846     		mov	r0, r3
 2364 0ec2 FFF7FEFF 		bl	PRINTER_A_PutChar
 361:printer.c     **** 		for(uint8 x = 0; x < 8; x ++){
 2365              		.loc 1 361 0 discriminator 3
 2366 0ec6 FB7B     		ldrb	r3, [r7, #15]	@ zero_extendqisi2
 2367 0ec8 0133     		adds	r3, r3, #1
 2368 0eca FB73     		strb	r3, [r7, #15]
 2369              	.L127:
 361:printer.c     **** 		for(uint8 x = 0; x < 8; x ++){
 2370              		.loc 1 361 0 is_stmt 0 discriminator 1
 2371 0ecc FB7B     		ldrb	r3, [r7, #15]	@ zero_extendqisi2
 2372 0ece 072B     		cmp	r3, #7
 2373 0ed0 F1D9     		bls	.L128
 2374              	.LBE58:
 363:printer.c     **** 		}
 364:printer.c     **** 		PRINTER_A_PutChar(LINE_FEED); 	
 2375              		.loc 1 364 0 is_stmt 1
 2376 0ed2 444B     		ldr	r3, .L147+4
 2377 0ed4 1B78     		ldrb	r3, [r3]	@ zero_extendqisi2
 2378 0ed6 1846     		mov	r0, r3
 2379 0ed8 FFF7FEFF 		bl	PRINTER_A_PutChar
 2380              	.LBB59:
 365:printer.c     **** 		for(uint8 x = 0; x < 13; x ++){
 2381              		.loc 1 365 0
 2382 0edc 0023     		movs	r3, #0
 2383 0ede BB73     		strb	r3, [r7, #14]
 2384 0ee0 08E0     		b	.L129
 2385              	.L130:
 366:printer.c     **** 			PRINTER_A_PutChar(msn_ppu[x]);
 2386              		.loc 1 366 0 discriminator 3
 2387 0ee2 BB7B     		ldrb	r3, [r7, #14]	@ zero_extendqisi2
 2388 0ee4 484A     		ldr	r2, .L147+40
 2389 0ee6 D35C     		ldrb	r3, [r2, r3]	@ zero_extendqisi2
 2390 0ee8 1846     		mov	r0, r3
 2391 0eea FFF7FEFF 		bl	PRINTER_A_PutChar
 365:printer.c     **** 		for(uint8 x = 0; x < 13; x ++){
 2392              		.loc 1 365 0 discriminator 3
 2393 0eee BB7B     		ldrb	r3, [r7, #14]	@ zero_extendqisi2
ARM GAS  C:\Users\THERMA~1\AppData\Local\Temp\cc965AVb.s 			page 54


 2394 0ef0 0133     		adds	r3, r3, #1
 2395 0ef2 BB73     		strb	r3, [r7, #14]
 2396              	.L129:
 365:printer.c     **** 		for(uint8 x = 0; x < 13; x ++){
 2397              		.loc 1 365 0 is_stmt 0 discriminator 1
 2398 0ef4 BB7B     		ldrb	r3, [r7, #14]	@ zero_extendqisi2
 2399 0ef6 0C2B     		cmp	r3, #12
 2400 0ef8 F3D9     		bls	.L130
 2401              	.LBE59:
 367:printer.c     **** 		}
 368:printer.c     **** 		PRINTER_A_PutChar(PRN_CURRENCY[0]);  
 2402              		.loc 1 368 0 is_stmt 1
 2403 0efa 424B     		ldr	r3, .L147+36
 2404 0efc 1B78     		ldrb	r3, [r3]	@ zero_extendqisi2
 2405 0efe 1846     		mov	r0, r3
 2406 0f00 FFF7FEFF 		bl	PRINTER_A_PutChar
 369:printer.c     **** 		PRINTER_A_PutChar(' ');
 2407              		.loc 1 369 0
 2408 0f04 2020     		movs	r0, #32
 2409 0f06 FFF7FEFF 		bl	PRINTER_A_PutChar
 2410              	.LBB60:
 370:printer.c     **** 		for(uint8 x = 1; x < 6; x ++){
 2411              		.loc 1 370 0
 2412 0f0a 0123     		movs	r3, #1
 2413 0f0c 7B73     		strb	r3, [r7, #13]
 2414 0f0e 0AE0     		b	.L131
 2415              	.L132:
 371:printer.c     **** 			PRINTER_A_PutChar(side.d.ProcessedPPU[0][x]);
 2416              		.loc 1 371 0 discriminator 3
 2417 0f10 7B7B     		ldrb	r3, [r7, #13]	@ zero_extendqisi2
 2418 0f12 334A     		ldr	r2, .L147
 2419 0f14 1344     		add	r3, r3, r2
 2420 0f16 93F89234 		ldrb	r3, [r3, #1170]	@ zero_extendqisi2
 2421 0f1a 1846     		mov	r0, r3
 2422 0f1c FFF7FEFF 		bl	PRINTER_A_PutChar
 370:printer.c     **** 		for(uint8 x = 1; x < 6; x ++){
 2423              		.loc 1 370 0 discriminator 3
 2424 0f20 7B7B     		ldrb	r3, [r7, #13]	@ zero_extendqisi2
 2425 0f22 0133     		adds	r3, r3, #1
 2426 0f24 7B73     		strb	r3, [r7, #13]
 2427              	.L131:
 370:printer.c     **** 		for(uint8 x = 1; x < 6; x ++){
 2428              		.loc 1 370 0 is_stmt 0 discriminator 1
 2429 0f26 7B7B     		ldrb	r3, [r7, #13]	@ zero_extendqisi2
 2430 0f28 052B     		cmp	r3, #5
 2431 0f2a F1D9     		bls	.L132
 2432              	.LBE60:
 372:printer.c     **** 		}
 373:printer.c     **** 		PRINTER_A_PutChar(LINE_FEED);
 2433              		.loc 1 373 0 is_stmt 1
 2434 0f2c 2D4B     		ldr	r3, .L147+4
 2435 0f2e 1B78     		ldrb	r3, [r3]	@ zero_extendqisi2
 2436 0f30 1846     		mov	r0, r3
 2437 0f32 FFF7FEFF 		bl	PRINTER_A_PutChar
 2438              	.L111:
 2439              	.LBB61:
 374:printer.c     **** 	}
ARM GAS  C:\Users\THERMA~1\AppData\Local\Temp\cc965AVb.s 			page 55


 375:printer.c     **** 	
 376:printer.c     **** 	/******FOOTER*****/
 377:printer.c     **** 	for(uint8 x = 0; x < 24; x ++){
 2440              		.loc 1 377 0
 2441 0f36 0023     		movs	r3, #0
 2442 0f38 3B73     		strb	r3, [r7, #12]
 2443 0f3a 08E0     		b	.L133
 2444              	.L134:
 378:printer.c     **** 		PRINTER_A_PutChar(SEPARATOR[x]);
 2445              		.loc 1 378 0 discriminator 3
 2446 0f3c 3B7B     		ldrb	r3, [r7, #12]	@ zero_extendqisi2
 2447 0f3e 334A     		ldr	r2, .L147+44
 2448 0f40 D35C     		ldrb	r3, [r2, r3]	@ zero_extendqisi2
 2449 0f42 1846     		mov	r0, r3
 2450 0f44 FFF7FEFF 		bl	PRINTER_A_PutChar
 377:printer.c     **** 		PRINTER_A_PutChar(SEPARATOR[x]);
 2451              		.loc 1 377 0 discriminator 3
 2452 0f48 3B7B     		ldrb	r3, [r7, #12]	@ zero_extendqisi2
 2453 0f4a 0133     		adds	r3, r3, #1
 2454 0f4c 3B73     		strb	r3, [r7, #12]
 2455              	.L133:
 377:printer.c     **** 		PRINTER_A_PutChar(SEPARATOR[x]);
 2456              		.loc 1 377 0 is_stmt 0 discriminator 1
 2457 0f4e 3B7B     		ldrb	r3, [r7, #12]	@ zero_extendqisi2
 2458 0f50 172B     		cmp	r3, #23
 2459 0f52 F3D9     		bls	.L134
 2460              	.LBE61:
 379:printer.c     **** 	}
 380:printer.c     **** 	PRINTER_A_PutChar(LINE_FEED);
 2461              		.loc 1 380 0 is_stmt 1
 2462 0f54 234B     		ldr	r3, .L147+4
 2463 0f56 1B78     		ldrb	r3, [r3]	@ zero_extendqisi2
 2464 0f58 1846     		mov	r0, r3
 2465 0f5a FFF7FEFF 		bl	PRINTER_A_PutChar
 2466              	.LBB62:
 381:printer.c     **** 	for(uint8 x = 0; x < 22; x ++){
 2467              		.loc 1 381 0
 2468 0f5e 0023     		movs	r3, #0
 2469 0f60 FB72     		strb	r3, [r7, #11]
 2470 0f62 08E0     		b	.L135
 2471              	.L136:
 382:printer.c     **** 		PRINTER_A_PutChar(msn_footer[x]);
 2472              		.loc 1 382 0 discriminator 3
 2473 0f64 FB7A     		ldrb	r3, [r7, #11]	@ zero_extendqisi2
 2474 0f66 2A4A     		ldr	r2, .L147+48
 2475 0f68 D35C     		ldrb	r3, [r2, r3]	@ zero_extendqisi2
 2476 0f6a 1846     		mov	r0, r3
 2477 0f6c FFF7FEFF 		bl	PRINTER_A_PutChar
 381:printer.c     **** 	for(uint8 x = 0; x < 22; x ++){
 2478              		.loc 1 381 0 discriminator 3
 2479 0f70 FB7A     		ldrb	r3, [r7, #11]	@ zero_extendqisi2
 2480 0f72 0133     		adds	r3, r3, #1
 2481 0f74 FB72     		strb	r3, [r7, #11]
 2482              	.L135:
 381:printer.c     **** 	for(uint8 x = 0; x < 22; x ++){
 2483              		.loc 1 381 0 is_stmt 0 discriminator 1
 2484 0f76 FB7A     		ldrb	r3, [r7, #11]	@ zero_extendqisi2
ARM GAS  C:\Users\THERMA~1\AppData\Local\Temp\cc965AVb.s 			page 56


 2485 0f78 152B     		cmp	r3, #21
 2486 0f7a F3D9     		bls	.L136
 2487              	.LBE62:
 383:printer.c     **** 	}
 384:printer.c     **** 	PRINTER_A_PutChar(LINE_FEED);
 2488              		.loc 1 384 0 is_stmt 1
 2489 0f7c 194B     		ldr	r3, .L147+4
 2490 0f7e 1B78     		ldrb	r3, [r3]	@ zero_extendqisi2
 2491 0f80 1846     		mov	r0, r3
 2492 0f82 FFF7FEFF 		bl	PRINTER_A_PutChar
 2493              	.LBB63:
 385:printer.c     **** 	for(uint8 x = 0; x < 22; x ++){
 2494              		.loc 1 385 0
 2495 0f86 0023     		movs	r3, #0
 2496 0f88 BB72     		strb	r3, [r7, #10]
 2497 0f8a 08E0     		b	.L137
 2498              	.L138:
 386:printer.c     **** 		PRINTER_A_PutChar(msn_footer2[x]);
 2499              		.loc 1 386 0 discriminator 3
 2500 0f8c BB7A     		ldrb	r3, [r7, #10]	@ zero_extendqisi2
 2501 0f8e 214A     		ldr	r2, .L147+52
 2502 0f90 D35C     		ldrb	r3, [r2, r3]	@ zero_extendqisi2
 2503 0f92 1846     		mov	r0, r3
 2504 0f94 FFF7FEFF 		bl	PRINTER_A_PutChar
 385:printer.c     **** 	for(uint8 x = 0; x < 22; x ++){
 2505              		.loc 1 385 0 discriminator 3
 2506 0f98 BB7A     		ldrb	r3, [r7, #10]	@ zero_extendqisi2
 2507 0f9a 0133     		adds	r3, r3, #1
 2508 0f9c BB72     		strb	r3, [r7, #10]
 2509              	.L137:
 385:printer.c     **** 	for(uint8 x = 0; x < 22; x ++){
 2510              		.loc 1 385 0 is_stmt 0 discriminator 1
 2511 0f9e BB7A     		ldrb	r3, [r7, #10]	@ zero_extendqisi2
 2512 0fa0 152B     		cmp	r3, #21
 2513 0fa2 F3D9     		bls	.L138
 2514              	.LBE63:
 387:printer.c     **** 	}
 388:printer.c     ****         
 389:printer.c     ****     PRINTER_A_PutChar(LINE_FEED);
 2515              		.loc 1 389 0 is_stmt 1
 2516 0fa4 0F4B     		ldr	r3, .L147+4
 2517 0fa6 1B78     		ldrb	r3, [r3]	@ zero_extendqisi2
 2518 0fa8 1846     		mov	r0, r3
 2519 0faa FFF7FEFF 		bl	PRINTER_A_PutChar
 390:printer.c     ****     PRINTER_A_PutChar(LINE_FEED);
 2520              		.loc 1 390 0
 2521 0fae 0D4B     		ldr	r3, .L147+4
 2522 0fb0 1B78     		ldrb	r3, [r3]	@ zero_extendqisi2
 2523 0fb2 1846     		mov	r0, r3
 2524 0fb4 FFF7FEFF 		bl	PRINTER_A_PutChar
 391:printer.c     ****     PRINTER_A_PutChar(LINE_FEED);
 2525              		.loc 1 391 0
 2526 0fb8 0A4B     		ldr	r3, .L147+4
 2527 0fba 1B78     		ldrb	r3, [r3]	@ zero_extendqisi2
 2528 0fbc 1846     		mov	r0, r3
 2529 0fbe FFF7FEFF 		bl	PRINTER_A_PutChar
 392:printer.c     ****     PRINTER_A_PutChar(LINE_FEED);
ARM GAS  C:\Users\THERMA~1\AppData\Local\Temp\cc965AVb.s 			page 57


 2530              		.loc 1 392 0
 2531 0fc2 084B     		ldr	r3, .L147+4
 2532 0fc4 1B78     		ldrb	r3, [r3]	@ zero_extendqisi2
 2533 0fc6 1846     		mov	r0, r3
 2534 0fc8 FFF7FEFF 		bl	PRINTER_A_PutChar
 393:printer.c     ****     PRINTER_A_PutChar(LINE_FEED);
 2535              		.loc 1 393 0
 2536 0fcc 054B     		ldr	r3, .L147+4
 2537 0fce 1B78     		ldrb	r3, [r3]	@ zero_extendqisi2
 2538 0fd0 1846     		mov	r0, r3
 2539 0fd2 FFF7FEFF 		bl	PRINTER_A_PutChar
 394:printer.c     **** }
 2540              		.loc 1 394 0
 2541 0fd6 00BF     		nop
 2542 0fd8 4C37     		adds	r7, r7, #76
 2543              		.cfi_def_cfa_offset 12
 2544 0fda BD46     		mov	sp, r7
 2545              		.cfi_def_cfa_register 13
 2546              		@ sp needed
 2547 0fdc 90BD     		pop	{r4, r7, pc}
 2548              	.L148:
 2549 0fde 00BF     		.align	2
 2550              	.L147:
 2551 0fe0 00000000 		.word	side
 2552 0fe4 00000000 		.word	LINE_FEED
 2553 0fe8 00000000 		.word	msn_pos
 2554 0fec 00000000 		.word	msn_product
 2555 0ff0 00000000 		.word	msn_diesel
 2556 0ff4 00000000 		.word	msn_vol
 2557 0ff8 00000000 		.word	DecVol
 2558 0ffc 00000000 		.word	VolSimbol
 2559 1000 00000000 		.word	msn_din
 2560 1004 00000000 		.word	PRN_CURRENCY
 2561 1008 00000000 		.word	msn_ppu
 2562 100c 00000000 		.word	SEPARATOR
 2563 1010 00000000 		.word	msn_footer
 2564 1014 00000000 		.word	msn_footer2
 2565              		.cfi_endproc
 2566              	.LFE64:
 2567              		.size	PrintReceipt, .-PrintReceipt
 2568              		.section	.text.PrintShift,"ax",%progbits
 2569              		.align	2
 2570              		.global	PrintShift
 2571              		.thumb
 2572              		.thumb_func
 2573              		.type	PrintShift, %function
 2574              	PrintShift:
 2575              	.LFB65:
 395:printer.c     **** 
 396:printer.c     **** void PrintShift(void){
 2576              		.loc 1 396 0
 2577              		.cfi_startproc
 2578              		@ args = 0, pretend = 0, frame = 112
 2579              		@ frame_needed = 1, uses_anonymous_args = 0
 2580 0000 90B5     		push	{r4, r7, lr}
 2581              		.cfi_def_cfa_offset 12
 2582              		.cfi_offset 4, -12
ARM GAS  C:\Users\THERMA~1\AppData\Local\Temp\cc965AVb.s 			page 58


 2583              		.cfi_offset 7, -8
 2584              		.cfi_offset 14, -4
 2585 0002 9DB0     		sub	sp, sp, #116
 2586              		.cfi_def_cfa_offset 128
 2587 0004 00AF     		add	r7, sp, #0
 2588              		.cfi_def_cfa_register 7
 2589              	.LBB64:
 397:printer.c     ****     uint8 screen_size,pos;
 398:printer.c     ****     char8 lectanterior[10],lectactual[10],memoria[10],resultado[10];
 399:printer.c     ****     uint32 actual,anterior,resta;
 400:printer.c     ****     for(uint8 LCDRx = 0; LCDRx < 6; LCDRx++){
 2590              		.loc 1 400 0
 2591 0006 0023     		movs	r3, #0
 2592 0008 87F86E30 		strb	r3, [r7, #110]
 2593 000c 0BE0     		b	.L150
 2594              	.L151:
 401:printer.c     ****         screen_PutChar(ASK_TIME[LCDRx]);
 2595              		.loc 1 401 0 discriminator 3
 2596 000e 97F86E30 		ldrb	r3, [r7, #110]	@ zero_extendqisi2
 2597 0012 C44A     		ldr	r2, .L257
 2598 0014 D35C     		ldrb	r3, [r2, r3]	@ zero_extendqisi2
 2599 0016 1846     		mov	r0, r3
 2600 0018 FFF7FEFF 		bl	screen_PutChar
 400:printer.c     ****         screen_PutChar(ASK_TIME[LCDRx]);
 2601              		.loc 1 400 0 discriminator 3
 2602 001c 97F86E30 		ldrb	r3, [r7, #110]	@ zero_extendqisi2
 2603 0020 0133     		adds	r3, r3, #1
 2604 0022 87F86E30 		strb	r3, [r7, #110]
 2605              	.L150:
 400:printer.c     ****         screen_PutChar(ASK_TIME[LCDRx]);
 2606              		.loc 1 400 0 is_stmt 0 discriminator 1
 2607 0026 97F86E30 		ldrb	r3, [r7, #110]	@ zero_extendqisi2
 2608 002a 052B     		cmp	r3, #5
 2609 002c EFD9     		bls	.L151
 2610              	.LBE64:
 402:printer.c     ****     }
 403:printer.c     ****     CyDelay(10);
 2611              		.loc 1 403 0 is_stmt 1
 2612 002e 0A20     		movs	r0, #10
 2613 0030 FFF7FEFF 		bl	CyDelay
 404:printer.c     ****     screen_size = screen_GetRxBufferSize();
 2614              		.loc 1 404 0
 2615 0034 FFF7FEFF 		bl	screen_GetRxBufferSize
 2616 0038 0346     		mov	r3, r0
 2617 003a 87F83F30 		strb	r3, [r7, #63]
 405:printer.c     ****     if(screen_size >= 13 ){
 2618              		.loc 1 405 0
 2619 003e 97F83F30 		ldrb	r3, [r7, #63]	@ zero_extendqisi2
 2620 0042 0C2B     		cmp	r3, #12
 2621 0044 19D9     		bls	.L152
 2622              	.LBB65:
 406:printer.c     ****         for(uint8 LCDRx = 0; LCDRx < screen_size; LCDRx++){
 2623              		.loc 1 406 0
 2624 0046 0023     		movs	r3, #0
 2625 0048 87F86D30 		strb	r3, [r7, #109]
 2626 004c 0CE0     		b	.L153
 2627              	.L154:
ARM GAS  C:\Users\THERMA~1\AppData\Local\Temp\cc965AVb.s 			page 59


 407:printer.c     ****             touch1[LCDRx] = screen_ReadRxData();
 2628              		.loc 1 407 0 discriminator 3
 2629 004e 97F86D40 		ldrb	r4, [r7, #109]	@ zero_extendqisi2
 2630 0052 FFF7FEFF 		bl	screen_ReadRxData
 2631 0056 0346     		mov	r3, r0
 2632 0058 1A46     		mov	r2, r3
 2633 005a B34B     		ldr	r3, .L257+4
 2634 005c 1A55     		strb	r2, [r3, r4]
 406:printer.c     ****         for(uint8 LCDRx = 0; LCDRx < screen_size; LCDRx++){
 2635              		.loc 1 406 0 discriminator 3
 2636 005e 97F86D30 		ldrb	r3, [r7, #109]	@ zero_extendqisi2
 2637 0062 0133     		adds	r3, r3, #1
 2638 0064 87F86D30 		strb	r3, [r7, #109]
 2639              	.L153:
 406:printer.c     ****         for(uint8 LCDRx = 0; LCDRx < screen_size; LCDRx++){
 2640              		.loc 1 406 0 is_stmt 0 discriminator 1
 2641 0068 97F86D20 		ldrb	r2, [r7, #109]	@ zero_extendqisi2
 2642 006c 97F83F30 		ldrb	r3, [r7, #63]	@ zero_extendqisi2
 2643 0070 9A42     		cmp	r2, r3
 2644 0072 ECD3     		bcc	.L154
 2645              	.LBE65:
 408:printer.c     ****         }
 409:printer.c     ****         screen_size = 0;
 2646              		.loc 1 409 0 is_stmt 1
 2647 0074 0023     		movs	r3, #0
 2648 0076 87F83F30 		strb	r3, [r7, #63]
 2649              	.L152:
 410:printer.c     ****     }
 411:printer.c     ****     PRINTER_A_PutChar(0x1D);
 2650              		.loc 1 411 0
 2651 007a 1D20     		movs	r0, #29
 2652 007c FFF7FEFF 		bl	PRINTER_A_PutChar
 412:printer.c     ****     PRINTER_A_PutChar(0x70);
 2653              		.loc 1 412 0
 2654 0080 7020     		movs	r0, #112
 2655 0082 FFF7FEFF 		bl	PRINTER_A_PutChar
 413:printer.c     ****     PRINTER_A_PutChar(0x01);
 2656              		.loc 1 413 0
 2657 0086 0120     		movs	r0, #1
 2658 0088 FFF7FEFF 		bl	PRINTER_A_PutChar
 414:printer.c     ****     PRINTER_A_PutChar(0x00);
 2659              		.loc 1 414 0
 2660 008c 0020     		movs	r0, #0
 2661 008e FFF7FEFF 		bl	PRINTER_A_PutChar
 415:printer.c     ****     int_shiftnumber++;
 2662              		.loc 1 415 0
 2663 0092 A64B     		ldr	r3, .L257+8
 2664 0094 1B78     		ldrb	r3, [r3]	@ zero_extendqisi2
 2665 0096 0133     		adds	r3, r3, #1
 2666 0098 DAB2     		uxtb	r2, r3
 2667 009a A44B     		ldr	r3, .L257+8
 2668 009c 1A70     		strb	r2, [r3]
 416:printer.c     ****     shift_number[5]=(int_shiftnumber/10000)+48;
 2669              		.loc 1 416 0
 2670 009e A34B     		ldr	r3, .L257+8
 2671 00a0 1B78     		ldrb	r3, [r3]	@ zero_extendqisi2
 2672 00a2 A34A     		ldr	r2, .L257+12
ARM GAS  C:\Users\THERMA~1\AppData\Local\Temp\cc965AVb.s 			page 60


 2673 00a4 82FB0312 		smull	r1, r2, r2, r3
 2674 00a8 1213     		asrs	r2, r2, #12
 2675 00aa DB17     		asrs	r3, r3, #31
 2676 00ac D31A     		subs	r3, r2, r3
 2677 00ae DBB2     		uxtb	r3, r3
 2678 00b0 3033     		adds	r3, r3, #48
 2679 00b2 DAB2     		uxtb	r2, r3
 2680 00b4 9F4B     		ldr	r3, .L257+16
 2681 00b6 5A71     		strb	r2, [r3, #5]
 417:printer.c     **** 	shift_number[4]=((int_shiftnumber%10000)/1000)+48;
 2682              		.loc 1 417 0
 2683 00b8 9C4B     		ldr	r3, .L257+8
 2684 00ba 1B78     		ldrb	r3, [r3]	@ zero_extendqisi2
 2685 00bc 1A46     		mov	r2, r3
 2686 00be 9C4B     		ldr	r3, .L257+12
 2687 00c0 83FB0213 		smull	r1, r3, r3, r2
 2688 00c4 1913     		asrs	r1, r3, #12
 2689 00c6 D317     		asrs	r3, r2, #31
 2690 00c8 CB1A     		subs	r3, r1, r3
 2691 00ca 42F21071 		movw	r1, #10000
 2692 00ce 01FB03F3 		mul	r3, r1, r3
 2693 00d2 D31A     		subs	r3, r2, r3
 2694 00d4 984A     		ldr	r2, .L257+20
 2695 00d6 82FB0312 		smull	r1, r2, r2, r3
 2696 00da 9211     		asrs	r2, r2, #6
 2697 00dc DB17     		asrs	r3, r3, #31
 2698 00de D31A     		subs	r3, r2, r3
 2699 00e0 DBB2     		uxtb	r3, r3
 2700 00e2 3033     		adds	r3, r3, #48
 2701 00e4 DAB2     		uxtb	r2, r3
 2702 00e6 934B     		ldr	r3, .L257+16
 2703 00e8 1A71     		strb	r2, [r3, #4]
 418:printer.c     **** 	shift_number[3]=(((int_shiftnumber%10000)%1000)/100)+48;
 2704              		.loc 1 418 0
 2705 00ea 904B     		ldr	r3, .L257+8
 2706 00ec 1B78     		ldrb	r3, [r3]	@ zero_extendqisi2
 2707 00ee 1A46     		mov	r2, r3
 2708 00f0 8F4B     		ldr	r3, .L257+12
 2709 00f2 83FB0213 		smull	r1, r3, r3, r2
 2710 00f6 1913     		asrs	r1, r3, #12
 2711 00f8 D317     		asrs	r3, r2, #31
 2712 00fa CB1A     		subs	r3, r1, r3
 2713 00fc 42F21071 		movw	r1, #10000
 2714 0100 01FB03F3 		mul	r3, r1, r3
 2715 0104 D31A     		subs	r3, r2, r3
 2716 0106 8C4A     		ldr	r2, .L257+20
 2717 0108 82FB0312 		smull	r1, r2, r2, r3
 2718 010c 9111     		asrs	r1, r2, #6
 2719 010e DA17     		asrs	r2, r3, #31
 2720 0110 8A1A     		subs	r2, r1, r2
 2721 0112 4FF47A71 		mov	r1, #1000
 2722 0116 01FB02F2 		mul	r2, r1, r2
 2723 011a 9A1A     		subs	r2, r3, r2
 2724 011c 874B     		ldr	r3, .L257+24
 2725 011e 83FB0213 		smull	r1, r3, r3, r2
 2726 0122 5911     		asrs	r1, r3, #5
 2727 0124 D317     		asrs	r3, r2, #31
ARM GAS  C:\Users\THERMA~1\AppData\Local\Temp\cc965AVb.s 			page 61


 2728 0126 CB1A     		subs	r3, r1, r3
 2729 0128 DBB2     		uxtb	r3, r3
 2730 012a 3033     		adds	r3, r3, #48
 2731 012c DAB2     		uxtb	r2, r3
 2732 012e 814B     		ldr	r3, .L257+16
 2733 0130 DA70     		strb	r2, [r3, #3]
 419:printer.c     **** 	shift_number[2]=((((int_shiftnumber%10000)%1000)%100)/10)+48;	
 2734              		.loc 1 419 0
 2735 0132 7E4B     		ldr	r3, .L257+8
 2736 0134 1B78     		ldrb	r3, [r3]	@ zero_extendqisi2
 2737 0136 7E4A     		ldr	r2, .L257+12
 2738 0138 82FB0312 		smull	r1, r2, r2, r3
 2739 013c 1113     		asrs	r1, r2, #12
 2740 013e DA17     		asrs	r2, r3, #31
 2741 0140 8A1A     		subs	r2, r1, r2
 2742 0142 42F21071 		movw	r1, #10000
 2743 0146 01FB02F2 		mul	r2, r1, r2
 2744 014a 9A1A     		subs	r2, r3, r2
 2745 014c 7A4B     		ldr	r3, .L257+20
 2746 014e 83FB0213 		smull	r1, r3, r3, r2
 2747 0152 9911     		asrs	r1, r3, #6
 2748 0154 D317     		asrs	r3, r2, #31
 2749 0156 CB1A     		subs	r3, r1, r3
 2750 0158 4FF47A71 		mov	r1, #1000
 2751 015c 01FB03F3 		mul	r3, r1, r3
 2752 0160 D31A     		subs	r3, r2, r3
 2753 0162 764A     		ldr	r2, .L257+24
 2754 0164 82FB0312 		smull	r1, r2, r2, r3
 2755 0168 5111     		asrs	r1, r2, #5
 2756 016a DA17     		asrs	r2, r3, #31
 2757 016c 8A1A     		subs	r2, r1, r2
 2758 016e 6421     		movs	r1, #100
 2759 0170 01FB02F2 		mul	r2, r1, r2
 2760 0174 9A1A     		subs	r2, r3, r2
 2761 0176 724B     		ldr	r3, .L257+28
 2762 0178 83FB0213 		smull	r1, r3, r3, r2
 2763 017c 9910     		asrs	r1, r3, #2
 2764 017e D317     		asrs	r3, r2, #31
 2765 0180 CB1A     		subs	r3, r1, r3
 2766 0182 DBB2     		uxtb	r3, r3
 2767 0184 3033     		adds	r3, r3, #48
 2768 0186 DAB2     		uxtb	r2, r3
 2769 0188 6A4B     		ldr	r3, .L257+16
 2770 018a 9A70     		strb	r2, [r3, #2]
 420:printer.c     **** 	shift_number[1]=((((int_shiftnumber%10000)%1000)%100)%10)+48;
 2771              		.loc 1 420 0
 2772 018c 674B     		ldr	r3, .L257+8
 2773 018e 1B78     		ldrb	r3, [r3]	@ zero_extendqisi2
 2774 0190 674A     		ldr	r2, .L257+12
 2775 0192 82FB0312 		smull	r1, r2, r2, r3
 2776 0196 1113     		asrs	r1, r2, #12
 2777 0198 DA17     		asrs	r2, r3, #31
 2778 019a 8A1A     		subs	r2, r1, r2
 2779 019c 42F21071 		movw	r1, #10000
 2780 01a0 01FB02F2 		mul	r2, r1, r2
 2781 01a4 9A1A     		subs	r2, r3, r2
 2782 01a6 644B     		ldr	r3, .L257+20
ARM GAS  C:\Users\THERMA~1\AppData\Local\Temp\cc965AVb.s 			page 62


 2783 01a8 83FB0213 		smull	r1, r3, r3, r2
 2784 01ac 9911     		asrs	r1, r3, #6
 2785 01ae D317     		asrs	r3, r2, #31
 2786 01b0 CB1A     		subs	r3, r1, r3
 2787 01b2 4FF47A71 		mov	r1, #1000
 2788 01b6 01FB03F3 		mul	r3, r1, r3
 2789 01ba D31A     		subs	r3, r2, r3
 2790 01bc 5F4A     		ldr	r2, .L257+24
 2791 01be 82FB0312 		smull	r1, r2, r2, r3
 2792 01c2 5111     		asrs	r1, r2, #5
 2793 01c4 DA17     		asrs	r2, r3, #31
 2794 01c6 8A1A     		subs	r2, r1, r2
 2795 01c8 6421     		movs	r1, #100
 2796 01ca 01FB02F2 		mul	r2, r1, r2
 2797 01ce 9A1A     		subs	r2, r3, r2
 2798 01d0 5B4B     		ldr	r3, .L257+28
 2799 01d2 83FB0213 		smull	r1, r3, r3, r2
 2800 01d6 9910     		asrs	r1, r3, #2
 2801 01d8 D317     		asrs	r3, r2, #31
 2802 01da C91A     		subs	r1, r1, r3
 2803 01dc 0B46     		mov	r3, r1
 2804 01de 9B00     		lsls	r3, r3, #2
 2805 01e0 0B44     		add	r3, r3, r1
 2806 01e2 5B00     		lsls	r3, r3, #1
 2807 01e4 D11A     		subs	r1, r2, r3
 2808 01e6 CBB2     		uxtb	r3, r1
 2809 01e8 3033     		adds	r3, r3, #48
 2810 01ea DAB2     		uxtb	r2, r3
 2811 01ec 514B     		ldr	r3, .L257+16
 2812 01ee 5A70     		strb	r2, [r3, #1]
 2813              	.LBB66:
 421:printer.c     ****     for(uint8 i = 7; i<13; i++){
 2814              		.loc 1 421 0
 2815 01f0 0723     		movs	r3, #7
 2816 01f2 87F86C30 		strb	r3, [r7, #108]
 2817 01f6 10E0     		b	.L155
 2818              	.L156:
 422:printer.c     ****         EEPROM_1_WriteByte(shift_number[i-6],i);
 2819              		.loc 1 422 0 discriminator 3
 2820 01f8 97F86C30 		ldrb	r3, [r7, #108]	@ zero_extendqisi2
 2821 01fc 063B     		subs	r3, r3, #6
 2822 01fe 4D4A     		ldr	r2, .L257+16
 2823 0200 D35C     		ldrb	r3, [r2, r3]	@ zero_extendqisi2
 2824 0202 97F86C20 		ldrb	r2, [r7, #108]	@ zero_extendqisi2
 2825 0206 92B2     		uxth	r2, r2
 2826 0208 1146     		mov	r1, r2
 2827 020a 1846     		mov	r0, r3
 2828 020c FFF7FEFF 		bl	EEPROM_1_WriteByte
 421:printer.c     ****     for(uint8 i = 7; i<13; i++){
 2829              		.loc 1 421 0 discriminator 3
 2830 0210 97F86C30 		ldrb	r3, [r7, #108]	@ zero_extendqisi2
 2831 0214 0133     		adds	r3, r3, #1
 2832 0216 87F86C30 		strb	r3, [r7, #108]
 2833              	.L155:
 421:printer.c     ****     for(uint8 i = 7; i<13; i++){
 2834              		.loc 1 421 0 is_stmt 0 discriminator 1
 2835 021a 97F86C30 		ldrb	r3, [r7, #108]	@ zero_extendqisi2
ARM GAS  C:\Users\THERMA~1\AppData\Local\Temp\cc965AVb.s 			page 63


 2836 021e 0C2B     		cmp	r3, #12
 2837 0220 EAD9     		bls	.L156
 2838              	.LBE66:
 423:printer.c     ****     }
 424:printer.c     ****     PRINTER_A_PutChar(LINE_FEED);
 2839              		.loc 1 424 0 is_stmt 1
 2840 0222 484B     		ldr	r3, .L257+32
 2841 0224 1B78     		ldrb	r3, [r3]	@ zero_extendqisi2
 2842 0226 1846     		mov	r0, r3
 2843 0228 FFF7FEFF 		bl	PRINTER_A_PutChar
 2844              	.LBB67:
 425:printer.c     **** 	for(uint8 x = 0; x < 22; x ++){
 2845              		.loc 1 425 0
 2846 022c 0023     		movs	r3, #0
 2847 022e 87F86B30 		strb	r3, [r7, #107]
 2848 0232 0BE0     		b	.L157
 2849              	.L158:
 426:printer.c     **** 		PRINTER_A_PutChar(msn_EDS[x]);   // Encabezado de estacin
 2850              		.loc 1 426 0 discriminator 3
 2851 0234 97F86B30 		ldrb	r3, [r7, #107]	@ zero_extendqisi2
 2852 0238 434A     		ldr	r2, .L257+36
 2853 023a D35C     		ldrb	r3, [r2, r3]	@ zero_extendqisi2
 2854 023c 1846     		mov	r0, r3
 2855 023e FFF7FEFF 		bl	PRINTER_A_PutChar
 425:printer.c     **** 	for(uint8 x = 0; x < 22; x ++){
 2856              		.loc 1 425 0 discriminator 3
 2857 0242 97F86B30 		ldrb	r3, [r7, #107]	@ zero_extendqisi2
 2858 0246 0133     		adds	r3, r3, #1
 2859 0248 87F86B30 		strb	r3, [r7, #107]
 2860              	.L157:
 425:printer.c     **** 	for(uint8 x = 0; x < 22; x ++){
 2861              		.loc 1 425 0 is_stmt 0 discriminator 1
 2862 024c 97F86B30 		ldrb	r3, [r7, #107]	@ zero_extendqisi2
 2863 0250 152B     		cmp	r3, #21
 2864 0252 EFD9     		bls	.L158
 2865              	.LBE67:
 427:printer.c     **** 	}
 428:printer.c     **** 	PRINTER_A_PutChar(LINE_FEED);
 2866              		.loc 1 428 0 is_stmt 1
 2867 0254 3B4B     		ldr	r3, .L257+32
 2868 0256 1B78     		ldrb	r3, [r3]	@ zero_extendqisi2
 2869 0258 1846     		mov	r0, r3
 2870 025a FFF7FEFF 		bl	PRINTER_A_PutChar
 2871              	.LBB68:
 429:printer.c     **** 	for(uint8 x = 0; x < 22; x ++){
 2872              		.loc 1 429 0
 2873 025e 0023     		movs	r3, #0
 2874 0260 87F86A30 		strb	r3, [r7, #106]
 2875 0264 0BE0     		b	.L159
 2876              	.L160:
 430:printer.c     **** 		PRINTER_A_PutChar(msn_EDS2[x]);
 2877              		.loc 1 430 0 discriminator 3
 2878 0266 97F86A30 		ldrb	r3, [r7, #106]	@ zero_extendqisi2
 2879 026a 384A     		ldr	r2, .L257+40
 2880 026c D35C     		ldrb	r3, [r2, r3]	@ zero_extendqisi2
 2881 026e 1846     		mov	r0, r3
 2882 0270 FFF7FEFF 		bl	PRINTER_A_PutChar
ARM GAS  C:\Users\THERMA~1\AppData\Local\Temp\cc965AVb.s 			page 64


 429:printer.c     **** 	for(uint8 x = 0; x < 22; x ++){
 2883              		.loc 1 429 0 discriminator 3
 2884 0274 97F86A30 		ldrb	r3, [r7, #106]	@ zero_extendqisi2
 2885 0278 0133     		adds	r3, r3, #1
 2886 027a 87F86A30 		strb	r3, [r7, #106]
 2887              	.L159:
 429:printer.c     **** 	for(uint8 x = 0; x < 22; x ++){
 2888              		.loc 1 429 0 is_stmt 0 discriminator 1
 2889 027e 97F86A30 		ldrb	r3, [r7, #106]	@ zero_extendqisi2
 2890 0282 152B     		cmp	r3, #21
 2891 0284 EFD9     		bls	.L160
 2892              	.LBE68:
 431:printer.c     **** 	}
 432:printer.c     **** 	PRINTER_A_PutChar(LINE_FEED);
 2893              		.loc 1 432 0 is_stmt 1
 2894 0286 2F4B     		ldr	r3, .L257+32
 2895 0288 1B78     		ldrb	r3, [r3]	@ zero_extendqisi2
 2896 028a 1846     		mov	r0, r3
 2897 028c FFF7FEFF 		bl	PRINTER_A_PutChar
 2898              	.LBB69:
 433:printer.c     **** 	for(uint8 x = 0; x < 22; x ++){
 2899              		.loc 1 433 0
 2900 0290 0023     		movs	r3, #0
 2901 0292 87F86930 		strb	r3, [r7, #105]
 2902 0296 0BE0     		b	.L161
 2903              	.L162:
 434:printer.c     **** 		PRINTER_A_PutChar(msn_EDS3[x]);
 2904              		.loc 1 434 0 discriminator 3
 2905 0298 97F86930 		ldrb	r3, [r7, #105]	@ zero_extendqisi2
 2906 029c 2C4A     		ldr	r2, .L257+44
 2907 029e D35C     		ldrb	r3, [r2, r3]	@ zero_extendqisi2
 2908 02a0 1846     		mov	r0, r3
 2909 02a2 FFF7FEFF 		bl	PRINTER_A_PutChar
 433:printer.c     **** 	for(uint8 x = 0; x < 22; x ++){
 2910              		.loc 1 433 0 discriminator 3
 2911 02a6 97F86930 		ldrb	r3, [r7, #105]	@ zero_extendqisi2
 2912 02aa 0133     		adds	r3, r3, #1
 2913 02ac 87F86930 		strb	r3, [r7, #105]
 2914              	.L161:
 433:printer.c     **** 	for(uint8 x = 0; x < 22; x ++){
 2915              		.loc 1 433 0 is_stmt 0 discriminator 1
 2916 02b0 97F86930 		ldrb	r3, [r7, #105]	@ zero_extendqisi2
 2917 02b4 152B     		cmp	r3, #21
 2918 02b6 EFD9     		bls	.L162
 2919              	.LBE69:
 435:printer.c     **** 	}
 436:printer.c     **** 	PRINTER_A_PutChar(LINE_FEED);
 2920              		.loc 1 436 0 is_stmt 1
 2921 02b8 224B     		ldr	r3, .L257+32
 2922 02ba 1B78     		ldrb	r3, [r3]	@ zero_extendqisi2
 2923 02bc 1846     		mov	r0, r3
 2924 02be FFF7FEFF 		bl	PRINTER_A_PutChar
 2925              	.LBB70:
 437:printer.c     **** 	for(uint8 x = 0; x < 22; x ++){
 2926              		.loc 1 437 0
 2927 02c2 0023     		movs	r3, #0
 2928 02c4 87F86830 		strb	r3, [r7, #104]
ARM GAS  C:\Users\THERMA~1\AppData\Local\Temp\cc965AVb.s 			page 65


 2929 02c8 0BE0     		b	.L163
 2930              	.L164:
 438:printer.c     **** 		PRINTER_A_PutChar(msn_EDS4[x]);
 2931              		.loc 1 438 0 discriminator 3
 2932 02ca 97F86830 		ldrb	r3, [r7, #104]	@ zero_extendqisi2
 2933 02ce 214A     		ldr	r2, .L257+48
 2934 02d0 D35C     		ldrb	r3, [r2, r3]	@ zero_extendqisi2
 2935 02d2 1846     		mov	r0, r3
 2936 02d4 FFF7FEFF 		bl	PRINTER_A_PutChar
 437:printer.c     **** 	for(uint8 x = 0; x < 22; x ++){
 2937              		.loc 1 437 0 discriminator 3
 2938 02d8 97F86830 		ldrb	r3, [r7, #104]	@ zero_extendqisi2
 2939 02dc 0133     		adds	r3, r3, #1
 2940 02de 87F86830 		strb	r3, [r7, #104]
 2941              	.L163:
 437:printer.c     **** 	for(uint8 x = 0; x < 22; x ++){
 2942              		.loc 1 437 0 is_stmt 0 discriminator 1
 2943 02e2 97F86830 		ldrb	r3, [r7, #104]	@ zero_extendqisi2
 2944 02e6 152B     		cmp	r3, #21
 2945 02e8 EFD9     		bls	.L164
 2946              	.LBE70:
 439:printer.c     **** 	}
 440:printer.c     **** 	PRINTER_A_PutChar(LINE_FEED);  
 2947              		.loc 1 440 0 is_stmt 1
 2948 02ea 164B     		ldr	r3, .L257+32
 2949 02ec 1B78     		ldrb	r3, [r3]	@ zero_extendqisi2
 2950 02ee 1846     		mov	r0, r3
 2951 02f0 FFF7FEFF 		bl	PRINTER_A_PutChar
 2952              	.LBB71:
 441:printer.c     **** 	for(uint8 x = 0; x < 24; x ++){
 2953              		.loc 1 441 0
 2954 02f4 0023     		movs	r3, #0
 2955 02f6 87F86730 		strb	r3, [r7, #103]
 2956 02fa 0BE0     		b	.L165
 2957              	.L166:
 442:printer.c     **** 		PRINTER_A_PutChar(SEPARATOR[x]); //Separador de seccin
 2958              		.loc 1 442 0 discriminator 3
 2959 02fc 97F86730 		ldrb	r3, [r7, #103]	@ zero_extendqisi2
 2960 0300 154A     		ldr	r2, .L257+52
 2961 0302 D35C     		ldrb	r3, [r2, r3]	@ zero_extendqisi2
 2962 0304 1846     		mov	r0, r3
 2963 0306 FFF7FEFF 		bl	PRINTER_A_PutChar
 441:printer.c     **** 	for(uint8 x = 0; x < 24; x ++){
 2964              		.loc 1 441 0 discriminator 3
 2965 030a 97F86730 		ldrb	r3, [r7, #103]	@ zero_extendqisi2
 2966 030e 0133     		adds	r3, r3, #1
 2967 0310 87F86730 		strb	r3, [r7, #103]
 2968              	.L165:
 441:printer.c     **** 	for(uint8 x = 0; x < 24; x ++){
 2969              		.loc 1 441 0 is_stmt 0 discriminator 1
 2970 0314 97F86730 		ldrb	r3, [r7, #103]	@ zero_extendqisi2
 2971 0318 172B     		cmp	r3, #23
 2972 031a EFD9     		bls	.L166
 2973              	.LBE71:
 2974              	.LBB72:
 443:printer.c     **** 	}
 444:printer.c     ****     /********** FECHA ***************/
ARM GAS  C:\Users\THERMA~1\AppData\Local\Temp\cc965AVb.s 			page 66


 445:printer.c     **** 	for(uint8 x = 0; x < 13; x ++){
 2975              		.loc 1 445 0 is_stmt 1
 2976 031c 0023     		movs	r3, #0
 2977 031e 87F86630 		strb	r3, [r7, #102]
 2978 0322 27E0     		b	.L167
 2979              	.L258:
 2980              		.align	2
 2981              	.L257:
 2982 0324 00000000 		.word	ASK_TIME
 2983 0328 00000000 		.word	touch1
 2984 032c 00000000 		.word	int_shiftnumber
 2985 0330 AD8BDB68 		.word	1759218605
 2986 0334 00000000 		.word	shift_number
 2987 0338 D34D6210 		.word	274877907
 2988 033c 1F85EB51 		.word	1374389535
 2989 0340 67666666 		.word	1717986919
 2990 0344 00000000 		.word	LINE_FEED
 2991 0348 00000000 		.word	msn_EDS
 2992 034c 00000000 		.word	msn_EDS2
 2993 0350 00000000 		.word	msn_EDS3
 2994 0354 00000000 		.word	msn_EDS4
 2995 0358 00000000 		.word	SEPARATOR
 2996              	.L168:
 446:printer.c     **** 		PRINTER_A_PutChar(msn_fecha[x]);
 2997              		.loc 1 446 0 discriminator 3
 2998 035c 97F86630 		ldrb	r3, [r7, #102]	@ zero_extendqisi2
 2999 0360 C34A     		ldr	r2, .L259
 3000 0362 D35C     		ldrb	r3, [r2, r3]	@ zero_extendqisi2
 3001 0364 1846     		mov	r0, r3
 3002 0366 FFF7FEFF 		bl	PRINTER_A_PutChar
 445:printer.c     **** 		PRINTER_A_PutChar(msn_fecha[x]);
 3003              		.loc 1 445 0 discriminator 3
 3004 036a 97F86630 		ldrb	r3, [r7, #102]	@ zero_extendqisi2
 3005 036e 0133     		adds	r3, r3, #1
 3006 0370 87F86630 		strb	r3, [r7, #102]
 3007              	.L167:
 445:printer.c     **** 		PRINTER_A_PutChar(msn_fecha[x]);
 3008              		.loc 1 445 0 is_stmt 0 discriminator 1
 3009 0374 97F86630 		ldrb	r3, [r7, #102]	@ zero_extendqisi2
 3010 0378 0C2B     		cmp	r3, #12
 3011 037a EFD9     		bls	.L168
 3012              	.LBE72:
 447:printer.c     **** 	}
 448:printer.c     ****     PRINTER_A_PutChar(((touch1[6] >> 4) + 0x30));
 3013              		.loc 1 448 0 is_stmt 1
 3014 037c BD4B     		ldr	r3, .L259+4
 3015 037e 9B79     		ldrb	r3, [r3, #6]	@ zero_extendqisi2
 3016 0380 1B09     		lsrs	r3, r3, #4
 3017 0382 DBB2     		uxtb	r3, r3
 3018 0384 3033     		adds	r3, r3, #48
 3019 0386 DBB2     		uxtb	r3, r3
 3020 0388 1846     		mov	r0, r3
 3021 038a FFF7FEFF 		bl	PRINTER_A_PutChar
 449:printer.c     ****     PRINTER_A_PutChar(((touch1[6] & 0x0F) + 0x30));
 3022              		.loc 1 449 0
 3023 038e B94B     		ldr	r3, .L259+4
 3024 0390 9B79     		ldrb	r3, [r3, #6]	@ zero_extendqisi2
ARM GAS  C:\Users\THERMA~1\AppData\Local\Temp\cc965AVb.s 			page 67


 3025 0392 03F00F03 		and	r3, r3, #15
 3026 0396 DBB2     		uxtb	r3, r3
 3027 0398 3033     		adds	r3, r3, #48
 3028 039a DBB2     		uxtb	r3, r3
 3029 039c 1846     		mov	r0, r3
 3030 039e FFF7FEFF 		bl	PRINTER_A_PutChar
 450:printer.c     ****     PRINTER_A_PutChar('/');
 3031              		.loc 1 450 0
 3032 03a2 2F20     		movs	r0, #47
 3033 03a4 FFF7FEFF 		bl	PRINTER_A_PutChar
 451:printer.c     ****     PRINTER_A_PutChar(((touch1[7] >> 4) + 0x30)) ;
 3034              		.loc 1 451 0
 3035 03a8 B24B     		ldr	r3, .L259+4
 3036 03aa DB79     		ldrb	r3, [r3, #7]	@ zero_extendqisi2
 3037 03ac 1B09     		lsrs	r3, r3, #4
 3038 03ae DBB2     		uxtb	r3, r3
 3039 03b0 3033     		adds	r3, r3, #48
 3040 03b2 DBB2     		uxtb	r3, r3
 3041 03b4 1846     		mov	r0, r3
 3042 03b6 FFF7FEFF 		bl	PRINTER_A_PutChar
 452:printer.c     ****     PRINTER_A_PutChar(((touch1[7] & 0x0F) + 0x30));
 3043              		.loc 1 452 0
 3044 03ba AE4B     		ldr	r3, .L259+4
 3045 03bc DB79     		ldrb	r3, [r3, #7]	@ zero_extendqisi2
 3046 03be 03F00F03 		and	r3, r3, #15
 3047 03c2 DBB2     		uxtb	r3, r3
 3048 03c4 3033     		adds	r3, r3, #48
 3049 03c6 DBB2     		uxtb	r3, r3
 3050 03c8 1846     		mov	r0, r3
 3051 03ca FFF7FEFF 		bl	PRINTER_A_PutChar
 453:printer.c     ****     PRINTER_A_PutChar('/');
 3052              		.loc 1 453 0
 3053 03ce 2F20     		movs	r0, #47
 3054 03d0 FFF7FEFF 		bl	PRINTER_A_PutChar
 454:printer.c     ****     PRINTER_A_PutChar(((touch1[8] >> 4) + 0x30)) ;
 3055              		.loc 1 454 0
 3056 03d4 A74B     		ldr	r3, .L259+4
 3057 03d6 1B7A     		ldrb	r3, [r3, #8]	@ zero_extendqisi2
 3058 03d8 1B09     		lsrs	r3, r3, #4
 3059 03da DBB2     		uxtb	r3, r3
 3060 03dc 3033     		adds	r3, r3, #48
 3061 03de DBB2     		uxtb	r3, r3
 3062 03e0 1846     		mov	r0, r3
 3063 03e2 FFF7FEFF 		bl	PRINTER_A_PutChar
 455:printer.c     **** 	PRINTER_A_PutChar(((touch1[8] & 0x0F) + 0x30));
 3064              		.loc 1 455 0
 3065 03e6 A34B     		ldr	r3, .L259+4
 3066 03e8 1B7A     		ldrb	r3, [r3, #8]	@ zero_extendqisi2
 3067 03ea 03F00F03 		and	r3, r3, #15
 3068 03ee DBB2     		uxtb	r3, r3
 3069 03f0 3033     		adds	r3, r3, #48
 3070 03f2 DBB2     		uxtb	r3, r3
 3071 03f4 1846     		mov	r0, r3
 3072 03f6 FFF7FEFF 		bl	PRINTER_A_PutChar
 456:printer.c     **** 
 457:printer.c     **** 	PRINTER_A_PutChar(LINE_FEED);
 3073              		.loc 1 457 0
ARM GAS  C:\Users\THERMA~1\AppData\Local\Temp\cc965AVb.s 			page 68


 3074 03fa 9F4B     		ldr	r3, .L259+8
 3075 03fc 1B78     		ldrb	r3, [r3]	@ zero_extendqisi2
 3076 03fe 1846     		mov	r0, r3
 3077 0400 FFF7FEFF 		bl	PRINTER_A_PutChar
 3078              	.LBB73:
 458:printer.c     ****     /********** HORA ***************/
 459:printer.c     **** 	for(uint8 x = 0; x < 13; x ++){
 3079              		.loc 1 459 0
 3080 0404 0023     		movs	r3, #0
 3081 0406 87F86530 		strb	r3, [r7, #101]
 3082 040a 0BE0     		b	.L169
 3083              	.L170:
 460:printer.c     **** 		PRINTER_A_PutChar(msn_hora[x]);
 3084              		.loc 1 460 0 discriminator 3
 3085 040c 97F86530 		ldrb	r3, [r7, #101]	@ zero_extendqisi2
 3086 0410 9A4A     		ldr	r2, .L259+12
 3087 0412 D35C     		ldrb	r3, [r2, r3]	@ zero_extendqisi2
 3088 0414 1846     		mov	r0, r3
 3089 0416 FFF7FEFF 		bl	PRINTER_A_PutChar
 459:printer.c     **** 		PRINTER_A_PutChar(msn_hora[x]);
 3090              		.loc 1 459 0 discriminator 3
 3091 041a 97F86530 		ldrb	r3, [r7, #101]	@ zero_extendqisi2
 3092 041e 0133     		adds	r3, r3, #1
 3093 0420 87F86530 		strb	r3, [r7, #101]
 3094              	.L169:
 459:printer.c     **** 		PRINTER_A_PutChar(msn_hora[x]);
 3095              		.loc 1 459 0 is_stmt 0 discriminator 1
 3096 0424 97F86530 		ldrb	r3, [r7, #101]	@ zero_extendqisi2
 3097 0428 0C2B     		cmp	r3, #12
 3098 042a EFD9     		bls	.L170
 3099              	.LBE73:
 461:printer.c     **** 	}
 462:printer.c     ****     PRINTER_A_PutChar(((touch1[10] >> 4) + 0x30)) ;
 3100              		.loc 1 462 0 is_stmt 1
 3101 042c 914B     		ldr	r3, .L259+4
 3102 042e 9B7A     		ldrb	r3, [r3, #10]	@ zero_extendqisi2
 3103 0430 1B09     		lsrs	r3, r3, #4
 3104 0432 DBB2     		uxtb	r3, r3
 3105 0434 3033     		adds	r3, r3, #48
 3106 0436 DBB2     		uxtb	r3, r3
 3107 0438 1846     		mov	r0, r3
 3108 043a FFF7FEFF 		bl	PRINTER_A_PutChar
 463:printer.c     ****     PRINTER_A_PutChar(((touch1[10] & 0x0F) + 0x30));
 3109              		.loc 1 463 0
 3110 043e 8D4B     		ldr	r3, .L259+4
 3111 0440 9B7A     		ldrb	r3, [r3, #10]	@ zero_extendqisi2
 3112 0442 03F00F03 		and	r3, r3, #15
 3113 0446 DBB2     		uxtb	r3, r3
 3114 0448 3033     		adds	r3, r3, #48
 3115 044a DBB2     		uxtb	r3, r3
 3116 044c 1846     		mov	r0, r3
 3117 044e FFF7FEFF 		bl	PRINTER_A_PutChar
 464:printer.c     ****     PRINTER_A_PutChar(':');
 3118              		.loc 1 464 0
 3119 0452 3A20     		movs	r0, #58
 3120 0454 FFF7FEFF 		bl	PRINTER_A_PutChar
 465:printer.c     ****     PRINTER_A_PutChar(((touch1[11] >> 4) + 0x30)) ;
ARM GAS  C:\Users\THERMA~1\AppData\Local\Temp\cc965AVb.s 			page 69


 3121              		.loc 1 465 0
 3122 0458 864B     		ldr	r3, .L259+4
 3123 045a DB7A     		ldrb	r3, [r3, #11]	@ zero_extendqisi2
 3124 045c 1B09     		lsrs	r3, r3, #4
 3125 045e DBB2     		uxtb	r3, r3
 3126 0460 3033     		adds	r3, r3, #48
 3127 0462 DBB2     		uxtb	r3, r3
 3128 0464 1846     		mov	r0, r3
 3129 0466 FFF7FEFF 		bl	PRINTER_A_PutChar
 466:printer.c     ****     PRINTER_A_PutChar(((touch1[11] & 0x0F) + 0x30));
 3130              		.loc 1 466 0
 3131 046a 824B     		ldr	r3, .L259+4
 3132 046c DB7A     		ldrb	r3, [r3, #11]	@ zero_extendqisi2
 3133 046e 03F00F03 		and	r3, r3, #15
 3134 0472 DBB2     		uxtb	r3, r3
 3135 0474 3033     		adds	r3, r3, #48
 3136 0476 DBB2     		uxtb	r3, r3
 3137 0478 1846     		mov	r0, r3
 3138 047a FFF7FEFF 		bl	PRINTER_A_PutChar
 467:printer.c     ****     PRINTER_A_PutChar(':');
 3139              		.loc 1 467 0
 3140 047e 3A20     		movs	r0, #58
 3141 0480 FFF7FEFF 		bl	PRINTER_A_PutChar
 468:printer.c     ****     PRINTER_A_PutChar(((touch1[12] >> 4) + 0x30));
 3142              		.loc 1 468 0
 3143 0484 7B4B     		ldr	r3, .L259+4
 3144 0486 1B7B     		ldrb	r3, [r3, #12]	@ zero_extendqisi2
 3145 0488 1B09     		lsrs	r3, r3, #4
 3146 048a DBB2     		uxtb	r3, r3
 3147 048c 3033     		adds	r3, r3, #48
 3148 048e DBB2     		uxtb	r3, r3
 3149 0490 1846     		mov	r0, r3
 3150 0492 FFF7FEFF 		bl	PRINTER_A_PutChar
 469:printer.c     **** 	PRINTER_A_PutChar(((touch1[12] & 0x0F) + 0x30));
 3151              		.loc 1 469 0
 3152 0496 774B     		ldr	r3, .L259+4
 3153 0498 1B7B     		ldrb	r3, [r3, #12]	@ zero_extendqisi2
 3154 049a 03F00F03 		and	r3, r3, #15
 3155 049e DBB2     		uxtb	r3, r3
 3156 04a0 3033     		adds	r3, r3, #48
 3157 04a2 DBB2     		uxtb	r3, r3
 3158 04a4 1846     		mov	r0, r3
 3159 04a6 FFF7FEFF 		bl	PRINTER_A_PutChar
 470:printer.c     ****     PRINTER_A_PutChar(LINE_FEED);
 3160              		.loc 1 470 0
 3161 04aa 734B     		ldr	r3, .L259+8
 3162 04ac 1B78     		ldrb	r3, [r3]	@ zero_extendqisi2
 3163 04ae 1846     		mov	r0, r3
 3164 04b0 FFF7FEFF 		bl	PRINTER_A_PutChar
 3165              	.LBB74:
 471:printer.c     ****     for(uint8 x = 0; x < 24; x ++){
 3166              		.loc 1 471 0
 3167 04b4 0023     		movs	r3, #0
 3168 04b6 87F86430 		strb	r3, [r7, #100]
 3169 04ba 0BE0     		b	.L171
 3170              	.L172:
 472:printer.c     **** 		PRINTER_A_PutChar(SEPARATOR[x]);
ARM GAS  C:\Users\THERMA~1\AppData\Local\Temp\cc965AVb.s 			page 70


 3171              		.loc 1 472 0 discriminator 3
 3172 04bc 97F86430 		ldrb	r3, [r7, #100]	@ zero_extendqisi2
 3173 04c0 6F4A     		ldr	r2, .L259+16
 3174 04c2 D35C     		ldrb	r3, [r2, r3]	@ zero_extendqisi2
 3175 04c4 1846     		mov	r0, r3
 3176 04c6 FFF7FEFF 		bl	PRINTER_A_PutChar
 471:printer.c     ****     for(uint8 x = 0; x < 24; x ++){
 3177              		.loc 1 471 0 discriminator 3
 3178 04ca 97F86430 		ldrb	r3, [r7, #100]	@ zero_extendqisi2
 3179 04ce 0133     		adds	r3, r3, #1
 3180 04d0 87F86430 		strb	r3, [r7, #100]
 3181              	.L171:
 471:printer.c     ****     for(uint8 x = 0; x < 24; x ++){
 3182              		.loc 1 471 0 is_stmt 0 discriminator 1
 3183 04d4 97F86430 		ldrb	r3, [r7, #100]	@ zero_extendqisi2
 3184 04d8 172B     		cmp	r3, #23
 3185 04da EFD9     		bls	.L172
 3186              	.LBE74:
 3187              	.LBB75:
 473:printer.c     **** 	} 
 474:printer.c     ****     ////////////////////////////////////////
 475:printer.c     **** 	for(uint8 x = 0; x < 13; x ++){
 3188              		.loc 1 475 0 is_stmt 1
 3189 04dc 0023     		movs	r3, #0
 3190 04de 87F86330 		strb	r3, [r7, #99]
 3191 04e2 0BE0     		b	.L173
 3192              	.L174:
 476:printer.c     **** 		PRINTER_A_PutChar(msn_cierre[x]);
 3193              		.loc 1 476 0 discriminator 3
 3194 04e4 97F86330 		ldrb	r3, [r7, #99]	@ zero_extendqisi2
 3195 04e8 664A     		ldr	r2, .L259+20
 3196 04ea D35C     		ldrb	r3, [r2, r3]	@ zero_extendqisi2
 3197 04ec 1846     		mov	r0, r3
 3198 04ee FFF7FEFF 		bl	PRINTER_A_PutChar
 475:printer.c     **** 		PRINTER_A_PutChar(msn_cierre[x]);
 3199              		.loc 1 475 0 discriminator 3
 3200 04f2 97F86330 		ldrb	r3, [r7, #99]	@ zero_extendqisi2
 3201 04f6 0133     		adds	r3, r3, #1
 3202 04f8 87F86330 		strb	r3, [r7, #99]
 3203              	.L173:
 475:printer.c     **** 		PRINTER_A_PutChar(msn_cierre[x]);
 3204              		.loc 1 475 0 is_stmt 0 discriminator 1
 3205 04fc 97F86330 		ldrb	r3, [r7, #99]	@ zero_extendqisi2
 3206 0500 0C2B     		cmp	r3, #12
 3207 0502 EFD9     		bls	.L174
 3208              	.LBE75:
 3209              	.LBB76:
 477:printer.c     **** 	}     
 478:printer.c     **** 	for(uint8 x = 5; x > 0; x --){
 3210              		.loc 1 478 0 is_stmt 1
 3211 0504 0523     		movs	r3, #5
 3212 0506 87F86230 		strb	r3, [r7, #98]
 3213 050a 0BE0     		b	.L175
 3214              	.L176:
 479:printer.c     **** 		PRINTER_A_PutChar(shift_number[x]);   //Nmero de cierre
 3215              		.loc 1 479 0 discriminator 3
 3216 050c 97F86230 		ldrb	r3, [r7, #98]	@ zero_extendqisi2
ARM GAS  C:\Users\THERMA~1\AppData\Local\Temp\cc965AVb.s 			page 71


 3217 0510 5D4A     		ldr	r2, .L259+24
 3218 0512 D35C     		ldrb	r3, [r2, r3]	@ zero_extendqisi2
 3219 0514 1846     		mov	r0, r3
 3220 0516 FFF7FEFF 		bl	PRINTER_A_PutChar
 478:printer.c     **** 		PRINTER_A_PutChar(shift_number[x]);   //Nmero de cierre
 3221              		.loc 1 478 0 discriminator 3
 3222 051a 97F86230 		ldrb	r3, [r7, #98]	@ zero_extendqisi2
 3223 051e 013B     		subs	r3, r3, #1
 3224 0520 87F86230 		strb	r3, [r7, #98]
 3225              	.L175:
 478:printer.c     **** 		PRINTER_A_PutChar(shift_number[x]);   //Nmero de cierre
 3226              		.loc 1 478 0 is_stmt 0 discriminator 1
 3227 0524 97F86230 		ldrb	r3, [r7, #98]	@ zero_extendqisi2
 3228 0528 002B     		cmp	r3, #0
 3229 052a EFD1     		bne	.L176
 3230              	.LBE76:
 480:printer.c     **** 	}
 481:printer.c     **** 	PRINTER_A_PutChar(LINE_FEED);
 3231              		.loc 1 481 0 is_stmt 1
 3232 052c 524B     		ldr	r3, .L259+8
 3233 052e 1B78     		ldrb	r3, [r3]	@ zero_extendqisi2
 3234 0530 1846     		mov	r0, r3
 3235 0532 FFF7FEFF 		bl	PRINTER_A_PutChar
 482:printer.c     ****     PRINTER_A_PutChar(LINE_FEED);
 3236              		.loc 1 482 0
 3237 0536 504B     		ldr	r3, .L259+8
 3238 0538 1B78     		ldrb	r3, [r3]	@ zero_extendqisi2
 3239 053a 1846     		mov	r0, r3
 3240 053c FFF7FEFF 		bl	PRINTER_A_PutChar
 3241              	.LBB77:
 483:printer.c     ****     for(uint8 x = 0; x < 13; x ++){
 3242              		.loc 1 483 0
 3243 0540 0023     		movs	r3, #0
 3244 0542 87F86130 		strb	r3, [r7, #97]
 3245 0546 0BE0     		b	.L177
 3246              	.L178:
 484:printer.c     ****         PRINTER_A_PutChar(msn_pos[x]);
 3247              		.loc 1 484 0 discriminator 3
 3248 0548 97F86130 		ldrb	r3, [r7, #97]	@ zero_extendqisi2
 3249 054c 4F4A     		ldr	r2, .L259+28
 3250 054e D35C     		ldrb	r3, [r2, r3]	@ zero_extendqisi2
 3251 0550 1846     		mov	r0, r3
 3252 0552 FFF7FEFF 		bl	PRINTER_A_PutChar
 483:printer.c     ****     for(uint8 x = 0; x < 13; x ++){
 3253              		.loc 1 483 0 discriminator 3
 3254 0556 97F86130 		ldrb	r3, [r7, #97]	@ zero_extendqisi2
 3255 055a 0133     		adds	r3, r3, #1
 3256 055c 87F86130 		strb	r3, [r7, #97]
 3257              	.L177:
 483:printer.c     ****     for(uint8 x = 0; x < 13; x ++){
 3258              		.loc 1 483 0 is_stmt 0 discriminator 1
 3259 0560 97F86130 		ldrb	r3, [r7, #97]	@ zero_extendqisi2
 3260 0564 0C2B     		cmp	r3, #12
 3261 0566 EFD9     		bls	.L178
 3262              	.LBE77:
 485:printer.c     ****     }
 486:printer.c     ****     PRINTER_A_PutChar(side.a.dir + 0x31);
ARM GAS  C:\Users\THERMA~1\AppData\Local\Temp\cc965AVb.s 			page 72


 3263              		.loc 1 486 0 is_stmt 1
 3264 0568 494B     		ldr	r3, .L259+32
 3265 056a 1B78     		ldrb	r3, [r3]	@ zero_extendqisi2
 3266 056c 3133     		adds	r3, r3, #49
 3267 056e DBB2     		uxtb	r3, r3
 3268 0570 1846     		mov	r0, r3
 3269 0572 FFF7FEFF 		bl	PRINTER_A_PutChar
 487:printer.c     ****     PRINTER_A_PutChar(LINE_FEED);
 3270              		.loc 1 487 0
 3271 0576 404B     		ldr	r3, .L259+8
 3272 0578 1B78     		ldrb	r3, [r3]	@ zero_extendqisi2
 3273 057a 1846     		mov	r0, r3
 3274 057c FFF7FEFF 		bl	PRINTER_A_PutChar
 3275              	.LBB78:
 488:printer.c     **** 	for(uint8 x = 0; x < 16; x ++){
 3276              		.loc 1 488 0
 3277 0580 0023     		movs	r3, #0
 3278 0582 87F86030 		strb	r3, [r7, #96]
 3279 0586 0BE0     		b	.L179
 3280              	.L180:
 489:printer.c     **** 		PRINTER_A_PutChar(msn_lecact[x]);
 3281              		.loc 1 489 0 discriminator 3
 3282 0588 97F86030 		ldrb	r3, [r7, #96]	@ zero_extendqisi2
 3283 058c 414A     		ldr	r2, .L259+36
 3284 058e D35C     		ldrb	r3, [r2, r3]	@ zero_extendqisi2
 3285 0590 1846     		mov	r0, r3
 3286 0592 FFF7FEFF 		bl	PRINTER_A_PutChar
 488:printer.c     **** 	for(uint8 x = 0; x < 16; x ++){
 3287              		.loc 1 488 0 discriminator 3
 3288 0596 97F86030 		ldrb	r3, [r7, #96]	@ zero_extendqisi2
 3289 059a 0133     		adds	r3, r3, #1
 3290 059c 87F86030 		strb	r3, [r7, #96]
 3291              	.L179:
 488:printer.c     **** 	for(uint8 x = 0; x < 16; x ++){
 3292              		.loc 1 488 0 is_stmt 0 discriminator 1
 3293 05a0 97F86030 		ldrb	r3, [r7, #96]	@ zero_extendqisi2
 3294 05a4 0F2B     		cmp	r3, #15
 3295 05a6 EFD9     		bls	.L180
 3296              	.LBE78:
 490:printer.c     **** 	}
 491:printer.c     **** 	PRINTER_A_PutChar(LINE_FEED);	
 3297              		.loc 1 491 0 is_stmt 1
 3298 05a8 334B     		ldr	r3, .L259+8
 3299 05aa 1B78     		ldrb	r3, [r3]	@ zero_extendqisi2
 3300 05ac 1846     		mov	r0, r3
 3301 05ae FFF7FEFF 		bl	PRINTER_A_PutChar
 3302              	.LBB79:
 492:printer.c     ****                           
 493:printer.c     ****     for(uint8 x = 0; x < 10; x ++){ 
 3303              		.loc 1 493 0
 3304 05b2 0023     		movs	r3, #0
 3305 05b4 87F85F30 		strb	r3, [r7, #95]
 3306 05b8 18E0     		b	.L181
 3307              	.L183:
 494:printer.c     ****         if((10-x) == DecVol)
 3308              		.loc 1 494 0
 3309 05ba 97F85F30 		ldrb	r3, [r7, #95]	@ zero_extendqisi2
ARM GAS  C:\Users\THERMA~1\AppData\Local\Temp\cc965AVb.s 			page 73


 3310 05be C3F10A03 		rsb	r3, r3, #10
 3311 05c2 354A     		ldr	r2, .L259+40
 3312 05c4 1278     		ldrb	r2, [r2]	@ zero_extendqisi2
 3313 05c6 9342     		cmp	r3, r2
 3314 05c8 02D1     		bne	.L182
 495:printer.c     ****             PRINTER_A_PutChar('.');
 3315              		.loc 1 495 0
 3316 05ca 2E20     		movs	r0, #46
 3317 05cc FFF7FEFF 		bl	PRINTER_A_PutChar
 3318              	.L182:
 496:printer.c     ****         PRINTER_A_PutChar(side.a.ProcessedTotals[0][0][x]);
 3319              		.loc 1 496 0 discriminator 2
 3320 05d0 97F85F30 		ldrb	r3, [r7, #95]	@ zero_extendqisi2
 3321 05d4 2E4A     		ldr	r2, .L259+32
 3322 05d6 1344     		add	r3, r3, r2
 3323 05d8 93F88330 		ldrb	r3, [r3, #131]	@ zero_extendqisi2
 3324 05dc 1846     		mov	r0, r3
 3325 05de FFF7FEFF 		bl	PRINTER_A_PutChar
 493:printer.c     ****         if((10-x) == DecVol)
 3326              		.loc 1 493 0 discriminator 2
 3327 05e2 97F85F30 		ldrb	r3, [r7, #95]	@ zero_extendqisi2
 3328 05e6 0133     		adds	r3, r3, #1
 3329 05e8 87F85F30 		strb	r3, [r7, #95]
 3330              	.L181:
 493:printer.c     ****         if((10-x) == DecVol)
 3331              		.loc 1 493 0 is_stmt 0 discriminator 1
 3332 05ec 97F85F30 		ldrb	r3, [r7, #95]	@ zero_extendqisi2
 3333 05f0 092B     		cmp	r3, #9
 3334 05f2 E2D9     		bls	.L183
 3335              	.LBE79:
 497:printer.c     ****     }
 498:printer.c     ****     PRINTER_A_PutChar(LINE_FEED);
 3336              		.loc 1 498 0 is_stmt 1
 3337 05f4 204B     		ldr	r3, .L259+8
 3338 05f6 1B78     		ldrb	r3, [r3]	@ zero_extendqisi2
 3339 05f8 1846     		mov	r0, r3
 3340 05fa FFF7FEFF 		bl	PRINTER_A_PutChar
 3341              	.LBB80:
 499:printer.c     ****     for(uint8 x = 0; x < 10; x++){
 3342              		.loc 1 499 0
 3343 05fe 0023     		movs	r3, #0
 3344 0600 87F85E30 		strb	r3, [r7, #94]
 3345 0604 10E0     		b	.L184
 3346              	.L187:
 500:printer.c     ****         pos = x;
 3347              		.loc 1 500 0
 3348 0606 97F85E30 		ldrb	r3, [r7, #94]
 3349 060a 87F86F30 		strb	r3, [r7, #111]
 501:printer.c     ****         if(side.a.ProcessedTotals[0][0][x] != 0x00 )
 3350              		.loc 1 501 0
 3351 060e 97F85E30 		ldrb	r3, [r7, #94]	@ zero_extendqisi2
 3352 0612 1F4A     		ldr	r2, .L259+32
 3353 0614 1344     		add	r3, r3, r2
 3354 0616 93F88330 		ldrb	r3, [r3, #131]	@ zero_extendqisi2
 3355 061a 002B     		cmp	r3, #0
 3356 061c 09D1     		bne	.L256
 499:printer.c     ****     for(uint8 x = 0; x < 10; x++){
ARM GAS  C:\Users\THERMA~1\AppData\Local\Temp\cc965AVb.s 			page 74


 3357              		.loc 1 499 0 discriminator 2
 3358 061e 97F85E30 		ldrb	r3, [r7, #94]	@ zero_extendqisi2
 3359 0622 0133     		adds	r3, r3, #1
 3360 0624 87F85E30 		strb	r3, [r7, #94]
 3361              	.L184:
 499:printer.c     ****     for(uint8 x = 0; x < 10; x++){
 3362              		.loc 1 499 0 is_stmt 0 discriminator 1
 3363 0628 97F85E30 		ldrb	r3, [r7, #94]	@ zero_extendqisi2
 3364 062c 092B     		cmp	r3, #9
 3365 062e EAD9     		bls	.L187
 3366 0630 00E0     		b	.L186
 3367              	.L256:
 502:printer.c     ****             break;
 3368              		.loc 1 502 0 is_stmt 1
 3369 0632 00BF     		nop
 3370              	.L186:
 3371              	.LBE80:
 3372              	.LBB81:
 503:printer.c     ****     }
 504:printer.c     **** 	for(uint8 x = 0; x < 16; x ++){
 3373              		.loc 1 504 0
 3374 0634 0023     		movs	r3, #0
 3375 0636 87F85D30 		strb	r3, [r7, #93]
 3376 063a 0BE0     		b	.L188
 3377              	.L189:
 505:printer.c     **** 		PRINTER_A_PutChar(msn_lecaan[x]);
 3378              		.loc 1 505 0 discriminator 3
 3379 063c 97F85D30 		ldrb	r3, [r7, #93]	@ zero_extendqisi2
 3380 0640 164A     		ldr	r2, .L259+44
 3381 0642 D35C     		ldrb	r3, [r2, r3]	@ zero_extendqisi2
 3382 0644 1846     		mov	r0, r3
 3383 0646 FFF7FEFF 		bl	PRINTER_A_PutChar
 504:printer.c     **** 		PRINTER_A_PutChar(msn_lecaan[x]);
 3384              		.loc 1 504 0 discriminator 3
 3385 064a 97F85D30 		ldrb	r3, [r7, #93]	@ zero_extendqisi2
 3386 064e 0133     		adds	r3, r3, #1
 3387 0650 87F85D30 		strb	r3, [r7, #93]
 3388              	.L188:
 504:printer.c     **** 		PRINTER_A_PutChar(msn_lecaan[x]);
 3389              		.loc 1 504 0 is_stmt 0 discriminator 1
 3390 0654 97F85D30 		ldrb	r3, [r7, #93]	@ zero_extendqisi2
 3391 0658 0F2B     		cmp	r3, #15
 3392 065a EFD9     		bls	.L189
 3393              	.LBE81:
 506:printer.c     **** 	}
 507:printer.c     ****     PRINTER_A_PutChar(LINE_FEED);
 3394              		.loc 1 507 0 is_stmt 1
 3395 065c 064B     		ldr	r3, .L259+8
 3396 065e 1B78     		ldrb	r3, [r3]	@ zero_extendqisi2
 3397 0660 1846     		mov	r0, r3
 3398 0662 FFF7FEFF 		bl	PRINTER_A_PutChar
 3399              	.LBB82:
 508:printer.c     ****     for(uint8 x = 0; x < 10; x ++){
 3400              		.loc 1 508 0
 3401 0666 0023     		movs	r3, #0
 3402 0668 87F85C30 		strb	r3, [r7, #92]
 3403 066c 2EE0     		b	.L190
ARM GAS  C:\Users\THERMA~1\AppData\Local\Temp\cc965AVb.s 			page 75


 3404              	.L260:
 3405 066e 00BF     		.align	2
 3406              	.L259:
 3407 0670 00000000 		.word	msn_fecha
 3408 0674 00000000 		.word	touch1
 3409 0678 00000000 		.word	LINE_FEED
 3410 067c 00000000 		.word	msn_hora
 3411 0680 00000000 		.word	SEPARATOR
 3412 0684 00000000 		.word	msn_cierre
 3413 0688 00000000 		.word	shift_number
 3414 068c 00000000 		.word	msn_pos
 3415 0690 00000000 		.word	side
 3416 0694 00000000 		.word	msn_lecact
 3417 0698 00000000 		.word	DecVol
 3418 069c 00000000 		.word	msn_lecaan
 3419              	.L191:
 509:printer.c     ****         memoria[x] = EEPROM_1_ReadByte(36+x);
 3420              		.loc 1 509 0 discriminator 3
 3421 06a0 97F85C40 		ldrb	r4, [r7, #92]	@ zero_extendqisi2
 3422 06a4 97F85C30 		ldrb	r3, [r7, #92]	@ zero_extendqisi2
 3423 06a8 9BB2     		uxth	r3, r3
 3424 06aa 2433     		adds	r3, r3, #36
 3425 06ac 9BB2     		uxth	r3, r3
 3426 06ae 1846     		mov	r0, r3
 3427 06b0 FFF7FEFF 		bl	EEPROM_1_ReadByte
 3428 06b4 0346     		mov	r3, r0
 3429 06b6 1A46     		mov	r2, r3
 3430 06b8 07F17003 		add	r3, r7, #112
 3431 06bc 2344     		add	r3, r3, r4
 3432 06be 03F8642C 		strb	r2, [r3, #-100]
 508:printer.c     ****     for(uint8 x = 0; x < 10; x ++){
 3433              		.loc 1 508 0 discriminator 3
 3434 06c2 97F85C30 		ldrb	r3, [r7, #92]	@ zero_extendqisi2
 3435 06c6 0133     		adds	r3, r3, #1
 3436 06c8 87F85C30 		strb	r3, [r7, #92]
 3437              	.L190:
 508:printer.c     ****     for(uint8 x = 0; x < 10; x ++){
 3438              		.loc 1 508 0 is_stmt 0 discriminator 1
 3439 06cc 97F85C30 		ldrb	r3, [r7, #92]	@ zero_extendqisi2
 3440 06d0 092B     		cmp	r3, #9
 3441 06d2 E5D9     		bls	.L191
 3442              	.LBE82:
 3443              	.LBB83:
 510:printer.c     ****     }
 511:printer.c     ****     for(uint8 x = 0; x < 10; x ++){ 
 3444              		.loc 1 511 0 is_stmt 1
 3445 06d4 0023     		movs	r3, #0
 3446 06d6 87F85B30 		strb	r3, [r7, #91]
 3447 06da 19E0     		b	.L192
 3448              	.L194:
 512:printer.c     ****         if((10-x) == DecVol)
 3449              		.loc 1 512 0
 3450 06dc 97F85B30 		ldrb	r3, [r7, #91]	@ zero_extendqisi2
 3451 06e0 C3F10A03 		rsb	r3, r3, #10
 3452 06e4 C44A     		ldr	r2, .L261
 3453 06e6 1278     		ldrb	r2, [r2]	@ zero_extendqisi2
 3454 06e8 9342     		cmp	r3, r2
ARM GAS  C:\Users\THERMA~1\AppData\Local\Temp\cc965AVb.s 			page 76


 3455 06ea 02D1     		bne	.L193
 513:printer.c     ****             PRINTER_A_PutChar('.');
 3456              		.loc 1 513 0
 3457 06ec 2E20     		movs	r0, #46
 3458 06ee FFF7FEFF 		bl	PRINTER_A_PutChar
 3459              	.L193:
 514:printer.c     ****         PRINTER_A_PutChar(memoria[x]);
 3460              		.loc 1 514 0 discriminator 2
 3461 06f2 97F85B30 		ldrb	r3, [r7, #91]	@ zero_extendqisi2
 3462 06f6 07F17002 		add	r2, r7, #112
 3463 06fa 1344     		add	r3, r3, r2
 3464 06fc 13F8643C 		ldrb	r3, [r3, #-100]	@ zero_extendqisi2
 3465 0700 1846     		mov	r0, r3
 3466 0702 FFF7FEFF 		bl	PRINTER_A_PutChar
 511:printer.c     ****         if((10-x) == DecVol)
 3467              		.loc 1 511 0 discriminator 2
 3468 0706 97F85B30 		ldrb	r3, [r7, #91]	@ zero_extendqisi2
 3469 070a 0133     		adds	r3, r3, #1
 3470 070c 87F85B30 		strb	r3, [r7, #91]
 3471              	.L192:
 511:printer.c     ****         if((10-x) == DecVol)
 3472              		.loc 1 511 0 is_stmt 0 discriminator 1
 3473 0710 97F85B30 		ldrb	r3, [r7, #91]	@ zero_extendqisi2
 3474 0714 092B     		cmp	r3, #9
 3475 0716 E1D9     		bls	.L194
 3476              	.LBE83:
 515:printer.c     ****     }
 516:printer.c     ****     PRINTER_A_PutChar(LINE_FEED);
 3477              		.loc 1 516 0 is_stmt 1
 3478 0718 B84B     		ldr	r3, .L261+4
 3479 071a 1B78     		ldrb	r3, [r3]	@ zero_extendqisi2
 3480 071c 1846     		mov	r0, r3
 3481 071e FFF7FEFF 		bl	PRINTER_A_PutChar
 3482              	.LBB84:
 517:printer.c     ****     
 518:printer.c     ****     for(uint8 x = pos; x < 10; x++ ){
 3483              		.loc 1 518 0
 3484 0722 97F86F30 		ldrb	r3, [r7, #111]
 3485 0726 87F85A30 		strb	r3, [r7, #90]
 3486 072a 2DE0     		b	.L195
 3487              	.L196:
 519:printer.c     ****         lectactual[x-pos] = side.a.ProcessedTotals[0][0][x];
 3488              		.loc 1 519 0 discriminator 3
 3489 072c 97F85A20 		ldrb	r2, [r7, #90]	@ zero_extendqisi2
 3490 0730 97F86F30 		ldrb	r3, [r7, #111]	@ zero_extendqisi2
 3491 0734 D31A     		subs	r3, r2, r3
 3492 0736 97F85A20 		ldrb	r2, [r7, #90]	@ zero_extendqisi2
 3493 073a B149     		ldr	r1, .L261+8
 3494 073c 0A44     		add	r2, r2, r1
 3495 073e 92F88320 		ldrb	r2, [r2, #131]	@ zero_extendqisi2
 3496 0742 07F17001 		add	r1, r7, #112
 3497 0746 0B44     		add	r3, r3, r1
 3498 0748 03F8582C 		strb	r2, [r3, #-88]
 520:printer.c     ****         lectanterior[x-pos] = memoria[x];
 3499              		.loc 1 520 0 discriminator 3
 3500 074c 97F85A20 		ldrb	r2, [r7, #90]	@ zero_extendqisi2
 3501 0750 97F86F30 		ldrb	r3, [r7, #111]	@ zero_extendqisi2
ARM GAS  C:\Users\THERMA~1\AppData\Local\Temp\cc965AVb.s 			page 77


 3502 0754 D31A     		subs	r3, r2, r3
 3503 0756 97F85A20 		ldrb	r2, [r7, #90]	@ zero_extendqisi2
 3504 075a 07F17001 		add	r1, r7, #112
 3505 075e 0A44     		add	r2, r2, r1
 3506 0760 12F8642C 		ldrb	r2, [r2, #-100]	@ zero_extendqisi2
 3507 0764 07F17001 		add	r1, r7, #112
 3508 0768 0B44     		add	r3, r3, r1
 3509 076a 03F84C2C 		strb	r2, [r3, #-76]
 521:printer.c     ****         resultado[x] = 0x00;
 3510              		.loc 1 521 0 discriminator 3
 3511 076e 97F85A30 		ldrb	r3, [r7, #90]	@ zero_extendqisi2
 3512 0772 07F17002 		add	r2, r7, #112
 3513 0776 1344     		add	r3, r3, r2
 3514 0778 0022     		movs	r2, #0
 3515 077a 03F8702C 		strb	r2, [r3, #-112]
 518:printer.c     ****         lectactual[x-pos] = side.a.ProcessedTotals[0][0][x];
 3516              		.loc 1 518 0 discriminator 3
 3517 077e 97F85A30 		ldrb	r3, [r7, #90]	@ zero_extendqisi2
 3518 0782 0133     		adds	r3, r3, #1
 3519 0784 87F85A30 		strb	r3, [r7, #90]
 3520              	.L195:
 518:printer.c     ****         lectactual[x-pos] = side.a.ProcessedTotals[0][0][x];
 3521              		.loc 1 518 0 is_stmt 0 discriminator 1
 3522 0788 97F85A30 		ldrb	r3, [r7, #90]	@ zero_extendqisi2
 3523 078c 092B     		cmp	r3, #9
 3524 078e CDD9     		bls	.L196
 3525              	.LBE84:
 522:printer.c     ****     }
 523:printer.c     ****     
 524:printer.c     ****     anterior = atoi(lectanterior);
 3526              		.loc 1 524 0 is_stmt 1
 3527 0790 07F12403 		add	r3, r7, #36
 3528 0794 1846     		mov	r0, r3
 3529 0796 FFF7FEFF 		bl	atoi
 3530 079a 0346     		mov	r3, r0
 3531 079c BB63     		str	r3, [r7, #56]
 525:printer.c     ****     actual = atoi(lectactual);
 3532              		.loc 1 525 0
 3533 079e 07F11803 		add	r3, r7, #24
 3534 07a2 1846     		mov	r0, r3
 3535 07a4 FFF7FEFF 		bl	atoi
 3536 07a8 0346     		mov	r3, r0
 3537 07aa 7B63     		str	r3, [r7, #52]
 526:printer.c     ****     resta =  actual - anterior;
 3538              		.loc 1 526 0
 3539 07ac 7A6B     		ldr	r2, [r7, #52]
 3540 07ae BB6B     		ldr	r3, [r7, #56]
 3541 07b0 D31A     		subs	r3, r2, r3
 3542 07b2 3B63     		str	r3, [r7, #48]
 527:printer.c     ****     itoa(resta,resultado,10);
 3543              		.loc 1 527 0
 3544 07b4 3B6B     		ldr	r3, [r7, #48]
 3545 07b6 3946     		mov	r1, r7
 3546 07b8 0A22     		movs	r2, #10
 3547 07ba 1846     		mov	r0, r3
 3548 07bc FFF7FEFF 		bl	itoa
 3549              	.LBB85:
ARM GAS  C:\Users\THERMA~1\AppData\Local\Temp\cc965AVb.s 			page 78


 528:printer.c     ****     
 529:printer.c     ****     for(uint8 x = 0; x < 18; x ++){
 3550              		.loc 1 529 0
 3551 07c0 0023     		movs	r3, #0
 3552 07c2 87F85930 		strb	r3, [r7, #89]
 3553 07c6 0BE0     		b	.L197
 3554              	.L198:
 530:printer.c     ****         PRINTER_A_PutChar(msn_dif[x]);
 3555              		.loc 1 530 0 discriminator 3
 3556 07c8 97F85930 		ldrb	r3, [r7, #89]	@ zero_extendqisi2
 3557 07cc 8D4A     		ldr	r2, .L261+12
 3558 07ce D35C     		ldrb	r3, [r2, r3]	@ zero_extendqisi2
 3559 07d0 1846     		mov	r0, r3
 3560 07d2 FFF7FEFF 		bl	PRINTER_A_PutChar
 529:printer.c     ****         PRINTER_A_PutChar(msn_dif[x]);
 3561              		.loc 1 529 0 discriminator 3
 3562 07d6 97F85930 		ldrb	r3, [r7, #89]	@ zero_extendqisi2
 3563 07da 0133     		adds	r3, r3, #1
 3564 07dc 87F85930 		strb	r3, [r7, #89]
 3565              	.L197:
 529:printer.c     ****         PRINTER_A_PutChar(msn_dif[x]);
 3566              		.loc 1 529 0 is_stmt 0 discriminator 1
 3567 07e0 97F85930 		ldrb	r3, [r7, #89]	@ zero_extendqisi2
 3568 07e4 112B     		cmp	r3, #17
 3569 07e6 EFD9     		bls	.L198
 3570              	.LBE85:
 531:printer.c     ****     }
 532:printer.c     ****     PRINTER_A_PutChar(LINE_FEED);
 3571              		.loc 1 532 0 is_stmt 1
 3572 07e8 844B     		ldr	r3, .L261+4
 3573 07ea 1B78     		ldrb	r3, [r3]	@ zero_extendqisi2
 3574 07ec 1846     		mov	r0, r3
 3575 07ee FFF7FEFF 		bl	PRINTER_A_PutChar
 3576              	.LBB86:
 533:printer.c     ****     for(uint8 x = 0; x < 10; x ++){
 3577              		.loc 1 533 0
 3578 07f2 0023     		movs	r3, #0
 3579 07f4 87F85830 		strb	r3, [r7, #88]
 3580 07f8 19E0     		b	.L199
 3581              	.L201:
 534:printer.c     ****         if((10-x) == DecVol)
 3582              		.loc 1 534 0
 3583 07fa 97F85830 		ldrb	r3, [r7, #88]	@ zero_extendqisi2
 3584 07fe C3F10A03 		rsb	r3, r3, #10
 3585 0802 7D4A     		ldr	r2, .L261
 3586 0804 1278     		ldrb	r2, [r2]	@ zero_extendqisi2
 3587 0806 9342     		cmp	r3, r2
 3588 0808 02D1     		bne	.L200
 535:printer.c     ****             PRINTER_A_PutChar('.');
 3589              		.loc 1 535 0
 3590 080a 2E20     		movs	r0, #46
 3591 080c FFF7FEFF 		bl	PRINTER_A_PutChar
 3592              	.L200:
 536:printer.c     ****         PRINTER_A_PutChar(resultado[x]);
 3593              		.loc 1 536 0 discriminator 2
 3594 0810 97F85830 		ldrb	r3, [r7, #88]	@ zero_extendqisi2
 3595 0814 07F17002 		add	r2, r7, #112
ARM GAS  C:\Users\THERMA~1\AppData\Local\Temp\cc965AVb.s 			page 79


 3596 0818 1344     		add	r3, r3, r2
 3597 081a 13F8703C 		ldrb	r3, [r3, #-112]	@ zero_extendqisi2
 3598 081e 1846     		mov	r0, r3
 3599 0820 FFF7FEFF 		bl	PRINTER_A_PutChar
 533:printer.c     ****         if((10-x) == DecVol)
 3600              		.loc 1 533 0 discriminator 2
 3601 0824 97F85830 		ldrb	r3, [r7, #88]	@ zero_extendqisi2
 3602 0828 0133     		adds	r3, r3, #1
 3603 082a 87F85830 		strb	r3, [r7, #88]
 3604              	.L199:
 533:printer.c     ****         if((10-x) == DecVol)
 3605              		.loc 1 533 0 is_stmt 0 discriminator 1
 3606 082e 97F85830 		ldrb	r3, [r7, #88]	@ zero_extendqisi2
 3607 0832 092B     		cmp	r3, #9
 3608 0834 E1D9     		bls	.L201
 3609              	.LBE86:
 537:printer.c     ****     }
 538:printer.c     ****     PRINTER_A_PutChar(LINE_FEED);
 3610              		.loc 1 538 0 is_stmt 1
 3611 0836 714B     		ldr	r3, .L261+4
 3612 0838 1B78     		ldrb	r3, [r3]	@ zero_extendqisi2
 3613 083a 1846     		mov	r0, r3
 3614 083c FFF7FEFF 		bl	PRINTER_A_PutChar
 3615              	.LBB87:
 539:printer.c     ****     for(uint8 x = 0; x < 24; x ++){
 3616              		.loc 1 539 0
 3617 0840 0023     		movs	r3, #0
 3618 0842 87F85730 		strb	r3, [r7, #87]
 3619 0846 0BE0     		b	.L202
 3620              	.L203:
 540:printer.c     ****         PRINTER_A_PutChar(SEPARATOR[x]);
 3621              		.loc 1 540 0 discriminator 3
 3622 0848 97F85730 		ldrb	r3, [r7, #87]	@ zero_extendqisi2
 3623 084c 6E4A     		ldr	r2, .L261+16
 3624 084e D35C     		ldrb	r3, [r2, r3]	@ zero_extendqisi2
 3625 0850 1846     		mov	r0, r3
 3626 0852 FFF7FEFF 		bl	PRINTER_A_PutChar
 539:printer.c     ****     for(uint8 x = 0; x < 24; x ++){
 3627              		.loc 1 539 0 discriminator 3
 3628 0856 97F85730 		ldrb	r3, [r7, #87]	@ zero_extendqisi2
 3629 085a 0133     		adds	r3, r3, #1
 3630 085c 87F85730 		strb	r3, [r7, #87]
 3631              	.L202:
 539:printer.c     ****     for(uint8 x = 0; x < 24; x ++){
 3632              		.loc 1 539 0 is_stmt 0 discriminator 1
 3633 0860 97F85730 		ldrb	r3, [r7, #87]	@ zero_extendqisi2
 3634 0864 172B     		cmp	r3, #23
 3635 0866 EFD9     		bls	.L203
 3636              	.LBE87:
 541:printer.c     ****     }  
 542:printer.c     ****     PRINTER_A_PutChar(LINE_FEED);
 3637              		.loc 1 542 0 is_stmt 1
 3638 0868 644B     		ldr	r3, .L261+4
 3639 086a 1B78     		ldrb	r3, [r3]	@ zero_extendqisi2
 3640 086c 1846     		mov	r0, r3
 3641 086e FFF7FEFF 		bl	PRINTER_A_PutChar
 3642              	.LBB88:
ARM GAS  C:\Users\THERMA~1\AppData\Local\Temp\cc965AVb.s 			page 80


 543:printer.c     ****     for(uint8 x = 0; x < 13; x ++){
 3643              		.loc 1 543 0
 3644 0872 0023     		movs	r3, #0
 3645 0874 87F85630 		strb	r3, [r7, #86]
 3646 0878 0BE0     		b	.L204
 3647              	.L205:
 544:printer.c     ****         PRINTER_A_PutChar(msn_pos[x]);
 3648              		.loc 1 544 0 discriminator 3
 3649 087a 97F85630 		ldrb	r3, [r7, #86]	@ zero_extendqisi2
 3650 087e 634A     		ldr	r2, .L261+20
 3651 0880 D35C     		ldrb	r3, [r2, r3]	@ zero_extendqisi2
 3652 0882 1846     		mov	r0, r3
 3653 0884 FFF7FEFF 		bl	PRINTER_A_PutChar
 543:printer.c     ****     for(uint8 x = 0; x < 13; x ++){
 3654              		.loc 1 543 0 discriminator 3
 3655 0888 97F85630 		ldrb	r3, [r7, #86]	@ zero_extendqisi2
 3656 088c 0133     		adds	r3, r3, #1
 3657 088e 87F85630 		strb	r3, [r7, #86]
 3658              	.L204:
 543:printer.c     ****     for(uint8 x = 0; x < 13; x ++){
 3659              		.loc 1 543 0 is_stmt 0 discriminator 1
 3660 0892 97F85630 		ldrb	r3, [r7, #86]	@ zero_extendqisi2
 3661 0896 0C2B     		cmp	r3, #12
 3662 0898 EFD9     		bls	.L205
 3663              	.LBE88:
 545:printer.c     ****     }
 546:printer.c     ****     PRINTER_A_PutChar(side.b.dir + 0x31);
 3664              		.loc 1 546 0 is_stmt 1
 3665 089a 594B     		ldr	r3, .L261+8
 3666 089c 93F82D31 		ldrb	r3, [r3, #301]	@ zero_extendqisi2
 3667 08a0 3133     		adds	r3, r3, #49
 3668 08a2 DBB2     		uxtb	r3, r3
 3669 08a4 1846     		mov	r0, r3
 3670 08a6 FFF7FEFF 		bl	PRINTER_A_PutChar
 547:printer.c     ****     PRINTER_A_PutChar(LINE_FEED);
 3671              		.loc 1 547 0
 3672 08aa 544B     		ldr	r3, .L261+4
 3673 08ac 1B78     		ldrb	r3, [r3]	@ zero_extendqisi2
 3674 08ae 1846     		mov	r0, r3
 3675 08b0 FFF7FEFF 		bl	PRINTER_A_PutChar
 3676              	.LBB89:
 548:printer.c     ****     for(uint8 x = 0; x < 16; x ++){
 3677              		.loc 1 548 0
 3678 08b4 0023     		movs	r3, #0
 3679 08b6 87F85530 		strb	r3, [r7, #85]
 3680 08ba 0BE0     		b	.L206
 3681              	.L207:
 549:printer.c     **** 		PRINTER_A_PutChar(msn_lecact[x]);
 3682              		.loc 1 549 0 discriminator 3
 3683 08bc 97F85530 		ldrb	r3, [r7, #85]	@ zero_extendqisi2
 3684 08c0 534A     		ldr	r2, .L261+24
 3685 08c2 D35C     		ldrb	r3, [r2, r3]	@ zero_extendqisi2
 3686 08c4 1846     		mov	r0, r3
 3687 08c6 FFF7FEFF 		bl	PRINTER_A_PutChar
 548:printer.c     ****     for(uint8 x = 0; x < 16; x ++){
 3688              		.loc 1 548 0 discriminator 3
 3689 08ca 97F85530 		ldrb	r3, [r7, #85]	@ zero_extendqisi2
ARM GAS  C:\Users\THERMA~1\AppData\Local\Temp\cc965AVb.s 			page 81


 3690 08ce 0133     		adds	r3, r3, #1
 3691 08d0 87F85530 		strb	r3, [r7, #85]
 3692              	.L206:
 548:printer.c     ****     for(uint8 x = 0; x < 16; x ++){
 3693              		.loc 1 548 0 is_stmt 0 discriminator 1
 3694 08d4 97F85530 		ldrb	r3, [r7, #85]	@ zero_extendqisi2
 3695 08d8 0F2B     		cmp	r3, #15
 3696 08da EFD9     		bls	.L207
 3697              	.LBE89:
 550:printer.c     **** 	}
 551:printer.c     **** 	PRINTER_A_PutChar(LINE_FEED);
 3698              		.loc 1 551 0 is_stmt 1
 3699 08dc 474B     		ldr	r3, .L261+4
 3700 08de 1B78     		ldrb	r3, [r3]	@ zero_extendqisi2
 3701 08e0 1846     		mov	r0, r3
 3702 08e2 FFF7FEFF 		bl	PRINTER_A_PutChar
 3703              	.LBB90:
 552:printer.c     ****     for(uint8 x = 0; x < 10; x ++){ 
 3704              		.loc 1 552 0
 3705 08e6 0023     		movs	r3, #0
 3706 08e8 87F85430 		strb	r3, [r7, #84]
 3707 08ec 18E0     		b	.L208
 3708              	.L210:
 553:printer.c     ****         if((10-x) == DecVol)
 3709              		.loc 1 553 0
 3710 08ee 97F85430 		ldrb	r3, [r7, #84]	@ zero_extendqisi2
 3711 08f2 C3F10A03 		rsb	r3, r3, #10
 3712 08f6 404A     		ldr	r2, .L261
 3713 08f8 1278     		ldrb	r2, [r2]	@ zero_extendqisi2
 3714 08fa 9342     		cmp	r3, r2
 3715 08fc 02D1     		bne	.L209
 554:printer.c     ****             PRINTER_A_PutChar('.');
 3716              		.loc 1 554 0
 3717 08fe 2E20     		movs	r0, #46
 3718 0900 FFF7FEFF 		bl	PRINTER_A_PutChar
 3719              	.L209:
 555:printer.c     ****         PRINTER_A_PutChar(side.b.ProcessedTotals[0][0][x]);
 3720              		.loc 1 555 0 discriminator 2
 3721 0904 97F85430 		ldrb	r3, [r7, #84]	@ zero_extendqisi2
 3722 0908 3D4A     		ldr	r2, .L261+8
 3723 090a 1344     		add	r3, r3, r2
 3724 090c 93F8B031 		ldrb	r3, [r3, #432]	@ zero_extendqisi2
 3725 0910 1846     		mov	r0, r3
 3726 0912 FFF7FEFF 		bl	PRINTER_A_PutChar
 552:printer.c     ****         if((10-x) == DecVol)
 3727              		.loc 1 552 0 discriminator 2
 3728 0916 97F85430 		ldrb	r3, [r7, #84]	@ zero_extendqisi2
 3729 091a 0133     		adds	r3, r3, #1
 3730 091c 87F85430 		strb	r3, [r7, #84]
 3731              	.L208:
 552:printer.c     ****         if((10-x) == DecVol)
 3732              		.loc 1 552 0 is_stmt 0 discriminator 1
 3733 0920 97F85430 		ldrb	r3, [r7, #84]	@ zero_extendqisi2
 3734 0924 092B     		cmp	r3, #9
 3735 0926 E2D9     		bls	.L210
 3736              	.LBE90:
 556:printer.c     ****     }
ARM GAS  C:\Users\THERMA~1\AppData\Local\Temp\cc965AVb.s 			page 82


 557:printer.c     ****     PRINTER_A_PutChar(LINE_FEED);
 3737              		.loc 1 557 0 is_stmt 1
 3738 0928 344B     		ldr	r3, .L261+4
 3739 092a 1B78     		ldrb	r3, [r3]	@ zero_extendqisi2
 3740 092c 1846     		mov	r0, r3
 3741 092e FFF7FEFF 		bl	PRINTER_A_PutChar
 3742              	.LBB91:
 558:printer.c     **** 	for(uint8 x = 0; x < 16; x ++){
 3743              		.loc 1 558 0
 3744 0932 0023     		movs	r3, #0
 3745 0934 87F85330 		strb	r3, [r7, #83]
 3746 0938 0BE0     		b	.L211
 3747              	.L212:
 559:printer.c     **** 		PRINTER_A_PutChar(msn_lecaan[x]);
 3748              		.loc 1 559 0 discriminator 3
 3749 093a 97F85330 		ldrb	r3, [r7, #83]	@ zero_extendqisi2
 3750 093e 354A     		ldr	r2, .L261+28
 3751 0940 D35C     		ldrb	r3, [r2, r3]	@ zero_extendqisi2
 3752 0942 1846     		mov	r0, r3
 3753 0944 FFF7FEFF 		bl	PRINTER_A_PutChar
 558:printer.c     **** 	for(uint8 x = 0; x < 16; x ++){
 3754              		.loc 1 558 0 discriminator 3
 3755 0948 97F85330 		ldrb	r3, [r7, #83]	@ zero_extendqisi2
 3756 094c 0133     		adds	r3, r3, #1
 3757 094e 87F85330 		strb	r3, [r7, #83]
 3758              	.L211:
 558:printer.c     **** 	for(uint8 x = 0; x < 16; x ++){
 3759              		.loc 1 558 0 is_stmt 0 discriminator 1
 3760 0952 97F85330 		ldrb	r3, [r7, #83]	@ zero_extendqisi2
 3761 0956 0F2B     		cmp	r3, #15
 3762 0958 EFD9     		bls	.L212
 3763              	.LBE91:
 560:printer.c     **** 	}
 561:printer.c     ****     PRINTER_A_PutChar(LINE_FEED);
 3764              		.loc 1 561 0 is_stmt 1
 3765 095a 284B     		ldr	r3, .L261+4
 3766 095c 1B78     		ldrb	r3, [r3]	@ zero_extendqisi2
 3767 095e 1846     		mov	r0, r3
 3768 0960 FFF7FEFF 		bl	PRINTER_A_PutChar
 3769              	.LBB92:
 562:printer.c     ****     for(uint8 x = 0; x < 10; x ++){
 3770              		.loc 1 562 0
 3771 0964 0023     		movs	r3, #0
 3772 0966 87F85230 		strb	r3, [r7, #82]
 3773 096a 15E0     		b	.L213
 3774              	.L214:
 563:printer.c     ****         memoria[x] = EEPROM_1_ReadByte(46+x);
 3775              		.loc 1 563 0 discriminator 3
 3776 096c 97F85240 		ldrb	r4, [r7, #82]	@ zero_extendqisi2
 3777 0970 97F85230 		ldrb	r3, [r7, #82]	@ zero_extendqisi2
 3778 0974 9BB2     		uxth	r3, r3
 3779 0976 2E33     		adds	r3, r3, #46
 3780 0978 9BB2     		uxth	r3, r3
 3781 097a 1846     		mov	r0, r3
 3782 097c FFF7FEFF 		bl	EEPROM_1_ReadByte
 3783 0980 0346     		mov	r3, r0
 3784 0982 1A46     		mov	r2, r3
ARM GAS  C:\Users\THERMA~1\AppData\Local\Temp\cc965AVb.s 			page 83


 3785 0984 07F17003 		add	r3, r7, #112
 3786 0988 2344     		add	r3, r3, r4
 3787 098a 03F8642C 		strb	r2, [r3, #-100]
 562:printer.c     ****     for(uint8 x = 0; x < 10; x ++){
 3788              		.loc 1 562 0 discriminator 3
 3789 098e 97F85230 		ldrb	r3, [r7, #82]	@ zero_extendqisi2
 3790 0992 0133     		adds	r3, r3, #1
 3791 0994 87F85230 		strb	r3, [r7, #82]
 3792              	.L213:
 562:printer.c     ****     for(uint8 x = 0; x < 10; x ++){
 3793              		.loc 1 562 0 is_stmt 0 discriminator 1
 3794 0998 97F85230 		ldrb	r3, [r7, #82]	@ zero_extendqisi2
 3795 099c 092B     		cmp	r3, #9
 3796 099e E5D9     		bls	.L214
 3797              	.LBE92:
 3798              	.LBB93:
 564:printer.c     ****     }
 565:printer.c     ****     for(uint8 x = 0; x < 10; x ++){ 
 3799              		.loc 1 565 0 is_stmt 1
 3800 09a0 0023     		movs	r3, #0
 3801 09a2 87F85130 		strb	r3, [r7, #81]
 3802 09a6 19E0     		b	.L215
 3803              	.L217:
 566:printer.c     ****         if((10-x) == DecVol)
 3804              		.loc 1 566 0
 3805 09a8 97F85130 		ldrb	r3, [r7, #81]	@ zero_extendqisi2
 3806 09ac C3F10A03 		rsb	r3, r3, #10
 3807 09b0 114A     		ldr	r2, .L261
 3808 09b2 1278     		ldrb	r2, [r2]	@ zero_extendqisi2
 3809 09b4 9342     		cmp	r3, r2
 3810 09b6 02D1     		bne	.L216
 567:printer.c     ****             PRINTER_A_PutChar('.');
 3811              		.loc 1 567 0
 3812 09b8 2E20     		movs	r0, #46
 3813 09ba FFF7FEFF 		bl	PRINTER_A_PutChar
 3814              	.L216:
 568:printer.c     ****         PRINTER_A_PutChar(memoria[x]);
 3815              		.loc 1 568 0 discriminator 2
 3816 09be 97F85130 		ldrb	r3, [r7, #81]	@ zero_extendqisi2
 3817 09c2 07F17002 		add	r2, r7, #112
 3818 09c6 1344     		add	r3, r3, r2
 3819 09c8 13F8643C 		ldrb	r3, [r3, #-100]	@ zero_extendqisi2
 3820 09cc 1846     		mov	r0, r3
 3821 09ce FFF7FEFF 		bl	PRINTER_A_PutChar
 565:printer.c     ****         if((10-x) == DecVol)
 3822              		.loc 1 565 0 discriminator 2
 3823 09d2 97F85130 		ldrb	r3, [r7, #81]	@ zero_extendqisi2
 3824 09d6 0133     		adds	r3, r3, #1
 3825 09d8 87F85130 		strb	r3, [r7, #81]
 3826              	.L215:
 565:printer.c     ****         if((10-x) == DecVol)
 3827              		.loc 1 565 0 is_stmt 0 discriminator 1
 3828 09dc 97F85130 		ldrb	r3, [r7, #81]	@ zero_extendqisi2
 3829 09e0 092B     		cmp	r3, #9
 3830 09e2 E1D9     		bls	.L217
 3831              	.LBE93:
 569:printer.c     ****     }
ARM GAS  C:\Users\THERMA~1\AppData\Local\Temp\cc965AVb.s 			page 84


 570:printer.c     ****     PRINTER_A_PutChar(LINE_FEED);
 3832              		.loc 1 570 0 is_stmt 1
 3833 09e4 054B     		ldr	r3, .L261+4
 3834 09e6 1B78     		ldrb	r3, [r3]	@ zero_extendqisi2
 3835 09e8 1846     		mov	r0, r3
 3836 09ea FFF7FEFF 		bl	PRINTER_A_PutChar
 3837              	.LBB94:
 571:printer.c     ****     for(uint8 x = pos; x < 10; x++ ){
 3838              		.loc 1 571 0
 3839 09ee 97F86F30 		ldrb	r3, [r7, #111]
 3840 09f2 87F85030 		strb	r3, [r7, #80]
 3841 09f6 3DE0     		b	.L218
 3842              	.L262:
 3843              		.align	2
 3844              	.L261:
 3845 09f8 00000000 		.word	DecVol
 3846 09fc 00000000 		.word	LINE_FEED
 3847 0a00 00000000 		.word	side
 3848 0a04 00000000 		.word	msn_dif
 3849 0a08 00000000 		.word	SEPARATOR
 3850 0a0c 00000000 		.word	msn_pos
 3851 0a10 00000000 		.word	msn_lecact
 3852 0a14 00000000 		.word	msn_lecaan
 3853              	.L219:
 572:printer.c     ****         lectactual[x-pos] = side.b.ProcessedTotals[0][0][x];
 3854              		.loc 1 572 0 discriminator 3
 3855 0a18 97F85020 		ldrb	r2, [r7, #80]	@ zero_extendqisi2
 3856 0a1c 97F86F30 		ldrb	r3, [r7, #111]	@ zero_extendqisi2
 3857 0a20 D31A     		subs	r3, r2, r3
 3858 0a22 97F85020 		ldrb	r2, [r7, #80]	@ zero_extendqisi2
 3859 0a26 C949     		ldr	r1, .L263
 3860 0a28 0A44     		add	r2, r2, r1
 3861 0a2a 92F8B021 		ldrb	r2, [r2, #432]	@ zero_extendqisi2
 3862 0a2e 07F17001 		add	r1, r7, #112
 3863 0a32 0B44     		add	r3, r3, r1
 3864 0a34 03F8582C 		strb	r2, [r3, #-88]
 573:printer.c     ****         lectanterior[x-pos] = memoria[x];
 3865              		.loc 1 573 0 discriminator 3
 3866 0a38 97F85020 		ldrb	r2, [r7, #80]	@ zero_extendqisi2
 3867 0a3c 97F86F30 		ldrb	r3, [r7, #111]	@ zero_extendqisi2
 3868 0a40 D31A     		subs	r3, r2, r3
 3869 0a42 97F85020 		ldrb	r2, [r7, #80]	@ zero_extendqisi2
 3870 0a46 07F17001 		add	r1, r7, #112
 3871 0a4a 0A44     		add	r2, r2, r1
 3872 0a4c 12F8642C 		ldrb	r2, [r2, #-100]	@ zero_extendqisi2
 3873 0a50 07F17001 		add	r1, r7, #112
 3874 0a54 0B44     		add	r3, r3, r1
 3875 0a56 03F84C2C 		strb	r2, [r3, #-76]
 574:printer.c     ****         resultado[x] = 0x00;
 3876              		.loc 1 574 0 discriminator 3
 3877 0a5a 97F85030 		ldrb	r3, [r7, #80]	@ zero_extendqisi2
 3878 0a5e 07F17002 		add	r2, r7, #112
 3879 0a62 1344     		add	r3, r3, r2
 3880 0a64 0022     		movs	r2, #0
 3881 0a66 03F8702C 		strb	r2, [r3, #-112]
 571:printer.c     ****         lectactual[x-pos] = side.b.ProcessedTotals[0][0][x];
 3882              		.loc 1 571 0 discriminator 3
ARM GAS  C:\Users\THERMA~1\AppData\Local\Temp\cc965AVb.s 			page 85


 3883 0a6a 97F85030 		ldrb	r3, [r7, #80]	@ zero_extendqisi2
 3884 0a6e 0133     		adds	r3, r3, #1
 3885 0a70 87F85030 		strb	r3, [r7, #80]
 3886              	.L218:
 571:printer.c     ****         lectactual[x-pos] = side.b.ProcessedTotals[0][0][x];
 3887              		.loc 1 571 0 is_stmt 0 discriminator 1
 3888 0a74 97F85030 		ldrb	r3, [r7, #80]	@ zero_extendqisi2
 3889 0a78 092B     		cmp	r3, #9
 3890 0a7a CDD9     		bls	.L219
 3891              	.LBE94:
 575:printer.c     ****     }
 576:printer.c     ****     
 577:printer.c     ****     anterior = atoi(lectanterior);
 3892              		.loc 1 577 0 is_stmt 1
 3893 0a7c 07F12403 		add	r3, r7, #36
 3894 0a80 1846     		mov	r0, r3
 3895 0a82 FFF7FEFF 		bl	atoi
 3896 0a86 0346     		mov	r3, r0
 3897 0a88 BB63     		str	r3, [r7, #56]
 578:printer.c     ****     actual = atoi(lectactual);
 3898              		.loc 1 578 0
 3899 0a8a 07F11803 		add	r3, r7, #24
 3900 0a8e 1846     		mov	r0, r3
 3901 0a90 FFF7FEFF 		bl	atoi
 3902 0a94 0346     		mov	r3, r0
 3903 0a96 7B63     		str	r3, [r7, #52]
 579:printer.c     ****     resta =  actual - anterior;
 3904              		.loc 1 579 0
 3905 0a98 7A6B     		ldr	r2, [r7, #52]
 3906 0a9a BB6B     		ldr	r3, [r7, #56]
 3907 0a9c D31A     		subs	r3, r2, r3
 3908 0a9e 3B63     		str	r3, [r7, #48]
 580:printer.c     ****     itoa(resta,resultado,10);
 3909              		.loc 1 580 0
 3910 0aa0 3B6B     		ldr	r3, [r7, #48]
 3911 0aa2 3946     		mov	r1, r7
 3912 0aa4 0A22     		movs	r2, #10
 3913 0aa6 1846     		mov	r0, r3
 3914 0aa8 FFF7FEFF 		bl	itoa
 3915              	.LBB95:
 581:printer.c     ****     for(uint8 x = 0; x < 18; x ++){
 3916              		.loc 1 581 0
 3917 0aac 0023     		movs	r3, #0
 3918 0aae 87F84F30 		strb	r3, [r7, #79]
 3919 0ab2 0BE0     		b	.L220
 3920              	.L221:
 582:printer.c     ****         PRINTER_A_PutChar(msn_dif[x]);
 3921              		.loc 1 582 0 discriminator 3
 3922 0ab4 97F84F30 		ldrb	r3, [r7, #79]	@ zero_extendqisi2
 3923 0ab8 A54A     		ldr	r2, .L263+4
 3924 0aba D35C     		ldrb	r3, [r2, r3]	@ zero_extendqisi2
 3925 0abc 1846     		mov	r0, r3
 3926 0abe FFF7FEFF 		bl	PRINTER_A_PutChar
 581:printer.c     ****     for(uint8 x = 0; x < 18; x ++){
 3927              		.loc 1 581 0 discriminator 3
 3928 0ac2 97F84F30 		ldrb	r3, [r7, #79]	@ zero_extendqisi2
 3929 0ac6 0133     		adds	r3, r3, #1
ARM GAS  C:\Users\THERMA~1\AppData\Local\Temp\cc965AVb.s 			page 86


 3930 0ac8 87F84F30 		strb	r3, [r7, #79]
 3931              	.L220:
 581:printer.c     ****     for(uint8 x = 0; x < 18; x ++){
 3932              		.loc 1 581 0 is_stmt 0 discriminator 1
 3933 0acc 97F84F30 		ldrb	r3, [r7, #79]	@ zero_extendqisi2
 3934 0ad0 112B     		cmp	r3, #17
 3935 0ad2 EFD9     		bls	.L221
 3936              	.LBE95:
 583:printer.c     ****     }
 584:printer.c     ****     PRINTER_A_PutChar(LINE_FEED);
 3937              		.loc 1 584 0 is_stmt 1
 3938 0ad4 9F4B     		ldr	r3, .L263+8
 3939 0ad6 1B78     		ldrb	r3, [r3]	@ zero_extendqisi2
 3940 0ad8 1846     		mov	r0, r3
 3941 0ada FFF7FEFF 		bl	PRINTER_A_PutChar
 3942              	.LBB96:
 585:printer.c     ****     for(uint8 x = 0; x < 10; x ++){
 3943              		.loc 1 585 0
 3944 0ade 0023     		movs	r3, #0
 3945 0ae0 87F84E30 		strb	r3, [r7, #78]
 3946 0ae4 19E0     		b	.L222
 3947              	.L224:
 586:printer.c     ****         if((10-x) == DecVol)
 3948              		.loc 1 586 0
 3949 0ae6 97F84E30 		ldrb	r3, [r7, #78]	@ zero_extendqisi2
 3950 0aea C3F10A03 		rsb	r3, r3, #10
 3951 0aee 9A4A     		ldr	r2, .L263+12
 3952 0af0 1278     		ldrb	r2, [r2]	@ zero_extendqisi2
 3953 0af2 9342     		cmp	r3, r2
 3954 0af4 02D1     		bne	.L223
 587:printer.c     ****             PRINTER_A_PutChar('.');
 3955              		.loc 1 587 0
 3956 0af6 2E20     		movs	r0, #46
 3957 0af8 FFF7FEFF 		bl	PRINTER_A_PutChar
 3958              	.L223:
 588:printer.c     ****         PRINTER_A_PutChar(resultado[x]);
 3959              		.loc 1 588 0 discriminator 2
 3960 0afc 97F84E30 		ldrb	r3, [r7, #78]	@ zero_extendqisi2
 3961 0b00 07F17002 		add	r2, r7, #112
 3962 0b04 1344     		add	r3, r3, r2
 3963 0b06 13F8703C 		ldrb	r3, [r3, #-112]	@ zero_extendqisi2
 3964 0b0a 1846     		mov	r0, r3
 3965 0b0c FFF7FEFF 		bl	PRINTER_A_PutChar
 585:printer.c     ****         if((10-x) == DecVol)
 3966              		.loc 1 585 0 discriminator 2
 3967 0b10 97F84E30 		ldrb	r3, [r7, #78]	@ zero_extendqisi2
 3968 0b14 0133     		adds	r3, r3, #1
 3969 0b16 87F84E30 		strb	r3, [r7, #78]
 3970              	.L222:
 585:printer.c     ****         if((10-x) == DecVol)
 3971              		.loc 1 585 0 is_stmt 0 discriminator 1
 3972 0b1a 97F84E30 		ldrb	r3, [r7, #78]	@ zero_extendqisi2
 3973 0b1e 092B     		cmp	r3, #9
 3974 0b20 E1D9     		bls	.L224
 3975              	.LBE96:
 589:printer.c     ****     }
 590:printer.c     ****     PRINTER_A_PutChar(LINE_FEED);
ARM GAS  C:\Users\THERMA~1\AppData\Local\Temp\cc965AVb.s 			page 87


 3976              		.loc 1 590 0 is_stmt 1
 3977 0b22 8C4B     		ldr	r3, .L263+8
 3978 0b24 1B78     		ldrb	r3, [r3]	@ zero_extendqisi2
 3979 0b26 1846     		mov	r0, r3
 3980 0b28 FFF7FEFF 		bl	PRINTER_A_PutChar
 591:printer.c     ****     
 592:printer.c     ****     if((Positions-1)>= 3){
 3981              		.loc 1 592 0
 3982 0b2c 8B4B     		ldr	r3, .L263+16
 3983 0b2e 1B78     		ldrb	r3, [r3]	@ zero_extendqisi2
 3984 0b30 013B     		subs	r3, r3, #1
 3985 0b32 022B     		cmp	r3, #2
 3986 0b34 40F30681 		ble	.L225
 3987              	.LBB97:
 593:printer.c     ****         for(uint8 x = 0; x < 24; x ++){
 3988              		.loc 1 593 0
 3989 0b38 0023     		movs	r3, #0
 3990 0b3a 87F84D30 		strb	r3, [r7, #77]
 3991 0b3e 0BE0     		b	.L226
 3992              	.L227:
 594:printer.c     ****             PRINTER_A_PutChar(SEPARATOR[x]);
 3993              		.loc 1 594 0 discriminator 3
 3994 0b40 97F84D30 		ldrb	r3, [r7, #77]	@ zero_extendqisi2
 3995 0b44 864A     		ldr	r2, .L263+20
 3996 0b46 D35C     		ldrb	r3, [r2, r3]	@ zero_extendqisi2
 3997 0b48 1846     		mov	r0, r3
 3998 0b4a FFF7FEFF 		bl	PRINTER_A_PutChar
 593:printer.c     ****         for(uint8 x = 0; x < 24; x ++){
 3999              		.loc 1 593 0 discriminator 3
 4000 0b4e 97F84D30 		ldrb	r3, [r7, #77]	@ zero_extendqisi2
 4001 0b52 0133     		adds	r3, r3, #1
 4002 0b54 87F84D30 		strb	r3, [r7, #77]
 4003              	.L226:
 593:printer.c     ****         for(uint8 x = 0; x < 24; x ++){
 4004              		.loc 1 593 0 is_stmt 0 discriminator 1
 4005 0b58 97F84D30 		ldrb	r3, [r7, #77]	@ zero_extendqisi2
 4006 0b5c 172B     		cmp	r3, #23
 4007 0b5e EFD9     		bls	.L227
 4008              	.LBE97:
 595:printer.c     ****         }           
 596:printer.c     ****         PRINTER_A_PutChar(LINE_FEED);
 4009              		.loc 1 596 0 is_stmt 1
 4010 0b60 7C4B     		ldr	r3, .L263+8
 4011 0b62 1B78     		ldrb	r3, [r3]	@ zero_extendqisi2
 4012 0b64 1846     		mov	r0, r3
 4013 0b66 FFF7FEFF 		bl	PRINTER_A_PutChar
 4014              	.LBB98:
 597:printer.c     ****         for(uint8 x = 0; x < 13; x ++){
 4015              		.loc 1 597 0
 4016 0b6a 0023     		movs	r3, #0
 4017 0b6c 87F84C30 		strb	r3, [r7, #76]
 4018 0b70 0BE0     		b	.L228
 4019              	.L229:
 598:printer.c     ****             PRINTER_A_PutChar(msn_pos[x]);
 4020              		.loc 1 598 0 discriminator 3
 4021 0b72 97F84C30 		ldrb	r3, [r7, #76]	@ zero_extendqisi2
 4022 0b76 7B4A     		ldr	r2, .L263+24
ARM GAS  C:\Users\THERMA~1\AppData\Local\Temp\cc965AVb.s 			page 88


 4023 0b78 D35C     		ldrb	r3, [r2, r3]	@ zero_extendqisi2
 4024 0b7a 1846     		mov	r0, r3
 4025 0b7c FFF7FEFF 		bl	PRINTER_A_PutChar
 597:printer.c     ****         for(uint8 x = 0; x < 13; x ++){
 4026              		.loc 1 597 0 discriminator 3
 4027 0b80 97F84C30 		ldrb	r3, [r7, #76]	@ zero_extendqisi2
 4028 0b84 0133     		adds	r3, r3, #1
 4029 0b86 87F84C30 		strb	r3, [r7, #76]
 4030              	.L228:
 597:printer.c     ****         for(uint8 x = 0; x < 13; x ++){
 4031              		.loc 1 597 0 is_stmt 0 discriminator 1
 4032 0b8a 97F84C30 		ldrb	r3, [r7, #76]	@ zero_extendqisi2
 4033 0b8e 0C2B     		cmp	r3, #12
 4034 0b90 EFD9     		bls	.L229
 4035              	.LBE98:
 599:printer.c     ****         }
 600:printer.c     ****         PRINTER_A_PutChar(side.c.dir + 0x31);
 4036              		.loc 1 600 0 is_stmt 1
 4037 0b92 6E4B     		ldr	r3, .L263
 4038 0b94 93F85A32 		ldrb	r3, [r3, #602]	@ zero_extendqisi2
 4039 0b98 3133     		adds	r3, r3, #49
 4040 0b9a DBB2     		uxtb	r3, r3
 4041 0b9c 1846     		mov	r0, r3
 4042 0b9e FFF7FEFF 		bl	PRINTER_A_PutChar
 601:printer.c     ****         PRINTER_A_PutChar(LINE_FEED);              
 4043              		.loc 1 601 0
 4044 0ba2 6C4B     		ldr	r3, .L263+8
 4045 0ba4 1B78     		ldrb	r3, [r3]	@ zero_extendqisi2
 4046 0ba6 1846     		mov	r0, r3
 4047 0ba8 FFF7FEFF 		bl	PRINTER_A_PutChar
 4048              	.LBB99:
 602:printer.c     ****         for(uint8 x = 0; x < 10; x ++){ 
 4049              		.loc 1 602 0
 4050 0bac 0023     		movs	r3, #0
 4051 0bae 87F84B30 		strb	r3, [r7, #75]
 4052 0bb2 18E0     		b	.L230
 4053              	.L232:
 603:printer.c     ****             if((10-x) == DecVol)
 4054              		.loc 1 603 0
 4055 0bb4 97F84B30 		ldrb	r3, [r7, #75]	@ zero_extendqisi2
 4056 0bb8 C3F10A03 		rsb	r3, r3, #10
 4057 0bbc 664A     		ldr	r2, .L263+12
 4058 0bbe 1278     		ldrb	r2, [r2]	@ zero_extendqisi2
 4059 0bc0 9342     		cmp	r3, r2
 4060 0bc2 02D1     		bne	.L231
 604:printer.c     ****                 PRINTER_A_PutChar('.');
 4061              		.loc 1 604 0
 4062 0bc4 2E20     		movs	r0, #46
 4063 0bc6 FFF7FEFF 		bl	PRINTER_A_PutChar
 4064              	.L231:
 605:printer.c     ****             PRINTER_A_PutChar(side.c.ProcessedTotals[0][0][x]);
 4065              		.loc 1 605 0 discriminator 2
 4066 0bca 97F84B30 		ldrb	r3, [r7, #75]	@ zero_extendqisi2
 4067 0bce 5F4A     		ldr	r2, .L263
 4068 0bd0 1344     		add	r3, r3, r2
 4069 0bd2 93F8DD32 		ldrb	r3, [r3, #733]	@ zero_extendqisi2
 4070 0bd6 1846     		mov	r0, r3
ARM GAS  C:\Users\THERMA~1\AppData\Local\Temp\cc965AVb.s 			page 89


 4071 0bd8 FFF7FEFF 		bl	PRINTER_A_PutChar
 602:printer.c     ****             if((10-x) == DecVol)
 4072              		.loc 1 602 0 discriminator 2
 4073 0bdc 97F84B30 		ldrb	r3, [r7, #75]	@ zero_extendqisi2
 4074 0be0 0133     		adds	r3, r3, #1
 4075 0be2 87F84B30 		strb	r3, [r7, #75]
 4076              	.L230:
 602:printer.c     ****             if((10-x) == DecVol)
 4077              		.loc 1 602 0 is_stmt 0 discriminator 1
 4078 0be6 97F84B30 		ldrb	r3, [r7, #75]	@ zero_extendqisi2
 4079 0bea 092B     		cmp	r3, #9
 4080 0bec E2D9     		bls	.L232
 4081              	.LBE99:
 606:printer.c     ****         }
 607:printer.c     ****         PRINTER_A_PutChar(LINE_FEED);
 4082              		.loc 1 607 0 is_stmt 1
 4083 0bee 594B     		ldr	r3, .L263+8
 4084 0bf0 1B78     		ldrb	r3, [r3]	@ zero_extendqisi2
 4085 0bf2 1846     		mov	r0, r3
 4086 0bf4 FFF7FEFF 		bl	PRINTER_A_PutChar
 4087              	.LBB100:
 608:printer.c     ****     	for(uint8 x = 0; x < 16; x ++){
 4088              		.loc 1 608 0
 4089 0bf8 0023     		movs	r3, #0
 4090 0bfa 87F84A30 		strb	r3, [r7, #74]
 4091 0bfe 0BE0     		b	.L233
 4092              	.L234:
 609:printer.c     ****     		PRINTER_A_PutChar(msn_lecaan[x]);
 4093              		.loc 1 609 0 discriminator 3
 4094 0c00 97F84A30 		ldrb	r3, [r7, #74]	@ zero_extendqisi2
 4095 0c04 584A     		ldr	r2, .L263+28
 4096 0c06 D35C     		ldrb	r3, [r2, r3]	@ zero_extendqisi2
 4097 0c08 1846     		mov	r0, r3
 4098 0c0a FFF7FEFF 		bl	PRINTER_A_PutChar
 608:printer.c     ****     	for(uint8 x = 0; x < 16; x ++){
 4099              		.loc 1 608 0 discriminator 3
 4100 0c0e 97F84A30 		ldrb	r3, [r7, #74]	@ zero_extendqisi2
 4101 0c12 0133     		adds	r3, r3, #1
 4102 0c14 87F84A30 		strb	r3, [r7, #74]
 4103              	.L233:
 608:printer.c     ****     	for(uint8 x = 0; x < 16; x ++){
 4104              		.loc 1 608 0 is_stmt 0 discriminator 1
 4105 0c18 97F84A30 		ldrb	r3, [r7, #74]	@ zero_extendqisi2
 4106 0c1c 0F2B     		cmp	r3, #15
 4107 0c1e EFD9     		bls	.L234
 4108              	.LBE100:
 610:printer.c     ****     	}
 611:printer.c     ****         PRINTER_A_PutChar(LINE_FEED);
 4109              		.loc 1 611 0 is_stmt 1
 4110 0c20 4C4B     		ldr	r3, .L263+8
 4111 0c22 1B78     		ldrb	r3, [r3]	@ zero_extendqisi2
 4112 0c24 1846     		mov	r0, r3
 4113 0c26 FFF7FEFF 		bl	PRINTER_A_PutChar
 4114              	.LBB101:
 612:printer.c     ****         for(uint8 x = 0; x < 24; x ++){
 4115              		.loc 1 612 0
 4116 0c2a 0023     		movs	r3, #0
ARM GAS  C:\Users\THERMA~1\AppData\Local\Temp\cc965AVb.s 			page 90


 4117 0c2c 87F84930 		strb	r3, [r7, #73]
 4118 0c30 0BE0     		b	.L235
 4119              	.L236:
 613:printer.c     ****             PRINTER_A_PutChar(SEPARATOR[x]);
 4120              		.loc 1 613 0 discriminator 3
 4121 0c32 97F84930 		ldrb	r3, [r7, #73]	@ zero_extendqisi2
 4122 0c36 4A4A     		ldr	r2, .L263+20
 4123 0c38 D35C     		ldrb	r3, [r2, r3]	@ zero_extendqisi2
 4124 0c3a 1846     		mov	r0, r3
 4125 0c3c FFF7FEFF 		bl	PRINTER_A_PutChar
 612:printer.c     ****         for(uint8 x = 0; x < 24; x ++){
 4126              		.loc 1 612 0 discriminator 3
 4127 0c40 97F84930 		ldrb	r3, [r7, #73]	@ zero_extendqisi2
 4128 0c44 0133     		adds	r3, r3, #1
 4129 0c46 87F84930 		strb	r3, [r7, #73]
 4130              	.L235:
 612:printer.c     ****         for(uint8 x = 0; x < 24; x ++){
 4131              		.loc 1 612 0 is_stmt 0 discriminator 1
 4132 0c4a 97F84930 		ldrb	r3, [r7, #73]	@ zero_extendqisi2
 4133 0c4e 172B     		cmp	r3, #23
 4134 0c50 EFD9     		bls	.L236
 4135              	.LBE101:
 614:printer.c     ****         }   
 615:printer.c     ****         PRINTER_A_PutChar(LINE_FEED);
 4136              		.loc 1 615 0 is_stmt 1
 4137 0c52 404B     		ldr	r3, .L263+8
 4138 0c54 1B78     		ldrb	r3, [r3]	@ zero_extendqisi2
 4139 0c56 1846     		mov	r0, r3
 4140 0c58 FFF7FEFF 		bl	PRINTER_A_PutChar
 4141              	.LBB102:
 616:printer.c     ****     	for(uint8 x = 0; x < 13; x ++){
 4142              		.loc 1 616 0
 4143 0c5c 0023     		movs	r3, #0
 4144 0c5e 87F84830 		strb	r3, [r7, #72]
 4145 0c62 0BE0     		b	.L237
 4146              	.L238:
 617:printer.c     ****             PRINTER_A_PutChar(msn_pos[x]);
 4147              		.loc 1 617 0 discriminator 3
 4148 0c64 97F84830 		ldrb	r3, [r7, #72]	@ zero_extendqisi2
 4149 0c68 3E4A     		ldr	r2, .L263+24
 4150 0c6a D35C     		ldrb	r3, [r2, r3]	@ zero_extendqisi2
 4151 0c6c 1846     		mov	r0, r3
 4152 0c6e FFF7FEFF 		bl	PRINTER_A_PutChar
 616:printer.c     ****     	for(uint8 x = 0; x < 13; x ++){
 4153              		.loc 1 616 0 discriminator 3
 4154 0c72 97F84830 		ldrb	r3, [r7, #72]	@ zero_extendqisi2
 4155 0c76 0133     		adds	r3, r3, #1
 4156 0c78 87F84830 		strb	r3, [r7, #72]
 4157              	.L237:
 616:printer.c     ****     	for(uint8 x = 0; x < 13; x ++){
 4158              		.loc 1 616 0 is_stmt 0 discriminator 1
 4159 0c7c 97F84830 		ldrb	r3, [r7, #72]	@ zero_extendqisi2
 4160 0c80 0C2B     		cmp	r3, #12
 4161 0c82 EFD9     		bls	.L238
 4162              	.LBE102:
 618:printer.c     ****         }
 619:printer.c     ****         PRINTER_A_PutChar(side.d.dir + 0x31);
ARM GAS  C:\Users\THERMA~1\AppData\Local\Temp\cc965AVb.s 			page 91


 4163              		.loc 1 619 0 is_stmt 1
 4164 0c84 314B     		ldr	r3, .L263
 4165 0c86 93F88733 		ldrb	r3, [r3, #903]	@ zero_extendqisi2
 4166 0c8a 3133     		adds	r3, r3, #49
 4167 0c8c DBB2     		uxtb	r3, r3
 4168 0c8e 1846     		mov	r0, r3
 4169 0c90 FFF7FEFF 		bl	PRINTER_A_PutChar
 620:printer.c     ****         PRINTER_A_PutChar(LINE_FEED);                      
 4170              		.loc 1 620 0
 4171 0c94 2F4B     		ldr	r3, .L263+8
 4172 0c96 1B78     		ldrb	r3, [r3]	@ zero_extendqisi2
 4173 0c98 1846     		mov	r0, r3
 4174 0c9a FFF7FEFF 		bl	PRINTER_A_PutChar
 4175              	.LBB103:
 621:printer.c     ****         for(uint8 x = 0; x < 10; x ++){ 
 4176              		.loc 1 621 0
 4177 0c9e 0023     		movs	r3, #0
 4178 0ca0 87F84730 		strb	r3, [r7, #71]
 4179 0ca4 18E0     		b	.L239
 4180              	.L241:
 622:printer.c     ****             if((10-x) == DecVol)
 4181              		.loc 1 622 0
 4182 0ca6 97F84730 		ldrb	r3, [r7, #71]	@ zero_extendqisi2
 4183 0caa C3F10A03 		rsb	r3, r3, #10
 4184 0cae 2A4A     		ldr	r2, .L263+12
 4185 0cb0 1278     		ldrb	r2, [r2]	@ zero_extendqisi2
 4186 0cb2 9342     		cmp	r3, r2
 4187 0cb4 02D1     		bne	.L240
 623:printer.c     ****                 PRINTER_A_PutChar('.');
 4188              		.loc 1 623 0
 4189 0cb6 2E20     		movs	r0, #46
 4190 0cb8 FFF7FEFF 		bl	PRINTER_A_PutChar
 4191              	.L240:
 624:printer.c     ****             PRINTER_A_PutChar(side.d.ProcessedTotals[0][0][x]);
 4192              		.loc 1 624 0 discriminator 2
 4193 0cbc 97F84730 		ldrb	r3, [r7, #71]	@ zero_extendqisi2
 4194 0cc0 224A     		ldr	r2, .L263
 4195 0cc2 1344     		add	r3, r3, r2
 4196 0cc4 93F80A34 		ldrb	r3, [r3, #1034]	@ zero_extendqisi2
 4197 0cc8 1846     		mov	r0, r3
 4198 0cca FFF7FEFF 		bl	PRINTER_A_PutChar
 621:printer.c     ****             if((10-x) == DecVol)
 4199              		.loc 1 621 0 discriminator 2
 4200 0cce 97F84730 		ldrb	r3, [r7, #71]	@ zero_extendqisi2
 4201 0cd2 0133     		adds	r3, r3, #1
 4202 0cd4 87F84730 		strb	r3, [r7, #71]
 4203              	.L239:
 621:printer.c     ****             if((10-x) == DecVol)
 4204              		.loc 1 621 0 is_stmt 0 discriminator 1
 4205 0cd8 97F84730 		ldrb	r3, [r7, #71]	@ zero_extendqisi2
 4206 0cdc 092B     		cmp	r3, #9
 4207 0cde E2D9     		bls	.L241
 4208              	.LBE103:
 625:printer.c     ****         }
 626:printer.c     ****         PRINTER_A_PutChar(LINE_FEED);
 4209              		.loc 1 626 0 is_stmt 1
 4210 0ce0 1C4B     		ldr	r3, .L263+8
ARM GAS  C:\Users\THERMA~1\AppData\Local\Temp\cc965AVb.s 			page 92


 4211 0ce2 1B78     		ldrb	r3, [r3]	@ zero_extendqisi2
 4212 0ce4 1846     		mov	r0, r3
 4213 0ce6 FFF7FEFF 		bl	PRINTER_A_PutChar
 4214              	.LBB104:
 627:printer.c     ****     	for(uint8 x = 0; x < 16; x ++){
 4215              		.loc 1 627 0
 4216 0cea 0023     		movs	r3, #0
 4217 0cec 87F84630 		strb	r3, [r7, #70]
 4218 0cf0 0BE0     		b	.L242
 4219              	.L243:
 628:printer.c     ****     		PRINTER_A_PutChar(msn_lecaan[x]);
 4220              		.loc 1 628 0 discriminator 3
 4221 0cf2 97F84630 		ldrb	r3, [r7, #70]	@ zero_extendqisi2
 4222 0cf6 1C4A     		ldr	r2, .L263+28
 4223 0cf8 D35C     		ldrb	r3, [r2, r3]	@ zero_extendqisi2
 4224 0cfa 1846     		mov	r0, r3
 4225 0cfc FFF7FEFF 		bl	PRINTER_A_PutChar
 627:printer.c     ****     	for(uint8 x = 0; x < 16; x ++){
 4226              		.loc 1 627 0 discriminator 3
 4227 0d00 97F84630 		ldrb	r3, [r7, #70]	@ zero_extendqisi2
 4228 0d04 0133     		adds	r3, r3, #1
 4229 0d06 87F84630 		strb	r3, [r7, #70]
 4230              	.L242:
 627:printer.c     ****     	for(uint8 x = 0; x < 16; x ++){
 4231              		.loc 1 627 0 is_stmt 0 discriminator 1
 4232 0d0a 97F84630 		ldrb	r3, [r7, #70]	@ zero_extendqisi2
 4233 0d0e 0F2B     		cmp	r3, #15
 4234 0d10 EFD9     		bls	.L243
 4235              	.LBE104:
 4236              	.LBB105:
 629:printer.c     ****     	}
 630:printer.c     ****         
 631:printer.c     ****         for(uint8 x = 0; x < 24; x ++){
 4237              		.loc 1 631 0 is_stmt 1
 4238 0d12 0023     		movs	r3, #0
 4239 0d14 87F84530 		strb	r3, [r7, #69]
 4240 0d18 0BE0     		b	.L244
 4241              	.L245:
 632:printer.c     ****             PRINTER_A_PutChar(SEPARATOR[x]);
 4242              		.loc 1 632 0 discriminator 3
 4243 0d1a 97F84530 		ldrb	r3, [r7, #69]	@ zero_extendqisi2
 4244 0d1e 104A     		ldr	r2, .L263+20
 4245 0d20 D35C     		ldrb	r3, [r2, r3]	@ zero_extendqisi2
 4246 0d22 1846     		mov	r0, r3
 4247 0d24 FFF7FEFF 		bl	PRINTER_A_PutChar
 631:printer.c     ****             PRINTER_A_PutChar(SEPARATOR[x]);
 4248              		.loc 1 631 0 discriminator 3
 4249 0d28 97F84530 		ldrb	r3, [r7, #69]	@ zero_extendqisi2
 4250 0d2c 0133     		adds	r3, r3, #1
 4251 0d2e 87F84530 		strb	r3, [r7, #69]
 4252              	.L244:
 631:printer.c     ****             PRINTER_A_PutChar(SEPARATOR[x]);
 4253              		.loc 1 631 0 is_stmt 0 discriminator 1
 4254 0d32 97F84530 		ldrb	r3, [r7, #69]	@ zero_extendqisi2
 4255 0d36 172B     		cmp	r3, #23
 4256 0d38 EFD9     		bls	.L245
 4257              	.LBE105:
ARM GAS  C:\Users\THERMA~1\AppData\Local\Temp\cc965AVb.s 			page 93


 633:printer.c     ****         }            
 634:printer.c     **** 	    PRINTER_A_PutChar(LINE_FEED);
 4258              		.loc 1 634 0 is_stmt 1
 4259 0d3a 064B     		ldr	r3, .L263+8
 4260 0d3c 1B78     		ldrb	r3, [r3]	@ zero_extendqisi2
 4261 0d3e 1846     		mov	r0, r3
 4262 0d40 FFF7FEFF 		bl	PRINTER_A_PutChar
 4263              	.L225:
 4264              	.LBB106:
 635:printer.c     ****     } 
 636:printer.c     ****     /******FOOTER*****/
 637:printer.c     **** 	for(uint8 x = 0; x < 24; x ++){
 4265              		.loc 1 637 0
 4266 0d44 0023     		movs	r3, #0
 4267 0d46 87F84430 		strb	r3, [r7, #68]
 4268 0d4a 1BE0     		b	.L246
 4269              	.L264:
 4270              		.align	2
 4271              	.L263:
 4272 0d4c 00000000 		.word	side
 4273 0d50 00000000 		.word	msn_dif
 4274 0d54 00000000 		.word	LINE_FEED
 4275 0d58 00000000 		.word	DecVol
 4276 0d5c 00000000 		.word	Positions
 4277 0d60 00000000 		.word	SEPARATOR
 4278 0d64 00000000 		.word	msn_pos
 4279 0d68 00000000 		.word	msn_lecaan
 4280              	.L247:
 638:printer.c     **** 		PRINTER_A_PutChar(SEPARATOR[x]);
 4281              		.loc 1 638 0 discriminator 3
 4282 0d6c 97F84430 		ldrb	r3, [r7, #68]	@ zero_extendqisi2
 4283 0d70 4A4A     		ldr	r2, .L265
 4284 0d72 D35C     		ldrb	r3, [r2, r3]	@ zero_extendqisi2
 4285 0d74 1846     		mov	r0, r3
 4286 0d76 FFF7FEFF 		bl	PRINTER_A_PutChar
 637:printer.c     **** 		PRINTER_A_PutChar(SEPARATOR[x]);
 4287              		.loc 1 637 0 discriminator 3
 4288 0d7a 97F84430 		ldrb	r3, [r7, #68]	@ zero_extendqisi2
 4289 0d7e 0133     		adds	r3, r3, #1
 4290 0d80 87F84430 		strb	r3, [r7, #68]
 4291              	.L246:
 637:printer.c     **** 		PRINTER_A_PutChar(SEPARATOR[x]);
 4292              		.loc 1 637 0 is_stmt 0 discriminator 1
 4293 0d84 97F84430 		ldrb	r3, [r7, #68]	@ zero_extendqisi2
 4294 0d88 172B     		cmp	r3, #23
 4295 0d8a EFD9     		bls	.L247
 4296              	.LBE106:
 639:printer.c     **** 	}
 640:printer.c     **** 	PRINTER_A_PutChar(LINE_FEED);
 4297              		.loc 1 640 0 is_stmt 1
 4298 0d8c 444B     		ldr	r3, .L265+4
 4299 0d8e 1B78     		ldrb	r3, [r3]	@ zero_extendqisi2
 4300 0d90 1846     		mov	r0, r3
 4301 0d92 FFF7FEFF 		bl	PRINTER_A_PutChar
 4302              	.LBB107:
 641:printer.c     **** 	for(uint8 x = 0; x < 22; x ++){
 4303              		.loc 1 641 0
ARM GAS  C:\Users\THERMA~1\AppData\Local\Temp\cc965AVb.s 			page 94


 4304 0d96 0023     		movs	r3, #0
 4305 0d98 87F84330 		strb	r3, [r7, #67]
 4306 0d9c 0BE0     		b	.L248
 4307              	.L249:
 642:printer.c     **** 		PRINTER_A_PutChar(msn_footer[x]);
 4308              		.loc 1 642 0 discriminator 3
 4309 0d9e 97F84330 		ldrb	r3, [r7, #67]	@ zero_extendqisi2
 4310 0da2 404A     		ldr	r2, .L265+8
 4311 0da4 D35C     		ldrb	r3, [r2, r3]	@ zero_extendqisi2
 4312 0da6 1846     		mov	r0, r3
 4313 0da8 FFF7FEFF 		bl	PRINTER_A_PutChar
 641:printer.c     **** 	for(uint8 x = 0; x < 22; x ++){
 4314              		.loc 1 641 0 discriminator 3
 4315 0dac 97F84330 		ldrb	r3, [r7, #67]	@ zero_extendqisi2
 4316 0db0 0133     		adds	r3, r3, #1
 4317 0db2 87F84330 		strb	r3, [r7, #67]
 4318              	.L248:
 641:printer.c     **** 	for(uint8 x = 0; x < 22; x ++){
 4319              		.loc 1 641 0 is_stmt 0 discriminator 1
 4320 0db6 97F84330 		ldrb	r3, [r7, #67]	@ zero_extendqisi2
 4321 0dba 152B     		cmp	r3, #21
 4322 0dbc EFD9     		bls	.L249
 4323              	.LBE107:
 643:printer.c     **** 	}
 644:printer.c     **** 	PRINTER_A_PutChar(LINE_FEED);
 4324              		.loc 1 644 0 is_stmt 1
 4325 0dbe 384B     		ldr	r3, .L265+4
 4326 0dc0 1B78     		ldrb	r3, [r3]	@ zero_extendqisi2
 4327 0dc2 1846     		mov	r0, r3
 4328 0dc4 FFF7FEFF 		bl	PRINTER_A_PutChar
 4329              	.LBB108:
 645:printer.c     **** 	for(uint8 x = 0; x < 22; x ++){
 4330              		.loc 1 645 0
 4331 0dc8 0023     		movs	r3, #0
 4332 0dca 87F84230 		strb	r3, [r7, #66]
 4333 0dce 0BE0     		b	.L250
 4334              	.L251:
 646:printer.c     **** 		PRINTER_A_PutChar(msn_footer2[x]);
 4335              		.loc 1 646 0 discriminator 3
 4336 0dd0 97F84230 		ldrb	r3, [r7, #66]	@ zero_extendqisi2
 4337 0dd4 344A     		ldr	r2, .L265+12
 4338 0dd6 D35C     		ldrb	r3, [r2, r3]	@ zero_extendqisi2
 4339 0dd8 1846     		mov	r0, r3
 4340 0dda FFF7FEFF 		bl	PRINTER_A_PutChar
 645:printer.c     **** 	for(uint8 x = 0; x < 22; x ++){
 4341              		.loc 1 645 0 discriminator 3
 4342 0dde 97F84230 		ldrb	r3, [r7, #66]	@ zero_extendqisi2
 4343 0de2 0133     		adds	r3, r3, #1
 4344 0de4 87F84230 		strb	r3, [r7, #66]
 4345              	.L250:
 645:printer.c     **** 	for(uint8 x = 0; x < 22; x ++){
 4346              		.loc 1 645 0 is_stmt 0 discriminator 1
 4347 0de8 97F84230 		ldrb	r3, [r7, #66]	@ zero_extendqisi2
 4348 0dec 152B     		cmp	r3, #21
 4349 0dee EFD9     		bls	.L251
 4350              	.LBE108:
 647:printer.c     **** 	}           
ARM GAS  C:\Users\THERMA~1\AppData\Local\Temp\cc965AVb.s 			page 95


 648:printer.c     ****     PRINTER_A_PutChar(LINE_FEED);
 4351              		.loc 1 648 0 is_stmt 1
 4352 0df0 2B4B     		ldr	r3, .L265+4
 4353 0df2 1B78     		ldrb	r3, [r3]	@ zero_extendqisi2
 4354 0df4 1846     		mov	r0, r3
 4355 0df6 FFF7FEFF 		bl	PRINTER_A_PutChar
 649:printer.c     ****     PRINTER_A_PutChar(LINE_FEED);
 4356              		.loc 1 649 0
 4357 0dfa 294B     		ldr	r3, .L265+4
 4358 0dfc 1B78     		ldrb	r3, [r3]	@ zero_extendqisi2
 4359 0dfe 1846     		mov	r0, r3
 4360 0e00 FFF7FEFF 		bl	PRINTER_A_PutChar
 650:printer.c     ****     PRINTER_A_PutChar(LINE_FEED);
 4361              		.loc 1 650 0
 4362 0e04 264B     		ldr	r3, .L265+4
 4363 0e06 1B78     		ldrb	r3, [r3]	@ zero_extendqisi2
 4364 0e08 1846     		mov	r0, r3
 4365 0e0a FFF7FEFF 		bl	PRINTER_A_PutChar
 651:printer.c     ****     PRINTER_A_PutChar(LINE_FEED);
 4366              		.loc 1 651 0
 4367 0e0e 244B     		ldr	r3, .L265+4
 4368 0e10 1B78     		ldrb	r3, [r3]	@ zero_extendqisi2
 4369 0e12 1846     		mov	r0, r3
 4370 0e14 FFF7FEFF 		bl	PRINTER_A_PutChar
 652:printer.c     ****     PRINTER_A_PutChar(LINE_FEED);
 4371              		.loc 1 652 0
 4372 0e18 214B     		ldr	r3, .L265+4
 4373 0e1a 1B78     		ldrb	r3, [r3]	@ zero_extendqisi2
 4374 0e1c 1846     		mov	r0, r3
 4375 0e1e FFF7FEFF 		bl	PRINTER_A_PutChar
 4376              	.LBB109:
 653:printer.c     ****     for(uint8 x = 0; x < 10; x++){
 4377              		.loc 1 653 0
 4378 0e22 0023     		movs	r3, #0
 4379 0e24 87F84130 		strb	r3, [r7, #65]
 4380 0e28 13E0     		b	.L252
 4381              	.L253:
 654:printer.c     ****         EEPROM_1_WriteByte(side.a.ProcessedTotals[0][0][x],36+x);        
 4382              		.loc 1 654 0 discriminator 3
 4383 0e2a 97F84130 		ldrb	r3, [r7, #65]	@ zero_extendqisi2
 4384 0e2e 1F4A     		ldr	r2, .L265+16
 4385 0e30 1344     		add	r3, r3, r2
 4386 0e32 93F88320 		ldrb	r2, [r3, #131]	@ zero_extendqisi2
 4387 0e36 97F84130 		ldrb	r3, [r7, #65]	@ zero_extendqisi2
 4388 0e3a 9BB2     		uxth	r3, r3
 4389 0e3c 2433     		adds	r3, r3, #36
 4390 0e3e 9BB2     		uxth	r3, r3
 4391 0e40 1946     		mov	r1, r3
 4392 0e42 1046     		mov	r0, r2
 4393 0e44 FFF7FEFF 		bl	EEPROM_1_WriteByte
 653:printer.c     ****     for(uint8 x = 0; x < 10; x++){
 4394              		.loc 1 653 0 discriminator 3
 4395 0e48 97F84130 		ldrb	r3, [r7, #65]	@ zero_extendqisi2
 4396 0e4c 0133     		adds	r3, r3, #1
 4397 0e4e 87F84130 		strb	r3, [r7, #65]
 4398              	.L252:
 653:printer.c     ****     for(uint8 x = 0; x < 10; x++){
ARM GAS  C:\Users\THERMA~1\AppData\Local\Temp\cc965AVb.s 			page 96


 4399              		.loc 1 653 0 is_stmt 0 discriminator 1
 4400 0e52 97F84130 		ldrb	r3, [r7, #65]	@ zero_extendqisi2
 4401 0e56 092B     		cmp	r3, #9
 4402 0e58 E7D9     		bls	.L253
 4403              	.LBE109:
 4404              	.LBB110:
 655:printer.c     ****     }
 656:printer.c     ****     for(uint8 x = 0; x < 10; x++){
 4405              		.loc 1 656 0 is_stmt 1
 4406 0e5a 0023     		movs	r3, #0
 4407 0e5c 87F84030 		strb	r3, [r7, #64]
 4408 0e60 13E0     		b	.L254
 4409              	.L255:
 657:printer.c     ****         EEPROM_1_WriteByte(side.b.ProcessedTotals[0][0][x],46+x);
 4410              		.loc 1 657 0 discriminator 3
 4411 0e62 97F84030 		ldrb	r3, [r7, #64]	@ zero_extendqisi2
 4412 0e66 114A     		ldr	r2, .L265+16
 4413 0e68 1344     		add	r3, r3, r2
 4414 0e6a 93F8B021 		ldrb	r2, [r3, #432]	@ zero_extendqisi2
 4415 0e6e 97F84030 		ldrb	r3, [r7, #64]	@ zero_extendqisi2
 4416 0e72 9BB2     		uxth	r3, r3
 4417 0e74 2E33     		adds	r3, r3, #46
 4418 0e76 9BB2     		uxth	r3, r3
 4419 0e78 1946     		mov	r1, r3
 4420 0e7a 1046     		mov	r0, r2
 4421 0e7c FFF7FEFF 		bl	EEPROM_1_WriteByte
 656:printer.c     ****         EEPROM_1_WriteByte(side.b.ProcessedTotals[0][0][x],46+x);
 4422              		.loc 1 656 0 discriminator 3
 4423 0e80 97F84030 		ldrb	r3, [r7, #64]	@ zero_extendqisi2
 4424 0e84 0133     		adds	r3, r3, #1
 4425 0e86 87F84030 		strb	r3, [r7, #64]
 4426              	.L254:
 656:printer.c     ****         EEPROM_1_WriteByte(side.b.ProcessedTotals[0][0][x],46+x);
 4427              		.loc 1 656 0 is_stmt 0 discriminator 1
 4428 0e8a 97F84030 		ldrb	r3, [r7, #64]	@ zero_extendqisi2
 4429 0e8e 092B     		cmp	r3, #9
 4430 0e90 E7D9     		bls	.L255
 4431              	.LBE110:
 658:printer.c     ****     }
 659:printer.c     ****     
 660:printer.c     **** }
 4432              		.loc 1 660 0 is_stmt 1
 4433 0e92 00BF     		nop
 4434 0e94 7437     		adds	r7, r7, #116
 4435              		.cfi_def_cfa_offset 12
 4436 0e96 BD46     		mov	sp, r7
 4437              		.cfi_def_cfa_register 13
 4438              		@ sp needed
 4439 0e98 90BD     		pop	{r4, r7, pc}
 4440              	.L266:
 4441 0e9a 00BF     		.align	2
 4442              	.L265:
 4443 0e9c 00000000 		.word	SEPARATOR
 4444 0ea0 00000000 		.word	LINE_FEED
 4445 0ea4 00000000 		.word	msn_footer
 4446 0ea8 00000000 		.word	msn_footer2
 4447 0eac 00000000 		.word	side
ARM GAS  C:\Users\THERMA~1\AppData\Local\Temp\cc965AVb.s 			page 97


 4448              		.cfi_endproc
 4449              	.LFE65:
 4450              		.size	PrintShift, .-PrintShift
 4451              		.text
 4452              	.Letext0:
 4453              		.file 2 "c:\\program files (x86)\\cypress\\psoc creator\\4.2\\psoc creator\\import\\gnu\\arm\\5.4.
 4454              		.file 3 "c:\\program files (x86)\\cypress\\psoc creator\\4.2\\psoc creator\\import\\gnu\\arm\\5.4.
 4455              		.file 4 "Generated_Source\\PSoC5/cytypes.h"
 4456              		.file 5 "./GVar.h"
 4457              		.file 6 "Generated_Source\\PSoC5/core_cm3.h"
 4458              		.section	.debug_info,"",%progbits
 4459              	.Ldebug_info0:
 4460 0000 58140000 		.4byte	0x1458
 4461 0004 0400     		.2byte	0x4
 4462 0006 00000000 		.4byte	.Ldebug_abbrev0
 4463 000a 04       		.byte	0x4
 4464 000b 01       		.uleb128 0x1
 4465 000c 4C000000 		.4byte	.LASF119
 4466 0010 0C       		.byte	0xc
 4467 0011 C0040000 		.4byte	.LASF120
 4468 0015 EE040000 		.4byte	.LASF121
 4469 0019 00000000 		.4byte	.Ldebug_ranges0+0
 4470 001d 00000000 		.4byte	0
 4471 0021 00000000 		.4byte	.Ldebug_line0
 4472 0025 02       		.uleb128 0x2
 4473 0026 01       		.byte	0x1
 4474 0027 06       		.byte	0x6
 4475 0028 28050000 		.4byte	.LASF0
 4476 002c 02       		.uleb128 0x2
 4477 002d 01       		.byte	0x1
 4478 002e 08       		.byte	0x8
 4479 002f 5E040000 		.4byte	.LASF1
 4480 0033 02       		.uleb128 0x2
 4481 0034 02       		.byte	0x2
 4482 0035 05       		.byte	0x5
 4483 0036 6B030000 		.4byte	.LASF2
 4484 003a 02       		.uleb128 0x2
 4485 003b 02       		.byte	0x2
 4486 003c 07       		.byte	0x7
 4487 003d 34050000 		.4byte	.LASF3
 4488 0041 03       		.uleb128 0x3
 4489 0042 3B000000 		.4byte	.LASF9
 4490 0046 02       		.byte	0x2
 4491 0047 3F       		.byte	0x3f
 4492 0048 4C000000 		.4byte	0x4c
 4493 004c 02       		.uleb128 0x2
 4494 004d 04       		.byte	0x4
 4495 004e 05       		.byte	0x5
 4496 004f 7C030000 		.4byte	.LASF4
 4497 0053 02       		.uleb128 0x2
 4498 0054 04       		.byte	0x4
 4499 0055 07       		.byte	0x7
 4500 0056 09040000 		.4byte	.LASF5
 4501 005a 02       		.uleb128 0x2
 4502 005b 08       		.byte	0x8
 4503 005c 05       		.byte	0x5
 4504 005d C2020000 		.4byte	.LASF6
ARM GAS  C:\Users\THERMA~1\AppData\Local\Temp\cc965AVb.s 			page 98


 4505 0061 02       		.uleb128 0x2
 4506 0062 08       		.byte	0x8
 4507 0063 07       		.byte	0x7
 4508 0064 7D010000 		.4byte	.LASF7
 4509 0068 04       		.uleb128 0x4
 4510 0069 04       		.byte	0x4
 4511 006a 05       		.byte	0x5
 4512 006b 696E7400 		.ascii	"int\000"
 4513 006f 02       		.uleb128 0x2
 4514 0070 04       		.byte	0x4
 4515 0071 07       		.byte	0x7
 4516 0072 22000000 		.4byte	.LASF8
 4517 0076 03       		.uleb128 0x3
 4518 0077 23040000 		.4byte	.LASF10
 4519 007b 03       		.byte	0x3
 4520 007c 2C       		.byte	0x2c
 4521 007d 41000000 		.4byte	0x41
 4522 0081 05       		.uleb128 0x5
 4523 0082 9C050000 		.4byte	.LASF11
 4524 0086 04       		.byte	0x4
 4525 0087 E401     		.2byte	0x1e4
 4526 0089 2C000000 		.4byte	0x2c
 4527 008d 05       		.uleb128 0x5
 4528 008e 84020000 		.4byte	.LASF12
 4529 0092 04       		.byte	0x4
 4530 0093 E501     		.2byte	0x1e5
 4531 0095 3A000000 		.4byte	0x3a
 4532 0099 05       		.uleb128 0x5
 4533 009a 08030000 		.4byte	.LASF13
 4534 009e 04       		.byte	0x4
 4535 009f E601     		.2byte	0x1e6
 4536 00a1 53000000 		.4byte	0x53
 4537 00a5 05       		.uleb128 0x5
 4538 00a6 8B020000 		.4byte	.LASF14
 4539 00aa 04       		.byte	0x4
 4540 00ab E701     		.2byte	0x1e7
 4541 00ad 25000000 		.4byte	0x25
 4542 00b1 02       		.uleb128 0x2
 4543 00b2 04       		.byte	0x4
 4544 00b3 04       		.byte	0x4
 4545 00b4 4B010000 		.4byte	.LASF15
 4546 00b8 02       		.uleb128 0x2
 4547 00b9 08       		.byte	0x8
 4548 00ba 04       		.byte	0x4
 4549 00bb A2050000 		.4byte	.LASF16
 4550 00bf 05       		.uleb128 0x5
 4551 00c0 9B020000 		.4byte	.LASF17
 4552 00c4 04       		.byte	0x4
 4553 00c5 F501     		.2byte	0x1f5
 4554 00c7 CB000000 		.4byte	0xcb
 4555 00cb 02       		.uleb128 0x2
 4556 00cc 01       		.byte	0x1
 4557 00cd 08       		.byte	0x8
 4558 00ce 71020000 		.4byte	.LASF18
 4559 00d2 02       		.uleb128 0x2
 4560 00d3 08       		.byte	0x8
 4561 00d4 04       		.byte	0x4
ARM GAS  C:\Users\THERMA~1\AppData\Local\Temp\cc965AVb.s 			page 99


 4562 00d5 40030000 		.4byte	.LASF19
 4563 00d9 02       		.uleb128 0x2
 4564 00da 04       		.byte	0x4
 4565 00db 07       		.byte	0x7
 4566 00dc 00040000 		.4byte	.LASF20
 4567 00e0 06       		.uleb128 0x6
 4568 00e1 D2050000 		.4byte	.LASF36
 4569 00e5 2D01     		.2byte	0x12d
 4570 00e7 05       		.byte	0x5
 4571 00e8 22       		.byte	0x22
 4572 00e9 B3010000 		.4byte	0x1b3
 4573 00ed 07       		.uleb128 0x7
 4574 00ee 64697200 		.ascii	"dir\000"
 4575 00f2 05       		.byte	0x5
 4576 00f3 23       		.byte	0x23
 4577 00f4 81000000 		.4byte	0x81
 4578 00f8 00       		.byte	0
 4579 00f9 08       		.uleb128 0x8
 4580 00fa D8030000 		.4byte	.LASF21
 4581 00fe 05       		.byte	0x5
 4582 00ff 24       		.byte	0x24
 4583 0100 B3010000 		.4byte	0x1b3
 4584 0104 01       		.byte	0x1
 4585 0105 08       		.uleb128 0x8
 4586 0106 E4020000 		.4byte	.LASF22
 4587 010a 05       		.byte	0x5
 4588 010b 25       		.byte	0x25
 4589 010c CF010000 		.4byte	0x1cf
 4590 0110 29       		.byte	0x29
 4591 0111 08       		.uleb128 0x8
 4592 0112 B8020000 		.4byte	.LASF23
 4593 0116 05       		.byte	0x5
 4594 0117 26       		.byte	0x26
 4595 0118 E5010000 		.4byte	0x1e5
 4596 011c 35       		.byte	0x35
 4597 011d 08       		.uleb128 0x8
 4598 011e DC040000 		.4byte	.LASF24
 4599 0122 05       		.byte	0x5
 4600 0123 27       		.byte	0x27
 4601 0124 E5010000 		.4byte	0x1e5
 4602 0128 39       		.byte	0x39
 4603 0129 08       		.uleb128 0x8
 4604 012a D0020000 		.4byte	.LASF25
 4605 012e 05       		.byte	0x5
 4606 012f 28       		.byte	0x28
 4607 0130 F5010000 		.4byte	0x1f5
 4608 0134 3D       		.byte	0x3d
 4609 0135 08       		.uleb128 0x8
 4610 0136 63050000 		.4byte	.LASF26
 4611 013a 05       		.byte	0x5
 4612 013b 29       		.byte	0x29
 4613 013c 81000000 		.4byte	0x81
 4614 0140 4B       		.byte	0x4b
 4615 0141 08       		.uleb128 0x8
 4616 0142 6A020000 		.4byte	.LASF27
 4617 0146 05       		.byte	0x5
 4618 0147 2A       		.byte	0x2a
ARM GAS  C:\Users\THERMA~1\AppData\Local\Temp\cc965AVb.s 			page 100


 4619 0148 05020000 		.4byte	0x205
 4620 014c 4C       		.byte	0x4c
 4621 014d 08       		.uleb128 0x8
 4622 014e 27030000 		.4byte	.LASF28
 4623 0152 05       		.byte	0x5
 4624 0153 2B       		.byte	0x2b
 4625 0154 15020000 		.4byte	0x215
 4626 0158 51       		.byte	0x51
 4627 0159 08       		.uleb128 0x8
 4628 015a 92030000 		.4byte	.LASF29
 4629 015e 05       		.byte	0x5
 4630 015f 2C       		.byte	0x2c
 4631 0160 25020000 		.4byte	0x225
 4632 0164 83       		.byte	0x83
 4633 0165 08       		.uleb128 0x8
 4634 0166 42020000 		.4byte	.LASF30
 4635 016a 05       		.byte	0x5
 4636 016b 2D       		.byte	0x2d
 4637 016c 41020000 		.4byte	0x241
 4638 0170 FB       		.byte	0xfb
 4639 0171 09       		.uleb128 0x9
 4640 0172 EB000000 		.4byte	.LASF31
 4641 0176 05       		.byte	0x5
 4642 0177 2E       		.byte	0x2e
 4643 0178 41020000 		.4byte	0x241
 4644 017c 0301     		.2byte	0x103
 4645 017e 09       		.uleb128 0x9
 4646 017f 1B010000 		.4byte	.LASF32
 4647 0183 05       		.byte	0x5
 4648 0184 2F       		.byte	0x2f
 4649 0185 51020000 		.4byte	0x251
 4650 0189 0B01     		.2byte	0x10b
 4651 018b 09       		.uleb128 0x9
 4652 018c F3010000 		.4byte	.LASF33
 4653 0190 05       		.byte	0x5
 4654 0191 30       		.byte	0x30
 4655 0192 41020000 		.4byte	0x241
 4656 0196 2301     		.2byte	0x123
 4657 0198 09       		.uleb128 0x9
 4658 0199 A4040000 		.4byte	.LASF34
 4659 019d 05       		.byte	0x5
 4660 019e 31       		.byte	0x31
 4661 019f 81000000 		.4byte	0x81
 4662 01a3 2B01     		.2byte	0x12b
 4663 01a5 09       		.uleb128 0x9
 4664 01a6 00000000 		.4byte	.LASF35
 4665 01aa 05       		.byte	0x5
 4666 01ab 32       		.byte	0x32
 4667 01ac 81000000 		.4byte	0x81
 4668 01b0 2C01     		.2byte	0x12c
 4669 01b2 00       		.byte	0
 4670 01b3 0A       		.uleb128 0xa
 4671 01b4 81000000 		.4byte	0x81
 4672 01b8 CF010000 		.4byte	0x1cf
 4673 01bc 0B       		.uleb128 0xb
 4674 01bd D9000000 		.4byte	0xd9
 4675 01c1 03       		.byte	0x3
ARM GAS  C:\Users\THERMA~1\AppData\Local\Temp\cc965AVb.s 			page 101


 4676 01c2 0B       		.uleb128 0xb
 4677 01c3 D9000000 		.4byte	0xd9
 4678 01c7 01       		.byte	0x1
 4679 01c8 0B       		.uleb128 0xb
 4680 01c9 D9000000 		.4byte	0xd9
 4681 01cd 04       		.byte	0x4
 4682 01ce 00       		.byte	0
 4683 01cf 0A       		.uleb128 0xa
 4684 01d0 81000000 		.4byte	0x81
 4685 01d4 E5010000 		.4byte	0x1e5
 4686 01d8 0B       		.uleb128 0xb
 4687 01d9 D9000000 		.4byte	0xd9
 4688 01dd 03       		.byte	0x3
 4689 01de 0B       		.uleb128 0xb
 4690 01df D9000000 		.4byte	0xd9
 4691 01e3 02       		.byte	0x2
 4692 01e4 00       		.byte	0
 4693 01e5 0A       		.uleb128 0xa
 4694 01e6 81000000 		.4byte	0x81
 4695 01ea F5010000 		.4byte	0x1f5
 4696 01ee 0B       		.uleb128 0xb
 4697 01ef D9000000 		.4byte	0xd9
 4698 01f3 03       		.byte	0x3
 4699 01f4 00       		.byte	0
 4700 01f5 0A       		.uleb128 0xa
 4701 01f6 81000000 		.4byte	0x81
 4702 01fa 05020000 		.4byte	0x205
 4703 01fe 0B       		.uleb128 0xb
 4704 01ff D9000000 		.4byte	0xd9
 4705 0203 0D       		.byte	0xd
 4706 0204 00       		.byte	0
 4707 0205 0A       		.uleb128 0xa
 4708 0206 81000000 		.4byte	0x81
 4709 020a 15020000 		.4byte	0x215
 4710 020e 0B       		.uleb128 0xb
 4711 020f D9000000 		.4byte	0xd9
 4712 0213 04       		.byte	0x4
 4713 0214 00       		.byte	0
 4714 0215 0A       		.uleb128 0xa
 4715 0216 81000000 		.4byte	0x81
 4716 021a 25020000 		.4byte	0x225
 4717 021e 0B       		.uleb128 0xb
 4718 021f D9000000 		.4byte	0xd9
 4719 0223 31       		.byte	0x31
 4720 0224 00       		.byte	0
 4721 0225 0A       		.uleb128 0xa
 4722 0226 BF000000 		.4byte	0xbf
 4723 022a 41020000 		.4byte	0x241
 4724 022e 0B       		.uleb128 0xb
 4725 022f D9000000 		.4byte	0xd9
 4726 0233 03       		.byte	0x3
 4727 0234 0B       		.uleb128 0xb
 4728 0235 D9000000 		.4byte	0xd9
 4729 0239 02       		.byte	0x2
 4730 023a 0B       		.uleb128 0xb
 4731 023b D9000000 		.4byte	0xd9
 4732 023f 09       		.byte	0x9
ARM GAS  C:\Users\THERMA~1\AppData\Local\Temp\cc965AVb.s 			page 102


 4733 0240 00       		.byte	0
 4734 0241 0A       		.uleb128 0xa
 4735 0242 81000000 		.4byte	0x81
 4736 0246 51020000 		.4byte	0x251
 4737 024a 0B       		.uleb128 0xb
 4738 024b D9000000 		.4byte	0xd9
 4739 024f 07       		.byte	0x7
 4740 0250 00       		.byte	0
 4741 0251 0A       		.uleb128 0xa
 4742 0252 81000000 		.4byte	0x81
 4743 0256 67020000 		.4byte	0x267
 4744 025a 0B       		.uleb128 0xb
 4745 025b D9000000 		.4byte	0xd9
 4746 025f 03       		.byte	0x3
 4747 0260 0B       		.uleb128 0xb
 4748 0261 D9000000 		.4byte	0xd9
 4749 0265 05       		.byte	0x5
 4750 0266 00       		.byte	0
 4751 0267 06       		.uleb128 0x6
 4752 0268 AF040000 		.4byte	.LASF37
 4753 026c B404     		.2byte	0x4b4
 4754 026e 05       		.byte	0x5
 4755 026f 35       		.byte	0x35
 4756 0270 A0020000 		.4byte	0x2a0
 4757 0274 07       		.uleb128 0x7
 4758 0275 6100     		.ascii	"a\000"
 4759 0277 05       		.byte	0x5
 4760 0278 36       		.byte	0x36
 4761 0279 E0000000 		.4byte	0xe0
 4762 027d 00       		.byte	0
 4763 027e 0C       		.uleb128 0xc
 4764 027f 6200     		.ascii	"b\000"
 4765 0281 05       		.byte	0x5
 4766 0282 37       		.byte	0x37
 4767 0283 E0000000 		.4byte	0xe0
 4768 0287 2D01     		.2byte	0x12d
 4769 0289 0C       		.uleb128 0xc
 4770 028a 6300     		.ascii	"c\000"
 4771 028c 05       		.byte	0x5
 4772 028d 38       		.byte	0x38
 4773 028e E0000000 		.4byte	0xe0
 4774 0292 5A02     		.2byte	0x25a
 4775 0294 0C       		.uleb128 0xc
 4776 0295 6400     		.ascii	"d\000"
 4777 0297 05       		.byte	0x5
 4778 0298 39       		.byte	0x39
 4779 0299 E0000000 		.4byte	0xe0
 4780 029d 8703     		.2byte	0x387
 4781 029f 00       		.byte	0
 4782 02a0 0D       		.uleb128 0xd
 4783 02a1 35040000 		.4byte	.LASF40
 4784 02a5 01       		.byte	0x1
 4785 02a6 4D       		.byte	0x4d
 4786 02a7 00000000 		.4byte	.LFB64
 4787 02ab 18100000 		.4byte	.LFE64-.LFB64
 4788 02af 01       		.uleb128 0x1
 4789 02b0 9C       		.byte	0x9c
ARM GAS  C:\Users\THERMA~1\AppData\Local\Temp\cc965AVb.s 			page 103


 4790 02b1 49090000 		.4byte	0x949
 4791 02b5 0E       		.uleb128 0xe
 4792 02b6 1B040000 		.4byte	.LASF122
 4793 02ba 01       		.byte	0x1
 4794 02bb 4D       		.byte	0x4d
 4795 02bc 81000000 		.4byte	0x81
 4796 02c0 03       		.uleb128 0x3
 4797 02c1 91       		.byte	0x91
 4798 02c2 AF7F     		.sleb128 -81
 4799 02c4 0F       		.uleb128 0xf
 4800 02c5 42040000 		.4byte	.LASF38
 4801 02c9 01       		.byte	0x1
 4802 02ca 4E       		.byte	0x4e
 4803 02cb A5000000 		.4byte	0xa5
 4804 02cf 03       		.uleb128 0x3
 4805 02d0 91       		.byte	0x91
 4806 02d1 B17F     		.sleb128 -79
 4807 02d3 10       		.uleb128 0x10
 4808 02d4 68010000 		.4byte	.LBB2
 4809 02d8 30000000 		.4byte	.LBE2-.LBB2
 4810 02dc ED020000 		.4byte	0x2ed
 4811 02e0 11       		.uleb128 0x11
 4812 02e1 6900     		.ascii	"i\000"
 4813 02e3 01       		.byte	0x1
 4814 02e4 55       		.byte	0x55
 4815 02e5 81000000 		.4byte	0x81
 4816 02e9 02       		.uleb128 0x2
 4817 02ea 91       		.byte	0x91
 4818 02eb 6F       		.sleb128 -17
 4819 02ec 00       		.byte	0
 4820 02ed 10       		.uleb128 0x10
 4821 02ee 98010000 		.4byte	.LBB3
 4822 02f2 28000000 		.4byte	.LBE3-.LBB3
 4823 02f6 09030000 		.4byte	0x309
 4824 02fa 0F       		.uleb128 0xf
 4825 02fb C4010000 		.4byte	.LASF39
 4826 02ff 01       		.byte	0x1
 4827 0300 58       		.byte	0x58
 4828 0301 81000000 		.4byte	0x81
 4829 0305 02       		.uleb128 0x2
 4830 0306 91       		.byte	0x91
 4831 0307 6E       		.sleb128 -18
 4832 0308 00       		.byte	0
 4833 0309 10       		.uleb128 0x10
 4834 030a D6010000 		.4byte	.LBB4
 4835 030e 2E000000 		.4byte	.LBE4-.LBB4
 4836 0312 25030000 		.4byte	0x325
 4837 0316 0F       		.uleb128 0xf
 4838 0317 C4010000 		.4byte	.LASF39
 4839 031b 01       		.byte	0x1
 4840 031c 5E       		.byte	0x5e
 4841 031d 81000000 		.4byte	0x81
 4842 0321 02       		.uleb128 0x2
 4843 0322 91       		.byte	0x91
 4844 0323 6D       		.sleb128 -19
 4845 0324 00       		.byte	0
 4846 0325 10       		.uleb128 0x10
ARM GAS  C:\Users\THERMA~1\AppData\Local\Temp\cc965AVb.s 			page 104


 4847 0326 08020000 		.4byte	.LBB5
 4848 032a 28000000 		.4byte	.LBE5-.LBB5
 4849 032e 3F030000 		.4byte	0x33f
 4850 0332 11       		.uleb128 0x11
 4851 0333 7800     		.ascii	"x\000"
 4852 0335 01       		.byte	0x1
 4853 0336 63       		.byte	0x63
 4854 0337 81000000 		.4byte	0x81
 4855 033b 02       		.uleb128 0x2
 4856 033c 91       		.byte	0x91
 4857 033d 6C       		.sleb128 -20
 4858 033e 00       		.byte	0
 4859 033f 10       		.uleb128 0x10
 4860 0340 3A020000 		.4byte	.LBB6
 4861 0344 28000000 		.4byte	.LBE6-.LBB6
 4862 0348 59030000 		.4byte	0x359
 4863 034c 11       		.uleb128 0x11
 4864 034d 7800     		.ascii	"x\000"
 4865 034f 01       		.byte	0x1
 4866 0350 67       		.byte	0x67
 4867 0351 81000000 		.4byte	0x81
 4868 0355 02       		.uleb128 0x2
 4869 0356 91       		.byte	0x91
 4870 0357 6B       		.sleb128 -21
 4871 0358 00       		.byte	0
 4872 0359 10       		.uleb128 0x10
 4873 035a 6C020000 		.4byte	.LBB7
 4874 035e 28000000 		.4byte	.LBE7-.LBB7
 4875 0362 73030000 		.4byte	0x373
 4876 0366 11       		.uleb128 0x11
 4877 0367 7800     		.ascii	"x\000"
 4878 0369 01       		.byte	0x1
 4879 036a 6B       		.byte	0x6b
 4880 036b 81000000 		.4byte	0x81
 4881 036f 02       		.uleb128 0x2
 4882 0370 91       		.byte	0x91
 4883 0371 6A       		.sleb128 -22
 4884 0372 00       		.byte	0
 4885 0373 10       		.uleb128 0x10
 4886 0374 9E020000 		.4byte	.LBB8
 4887 0378 28000000 		.4byte	.LBE8-.LBB8
 4888 037c 8D030000 		.4byte	0x38d
 4889 0380 11       		.uleb128 0x11
 4890 0381 7800     		.ascii	"x\000"
 4891 0383 01       		.byte	0x1
 4892 0384 6F       		.byte	0x6f
 4893 0385 81000000 		.4byte	0x81
 4894 0389 02       		.uleb128 0x2
 4895 038a 91       		.byte	0x91
 4896 038b 69       		.sleb128 -23
 4897 038c 00       		.byte	0
 4898 038d 10       		.uleb128 0x10
 4899 038e D0020000 		.4byte	.LBB9
 4900 0392 28000000 		.4byte	.LBE9-.LBB9
 4901 0396 A7030000 		.4byte	0x3a7
 4902 039a 11       		.uleb128 0x11
 4903 039b 7800     		.ascii	"x\000"
ARM GAS  C:\Users\THERMA~1\AppData\Local\Temp\cc965AVb.s 			page 105


 4904 039d 01       		.byte	0x1
 4905 039e 73       		.byte	0x73
 4906 039f 81000000 		.4byte	0x81
 4907 03a3 02       		.uleb128 0x2
 4908 03a4 91       		.byte	0x91
 4909 03a5 68       		.sleb128 -24
 4910 03a6 00       		.byte	0
 4911 03a7 10       		.uleb128 0x10
 4912 03a8 02030000 		.4byte	.LBB10
 4913 03ac 28000000 		.4byte	.LBE10-.LBB10
 4914 03b0 C1030000 		.4byte	0x3c1
 4915 03b4 11       		.uleb128 0x11
 4916 03b5 7800     		.ascii	"x\000"
 4917 03b7 01       		.byte	0x1
 4918 03b8 77       		.byte	0x77
 4919 03b9 81000000 		.4byte	0x81
 4920 03bd 02       		.uleb128 0x2
 4921 03be 91       		.byte	0x91
 4922 03bf 67       		.sleb128 -25
 4923 03c0 00       		.byte	0
 4924 03c1 10       		.uleb128 0x10
 4925 03c2 34030000 		.4byte	.LBB11
 4926 03c6 64000000 		.4byte	.LBE11-.LBB11
 4927 03ca DB030000 		.4byte	0x3db
 4928 03ce 11       		.uleb128 0x11
 4929 03cf 7800     		.ascii	"x\000"
 4930 03d1 01       		.byte	0x1
 4931 03d2 7B       		.byte	0x7b
 4932 03d3 81000000 		.4byte	0x81
 4933 03d7 02       		.uleb128 0x2
 4934 03d8 91       		.byte	0x91
 4935 03d9 66       		.sleb128 -26
 4936 03da 00       		.byte	0
 4937 03db 10       		.uleb128 0x10
 4938 03dc A2030000 		.4byte	.LBB12
 4939 03e0 28000000 		.4byte	.LBE12-.LBB12
 4940 03e4 F5030000 		.4byte	0x3f5
 4941 03e8 11       		.uleb128 0x11
 4942 03e9 7800     		.ascii	"x\000"
 4943 03eb 01       		.byte	0x1
 4944 03ec 7F       		.byte	0x7f
 4945 03ed 81000000 		.4byte	0x81
 4946 03f1 02       		.uleb128 0x2
 4947 03f2 91       		.byte	0x91
 4948 03f3 65       		.sleb128 -27
 4949 03f4 00       		.byte	0
 4950 03f5 10       		.uleb128 0x10
 4951 03f6 D4030000 		.4byte	.LBB13
 4952 03fa 28000000 		.4byte	.LBE13-.LBB13
 4953 03fe 0F040000 		.4byte	0x40f
 4954 0402 11       		.uleb128 0x11
 4955 0403 7800     		.ascii	"x\000"
 4956 0405 01       		.byte	0x1
 4957 0406 84       		.byte	0x84
 4958 0407 81000000 		.4byte	0x81
 4959 040b 02       		.uleb128 0x2
 4960 040c 91       		.byte	0x91
ARM GAS  C:\Users\THERMA~1\AppData\Local\Temp\cc965AVb.s 			page 106


 4961 040d 64       		.sleb128 -28
 4962 040e 00       		.byte	0
 4963 040f 10       		.uleb128 0x10
 4964 0410 84040000 		.4byte	.LBB14
 4965 0414 28000000 		.4byte	.LBE14-.LBB14
 4966 0418 29040000 		.4byte	0x429
 4967 041c 11       		.uleb128 0x11
 4968 041d 7800     		.ascii	"x\000"
 4969 041f 01       		.byte	0x1
 4970 0420 91       		.byte	0x91
 4971 0421 81000000 		.4byte	0x81
 4972 0425 02       		.uleb128 0x2
 4973 0426 91       		.byte	0x91
 4974 0427 63       		.sleb128 -29
 4975 0428 00       		.byte	0
 4976 0429 10       		.uleb128 0x10
 4977 042a 34050000 		.4byte	.LBB15
 4978 042e 28000000 		.4byte	.LBE15-.LBB15
 4979 0432 43040000 		.4byte	0x443
 4980 0436 11       		.uleb128 0x11
 4981 0437 7800     		.ascii	"x\000"
 4982 0439 01       		.byte	0x1
 4983 043a 9E       		.byte	0x9e
 4984 043b 81000000 		.4byte	0x81
 4985 043f 02       		.uleb128 0x2
 4986 0440 91       		.byte	0x91
 4987 0441 62       		.sleb128 -30
 4988 0442 00       		.byte	0
 4989 0443 10       		.uleb128 0x10
 4990 0444 66050000 		.4byte	.LBB16
 4991 0448 28000000 		.4byte	.LBE16-.LBB16
 4992 044c 5D040000 		.4byte	0x45d
 4993 0450 11       		.uleb128 0x11
 4994 0451 7800     		.ascii	"x\000"
 4995 0453 01       		.byte	0x1
 4996 0454 A2       		.byte	0xa2
 4997 0455 81000000 		.4byte	0x81
 4998 0459 02       		.uleb128 0x2
 4999 045a 91       		.byte	0x91
 5000 045b 61       		.sleb128 -31
 5001 045c 00       		.byte	0
 5002 045d 10       		.uleb128 0x10
 5003 045e 8E050000 		.4byte	.LBB17
 5004 0462 28000000 		.4byte	.LBE17-.LBB17
 5005 0466 77040000 		.4byte	0x477
 5006 046a 11       		.uleb128 0x11
 5007 046b 7800     		.ascii	"x\000"
 5008 046d 01       		.byte	0x1
 5009 046e A5       		.byte	0xa5
 5010 046f 81000000 		.4byte	0x81
 5011 0473 02       		.uleb128 0x2
 5012 0474 91       		.byte	0x91
 5013 0475 60       		.sleb128 -32
 5014 0476 00       		.byte	0
 5015 0477 10       		.uleb128 0x10
 5016 0478 C0050000 		.4byte	.LBB18
 5017 047c 28000000 		.4byte	.LBE18-.LBB18
ARM GAS  C:\Users\THERMA~1\AppData\Local\Temp\cc965AVb.s 			page 107


 5018 0480 91040000 		.4byte	0x491
 5019 0484 11       		.uleb128 0x11
 5020 0485 7800     		.ascii	"x\000"
 5021 0487 01       		.byte	0x1
 5022 0488 A9       		.byte	0xa9
 5023 0489 81000000 		.4byte	0x81
 5024 048d 02       		.uleb128 0x2
 5025 048e 91       		.byte	0x91
 5026 048f 5F       		.sleb128 -33
 5027 0490 00       		.byte	0
 5028 0491 10       		.uleb128 0x10
 5029 0492 F4050000 		.4byte	.LBB19
 5030 0496 2C000000 		.4byte	.LBE19-.LBB19
 5031 049a AB040000 		.4byte	0x4ab
 5032 049e 11       		.uleb128 0x11
 5033 049f 7800     		.ascii	"x\000"
 5034 04a1 01       		.byte	0x1
 5035 04a2 AE       		.byte	0xae
 5036 04a3 81000000 		.4byte	0x81
 5037 04a7 02       		.uleb128 0x2
 5038 04a8 91       		.byte	0x91
 5039 04a9 5E       		.sleb128 -34
 5040 04aa 00       		.byte	0
 5041 04ab 10       		.uleb128 0x10
 5042 04ac 2A060000 		.4byte	.LBB20
 5043 04b0 28000000 		.4byte	.LBE20-.LBB20
 5044 04b4 C5040000 		.4byte	0x4c5
 5045 04b8 11       		.uleb128 0x11
 5046 04b9 7800     		.ascii	"x\000"
 5047 04bb 01       		.byte	0x1
 5048 04bc B2       		.byte	0xb2
 5049 04bd 81000000 		.4byte	0x81
 5050 04c1 02       		.uleb128 0x2
 5051 04c2 91       		.byte	0x91
 5052 04c3 5D       		.sleb128 -35
 5053 04c4 00       		.byte	0
 5054 04c5 10       		.uleb128 0x10
 5055 04c6 6A060000 		.4byte	.LBB21
 5056 04ca 56000000 		.4byte	.LBE21-.LBB21
 5057 04ce DF040000 		.4byte	0x4df
 5058 04d2 11       		.uleb128 0x11
 5059 04d3 7800     		.ascii	"x\000"
 5060 04d5 01       		.byte	0x1
 5061 04d6 B7       		.byte	0xb7
 5062 04d7 81000000 		.4byte	0x81
 5063 04db 02       		.uleb128 0x2
 5064 04dc 91       		.byte	0x91
 5065 04dd 5C       		.sleb128 -36
 5066 04de 00       		.byte	0
 5067 04df 10       		.uleb128 0x10
 5068 04e0 CA060000 		.4byte	.LBB22
 5069 04e4 2A000000 		.4byte	.LBE22-.LBB22
 5070 04e8 F9040000 		.4byte	0x4f9
 5071 04ec 11       		.uleb128 0x11
 5072 04ed 7800     		.ascii	"x\000"
 5073 04ef 01       		.byte	0x1
 5074 04f0 BB       		.byte	0xbb
ARM GAS  C:\Users\THERMA~1\AppData\Local\Temp\cc965AVb.s 			page 108


 5075 04f1 81000000 		.4byte	0x81
 5076 04f5 02       		.uleb128 0x2
 5077 04f6 91       		.byte	0x91
 5078 04f7 5B       		.sleb128 -37
 5079 04f8 00       		.byte	0
 5080 04f9 10       		.uleb128 0x10
 5081 04fa F4060000 		.4byte	.LBB23
 5082 04fe 28000000 		.4byte	.LBE23-.LBB23
 5083 0502 13050000 		.4byte	0x513
 5084 0506 11       		.uleb128 0x11
 5085 0507 7800     		.ascii	"x\000"
 5086 0509 01       		.byte	0x1
 5087 050a BF       		.byte	0xbf
 5088 050b 81000000 		.4byte	0x81
 5089 050f 02       		.uleb128 0x2
 5090 0510 91       		.byte	0x91
 5091 0511 5A       		.sleb128 -38
 5092 0512 00       		.byte	0
 5093 0513 10       		.uleb128 0x10
 5094 0514 26070000 		.4byte	.LBB24
 5095 0518 28000000 		.4byte	.LBE24-.LBB24
 5096 051c 2D050000 		.4byte	0x52d
 5097 0520 11       		.uleb128 0x11
 5098 0521 7800     		.ascii	"x\000"
 5099 0523 01       		.byte	0x1
 5100 0524 C4       		.byte	0xc4
 5101 0525 81000000 		.4byte	0x81
 5102 0529 02       		.uleb128 0x2
 5103 052a 91       		.byte	0x91
 5104 052b 59       		.sleb128 -39
 5105 052c 00       		.byte	0
 5106 052d 10       		.uleb128 0x10
 5107 052e 4E070000 		.4byte	.LBB25
 5108 0532 42000000 		.4byte	.LBE25-.LBB25
 5109 0536 47050000 		.4byte	0x547
 5110 053a 11       		.uleb128 0x11
 5111 053b 7800     		.ascii	"x\000"
 5112 053d 01       		.byte	0x1
 5113 053e C7       		.byte	0xc7
 5114 053f 81000000 		.4byte	0x81
 5115 0543 02       		.uleb128 0x2
 5116 0544 91       		.byte	0x91
 5117 0545 58       		.sleb128 -40
 5118 0546 00       		.byte	0
 5119 0547 10       		.uleb128 0x10
 5120 0548 AA070000 		.4byte	.LBB26
 5121 054c 28000000 		.4byte	.LBE26-.LBB26
 5122 0550 61050000 		.4byte	0x561
 5123 0554 11       		.uleb128 0x11
 5124 0555 7800     		.ascii	"x\000"
 5125 0557 01       		.byte	0x1
 5126 0558 CF       		.byte	0xcf
 5127 0559 81000000 		.4byte	0x81
 5128 055d 02       		.uleb128 0x2
 5129 055e 91       		.byte	0x91
 5130 055f 57       		.sleb128 -41
 5131 0560 00       		.byte	0
ARM GAS  C:\Users\THERMA~1\AppData\Local\Temp\cc965AVb.s 			page 109


 5132 0561 10       		.uleb128 0x10
 5133 0562 E2070000 		.4byte	.LBB27
 5134 0566 2C000000 		.4byte	.LBE27-.LBB27
 5135 056a 7B050000 		.4byte	0x57b
 5136 056e 11       		.uleb128 0x11
 5137 056f 7800     		.ascii	"x\000"
 5138 0571 01       		.byte	0x1
 5139 0572 D4       		.byte	0xd4
 5140 0573 81000000 		.4byte	0x81
 5141 0577 02       		.uleb128 0x2
 5142 0578 91       		.byte	0x91
 5143 0579 56       		.sleb128 -42
 5144 057a 00       		.byte	0
 5145 057b 10       		.uleb128 0x10
 5146 057c 18080000 		.4byte	.LBB28
 5147 0580 28000000 		.4byte	.LBE28-.LBB28
 5148 0584 95050000 		.4byte	0x595
 5149 0588 11       		.uleb128 0x11
 5150 0589 7800     		.ascii	"x\000"
 5151 058b 01       		.byte	0x1
 5152 058c D8       		.byte	0xd8
 5153 058d 81000000 		.4byte	0x81
 5154 0591 02       		.uleb128 0x2
 5155 0592 91       		.byte	0x91
 5156 0593 55       		.sleb128 -43
 5157 0594 00       		.byte	0
 5158 0595 10       		.uleb128 0x10
 5159 0596 50080000 		.4byte	.LBB29
 5160 059a 40000000 		.4byte	.LBE29-.LBB29
 5161 059e AF050000 		.4byte	0x5af
 5162 05a2 11       		.uleb128 0x11
 5163 05a3 7800     		.ascii	"x\000"
 5164 05a5 01       		.byte	0x1
 5165 05a6 DD       		.byte	0xdd
 5166 05a7 81000000 		.4byte	0x81
 5167 05ab 02       		.uleb128 0x2
 5168 05ac 91       		.byte	0x91
 5169 05ad 54       		.sleb128 -44
 5170 05ae 00       		.byte	0
 5171 05af 10       		.uleb128 0x10
 5172 05b0 A8080000 		.4byte	.LBB30
 5173 05b4 2C000000 		.4byte	.LBE30-.LBB30
 5174 05b8 C9050000 		.4byte	0x5c9
 5175 05bc 11       		.uleb128 0x11
 5176 05bd 7800     		.ascii	"x\000"
 5177 05bf 01       		.byte	0x1
 5178 05c0 E4       		.byte	0xe4
 5179 05c1 81000000 		.4byte	0x81
 5180 05c5 02       		.uleb128 0x2
 5181 05c6 91       		.byte	0x91
 5182 05c7 53       		.sleb128 -45
 5183 05c8 00       		.byte	0
 5184 05c9 10       		.uleb128 0x10
 5185 05ca DE080000 		.4byte	.LBB31
 5186 05ce 28000000 		.4byte	.LBE31-.LBB31
 5187 05d2 E3050000 		.4byte	0x5e3
 5188 05d6 11       		.uleb128 0x11
ARM GAS  C:\Users\THERMA~1\AppData\Local\Temp\cc965AVb.s 			page 110


 5189 05d7 7800     		.ascii	"x\000"
 5190 05d9 01       		.byte	0x1
 5191 05da E8       		.byte	0xe8
 5192 05db 81000000 		.4byte	0x81
 5193 05df 02       		.uleb128 0x2
 5194 05e0 91       		.byte	0x91
 5195 05e1 52       		.sleb128 -46
 5196 05e2 00       		.byte	0
 5197 05e3 10       		.uleb128 0x10
 5198 05e4 20090000 		.4byte	.LBB32
 5199 05e8 28000000 		.4byte	.LBE32-.LBB32
 5200 05ec FD050000 		.4byte	0x5fd
 5201 05f0 11       		.uleb128 0x11
 5202 05f1 7800     		.ascii	"x\000"
 5203 05f3 01       		.byte	0x1
 5204 05f4 ED       		.byte	0xed
 5205 05f5 81000000 		.4byte	0x81
 5206 05f9 02       		.uleb128 0x2
 5207 05fa 91       		.byte	0x91
 5208 05fb 51       		.sleb128 -47
 5209 05fc 00       		.byte	0
 5210 05fd 10       		.uleb128 0x10
 5211 05fe 52090000 		.4byte	.LBB33
 5212 0602 2A000000 		.4byte	.LBE33-.LBB33
 5213 0606 17060000 		.4byte	0x617
 5214 060a 11       		.uleb128 0x11
 5215 060b 7800     		.ascii	"x\000"
 5216 060d 01       		.byte	0x1
 5217 060e F1       		.byte	0xf1
 5218 060f 81000000 		.4byte	0x81
 5219 0613 02       		.uleb128 0x2
 5220 0614 91       		.byte	0x91
 5221 0615 50       		.sleb128 -48
 5222 0616 00       		.byte	0
 5223 0617 10       		.uleb128 0x10
 5224 0618 7C090000 		.4byte	.LBB34
 5225 061c 28000000 		.4byte	.LBE34-.LBB34
 5226 0620 31060000 		.4byte	0x631
 5227 0624 11       		.uleb128 0x11
 5228 0625 7800     		.ascii	"x\000"
 5229 0627 01       		.byte	0x1
 5230 0628 F5       		.byte	0xf5
 5231 0629 81000000 		.4byte	0x81
 5232 062d 02       		.uleb128 0x2
 5233 062e 91       		.byte	0x91
 5234 062f 4F       		.sleb128 -49
 5235 0630 00       		.byte	0
 5236 0631 10       		.uleb128 0x10
 5237 0632 AE090000 		.4byte	.LBB35
 5238 0636 28000000 		.4byte	.LBE35-.LBB35
 5239 063a 4B060000 		.4byte	0x64b
 5240 063e 11       		.uleb128 0x11
 5241 063f 7800     		.ascii	"x\000"
 5242 0641 01       		.byte	0x1
 5243 0642 FA       		.byte	0xfa
 5244 0643 81000000 		.4byte	0x81
 5245 0647 02       		.uleb128 0x2
ARM GAS  C:\Users\THERMA~1\AppData\Local\Temp\cc965AVb.s 			page 111


 5246 0648 91       		.byte	0x91
 5247 0649 4E       		.sleb128 -50
 5248 064a 00       		.byte	0
 5249 064b 10       		.uleb128 0x10
 5250 064c D6090000 		.4byte	.LBB36
 5251 0650 74000000 		.4byte	.LBE36-.LBB36
 5252 0654 65060000 		.4byte	0x665
 5253 0658 11       		.uleb128 0x11
 5254 0659 7800     		.ascii	"x\000"
 5255 065b 01       		.byte	0x1
 5256 065c FD       		.byte	0xfd
 5257 065d 81000000 		.4byte	0x81
 5258 0661 02       		.uleb128 0x2
 5259 0662 91       		.byte	0x91
 5260 0663 4D       		.sleb128 -51
 5261 0664 00       		.byte	0
 5262 0665 10       		.uleb128 0x10
 5263 0666 640A0000 		.4byte	.LBB37
 5264 066a 28000000 		.4byte	.LBE37-.LBB37
 5265 066e 80060000 		.4byte	0x680
 5266 0672 12       		.uleb128 0x12
 5267 0673 7800     		.ascii	"x\000"
 5268 0675 01       		.byte	0x1
 5269 0676 0501     		.2byte	0x105
 5270 0678 81000000 		.4byte	0x81
 5271 067c 02       		.uleb128 0x2
 5272 067d 91       		.byte	0x91
 5273 067e 4C       		.sleb128 -52
 5274 067f 00       		.byte	0
 5275 0680 10       		.uleb128 0x10
 5276 0681 9C0A0000 		.4byte	.LBB38
 5277 0685 2C000000 		.4byte	.LBE38-.LBB38
 5278 0689 9B060000 		.4byte	0x69b
 5279 068d 12       		.uleb128 0x12
 5280 068e 7800     		.ascii	"x\000"
 5281 0690 01       		.byte	0x1
 5282 0691 0A01     		.2byte	0x10a
 5283 0693 81000000 		.4byte	0x81
 5284 0697 02       		.uleb128 0x2
 5285 0698 91       		.byte	0x91
 5286 0699 4B       		.sleb128 -53
 5287 069a 00       		.byte	0
 5288 069b 10       		.uleb128 0x10
 5289 069c D20A0000 		.4byte	.LBB39
 5290 06a0 28000000 		.4byte	.LBE39-.LBB39
 5291 06a4 B6060000 		.4byte	0x6b6
 5292 06a8 12       		.uleb128 0x12
 5293 06a9 7800     		.ascii	"x\000"
 5294 06ab 01       		.byte	0x1
 5295 06ac 0E01     		.2byte	0x10e
 5296 06ae 81000000 		.4byte	0x81
 5297 06b2 02       		.uleb128 0x2
 5298 06b3 91       		.byte	0x91
 5299 06b4 4A       		.sleb128 -54
 5300 06b5 00       		.byte	0
 5301 06b6 10       		.uleb128 0x10
 5302 06b7 0A0B0000 		.4byte	.LBB40
ARM GAS  C:\Users\THERMA~1\AppData\Local\Temp\cc965AVb.s 			page 112


 5303 06bb 40000000 		.4byte	.LBE40-.LBB40
 5304 06bf D1060000 		.4byte	0x6d1
 5305 06c3 12       		.uleb128 0x12
 5306 06c4 7800     		.ascii	"x\000"
 5307 06c6 01       		.byte	0x1
 5308 06c7 1301     		.2byte	0x113
 5309 06c9 81000000 		.4byte	0x81
 5310 06cd 02       		.uleb128 0x2
 5311 06ce 91       		.byte	0x91
 5312 06cf 49       		.sleb128 -55
 5313 06d0 00       		.byte	0
 5314 06d1 10       		.uleb128 0x10
 5315 06d2 620B0000 		.4byte	.LBB41
 5316 06d6 2C000000 		.4byte	.LBE41-.LBB41
 5317 06da EC060000 		.4byte	0x6ec
 5318 06de 12       		.uleb128 0x12
 5319 06df 7800     		.ascii	"x\000"
 5320 06e1 01       		.byte	0x1
 5321 06e2 1A01     		.2byte	0x11a
 5322 06e4 81000000 		.4byte	0x81
 5323 06e8 02       		.uleb128 0x2
 5324 06e9 91       		.byte	0x91
 5325 06ea 48       		.sleb128 -56
 5326 06eb 00       		.byte	0
 5327 06ec 10       		.uleb128 0x10
 5328 06ed 980B0000 		.4byte	.LBB42
 5329 06f1 1E000000 		.4byte	.LBE42-.LBB42
 5330 06f5 07070000 		.4byte	0x707
 5331 06f9 12       		.uleb128 0x12
 5332 06fa 7800     		.ascii	"x\000"
 5333 06fc 01       		.byte	0x1
 5334 06fd 1E01     		.2byte	0x11e
 5335 06ff 81000000 		.4byte	0x81
 5336 0703 02       		.uleb128 0x2
 5337 0704 91       		.byte	0x91
 5338 0705 47       		.sleb128 -57
 5339 0706 00       		.byte	0
 5340 0707 10       		.uleb128 0x10
 5341 0708 D00B0000 		.4byte	.LBB43
 5342 070c 1E000000 		.4byte	.LBE43-.LBB43
 5343 0710 22070000 		.4byte	0x722
 5344 0714 12       		.uleb128 0x12
 5345 0715 7800     		.ascii	"x\000"
 5346 0717 01       		.byte	0x1
 5347 0718 2301     		.2byte	0x123
 5348 071a 81000000 		.4byte	0x81
 5349 071e 02       		.uleb128 0x2
 5350 071f 91       		.byte	0x91
 5351 0720 46       		.sleb128 -58
 5352 0721 00       		.byte	0
 5353 0722 10       		.uleb128 0x10
 5354 0723 EE0B0000 		.4byte	.LBB44
 5355 0727 1E000000 		.4byte	.LBE44-.LBB44
 5356 072b 3D070000 		.4byte	0x73d
 5357 072f 12       		.uleb128 0x12
 5358 0730 7800     		.ascii	"x\000"
 5359 0732 01       		.byte	0x1
ARM GAS  C:\Users\THERMA~1\AppData\Local\Temp\cc965AVb.s 			page 113


 5360 0733 2601     		.2byte	0x126
 5361 0735 81000000 		.4byte	0x81
 5362 0739 02       		.uleb128 0x2
 5363 073a 91       		.byte	0x91
 5364 073b 45       		.sleb128 -59
 5365 073c 00       		.byte	0
 5366 073d 10       		.uleb128 0x10
 5367 073e 160C0000 		.4byte	.LBB45
 5368 0742 1E000000 		.4byte	.LBE45-.LBB45
 5369 0746 58070000 		.4byte	0x758
 5370 074a 12       		.uleb128 0x12
 5371 074b 7800     		.ascii	"x\000"
 5372 074d 01       		.byte	0x1
 5373 074e 2A01     		.2byte	0x12a
 5374 0750 81000000 		.4byte	0x81
 5375 0754 02       		.uleb128 0x2
 5376 0755 91       		.byte	0x91
 5377 0756 44       		.sleb128 -60
 5378 0757 00       		.byte	0
 5379 0758 10       		.uleb128 0x10
 5380 0759 340C0000 		.4byte	.LBB46
 5381 075d 36000000 		.4byte	.LBE46-.LBB46
 5382 0761 73070000 		.4byte	0x773
 5383 0765 12       		.uleb128 0x12
 5384 0766 7800     		.ascii	"x\000"
 5385 0768 01       		.byte	0x1
 5386 0769 2D01     		.2byte	0x12d
 5387 076b 81000000 		.4byte	0x81
 5388 076f 02       		.uleb128 0x2
 5389 0770 91       		.byte	0x91
 5390 0771 43       		.sleb128 -61
 5391 0772 00       		.byte	0
 5392 0773 10       		.uleb128 0x10
 5393 0774 840C0000 		.4byte	.LBB47
 5394 0778 1E000000 		.4byte	.LBE47-.LBB47
 5395 077c 8E070000 		.4byte	0x78e
 5396 0780 12       		.uleb128 0x12
 5397 0781 7800     		.ascii	"x\000"
 5398 0783 01       		.byte	0x1
 5399 0784 3501     		.2byte	0x135
 5400 0786 81000000 		.4byte	0x81
 5401 078a 02       		.uleb128 0x2
 5402 078b 91       		.byte	0x91
 5403 078c 42       		.sleb128 -62
 5404 078d 00       		.byte	0
 5405 078e 10       		.uleb128 0x10
 5406 078f B20C0000 		.4byte	.LBB48
 5407 0793 22000000 		.4byte	.LBE48-.LBB48
 5408 0797 A9070000 		.4byte	0x7a9
 5409 079b 12       		.uleb128 0x12
 5410 079c 7800     		.ascii	"x\000"
 5411 079e 01       		.byte	0x1
 5412 079f 3A01     		.2byte	0x13a
 5413 07a1 81000000 		.4byte	0x81
 5414 07a5 02       		.uleb128 0x2
 5415 07a6 91       		.byte	0x91
 5416 07a7 41       		.sleb128 -63
ARM GAS  C:\Users\THERMA~1\AppData\Local\Temp\cc965AVb.s 			page 114


 5417 07a8 00       		.byte	0
 5418 07a9 10       		.uleb128 0x10
 5419 07aa DE0C0000 		.4byte	.LBB49
 5420 07ae 1E000000 		.4byte	.LBE49-.LBB49
 5421 07b2 C4070000 		.4byte	0x7c4
 5422 07b6 12       		.uleb128 0x12
 5423 07b7 7800     		.ascii	"x\000"
 5424 07b9 01       		.byte	0x1
 5425 07ba 3E01     		.2byte	0x13e
 5426 07bc 81000000 		.4byte	0x81
 5427 07c0 02       		.uleb128 0x2
 5428 07c1 91       		.byte	0x91
 5429 07c2 40       		.sleb128 -64
 5430 07c3 00       		.byte	0
 5431 07c4 10       		.uleb128 0x10
 5432 07c5 0C0D0000 		.4byte	.LBB50
 5433 07c9 50000000 		.4byte	.LBE50-.LBB50
 5434 07cd E0070000 		.4byte	0x7e0
 5435 07d1 12       		.uleb128 0x12
 5436 07d2 7800     		.ascii	"x\000"
 5437 07d4 01       		.byte	0x1
 5438 07d5 4301     		.2byte	0x143
 5439 07d7 81000000 		.4byte	0x81
 5440 07db 03       		.uleb128 0x3
 5441 07dc 91       		.byte	0x91
 5442 07dd BF7F     		.sleb128 -65
 5443 07df 00       		.byte	0
 5444 07e0 10       		.uleb128 0x10
 5445 07e1 740D0000 		.4byte	.LBB51
 5446 07e5 22000000 		.4byte	.LBE51-.LBB51
 5447 07e9 FC070000 		.4byte	0x7fc
 5448 07ed 12       		.uleb128 0x12
 5449 07ee 7800     		.ascii	"x\000"
 5450 07f0 01       		.byte	0x1
 5451 07f1 4A01     		.2byte	0x14a
 5452 07f3 81000000 		.4byte	0x81
 5453 07f7 03       		.uleb128 0x3
 5454 07f8 91       		.byte	0x91
 5455 07f9 BE7F     		.sleb128 -66
 5456 07fb 00       		.byte	0
 5457 07fc 10       		.uleb128 0x10
 5458 07fd 960D0000 		.4byte	.LBB52
 5459 0801 1E000000 		.4byte	.LBE52-.LBB52
 5460 0805 18080000 		.4byte	0x818
 5461 0809 12       		.uleb128 0x12
 5462 080a 7800     		.ascii	"x\000"
 5463 080c 01       		.byte	0x1
 5464 080d 4D01     		.2byte	0x14d
 5465 080f 81000000 		.4byte	0x81
 5466 0813 03       		.uleb128 0x3
 5467 0814 91       		.byte	0x91
 5468 0815 BD7F     		.sleb128 -67
 5469 0817 00       		.byte	0
 5470 0818 10       		.uleb128 0x10
 5471 0819 D80D0000 		.4byte	.LBB53
 5472 081d 1E000000 		.4byte	.LBE53-.LBB53
 5473 0821 34080000 		.4byte	0x834
ARM GAS  C:\Users\THERMA~1\AppData\Local\Temp\cc965AVb.s 			page 115


 5474 0825 12       		.uleb128 0x12
 5475 0826 7800     		.ascii	"x\000"
 5476 0828 01       		.byte	0x1
 5477 0829 5301     		.2byte	0x153
 5478 082b 81000000 		.4byte	0x81
 5479 082f 03       		.uleb128 0x3
 5480 0830 91       		.byte	0x91
 5481 0831 BC7F     		.sleb128 -68
 5482 0833 00       		.byte	0
 5483 0834 10       		.uleb128 0x10
 5484 0835 F60D0000 		.4byte	.LBB54
 5485 0839 1E000000 		.4byte	.LBE54-.LBB54
 5486 083d 50080000 		.4byte	0x850
 5487 0841 12       		.uleb128 0x12
 5488 0842 7800     		.ascii	"x\000"
 5489 0844 01       		.byte	0x1
 5490 0845 5601     		.2byte	0x156
 5491 0847 81000000 		.4byte	0x81
 5492 084b 03       		.uleb128 0x3
 5493 084c 91       		.byte	0x91
 5494 084d BB7F     		.sleb128 -69
 5495 084f 00       		.byte	0
 5496 0850 10       		.uleb128 0x10
 5497 0851 140E0000 		.4byte	.LBB55
 5498 0855 1E000000 		.4byte	.LBE55-.LBB55
 5499 0859 6C080000 		.4byte	0x86c
 5500 085d 12       		.uleb128 0x12
 5501 085e 7800     		.ascii	"x\000"
 5502 0860 01       		.byte	0x1
 5503 0861 5901     		.2byte	0x159
 5504 0863 81000000 		.4byte	0x81
 5505 0867 03       		.uleb128 0x3
 5506 0868 91       		.byte	0x91
 5507 0869 BA7F     		.sleb128 -70
 5508 086b 00       		.byte	0
 5509 086c 10       		.uleb128 0x10
 5510 086d 320E0000 		.4byte	.LBB56
 5511 0871 36000000 		.4byte	.LBE56-.LBB56
 5512 0875 88080000 		.4byte	0x888
 5513 0879 12       		.uleb128 0x12
 5514 087a 7800     		.ascii	"x\000"
 5515 087c 01       		.byte	0x1
 5516 087d 5C01     		.2byte	0x15c
 5517 087f 81000000 		.4byte	0x81
 5518 0883 03       		.uleb128 0x3
 5519 0884 91       		.byte	0x91
 5520 0885 B97F     		.sleb128 -71
 5521 0887 00       		.byte	0
 5522 0888 10       		.uleb128 0x10
 5523 0889 820E0000 		.4byte	.LBB57
 5524 088d 1E000000 		.4byte	.LBE57-.LBB57
 5525 0891 A4080000 		.4byte	0x8a4
 5526 0895 12       		.uleb128 0x12
 5527 0896 7800     		.ascii	"x\000"
 5528 0898 01       		.byte	0x1
 5529 0899 6401     		.2byte	0x164
 5530 089b 81000000 		.4byte	0x81
ARM GAS  C:\Users\THERMA~1\AppData\Local\Temp\cc965AVb.s 			page 116


 5531 089f 03       		.uleb128 0x3
 5532 08a0 91       		.byte	0x91
 5533 08a1 B87F     		.sleb128 -72
 5534 08a3 00       		.byte	0
 5535 08a4 10       		.uleb128 0x10
 5536 08a5 B00E0000 		.4byte	.LBB58
 5537 08a9 22000000 		.4byte	.LBE58-.LBB58
 5538 08ad C0080000 		.4byte	0x8c0
 5539 08b1 12       		.uleb128 0x12
 5540 08b2 7800     		.ascii	"x\000"
 5541 08b4 01       		.byte	0x1
 5542 08b5 6901     		.2byte	0x169
 5543 08b7 81000000 		.4byte	0x81
 5544 08bb 03       		.uleb128 0x3
 5545 08bc 91       		.byte	0x91
 5546 08bd B77F     		.sleb128 -73
 5547 08bf 00       		.byte	0
 5548 08c0 10       		.uleb128 0x10
 5549 08c1 DC0E0000 		.4byte	.LBB59
 5550 08c5 1E000000 		.4byte	.LBE59-.LBB59
 5551 08c9 DC080000 		.4byte	0x8dc
 5552 08cd 12       		.uleb128 0x12
 5553 08ce 7800     		.ascii	"x\000"
 5554 08d0 01       		.byte	0x1
 5555 08d1 6D01     		.2byte	0x16d
 5556 08d3 81000000 		.4byte	0x81
 5557 08d7 03       		.uleb128 0x3
 5558 08d8 91       		.byte	0x91
 5559 08d9 B67F     		.sleb128 -74
 5560 08db 00       		.byte	0
 5561 08dc 10       		.uleb128 0x10
 5562 08dd 0A0F0000 		.4byte	.LBB60
 5563 08e1 22000000 		.4byte	.LBE60-.LBB60
 5564 08e5 F8080000 		.4byte	0x8f8
 5565 08e9 12       		.uleb128 0x12
 5566 08ea 7800     		.ascii	"x\000"
 5567 08ec 01       		.byte	0x1
 5568 08ed 7201     		.2byte	0x172
 5569 08ef 81000000 		.4byte	0x81
 5570 08f3 03       		.uleb128 0x3
 5571 08f4 91       		.byte	0x91
 5572 08f5 B57F     		.sleb128 -75
 5573 08f7 00       		.byte	0
 5574 08f8 10       		.uleb128 0x10
 5575 08f9 360F0000 		.4byte	.LBB61
 5576 08fd 1E000000 		.4byte	.LBE61-.LBB61
 5577 0901 14090000 		.4byte	0x914
 5578 0905 12       		.uleb128 0x12
 5579 0906 7800     		.ascii	"x\000"
 5580 0908 01       		.byte	0x1
 5581 0909 7901     		.2byte	0x179
 5582 090b 81000000 		.4byte	0x81
 5583 090f 03       		.uleb128 0x3
 5584 0910 91       		.byte	0x91
 5585 0911 B47F     		.sleb128 -76
 5586 0913 00       		.byte	0
 5587 0914 10       		.uleb128 0x10
ARM GAS  C:\Users\THERMA~1\AppData\Local\Temp\cc965AVb.s 			page 117


 5588 0915 5E0F0000 		.4byte	.LBB62
 5589 0919 1E000000 		.4byte	.LBE62-.LBB62
 5590 091d 30090000 		.4byte	0x930
 5591 0921 12       		.uleb128 0x12
 5592 0922 7800     		.ascii	"x\000"
 5593 0924 01       		.byte	0x1
 5594 0925 7D01     		.2byte	0x17d
 5595 0927 81000000 		.4byte	0x81
 5596 092b 03       		.uleb128 0x3
 5597 092c 91       		.byte	0x91
 5598 092d B37F     		.sleb128 -77
 5599 092f 00       		.byte	0
 5600 0930 13       		.uleb128 0x13
 5601 0931 860F0000 		.4byte	.LBB63
 5602 0935 1E000000 		.4byte	.LBE63-.LBB63
 5603 0939 12       		.uleb128 0x12
 5604 093a 7800     		.ascii	"x\000"
 5605 093c 01       		.byte	0x1
 5606 093d 8101     		.2byte	0x181
 5607 093f 81000000 		.4byte	0x81
 5608 0943 03       		.uleb128 0x3
 5609 0944 91       		.byte	0x91
 5610 0945 B27F     		.sleb128 -78
 5611 0947 00       		.byte	0
 5612 0948 00       		.byte	0
 5613 0949 14       		.uleb128 0x14
 5614 094a 07010000 		.4byte	.LASF41
 5615 094e 01       		.byte	0x1
 5616 094f 8C01     		.2byte	0x18c
 5617 0951 00000000 		.4byte	.LFB65
 5618 0955 B00E0000 		.4byte	.LFE65-.LFB65
 5619 0959 01       		.uleb128 0x1
 5620 095a 9C       		.byte	0x9c
 5621 095b E40E0000 		.4byte	0xee4
 5622 095f 15       		.uleb128 0x15
 5623 0960 42040000 		.4byte	.LASF38
 5624 0964 01       		.byte	0x1
 5625 0965 8D01     		.2byte	0x18d
 5626 0967 81000000 		.4byte	0x81
 5627 096b 03       		.uleb128 0x3
 5628 096c 91       		.byte	0x91
 5629 096d BF7F     		.sleb128 -65
 5630 096f 12       		.uleb128 0x12
 5631 0970 706F7300 		.ascii	"pos\000"
 5632 0974 01       		.byte	0x1
 5633 0975 8D01     		.2byte	0x18d
 5634 0977 81000000 		.4byte	0x81
 5635 097b 02       		.uleb128 0x2
 5636 097c 91       		.byte	0x91
 5637 097d 6F       		.sleb128 -17
 5638 097e 15       		.uleb128 0x15
 5639 097f B7030000 		.4byte	.LASF42
 5640 0983 01       		.byte	0x1
 5641 0984 8E01     		.2byte	0x18e
 5642 0986 E40E0000 		.4byte	0xee4
 5643 098a 03       		.uleb128 0x3
 5644 098b 91       		.byte	0x91
ARM GAS  C:\Users\THERMA~1\AppData\Local\Temp\cc965AVb.s 			page 118


 5645 098c A47F     		.sleb128 -92
 5646 098e 15       		.uleb128 0x15
 5647 098f EE020000 		.4byte	.LASF43
 5648 0993 01       		.byte	0x1
 5649 0994 8E01     		.2byte	0x18e
 5650 0996 E40E0000 		.4byte	0xee4
 5651 099a 03       		.uleb128 0x3
 5652 099b 91       		.byte	0x91
 5653 099c 987F     		.sleb128 -104
 5654 099e 15       		.uleb128 0x15
 5655 099f A8030000 		.4byte	.LASF44
 5656 09a3 01       		.byte	0x1
 5657 09a4 8E01     		.2byte	0x18e
 5658 09a6 E40E0000 		.4byte	0xee4
 5659 09aa 03       		.uleb128 0x3
 5660 09ab 91       		.byte	0x91
 5661 09ac 8C7F     		.sleb128 -116
 5662 09ae 15       		.uleb128 0x15
 5663 09af 9A040000 		.4byte	.LASF45
 5664 09b3 01       		.byte	0x1
 5665 09b4 8E01     		.2byte	0x18e
 5666 09b6 E40E0000 		.4byte	0xee4
 5667 09ba 03       		.uleb128 0x3
 5668 09bb 91       		.byte	0x91
 5669 09bc 807F     		.sleb128 -128
 5670 09be 15       		.uleb128 0x15
 5671 09bf 01030000 		.4byte	.LASF46
 5672 09c3 01       		.byte	0x1
 5673 09c4 8F01     		.2byte	0x18f
 5674 09c6 99000000 		.4byte	0x99
 5675 09ca 03       		.uleb128 0x3
 5676 09cb 91       		.byte	0x91
 5677 09cc B47F     		.sleb128 -76
 5678 09ce 15       		.uleb128 0x15
 5679 09cf D3040000 		.4byte	.LASF47
 5680 09d3 01       		.byte	0x1
 5681 09d4 8F01     		.2byte	0x18f
 5682 09d6 99000000 		.4byte	0x99
 5683 09da 03       		.uleb128 0x3
 5684 09db 91       		.byte	0x91
 5685 09dc B87F     		.sleb128 -72
 5686 09de 15       		.uleb128 0x15
 5687 09df A2030000 		.4byte	.LASF48
 5688 09e3 01       		.byte	0x1
 5689 09e4 8F01     		.2byte	0x18f
 5690 09e6 99000000 		.4byte	0x99
 5691 09ea 03       		.uleb128 0x3
 5692 09eb 91       		.byte	0x91
 5693 09ec B07F     		.sleb128 -80
 5694 09ee 10       		.uleb128 0x10
 5695 09ef 06000000 		.4byte	.LBB64
 5696 09f3 28000000 		.4byte	.LBE64-.LBB64
 5697 09f7 0B0A0000 		.4byte	0xa0b
 5698 09fb 15       		.uleb128 0x15
 5699 09fc C4010000 		.4byte	.LASF39
 5700 0a00 01       		.byte	0x1
 5701 0a01 9001     		.2byte	0x190
ARM GAS  C:\Users\THERMA~1\AppData\Local\Temp\cc965AVb.s 			page 119


 5702 0a03 81000000 		.4byte	0x81
 5703 0a07 02       		.uleb128 0x2
 5704 0a08 91       		.byte	0x91
 5705 0a09 6E       		.sleb128 -18
 5706 0a0a 00       		.byte	0
 5707 0a0b 10       		.uleb128 0x10
 5708 0a0c 46000000 		.4byte	.LBB65
 5709 0a10 2E000000 		.4byte	.LBE65-.LBB65
 5710 0a14 280A0000 		.4byte	0xa28
 5711 0a18 15       		.uleb128 0x15
 5712 0a19 C4010000 		.4byte	.LASF39
 5713 0a1d 01       		.byte	0x1
 5714 0a1e 9601     		.2byte	0x196
 5715 0a20 81000000 		.4byte	0x81
 5716 0a24 02       		.uleb128 0x2
 5717 0a25 91       		.byte	0x91
 5718 0a26 6D       		.sleb128 -19
 5719 0a27 00       		.byte	0
 5720 0a28 10       		.uleb128 0x10
 5721 0a29 F0010000 		.4byte	.LBB66
 5722 0a2d 32000000 		.4byte	.LBE66-.LBB66
 5723 0a31 430A0000 		.4byte	0xa43
 5724 0a35 12       		.uleb128 0x12
 5725 0a36 6900     		.ascii	"i\000"
 5726 0a38 01       		.byte	0x1
 5727 0a39 A501     		.2byte	0x1a5
 5728 0a3b 81000000 		.4byte	0x81
 5729 0a3f 02       		.uleb128 0x2
 5730 0a40 91       		.byte	0x91
 5731 0a41 6C       		.sleb128 -20
 5732 0a42 00       		.byte	0
 5733 0a43 10       		.uleb128 0x10
 5734 0a44 2C020000 		.4byte	.LBB67
 5735 0a48 28000000 		.4byte	.LBE67-.LBB67
 5736 0a4c 5E0A0000 		.4byte	0xa5e
 5737 0a50 12       		.uleb128 0x12
 5738 0a51 7800     		.ascii	"x\000"
 5739 0a53 01       		.byte	0x1
 5740 0a54 A901     		.2byte	0x1a9
 5741 0a56 81000000 		.4byte	0x81
 5742 0a5a 02       		.uleb128 0x2
 5743 0a5b 91       		.byte	0x91
 5744 0a5c 6B       		.sleb128 -21
 5745 0a5d 00       		.byte	0
 5746 0a5e 10       		.uleb128 0x10
 5747 0a5f 5E020000 		.4byte	.LBB68
 5748 0a63 28000000 		.4byte	.LBE68-.LBB68
 5749 0a67 790A0000 		.4byte	0xa79
 5750 0a6b 12       		.uleb128 0x12
 5751 0a6c 7800     		.ascii	"x\000"
 5752 0a6e 01       		.byte	0x1
 5753 0a6f AD01     		.2byte	0x1ad
 5754 0a71 81000000 		.4byte	0x81
 5755 0a75 02       		.uleb128 0x2
 5756 0a76 91       		.byte	0x91
 5757 0a77 6A       		.sleb128 -22
 5758 0a78 00       		.byte	0
ARM GAS  C:\Users\THERMA~1\AppData\Local\Temp\cc965AVb.s 			page 120


 5759 0a79 10       		.uleb128 0x10
 5760 0a7a 90020000 		.4byte	.LBB69
 5761 0a7e 28000000 		.4byte	.LBE69-.LBB69
 5762 0a82 940A0000 		.4byte	0xa94
 5763 0a86 12       		.uleb128 0x12
 5764 0a87 7800     		.ascii	"x\000"
 5765 0a89 01       		.byte	0x1
 5766 0a8a B101     		.2byte	0x1b1
 5767 0a8c 81000000 		.4byte	0x81
 5768 0a90 02       		.uleb128 0x2
 5769 0a91 91       		.byte	0x91
 5770 0a92 69       		.sleb128 -23
 5771 0a93 00       		.byte	0
 5772 0a94 10       		.uleb128 0x10
 5773 0a95 C2020000 		.4byte	.LBB70
 5774 0a99 28000000 		.4byte	.LBE70-.LBB70
 5775 0a9d AF0A0000 		.4byte	0xaaf
 5776 0aa1 12       		.uleb128 0x12
 5777 0aa2 7800     		.ascii	"x\000"
 5778 0aa4 01       		.byte	0x1
 5779 0aa5 B501     		.2byte	0x1b5
 5780 0aa7 81000000 		.4byte	0x81
 5781 0aab 02       		.uleb128 0x2
 5782 0aac 91       		.byte	0x91
 5783 0aad 68       		.sleb128 -24
 5784 0aae 00       		.byte	0
 5785 0aaf 10       		.uleb128 0x10
 5786 0ab0 F4020000 		.4byte	.LBB71
 5787 0ab4 28000000 		.4byte	.LBE71-.LBB71
 5788 0ab8 CA0A0000 		.4byte	0xaca
 5789 0abc 12       		.uleb128 0x12
 5790 0abd 7800     		.ascii	"x\000"
 5791 0abf 01       		.byte	0x1
 5792 0ac0 B901     		.2byte	0x1b9
 5793 0ac2 81000000 		.4byte	0x81
 5794 0ac6 02       		.uleb128 0x2
 5795 0ac7 91       		.byte	0x91
 5796 0ac8 67       		.sleb128 -25
 5797 0ac9 00       		.byte	0
 5798 0aca 10       		.uleb128 0x10
 5799 0acb 1C030000 		.4byte	.LBB72
 5800 0acf 60000000 		.4byte	.LBE72-.LBB72
 5801 0ad3 E50A0000 		.4byte	0xae5
 5802 0ad7 12       		.uleb128 0x12
 5803 0ad8 7800     		.ascii	"x\000"
 5804 0ada 01       		.byte	0x1
 5805 0adb BD01     		.2byte	0x1bd
 5806 0add 81000000 		.4byte	0x81
 5807 0ae1 02       		.uleb128 0x2
 5808 0ae2 91       		.byte	0x91
 5809 0ae3 66       		.sleb128 -26
 5810 0ae4 00       		.byte	0
 5811 0ae5 10       		.uleb128 0x10
 5812 0ae6 04040000 		.4byte	.LBB73
 5813 0aea 28000000 		.4byte	.LBE73-.LBB73
 5814 0aee 000B0000 		.4byte	0xb00
 5815 0af2 12       		.uleb128 0x12
ARM GAS  C:\Users\THERMA~1\AppData\Local\Temp\cc965AVb.s 			page 121


 5816 0af3 7800     		.ascii	"x\000"
 5817 0af5 01       		.byte	0x1
 5818 0af6 CB01     		.2byte	0x1cb
 5819 0af8 81000000 		.4byte	0x81
 5820 0afc 02       		.uleb128 0x2
 5821 0afd 91       		.byte	0x91
 5822 0afe 65       		.sleb128 -27
 5823 0aff 00       		.byte	0
 5824 0b00 10       		.uleb128 0x10
 5825 0b01 B4040000 		.4byte	.LBB74
 5826 0b05 28000000 		.4byte	.LBE74-.LBB74
 5827 0b09 1B0B0000 		.4byte	0xb1b
 5828 0b0d 12       		.uleb128 0x12
 5829 0b0e 7800     		.ascii	"x\000"
 5830 0b10 01       		.byte	0x1
 5831 0b11 D701     		.2byte	0x1d7
 5832 0b13 81000000 		.4byte	0x81
 5833 0b17 02       		.uleb128 0x2
 5834 0b18 91       		.byte	0x91
 5835 0b19 64       		.sleb128 -28
 5836 0b1a 00       		.byte	0
 5837 0b1b 10       		.uleb128 0x10
 5838 0b1c DC040000 		.4byte	.LBB75
 5839 0b20 28000000 		.4byte	.LBE75-.LBB75
 5840 0b24 360B0000 		.4byte	0xb36
 5841 0b28 12       		.uleb128 0x12
 5842 0b29 7800     		.ascii	"x\000"
 5843 0b2b 01       		.byte	0x1
 5844 0b2c DB01     		.2byte	0x1db
 5845 0b2e 81000000 		.4byte	0x81
 5846 0b32 02       		.uleb128 0x2
 5847 0b33 91       		.byte	0x91
 5848 0b34 63       		.sleb128 -29
 5849 0b35 00       		.byte	0
 5850 0b36 10       		.uleb128 0x10
 5851 0b37 04050000 		.4byte	.LBB76
 5852 0b3b 28000000 		.4byte	.LBE76-.LBB76
 5853 0b3f 510B0000 		.4byte	0xb51
 5854 0b43 12       		.uleb128 0x12
 5855 0b44 7800     		.ascii	"x\000"
 5856 0b46 01       		.byte	0x1
 5857 0b47 DE01     		.2byte	0x1de
 5858 0b49 81000000 		.4byte	0x81
 5859 0b4d 02       		.uleb128 0x2
 5860 0b4e 91       		.byte	0x91
 5861 0b4f 62       		.sleb128 -30
 5862 0b50 00       		.byte	0
 5863 0b51 10       		.uleb128 0x10
 5864 0b52 40050000 		.4byte	.LBB77
 5865 0b56 28000000 		.4byte	.LBE77-.LBB77
 5866 0b5a 6C0B0000 		.4byte	0xb6c
 5867 0b5e 12       		.uleb128 0x12
 5868 0b5f 7800     		.ascii	"x\000"
 5869 0b61 01       		.byte	0x1
 5870 0b62 E301     		.2byte	0x1e3
 5871 0b64 81000000 		.4byte	0x81
 5872 0b68 02       		.uleb128 0x2
ARM GAS  C:\Users\THERMA~1\AppData\Local\Temp\cc965AVb.s 			page 122


 5873 0b69 91       		.byte	0x91
 5874 0b6a 61       		.sleb128 -31
 5875 0b6b 00       		.byte	0
 5876 0b6c 10       		.uleb128 0x10
 5877 0b6d 80050000 		.4byte	.LBB78
 5878 0b71 28000000 		.4byte	.LBE78-.LBB78
 5879 0b75 870B0000 		.4byte	0xb87
 5880 0b79 12       		.uleb128 0x12
 5881 0b7a 7800     		.ascii	"x\000"
 5882 0b7c 01       		.byte	0x1
 5883 0b7d E801     		.2byte	0x1e8
 5884 0b7f 81000000 		.4byte	0x81
 5885 0b83 02       		.uleb128 0x2
 5886 0b84 91       		.byte	0x91
 5887 0b85 60       		.sleb128 -32
 5888 0b86 00       		.byte	0
 5889 0b87 10       		.uleb128 0x10
 5890 0b88 B2050000 		.4byte	.LBB79
 5891 0b8c 42000000 		.4byte	.LBE79-.LBB79
 5892 0b90 A20B0000 		.4byte	0xba2
 5893 0b94 12       		.uleb128 0x12
 5894 0b95 7800     		.ascii	"x\000"
 5895 0b97 01       		.byte	0x1
 5896 0b98 ED01     		.2byte	0x1ed
 5897 0b9a 81000000 		.4byte	0x81
 5898 0b9e 02       		.uleb128 0x2
 5899 0b9f 91       		.byte	0x91
 5900 0ba0 5F       		.sleb128 -33
 5901 0ba1 00       		.byte	0
 5902 0ba2 10       		.uleb128 0x10
 5903 0ba3 FE050000 		.4byte	.LBB80
 5904 0ba7 36000000 		.4byte	.LBE80-.LBB80
 5905 0bab BD0B0000 		.4byte	0xbbd
 5906 0baf 12       		.uleb128 0x12
 5907 0bb0 7800     		.ascii	"x\000"
 5908 0bb2 01       		.byte	0x1
 5909 0bb3 F301     		.2byte	0x1f3
 5910 0bb5 81000000 		.4byte	0x81
 5911 0bb9 02       		.uleb128 0x2
 5912 0bba 91       		.byte	0x91
 5913 0bbb 5E       		.sleb128 -34
 5914 0bbc 00       		.byte	0
 5915 0bbd 10       		.uleb128 0x10
 5916 0bbe 34060000 		.4byte	.LBB81
 5917 0bc2 28000000 		.4byte	.LBE81-.LBB81
 5918 0bc6 D80B0000 		.4byte	0xbd8
 5919 0bca 12       		.uleb128 0x12
 5920 0bcb 7800     		.ascii	"x\000"
 5921 0bcd 01       		.byte	0x1
 5922 0bce F801     		.2byte	0x1f8
 5923 0bd0 81000000 		.4byte	0x81
 5924 0bd4 02       		.uleb128 0x2
 5925 0bd5 91       		.byte	0x91
 5926 0bd6 5D       		.sleb128 -35
 5927 0bd7 00       		.byte	0
 5928 0bd8 10       		.uleb128 0x10
 5929 0bd9 66060000 		.4byte	.LBB82
ARM GAS  C:\Users\THERMA~1\AppData\Local\Temp\cc965AVb.s 			page 123


 5930 0bdd 6E000000 		.4byte	.LBE82-.LBB82
 5931 0be1 F30B0000 		.4byte	0xbf3
 5932 0be5 12       		.uleb128 0x12
 5933 0be6 7800     		.ascii	"x\000"
 5934 0be8 01       		.byte	0x1
 5935 0be9 FC01     		.2byte	0x1fc
 5936 0beb 81000000 		.4byte	0x81
 5937 0bef 02       		.uleb128 0x2
 5938 0bf0 91       		.byte	0x91
 5939 0bf1 5C       		.sleb128 -36
 5940 0bf2 00       		.byte	0
 5941 0bf3 10       		.uleb128 0x10
 5942 0bf4 D4060000 		.4byte	.LBB83
 5943 0bf8 44000000 		.4byte	.LBE83-.LBB83
 5944 0bfc 0E0C0000 		.4byte	0xc0e
 5945 0c00 12       		.uleb128 0x12
 5946 0c01 7800     		.ascii	"x\000"
 5947 0c03 01       		.byte	0x1
 5948 0c04 FF01     		.2byte	0x1ff
 5949 0c06 81000000 		.4byte	0x81
 5950 0c0a 02       		.uleb128 0x2
 5951 0c0b 91       		.byte	0x91
 5952 0c0c 5B       		.sleb128 -37
 5953 0c0d 00       		.byte	0
 5954 0c0e 10       		.uleb128 0x10
 5955 0c0f 22070000 		.4byte	.LBB84
 5956 0c13 6E000000 		.4byte	.LBE84-.LBB84
 5957 0c17 290C0000 		.4byte	0xc29
 5958 0c1b 12       		.uleb128 0x12
 5959 0c1c 7800     		.ascii	"x\000"
 5960 0c1e 01       		.byte	0x1
 5961 0c1f 0602     		.2byte	0x206
 5962 0c21 81000000 		.4byte	0x81
 5963 0c25 02       		.uleb128 0x2
 5964 0c26 91       		.byte	0x91
 5965 0c27 5A       		.sleb128 -38
 5966 0c28 00       		.byte	0
 5967 0c29 10       		.uleb128 0x10
 5968 0c2a C0070000 		.4byte	.LBB85
 5969 0c2e 28000000 		.4byte	.LBE85-.LBB85
 5970 0c32 440C0000 		.4byte	0xc44
 5971 0c36 12       		.uleb128 0x12
 5972 0c37 7800     		.ascii	"x\000"
 5973 0c39 01       		.byte	0x1
 5974 0c3a 1102     		.2byte	0x211
 5975 0c3c 81000000 		.4byte	0x81
 5976 0c40 02       		.uleb128 0x2
 5977 0c41 91       		.byte	0x91
 5978 0c42 59       		.sleb128 -39
 5979 0c43 00       		.byte	0
 5980 0c44 10       		.uleb128 0x10
 5981 0c45 F2070000 		.4byte	.LBB86
 5982 0c49 44000000 		.4byte	.LBE86-.LBB86
 5983 0c4d 5F0C0000 		.4byte	0xc5f
 5984 0c51 12       		.uleb128 0x12
 5985 0c52 7800     		.ascii	"x\000"
 5986 0c54 01       		.byte	0x1
ARM GAS  C:\Users\THERMA~1\AppData\Local\Temp\cc965AVb.s 			page 124


 5987 0c55 1502     		.2byte	0x215
 5988 0c57 81000000 		.4byte	0x81
 5989 0c5b 02       		.uleb128 0x2
 5990 0c5c 91       		.byte	0x91
 5991 0c5d 58       		.sleb128 -40
 5992 0c5e 00       		.byte	0
 5993 0c5f 10       		.uleb128 0x10
 5994 0c60 40080000 		.4byte	.LBB87
 5995 0c64 28000000 		.4byte	.LBE87-.LBB87
 5996 0c68 7A0C0000 		.4byte	0xc7a
 5997 0c6c 12       		.uleb128 0x12
 5998 0c6d 7800     		.ascii	"x\000"
 5999 0c6f 01       		.byte	0x1
 6000 0c70 1B02     		.2byte	0x21b
 6001 0c72 81000000 		.4byte	0x81
 6002 0c76 02       		.uleb128 0x2
 6003 0c77 91       		.byte	0x91
 6004 0c78 57       		.sleb128 -41
 6005 0c79 00       		.byte	0
 6006 0c7a 10       		.uleb128 0x10
 6007 0c7b 72080000 		.4byte	.LBB88
 6008 0c7f 28000000 		.4byte	.LBE88-.LBB88
 6009 0c83 950C0000 		.4byte	0xc95
 6010 0c87 12       		.uleb128 0x12
 6011 0c88 7800     		.ascii	"x\000"
 6012 0c8a 01       		.byte	0x1
 6013 0c8b 1F02     		.2byte	0x21f
 6014 0c8d 81000000 		.4byte	0x81
 6015 0c91 02       		.uleb128 0x2
 6016 0c92 91       		.byte	0x91
 6017 0c93 56       		.sleb128 -42
 6018 0c94 00       		.byte	0
 6019 0c95 10       		.uleb128 0x10
 6020 0c96 B4080000 		.4byte	.LBB89
 6021 0c9a 28000000 		.4byte	.LBE89-.LBB89
 6022 0c9e B00C0000 		.4byte	0xcb0
 6023 0ca2 12       		.uleb128 0x12
 6024 0ca3 7800     		.ascii	"x\000"
 6025 0ca5 01       		.byte	0x1
 6026 0ca6 2402     		.2byte	0x224
 6027 0ca8 81000000 		.4byte	0x81
 6028 0cac 02       		.uleb128 0x2
 6029 0cad 91       		.byte	0x91
 6030 0cae 55       		.sleb128 -43
 6031 0caf 00       		.byte	0
 6032 0cb0 10       		.uleb128 0x10
 6033 0cb1 E6080000 		.4byte	.LBB90
 6034 0cb5 42000000 		.4byte	.LBE90-.LBB90
 6035 0cb9 CB0C0000 		.4byte	0xccb
 6036 0cbd 12       		.uleb128 0x12
 6037 0cbe 7800     		.ascii	"x\000"
 6038 0cc0 01       		.byte	0x1
 6039 0cc1 2802     		.2byte	0x228
 6040 0cc3 81000000 		.4byte	0x81
 6041 0cc7 02       		.uleb128 0x2
 6042 0cc8 91       		.byte	0x91
 6043 0cc9 54       		.sleb128 -44
ARM GAS  C:\Users\THERMA~1\AppData\Local\Temp\cc965AVb.s 			page 125


 6044 0cca 00       		.byte	0
 6045 0ccb 10       		.uleb128 0x10
 6046 0ccc 32090000 		.4byte	.LBB91
 6047 0cd0 28000000 		.4byte	.LBE91-.LBB91
 6048 0cd4 E60C0000 		.4byte	0xce6
 6049 0cd8 12       		.uleb128 0x12
 6050 0cd9 7800     		.ascii	"x\000"
 6051 0cdb 01       		.byte	0x1
 6052 0cdc 2E02     		.2byte	0x22e
 6053 0cde 81000000 		.4byte	0x81
 6054 0ce2 02       		.uleb128 0x2
 6055 0ce3 91       		.byte	0x91
 6056 0ce4 53       		.sleb128 -45
 6057 0ce5 00       		.byte	0
 6058 0ce6 10       		.uleb128 0x10
 6059 0ce7 64090000 		.4byte	.LBB92
 6060 0ceb 3C000000 		.4byte	.LBE92-.LBB92
 6061 0cef 010D0000 		.4byte	0xd01
 6062 0cf3 12       		.uleb128 0x12
 6063 0cf4 7800     		.ascii	"x\000"
 6064 0cf6 01       		.byte	0x1
 6065 0cf7 3202     		.2byte	0x232
 6066 0cf9 81000000 		.4byte	0x81
 6067 0cfd 02       		.uleb128 0x2
 6068 0cfe 91       		.byte	0x91
 6069 0cff 52       		.sleb128 -46
 6070 0d00 00       		.byte	0
 6071 0d01 10       		.uleb128 0x10
 6072 0d02 A0090000 		.4byte	.LBB93
 6073 0d06 44000000 		.4byte	.LBE93-.LBB93
 6074 0d0a 1C0D0000 		.4byte	0xd1c
 6075 0d0e 12       		.uleb128 0x12
 6076 0d0f 7800     		.ascii	"x\000"
 6077 0d11 01       		.byte	0x1
 6078 0d12 3502     		.2byte	0x235
 6079 0d14 81000000 		.4byte	0x81
 6080 0d18 02       		.uleb128 0x2
 6081 0d19 91       		.byte	0x91
 6082 0d1a 51       		.sleb128 -47
 6083 0d1b 00       		.byte	0
 6084 0d1c 10       		.uleb128 0x10
 6085 0d1d EE090000 		.4byte	.LBB94
 6086 0d21 8E000000 		.4byte	.LBE94-.LBB94
 6087 0d25 370D0000 		.4byte	0xd37
 6088 0d29 12       		.uleb128 0x12
 6089 0d2a 7800     		.ascii	"x\000"
 6090 0d2c 01       		.byte	0x1
 6091 0d2d 3B02     		.2byte	0x23b
 6092 0d2f 81000000 		.4byte	0x81
 6093 0d33 02       		.uleb128 0x2
 6094 0d34 91       		.byte	0x91
 6095 0d35 50       		.sleb128 -48
 6096 0d36 00       		.byte	0
 6097 0d37 10       		.uleb128 0x10
 6098 0d38 AC0A0000 		.4byte	.LBB95
 6099 0d3c 28000000 		.4byte	.LBE95-.LBB95
 6100 0d40 520D0000 		.4byte	0xd52
ARM GAS  C:\Users\THERMA~1\AppData\Local\Temp\cc965AVb.s 			page 126


 6101 0d44 12       		.uleb128 0x12
 6102 0d45 7800     		.ascii	"x\000"
 6103 0d47 01       		.byte	0x1
 6104 0d48 4502     		.2byte	0x245
 6105 0d4a 81000000 		.4byte	0x81
 6106 0d4e 02       		.uleb128 0x2
 6107 0d4f 91       		.byte	0x91
 6108 0d50 4F       		.sleb128 -49
 6109 0d51 00       		.byte	0
 6110 0d52 10       		.uleb128 0x10
 6111 0d53 DE0A0000 		.4byte	.LBB96
 6112 0d57 44000000 		.4byte	.LBE96-.LBB96
 6113 0d5b 6D0D0000 		.4byte	0xd6d
 6114 0d5f 12       		.uleb128 0x12
 6115 0d60 7800     		.ascii	"x\000"
 6116 0d62 01       		.byte	0x1
 6117 0d63 4902     		.2byte	0x249
 6118 0d65 81000000 		.4byte	0x81
 6119 0d69 02       		.uleb128 0x2
 6120 0d6a 91       		.byte	0x91
 6121 0d6b 4E       		.sleb128 -50
 6122 0d6c 00       		.byte	0
 6123 0d6d 10       		.uleb128 0x10
 6124 0d6e 380B0000 		.4byte	.LBB97
 6125 0d72 28000000 		.4byte	.LBE97-.LBB97
 6126 0d76 880D0000 		.4byte	0xd88
 6127 0d7a 12       		.uleb128 0x12
 6128 0d7b 7800     		.ascii	"x\000"
 6129 0d7d 01       		.byte	0x1
 6130 0d7e 5102     		.2byte	0x251
 6131 0d80 81000000 		.4byte	0x81
 6132 0d84 02       		.uleb128 0x2
 6133 0d85 91       		.byte	0x91
 6134 0d86 4D       		.sleb128 -51
 6135 0d87 00       		.byte	0
 6136 0d88 10       		.uleb128 0x10
 6137 0d89 6A0B0000 		.4byte	.LBB98
 6138 0d8d 28000000 		.4byte	.LBE98-.LBB98
 6139 0d91 A30D0000 		.4byte	0xda3
 6140 0d95 12       		.uleb128 0x12
 6141 0d96 7800     		.ascii	"x\000"
 6142 0d98 01       		.byte	0x1
 6143 0d99 5502     		.2byte	0x255
 6144 0d9b 81000000 		.4byte	0x81
 6145 0d9f 02       		.uleb128 0x2
 6146 0da0 91       		.byte	0x91
 6147 0da1 4C       		.sleb128 -52
 6148 0da2 00       		.byte	0
 6149 0da3 10       		.uleb128 0x10
 6150 0da4 AC0B0000 		.4byte	.LBB99
 6151 0da8 42000000 		.4byte	.LBE99-.LBB99
 6152 0dac BE0D0000 		.4byte	0xdbe
 6153 0db0 12       		.uleb128 0x12
 6154 0db1 7800     		.ascii	"x\000"
 6155 0db3 01       		.byte	0x1
 6156 0db4 5A02     		.2byte	0x25a
 6157 0db6 81000000 		.4byte	0x81
ARM GAS  C:\Users\THERMA~1\AppData\Local\Temp\cc965AVb.s 			page 127


 6158 0dba 02       		.uleb128 0x2
 6159 0dbb 91       		.byte	0x91
 6160 0dbc 4B       		.sleb128 -53
 6161 0dbd 00       		.byte	0
 6162 0dbe 10       		.uleb128 0x10
 6163 0dbf F80B0000 		.4byte	.LBB100
 6164 0dc3 28000000 		.4byte	.LBE100-.LBB100
 6165 0dc7 D90D0000 		.4byte	0xdd9
 6166 0dcb 12       		.uleb128 0x12
 6167 0dcc 7800     		.ascii	"x\000"
 6168 0dce 01       		.byte	0x1
 6169 0dcf 6002     		.2byte	0x260
 6170 0dd1 81000000 		.4byte	0x81
 6171 0dd5 02       		.uleb128 0x2
 6172 0dd6 91       		.byte	0x91
 6173 0dd7 4A       		.sleb128 -54
 6174 0dd8 00       		.byte	0
 6175 0dd9 10       		.uleb128 0x10
 6176 0dda 2A0C0000 		.4byte	.LBB101
 6177 0dde 28000000 		.4byte	.LBE101-.LBB101
 6178 0de2 F40D0000 		.4byte	0xdf4
 6179 0de6 12       		.uleb128 0x12
 6180 0de7 7800     		.ascii	"x\000"
 6181 0de9 01       		.byte	0x1
 6182 0dea 6402     		.2byte	0x264
 6183 0dec 81000000 		.4byte	0x81
 6184 0df0 02       		.uleb128 0x2
 6185 0df1 91       		.byte	0x91
 6186 0df2 49       		.sleb128 -55
 6187 0df3 00       		.byte	0
 6188 0df4 10       		.uleb128 0x10
 6189 0df5 5C0C0000 		.4byte	.LBB102
 6190 0df9 28000000 		.4byte	.LBE102-.LBB102
 6191 0dfd 0F0E0000 		.4byte	0xe0f
 6192 0e01 12       		.uleb128 0x12
 6193 0e02 7800     		.ascii	"x\000"
 6194 0e04 01       		.byte	0x1
 6195 0e05 6802     		.2byte	0x268
 6196 0e07 81000000 		.4byte	0x81
 6197 0e0b 02       		.uleb128 0x2
 6198 0e0c 91       		.byte	0x91
 6199 0e0d 48       		.sleb128 -56
 6200 0e0e 00       		.byte	0
 6201 0e0f 10       		.uleb128 0x10
 6202 0e10 9E0C0000 		.4byte	.LBB103
 6203 0e14 42000000 		.4byte	.LBE103-.LBB103
 6204 0e18 2A0E0000 		.4byte	0xe2a
 6205 0e1c 12       		.uleb128 0x12
 6206 0e1d 7800     		.ascii	"x\000"
 6207 0e1f 01       		.byte	0x1
 6208 0e20 6D02     		.2byte	0x26d
 6209 0e22 81000000 		.4byte	0x81
 6210 0e26 02       		.uleb128 0x2
 6211 0e27 91       		.byte	0x91
 6212 0e28 47       		.sleb128 -57
 6213 0e29 00       		.byte	0
 6214 0e2a 10       		.uleb128 0x10
ARM GAS  C:\Users\THERMA~1\AppData\Local\Temp\cc965AVb.s 			page 128


 6215 0e2b EA0C0000 		.4byte	.LBB104
 6216 0e2f 28000000 		.4byte	.LBE104-.LBB104
 6217 0e33 450E0000 		.4byte	0xe45
 6218 0e37 12       		.uleb128 0x12
 6219 0e38 7800     		.ascii	"x\000"
 6220 0e3a 01       		.byte	0x1
 6221 0e3b 7302     		.2byte	0x273
 6222 0e3d 81000000 		.4byte	0x81
 6223 0e41 02       		.uleb128 0x2
 6224 0e42 91       		.byte	0x91
 6225 0e43 46       		.sleb128 -58
 6226 0e44 00       		.byte	0
 6227 0e45 10       		.uleb128 0x10
 6228 0e46 120D0000 		.4byte	.LBB105
 6229 0e4a 28000000 		.4byte	.LBE105-.LBB105
 6230 0e4e 600E0000 		.4byte	0xe60
 6231 0e52 12       		.uleb128 0x12
 6232 0e53 7800     		.ascii	"x\000"
 6233 0e55 01       		.byte	0x1
 6234 0e56 7702     		.2byte	0x277
 6235 0e58 81000000 		.4byte	0x81
 6236 0e5c 02       		.uleb128 0x2
 6237 0e5d 91       		.byte	0x91
 6238 0e5e 45       		.sleb128 -59
 6239 0e5f 00       		.byte	0
 6240 0e60 10       		.uleb128 0x10
 6241 0e61 440D0000 		.4byte	.LBB106
 6242 0e65 48000000 		.4byte	.LBE106-.LBB106
 6243 0e69 7B0E0000 		.4byte	0xe7b
 6244 0e6d 12       		.uleb128 0x12
 6245 0e6e 7800     		.ascii	"x\000"
 6246 0e70 01       		.byte	0x1
 6247 0e71 7D02     		.2byte	0x27d
 6248 0e73 81000000 		.4byte	0x81
 6249 0e77 02       		.uleb128 0x2
 6250 0e78 91       		.byte	0x91
 6251 0e79 44       		.sleb128 -60
 6252 0e7a 00       		.byte	0
 6253 0e7b 10       		.uleb128 0x10
 6254 0e7c 960D0000 		.4byte	.LBB107
 6255 0e80 28000000 		.4byte	.LBE107-.LBB107
 6256 0e84 960E0000 		.4byte	0xe96
 6257 0e88 12       		.uleb128 0x12
 6258 0e89 7800     		.ascii	"x\000"
 6259 0e8b 01       		.byte	0x1
 6260 0e8c 8102     		.2byte	0x281
 6261 0e8e 81000000 		.4byte	0x81
 6262 0e92 02       		.uleb128 0x2
 6263 0e93 91       		.byte	0x91
 6264 0e94 43       		.sleb128 -61
 6265 0e95 00       		.byte	0
 6266 0e96 10       		.uleb128 0x10
 6267 0e97 C80D0000 		.4byte	.LBB108
 6268 0e9b 28000000 		.4byte	.LBE108-.LBB108
 6269 0e9f B10E0000 		.4byte	0xeb1
 6270 0ea3 12       		.uleb128 0x12
 6271 0ea4 7800     		.ascii	"x\000"
ARM GAS  C:\Users\THERMA~1\AppData\Local\Temp\cc965AVb.s 			page 129


 6272 0ea6 01       		.byte	0x1
 6273 0ea7 8502     		.2byte	0x285
 6274 0ea9 81000000 		.4byte	0x81
 6275 0ead 02       		.uleb128 0x2
 6276 0eae 91       		.byte	0x91
 6277 0eaf 42       		.sleb128 -62
 6278 0eb0 00       		.byte	0
 6279 0eb1 10       		.uleb128 0x10
 6280 0eb2 220E0000 		.4byte	.LBB109
 6281 0eb6 38000000 		.4byte	.LBE109-.LBB109
 6282 0eba CC0E0000 		.4byte	0xecc
 6283 0ebe 12       		.uleb128 0x12
 6284 0ebf 7800     		.ascii	"x\000"
 6285 0ec1 01       		.byte	0x1
 6286 0ec2 8D02     		.2byte	0x28d
 6287 0ec4 81000000 		.4byte	0x81
 6288 0ec8 02       		.uleb128 0x2
 6289 0ec9 91       		.byte	0x91
 6290 0eca 41       		.sleb128 -63
 6291 0ecb 00       		.byte	0
 6292 0ecc 13       		.uleb128 0x13
 6293 0ecd 5A0E0000 		.4byte	.LBB110
 6294 0ed1 38000000 		.4byte	.LBE110-.LBB110
 6295 0ed5 12       		.uleb128 0x12
 6296 0ed6 7800     		.ascii	"x\000"
 6297 0ed8 01       		.byte	0x1
 6298 0ed9 9002     		.2byte	0x290
 6299 0edb 81000000 		.4byte	0x81
 6300 0edf 02       		.uleb128 0x2
 6301 0ee0 91       		.byte	0x91
 6302 0ee1 40       		.sleb128 -64
 6303 0ee2 00       		.byte	0
 6304 0ee3 00       		.byte	0
 6305 0ee4 0A       		.uleb128 0xa
 6306 0ee5 BF000000 		.4byte	0xbf
 6307 0ee9 F40E0000 		.4byte	0xef4
 6308 0eed 0B       		.uleb128 0xb
 6309 0eee D9000000 		.4byte	0xd9
 6310 0ef2 09       		.byte	0x9
 6311 0ef3 00       		.byte	0
 6312 0ef4 16       		.uleb128 0x16
 6313 0ef5 85030000 		.4byte	.LASF49
 6314 0ef9 06       		.byte	0x6
 6315 0efa 1207     		.2byte	0x712
 6316 0efc 000F0000 		.4byte	0xf00
 6317 0f00 17       		.uleb128 0x17
 6318 0f01 76000000 		.4byte	0x76
 6319 0f05 18       		.uleb128 0x18
 6320 0f06 D8020000 		.4byte	.LASF50
 6321 0f0a 05       		.byte	0x5
 6322 0f0b 10       		.byte	0x10
 6323 0f0c 8D000000 		.4byte	0x8d
 6324 0f10 05       		.uleb128 0x5
 6325 0f11 03       		.byte	0x3
 6326 0f12 00000000 		.4byte	PollCounter
 6327 0f16 18       		.uleb128 0x18
 6328 0f17 33030000 		.4byte	.LASF51
ARM GAS  C:\Users\THERMA~1\AppData\Local\Temp\cc965AVb.s 			page 130


 6329 0f1b 05       		.byte	0x5
 6330 0f1c 11       		.byte	0x11
 6331 0f1d 81000000 		.4byte	0x81
 6332 0f21 05       		.uleb128 0x5
 6333 0f22 03       		.byte	0x3
 6334 0f23 00000000 		.4byte	CurrentState
 6335 0f27 18       		.uleb128 0x18
 6336 0f28 28010000 		.4byte	.LASF52
 6337 0f2c 05       		.byte	0x5
 6338 0f2d 12       		.byte	0x12
 6339 0f2e 81000000 		.4byte	0x81
 6340 0f32 05       		.uleb128 0x5
 6341 0f33 03       		.byte	0x3
 6342 0f34 00000000 		.4byte	Receipt
 6343 0f38 0A       		.uleb128 0xa
 6344 0f39 81000000 		.4byte	0x81
 6345 0f3d 480F0000 		.4byte	0xf48
 6346 0f41 0B       		.uleb128 0xb
 6347 0f42 D9000000 		.4byte	0xd9
 6348 0f46 05       		.byte	0x5
 6349 0f47 00       		.byte	0
 6350 0f48 18       		.uleb128 0x18
 6351 0f49 2F000000 		.4byte	.LASF53
 6352 0f4d 05       		.byte	0x5
 6353 0f4e 13       		.byte	0x13
 6354 0f4f 380F0000 		.4byte	0xf38
 6355 0f53 05       		.uleb128 0x5
 6356 0f54 03       		.byte	0x3
 6357 0f55 00000000 		.4byte	sale_number
 6358 0f59 18       		.uleb128 0x18
 6359 0f5a 13000000 		.4byte	.LASF54
 6360 0f5e 05       		.byte	0x5
 6361 0f5f 14       		.byte	0x14
 6362 0f60 81000000 		.4byte	0x81
 6363 0f64 05       		.uleb128 0x5
 6364 0f65 03       		.byte	0x3
 6365 0f66 00000000 		.4byte	int_salenumber
 6366 0f6a 18       		.uleb128 0x18
 6367 0f6b 77040000 		.4byte	.LASF55
 6368 0f6f 05       		.byte	0x5
 6369 0f70 15       		.byte	0x15
 6370 0f71 380F0000 		.4byte	0xf38
 6371 0f75 05       		.uleb128 0x5
 6372 0f76 03       		.byte	0x3
 6373 0f77 00000000 		.4byte	shift_number
 6374 0f7b 18       		.uleb128 0x18
 6375 0f7c 08020000 		.4byte	.LASF56
 6376 0f80 05       		.byte	0x5
 6377 0f81 16       		.byte	0x16
 6378 0f82 81000000 		.4byte	0x81
 6379 0f86 05       		.uleb128 0x5
 6380 0f87 03       		.byte	0x3
 6381 0f88 00000000 		.4byte	int_shiftnumber
 6382 0f8c 18       		.uleb128 0x18
 6383 0f8d 18020000 		.4byte	.LASF57
 6384 0f91 05       		.byte	0x5
 6385 0f92 17       		.byte	0x17
ARM GAS  C:\Users\THERMA~1\AppData\Local\Temp\cc965AVb.s 			page 131


 6386 0f93 81000000 		.4byte	0x81
 6387 0f97 05       		.uleb128 0x5
 6388 0f98 03       		.byte	0x3
 6389 0f99 00000000 		.4byte	LCDhose
 6390 0f9d 18       		.uleb128 0x18
 6391 0f9e DA000000 		.4byte	.LASF58
 6392 0fa2 05       		.byte	0x5
 6393 0fa3 3C       		.byte	0x3c
 6394 0fa4 67020000 		.4byte	0x267
 6395 0fa8 05       		.uleb128 0x5
 6396 0fa9 03       		.byte	0x3
 6397 0faa 00000000 		.4byte	side
 6398 0fae 18       		.uleb128 0x18
 6399 0faf E5030000 		.4byte	.LASF59
 6400 0fb3 05       		.byte	0x5
 6401 0fb4 45       		.byte	0x45
 6402 0fb5 15020000 		.4byte	0x215
 6403 0fb9 05       		.uleb128 0x5
 6404 0fba 03       		.byte	0x3
 6405 0fbb 00000000 		.4byte	MepsanResponse
 6406 0fbf 18       		.uleb128 0x18
 6407 0fc0 0F030000 		.4byte	.LASF60
 6408 0fc4 05       		.byte	0x5
 6409 0fc5 46       		.byte	0x46
 6410 0fc6 15020000 		.4byte	0x215
 6411 0fca 05       		.uleb128 0x5
 6412 0fcb 03       		.byte	0x3
 6413 0fcc 00000000 		.4byte	MepsanSendTo
 6414 0fd0 0A       		.uleb128 0xa
 6415 0fd1 81000000 		.4byte	0x81
 6416 0fd5 E00F0000 		.4byte	0xfe0
 6417 0fd9 0B       		.uleb128 0xb
 6418 0fda D9000000 		.4byte	0xd9
 6419 0fde 0E       		.byte	0xe
 6420 0fdf 00       		.byte	0
 6421 0fe0 18       		.uleb128 0x18
 6422 0fe1 07000000 		.4byte	.LASF61
 6423 0fe5 05       		.byte	0x5
 6424 0fe6 47       		.byte	0x47
 6425 0fe7 D00F0000 		.4byte	0xfd0
 6426 0feb 05       		.uleb128 0x5
 6427 0fec 03       		.byte	0x3
 6428 0fed 00000000 		.4byte	PumpAddress
 6429 0ff1 19       		.uleb128 0x19
 6430 0ff2 43524300 		.ascii	"CRC\000"
 6431 0ff6 05       		.byte	0x5
 6432 0ff7 48       		.byte	0x48
 6433 0ff8 8D000000 		.4byte	0x8d
 6434 0ffc 05       		.uleb128 0x5
 6435 0ffd 03       		.byte	0x3
 6436 0ffe 00000000 		.4byte	CRC
 6437 1002 18       		.uleb128 0x18
 6438 1003 D1030000 		.4byte	.LASF62
 6439 1007 05       		.byte	0x5
 6440 1008 49       		.byte	0x49
 6441 1009 81000000 		.4byte	0x81
 6442 100d 05       		.uleb128 0x5
ARM GAS  C:\Users\THERMA~1\AppData\Local\Temp\cc965AVb.s 			page 132


 6443 100e 03       		.byte	0x3
 6444 100f 00000000 		.4byte	crc_lo
 6445 1013 18       		.uleb128 0x18
 6446 1014 75030000 		.4byte	.LASF63
 6447 1018 05       		.byte	0x5
 6448 1019 49       		.byte	0x49
 6449 101a 81000000 		.4byte	0x81
 6450 101e 05       		.uleb128 0x5
 6451 101f 03       		.byte	0x3
 6452 1020 00000000 		.4byte	crc_hi
 6453 1024 18       		.uleb128 0x18
 6454 1025 A1020000 		.4byte	.LASF64
 6455 1029 05       		.byte	0x5
 6456 102a 4A       		.byte	0x4a
 6457 102b 81000000 		.4byte	0x81
 6458 102f 05       		.uleb128 0x5
 6459 1030 03       		.byte	0x3
 6460 1031 00000000 		.4byte	Positions
 6461 1035 18       		.uleb128 0x18
 6462 1036 B3010000 		.4byte	.LASF65
 6463 103a 05       		.byte	0x5
 6464 103b 4B       		.byte	0x4b
 6465 103c 81000000 		.4byte	0x81
 6466 1040 05       		.uleb128 0x5
 6467 1041 03       		.byte	0x3
 6468 1042 00000000 		.4byte	TotalRequestType
 6469 1046 18       		.uleb128 0x18
 6470 1047 45000000 		.4byte	.LASF66
 6471 104b 05       		.byte	0x5
 6472 104c 4C       		.byte	0x4c
 6473 104d 81000000 		.4byte	0x81
 6474 1051 05       		.uleb128 0x5
 6475 1052 03       		.byte	0x3
 6476 1053 00000000 		.4byte	DecVol
 6477 1057 0A       		.uleb128 0xa
 6478 1058 81000000 		.4byte	0x81
 6479 105c 67100000 		.4byte	0x1067
 6480 1060 0B       		.uleb128 0xb
 6481 1061 D9000000 		.4byte	0xd9
 6482 1065 13       		.byte	0x13
 6483 1066 00       		.byte	0
 6484 1067 18       		.uleb128 0x18
 6485 1068 B0030000 		.4byte	.LASF67
 6486 106c 05       		.byte	0x5
 6487 106d 55       		.byte	0x55
 6488 106e 57100000 		.4byte	0x1057
 6489 1072 05       		.uleb128 0x5
 6490 1073 03       		.byte	0x3
 6491 1074 00000000 		.4byte	touch1
 6492 1078 18       		.uleb128 0x18
 6493 1079 B4050000 		.4byte	.LASF68
 6494 107d 05       		.byte	0x5
 6495 107e 5E       		.byte	0x5e
 6496 107f 81000000 		.4byte	0x81
 6497 1083 05       		.uleb128 0x5
 6498 1084 03       		.byte	0x3
 6499 1085 00000000 		.4byte	dirGbr
ARM GAS  C:\Users\THERMA~1\AppData\Local\Temp\cc965AVb.s 			page 133


 6500 1089 18       		.uleb128 0x18
 6501 108a 84040000 		.4byte	.LASF69
 6502 108e 01       		.byte	0x1
 6503 108f 12       		.byte	0x12
 6504 1090 81000000 		.4byte	0x81
 6505 1094 05       		.uleb128 0x5
 6506 1095 03       		.byte	0x3
 6507 1096 00000000 		.4byte	LINE_FEED
 6508 109a 0A       		.uleb128 0xa
 6509 109b CB000000 		.4byte	0xcb
 6510 109f AA100000 		.4byte	0x10aa
 6511 10a3 0B       		.uleb128 0xb
 6512 10a4 D9000000 		.4byte	0xd9
 6513 10a8 00       		.byte	0
 6514 10a9 00       		.byte	0
 6515 10aa 18       		.uleb128 0x18
 6516 10ab C8050000 		.4byte	.LASF70
 6517 10af 01       		.byte	0x1
 6518 10b0 13       		.byte	0x13
 6519 10b1 9A100000 		.4byte	0x109a
 6520 10b5 05       		.uleb128 0x5
 6521 10b6 03       		.byte	0x3
 6522 10b7 00000000 		.4byte	VolSimbol
 6523 10bb 0A       		.uleb128 0xa
 6524 10bc 81000000 		.4byte	0x81
 6525 10c0 CB100000 		.4byte	0x10cb
 6526 10c4 0B       		.uleb128 0xb
 6527 10c5 D9000000 		.4byte	0xd9
 6528 10c9 15       		.byte	0x15
 6529 10ca 00       		.byte	0
 6530 10cb 18       		.uleb128 0x18
 6531 10cc 94010000 		.4byte	.LASF71
 6532 10d0 01       		.byte	0x1
 6533 10d1 17       		.byte	0x17
 6534 10d2 BB100000 		.4byte	0x10bb
 6535 10d6 05       		.uleb128 0x5
 6536 10d7 03       		.byte	0x3
 6537 10d8 00000000 		.4byte	msn_EDS
 6538 10dc 18       		.uleb128 0x18
 6539 10dd 6F050000 		.4byte	.LASF72
 6540 10e1 01       		.byte	0x1
 6541 10e2 18       		.byte	0x18
 6542 10e3 BB100000 		.4byte	0x10bb
 6543 10e7 05       		.uleb128 0x5
 6544 10e8 03       		.byte	0x3
 6545 10e9 00000000 		.4byte	msn_EDS2
 6546 10ed 18       		.uleb128 0x18
 6547 10ee 78050000 		.4byte	.LASF73
 6548 10f2 01       		.byte	0x1
 6549 10f3 19       		.byte	0x19
 6550 10f4 BB100000 		.4byte	0x10bb
 6551 10f8 05       		.uleb128 0x5
 6552 10f9 03       		.byte	0x3
 6553 10fa 00000000 		.4byte	msn_EDS3
 6554 10fe 18       		.uleb128 0x18
 6555 10ff 81050000 		.4byte	.LASF74
 6556 1103 01       		.byte	0x1
ARM GAS  C:\Users\THERMA~1\AppData\Local\Temp\cc965AVb.s 			page 134


 6557 1104 1A       		.byte	0x1a
 6558 1105 BB100000 		.4byte	0x10bb
 6559 1109 05       		.uleb128 0x5
 6560 110a 03       		.byte	0x3
 6561 110b 00000000 		.4byte	msn_EDS4
 6562 110f 18       		.uleb128 0x18
 6563 1110 8A050000 		.4byte	.LASF75
 6564 1114 01       		.byte	0x1
 6565 1115 1B       		.byte	0x1b
 6566 1116 BB100000 		.4byte	0x10bb
 6567 111a 05       		.uleb128 0x5
 6568 111b 03       		.byte	0x3
 6569 111c 00000000 		.4byte	msn_EDS5
 6570 1120 18       		.uleb128 0x18
 6571 1121 93050000 		.4byte	.LASF76
 6572 1125 01       		.byte	0x1
 6573 1126 1C       		.byte	0x1c
 6574 1127 BB100000 		.4byte	0x10bb
 6575 112b 05       		.uleb128 0x5
 6576 112c 03       		.byte	0x3
 6577 112d 00000000 		.4byte	msn_EDS6
 6578 1131 18       		.uleb128 0x18
 6579 1132 CA040000 		.4byte	.LASF77
 6580 1136 01       		.byte	0x1
 6581 1137 1D       		.byte	0x1d
 6582 1138 BB100000 		.4byte	0x10bb
 6583 113c 05       		.uleb128 0x5
 6584 113d 03       		.byte	0x3
 6585 113e 00000000 		.4byte	msn_EDS7
 6586 1142 18       		.uleb128 0x18
 6587 1143 6C040000 		.4byte	.LASF78
 6588 1147 01       		.byte	0x1
 6589 1148 1E       		.byte	0x1e
 6590 1149 BB100000 		.4byte	0x10bb
 6591 114d 05       		.uleb128 0x5
 6592 114e 03       		.byte	0x3
 6593 114f 00000000 		.4byte	msn_footer
 6594 1153 18       		.uleb128 0x18
 6595 1154 DF000000 		.4byte	.LASF79
 6596 1158 01       		.byte	0x1
 6597 1159 1F       		.byte	0x1f
 6598 115a BB100000 		.4byte	0x10bb
 6599 115e 05       		.uleb128 0x5
 6600 115f 03       		.byte	0x3
 6601 1160 00000000 		.4byte	msn_footer2
 6602 1164 0A       		.uleb128 0xa
 6603 1165 81000000 		.4byte	0x81
 6604 1169 74110000 		.4byte	0x1174
 6605 116d 0B       		.uleb128 0xb
 6606 116e D9000000 		.4byte	0xd9
 6607 1172 08       		.byte	0x8
 6608 1173 00       		.byte	0
 6609 1174 18       		.uleb128 0x18
 6610 1175 1C030000 		.4byte	.LASF80
 6611 1179 01       		.byte	0x1
 6612 117a 20       		.byte	0x20
 6613 117b 64110000 		.4byte	0x1164
ARM GAS  C:\Users\THERMA~1\AppData\Local\Temp\cc965AVb.s 			page 135


 6614 117f 05       		.uleb128 0x5
 6615 1180 03       		.byte	0x3
 6616 1181 00000000 		.4byte	msn_diesel
 6617 1185 18       		.uleb128 0x18
 6618 1186 AB020000 		.4byte	.LASF81
 6619 118a 01       		.byte	0x1
 6620 118b 21       		.byte	0x21
 6621 118c 64110000 		.4byte	0x1164
 6622 1190 05       		.uleb128 0x5
 6623 1191 03       		.byte	0x3
 6624 1192 00000000 		.4byte	msn_gasoline
 6625 1196 0A       		.uleb128 0xa
 6626 1197 81000000 		.4byte	0x81
 6627 119b A6110000 		.4byte	0x11a6
 6628 119f 0B       		.uleb128 0xb
 6629 11a0 D9000000 		.4byte	0xd9
 6630 11a4 0C       		.byte	0xc
 6631 11a5 00       		.byte	0
 6632 11a6 18       		.uleb128 0x18
 6633 11a7 2B040000 		.4byte	.LASF82
 6634 11ab 01       		.byte	0x1
 6635 11ac 25       		.byte	0x25
 6636 11ad 96110000 		.4byte	0x1196
 6637 11b1 05       		.uleb128 0x5
 6638 11b2 03       		.byte	0x3
 6639 11b3 00000000 		.4byte	msn_fecha
 6640 11b7 18       		.uleb128 0x18
 6641 11b8 9C010000 		.4byte	.LASF83
 6642 11bc 01       		.byte	0x1
 6643 11bd 26       		.byte	0x26
 6644 11be 96110000 		.4byte	0x1196
 6645 11c2 05       		.uleb128 0x5
 6646 11c3 03       		.byte	0x3
 6647 11c4 00000000 		.4byte	msn_hora
 6648 11c8 18       		.uleb128 0x18
 6649 11c9 64010000 		.4byte	.LASF84
 6650 11cd 01       		.byte	0x1
 6651 11ce 27       		.byte	0x27
 6652 11cf 96110000 		.4byte	0x1196
 6653 11d3 05       		.uleb128 0x5
 6654 11d4 03       		.byte	0x3
 6655 11d5 00000000 		.4byte	msn_placa
 6656 11d9 18       		.uleb128 0x18
 6657 11da 2A020000 		.4byte	.LASF85
 6658 11de 01       		.byte	0x1
 6659 11df 28       		.byte	0x28
 6660 11e0 96110000 		.4byte	0x1196
 6661 11e4 05       		.uleb128 0x5
 6662 11e5 03       		.byte	0x3
 6663 11e6 00000000 		.4byte	PRN_MILLEAGE
 6664 11ea 18       		.uleb128 0x18
 6665 11eb A5010000 		.4byte	.LASF86
 6666 11ef 01       		.byte	0x1
 6667 11f0 29       		.byte	0x29
 6668 11f1 96110000 		.4byte	0x1196
 6669 11f5 05       		.uleb128 0x5
 6670 11f6 03       		.byte	0x3
ARM GAS  C:\Users\THERMA~1\AppData\Local\Temp\cc965AVb.s 			page 136


 6671 11f7 00000000 		.4byte	PRN_TRANSTYPE
 6672 11fb 18       		.uleb128 0x18
 6673 11fc FF000000 		.4byte	.LASF87
 6674 1200 01       		.byte	0x1
 6675 1201 2A       		.byte	0x2a
 6676 1202 96110000 		.4byte	0x1196
 6677 1206 05       		.uleb128 0x5
 6678 1207 03       		.byte	0x3
 6679 1208 00000000 		.4byte	msn_pos
 6680 120c 18       		.uleb128 0x18
 6681 120d F4030000 		.4byte	.LASF88
 6682 1211 01       		.byte	0x1
 6683 1212 2B       		.byte	0x2b
 6684 1213 96110000 		.4byte	0x1196
 6685 1217 05       		.uleb128 0x5
 6686 1218 03       		.byte	0x3
 6687 1219 00000000 		.4byte	msn_product
 6688 121d 18       		.uleb128 0x18
 6689 121e 5C010000 		.4byte	.LASF89
 6690 1222 01       		.byte	0x1
 6691 1223 2C       		.byte	0x2c
 6692 1224 96110000 		.4byte	0x1196
 6693 1228 05       		.uleb128 0x5
 6694 1229 03       		.byte	0x3
 6695 122a 00000000 		.4byte	msn_ppu
 6696 122e 18       		.uleb128 0x18
 6697 122f F9020000 		.4byte	.LASF90
 6698 1233 01       		.byte	0x1
 6699 1234 2D       		.byte	0x2d
 6700 1235 96110000 		.4byte	0x1196
 6701 1239 05       		.uleb128 0x5
 6702 123a 03       		.byte	0x3
 6703 123b 00000000 		.4byte	msn_vol
 6704 123f 18       		.uleb128 0x18
 6705 1240 90020000 		.4byte	.LASF91
 6706 1244 01       		.byte	0x1
 6707 1245 2E       		.byte	0x2e
 6708 1246 96110000 		.4byte	0x1196
 6709 124a 05       		.uleb128 0x5
 6710 124b 03       		.byte	0x3
 6711 124c 00000000 		.4byte	msn_voltot
 6712 1250 18       		.uleb128 0x18
 6713 1251 E3050000 		.4byte	.LASF92
 6714 1255 01       		.byte	0x1
 6715 1256 2F       		.byte	0x2f
 6716 1257 96110000 		.4byte	0x1196
 6717 125b 05       		.uleb128 0x5
 6718 125c 03       		.byte	0x3
 6719 125d 00000000 		.4byte	msn_din
 6720 1261 18       		.uleb128 0x18
 6721 1262 55020000 		.4byte	.LASF93
 6722 1266 01       		.byte	0x1
 6723 1267 30       		.byte	0x30
 6724 1268 96110000 		.4byte	0x1196
 6725 126c 05       		.uleb128 0x5
 6726 126d 03       		.byte	0x3
 6727 126e 00000000 		.4byte	msn_cierre
ARM GAS  C:\Users\THERMA~1\AppData\Local\Temp\cc965AVb.s 			page 137


 6728 1272 18       		.uleb128 0x18
 6729 1273 20020000 		.4byte	.LASF94
 6730 1277 01       		.byte	0x1
 6731 1278 31       		.byte	0x31
 6732 1279 96110000 		.4byte	0x1196
 6733 127d 05       		.uleb128 0x5
 6734 127e 03       		.byte	0x3
 6735 127f 00000000 		.4byte	msn_venta
 6736 1283 18       		.uleb128 0x18
 6737 1284 37020000 		.4byte	.LASF95
 6738 1288 01       		.byte	0x1
 6739 1289 32       		.byte	0x32
 6740 128a 96110000 		.4byte	0x1196
 6741 128e 05       		.uleb128 0x5
 6742 128f 03       		.byte	0x3
 6743 1290 00000000 		.4byte	msn_numero
 6744 1294 18       		.uleb128 0x18
 6745 1295 B4040000 		.4byte	.LASF96
 6746 1299 01       		.byte	0x1
 6747 129a 33       		.byte	0x33
 6748 129b 96110000 		.4byte	0x1196
 6749 129f 05       		.uleb128 0x5
 6750 12a0 03       		.byte	0x3
 6751 12a1 00000000 		.4byte	PRN_BALANCE
 6752 12a5 18       		.uleb128 0x18
 6753 12a6 8E040000 		.4byte	.LASF97
 6754 12aa 01       		.byte	0x1
 6755 12ab 34       		.byte	0x34
 6756 12ac 96110000 		.4byte	0x1196
 6757 12b0 05       		.uleb128 0x5
 6758 12b1 03       		.byte	0x3
 6759 12b2 00000000 		.4byte	PRN_COMPANY
 6760 12b6 18       		.uleb128 0x18
 6761 12b7 D9010000 		.4byte	.LASF98
 6762 12bb 01       		.byte	0x1
 6763 12bc 35       		.byte	0x35
 6764 12bd 96110000 		.4byte	0x1196
 6765 12c1 05       		.uleb128 0x5
 6766 12c2 03       		.byte	0x3
 6767 12c3 00000000 		.4byte	PRN_ACCOUNT
 6768 12c7 18       		.uleb128 0x18
 6769 12c8 A9050000 		.4byte	.LASF99
 6770 12cc 01       		.byte	0x1
 6771 12cd 36       		.byte	0x36
 6772 12ce 96110000 		.4byte	0x1196
 6773 12d2 05       		.uleb128 0x5
 6774 12d3 03       		.byte	0x3
 6775 12d4 00000000 		.4byte	PRN_SERIAL
 6776 12d8 18       		.uleb128 0x18
 6777 12d9 4C030000 		.4byte	.LASF100
 6778 12dd 01       		.byte	0x1
 6779 12de 37       		.byte	0x37
 6780 12df 96110000 		.4byte	0x1196
 6781 12e3 05       		.uleb128 0x5
 6782 12e4 03       		.byte	0x3
 6783 12e5 00000000 		.4byte	PRN_ACCOUNTTYPE
 6784 12e9 18       		.uleb128 0x18
ARM GAS  C:\Users\THERMA~1\AppData\Local\Temp\cc965AVb.s 			page 138


 6785 12ea 76020000 		.4byte	.LASF101
 6786 12ee 01       		.byte	0x1
 6787 12ef 38       		.byte	0x38
 6788 12f0 96110000 		.4byte	0x1196
 6789 12f4 05       		.uleb128 0x5
 6790 12f5 03       		.byte	0x3
 6791 12f6 00000000 		.4byte	PRN_VISITSDAY
 6792 12fa 18       		.uleb128 0x18
 6793 12fb 5C030000 		.4byte	.LASF102
 6794 12ff 01       		.byte	0x1
 6795 1300 39       		.byte	0x39
 6796 1301 96110000 		.4byte	0x1196
 6797 1305 05       		.uleb128 0x5
 6798 1306 03       		.byte	0x3
 6799 1307 00000000 		.4byte	PRN_VISITSWEEK
 6800 130b 18       		.uleb128 0x18
 6801 130c 4E040000 		.4byte	.LASF103
 6802 1310 01       		.byte	0x1
 6803 1311 3A       		.byte	0x3a
 6804 1312 96110000 		.4byte	0x1196
 6805 1316 05       		.uleb128 0x5
 6806 1317 03       		.byte	0x3
 6807 1318 00000000 		.4byte	PRN_VISITSMONTH
 6808 131c 18       		.uleb128 0x18
 6809 131d E5010000 		.4byte	.LASF104
 6810 1321 01       		.byte	0x1
 6811 1322 3B       		.byte	0x3b
 6812 1323 96110000 		.4byte	0x1196
 6813 1327 05       		.uleb128 0x5
 6814 1328 03       		.byte	0x3
 6815 1329 00000000 		.4byte	PRN_VOLUMEDAY
 6816 132d 18       		.uleb128 0x18
 6817 132e 6E010000 		.4byte	.LASF105
 6818 1332 01       		.byte	0x1
 6819 1333 3C       		.byte	0x3c
 6820 1334 96110000 		.4byte	0x1196
 6821 1338 05       		.uleb128 0x5
 6822 1339 03       		.byte	0x3
 6823 133a 00000000 		.4byte	PRN_VOLUMEWEEK
 6824 133e 18       		.uleb128 0x18
 6825 133f 3B010000 		.4byte	.LASF106
 6826 1343 01       		.byte	0x1
 6827 1344 3D       		.byte	0x3d
 6828 1345 96110000 		.4byte	0x1196
 6829 1349 05       		.uleb128 0x5
 6830 134a 03       		.byte	0x3
 6831 134b 00000000 		.4byte	PRN_VOLUMEMONTH
 6832 134f 18       		.uleb128 0x18
 6833 1350 C4030000 		.4byte	.LASF107
 6834 1354 01       		.byte	0x1
 6835 1355 3E       		.byte	0x3e
 6836 1356 96110000 		.4byte	0x1196
 6837 135a 05       		.uleb128 0x5
 6838 135b 03       		.byte	0x3
 6839 135c 00000000 		.4byte	PRN_MONEYDAY
 6840 1360 18       		.uleb128 0x18
 6841 1361 55050000 		.4byte	.LASF108
ARM GAS  C:\Users\THERMA~1\AppData\Local\Temp\cc965AVb.s 			page 139


 6842 1365 01       		.byte	0x1
 6843 1366 3F       		.byte	0x3f
 6844 1367 96110000 		.4byte	0x1196
 6845 136b 05       		.uleb128 0x5
 6846 136c 03       		.byte	0x3
 6847 136d 00000000 		.4byte	PRN_MONEYWEEK
 6848 1371 18       		.uleb128 0x18
 6849 1372 CA010000 		.4byte	.LASF109
 6850 1376 01       		.byte	0x1
 6851 1377 40       		.byte	0x40
 6852 1378 96110000 		.4byte	0x1196
 6853 137c 05       		.uleb128 0x5
 6854 137d 03       		.byte	0x3
 6855 137e 00000000 		.4byte	PRN_MONEYMONTH
 6856 1382 18       		.uleb128 0x18
 6857 1383 30010000 		.4byte	.LASF110
 6858 1387 01       		.byte	0x1
 6859 1388 41       		.byte	0x41
 6860 1389 96110000 		.4byte	0x1196
 6861 138d 05       		.uleb128 0x5
 6862 138e 03       		.byte	0x3
 6863 138f 00000000 		.4byte	PRN_PRESET
 6864 1393 18       		.uleb128 0x18
 6865 1394 47050000 		.4byte	.LASF111
 6866 1398 01       		.byte	0x1
 6867 1399 42       		.byte	0x42
 6868 139a 96110000 		.4byte	0x1196
 6869 139e 05       		.uleb128 0x5
 6870 139f 03       		.byte	0x3
 6871 13a0 00000000 		.4byte	PRN_SIGNATURE
 6872 13a4 18       		.uleb128 0x18
 6873 13a5 E7040000 		.4byte	.LASF112
 6874 13a9 01       		.byte	0x1
 6875 13aa 43       		.byte	0x43
 6876 13ab 96110000 		.4byte	0x1196
 6877 13af 05       		.uleb128 0x5
 6878 13b0 03       		.byte	0x3
 6879 13b1 00000000 		.4byte	PRN_ID
 6880 13b5 0A       		.uleb128 0xa
 6881 13b6 81000000 		.4byte	0x81
 6882 13ba C5130000 		.4byte	0x13c5
 6883 13be 0B       		.uleb128 0xb
 6884 13bf D9000000 		.4byte	0xd9
 6885 13c3 00       		.byte	0
 6886 13c4 00       		.byte	0
 6887 13c5 18       		.uleb128 0x18
 6888 13c6 BB050000 		.4byte	.LASF113
 6889 13ca 01       		.byte	0x1
 6890 13cb 44       		.byte	0x44
 6891 13cc B5130000 		.4byte	0x13b5
 6892 13d0 05       		.uleb128 0x5
 6893 13d1 03       		.byte	0x3
 6894 13d2 00000000 		.4byte	PRN_CURRENCY
 6895 13d6 0A       		.uleb128 0xa
 6896 13d7 81000000 		.4byte	0x81
 6897 13db E6130000 		.4byte	0x13e6
 6898 13df 0B       		.uleb128 0xb
ARM GAS  C:\Users\THERMA~1\AppData\Local\Temp\cc965AVb.s 			page 140


 6899 13e0 D9000000 		.4byte	0xd9
 6900 13e4 0F       		.byte	0xf
 6901 13e5 00       		.byte	0
 6902 13e6 18       		.uleb128 0x18
 6903 13e7 FD010000 		.4byte	.LASF114
 6904 13eb 01       		.byte	0x1
 6905 13ec 45       		.byte	0x45
 6906 13ed D6130000 		.4byte	0x13d6
 6907 13f1 05       		.uleb128 0x5
 6908 13f2 03       		.byte	0x3
 6909 13f3 00000000 		.4byte	msn_lecact
 6910 13f7 18       		.uleb128 0x18
 6911 13f8 51010000 		.4byte	.LASF115
 6912 13fc 01       		.byte	0x1
 6913 13fd 46       		.byte	0x46
 6914 13fe D6130000 		.4byte	0x13d6
 6915 1402 05       		.uleb128 0x5
 6916 1403 03       		.byte	0x3
 6917 1404 00000000 		.4byte	msn_lecaan
 6918 1408 0A       		.uleb128 0xa
 6919 1409 81000000 		.4byte	0x81
 6920 140d 18140000 		.4byte	0x1418
 6921 1411 0B       		.uleb128 0xb
 6922 1412 D9000000 		.4byte	0xd9
 6923 1416 11       		.byte	0x11
 6924 1417 00       		.byte	0
 6925 1418 18       		.uleb128 0x18
 6926 1419 DB050000 		.4byte	.LASF116
 6927 141d 01       		.byte	0x1
 6928 141e 47       		.byte	0x47
 6929 141f 08140000 		.4byte	0x1408
 6930 1423 05       		.uleb128 0x5
 6931 1424 03       		.byte	0x3
 6932 1425 00000000 		.4byte	msn_dif
 6933 1429 0A       		.uleb128 0xa
 6934 142a 81000000 		.4byte	0x81
 6935 142e 39140000 		.4byte	0x1439
 6936 1432 0B       		.uleb128 0xb
 6937 1433 D9000000 		.4byte	0xd9
 6938 1437 17       		.byte	0x17
 6939 1438 00       		.byte	0
 6940 1439 18       		.uleb128 0x18
 6941 143a 60020000 		.4byte	.LASF117
 6942 143e 01       		.byte	0x1
 6943 143f 48       		.byte	0x48
 6944 1440 29140000 		.4byte	0x1429
 6945 1444 05       		.uleb128 0x5
 6946 1445 03       		.byte	0x3
 6947 1446 00000000 		.4byte	SEPARATOR
 6948 144a 18       		.uleb128 0x18
 6949 144b 12010000 		.4byte	.LASF118
 6950 144f 01       		.byte	0x1
 6951 1450 49       		.byte	0x49
 6952 1451 380F0000 		.4byte	0xf38
 6953 1455 05       		.uleb128 0x5
 6954 1456 03       		.byte	0x3
 6955 1457 00000000 		.4byte	ASK_TIME
ARM GAS  C:\Users\THERMA~1\AppData\Local\Temp\cc965AVb.s 			page 141


 6956 145b 00       		.byte	0
 6957              		.section	.debug_abbrev,"",%progbits
 6958              	.Ldebug_abbrev0:
 6959 0000 01       		.uleb128 0x1
 6960 0001 11       		.uleb128 0x11
 6961 0002 01       		.byte	0x1
 6962 0003 25       		.uleb128 0x25
 6963 0004 0E       		.uleb128 0xe
 6964 0005 13       		.uleb128 0x13
 6965 0006 0B       		.uleb128 0xb
 6966 0007 03       		.uleb128 0x3
 6967 0008 0E       		.uleb128 0xe
 6968 0009 1B       		.uleb128 0x1b
 6969 000a 0E       		.uleb128 0xe
 6970 000b 55       		.uleb128 0x55
 6971 000c 17       		.uleb128 0x17
 6972 000d 11       		.uleb128 0x11
 6973 000e 01       		.uleb128 0x1
 6974 000f 10       		.uleb128 0x10
 6975 0010 17       		.uleb128 0x17
 6976 0011 00       		.byte	0
 6977 0012 00       		.byte	0
 6978 0013 02       		.uleb128 0x2
 6979 0014 24       		.uleb128 0x24
 6980 0015 00       		.byte	0
 6981 0016 0B       		.uleb128 0xb
 6982 0017 0B       		.uleb128 0xb
 6983 0018 3E       		.uleb128 0x3e
 6984 0019 0B       		.uleb128 0xb
 6985 001a 03       		.uleb128 0x3
 6986 001b 0E       		.uleb128 0xe
 6987 001c 00       		.byte	0
 6988 001d 00       		.byte	0
 6989 001e 03       		.uleb128 0x3
 6990 001f 16       		.uleb128 0x16
 6991 0020 00       		.byte	0
 6992 0021 03       		.uleb128 0x3
 6993 0022 0E       		.uleb128 0xe
 6994 0023 3A       		.uleb128 0x3a
 6995 0024 0B       		.uleb128 0xb
 6996 0025 3B       		.uleb128 0x3b
 6997 0026 0B       		.uleb128 0xb
 6998 0027 49       		.uleb128 0x49
 6999 0028 13       		.uleb128 0x13
 7000 0029 00       		.byte	0
 7001 002a 00       		.byte	0
 7002 002b 04       		.uleb128 0x4
 7003 002c 24       		.uleb128 0x24
 7004 002d 00       		.byte	0
 7005 002e 0B       		.uleb128 0xb
 7006 002f 0B       		.uleb128 0xb
 7007 0030 3E       		.uleb128 0x3e
 7008 0031 0B       		.uleb128 0xb
 7009 0032 03       		.uleb128 0x3
 7010 0033 08       		.uleb128 0x8
 7011 0034 00       		.byte	0
 7012 0035 00       		.byte	0
ARM GAS  C:\Users\THERMA~1\AppData\Local\Temp\cc965AVb.s 			page 142


 7013 0036 05       		.uleb128 0x5
 7014 0037 16       		.uleb128 0x16
 7015 0038 00       		.byte	0
 7016 0039 03       		.uleb128 0x3
 7017 003a 0E       		.uleb128 0xe
 7018 003b 3A       		.uleb128 0x3a
 7019 003c 0B       		.uleb128 0xb
 7020 003d 3B       		.uleb128 0x3b
 7021 003e 05       		.uleb128 0x5
 7022 003f 49       		.uleb128 0x49
 7023 0040 13       		.uleb128 0x13
 7024 0041 00       		.byte	0
 7025 0042 00       		.byte	0
 7026 0043 06       		.uleb128 0x6
 7027 0044 13       		.uleb128 0x13
 7028 0045 01       		.byte	0x1
 7029 0046 03       		.uleb128 0x3
 7030 0047 0E       		.uleb128 0xe
 7031 0048 0B       		.uleb128 0xb
 7032 0049 05       		.uleb128 0x5
 7033 004a 3A       		.uleb128 0x3a
 7034 004b 0B       		.uleb128 0xb
 7035 004c 3B       		.uleb128 0x3b
 7036 004d 0B       		.uleb128 0xb
 7037 004e 01       		.uleb128 0x1
 7038 004f 13       		.uleb128 0x13
 7039 0050 00       		.byte	0
 7040 0051 00       		.byte	0
 7041 0052 07       		.uleb128 0x7
 7042 0053 0D       		.uleb128 0xd
 7043 0054 00       		.byte	0
 7044 0055 03       		.uleb128 0x3
 7045 0056 08       		.uleb128 0x8
 7046 0057 3A       		.uleb128 0x3a
 7047 0058 0B       		.uleb128 0xb
 7048 0059 3B       		.uleb128 0x3b
 7049 005a 0B       		.uleb128 0xb
 7050 005b 49       		.uleb128 0x49
 7051 005c 13       		.uleb128 0x13
 7052 005d 38       		.uleb128 0x38
 7053 005e 0B       		.uleb128 0xb
 7054 005f 00       		.byte	0
 7055 0060 00       		.byte	0
 7056 0061 08       		.uleb128 0x8
 7057 0062 0D       		.uleb128 0xd
 7058 0063 00       		.byte	0
 7059 0064 03       		.uleb128 0x3
 7060 0065 0E       		.uleb128 0xe
 7061 0066 3A       		.uleb128 0x3a
 7062 0067 0B       		.uleb128 0xb
 7063 0068 3B       		.uleb128 0x3b
 7064 0069 0B       		.uleb128 0xb
 7065 006a 49       		.uleb128 0x49
 7066 006b 13       		.uleb128 0x13
 7067 006c 38       		.uleb128 0x38
 7068 006d 0B       		.uleb128 0xb
 7069 006e 00       		.byte	0
ARM GAS  C:\Users\THERMA~1\AppData\Local\Temp\cc965AVb.s 			page 143


 7070 006f 00       		.byte	0
 7071 0070 09       		.uleb128 0x9
 7072 0071 0D       		.uleb128 0xd
 7073 0072 00       		.byte	0
 7074 0073 03       		.uleb128 0x3
 7075 0074 0E       		.uleb128 0xe
 7076 0075 3A       		.uleb128 0x3a
 7077 0076 0B       		.uleb128 0xb
 7078 0077 3B       		.uleb128 0x3b
 7079 0078 0B       		.uleb128 0xb
 7080 0079 49       		.uleb128 0x49
 7081 007a 13       		.uleb128 0x13
 7082 007b 38       		.uleb128 0x38
 7083 007c 05       		.uleb128 0x5
 7084 007d 00       		.byte	0
 7085 007e 00       		.byte	0
 7086 007f 0A       		.uleb128 0xa
 7087 0080 01       		.uleb128 0x1
 7088 0081 01       		.byte	0x1
 7089 0082 49       		.uleb128 0x49
 7090 0083 13       		.uleb128 0x13
 7091 0084 01       		.uleb128 0x1
 7092 0085 13       		.uleb128 0x13
 7093 0086 00       		.byte	0
 7094 0087 00       		.byte	0
 7095 0088 0B       		.uleb128 0xb
 7096 0089 21       		.uleb128 0x21
 7097 008a 00       		.byte	0
 7098 008b 49       		.uleb128 0x49
 7099 008c 13       		.uleb128 0x13
 7100 008d 2F       		.uleb128 0x2f
 7101 008e 0B       		.uleb128 0xb
 7102 008f 00       		.byte	0
 7103 0090 00       		.byte	0
 7104 0091 0C       		.uleb128 0xc
 7105 0092 0D       		.uleb128 0xd
 7106 0093 00       		.byte	0
 7107 0094 03       		.uleb128 0x3
 7108 0095 08       		.uleb128 0x8
 7109 0096 3A       		.uleb128 0x3a
 7110 0097 0B       		.uleb128 0xb
 7111 0098 3B       		.uleb128 0x3b
 7112 0099 0B       		.uleb128 0xb
 7113 009a 49       		.uleb128 0x49
 7114 009b 13       		.uleb128 0x13
 7115 009c 38       		.uleb128 0x38
 7116 009d 05       		.uleb128 0x5
 7117 009e 00       		.byte	0
 7118 009f 00       		.byte	0
 7119 00a0 0D       		.uleb128 0xd
 7120 00a1 2E       		.uleb128 0x2e
 7121 00a2 01       		.byte	0x1
 7122 00a3 3F       		.uleb128 0x3f
 7123 00a4 19       		.uleb128 0x19
 7124 00a5 03       		.uleb128 0x3
 7125 00a6 0E       		.uleb128 0xe
 7126 00a7 3A       		.uleb128 0x3a
ARM GAS  C:\Users\THERMA~1\AppData\Local\Temp\cc965AVb.s 			page 144


 7127 00a8 0B       		.uleb128 0xb
 7128 00a9 3B       		.uleb128 0x3b
 7129 00aa 0B       		.uleb128 0xb
 7130 00ab 27       		.uleb128 0x27
 7131 00ac 19       		.uleb128 0x19
 7132 00ad 11       		.uleb128 0x11
 7133 00ae 01       		.uleb128 0x1
 7134 00af 12       		.uleb128 0x12
 7135 00b0 06       		.uleb128 0x6
 7136 00b1 40       		.uleb128 0x40
 7137 00b2 18       		.uleb128 0x18
 7138 00b3 9642     		.uleb128 0x2116
 7139 00b5 19       		.uleb128 0x19
 7140 00b6 01       		.uleb128 0x1
 7141 00b7 13       		.uleb128 0x13
 7142 00b8 00       		.byte	0
 7143 00b9 00       		.byte	0
 7144 00ba 0E       		.uleb128 0xe
 7145 00bb 05       		.uleb128 0x5
 7146 00bc 00       		.byte	0
 7147 00bd 03       		.uleb128 0x3
 7148 00be 0E       		.uleb128 0xe
 7149 00bf 3A       		.uleb128 0x3a
 7150 00c0 0B       		.uleb128 0xb
 7151 00c1 3B       		.uleb128 0x3b
 7152 00c2 0B       		.uleb128 0xb
 7153 00c3 49       		.uleb128 0x49
 7154 00c4 13       		.uleb128 0x13
 7155 00c5 02       		.uleb128 0x2
 7156 00c6 18       		.uleb128 0x18
 7157 00c7 00       		.byte	0
 7158 00c8 00       		.byte	0
 7159 00c9 0F       		.uleb128 0xf
 7160 00ca 34       		.uleb128 0x34
 7161 00cb 00       		.byte	0
 7162 00cc 03       		.uleb128 0x3
 7163 00cd 0E       		.uleb128 0xe
 7164 00ce 3A       		.uleb128 0x3a
 7165 00cf 0B       		.uleb128 0xb
 7166 00d0 3B       		.uleb128 0x3b
 7167 00d1 0B       		.uleb128 0xb
 7168 00d2 49       		.uleb128 0x49
 7169 00d3 13       		.uleb128 0x13
 7170 00d4 02       		.uleb128 0x2
 7171 00d5 18       		.uleb128 0x18
 7172 00d6 00       		.byte	0
 7173 00d7 00       		.byte	0
 7174 00d8 10       		.uleb128 0x10
 7175 00d9 0B       		.uleb128 0xb
 7176 00da 01       		.byte	0x1
 7177 00db 11       		.uleb128 0x11
 7178 00dc 01       		.uleb128 0x1
 7179 00dd 12       		.uleb128 0x12
 7180 00de 06       		.uleb128 0x6
 7181 00df 01       		.uleb128 0x1
 7182 00e0 13       		.uleb128 0x13
 7183 00e1 00       		.byte	0
ARM GAS  C:\Users\THERMA~1\AppData\Local\Temp\cc965AVb.s 			page 145


 7184 00e2 00       		.byte	0
 7185 00e3 11       		.uleb128 0x11
 7186 00e4 34       		.uleb128 0x34
 7187 00e5 00       		.byte	0
 7188 00e6 03       		.uleb128 0x3
 7189 00e7 08       		.uleb128 0x8
 7190 00e8 3A       		.uleb128 0x3a
 7191 00e9 0B       		.uleb128 0xb
 7192 00ea 3B       		.uleb128 0x3b
 7193 00eb 0B       		.uleb128 0xb
 7194 00ec 49       		.uleb128 0x49
 7195 00ed 13       		.uleb128 0x13
 7196 00ee 02       		.uleb128 0x2
 7197 00ef 18       		.uleb128 0x18
 7198 00f0 00       		.byte	0
 7199 00f1 00       		.byte	0
 7200 00f2 12       		.uleb128 0x12
 7201 00f3 34       		.uleb128 0x34
 7202 00f4 00       		.byte	0
 7203 00f5 03       		.uleb128 0x3
 7204 00f6 08       		.uleb128 0x8
 7205 00f7 3A       		.uleb128 0x3a
 7206 00f8 0B       		.uleb128 0xb
 7207 00f9 3B       		.uleb128 0x3b
 7208 00fa 05       		.uleb128 0x5
 7209 00fb 49       		.uleb128 0x49
 7210 00fc 13       		.uleb128 0x13
 7211 00fd 02       		.uleb128 0x2
 7212 00fe 18       		.uleb128 0x18
 7213 00ff 00       		.byte	0
 7214 0100 00       		.byte	0
 7215 0101 13       		.uleb128 0x13
 7216 0102 0B       		.uleb128 0xb
 7217 0103 01       		.byte	0x1
 7218 0104 11       		.uleb128 0x11
 7219 0105 01       		.uleb128 0x1
 7220 0106 12       		.uleb128 0x12
 7221 0107 06       		.uleb128 0x6
 7222 0108 00       		.byte	0
 7223 0109 00       		.byte	0
 7224 010a 14       		.uleb128 0x14
 7225 010b 2E       		.uleb128 0x2e
 7226 010c 01       		.byte	0x1
 7227 010d 3F       		.uleb128 0x3f
 7228 010e 19       		.uleb128 0x19
 7229 010f 03       		.uleb128 0x3
 7230 0110 0E       		.uleb128 0xe
 7231 0111 3A       		.uleb128 0x3a
 7232 0112 0B       		.uleb128 0xb
 7233 0113 3B       		.uleb128 0x3b
 7234 0114 05       		.uleb128 0x5
 7235 0115 27       		.uleb128 0x27
 7236 0116 19       		.uleb128 0x19
 7237 0117 11       		.uleb128 0x11
 7238 0118 01       		.uleb128 0x1
 7239 0119 12       		.uleb128 0x12
 7240 011a 06       		.uleb128 0x6
ARM GAS  C:\Users\THERMA~1\AppData\Local\Temp\cc965AVb.s 			page 146


 7241 011b 40       		.uleb128 0x40
 7242 011c 18       		.uleb128 0x18
 7243 011d 9642     		.uleb128 0x2116
 7244 011f 19       		.uleb128 0x19
 7245 0120 01       		.uleb128 0x1
 7246 0121 13       		.uleb128 0x13
 7247 0122 00       		.byte	0
 7248 0123 00       		.byte	0
 7249 0124 15       		.uleb128 0x15
 7250 0125 34       		.uleb128 0x34
 7251 0126 00       		.byte	0
 7252 0127 03       		.uleb128 0x3
 7253 0128 0E       		.uleb128 0xe
 7254 0129 3A       		.uleb128 0x3a
 7255 012a 0B       		.uleb128 0xb
 7256 012b 3B       		.uleb128 0x3b
 7257 012c 05       		.uleb128 0x5
 7258 012d 49       		.uleb128 0x49
 7259 012e 13       		.uleb128 0x13
 7260 012f 02       		.uleb128 0x2
 7261 0130 18       		.uleb128 0x18
 7262 0131 00       		.byte	0
 7263 0132 00       		.byte	0
 7264 0133 16       		.uleb128 0x16
 7265 0134 34       		.uleb128 0x34
 7266 0135 00       		.byte	0
 7267 0136 03       		.uleb128 0x3
 7268 0137 0E       		.uleb128 0xe
 7269 0138 3A       		.uleb128 0x3a
 7270 0139 0B       		.uleb128 0xb
 7271 013a 3B       		.uleb128 0x3b
 7272 013b 05       		.uleb128 0x5
 7273 013c 49       		.uleb128 0x49
 7274 013d 13       		.uleb128 0x13
 7275 013e 3F       		.uleb128 0x3f
 7276 013f 19       		.uleb128 0x19
 7277 0140 3C       		.uleb128 0x3c
 7278 0141 19       		.uleb128 0x19
 7279 0142 00       		.byte	0
 7280 0143 00       		.byte	0
 7281 0144 17       		.uleb128 0x17
 7282 0145 35       		.uleb128 0x35
 7283 0146 00       		.byte	0
 7284 0147 49       		.uleb128 0x49
 7285 0148 13       		.uleb128 0x13
 7286 0149 00       		.byte	0
 7287 014a 00       		.byte	0
 7288 014b 18       		.uleb128 0x18
 7289 014c 34       		.uleb128 0x34
 7290 014d 00       		.byte	0
 7291 014e 03       		.uleb128 0x3
 7292 014f 0E       		.uleb128 0xe
 7293 0150 3A       		.uleb128 0x3a
 7294 0151 0B       		.uleb128 0xb
 7295 0152 3B       		.uleb128 0x3b
 7296 0153 0B       		.uleb128 0xb
 7297 0154 49       		.uleb128 0x49
ARM GAS  C:\Users\THERMA~1\AppData\Local\Temp\cc965AVb.s 			page 147


 7298 0155 13       		.uleb128 0x13
 7299 0156 3F       		.uleb128 0x3f
 7300 0157 19       		.uleb128 0x19
 7301 0158 02       		.uleb128 0x2
 7302 0159 18       		.uleb128 0x18
 7303 015a 00       		.byte	0
 7304 015b 00       		.byte	0
 7305 015c 19       		.uleb128 0x19
 7306 015d 34       		.uleb128 0x34
 7307 015e 00       		.byte	0
 7308 015f 03       		.uleb128 0x3
 7309 0160 08       		.uleb128 0x8
 7310 0161 3A       		.uleb128 0x3a
 7311 0162 0B       		.uleb128 0xb
 7312 0163 3B       		.uleb128 0x3b
 7313 0164 0B       		.uleb128 0xb
 7314 0165 49       		.uleb128 0x49
 7315 0166 13       		.uleb128 0x13
 7316 0167 3F       		.uleb128 0x3f
 7317 0168 19       		.uleb128 0x19
 7318 0169 02       		.uleb128 0x2
 7319 016a 18       		.uleb128 0x18
 7320 016b 00       		.byte	0
 7321 016c 00       		.byte	0
 7322 016d 00       		.byte	0
 7323              		.section	.debug_aranges,"",%progbits
 7324 0000 24000000 		.4byte	0x24
 7325 0004 0200     		.2byte	0x2
 7326 0006 00000000 		.4byte	.Ldebug_info0
 7327 000a 04       		.byte	0x4
 7328 000b 00       		.byte	0
 7329 000c 0000     		.2byte	0
 7330 000e 0000     		.2byte	0
 7331 0010 00000000 		.4byte	.LFB64
 7332 0014 18100000 		.4byte	.LFE64-.LFB64
 7333 0018 00000000 		.4byte	.LFB65
 7334 001c B00E0000 		.4byte	.LFE65-.LFB65
 7335 0020 00000000 		.4byte	0
 7336 0024 00000000 		.4byte	0
 7337              		.section	.debug_ranges,"",%progbits
 7338              	.Ldebug_ranges0:
 7339 0000 00000000 		.4byte	.LFB64
 7340 0004 18100000 		.4byte	.LFE64
 7341 0008 00000000 		.4byte	.LFB65
 7342 000c B00E0000 		.4byte	.LFE65
 7343 0010 00000000 		.4byte	0
 7344 0014 00000000 		.4byte	0
 7345              		.section	.debug_line,"",%progbits
 7346              	.Ldebug_line0:
 7347 0000 2A0A0000 		.section	.debug_str,"MS",%progbits,1
 7347      02005B01 
 7347      00000201 
 7347      FB0E0D00 
 7347      01010101 
 7348              	.LASF35:
 7349 0000 4E6F7A7A 		.ascii	"Nozzle\000"
 7349      6C6500
ARM GAS  C:\Users\THERMA~1\AppData\Local\Temp\cc965AVb.s 			page 148


 7350              	.LASF61:
 7351 0007 50756D70 		.ascii	"PumpAddress\000"
 7351      41646472 
 7351      65737300 
 7352              	.LASF54:
 7353 0013 696E745F 		.ascii	"int_salenumber\000"
 7353      73616C65 
 7353      6E756D62 
 7353      657200
 7354              	.LASF8:
 7355 0022 756E7369 		.ascii	"unsigned int\000"
 7355      676E6564 
 7355      20696E74 
 7355      00
 7356              	.LASF53:
 7357 002f 73616C65 		.ascii	"sale_number\000"
 7357      5F6E756D 
 7357      62657200 
 7358              	.LASF9:
 7359 003b 5F5F696E 		.ascii	"__int32_t\000"
 7359      7433325F 
 7359      7400
 7360              	.LASF66:
 7361 0045 44656356 		.ascii	"DecVol\000"
 7361      6F6C00
 7362              	.LASF119:
 7363 004c 474E5520 		.ascii	"GNU C11 5.4.1 20160609 (release) [ARM/embedded-5-br"
 7363      43313120 
 7363      352E342E 
 7363      31203230 
 7363      31363036 
 7364 007f 616E6368 		.ascii	"anch revision 237715] -mcpu=cortex-m3 -mthumb -g -O"
 7364      20726576 
 7364      6973696F 
 7364      6E203233 
 7364      37373135 
 7365 00b2 30202D66 		.ascii	"0 -ffunction-sections -ffat-lto-objects\000"
 7365      66756E63 
 7365      74696F6E 
 7365      2D736563 
 7365      74696F6E 
 7366              	.LASF58:
 7367 00da 73696465 		.ascii	"side\000"
 7367      00
 7368              	.LASF79:
 7369 00df 6D736E5F 		.ascii	"msn_footer2\000"
 7369      666F6F74 
 7369      65723200 
 7370              	.LASF31:
 7371 00eb 50726F63 		.ascii	"ProcessedvolumeSale\000"
 7371      65737365 
 7371      64766F6C 
 7371      756D6553 
 7371      616C6500 
 7372              	.LASF87:
 7373 00ff 6D736E5F 		.ascii	"msn_pos\000"
 7373      706F7300 
ARM GAS  C:\Users\THERMA~1\AppData\Local\Temp\cc965AVb.s 			page 149


 7374              	.LASF41:
 7375 0107 5072696E 		.ascii	"PrintShift\000"
 7375      74536869 
 7375      667400
 7376              	.LASF118:
 7377 0112 41534B5F 		.ascii	"ASK_TIME\000"
 7377      54494D45 
 7377      00
 7378              	.LASF32:
 7379 011b 50726F63 		.ascii	"ProcessedPPU\000"
 7379      65737365 
 7379      64505055 
 7379      00
 7380              	.LASF52:
 7381 0128 52656365 		.ascii	"Receipt\000"
 7381      69707400 
 7382              	.LASF110:
 7383 0130 50524E5F 		.ascii	"PRN_PRESET\000"
 7383      50524553 
 7383      455400
 7384              	.LASF106:
 7385 013b 50524E5F 		.ascii	"PRN_VOLUMEMONTH\000"
 7385      564F4C55 
 7385      4D454D4F 
 7385      4E544800 
 7386              	.LASF15:
 7387 014b 666C6F61 		.ascii	"float\000"
 7387      7400
 7388              	.LASF115:
 7389 0151 6D736E5F 		.ascii	"msn_lecaan\000"
 7389      6C656361 
 7389      616E00
 7390              	.LASF89:
 7391 015c 6D736E5F 		.ascii	"msn_ppu\000"
 7391      70707500 
 7392              	.LASF84:
 7393 0164 6D736E5F 		.ascii	"msn_placa\000"
 7393      706C6163 
 7393      6100
 7394              	.LASF105:
 7395 016e 50524E5F 		.ascii	"PRN_VOLUMEWEEK\000"
 7395      564F4C55 
 7395      4D455745 
 7395      454B00
 7396              	.LASF7:
 7397 017d 6C6F6E67 		.ascii	"long long unsigned int\000"
 7397      206C6F6E 
 7397      6720756E 
 7397      7369676E 
 7397      65642069 
 7398              	.LASF71:
 7399 0194 6D736E5F 		.ascii	"msn_EDS\000"
 7399      45445300 
 7400              	.LASF83:
 7401 019c 6D736E5F 		.ascii	"msn_hora\000"
 7401      686F7261 
 7401      00
ARM GAS  C:\Users\THERMA~1\AppData\Local\Temp\cc965AVb.s 			page 150


 7402              	.LASF86:
 7403 01a5 50524E5F 		.ascii	"PRN_TRANSTYPE\000"
 7403      5452414E 
 7403      53545950 
 7403      4500
 7404              	.LASF65:
 7405 01b3 546F7461 		.ascii	"TotalRequestType\000"
 7405      6C526571 
 7405      75657374 
 7405      54797065 
 7405      00
 7406              	.LASF39:
 7407 01c4 4C434452 		.ascii	"LCDRx\000"
 7407      7800
 7408              	.LASF109:
 7409 01ca 50524E5F 		.ascii	"PRN_MONEYMONTH\000"
 7409      4D4F4E45 
 7409      594D4F4E 
 7409      544800
 7410              	.LASF98:
 7411 01d9 50524E5F 		.ascii	"PRN_ACCOUNT\000"
 7411      4143434F 
 7411      554E5400 
 7412              	.LASF104:
 7413 01e5 50524E5F 		.ascii	"PRN_VOLUMEDAY\000"
 7413      564F4C55 
 7413      4D454441 
 7413      5900
 7414              	.LASF33:
 7415 01f3 6D736E5F 		.ascii	"msn_plate\000"
 7415      706C6174 
 7415      6500
 7416              	.LASF114:
 7417 01fd 6D736E5F 		.ascii	"msn_lecact\000"
 7417      6C656361 
 7417      637400
 7418              	.LASF56:
 7419 0208 696E745F 		.ascii	"int_shiftnumber\000"
 7419      73686966 
 7419      746E756D 
 7419      62657200 
 7420              	.LASF57:
 7421 0218 4C434468 		.ascii	"LCDhose\000"
 7421      6F736500 
 7422              	.LASF94:
 7423 0220 6D736E5F 		.ascii	"msn_venta\000"
 7423      76656E74 
 7423      6100
 7424              	.LASF85:
 7425 022a 50524E5F 		.ascii	"PRN_MILLEAGE\000"
 7425      4D494C4C 
 7425      45414745 
 7425      00
 7426              	.LASF95:
 7427 0237 6D736E5F 		.ascii	"msn_numero\000"
 7427      6E756D65 
 7427      726F00
ARM GAS  C:\Users\THERMA~1\AppData\Local\Temp\cc965AVb.s 			page 151


 7428              	.LASF30:
 7429 0242 50726F63 		.ascii	"ProcessedmoneySale\000"
 7429      65737365 
 7429      646D6F6E 
 7429      65795361 
 7429      6C6500
 7430              	.LASF93:
 7431 0255 6D736E5F 		.ascii	"msn_cierre\000"
 7431      63696572 
 7431      726500
 7432              	.LASF117:
 7433 0260 53455041 		.ascii	"SEPARATOR\000"
 7433      5241544F 
 7433      5200
 7434              	.LASF27:
 7435 026a 73746174 		.ascii	"states\000"
 7435      657300
 7436              	.LASF18:
 7437 0271 63686172 		.ascii	"char\000"
 7437      00
 7438              	.LASF101:
 7439 0276 50524E5F 		.ascii	"PRN_VISITSDAY\000"
 7439      56495349 
 7439      54534441 
 7439      5900
 7440              	.LASF12:
 7441 0284 75696E74 		.ascii	"uint16\000"
 7441      313600
 7442              	.LASF14:
 7443 028b 696E7438 		.ascii	"int8\000"
 7443      00
 7444              	.LASF91:
 7445 0290 6D736E5F 		.ascii	"msn_voltot\000"
 7445      766F6C74 
 7445      6F7400
 7446              	.LASF17:
 7447 029b 63686172 		.ascii	"char8\000"
 7447      3800
 7448              	.LASF64:
 7449 02a1 506F7369 		.ascii	"Positions\000"
 7449      74696F6E 
 7449      7300
 7450              	.LASF81:
 7451 02ab 6D736E5F 		.ascii	"msn_gasoline\000"
 7451      6761736F 
 7451      6C696E65 
 7451      00
 7452              	.LASF23:
 7453 02b8 6D6F6E65 		.ascii	"moneySale\000"
 7453      7953616C 
 7453      6500
 7454              	.LASF6:
 7455 02c2 6C6F6E67 		.ascii	"long long int\000"
 7455      206C6F6E 
 7455      6720696E 
 7455      7400
 7456              	.LASF25:
ARM GAS  C:\Users\THERMA~1\AppData\Local\Temp\cc965AVb.s 			page 152


 7457 02d0 70707553 		.ascii	"ppuSale\000"
 7457      616C6500 
 7458              	.LASF50:
 7459 02d8 506F6C6C 		.ascii	"PollCounter\000"
 7459      436F756E 
 7459      74657200 
 7460              	.LASF22:
 7461 02e4 7070754E 		.ascii	"ppuNozzle\000"
 7461      6F7A7A6C 
 7461      6500
 7462              	.LASF43:
 7463 02ee 6C656374 		.ascii	"lectactual\000"
 7463      61637475 
 7463      616C00
 7464              	.LASF90:
 7465 02f9 6D736E5F 		.ascii	"msn_vol\000"
 7465      766F6C00 
 7466              	.LASF46:
 7467 0301 61637475 		.ascii	"actual\000"
 7467      616C00
 7468              	.LASF13:
 7469 0308 75696E74 		.ascii	"uint32\000"
 7469      333200
 7470              	.LASF60:
 7471 030f 4D657073 		.ascii	"MepsanSendTo\000"
 7471      616E5365 
 7471      6E64546F 
 7471      00
 7472              	.LASF80:
 7473 031c 6D736E5F 		.ascii	"msn_diesel\000"
 7473      64696573 
 7473      656C00
 7474              	.LASF28:
 7475 0327 4D657073 		.ascii	"MepsanStore\000"
 7475      616E5374 
 7475      6F726500 
 7476              	.LASF51:
 7477 0333 43757272 		.ascii	"CurrentState\000"
 7477      656E7453 
 7477      74617465 
 7477      00
 7478              	.LASF19:
 7479 0340 6C6F6E67 		.ascii	"long double\000"
 7479      20646F75 
 7479      626C6500 
 7480              	.LASF100:
 7481 034c 50524E5F 		.ascii	"PRN_ACCOUNTTYPE\000"
 7481      4143434F 
 7481      554E5454 
 7481      59504500 
 7482              	.LASF102:
 7483 035c 50524E5F 		.ascii	"PRN_VISITSWEEK\000"
 7483      56495349 
 7483      54535745 
 7483      454B00
 7484              	.LASF2:
 7485 036b 73686F72 		.ascii	"short int\000"
ARM GAS  C:\Users\THERMA~1\AppData\Local\Temp\cc965AVb.s 			page 153


 7485      7420696E 
 7485      7400
 7486              	.LASF63:
 7487 0375 6372635F 		.ascii	"crc_hi\000"
 7487      686900
 7488              	.LASF4:
 7489 037c 6C6F6E67 		.ascii	"long int\000"
 7489      20696E74 
 7489      00
 7490              	.LASF49:
 7491 0385 49544D5F 		.ascii	"ITM_RxBuffer\000"
 7491      52784275 
 7491      66666572 
 7491      00
 7492              	.LASF29:
 7493 0392 50726F63 		.ascii	"ProcessedTotals\000"
 7493      65737365 
 7493      64546F74 
 7493      616C7300 
 7494              	.LASF48:
 7495 03a2 72657374 		.ascii	"resta\000"
 7495      6100
 7496              	.LASF44:
 7497 03a8 6D656D6F 		.ascii	"memoria\000"
 7497      72696100 
 7498              	.LASF67:
 7499 03b0 746F7563 		.ascii	"touch1\000"
 7499      683100
 7500              	.LASF42:
 7501 03b7 6C656374 		.ascii	"lectanterior\000"
 7501      616E7465 
 7501      72696F72 
 7501      00
 7502              	.LASF107:
 7503 03c4 50524E5F 		.ascii	"PRN_MONEYDAY\000"
 7503      4D4F4E45 
 7503      59444159 
 7503      00
 7504              	.LASF62:
 7505 03d1 6372635F 		.ascii	"crc_lo\000"
 7505      6C6F00
 7506              	.LASF21:
 7507 03d8 746F7461 		.ascii	"totalsNozzle\000"
 7507      6C734E6F 
 7507      7A7A6C65 
 7507      00
 7508              	.LASF59:
 7509 03e5 4D657073 		.ascii	"MepsanResponse\000"
 7509      616E5265 
 7509      73706F6E 
 7509      736500
 7510              	.LASF88:
 7511 03f4 6D736E5F 		.ascii	"msn_product\000"
 7511      70726F64 
 7511      75637400 
 7512              	.LASF20:
 7513 0400 73697A65 		.ascii	"sizetype\000"
ARM GAS  C:\Users\THERMA~1\AppData\Local\Temp\cc965AVb.s 			page 154


 7513      74797065 
 7513      00
 7514              	.LASF5:
 7515 0409 6C6F6E67 		.ascii	"long unsigned int\000"
 7515      20756E73 
 7515      69676E65 
 7515      6420696E 
 7515      7400
 7516              	.LASF122:
 7517 041b 61646472 		.ascii	"address\000"
 7517      65737300 
 7518              	.LASF10:
 7519 0423 696E7433 		.ascii	"int32_t\000"
 7519      325F7400 
 7520              	.LASF82:
 7521 042b 6D736E5F 		.ascii	"msn_fecha\000"
 7521      66656368 
 7521      6100
 7522              	.LASF40:
 7523 0435 5072696E 		.ascii	"PrintReceipt\000"
 7523      74526563 
 7523      65697074 
 7523      00
 7524              	.LASF38:
 7525 0442 73637265 		.ascii	"screen_size\000"
 7525      656E5F73 
 7525      697A6500 
 7526              	.LASF103:
 7527 044e 50524E5F 		.ascii	"PRN_VISITSMONTH\000"
 7527      56495349 
 7527      54534D4F 
 7527      4E544800 
 7528              	.LASF1:
 7529 045e 756E7369 		.ascii	"unsigned char\000"
 7529      676E6564 
 7529      20636861 
 7529      7200
 7530              	.LASF78:
 7531 046c 6D736E5F 		.ascii	"msn_footer\000"
 7531      666F6F74 
 7531      657200
 7532              	.LASF55:
 7533 0477 73686966 		.ascii	"shift_number\000"
 7533      745F6E75 
 7533      6D626572 
 7533      00
 7534              	.LASF69:
 7535 0484 4C494E45 		.ascii	"LINE_FEED\000"
 7535      5F464545 
 7535      4400
 7536              	.LASF97:
 7537 048e 50524E5F 		.ascii	"PRN_COMPANY\000"
 7537      434F4D50 
 7537      414E5900 
 7538              	.LASF45:
 7539 049a 72657375 		.ascii	"resultado\000"
 7539      6C746164 
ARM GAS  C:\Users\THERMA~1\AppData\Local\Temp\cc965AVb.s 			page 155


 7539      6F00
 7540              	.LASF34:
 7541 04a4 4D657052 		.ascii	"MepRequest\000"
 7541      65717565 
 7541      737400
 7542              	.LASF37:
 7543 04af 70756D70 		.ascii	"pump\000"
 7543      00
 7544              	.LASF96:
 7545 04b4 50524E5F 		.ascii	"PRN_BALANCE\000"
 7545      42414C41 
 7545      4E434500 
 7546              	.LASF120:
 7547 04c0 7072696E 		.ascii	"printer.c\000"
 7547      7465722E 
 7547      6300
 7548              	.LASF77:
 7549 04ca 6D736E5F 		.ascii	"msn_EDS7\000"
 7549      45445337 
 7549      00
 7550              	.LASF47:
 7551 04d3 616E7465 		.ascii	"anterior\000"
 7551      72696F72 
 7551      00
 7552              	.LASF24:
 7553 04dc 766F6C75 		.ascii	"volumeSale\000"
 7553      6D655361 
 7553      6C6500
 7554              	.LASF112:
 7555 04e7 50524E5F 		.ascii	"PRN_ID\000"
 7555      494400
 7556              	.LASF121:
 7557 04ee 433A5C55 		.ascii	"C:\\Users\\Thermaltake\\Documents\\GitHub\\Mepsan\\"
 7557      73657273 
 7557      5C546865 
 7557      726D616C 
 7557      74616B65 
 7558 051b 4D657073 		.ascii	"Mepsan.cydsn\000"
 7558      616E2E63 
 7558      7964736E 
 7558      00
 7559              	.LASF0:
 7560 0528 7369676E 		.ascii	"signed char\000"
 7560      65642063 
 7560      68617200 
 7561              	.LASF3:
 7562 0534 73686F72 		.ascii	"short unsigned int\000"
 7562      7420756E 
 7562      7369676E 
 7562      65642069 
 7562      6E7400
 7563              	.LASF111:
 7564 0547 50524E5F 		.ascii	"PRN_SIGNATURE\000"
 7564      5349474E 
 7564      41545552 
 7564      4500
 7565              	.LASF108:
ARM GAS  C:\Users\THERMA~1\AppData\Local\Temp\cc965AVb.s 			page 156


 7566 0555 50524E5F 		.ascii	"PRN_MONEYWEEK\000"
 7566      4D4F4E45 
 7566      59574545 
 7566      4B00
 7567              	.LASF26:
 7568 0563 70726F64 		.ascii	"productSale\000"
 7568      75637453 
 7568      616C6500 
 7569              	.LASF72:
 7570 056f 6D736E5F 		.ascii	"msn_EDS2\000"
 7570      45445332 
 7570      00
 7571              	.LASF73:
 7572 0578 6D736E5F 		.ascii	"msn_EDS3\000"
 7572      45445333 
 7572      00
 7573              	.LASF74:
 7574 0581 6D736E5F 		.ascii	"msn_EDS4\000"
 7574      45445334 
 7574      00
 7575              	.LASF75:
 7576 058a 6D736E5F 		.ascii	"msn_EDS5\000"
 7576      45445335 
 7576      00
 7577              	.LASF76:
 7578 0593 6D736E5F 		.ascii	"msn_EDS6\000"
 7578      45445336 
 7578      00
 7579              	.LASF11:
 7580 059c 75696E74 		.ascii	"uint8\000"
 7580      3800
 7581              	.LASF16:
 7582 05a2 646F7562 		.ascii	"double\000"
 7582      6C6500
 7583              	.LASF99:
 7584 05a9 50524E5F 		.ascii	"PRN_SERIAL\000"
 7584      53455249 
 7584      414C00
 7585              	.LASF68:
 7586 05b4 64697247 		.ascii	"dirGbr\000"
 7586      627200
 7587              	.LASF113:
 7588 05bb 50524E5F 		.ascii	"PRN_CURRENCY\000"
 7588      43555252 
 7588      454E4359 
 7588      00
 7589              	.LASF70:
 7590 05c8 566F6C53 		.ascii	"VolSimbol\000"
 7590      696D626F 
 7590      6C00
 7591              	.LASF36:
 7592 05d2 706F7369 		.ascii	"position\000"
 7592      74696F6E 
 7592      00
 7593              	.LASF116:
 7594 05db 6D736E5F 		.ascii	"msn_dif\000"
 7594      64696600 
ARM GAS  C:\Users\THERMA~1\AppData\Local\Temp\cc965AVb.s 			page 157


 7595              	.LASF92:
 7596 05e3 6D736E5F 		.ascii	"msn_din\000"
 7596      64696E00 
 7597              		.ident	"GCC: (GNU Tools for ARM Embedded Processors) 5.4.1 20160609 (release) [ARM/embedded-5-bran
