ARM GAS  C:\Users\Lenovo\AppData\Local\Temp\ccHWhG0i.s 			page 1


   1              		.syntax unified
   2              		.cpu cortex-m3
   3              		.fpu softvfp
   4              		.eabi_attribute 20, 1
   5              		.eabi_attribute 21, 1
   6              		.eabi_attribute 23, 3
   7              		.eabi_attribute 24, 1
   8              		.eabi_attribute 25, 1
   9              		.eabi_attribute 26, 1
  10              		.eabi_attribute 30, 6
  11              		.eabi_attribute 34, 1
  12              		.eabi_attribute 18, 4
  13              		.thumb
  14              		.syntax unified
  15              		.file	"PumpCom.c"
  16              		.text
  17              	.Ltext0:
  18              		.cfi_sections	.debug_frame
  19              		.comm	PollCounter,2,2
  20              		.comm	CurrentState,1,1
  21              		.comm	side,1228,4
  22              		.comm	MepsanResponse,50,4
  23              		.comm	MepsanSendTo,50,4
  24              		.comm	PumpAddress,15,4
  25              		.comm	CRC,2,2
  26              		.comm	crc_lo,1,1
  27              		.comm	crc_hi,1,1
  28              		.comm	Positions,1,1
  29              		.comm	TotalRequestType,1,1
  30              		.comm	dirGbr,1,1
  31              		.section	.text.gen_crc16,"ax",%progbits
  32              		.align	2
  33              		.global	gen_crc16
  34              		.thumb
  35              		.thumb_func
  36              		.type	gen_crc16, %function
  37              	gen_crc16:
  38              	.LFB63:
  39              		.file 1 "PumpCom.c"
   1:PumpCom.c     **** /**
   2:PumpCom.c     ****  * @file PumpCom.c
   3:PumpCom.c     ****  * @author Kugel Electronics
   4:PumpCom.c     ****  * @date 10/04/2018
   5:PumpCom.c     ****  * @brief Comunicación con el dispensador.
   6:PumpCom.c     ****  *
   7:PumpCom.c     ****  * Here typically goes a more extensive explanation of what the header
   8:PumpCom.c     ****  * defines. Doxygens tags are words preceeded by either a backslash @\
   9:PumpCom.c     ****  * or by an at symbol @@.
  10:PumpCom.c     ****  * @see http://www.stack.nl/~dimitri/doxygen/docblocks.html
  11:PumpCom.c     ****  * @see http://www.stack.nl/~dimitri/doxygen/commands.html
  12:PumpCom.c     ****  */
  13:PumpCom.c     **** 
  14:PumpCom.c     **** /* [] END OF FILE */
  15:PumpCom.c     **** 
  16:PumpCom.c     **** #include <GVar.h>
  17:PumpCom.c     **** 
  18:PumpCom.c     **** #define CRC16 0x8005
ARM GAS  C:\Users\Lenovo\AppData\Local\Temp\ccHWhG0i.s 			page 2


  19:PumpCom.c     **** 
  20:PumpCom.c     **** /*******************************************************************************
  21:PumpCom.c     **** * Function Name: gen_crc16
  22:PumpCom.c     **** ********************************************************************************
  23:PumpCom.c     **** *
  24:PumpCom.c     **** *
  25:PumpCom.c     **** *******************************************************************************/
  26:PumpCom.c     **** uint16_t gen_crc16(const uint8_t *data, uint16_t size)
  27:PumpCom.c     **** {
  40              		.loc 1 27 0
  41              		.cfi_startproc
  42              		@ args = 0, pretend = 0, frame = 32
  43              		@ frame_needed = 1, uses_anonymous_args = 0
  44              		@ link register save eliminated.
  45 0000 80B4     		push	{r7}
  46              		.cfi_def_cfa_offset 4
  47              		.cfi_offset 7, -4
  48 0002 89B0     		sub	sp, sp, #36
  49              		.cfi_def_cfa_offset 40
  50 0004 00AF     		add	r7, sp, #0
  51              		.cfi_def_cfa_register 7
  52 0006 7860     		str	r0, [r7, #4]
  53 0008 0B46     		mov	r3, r1
  54 000a 7B80     		strh	r3, [r7, #2]	@ movhi
  28:PumpCom.c     ****     uint16_t out = 0;
  55              		.loc 1 28 0
  56 000c 0023     		movs	r3, #0
  57 000e FB83     		strh	r3, [r7, #30]	@ movhi
  29:PumpCom.c     ****     int bits_read = 0, bit_flag;
  58              		.loc 1 29 0
  59 0010 0023     		movs	r3, #0
  60 0012 BB61     		str	r3, [r7, #24]
  30:PumpCom.c     **** 
  31:PumpCom.c     ****     /* Sanity check: */
  32:PumpCom.c     ****     if(data == NULL)
  61              		.loc 1 32 0
  62 0014 7B68     		ldr	r3, [r7, #4]
  63 0016 002B     		cmp	r3, #0
  64 0018 2FD1     		bne	.L4
  33:PumpCom.c     ****         return 0;
  65              		.loc 1 33 0
  66 001a 0023     		movs	r3, #0
  67 001c 68E0     		b	.L3
  68              	.L6:
  34:PumpCom.c     **** 
  35:PumpCom.c     ****     while(size > 0)
  36:PumpCom.c     ****     {
  37:PumpCom.c     ****         bit_flag = out >> 15;
  69              		.loc 1 37 0
  70 001e FB8B     		ldrh	r3, [r7, #30]
  71 0020 DB0B     		lsrs	r3, r3, #15
  72 0022 9BB2     		uxth	r3, r3
  73 0024 BB60     		str	r3, [r7, #8]
  38:PumpCom.c     **** 
  39:PumpCom.c     ****         /* Get next bit: */
  40:PumpCom.c     ****         out <<= 1;
  74              		.loc 1 40 0
ARM GAS  C:\Users\Lenovo\AppData\Local\Temp\ccHWhG0i.s 			page 3


  75 0026 FB8B     		ldrh	r3, [r7, #30]	@ movhi
  76 0028 5B00     		lsls	r3, r3, #1
  77 002a FB83     		strh	r3, [r7, #30]	@ movhi
  41:PumpCom.c     ****         out |= (*data >> bits_read) & 1; // item a) work from the least significant bits
  78              		.loc 1 41 0
  79 002c 7B68     		ldr	r3, [r7, #4]
  80 002e 1B78     		ldrb	r3, [r3]	@ zero_extendqisi2
  81 0030 1A46     		mov	r2, r3
  82 0032 BB69     		ldr	r3, [r7, #24]
  83 0034 42FA03F3 		asr	r3, r2, r3
  84 0038 1BB2     		sxth	r3, r3
  85 003a 03F00103 		and	r3, r3, #1
  86 003e 1AB2     		sxth	r2, r3
  87 0040 B7F91E30 		ldrsh	r3, [r7, #30]
  88 0044 1343     		orrs	r3, r3, r2
  89 0046 1BB2     		sxth	r3, r3
  90 0048 FB83     		strh	r3, [r7, #30]	@ movhi
  42:PumpCom.c     **** 
  43:PumpCom.c     ****         /* Increment bit counter: */
  44:PumpCom.c     ****         bits_read++;
  91              		.loc 1 44 0
  92 004a BB69     		ldr	r3, [r7, #24]
  93 004c 0133     		adds	r3, r3, #1
  94 004e BB61     		str	r3, [r7, #24]
  45:PumpCom.c     ****         if(bits_read > 7)
  95              		.loc 1 45 0
  96 0050 BB69     		ldr	r3, [r7, #24]
  97 0052 072B     		cmp	r3, #7
  98 0054 07DD     		ble	.L5
  46:PumpCom.c     ****         {
  47:PumpCom.c     ****             bits_read = 0;
  99              		.loc 1 47 0
 100 0056 0023     		movs	r3, #0
 101 0058 BB61     		str	r3, [r7, #24]
  48:PumpCom.c     ****             data++;
 102              		.loc 1 48 0
 103 005a 7B68     		ldr	r3, [r7, #4]
 104 005c 0133     		adds	r3, r3, #1
 105 005e 7B60     		str	r3, [r7, #4]
  49:PumpCom.c     ****             size--;
 106              		.loc 1 49 0
 107 0060 7B88     		ldrh	r3, [r7, #2]
 108 0062 013B     		subs	r3, r3, #1
 109 0064 7B80     		strh	r3, [r7, #2]	@ movhi
 110              	.L5:
  50:PumpCom.c     ****         }
  51:PumpCom.c     **** 
  52:PumpCom.c     ****         /* Cycle check: */
  53:PumpCom.c     ****         if(bit_flag)
 111              		.loc 1 53 0
 112 0066 BB68     		ldr	r3, [r7, #8]
 113 0068 002B     		cmp	r3, #0
 114 006a 06D0     		beq	.L4
  54:PumpCom.c     ****             out ^= CRC16;
 115              		.loc 1 54 0
 116 006c FB8B     		ldrh	r3, [r7, #30]	@ movhi
 117 006e 83F4FF43 		eor	r3, r3, #32640
ARM GAS  C:\Users\Lenovo\AppData\Local\Temp\ccHWhG0i.s 			page 4


 118 0072 83F07A03 		eor	r3, r3, #122
 119 0076 DB43     		mvns	r3, r3
 120 0078 FB83     		strh	r3, [r7, #30]	@ movhi
 121              	.L4:
  35:PumpCom.c     ****     {
 122              		.loc 1 35 0
 123 007a 7B88     		ldrh	r3, [r7, #2]
 124 007c 002B     		cmp	r3, #0
 125 007e CED1     		bne	.L6
  55:PumpCom.c     **** 
  56:PumpCom.c     ****     }
  57:PumpCom.c     **** 
  58:PumpCom.c     ****     // item b) "push out" the last 16 bits
  59:PumpCom.c     ****     int i;
  60:PumpCom.c     ****     for (i = 0; i < 16; ++i) {
 126              		.loc 1 60 0
 127 0080 0023     		movs	r3, #0
 128 0082 7B61     		str	r3, [r7, #20]
 129 0084 13E0     		b	.L7
 130              	.L9:
  61:PumpCom.c     ****         bit_flag = out >> 15;
 131              		.loc 1 61 0
 132 0086 FB8B     		ldrh	r3, [r7, #30]
 133 0088 DB0B     		lsrs	r3, r3, #15
 134 008a 9BB2     		uxth	r3, r3
 135 008c BB60     		str	r3, [r7, #8]
  62:PumpCom.c     ****         out <<= 1;
 136              		.loc 1 62 0
 137 008e FB8B     		ldrh	r3, [r7, #30]	@ movhi
 138 0090 5B00     		lsls	r3, r3, #1
 139 0092 FB83     		strh	r3, [r7, #30]	@ movhi
  63:PumpCom.c     ****         if(bit_flag)
 140              		.loc 1 63 0
 141 0094 BB68     		ldr	r3, [r7, #8]
 142 0096 002B     		cmp	r3, #0
 143 0098 06D0     		beq	.L8
  64:PumpCom.c     ****             out ^= CRC16;
 144              		.loc 1 64 0
 145 009a FB8B     		ldrh	r3, [r7, #30]	@ movhi
 146 009c 83F4FF43 		eor	r3, r3, #32640
 147 00a0 83F07A03 		eor	r3, r3, #122
 148 00a4 DB43     		mvns	r3, r3
 149 00a6 FB83     		strh	r3, [r7, #30]	@ movhi
 150              	.L8:
  60:PumpCom.c     ****         bit_flag = out >> 15;
 151              		.loc 1 60 0 discriminator 2
 152 00a8 7B69     		ldr	r3, [r7, #20]
 153 00aa 0133     		adds	r3, r3, #1
 154 00ac 7B61     		str	r3, [r7, #20]
 155              	.L7:
  60:PumpCom.c     ****         bit_flag = out >> 15;
 156              		.loc 1 60 0 is_stmt 0 discriminator 1
 157 00ae 7B69     		ldr	r3, [r7, #20]
 158 00b0 0F2B     		cmp	r3, #15
 159 00b2 E8DD     		ble	.L9
  65:PumpCom.c     ****     }
  66:PumpCom.c     **** 
ARM GAS  C:\Users\Lenovo\AppData\Local\Temp\ccHWhG0i.s 			page 5


  67:PumpCom.c     ****     // item c) reverse the bits
  68:PumpCom.c     ****     uint16_t crc = 0;
 160              		.loc 1 68 0 is_stmt 1
 161 00b4 0023     		movs	r3, #0
 162 00b6 7B82     		strh	r3, [r7, #18]	@ movhi
  69:PumpCom.c     ****     i = 0x8000;
 163              		.loc 1 69 0
 164 00b8 4FF40043 		mov	r3, #32768
 165 00bc 7B61     		str	r3, [r7, #20]
  70:PumpCom.c     ****     int j = 0x0001;
 166              		.loc 1 70 0
 167 00be 0123     		movs	r3, #1
 168 00c0 FB60     		str	r3, [r7, #12]
  71:PumpCom.c     ****     for (; i != 0; i >>=1, j <<= 1) {
 169              		.loc 1 71 0
 170 00c2 11E0     		b	.L10
 171              	.L12:
  72:PumpCom.c     ****         if (i & out) crc |= j;
 172              		.loc 1 72 0
 173 00c4 FA8B     		ldrh	r2, [r7, #30]
 174 00c6 7B69     		ldr	r3, [r7, #20]
 175 00c8 1340     		ands	r3, r3, r2
 176 00ca 002B     		cmp	r3, #0
 177 00cc 06D0     		beq	.L11
 178              		.loc 1 72 0 is_stmt 0 discriminator 1
 179 00ce FB68     		ldr	r3, [r7, #12]
 180 00d0 1AB2     		sxth	r2, r3
 181 00d2 B7F91230 		ldrsh	r3, [r7, #18]
 182 00d6 1343     		orrs	r3, r3, r2
 183 00d8 1BB2     		sxth	r3, r3
 184 00da 7B82     		strh	r3, [r7, #18]	@ movhi
 185              	.L11:
  71:PumpCom.c     ****     for (; i != 0; i >>=1, j <<= 1) {
 186              		.loc 1 71 0 is_stmt 1
 187 00dc 7B69     		ldr	r3, [r7, #20]
 188 00de 5B10     		asrs	r3, r3, #1
 189 00e0 7B61     		str	r3, [r7, #20]
 190 00e2 FB68     		ldr	r3, [r7, #12]
 191 00e4 5B00     		lsls	r3, r3, #1
 192 00e6 FB60     		str	r3, [r7, #12]
 193              	.L10:
  71:PumpCom.c     ****     for (; i != 0; i >>=1, j <<= 1) {
 194              		.loc 1 71 0 is_stmt 0 discriminator 1
 195 00e8 7B69     		ldr	r3, [r7, #20]
 196 00ea 002B     		cmp	r3, #0
 197 00ec EAD1     		bne	.L12
  73:PumpCom.c     ****     }
  74:PumpCom.c     **** 
  75:PumpCom.c     ****     return crc;
 198              		.loc 1 75 0 is_stmt 1
 199 00ee 7B8A     		ldrh	r3, [r7, #18]
 200              	.L3:
  76:PumpCom.c     **** }
 201              		.loc 1 76 0
 202 00f0 1846     		mov	r0, r3
 203 00f2 2437     		adds	r7, r7, #36
 204              		.cfi_def_cfa_offset 4
ARM GAS  C:\Users\Lenovo\AppData\Local\Temp\ccHWhG0i.s 			page 6


 205 00f4 BD46     		mov	sp, r7
 206              		.cfi_def_cfa_register 13
 207              		@ sp needed
 208 00f6 80BC     		pop	{r7}
 209              		.cfi_restore 7
 210              		.cfi_def_cfa_offset 0
 211 00f8 7047     		bx	lr
 212              		.cfi_endproc
 213              	.LFE63:
 214              		.size	gen_crc16, .-gen_crc16
 215 00fa 00BF     		.section	.text.GetResponse,"ax",%progbits
 216              		.align	2
 217              		.global	GetResponse
 218              		.thumb
 219              		.thumb_func
 220              		.type	GetResponse, %function
 221              	GetResponse:
 222              	.LFB64:
  77:PumpCom.c     **** 
  78:PumpCom.c     **** /*******************************************************************************
  79:PumpCom.c     **** * Function Name: GetResponse
  80:PumpCom.c     **** ********************************************************************************
  81:PumpCom.c     **** *
  82:PumpCom.c     **** *
  83:PumpCom.c     **** *******************************************************************************/
  84:PumpCom.c     **** void GetResponse(void){
 223              		.loc 1 84 0
 224              		.cfi_startproc
 225              		@ args = 0, pretend = 0, frame = 8
 226              		@ frame_needed = 1, uses_anonymous_args = 0
 227 0000 F0B5     		push	{r4, r5, r6, r7, lr}
 228              		.cfi_def_cfa_offset 20
 229              		.cfi_offset 4, -20
 230              		.cfi_offset 5, -16
 231              		.cfi_offset 6, -12
 232              		.cfi_offset 7, -8
 233              		.cfi_offset 14, -4
 234 0002 83B0     		sub	sp, sp, #12
 235              		.cfi_def_cfa_offset 32
 236 0004 00AF     		add	r7, sp, #0
 237              		.cfi_def_cfa_register 7
  85:PumpCom.c     ****     uint8 size, address;
  86:PumpCom.c     ****     size = MepsanResponse[0];          
 238              		.loc 1 86 0
 239 0006 164B     		ldr	r3, .L32
 240 0008 1B78     		ldrb	r3, [r3]
 241 000a 7B70     		strb	r3, [r7, #1]
  87:PumpCom.c     ****     CyDelay(10); 
 242              		.loc 1 87 0
 243 000c 0A20     		movs	r0, #10
 244 000e FFF7FEFF 		bl	CyDelay
  88:PumpCom.c     ****     address = MepsanResponse[1] & 0x00;
 245              		.loc 1 88 0
 246 0012 0023     		movs	r3, #0
 247 0014 3B70     		strb	r3, [r7]
  89:PumpCom.c     ****     if(address == side.a.dir){
 248              		.loc 1 89 0
ARM GAS  C:\Users\Lenovo\AppData\Local\Temp\ccHWhG0i.s 			page 7


 249 0016 134B     		ldr	r3, .L32+4
 250 0018 1B78     		ldrb	r3, [r3]	@ zero_extendqisi2
 251 001a 3A78     		ldrb	r2, [r7]	@ zero_extendqisi2
 252 001c 9A42     		cmp	r2, r3
 253 001e 40F09382 		bne	.L14
 254              	.LBB2:
  90:PumpCom.c     ****         for(uint8 MepRx = 1; MepRx < size + 1; MepRx++){
 255              		.loc 1 90 0
 256 0022 0123     		movs	r3, #1
 257 0024 FB71     		strb	r3, [r7, #7]
 258 0026 0CE0     		b	.L15
 259              	.L16:
  91:PumpCom.c     ****             side.a.MepsanStore[MepRx - 1] = MepsanResponse[MepRx];
 260              		.loc 1 91 0 discriminator 3
 261 0028 FB79     		ldrb	r3, [r7, #7]	@ zero_extendqisi2
 262 002a 013B     		subs	r3, r3, #1
 263 002c FA79     		ldrb	r2, [r7, #7]	@ zero_extendqisi2
 264 002e 0C49     		ldr	r1, .L32
 265 0030 895C     		ldrb	r1, [r1, r2]	@ zero_extendqisi2
 266 0032 0C4A     		ldr	r2, .L32+4
 267 0034 1344     		add	r3, r3, r2
 268 0036 0A46     		mov	r2, r1
 269 0038 83F87920 		strb	r2, [r3, #121]
  90:PumpCom.c     ****         for(uint8 MepRx = 1; MepRx < size + 1; MepRx++){
 270              		.loc 1 90 0 discriminator 3
 271 003c FB79     		ldrb	r3, [r7, #7]	@ zero_extendqisi2
 272 003e 0133     		adds	r3, r3, #1
 273 0040 FB71     		strb	r3, [r7, #7]
 274              	.L15:
  90:PumpCom.c     ****         for(uint8 MepRx = 1; MepRx < size + 1; MepRx++){
 275              		.loc 1 90 0 is_stmt 0 discriminator 1
 276 0042 FA79     		ldrb	r2, [r7, #7]	@ zero_extendqisi2
 277 0044 7B78     		ldrb	r3, [r7, #1]	@ zero_extendqisi2
 278 0046 0133     		adds	r3, r3, #1
 279 0048 9A42     		cmp	r2, r3
 280 004a EDDB     		blt	.L16
 281              	.LBE2:
  92:PumpCom.c     ****         }
  93:PumpCom.c     ****         if(side.a.MepsanStore[2] == 0x65){
 282              		.loc 1 93 0 is_stmt 1
 283 004c 054B     		ldr	r3, .L32+4
 284 004e 93F87B30 		ldrb	r3, [r3, #123]	@ zero_extendqisi2
 285 0052 652B     		cmp	r3, #101
 286 0054 40F03082 		bne	.L17
 287              	.LBB3:
  94:PumpCom.c     ****             for(uint8 x = 5; x < (side.a.MepsanStore[3]-1) + 5; x++ ){
 288              		.loc 1 94 0
 289 0058 0523     		movs	r3, #5
 290 005a BB71     		strb	r3, [r7, #6]
 291 005c 24E0     		b	.L18
 292              	.L33:
 293 005e 00BF     		.align	2
 294              	.L32:
 295 0060 00000000 		.word	MepsanResponse
 296 0064 00000000 		.word	side
 297              	.L19:
  95:PumpCom.c     ****                 side.a.totalsNozzle[((side.a.MepsanStore[4])&0x0F)-1][TotalRequestType][x-5] = side
ARM GAS  C:\Users\Lenovo\AppData\Local\Temp\ccHWhG0i.s 			page 8


 298              		.loc 1 95 0 discriminator 3
 299 0068 CC4B     		ldr	r3, .L34
 300 006a 93F87D30 		ldrb	r3, [r3, #125]	@ zero_extendqisi2
 301 006e 03F00F03 		and	r3, r3, #15
 302 0072 591E     		subs	r1, r3, #1
 303 0074 CA4B     		ldr	r3, .L34+4
 304 0076 1B78     		ldrb	r3, [r3]	@ zero_extendqisi2
 305 0078 1D46     		mov	r5, r3
 306 007a BB79     		ldrb	r3, [r7, #6]	@ zero_extendqisi2
 307 007c 581F     		subs	r0, r3, #5
 308 007e BB79     		ldrb	r3, [r7, #6]	@ zero_extendqisi2
 309 0080 C64A     		ldr	r2, .L34
 310 0082 1344     		add	r3, r3, r2
 311 0084 93F87960 		ldrb	r6, [r3, #121]	@ zero_extendqisi2
 312 0088 C44C     		ldr	r4, .L34
 313 008a 2A46     		mov	r2, r5
 314 008c 9200     		lsls	r2, r2, #2
 315 008e 2A44     		add	r2, r2, r5
 316 0090 0B46     		mov	r3, r1
 317 0092 1B01     		lsls	r3, r3, #4
 318 0094 5B1A     		subs	r3, r3, r1
 319 0096 1344     		add	r3, r3, r2
 320 0098 2344     		add	r3, r3, r4
 321 009a 0344     		add	r3, r3, r0
 322 009c 0133     		adds	r3, r3, #1
 323 009e 3246     		mov	r2, r6
 324 00a0 1A70     		strb	r2, [r3]
  94:PumpCom.c     ****             for(uint8 x = 5; x < (side.a.MepsanStore[3]-1) + 5; x++ ){
 325              		.loc 1 94 0 discriminator 3
 326 00a2 BB79     		ldrb	r3, [r7, #6]	@ zero_extendqisi2
 327 00a4 0133     		adds	r3, r3, #1
 328 00a6 BB71     		strb	r3, [r7, #6]
 329              	.L18:
  94:PumpCom.c     ****             for(uint8 x = 5; x < (side.a.MepsanStore[3]-1) + 5; x++ ){
 330              		.loc 1 94 0 is_stmt 0 discriminator 1
 331 00a8 BA79     		ldrb	r2, [r7, #6]	@ zero_extendqisi2
 332 00aa BC4B     		ldr	r3, .L34
 333 00ac 93F87C30 		ldrb	r3, [r3, #124]	@ zero_extendqisi2
 334 00b0 0433     		adds	r3, r3, #4
 335 00b2 9A42     		cmp	r2, r3
 336 00b4 D8DB     		blt	.L19
 337              	.LBE3:
  96:PumpCom.c     ****             }
  97:PumpCom.c     ****             
  98:PumpCom.c     ****             side.a.ProcessedTotals[((side.a.MepsanStore[4])&0x0F)-1][TotalRequestType][0] = (side.a
 338              		.loc 1 98 0 is_stmt 1
 339 00b6 B94B     		ldr	r3, .L34
 340 00b8 93F87D30 		ldrb	r3, [r3, #125]	@ zero_extendqisi2
 341 00bc 03F00F03 		and	r3, r3, #15
 342 00c0 591E     		subs	r1, r3, #1
 343 00c2 B74B     		ldr	r3, .L34+4
 344 00c4 1B78     		ldrb	r3, [r3]	@ zero_extendqisi2
 345 00c6 1D46     		mov	r5, r3
 346 00c8 B44B     		ldr	r3, .L34
 347 00ca 93F87D30 		ldrb	r3, [r3, #125]	@ zero_extendqisi2
 348 00ce 03F00F03 		and	r3, r3, #15
 349 00d2 581E     		subs	r0, r3, #1
ARM GAS  C:\Users\Lenovo\AppData\Local\Temp\ccHWhG0i.s 			page 9


 350 00d4 B24B     		ldr	r3, .L34+4
 351 00d6 1B78     		ldrb	r3, [r3]	@ zero_extendqisi2
 352 00d8 B04C     		ldr	r4, .L34
 353 00da 1A46     		mov	r2, r3
 354 00dc 9200     		lsls	r2, r2, #2
 355 00de 1A44     		add	r2, r2, r3
 356 00e0 0346     		mov	r3, r0
 357 00e2 1B01     		lsls	r3, r3, #4
 358 00e4 1B1A     		subs	r3, r3, r0
 359 00e6 1344     		add	r3, r3, r2
 360 00e8 2344     		add	r3, r3, r4
 361 00ea 0133     		adds	r3, r3, #1
 362 00ec 1B78     		ldrb	r3, [r3]	@ zero_extendqisi2
 363 00ee 1B09     		lsrs	r3, r3, #4
 364 00f0 DBB2     		uxtb	r3, r3
 365 00f2 3033     		adds	r3, r3, #48
 366 00f4 DCB2     		uxtb	r4, r3
 367 00f6 A948     		ldr	r0, .L34
 368 00f8 2A46     		mov	r2, r5
 369 00fa 9200     		lsls	r2, r2, #2
 370 00fc 2A44     		add	r2, r2, r5
 371 00fe 5300     		lsls	r3, r2, #1
 372 0100 1A46     		mov	r2, r3
 373 0102 0B46     		mov	r3, r1
 374 0104 1B01     		lsls	r3, r3, #4
 375 0106 5B1A     		subs	r3, r3, r1
 376 0108 5B00     		lsls	r3, r3, #1
 377 010a 1344     		add	r3, r3, r2
 378 010c 0344     		add	r3, r3, r0
 379 010e AB33     		adds	r3, r3, #171
 380 0110 2246     		mov	r2, r4
 381 0112 1A70     		strb	r2, [r3]
  99:PumpCom.c     ****             side.a.ProcessedTotals[((side.a.MepsanStore[4])&0x0F)-1][TotalRequestType][1] = (side.a
 382              		.loc 1 99 0
 383 0114 A14B     		ldr	r3, .L34
 384 0116 93F87D30 		ldrb	r3, [r3, #125]	@ zero_extendqisi2
 385 011a 03F00F03 		and	r3, r3, #15
 386 011e 591E     		subs	r1, r3, #1
 387 0120 9F4B     		ldr	r3, .L34+4
 388 0122 1B78     		ldrb	r3, [r3]	@ zero_extendqisi2
 389 0124 1D46     		mov	r5, r3
 390 0126 9D4B     		ldr	r3, .L34
 391 0128 93F87D30 		ldrb	r3, [r3, #125]	@ zero_extendqisi2
 392 012c 03F00F03 		and	r3, r3, #15
 393 0130 581E     		subs	r0, r3, #1
 394 0132 9B4B     		ldr	r3, .L34+4
 395 0134 1B78     		ldrb	r3, [r3]	@ zero_extendqisi2
 396 0136 994C     		ldr	r4, .L34
 397 0138 1A46     		mov	r2, r3
 398 013a 9200     		lsls	r2, r2, #2
 399 013c 1A44     		add	r2, r2, r3
 400 013e 0346     		mov	r3, r0
 401 0140 1B01     		lsls	r3, r3, #4
 402 0142 1B1A     		subs	r3, r3, r0
 403 0144 1344     		add	r3, r3, r2
 404 0146 2344     		add	r3, r3, r4
 405 0148 0133     		adds	r3, r3, #1
ARM GAS  C:\Users\Lenovo\AppData\Local\Temp\ccHWhG0i.s 			page 10


 406 014a 1B78     		ldrb	r3, [r3]	@ zero_extendqisi2
 407 014c 03F00F03 		and	r3, r3, #15
 408 0150 DBB2     		uxtb	r3, r3
 409 0152 3033     		adds	r3, r3, #48
 410 0154 DCB2     		uxtb	r4, r3
 411 0156 9148     		ldr	r0, .L34
 412 0158 2A46     		mov	r2, r5
 413 015a 9200     		lsls	r2, r2, #2
 414 015c 2A44     		add	r2, r2, r5
 415 015e 5300     		lsls	r3, r2, #1
 416 0160 1A46     		mov	r2, r3
 417 0162 0B46     		mov	r3, r1
 418 0164 1B01     		lsls	r3, r3, #4
 419 0166 5B1A     		subs	r3, r3, r1
 420 0168 5B00     		lsls	r3, r3, #1
 421 016a 1344     		add	r3, r3, r2
 422 016c 0344     		add	r3, r3, r0
 423 016e AC33     		adds	r3, r3, #172
 424 0170 2246     		mov	r2, r4
 425 0172 1A70     		strb	r2, [r3]
 100:PumpCom.c     ****             side.a.ProcessedTotals[((side.a.MepsanStore[4])&0x0F)-1][TotalRequestType][2] = (side.a
 426              		.loc 1 100 0
 427 0174 894B     		ldr	r3, .L34
 428 0176 93F87D30 		ldrb	r3, [r3, #125]	@ zero_extendqisi2
 429 017a 03F00F03 		and	r3, r3, #15
 430 017e 591E     		subs	r1, r3, #1
 431 0180 874B     		ldr	r3, .L34+4
 432 0182 1B78     		ldrb	r3, [r3]	@ zero_extendqisi2
 433 0184 1D46     		mov	r5, r3
 434 0186 854B     		ldr	r3, .L34
 435 0188 93F87D30 		ldrb	r3, [r3, #125]	@ zero_extendqisi2
 436 018c 03F00F03 		and	r3, r3, #15
 437 0190 581E     		subs	r0, r3, #1
 438 0192 834B     		ldr	r3, .L34+4
 439 0194 1B78     		ldrb	r3, [r3]	@ zero_extendqisi2
 440 0196 814C     		ldr	r4, .L34
 441 0198 1A46     		mov	r2, r3
 442 019a 9200     		lsls	r2, r2, #2
 443 019c 1A44     		add	r2, r2, r3
 444 019e 0346     		mov	r3, r0
 445 01a0 1B01     		lsls	r3, r3, #4
 446 01a2 1B1A     		subs	r3, r3, r0
 447 01a4 1344     		add	r3, r3, r2
 448 01a6 2344     		add	r3, r3, r4
 449 01a8 0233     		adds	r3, r3, #2
 450 01aa 1B78     		ldrb	r3, [r3]	@ zero_extendqisi2
 451 01ac 1B09     		lsrs	r3, r3, #4
 452 01ae DBB2     		uxtb	r3, r3
 453 01b0 3033     		adds	r3, r3, #48
 454 01b2 DCB2     		uxtb	r4, r3
 455 01b4 7948     		ldr	r0, .L34
 456 01b6 2A46     		mov	r2, r5
 457 01b8 9200     		lsls	r2, r2, #2
 458 01ba 2A44     		add	r2, r2, r5
 459 01bc 5300     		lsls	r3, r2, #1
 460 01be 1A46     		mov	r2, r3
 461 01c0 0B46     		mov	r3, r1
ARM GAS  C:\Users\Lenovo\AppData\Local\Temp\ccHWhG0i.s 			page 11


 462 01c2 1B01     		lsls	r3, r3, #4
 463 01c4 5B1A     		subs	r3, r3, r1
 464 01c6 5B00     		lsls	r3, r3, #1
 465 01c8 1344     		add	r3, r3, r2
 466 01ca 0344     		add	r3, r3, r0
 467 01cc AD33     		adds	r3, r3, #173
 468 01ce 2246     		mov	r2, r4
 469 01d0 1A70     		strb	r2, [r3]
 101:PumpCom.c     ****             side.a.ProcessedTotals[((side.a.MepsanStore[4])&0x0F)-1][TotalRequestType][3] = (side.a
 470              		.loc 1 101 0
 471 01d2 724B     		ldr	r3, .L34
 472 01d4 93F87D30 		ldrb	r3, [r3, #125]	@ zero_extendqisi2
 473 01d8 03F00F03 		and	r3, r3, #15
 474 01dc 591E     		subs	r1, r3, #1
 475 01de 704B     		ldr	r3, .L34+4
 476 01e0 1B78     		ldrb	r3, [r3]	@ zero_extendqisi2
 477 01e2 1D46     		mov	r5, r3
 478 01e4 6D4B     		ldr	r3, .L34
 479 01e6 93F87D30 		ldrb	r3, [r3, #125]	@ zero_extendqisi2
 480 01ea 03F00F03 		and	r3, r3, #15
 481 01ee 581E     		subs	r0, r3, #1
 482 01f0 6B4B     		ldr	r3, .L34+4
 483 01f2 1B78     		ldrb	r3, [r3]	@ zero_extendqisi2
 484 01f4 694C     		ldr	r4, .L34
 485 01f6 1A46     		mov	r2, r3
 486 01f8 9200     		lsls	r2, r2, #2
 487 01fa 1A44     		add	r2, r2, r3
 488 01fc 0346     		mov	r3, r0
 489 01fe 1B01     		lsls	r3, r3, #4
 490 0200 1B1A     		subs	r3, r3, r0
 491 0202 1344     		add	r3, r3, r2
 492 0204 2344     		add	r3, r3, r4
 493 0206 0233     		adds	r3, r3, #2
 494 0208 1B78     		ldrb	r3, [r3]	@ zero_extendqisi2
 495 020a 03F00F03 		and	r3, r3, #15
 496 020e DBB2     		uxtb	r3, r3
 497 0210 3033     		adds	r3, r3, #48
 498 0212 DCB2     		uxtb	r4, r3
 499 0214 6148     		ldr	r0, .L34
 500 0216 2A46     		mov	r2, r5
 501 0218 9200     		lsls	r2, r2, #2
 502 021a 2A44     		add	r2, r2, r5
 503 021c 5300     		lsls	r3, r2, #1
 504 021e 1A46     		mov	r2, r3
 505 0220 0B46     		mov	r3, r1
 506 0222 1B01     		lsls	r3, r3, #4
 507 0224 5B1A     		subs	r3, r3, r1
 508 0226 5B00     		lsls	r3, r3, #1
 509 0228 1344     		add	r3, r3, r2
 510 022a 0344     		add	r3, r3, r0
 511 022c AE33     		adds	r3, r3, #174
 512 022e 2246     		mov	r2, r4
 513 0230 1A70     		strb	r2, [r3]
 102:PumpCom.c     ****             side.a.ProcessedTotals[((side.a.MepsanStore[4])&0x0F)-1][TotalRequestType][4] = (side.a
 514              		.loc 1 102 0
 515 0232 5A4B     		ldr	r3, .L34
 516 0234 93F87D30 		ldrb	r3, [r3, #125]	@ zero_extendqisi2
ARM GAS  C:\Users\Lenovo\AppData\Local\Temp\ccHWhG0i.s 			page 12


 517 0238 03F00F03 		and	r3, r3, #15
 518 023c 591E     		subs	r1, r3, #1
 519 023e 584B     		ldr	r3, .L34+4
 520 0240 1B78     		ldrb	r3, [r3]	@ zero_extendqisi2
 521 0242 1D46     		mov	r5, r3
 522 0244 554B     		ldr	r3, .L34
 523 0246 93F87D30 		ldrb	r3, [r3, #125]	@ zero_extendqisi2
 524 024a 03F00F03 		and	r3, r3, #15
 525 024e 581E     		subs	r0, r3, #1
 526 0250 534B     		ldr	r3, .L34+4
 527 0252 1B78     		ldrb	r3, [r3]	@ zero_extendqisi2
 528 0254 514C     		ldr	r4, .L34
 529 0256 1A46     		mov	r2, r3
 530 0258 9200     		lsls	r2, r2, #2
 531 025a 1A44     		add	r2, r2, r3
 532 025c 0346     		mov	r3, r0
 533 025e 1B01     		lsls	r3, r3, #4
 534 0260 1B1A     		subs	r3, r3, r0
 535 0262 1344     		add	r3, r3, r2
 536 0264 2344     		add	r3, r3, r4
 537 0266 0333     		adds	r3, r3, #3
 538 0268 1B78     		ldrb	r3, [r3]	@ zero_extendqisi2
 539 026a 1B09     		lsrs	r3, r3, #4
 540 026c DBB2     		uxtb	r3, r3
 541 026e 3033     		adds	r3, r3, #48
 542 0270 DCB2     		uxtb	r4, r3
 543 0272 4A48     		ldr	r0, .L34
 544 0274 2A46     		mov	r2, r5
 545 0276 9200     		lsls	r2, r2, #2
 546 0278 2A44     		add	r2, r2, r5
 547 027a 5300     		lsls	r3, r2, #1
 548 027c 1A46     		mov	r2, r3
 549 027e 0B46     		mov	r3, r1
 550 0280 1B01     		lsls	r3, r3, #4
 551 0282 5B1A     		subs	r3, r3, r1
 552 0284 5B00     		lsls	r3, r3, #1
 553 0286 1344     		add	r3, r3, r2
 554 0288 0344     		add	r3, r3, r0
 555 028a AF33     		adds	r3, r3, #175
 556 028c 2246     		mov	r2, r4
 557 028e 1A70     		strb	r2, [r3]
 103:PumpCom.c     ****             side.a.ProcessedTotals[((side.a.MepsanStore[4])&0x0F)-1][TotalRequestType][5] = (side.a
 558              		.loc 1 103 0
 559 0290 424B     		ldr	r3, .L34
 560 0292 93F87D30 		ldrb	r3, [r3, #125]	@ zero_extendqisi2
 561 0296 03F00F03 		and	r3, r3, #15
 562 029a 591E     		subs	r1, r3, #1
 563 029c 404B     		ldr	r3, .L34+4
 564 029e 1B78     		ldrb	r3, [r3]	@ zero_extendqisi2
 565 02a0 1D46     		mov	r5, r3
 566 02a2 3E4B     		ldr	r3, .L34
 567 02a4 93F87D30 		ldrb	r3, [r3, #125]	@ zero_extendqisi2
 568 02a8 03F00F03 		and	r3, r3, #15
 569 02ac 581E     		subs	r0, r3, #1
 570 02ae 3C4B     		ldr	r3, .L34+4
 571 02b0 1B78     		ldrb	r3, [r3]	@ zero_extendqisi2
 572 02b2 3A4C     		ldr	r4, .L34
ARM GAS  C:\Users\Lenovo\AppData\Local\Temp\ccHWhG0i.s 			page 13


 573 02b4 1A46     		mov	r2, r3
 574 02b6 9200     		lsls	r2, r2, #2
 575 02b8 1A44     		add	r2, r2, r3
 576 02ba 0346     		mov	r3, r0
 577 02bc 1B01     		lsls	r3, r3, #4
 578 02be 1B1A     		subs	r3, r3, r0
 579 02c0 1344     		add	r3, r3, r2
 580 02c2 2344     		add	r3, r3, r4
 581 02c4 0333     		adds	r3, r3, #3
 582 02c6 1B78     		ldrb	r3, [r3]	@ zero_extendqisi2
 583 02c8 03F00F03 		and	r3, r3, #15
 584 02cc DBB2     		uxtb	r3, r3
 585 02ce 3033     		adds	r3, r3, #48
 586 02d0 DCB2     		uxtb	r4, r3
 587 02d2 3248     		ldr	r0, .L34
 588 02d4 2A46     		mov	r2, r5
 589 02d6 9200     		lsls	r2, r2, #2
 590 02d8 2A44     		add	r2, r2, r5
 591 02da 5300     		lsls	r3, r2, #1
 592 02dc 1A46     		mov	r2, r3
 593 02de 0B46     		mov	r3, r1
 594 02e0 1B01     		lsls	r3, r3, #4
 595 02e2 5B1A     		subs	r3, r3, r1
 596 02e4 5B00     		lsls	r3, r3, #1
 597 02e6 1344     		add	r3, r3, r2
 598 02e8 0344     		add	r3, r3, r0
 599 02ea B033     		adds	r3, r3, #176
 600 02ec 2246     		mov	r2, r4
 601 02ee 1A70     		strb	r2, [r3]
 104:PumpCom.c     ****             side.a.ProcessedTotals[((side.a.MepsanStore[4])&0x0F)-1][TotalRequestType][6] = (side.a
 602              		.loc 1 104 0
 603 02f0 2A4B     		ldr	r3, .L34
 604 02f2 93F87D30 		ldrb	r3, [r3, #125]	@ zero_extendqisi2
 605 02f6 03F00F03 		and	r3, r3, #15
 606 02fa 591E     		subs	r1, r3, #1
 607 02fc 284B     		ldr	r3, .L34+4
 608 02fe 1B78     		ldrb	r3, [r3]	@ zero_extendqisi2
 609 0300 1D46     		mov	r5, r3
 610 0302 264B     		ldr	r3, .L34
 611 0304 93F87D30 		ldrb	r3, [r3, #125]	@ zero_extendqisi2
 612 0308 03F00F03 		and	r3, r3, #15
 613 030c 581E     		subs	r0, r3, #1
 614 030e 244B     		ldr	r3, .L34+4
 615 0310 1B78     		ldrb	r3, [r3]	@ zero_extendqisi2
 616 0312 224C     		ldr	r4, .L34
 617 0314 1A46     		mov	r2, r3
 618 0316 9200     		lsls	r2, r2, #2
 619 0318 1A44     		add	r2, r2, r3
 620 031a 0346     		mov	r3, r0
 621 031c 1B01     		lsls	r3, r3, #4
 622 031e 1B1A     		subs	r3, r3, r0
 623 0320 1344     		add	r3, r3, r2
 624 0322 2344     		add	r3, r3, r4
 625 0324 0433     		adds	r3, r3, #4
 626 0326 1B78     		ldrb	r3, [r3]	@ zero_extendqisi2
 627 0328 1B09     		lsrs	r3, r3, #4
 628 032a DBB2     		uxtb	r3, r3
ARM GAS  C:\Users\Lenovo\AppData\Local\Temp\ccHWhG0i.s 			page 14


 629 032c 3033     		adds	r3, r3, #48
 630 032e DCB2     		uxtb	r4, r3
 631 0330 1A48     		ldr	r0, .L34
 632 0332 2A46     		mov	r2, r5
 633 0334 9200     		lsls	r2, r2, #2
 634 0336 2A44     		add	r2, r2, r5
 635 0338 5300     		lsls	r3, r2, #1
 636 033a 1A46     		mov	r2, r3
 637 033c 0B46     		mov	r3, r1
 638 033e 1B01     		lsls	r3, r3, #4
 639 0340 5B1A     		subs	r3, r3, r1
 640 0342 5B00     		lsls	r3, r3, #1
 641 0344 1344     		add	r3, r3, r2
 642 0346 0344     		add	r3, r3, r0
 643 0348 B133     		adds	r3, r3, #177
 644 034a 2246     		mov	r2, r4
 645 034c 1A70     		strb	r2, [r3]
 105:PumpCom.c     ****             side.a.ProcessedTotals[((side.a.MepsanStore[4])&0x0F)-1][TotalRequestType][7] = (side.a
 646              		.loc 1 105 0
 647 034e 134B     		ldr	r3, .L34
 648 0350 93F87D30 		ldrb	r3, [r3, #125]	@ zero_extendqisi2
 649 0354 03F00F03 		and	r3, r3, #15
 650 0358 591E     		subs	r1, r3, #1
 651 035a 114B     		ldr	r3, .L34+4
 652 035c 1B78     		ldrb	r3, [r3]	@ zero_extendqisi2
 653 035e 1D46     		mov	r5, r3
 654 0360 0E4B     		ldr	r3, .L34
 655 0362 93F87D30 		ldrb	r3, [r3, #125]	@ zero_extendqisi2
 656 0366 03F00F03 		and	r3, r3, #15
 657 036a 581E     		subs	r0, r3, #1
 658 036c 0C4B     		ldr	r3, .L34+4
 659 036e 1B78     		ldrb	r3, [r3]	@ zero_extendqisi2
 660 0370 0A4C     		ldr	r4, .L34
 661 0372 1A46     		mov	r2, r3
 662 0374 9200     		lsls	r2, r2, #2
 663 0376 1A44     		add	r2, r2, r3
 664 0378 0346     		mov	r3, r0
 665 037a 1B01     		lsls	r3, r3, #4
 666 037c 1B1A     		subs	r3, r3, r0
 667 037e 1344     		add	r3, r3, r2
 668 0380 2344     		add	r3, r3, r4
 669 0382 0433     		adds	r3, r3, #4
 670 0384 1B78     		ldrb	r3, [r3]	@ zero_extendqisi2
 671 0386 03F00F03 		and	r3, r3, #15
 672 038a DBB2     		uxtb	r3, r3
 673 038c 3033     		adds	r3, r3, #48
 674 038e DCB2     		uxtb	r4, r3
 675 0390 0248     		ldr	r0, .L34
 676 0392 2A46     		mov	r2, r5
 677 0394 9200     		lsls	r2, r2, #2
 678 0396 2A44     		add	r2, r2, r5
 679 0398 5300     		lsls	r3, r2, #1
 680 039a 03E0     		b	.L35
 681              	.L36:
 682              		.align	2
 683              	.L34:
 684 039c 00000000 		.word	side
ARM GAS  C:\Users\Lenovo\AppData\Local\Temp\ccHWhG0i.s 			page 15


 685 03a0 00000000 		.word	TotalRequestType
 686              	.L35:
 687 03a4 1A46     		mov	r2, r3
 688 03a6 0B46     		mov	r3, r1
 689 03a8 1B01     		lsls	r3, r3, #4
 690 03aa 5B1A     		subs	r3, r3, r1
 691 03ac 5B00     		lsls	r3, r3, #1
 692 03ae 1344     		add	r3, r3, r2
 693 03b0 0344     		add	r3, r3, r0
 694 03b2 B233     		adds	r3, r3, #178
 695 03b4 2246     		mov	r2, r4
 696 03b6 1A70     		strb	r2, [r3]
 106:PumpCom.c     ****             side.a.ProcessedTotals[((side.a.MepsanStore[4])&0x0F)-1][TotalRequestType][8] = (side.a
 697              		.loc 1 106 0
 698 03b8 8E4B     		ldr	r3, .L37
 699 03ba 93F87D30 		ldrb	r3, [r3, #125]	@ zero_extendqisi2
 700 03be 03F00F03 		and	r3, r3, #15
 701 03c2 591E     		subs	r1, r3, #1
 702 03c4 8C4B     		ldr	r3, .L37+4
 703 03c6 1B78     		ldrb	r3, [r3]	@ zero_extendqisi2
 704 03c8 1D46     		mov	r5, r3
 705 03ca 8A4B     		ldr	r3, .L37
 706 03cc 93F87D30 		ldrb	r3, [r3, #125]	@ zero_extendqisi2
 707 03d0 03F00F03 		and	r3, r3, #15
 708 03d4 581E     		subs	r0, r3, #1
 709 03d6 884B     		ldr	r3, .L37+4
 710 03d8 1B78     		ldrb	r3, [r3]	@ zero_extendqisi2
 711 03da 864C     		ldr	r4, .L37
 712 03dc 1A46     		mov	r2, r3
 713 03de 9200     		lsls	r2, r2, #2
 714 03e0 1A44     		add	r2, r2, r3
 715 03e2 0346     		mov	r3, r0
 716 03e4 1B01     		lsls	r3, r3, #4
 717 03e6 1B1A     		subs	r3, r3, r0
 718 03e8 1344     		add	r3, r3, r2
 719 03ea 2344     		add	r3, r3, r4
 720 03ec 0533     		adds	r3, r3, #5
 721 03ee 1B78     		ldrb	r3, [r3]	@ zero_extendqisi2
 722 03f0 1B09     		lsrs	r3, r3, #4
 723 03f2 DBB2     		uxtb	r3, r3
 724 03f4 3033     		adds	r3, r3, #48
 725 03f6 DCB2     		uxtb	r4, r3
 726 03f8 7E48     		ldr	r0, .L37
 727 03fa 2A46     		mov	r2, r5
 728 03fc 9200     		lsls	r2, r2, #2
 729 03fe 2A44     		add	r2, r2, r5
 730 0400 5300     		lsls	r3, r2, #1
 731 0402 1A46     		mov	r2, r3
 732 0404 0B46     		mov	r3, r1
 733 0406 1B01     		lsls	r3, r3, #4
 734 0408 5B1A     		subs	r3, r3, r1
 735 040a 5B00     		lsls	r3, r3, #1
 736 040c 1344     		add	r3, r3, r2
 737 040e 0344     		add	r3, r3, r0
 738 0410 B333     		adds	r3, r3, #179
 739 0412 2246     		mov	r2, r4
 740 0414 1A70     		strb	r2, [r3]
ARM GAS  C:\Users\Lenovo\AppData\Local\Temp\ccHWhG0i.s 			page 16


 107:PumpCom.c     ****             side.a.ProcessedTotals[((side.a.MepsanStore[4])&0x0F)-1][TotalRequestType][9] = (side.a
 741              		.loc 1 107 0
 742 0416 774B     		ldr	r3, .L37
 743 0418 93F87D30 		ldrb	r3, [r3, #125]	@ zero_extendqisi2
 744 041c 03F00F03 		and	r3, r3, #15
 745 0420 591E     		subs	r1, r3, #1
 746 0422 754B     		ldr	r3, .L37+4
 747 0424 1B78     		ldrb	r3, [r3]	@ zero_extendqisi2
 748 0426 1D46     		mov	r5, r3
 749 0428 724B     		ldr	r3, .L37
 750 042a 93F87D30 		ldrb	r3, [r3, #125]	@ zero_extendqisi2
 751 042e 03F00F03 		and	r3, r3, #15
 752 0432 581E     		subs	r0, r3, #1
 753 0434 704B     		ldr	r3, .L37+4
 754 0436 1B78     		ldrb	r3, [r3]	@ zero_extendqisi2
 755 0438 6E4C     		ldr	r4, .L37
 756 043a 1A46     		mov	r2, r3
 757 043c 9200     		lsls	r2, r2, #2
 758 043e 1A44     		add	r2, r2, r3
 759 0440 0346     		mov	r3, r0
 760 0442 1B01     		lsls	r3, r3, #4
 761 0444 1B1A     		subs	r3, r3, r0
 762 0446 1344     		add	r3, r3, r2
 763 0448 2344     		add	r3, r3, r4
 764 044a 0533     		adds	r3, r3, #5
 765 044c 1B78     		ldrb	r3, [r3]	@ zero_extendqisi2
 766 044e 03F00F03 		and	r3, r3, #15
 767 0452 DBB2     		uxtb	r3, r3
 768 0454 3033     		adds	r3, r3, #48
 769 0456 DCB2     		uxtb	r4, r3
 770 0458 6648     		ldr	r0, .L37
 771 045a 2A46     		mov	r2, r5
 772 045c 9200     		lsls	r2, r2, #2
 773 045e 2A44     		add	r2, r2, r5
 774 0460 5300     		lsls	r3, r2, #1
 775 0462 1A46     		mov	r2, r3
 776 0464 0B46     		mov	r3, r1
 777 0466 1B01     		lsls	r3, r3, #4
 778 0468 5B1A     		subs	r3, r3, r1
 779 046a 5B00     		lsls	r3, r3, #1
 780 046c 1344     		add	r3, r3, r2
 781 046e 0344     		add	r3, r3, r0
 782 0470 B433     		adds	r3, r3, #180
 783 0472 2246     		mov	r2, r4
 784 0474 1A70     		strb	r2, [r3]
 108:PumpCom.c     ****             
 109:PumpCom.c     ****             EnablePin_Write (1u);
 785              		.loc 1 109 0
 786 0476 0120     		movs	r0, #1
 787 0478 FFF7FEFF 		bl	EnablePin_Write
 110:PumpCom.c     ****             UART_1_PutChar((0x50|address));
 788              		.loc 1 110 0
 789 047c 3B78     		ldrb	r3, [r7]
 790 047e 43F05003 		orr	r3, r3, #80
 791 0482 DBB2     		uxtb	r3, r3
 792 0484 1846     		mov	r0, r3
 793 0486 FFF7FEFF 		bl	UART_1_PutChar
ARM GAS  C:\Users\Lenovo\AppData\Local\Temp\ccHWhG0i.s 			page 17


 111:PumpCom.c     ****             UART_1_PutChar(0xC0|(side.a.MepsanStore[1]&0x0F));
 794              		.loc 1 111 0
 795 048a 5A4B     		ldr	r3, .L37
 796 048c 93F87A30 		ldrb	r3, [r3, #122]	@ zero_extendqisi2
 797 0490 5BB2     		sxtb	r3, r3
 798 0492 03F00F03 		and	r3, r3, #15
 799 0496 5BB2     		sxtb	r3, r3
 800 0498 63F03F03 		orn	r3, r3, #63
 801 049c 5BB2     		sxtb	r3, r3
 802 049e DBB2     		uxtb	r3, r3
 803 04a0 1846     		mov	r0, r3
 804 04a2 FFF7FEFF 		bl	UART_1_PutChar
 112:PumpCom.c     ****             UART_1_PutChar(0xFA); 
 805              		.loc 1 112 0
 806 04a6 FA20     		movs	r0, #250
 807 04a8 FFF7FEFF 		bl	UART_1_PutChar
 113:PumpCom.c     ****             CyDelay(4);
 808              		.loc 1 113 0
 809 04ac 0420     		movs	r0, #4
 810 04ae FFF7FEFF 		bl	CyDelay
 114:PumpCom.c     ****             EnablePin_Write (0u);
 811              		.loc 1 114 0
 812 04b2 0020     		movs	r0, #0
 813 04b4 FFF7FEFF 		bl	EnablePin_Write
 814              	.L17:
 115:PumpCom.c     ****         }
 116:PumpCom.c     ****         if(side.a.MepsanStore[2] == 0x02){
 815              		.loc 1 116 0
 816 04b8 4E4B     		ldr	r3, .L37
 817 04ba 93F87B30 		ldrb	r3, [r3, #123]	@ zero_extendqisi2
 818 04be 022B     		cmp	r3, #2
 819 04c0 42D1     		bne	.L14
 820              	.LBB4:
 117:PumpCom.c     ****             for(uint8 x = 4; x < 8; x++ ){
 821              		.loc 1 117 0
 822 04c2 0423     		movs	r3, #4
 823 04c4 7B71     		strb	r3, [r7, #5]
 824 04c6 1BE0     		b	.L20
 825              	.L21:
 118:PumpCom.c     ****                 side.a.volumeSale[x-4] = side.a.MepsanStore[x];
 826              		.loc 1 118 0 discriminator 3
 827 04c8 7B79     		ldrb	r3, [r7, #5]	@ zero_extendqisi2
 828 04ca 043B     		subs	r3, r3, #4
 829 04cc 7A79     		ldrb	r2, [r7, #5]	@ zero_extendqisi2
 830 04ce 4949     		ldr	r1, .L37
 831 04d0 0A44     		add	r2, r2, r1
 832 04d2 92F87910 		ldrb	r1, [r2, #121]	@ zero_extendqisi2
 833 04d6 474A     		ldr	r2, .L37
 834 04d8 1344     		add	r3, r3, r2
 835 04da 0A46     		mov	r2, r1
 836 04dc 83F86120 		strb	r2, [r3, #97]
 119:PumpCom.c     ****                 side.a.moneySale[x-4] = side.a.MepsanStore[x+4];
 837              		.loc 1 119 0 discriminator 3
 838 04e0 7B79     		ldrb	r3, [r7, #5]	@ zero_extendqisi2
 839 04e2 043B     		subs	r3, r3, #4
 840 04e4 7A79     		ldrb	r2, [r7, #5]	@ zero_extendqisi2
 841 04e6 0432     		adds	r2, r2, #4
ARM GAS  C:\Users\Lenovo\AppData\Local\Temp\ccHWhG0i.s 			page 18


 842 04e8 4249     		ldr	r1, .L37
 843 04ea 0A44     		add	r2, r2, r1
 844 04ec 92F87910 		ldrb	r1, [r2, #121]	@ zero_extendqisi2
 845 04f0 404A     		ldr	r2, .L37
 846 04f2 1344     		add	r3, r3, r2
 847 04f4 0A46     		mov	r2, r1
 848 04f6 83F85D20 		strb	r2, [r3, #93]
 117:PumpCom.c     ****             for(uint8 x = 4; x < 8; x++ ){
 849              		.loc 1 117 0 discriminator 3
 850 04fa 7B79     		ldrb	r3, [r7, #5]	@ zero_extendqisi2
 851 04fc 0133     		adds	r3, r3, #1
 852 04fe 7B71     		strb	r3, [r7, #5]
 853              	.L20:
 117:PumpCom.c     ****             for(uint8 x = 4; x < 8; x++ ){
 854              		.loc 1 117 0 is_stmt 0 discriminator 1
 855 0500 7B79     		ldrb	r3, [r7, #5]	@ zero_extendqisi2
 856 0502 072B     		cmp	r3, #7
 857 0504 E0D9     		bls	.L21
 858              	.LBE4:
 120:PumpCom.c     ****             }
 121:PumpCom.c     ****             EnablePin_Write (1u);
 859              		.loc 1 121 0 is_stmt 1
 860 0506 0120     		movs	r0, #1
 861 0508 FFF7FEFF 		bl	EnablePin_Write
 122:PumpCom.c     ****             UART_1_PutChar((0x50|address));
 862              		.loc 1 122 0
 863 050c 3B78     		ldrb	r3, [r7]
 864 050e 43F05003 		orr	r3, r3, #80
 865 0512 DBB2     		uxtb	r3, r3
 866 0514 1846     		mov	r0, r3
 867 0516 FFF7FEFF 		bl	UART_1_PutChar
 123:PumpCom.c     ****             UART_1_PutChar(0xC0|(side.a.MepsanStore[1]&0x0F));
 868              		.loc 1 123 0
 869 051a 364B     		ldr	r3, .L37
 870 051c 93F87A30 		ldrb	r3, [r3, #122]	@ zero_extendqisi2
 871 0520 5BB2     		sxtb	r3, r3
 872 0522 03F00F03 		and	r3, r3, #15
 873 0526 5BB2     		sxtb	r3, r3
 874 0528 63F03F03 		orn	r3, r3, #63
 875 052c 5BB2     		sxtb	r3, r3
 876 052e DBB2     		uxtb	r3, r3
 877 0530 1846     		mov	r0, r3
 878 0532 FFF7FEFF 		bl	UART_1_PutChar
 124:PumpCom.c     ****             UART_1_PutChar(0xFA); 
 879              		.loc 1 124 0
 880 0536 FA20     		movs	r0, #250
 881 0538 FFF7FEFF 		bl	UART_1_PutChar
 125:PumpCom.c     ****             CyDelay(4);
 882              		.loc 1 125 0
 883 053c 0420     		movs	r0, #4
 884 053e FFF7FEFF 		bl	CyDelay
 126:PumpCom.c     ****             EnablePin_Write (0u);
 885              		.loc 1 126 0
 886 0542 0020     		movs	r0, #0
 887 0544 FFF7FEFF 		bl	EnablePin_Write
 888              	.L14:
 127:PumpCom.c     ****         }
ARM GAS  C:\Users\Lenovo\AppData\Local\Temp\ccHWhG0i.s 			page 19


 128:PumpCom.c     ****     }
 129:PumpCom.c     ****     if(address == side.b.dir){
 889              		.loc 1 129 0
 890 0548 2A4B     		ldr	r3, .L37
 891 054a 93F83331 		ldrb	r3, [r3, #307]	@ zero_extendqisi2
 892 054e 3A78     		ldrb	r2, [r7]	@ zero_extendqisi2
 893 0550 9A42     		cmp	r2, r3
 894 0552 14D1     		bne	.L22
 895              	.LBB5:
 130:PumpCom.c     ****         for(uint8 MepRx = 1; MepRx < size + 1; MepRx++){
 896              		.loc 1 130 0
 897 0554 0123     		movs	r3, #1
 898 0556 3B71     		strb	r3, [r7, #4]
 899 0558 0CE0     		b	.L23
 900              	.L24:
 131:PumpCom.c     ****             side.b.MepsanStore[MepRx - 1] = MepsanResponse[MepRx];
 901              		.loc 1 131 0 discriminator 3
 902 055a 3B79     		ldrb	r3, [r7, #4]	@ zero_extendqisi2
 903 055c 013B     		subs	r3, r3, #1
 904 055e 3A79     		ldrb	r2, [r7, #4]	@ zero_extendqisi2
 905 0560 2649     		ldr	r1, .L37+8
 906 0562 895C     		ldrb	r1, [r1, r2]	@ zero_extendqisi2
 907 0564 234A     		ldr	r2, .L37
 908 0566 1344     		add	r3, r3, r2
 909 0568 0A46     		mov	r2, r1
 910 056a 83F8AC21 		strb	r2, [r3, #428]
 130:PumpCom.c     ****         for(uint8 MepRx = 1; MepRx < size + 1; MepRx++){
 911              		.loc 1 130 0 discriminator 3
 912 056e 3B79     		ldrb	r3, [r7, #4]	@ zero_extendqisi2
 913 0570 0133     		adds	r3, r3, #1
 914 0572 3B71     		strb	r3, [r7, #4]
 915              	.L23:
 130:PumpCom.c     ****         for(uint8 MepRx = 1; MepRx < size + 1; MepRx++){
 916              		.loc 1 130 0 is_stmt 0 discriminator 1
 917 0574 3A79     		ldrb	r2, [r7, #4]	@ zero_extendqisi2
 918 0576 7B78     		ldrb	r3, [r7, #1]	@ zero_extendqisi2
 919 0578 0133     		adds	r3, r3, #1
 920 057a 9A42     		cmp	r2, r3
 921 057c EDDB     		blt	.L24
 922              	.L22:
 923              	.LBE5:
 132:PumpCom.c     ****         }
 133:PumpCom.c     ****     }
 134:PumpCom.c     ****     if(address == side.c.dir){
 924              		.loc 1 134 0 is_stmt 1
 925 057e 1D4B     		ldr	r3, .L37
 926 0580 93F86632 		ldrb	r3, [r3, #614]	@ zero_extendqisi2
 927 0584 3A78     		ldrb	r2, [r7]	@ zero_extendqisi2
 928 0586 9A42     		cmp	r2, r3
 929 0588 14D1     		bne	.L25
 930              	.LBB6:
 135:PumpCom.c     ****         for(uint8 MepRx = 1; MepRx < size + 1; MepRx++){
 931              		.loc 1 135 0
 932 058a 0123     		movs	r3, #1
 933 058c FB70     		strb	r3, [r7, #3]
 934 058e 0CE0     		b	.L26
 935              	.L27:
ARM GAS  C:\Users\Lenovo\AppData\Local\Temp\ccHWhG0i.s 			page 20


 136:PumpCom.c     ****             side.c.MepsanStore[MepRx - 1] = MepsanResponse[MepRx];
 936              		.loc 1 136 0 discriminator 3
 937 0590 FB78     		ldrb	r3, [r7, #3]	@ zero_extendqisi2
 938 0592 013B     		subs	r3, r3, #1
 939 0594 FA78     		ldrb	r2, [r7, #3]	@ zero_extendqisi2
 940 0596 1949     		ldr	r1, .L37+8
 941 0598 895C     		ldrb	r1, [r1, r2]	@ zero_extendqisi2
 942 059a 164A     		ldr	r2, .L37
 943 059c 1344     		add	r3, r3, r2
 944 059e 0A46     		mov	r2, r1
 945 05a0 83F8DF22 		strb	r2, [r3, #735]
 135:PumpCom.c     ****         for(uint8 MepRx = 1; MepRx < size + 1; MepRx++){
 946              		.loc 1 135 0 discriminator 3
 947 05a4 FB78     		ldrb	r3, [r7, #3]	@ zero_extendqisi2
 948 05a6 0133     		adds	r3, r3, #1
 949 05a8 FB70     		strb	r3, [r7, #3]
 950              	.L26:
 135:PumpCom.c     ****         for(uint8 MepRx = 1; MepRx < size + 1; MepRx++){
 951              		.loc 1 135 0 is_stmt 0 discriminator 1
 952 05aa FA78     		ldrb	r2, [r7, #3]	@ zero_extendqisi2
 953 05ac 7B78     		ldrb	r3, [r7, #1]	@ zero_extendqisi2
 954 05ae 0133     		adds	r3, r3, #1
 955 05b0 9A42     		cmp	r2, r3
 956 05b2 EDDB     		blt	.L27
 957              	.L25:
 958              	.LBE6:
 137:PumpCom.c     ****         }
 138:PumpCom.c     ****     }
 139:PumpCom.c     ****     if(address == side.d.dir){
 959              		.loc 1 139 0 is_stmt 1
 960 05b4 0F4B     		ldr	r3, .L37
 961 05b6 93F89933 		ldrb	r3, [r3, #921]	@ zero_extendqisi2
 962 05ba 3A78     		ldrb	r2, [r7]	@ zero_extendqisi2
 963 05bc 9A42     		cmp	r2, r3
 964 05be 14D1     		bne	.L31
 965              	.LBB7:
 140:PumpCom.c     ****         for(uint8 MepRx = 1; MepRx < size + 1; MepRx++){
 966              		.loc 1 140 0
 967 05c0 0123     		movs	r3, #1
 968 05c2 BB70     		strb	r3, [r7, #2]
 969 05c4 0CE0     		b	.L29
 970              	.L30:
 141:PumpCom.c     ****             side.d.MepsanStore[MepRx - 1] = MepsanResponse[MepRx];
 971              		.loc 1 141 0 discriminator 3
 972 05c6 BB78     		ldrb	r3, [r7, #2]	@ zero_extendqisi2
 973 05c8 013B     		subs	r3, r3, #1
 974 05ca BA78     		ldrb	r2, [r7, #2]	@ zero_extendqisi2
 975 05cc 0B49     		ldr	r1, .L37+8
 976 05ce 895C     		ldrb	r1, [r1, r2]	@ zero_extendqisi2
 977 05d0 084A     		ldr	r2, .L37
 978 05d2 1344     		add	r3, r3, r2
 979 05d4 0A46     		mov	r2, r1
 980 05d6 83F81224 		strb	r2, [r3, #1042]
 140:PumpCom.c     ****         for(uint8 MepRx = 1; MepRx < size + 1; MepRx++){
 981              		.loc 1 140 0 discriminator 3
 982 05da BB78     		ldrb	r3, [r7, #2]	@ zero_extendqisi2
 983 05dc 0133     		adds	r3, r3, #1
ARM GAS  C:\Users\Lenovo\AppData\Local\Temp\ccHWhG0i.s 			page 21


 984 05de BB70     		strb	r3, [r7, #2]
 985              	.L29:
 140:PumpCom.c     ****         for(uint8 MepRx = 1; MepRx < size + 1; MepRx++){
 986              		.loc 1 140 0 is_stmt 0 discriminator 1
 987 05e0 BA78     		ldrb	r2, [r7, #2]	@ zero_extendqisi2
 988 05e2 7B78     		ldrb	r3, [r7, #1]	@ zero_extendqisi2
 989 05e4 0133     		adds	r3, r3, #1
 990 05e6 9A42     		cmp	r2, r3
 991 05e8 EDDB     		blt	.L30
 992              	.L31:
 993              	.LBE7:
 142:PumpCom.c     ****         }
 143:PumpCom.c     ****     } 
 144:PumpCom.c     **** }
 994              		.loc 1 144 0 is_stmt 1
 995 05ea 00BF     		nop
 996 05ec 0C37     		adds	r7, r7, #12
 997              		.cfi_def_cfa_offset 20
 998 05ee BD46     		mov	sp, r7
 999              		.cfi_def_cfa_register 13
 1000              		@ sp needed
 1001 05f0 F0BD     		pop	{r4, r5, r6, r7, pc}
 1002              	.L38:
 1003 05f2 00BF     		.align	2
 1004              	.L37:
 1005 05f4 00000000 		.word	side
 1006 05f8 00000000 		.word	TotalRequestType
 1007 05fc 00000000 		.word	MepsanResponse
 1008              		.cfi_endproc
 1009              	.LFE64:
 1010              		.size	GetResponse, .-GetResponse
 1011              		.section	.text.GetAddress,"ax",%progbits
 1012              		.align	2
 1013              		.global	GetAddress
 1014              		.thumb
 1015              		.thumb_func
 1016              		.type	GetAddress, %function
 1017              	GetAddress:
 1018              	.LFB65:
 145:PumpCom.c     **** 
 146:PumpCom.c     **** /*******************************************************************************
 147:PumpCom.c     **** * Function Name: GetAddress
 148:PumpCom.c     **** ********************************************************************************
 149:PumpCom.c     **** *
 150:PumpCom.c     **** *
 151:PumpCom.c     **** *******************************************************************************/
 152:PumpCom.c     **** uint8 GetAddress (uint8 pos){     
 1019              		.loc 1 152 0
 1020              		.cfi_startproc
 1021              		@ args = 0, pretend = 0, frame = 16
 1022              		@ frame_needed = 1, uses_anonymous_args = 0
 1023 0000 90B5     		push	{r4, r7, lr}
 1024              		.cfi_def_cfa_offset 12
 1025              		.cfi_offset 4, -12
 1026              		.cfi_offset 7, -8
 1027              		.cfi_offset 14, -4
 1028 0002 85B0     		sub	sp, sp, #20
ARM GAS  C:\Users\Lenovo\AppData\Local\Temp\ccHWhG0i.s 			page 22


 1029              		.cfi_def_cfa_offset 32
 1030 0004 00AF     		add	r7, sp, #0
 1031              		.cfi_def_cfa_register 7
 1032 0006 0346     		mov	r3, r0
 1033 0008 FB71     		strb	r3, [r7, #7]
 153:PumpCom.c     ****     side.a.dir = 0xFF;
 1034              		.loc 1 153 0
 1035 000a 274B     		ldr	r3, .L44
 1036 000c FF22     		movs	r2, #255
 1037 000e 1A70     		strb	r2, [r3]
 154:PumpCom.c     ****     side.b.dir = 0xFF;
 1038              		.loc 1 154 0
 1039 0010 254B     		ldr	r3, .L44
 1040 0012 FF22     		movs	r2, #255
 1041 0014 83F83321 		strb	r2, [r3, #307]
 155:PumpCom.c     ****     side.c.dir = 0xFF;
 1042              		.loc 1 155 0
 1043 0018 234B     		ldr	r3, .L44
 1044 001a FF22     		movs	r2, #255
 1045 001c 83F86622 		strb	r2, [r3, #614]
 156:PumpCom.c     ****     side.d.dir = 0xFF;
 1046              		.loc 1 156 0
 1047 0020 214B     		ldr	r3, .L44
 1048 0022 FF22     		movs	r2, #255
 1049 0024 83F89923 		strb	r2, [r3, #921]
 157:PumpCom.c     ****     uint8 size;
 158:PumpCom.c     ****     EnablePin_Write (1u);
 1050              		.loc 1 158 0
 1051 0028 0120     		movs	r0, #1
 1052 002a FFF7FEFF 		bl	EnablePin_Write
 159:PumpCom.c     ****     UART_1_PutChar((0x50|pos));
 1053              		.loc 1 159 0
 1054 002e FB79     		ldrb	r3, [r7, #7]
 1055 0030 43F05003 		orr	r3, r3, #80
 1056 0034 DBB2     		uxtb	r3, r3
 1057 0036 1846     		mov	r0, r3
 1058 0038 FFF7FEFF 		bl	UART_1_PutChar
 160:PumpCom.c     ****     UART_1_PutChar(0x20);
 1059              		.loc 1 160 0
 1060 003c 2020     		movs	r0, #32
 1061 003e FFF7FEFF 		bl	UART_1_PutChar
 161:PumpCom.c     ****     UART_1_PutChar(0xFA); 
 1062              		.loc 1 161 0
 1063 0042 FA20     		movs	r0, #250
 1064 0044 FFF7FEFF 		bl	UART_1_PutChar
 162:PumpCom.c     ****     CyDelay(4);
 1065              		.loc 1 162 0
 1066 0048 0420     		movs	r0, #4
 1067 004a FFF7FEFF 		bl	CyDelay
 163:PumpCom.c     ****     EnablePin_Write (0u);
 1068              		.loc 1 163 0
 1069 004e 0020     		movs	r0, #0
 1070 0050 FFF7FEFF 		bl	EnablePin_Write
 164:PumpCom.c     ****     size = UART_1_GetRxBufferSize();
 1071              		.loc 1 164 0
 1072 0054 FFF7FEFF 		bl	UART_1_GetRxBufferSize
 1073 0058 0346     		mov	r3, r0
ARM GAS  C:\Users\Lenovo\AppData\Local\Temp\ccHWhG0i.s 			page 23


 1074 005a BB73     		strb	r3, [r7, #14]
 1075              	.LBB8:
 165:PumpCom.c     ****     for(uint8 MepRx = 0; MepRx < size; MepRx++){
 1076              		.loc 1 165 0
 1077 005c 0023     		movs	r3, #0
 1078 005e FB73     		strb	r3, [r7, #15]
 1079 0060 09E0     		b	.L40
 1080              	.L41:
 166:PumpCom.c     ****        MepsanResponse[MepRx] = UART_1_ReadRxData();        
 1081              		.loc 1 166 0 discriminator 3
 1082 0062 FC7B     		ldrb	r4, [r7, #15]	@ zero_extendqisi2
 1083 0064 FFF7FEFF 		bl	UART_1_ReadRxData
 1084 0068 0346     		mov	r3, r0
 1085 006a 1A46     		mov	r2, r3
 1086 006c 0F4B     		ldr	r3, .L44+4
 1087 006e 1A55     		strb	r2, [r3, r4]
 165:PumpCom.c     ****     for(uint8 MepRx = 0; MepRx < size; MepRx++){
 1088              		.loc 1 165 0 discriminator 3
 1089 0070 FB7B     		ldrb	r3, [r7, #15]	@ zero_extendqisi2
 1090 0072 0133     		adds	r3, r3, #1
 1091 0074 FB73     		strb	r3, [r7, #15]
 1092              	.L40:
 165:PumpCom.c     ****     for(uint8 MepRx = 0; MepRx < size; MepRx++){
 1093              		.loc 1 165 0 is_stmt 0 discriminator 1
 1094 0076 FA7B     		ldrb	r2, [r7, #15]	@ zero_extendqisi2
 1095 0078 BB7B     		ldrb	r3, [r7, #14]	@ zero_extendqisi2
 1096 007a 9A42     		cmp	r2, r3
 1097 007c F1D3     		bcc	.L41
 1098              	.LBE8:
 167:PumpCom.c     ****     }
 168:PumpCom.c     ****     UART_1_ClearRxBuffer(); 
 1099              		.loc 1 168 0 is_stmt 1
 1100 007e FFF7FEFF 		bl	UART_1_ClearRxBuffer
 169:PumpCom.c     ****     CyDelay(300); 
 1101              		.loc 1 169 0
 1102 0082 4FF49670 		mov	r0, #300
 1103 0086 FFF7FEFF 		bl	CyDelay
 170:PumpCom.c     ****     if(size>=1){              
 1104              		.loc 1 170 0
 1105 008a BB7B     		ldrb	r3, [r7, #14]	@ zero_extendqisi2
 1106 008c 002B     		cmp	r3, #0
 1107 008e 05D0     		beq	.L42
 171:PumpCom.c     ****         return MepsanResponse[0] & 0x0F;
 1108              		.loc 1 171 0
 1109 0090 064B     		ldr	r3, .L44+4
 1110 0092 1B78     		ldrb	r3, [r3]	@ zero_extendqisi2
 1111 0094 03F00F03 		and	r3, r3, #15
 1112 0098 DBB2     		uxtb	r3, r3
 1113 009a 00E0     		b	.L43
 1114              	.L42:
 172:PumpCom.c     ****         
 173:PumpCom.c     ****     }else{
 174:PumpCom.c     ****        return 0xFF;
 1115              		.loc 1 174 0
 1116 009c FF23     		movs	r3, #255
 1117              	.L43:
 175:PumpCom.c     ****     }
ARM GAS  C:\Users\Lenovo\AppData\Local\Temp\ccHWhG0i.s 			page 24


 176:PumpCom.c     **** }
 1118              		.loc 1 176 0
 1119 009e 1846     		mov	r0, r3
 1120 00a0 1437     		adds	r7, r7, #20
 1121              		.cfi_def_cfa_offset 12
 1122 00a2 BD46     		mov	sp, r7
 1123              		.cfi_def_cfa_register 13
 1124              		@ sp needed
 1125 00a4 90BD     		pop	{r4, r7, pc}
 1126              	.L45:
 1127 00a6 00BF     		.align	2
 1128              	.L44:
 1129 00a8 00000000 		.word	side
 1130 00ac 00000000 		.word	MepsanResponse
 1131              		.cfi_endproc
 1132              	.LFE65:
 1133              		.size	GetAddress, .-GetAddress
 1134              		.section	.text.Authorize,"ax",%progbits
 1135              		.align	2
 1136              		.global	Authorize
 1137              		.thumb
 1138              		.thumb_func
 1139              		.type	Authorize, %function
 1140              	Authorize:
 1141              	.LFB66:
 177:PumpCom.c     **** 
 178:PumpCom.c     **** 
 179:PumpCom.c     **** /*******************************************************************************
 180:PumpCom.c     **** * Function Name: ReturnStatus
 181:PumpCom.c     **** ********************************************************************************
 182:PumpCom.c     **** *
 183:PumpCom.c     **** *
 184:PumpCom.c     **** *******************************************************************************/
 185:PumpCom.c     **** uint8 Authorize(uint8 address){
 1142              		.loc 1 185 0
 1143              		.cfi_startproc
 1144              		@ args = 0, pretend = 0, frame = 16
 1145              		@ frame_needed = 1, uses_anonymous_args = 0
 1146 0000 80B5     		push	{r7, lr}
 1147              		.cfi_def_cfa_offset 8
 1148              		.cfi_offset 7, -8
 1149              		.cfi_offset 14, -4
 1150 0002 84B0     		sub	sp, sp, #16
 1151              		.cfi_def_cfa_offset 24
 1152 0004 00AF     		add	r7, sp, #0
 1153              		.cfi_def_cfa_register 7
 1154 0006 0346     		mov	r3, r0
 1155 0008 FB71     		strb	r3, [r7, #7]
 1156              	.LBB9:
 186:PumpCom.c     ****     uint8 size, status;    
 187:PumpCom.c     ****     for(uint8 x = 0; x < 50; x ++){
 1157              		.loc 1 187 0
 1158 000a 0023     		movs	r3, #0
 1159 000c FB73     		strb	r3, [r7, #15]
 1160 000e 06E0     		b	.L47
 1161              	.L48:
 188:PumpCom.c     ****         MepsanSendTo[x] = 0x00;
ARM GAS  C:\Users\Lenovo\AppData\Local\Temp\ccHWhG0i.s 			page 25


 1162              		.loc 1 188 0 discriminator 3
 1163 0010 FB7B     		ldrb	r3, [r7, #15]	@ zero_extendqisi2
 1164 0012 2F4A     		ldr	r2, .L52
 1165 0014 0021     		movs	r1, #0
 1166 0016 D154     		strb	r1, [r2, r3]
 187:PumpCom.c     ****         MepsanSendTo[x] = 0x00;
 1167              		.loc 1 187 0 discriminator 3
 1168 0018 FB7B     		ldrb	r3, [r7, #15]	@ zero_extendqisi2
 1169 001a 0133     		adds	r3, r3, #1
 1170 001c FB73     		strb	r3, [r7, #15]
 1171              	.L47:
 187:PumpCom.c     ****         MepsanSendTo[x] = 0x00;
 1172              		.loc 1 187 0 is_stmt 0 discriminator 1
 1173 001e FB7B     		ldrb	r3, [r7, #15]	@ zero_extendqisi2
 1174 0020 312B     		cmp	r3, #49
 1175 0022 F5D9     		bls	.L48
 1176              	.LBE9:
 189:PumpCom.c     ****     }
 190:PumpCom.c     ****     EnablePin_Write (1u);
 1177              		.loc 1 190 0 is_stmt 1
 1178 0024 0120     		movs	r0, #1
 1179 0026 FFF7FEFF 		bl	EnablePin_Write
 191:PumpCom.c     ****     MepsanSendTo[0] = (0x50|address);
 1180              		.loc 1 191 0
 1181 002a FB79     		ldrb	r3, [r7, #7]
 1182 002c 43F05003 		orr	r3, r3, #80
 1183 0030 DAB2     		uxtb	r2, r3
 1184 0032 274B     		ldr	r3, .L52
 1185 0034 1A70     		strb	r2, [r3]
 192:PumpCom.c     ****     MepsanSendTo[1] = (0x30);
 1186              		.loc 1 192 0
 1187 0036 264B     		ldr	r3, .L52
 1188 0038 3022     		movs	r2, #48
 1189 003a 5A70     		strb	r2, [r3, #1]
 193:PumpCom.c     ****     MepsanSendTo[2] = (address + 1);
 1190              		.loc 1 193 0
 1191 003c FB79     		ldrb	r3, [r7, #7]
 1192 003e 0133     		adds	r3, r3, #1
 1193 0040 DAB2     		uxtb	r2, r3
 1194 0042 234B     		ldr	r3, .L52
 1195 0044 9A70     		strb	r2, [r3, #2]
 194:PumpCom.c     ****     MepsanSendTo[3] = (0x01);
 1196              		.loc 1 194 0
 1197 0046 224B     		ldr	r3, .L52
 1198 0048 0122     		movs	r2, #1
 1199 004a DA70     		strb	r2, [r3, #3]
 195:PumpCom.c     ****     MepsanSendTo[4] = (MEPSAN_AUTHORIZE);
 1200              		.loc 1 195 0
 1201 004c 204B     		ldr	r3, .L52
 1202 004e 0622     		movs	r2, #6
 1203 0050 1A71     		strb	r2, [r3, #4]
 196:PumpCom.c     ****     CRC    = gen_crc16(MepsanSendTo,5);
 1204              		.loc 1 196 0
 1205 0052 0521     		movs	r1, #5
 1206 0054 1E48     		ldr	r0, .L52
 1207 0056 FFF7FEFF 		bl	gen_crc16
 1208 005a 0346     		mov	r3, r0
ARM GAS  C:\Users\Lenovo\AppData\Local\Temp\ccHWhG0i.s 			page 26


 1209 005c 1A46     		mov	r2, r3
 1210 005e 1D4B     		ldr	r3, .L52+4
 1211 0060 1A80     		strh	r2, [r3]	@ movhi
 197:PumpCom.c     ****     crc_hi = (CRC & 0xFF00) >> 8;
 1212              		.loc 1 197 0
 1213 0062 1C4B     		ldr	r3, .L52+4
 1214 0064 1B88     		ldrh	r3, [r3]
 1215 0066 1B0A     		lsrs	r3, r3, #8
 1216 0068 9BB2     		uxth	r3, r3
 1217 006a DAB2     		uxtb	r2, r3
 1218 006c 1A4B     		ldr	r3, .L52+8
 1219 006e 1A70     		strb	r2, [r3]
 198:PumpCom.c     ****     crc_lo = (CRC & 0x00FF) ;
 1220              		.loc 1 198 0
 1221 0070 184B     		ldr	r3, .L52+4
 1222 0072 1B88     		ldrh	r3, [r3]
 1223 0074 DAB2     		uxtb	r2, r3
 1224 0076 194B     		ldr	r3, .L52+12
 1225 0078 1A70     		strb	r2, [r3]
 199:PumpCom.c     ****     MepsanSendTo[5] = crc_lo;
 1226              		.loc 1 199 0
 1227 007a 184B     		ldr	r3, .L52+12
 1228 007c 1A78     		ldrb	r2, [r3]	@ zero_extendqisi2
 1229 007e 144B     		ldr	r3, .L52
 1230 0080 5A71     		strb	r2, [r3, #5]
 200:PumpCom.c     ****     MepsanSendTo[6] = crc_hi;
 1231              		.loc 1 200 0
 1232 0082 154B     		ldr	r3, .L52+8
 1233 0084 1A78     		ldrb	r2, [r3]	@ zero_extendqisi2
 1234 0086 124B     		ldr	r3, .L52
 1235 0088 9A71     		strb	r2, [r3, #6]
 201:PumpCom.c     ****     MepsanSendTo[7] = 0x03;
 1236              		.loc 1 201 0
 1237 008a 114B     		ldr	r3, .L52
 1238 008c 0322     		movs	r2, #3
 1239 008e DA71     		strb	r2, [r3, #7]
 202:PumpCom.c     ****     MepsanSendTo[8] = 0xFA;
 1240              		.loc 1 202 0
 1241 0090 0F4B     		ldr	r3, .L52
 1242 0092 FA22     		movs	r2, #250
 1243 0094 1A72     		strb	r2, [r3, #8]
 1244              	.LBB10:
 203:PumpCom.c     ****     for(uint8 x = 0; x <= 9; x++){    
 1245              		.loc 1 203 0
 1246 0096 0023     		movs	r3, #0
 1247 0098 BB73     		strb	r3, [r7, #14]
 1248 009a 08E0     		b	.L49
 1249              	.L50:
 204:PumpCom.c     ****         UART_1_PutChar(MepsanSendTo[x]);
 1250              		.loc 1 204 0 discriminator 3
 1251 009c BB7B     		ldrb	r3, [r7, #14]	@ zero_extendqisi2
 1252 009e 0C4A     		ldr	r2, .L52
 1253 00a0 D35C     		ldrb	r3, [r2, r3]	@ zero_extendqisi2
 1254 00a2 1846     		mov	r0, r3
 1255 00a4 FFF7FEFF 		bl	UART_1_PutChar
 203:PumpCom.c     ****     for(uint8 x = 0; x <= 9; x++){    
 1256              		.loc 1 203 0 discriminator 3
ARM GAS  C:\Users\Lenovo\AppData\Local\Temp\ccHWhG0i.s 			page 27


 1257 00a8 BB7B     		ldrb	r3, [r7, #14]	@ zero_extendqisi2
 1258 00aa 0133     		adds	r3, r3, #1
 1259 00ac BB73     		strb	r3, [r7, #14]
 1260              	.L49:
 203:PumpCom.c     ****     for(uint8 x = 0; x <= 9; x++){    
 1261              		.loc 1 203 0 is_stmt 0 discriminator 1
 1262 00ae BB7B     		ldrb	r3, [r7, #14]	@ zero_extendqisi2
 1263 00b0 092B     		cmp	r3, #9
 1264 00b2 F3D9     		bls	.L50
 1265              	.LBE10:
 205:PumpCom.c     ****     }
 206:PumpCom.c     ****     CyDelay(4);
 1266              		.loc 1 206 0 is_stmt 1
 1267 00b4 0420     		movs	r0, #4
 1268 00b6 FFF7FEFF 		bl	CyDelay
 207:PumpCom.c     ****     EnablePin_Write (0u);
 1269              		.loc 1 207 0
 1270 00ba 0020     		movs	r0, #0
 1271 00bc FFF7FEFF 		bl	EnablePin_Write
 208:PumpCom.c     ****     CyDelay(200);
 1272              		.loc 1 208 0
 1273 00c0 C820     		movs	r0, #200
 1274 00c2 FFF7FEFF 		bl	CyDelay
 209:PumpCom.c     ****     return status;
 1275              		.loc 1 209 0
 1276 00c6 7B7B     		ldrb	r3, [r7, #13]	@ zero_extendqisi2
 210:PumpCom.c     **** }
 1277              		.loc 1 210 0
 1278 00c8 1846     		mov	r0, r3
 1279 00ca 1037     		adds	r7, r7, #16
 1280              		.cfi_def_cfa_offset 8
 1281 00cc BD46     		mov	sp, r7
 1282              		.cfi_def_cfa_register 13
 1283              		@ sp needed
 1284 00ce 80BD     		pop	{r7, pc}
 1285              	.L53:
 1286              		.align	2
 1287              	.L52:
 1288 00d0 00000000 		.word	MepsanSendTo
 1289 00d4 00000000 		.word	CRC
 1290 00d8 00000000 		.word	crc_hi
 1291 00dc 00000000 		.word	crc_lo
 1292              		.cfi_endproc
 1293              	.LFE66:
 1294              		.size	Authorize, .-Authorize
 1295              		.section	.text.ReturnStatus,"ax",%progbits
 1296              		.align	2
 1297              		.global	ReturnStatus
 1298              		.thumb
 1299              		.thumb_func
 1300              		.type	ReturnStatus, %function
 1301              	ReturnStatus:
 1302              	.LFB67:
 211:PumpCom.c     **** 
 212:PumpCom.c     **** /*******************************************************************************
 213:PumpCom.c     **** * Function Name: ReturnStatus
 214:PumpCom.c     **** ********************************************************************************
ARM GAS  C:\Users\Lenovo\AppData\Local\Temp\ccHWhG0i.s 			page 28


 215:PumpCom.c     **** *
 216:PumpCom.c     **** *
 217:PumpCom.c     **** *******************************************************************************/
 218:PumpCom.c     **** uint8 ReturnStatus(uint8 address){
 1303              		.loc 1 218 0
 1304              		.cfi_startproc
 1305              		@ args = 0, pretend = 0, frame = 16
 1306              		@ frame_needed = 1, uses_anonymous_args = 0
 1307 0000 90B5     		push	{r4, r7, lr}
 1308              		.cfi_def_cfa_offset 12
 1309              		.cfi_offset 4, -12
 1310              		.cfi_offset 7, -8
 1311              		.cfi_offset 14, -4
 1312 0002 85B0     		sub	sp, sp, #20
 1313              		.cfi_def_cfa_offset 32
 1314 0004 00AF     		add	r7, sp, #0
 1315              		.cfi_def_cfa_register 7
 1316 0006 0346     		mov	r3, r0
 1317 0008 FB71     		strb	r3, [r7, #7]
 1318              	.LBB11:
 219:PumpCom.c     ****     uint8 size, status;    
 220:PumpCom.c     ****     for(uint8 x = 0; x < 50; x ++){
 1319              		.loc 1 220 0
 1320 000a 0023     		movs	r3, #0
 1321 000c FB73     		strb	r3, [r7, #15]
 1322 000e 06E0     		b	.L55
 1323              	.L56:
 221:PumpCom.c     ****         MepsanSendTo[x] = 0x00;
 1324              		.loc 1 221 0 discriminator 3
 1325 0010 FB7B     		ldrb	r3, [r7, #15]	@ zero_extendqisi2
 1326 0012 3B4A     		ldr	r2, .L62
 1327 0014 0021     		movs	r1, #0
 1328 0016 D154     		strb	r1, [r2, r3]
 220:PumpCom.c     ****         MepsanSendTo[x] = 0x00;
 1329              		.loc 1 220 0 discriminator 3
 1330 0018 FB7B     		ldrb	r3, [r7, #15]	@ zero_extendqisi2
 1331 001a 0133     		adds	r3, r3, #1
 1332 001c FB73     		strb	r3, [r7, #15]
 1333              	.L55:
 220:PumpCom.c     ****         MepsanSendTo[x] = 0x00;
 1334              		.loc 1 220 0 is_stmt 0 discriminator 1
 1335 001e FB7B     		ldrb	r3, [r7, #15]	@ zero_extendqisi2
 1336 0020 312B     		cmp	r3, #49
 1337 0022 F5D9     		bls	.L56
 1338              	.LBE11:
 222:PumpCom.c     ****     }
 223:PumpCom.c     ****     EnablePin_Write (1u);
 1339              		.loc 1 223 0 is_stmt 1
 1340 0024 0120     		movs	r0, #1
 1341 0026 FFF7FEFF 		bl	EnablePin_Write
 224:PumpCom.c     ****     MepsanSendTo[0] = (0x50|address);
 1342              		.loc 1 224 0
 1343 002a FB79     		ldrb	r3, [r7, #7]
 1344 002c 43F05003 		orr	r3, r3, #80
 1345 0030 DAB2     		uxtb	r2, r3
 1346 0032 334B     		ldr	r3, .L62
 1347 0034 1A70     		strb	r2, [r3]
ARM GAS  C:\Users\Lenovo\AppData\Local\Temp\ccHWhG0i.s 			page 29


 225:PumpCom.c     ****     MepsanSendTo[1] = (0x30);
 1348              		.loc 1 225 0
 1349 0036 324B     		ldr	r3, .L62
 1350 0038 3022     		movs	r2, #48
 1351 003a 5A70     		strb	r2, [r3, #1]
 226:PumpCom.c     ****     MepsanSendTo[2] = (address + 1);
 1352              		.loc 1 226 0
 1353 003c FB79     		ldrb	r3, [r7, #7]
 1354 003e 0133     		adds	r3, r3, #1
 1355 0040 DAB2     		uxtb	r2, r3
 1356 0042 2F4B     		ldr	r3, .L62
 1357 0044 9A70     		strb	r2, [r3, #2]
 227:PumpCom.c     ****     MepsanSendTo[3] = (0x01);
 1358              		.loc 1 227 0
 1359 0046 2E4B     		ldr	r3, .L62
 1360 0048 0122     		movs	r2, #1
 1361 004a DA70     		strb	r2, [r3, #3]
 228:PumpCom.c     ****     MepsanSendTo[4] = (MEPSAN_STATE);
 1362              		.loc 1 228 0
 1363 004c 2C4B     		ldr	r3, .L62
 1364 004e 0022     		movs	r2, #0
 1365 0050 1A71     		strb	r2, [r3, #4]
 229:PumpCom.c     ****     CRC    = gen_crc16(MepsanSendTo,5);
 1366              		.loc 1 229 0
 1367 0052 0521     		movs	r1, #5
 1368 0054 2A48     		ldr	r0, .L62
 1369 0056 FFF7FEFF 		bl	gen_crc16
 1370 005a 0346     		mov	r3, r0
 1371 005c 1A46     		mov	r2, r3
 1372 005e 294B     		ldr	r3, .L62+4
 1373 0060 1A80     		strh	r2, [r3]	@ movhi
 230:PumpCom.c     ****     crc_hi = (CRC & 0xFF00) >> 8;
 1374              		.loc 1 230 0
 1375 0062 284B     		ldr	r3, .L62+4
 1376 0064 1B88     		ldrh	r3, [r3]
 1377 0066 1B0A     		lsrs	r3, r3, #8
 1378 0068 9BB2     		uxth	r3, r3
 1379 006a DAB2     		uxtb	r2, r3
 1380 006c 264B     		ldr	r3, .L62+8
 1381 006e 1A70     		strb	r2, [r3]
 231:PumpCom.c     ****     crc_lo = (CRC & 0x00FF) ;
 1382              		.loc 1 231 0
 1383 0070 244B     		ldr	r3, .L62+4
 1384 0072 1B88     		ldrh	r3, [r3]
 1385 0074 DAB2     		uxtb	r2, r3
 1386 0076 254B     		ldr	r3, .L62+12
 1387 0078 1A70     		strb	r2, [r3]
 232:PumpCom.c     ****     MepsanSendTo[5] = crc_lo;
 1388              		.loc 1 232 0
 1389 007a 244B     		ldr	r3, .L62+12
 1390 007c 1A78     		ldrb	r2, [r3]	@ zero_extendqisi2
 1391 007e 204B     		ldr	r3, .L62
 1392 0080 5A71     		strb	r2, [r3, #5]
 233:PumpCom.c     ****     MepsanSendTo[6] = crc_hi;
 1393              		.loc 1 233 0
 1394 0082 214B     		ldr	r3, .L62+8
 1395 0084 1A78     		ldrb	r2, [r3]	@ zero_extendqisi2
ARM GAS  C:\Users\Lenovo\AppData\Local\Temp\ccHWhG0i.s 			page 30


 1396 0086 1E4B     		ldr	r3, .L62
 1397 0088 9A71     		strb	r2, [r3, #6]
 234:PumpCom.c     ****     MepsanSendTo[7] = 0x03;
 1398              		.loc 1 234 0
 1399 008a 1D4B     		ldr	r3, .L62
 1400 008c 0322     		movs	r2, #3
 1401 008e DA71     		strb	r2, [r3, #7]
 235:PumpCom.c     ****     MepsanSendTo[8] = 0xFA;
 1402              		.loc 1 235 0
 1403 0090 1B4B     		ldr	r3, .L62
 1404 0092 FA22     		movs	r2, #250
 1405 0094 1A72     		strb	r2, [r3, #8]
 1406              	.LBB12:
 236:PumpCom.c     ****     for(uint8 x = 0; x <= 9; x++){    
 1407              		.loc 1 236 0
 1408 0096 0023     		movs	r3, #0
 1409 0098 BB73     		strb	r3, [r7, #14]
 1410 009a 08E0     		b	.L57
 1411              	.L58:
 237:PumpCom.c     ****         UART_1_PutChar(MepsanSendTo[x]);
 1412              		.loc 1 237 0 discriminator 3
 1413 009c BB7B     		ldrb	r3, [r7, #14]	@ zero_extendqisi2
 1414 009e 184A     		ldr	r2, .L62
 1415 00a0 D35C     		ldrb	r3, [r2, r3]	@ zero_extendqisi2
 1416 00a2 1846     		mov	r0, r3
 1417 00a4 FFF7FEFF 		bl	UART_1_PutChar
 236:PumpCom.c     ****     for(uint8 x = 0; x <= 9; x++){    
 1418              		.loc 1 236 0 discriminator 3
 1419 00a8 BB7B     		ldrb	r3, [r7, #14]	@ zero_extendqisi2
 1420 00aa 0133     		adds	r3, r3, #1
 1421 00ac BB73     		strb	r3, [r7, #14]
 1422              	.L57:
 236:PumpCom.c     ****     for(uint8 x = 0; x <= 9; x++){    
 1423              		.loc 1 236 0 is_stmt 0 discriminator 1
 1424 00ae BB7B     		ldrb	r3, [r7, #14]	@ zero_extendqisi2
 1425 00b0 092B     		cmp	r3, #9
 1426 00b2 F3D9     		bls	.L58
 1427              	.LBE12:
 238:PumpCom.c     ****     }
 239:PumpCom.c     ****     CyDelay(4);
 1428              		.loc 1 239 0 is_stmt 1
 1429 00b4 0420     		movs	r0, #4
 1430 00b6 FFF7FEFF 		bl	CyDelay
 240:PumpCom.c     ****     EnablePin_Write (0u);
 1431              		.loc 1 240 0
 1432 00ba 0020     		movs	r0, #0
 1433 00bc FFF7FEFF 		bl	EnablePin_Write
 241:PumpCom.c     ****     size = UART_1_GetRxBufferSize();
 1434              		.loc 1 241 0
 1435 00c0 FFF7FEFF 		bl	UART_1_GetRxBufferSize
 1436 00c4 0346     		mov	r3, r0
 1437 00c6 3B73     		strb	r3, [r7, #12]
 1438              	.LBB13:
 242:PumpCom.c     ****     for(uint8 MepRx = 0; MepRx < size; MepRx++){
 1439              		.loc 1 242 0
 1440 00c8 0023     		movs	r3, #0
 1441 00ca 7B73     		strb	r3, [r7, #13]
ARM GAS  C:\Users\Lenovo\AppData\Local\Temp\ccHWhG0i.s 			page 31


 1442 00cc 09E0     		b	.L59
 1443              	.L60:
 243:PumpCom.c     ****         MepsanResponse[MepRx] = UART_1_ReadRxData();
 1444              		.loc 1 243 0 discriminator 3
 1445 00ce 7C7B     		ldrb	r4, [r7, #13]	@ zero_extendqisi2
 1446 00d0 FFF7FEFF 		bl	UART_1_ReadRxData
 1447 00d4 0346     		mov	r3, r0
 1448 00d6 1A46     		mov	r2, r3
 1449 00d8 0D4B     		ldr	r3, .L62+16
 1450 00da 1A55     		strb	r2, [r3, r4]
 242:PumpCom.c     ****     for(uint8 MepRx = 0; MepRx < size; MepRx++){
 1451              		.loc 1 242 0 discriminator 3
 1452 00dc 7B7B     		ldrb	r3, [r7, #13]	@ zero_extendqisi2
 1453 00de 0133     		adds	r3, r3, #1
 1454 00e0 7B73     		strb	r3, [r7, #13]
 1455              	.L59:
 242:PumpCom.c     ****     for(uint8 MepRx = 0; MepRx < size; MepRx++){
 1456              		.loc 1 242 0 is_stmt 0 discriminator 1
 1457 00e2 7A7B     		ldrb	r2, [r7, #13]	@ zero_extendqisi2
 1458 00e4 3B7B     		ldrb	r3, [r7, #12]	@ zero_extendqisi2
 1459 00e6 9A42     		cmp	r2, r3
 1460 00e8 F1D3     		bcc	.L60
 1461              	.LBE13:
 244:PumpCom.c     ****     }       
 245:PumpCom.c     ****     UART_1_ClearRxBuffer();
 1462              		.loc 1 245 0 is_stmt 1
 1463 00ea FFF7FEFF 		bl	UART_1_ClearRxBuffer
 246:PumpCom.c     ****     CyDelay(300); 
 1464              		.loc 1 246 0
 1465 00ee 4FF49670 		mov	r0, #300
 1466 00f2 FFF7FEFF 		bl	CyDelay
 247:PumpCom.c     ****     return status;
 1467              		.loc 1 247 0
 1468 00f6 FB7A     		ldrb	r3, [r7, #11]	@ zero_extendqisi2
 248:PumpCom.c     **** }
 1469              		.loc 1 248 0
 1470 00f8 1846     		mov	r0, r3
 1471 00fa 1437     		adds	r7, r7, #20
 1472              		.cfi_def_cfa_offset 12
 1473 00fc BD46     		mov	sp, r7
 1474              		.cfi_def_cfa_register 13
 1475              		@ sp needed
 1476 00fe 90BD     		pop	{r4, r7, pc}
 1477              	.L63:
 1478              		.align	2
 1479              	.L62:
 1480 0100 00000000 		.word	MepsanSendTo
 1481 0104 00000000 		.word	CRC
 1482 0108 00000000 		.word	crc_hi
 1483 010c 00000000 		.word	crc_lo
 1484 0110 00000000 		.word	MepsanResponse
 1485              		.cfi_endproc
 1486              	.LFE67:
 1487              		.size	ReturnStatus, .-ReturnStatus
 1488              		.section	.text.PumpState,"ax",%progbits
 1489              		.align	2
 1490              		.global	PumpState
ARM GAS  C:\Users\Lenovo\AppData\Local\Temp\ccHWhG0i.s 			page 32


 1491              		.thumb
 1492              		.thumb_func
 1493              		.type	PumpState, %function
 1494              	PumpState:
 1495              	.LFB68:
 249:PumpCom.c     **** 
 250:PumpCom.c     **** /*******************************************************************************
 251:PumpCom.c     **** * Function Name: PumpState
 252:PumpCom.c     **** ********************************************************************************
 253:PumpCom.c     **** *
 254:PumpCom.c     **** *
 255:PumpCom.c     **** *******************************************************************************/
 256:PumpCom.c     **** 
 257:PumpCom.c     **** uint8 PumpState(uint8 address)
 258:PumpCom.c     **** { 
 1496              		.loc 1 258 0
 1497              		.cfi_startproc
 1498              		@ args = 0, pretend = 0, frame = 16
 1499              		@ frame_needed = 1, uses_anonymous_args = 0
 1500 0000 90B5     		push	{r4, r7, lr}
 1501              		.cfi_def_cfa_offset 12
 1502              		.cfi_offset 4, -12
 1503              		.cfi_offset 7, -8
 1504              		.cfi_offset 14, -4
 1505 0002 85B0     		sub	sp, sp, #20
 1506              		.cfi_def_cfa_offset 32
 1507 0004 00AF     		add	r7, sp, #0
 1508              		.cfi_def_cfa_register 7
 1509 0006 0346     		mov	r3, r0
 1510 0008 FB71     		strb	r3, [r7, #7]
 1511              	.LBB14:
 259:PumpCom.c     ****     for(uint8 x = 0; x < 50; x ++){
 1512              		.loc 1 259 0
 1513 000a 0023     		movs	r3, #0
 1514 000c FB73     		strb	r3, [r7, #15]
 1515 000e 06E0     		b	.L65
 1516              	.L66:
 260:PumpCom.c     ****         MepsanResponse[x] = 0x00;
 1517              		.loc 1 260 0 discriminator 3
 1518 0010 FB7B     		ldrb	r3, [r7, #15]	@ zero_extendqisi2
 1519 0012 584A     		ldr	r2, .L84
 1520 0014 0021     		movs	r1, #0
 1521 0016 D154     		strb	r1, [r2, r3]
 259:PumpCom.c     ****     for(uint8 x = 0; x < 50; x ++){
 1522              		.loc 1 259 0 discriminator 3
 1523 0018 FB7B     		ldrb	r3, [r7, #15]	@ zero_extendqisi2
 1524 001a 0133     		adds	r3, r3, #1
 1525 001c FB73     		strb	r3, [r7, #15]
 1526              	.L65:
 259:PumpCom.c     ****     for(uint8 x = 0; x < 50; x ++){
 1527              		.loc 1 259 0 is_stmt 0 discriminator 1
 1528 001e FB7B     		ldrb	r3, [r7, #15]	@ zero_extendqisi2
 1529 0020 312B     		cmp	r3, #49
 1530 0022 F5D9     		bls	.L66
 1531              	.LBE14:
 261:PumpCom.c     ****     }
 262:PumpCom.c     ****     uint8 size;
ARM GAS  C:\Users\Lenovo\AppData\Local\Temp\ccHWhG0i.s 			page 33


 263:PumpCom.c     ****     EnablePin_Write (1u);
 1532              		.loc 1 263 0 is_stmt 1
 1533 0024 0120     		movs	r0, #1
 1534 0026 FFF7FEFF 		bl	EnablePin_Write
 264:PumpCom.c     ****     UART_1_PutChar((0x50|address));
 1535              		.loc 1 264 0
 1536 002a FB79     		ldrb	r3, [r7, #7]
 1537 002c 43F05003 		orr	r3, r3, #80
 1538 0030 DBB2     		uxtb	r3, r3
 1539 0032 1846     		mov	r0, r3
 1540 0034 FFF7FEFF 		bl	UART_1_PutChar
 265:PumpCom.c     ****     UART_1_PutChar(0x20);
 1541              		.loc 1 265 0
 1542 0038 2020     		movs	r0, #32
 1543 003a FFF7FEFF 		bl	UART_1_PutChar
 266:PumpCom.c     ****     UART_1_PutChar(0xFA); 
 1544              		.loc 1 266 0
 1545 003e FA20     		movs	r0, #250
 1546 0040 FFF7FEFF 		bl	UART_1_PutChar
 267:PumpCom.c     ****     CyDelay(4);
 1547              		.loc 1 267 0
 1548 0044 0420     		movs	r0, #4
 1549 0046 FFF7FEFF 		bl	CyDelay
 268:PumpCom.c     ****     EnablePin_Write (0u);
 1550              		.loc 1 268 0
 1551 004a 0020     		movs	r0, #0
 1552 004c FFF7FEFF 		bl	EnablePin_Write
 269:PumpCom.c     ****     size = UART_1_GetRxBufferSize();   
 1553              		.loc 1 269 0
 1554 0050 FFF7FEFF 		bl	UART_1_GetRxBufferSize
 1555 0054 0346     		mov	r3, r0
 1556 0056 7B72     		strb	r3, [r7, #9]
 270:PumpCom.c     ****     MepsanResponse[0] = size;
 1557              		.loc 1 270 0
 1558 0058 464A     		ldr	r2, .L84
 1559 005a 7B7A     		ldrb	r3, [r7, #9]
 1560 005c 1370     		strb	r3, [r2]
 1561              	.LBB15:
 271:PumpCom.c     ****     for(uint8 MepRx = 1; MepRx < size + 1; MepRx++){
 1562              		.loc 1 271 0
 1563 005e 0123     		movs	r3, #1
 1564 0060 BB73     		strb	r3, [r7, #14]
 1565 0062 09E0     		b	.L67
 1566              	.L68:
 272:PumpCom.c     ****         MepsanResponse[MepRx] = UART_1_ReadRxData();
 1567              		.loc 1 272 0 discriminator 3
 1568 0064 BC7B     		ldrb	r4, [r7, #14]	@ zero_extendqisi2
 1569 0066 FFF7FEFF 		bl	UART_1_ReadRxData
 1570 006a 0346     		mov	r3, r0
 1571 006c 1A46     		mov	r2, r3
 1572 006e 414B     		ldr	r3, .L84
 1573 0070 1A55     		strb	r2, [r3, r4]
 271:PumpCom.c     ****     for(uint8 MepRx = 1; MepRx < size + 1; MepRx++){
 1574              		.loc 1 271 0 discriminator 3
 1575 0072 BB7B     		ldrb	r3, [r7, #14]	@ zero_extendqisi2
 1576 0074 0133     		adds	r3, r3, #1
 1577 0076 BB73     		strb	r3, [r7, #14]
ARM GAS  C:\Users\Lenovo\AppData\Local\Temp\ccHWhG0i.s 			page 34


 1578              	.L67:
 271:PumpCom.c     ****     for(uint8 MepRx = 1; MepRx < size + 1; MepRx++){
 1579              		.loc 1 271 0 is_stmt 0 discriminator 1
 1580 0078 BA7B     		ldrb	r2, [r7, #14]	@ zero_extendqisi2
 1581 007a 7B7A     		ldrb	r3, [r7, #9]	@ zero_extendqisi2
 1582 007c 0133     		adds	r3, r3, #1
 1583 007e 9A42     		cmp	r2, r3
 1584 0080 F0DB     		blt	.L68
 1585              	.LBE15:
 273:PumpCom.c     ****     }          
 274:PumpCom.c     ****     UART_1_ClearRxBuffer();
 1586              		.loc 1 274 0 is_stmt 1
 1587 0082 FFF7FEFF 		bl	UART_1_ClearRxBuffer
 275:PumpCom.c     ****     if(size > 3)
 1588              		.loc 1 275 0
 1589 0086 7B7A     		ldrb	r3, [r7, #9]	@ zero_extendqisi2
 1590 0088 032B     		cmp	r3, #3
 1591 008a 01D9     		bls	.L69
 276:PumpCom.c     ****         GetResponse();
 1592              		.loc 1 276 0
 1593 008c FFF7FEFF 		bl	GetResponse
 1594              	.L69:
 277:PumpCom.c     ****     CyDelay(300); 
 1595              		.loc 1 277 0
 1596 0090 4FF49670 		mov	r0, #300
 1597 0094 FFF7FEFF 		bl	CyDelay
 278:PumpCom.c     ****     if(address == side.a.dir){
 1598              		.loc 1 278 0
 1599 0098 374B     		ldr	r3, .L84+4
 1600 009a 1B78     		ldrb	r3, [r3]	@ zero_extendqisi2
 1601 009c FA79     		ldrb	r2, [r7, #7]	@ zero_extendqisi2
 1602 009e 9A42     		cmp	r2, r3
 1603 00a0 12D1     		bne	.L70
 1604              	.LBB16:
 279:PumpCom.c     ****         for(uint8 MepRx = 0; MepRx < size; MepRx++){
 1605              		.loc 1 279 0
 1606 00a2 0023     		movs	r3, #0
 1607 00a4 7B73     		strb	r3, [r7, #13]
 1608 00a6 0BE0     		b	.L71
 1609              	.L72:
 280:PumpCom.c     ****             side.a.MepsanStore[MepRx] = MepsanResponse[MepRx];
 1610              		.loc 1 280 0 discriminator 3
 1611 00a8 7B7B     		ldrb	r3, [r7, #13]	@ zero_extendqisi2
 1612 00aa 7A7B     		ldrb	r2, [r7, #13]	@ zero_extendqisi2
 1613 00ac 3149     		ldr	r1, .L84
 1614 00ae 895C     		ldrb	r1, [r1, r2]	@ zero_extendqisi2
 1615 00b0 314A     		ldr	r2, .L84+4
 1616 00b2 1344     		add	r3, r3, r2
 1617 00b4 0A46     		mov	r2, r1
 1618 00b6 83F87920 		strb	r2, [r3, #121]
 279:PumpCom.c     ****         for(uint8 MepRx = 0; MepRx < size; MepRx++){
 1619              		.loc 1 279 0 discriminator 3
 1620 00ba 7B7B     		ldrb	r3, [r7, #13]	@ zero_extendqisi2
 1621 00bc 0133     		adds	r3, r3, #1
 1622 00be 7B73     		strb	r3, [r7, #13]
 1623              	.L71:
 279:PumpCom.c     ****         for(uint8 MepRx = 0; MepRx < size; MepRx++){
ARM GAS  C:\Users\Lenovo\AppData\Local\Temp\ccHWhG0i.s 			page 35


 1624              		.loc 1 279 0 is_stmt 0 discriminator 1
 1625 00c0 7A7B     		ldrb	r2, [r7, #13]	@ zero_extendqisi2
 1626 00c2 7B7A     		ldrb	r3, [r7, #9]	@ zero_extendqisi2
 1627 00c4 9A42     		cmp	r2, r3
 1628 00c6 EFD3     		bcc	.L72
 1629              	.L70:
 1630              	.LBE16:
 281:PumpCom.c     ****         }        
 282:PumpCom.c     ****     }
 283:PumpCom.c     ****     if(address == side.b.dir){
 1631              		.loc 1 283 0 is_stmt 1
 1632 00c8 2B4B     		ldr	r3, .L84+4
 1633 00ca 93F83331 		ldrb	r3, [r3, #307]	@ zero_extendqisi2
 1634 00ce FA79     		ldrb	r2, [r7, #7]	@ zero_extendqisi2
 1635 00d0 9A42     		cmp	r2, r3
 1636 00d2 12D1     		bne	.L73
 1637              	.LBB17:
 284:PumpCom.c     ****         for(uint8 MepRx = 0; MepRx < size; MepRx++){
 1638              		.loc 1 284 0
 1639 00d4 0023     		movs	r3, #0
 1640 00d6 3B73     		strb	r3, [r7, #12]
 1641 00d8 0BE0     		b	.L74
 1642              	.L75:
 285:PumpCom.c     ****             side.b.MepsanStore[MepRx] = MepsanResponse[MepRx];
 1643              		.loc 1 285 0 discriminator 3
 1644 00da 3B7B     		ldrb	r3, [r7, #12]	@ zero_extendqisi2
 1645 00dc 3A7B     		ldrb	r2, [r7, #12]	@ zero_extendqisi2
 1646 00de 2549     		ldr	r1, .L84
 1647 00e0 895C     		ldrb	r1, [r1, r2]	@ zero_extendqisi2
 1648 00e2 254A     		ldr	r2, .L84+4
 1649 00e4 1344     		add	r3, r3, r2
 1650 00e6 0A46     		mov	r2, r1
 1651 00e8 83F8AC21 		strb	r2, [r3, #428]
 284:PumpCom.c     ****         for(uint8 MepRx = 0; MepRx < size; MepRx++){
 1652              		.loc 1 284 0 discriminator 3
 1653 00ec 3B7B     		ldrb	r3, [r7, #12]	@ zero_extendqisi2
 1654 00ee 0133     		adds	r3, r3, #1
 1655 00f0 3B73     		strb	r3, [r7, #12]
 1656              	.L74:
 284:PumpCom.c     ****         for(uint8 MepRx = 0; MepRx < size; MepRx++){
 1657              		.loc 1 284 0 is_stmt 0 discriminator 1
 1658 00f2 3A7B     		ldrb	r2, [r7, #12]	@ zero_extendqisi2
 1659 00f4 7B7A     		ldrb	r3, [r7, #9]	@ zero_extendqisi2
 1660 00f6 9A42     		cmp	r2, r3
 1661 00f8 EFD3     		bcc	.L75
 1662              	.L73:
 1663              	.LBE17:
 286:PumpCom.c     ****         }
 287:PumpCom.c     ****     }
 288:PumpCom.c     ****     if(address == side.c.dir){
 1664              		.loc 1 288 0 is_stmt 1
 1665 00fa 1F4B     		ldr	r3, .L84+4
 1666 00fc 93F86632 		ldrb	r3, [r3, #614]	@ zero_extendqisi2
 1667 0100 FA79     		ldrb	r2, [r7, #7]	@ zero_extendqisi2
 1668 0102 9A42     		cmp	r2, r3
 1669 0104 12D1     		bne	.L76
 1670              	.LBB18:
ARM GAS  C:\Users\Lenovo\AppData\Local\Temp\ccHWhG0i.s 			page 36


 289:PumpCom.c     ****         for(uint8 MepRx = 0; MepRx < size; MepRx++){
 1671              		.loc 1 289 0
 1672 0106 0023     		movs	r3, #0
 1673 0108 FB72     		strb	r3, [r7, #11]
 1674 010a 0BE0     		b	.L77
 1675              	.L78:
 290:PumpCom.c     ****             side.c.MepsanStore[MepRx] = MepsanResponse[MepRx];
 1676              		.loc 1 290 0 discriminator 3
 1677 010c FB7A     		ldrb	r3, [r7, #11]	@ zero_extendqisi2
 1678 010e FA7A     		ldrb	r2, [r7, #11]	@ zero_extendqisi2
 1679 0110 1849     		ldr	r1, .L84
 1680 0112 895C     		ldrb	r1, [r1, r2]	@ zero_extendqisi2
 1681 0114 184A     		ldr	r2, .L84+4
 1682 0116 1344     		add	r3, r3, r2
 1683 0118 0A46     		mov	r2, r1
 1684 011a 83F8DF22 		strb	r2, [r3, #735]
 289:PumpCom.c     ****         for(uint8 MepRx = 0; MepRx < size; MepRx++){
 1685              		.loc 1 289 0 discriminator 3
 1686 011e FB7A     		ldrb	r3, [r7, #11]	@ zero_extendqisi2
 1687 0120 0133     		adds	r3, r3, #1
 1688 0122 FB72     		strb	r3, [r7, #11]
 1689              	.L77:
 289:PumpCom.c     ****         for(uint8 MepRx = 0; MepRx < size; MepRx++){
 1690              		.loc 1 289 0 is_stmt 0 discriminator 1
 1691 0124 FA7A     		ldrb	r2, [r7, #11]	@ zero_extendqisi2
 1692 0126 7B7A     		ldrb	r3, [r7, #9]	@ zero_extendqisi2
 1693 0128 9A42     		cmp	r2, r3
 1694 012a EFD3     		bcc	.L78
 1695              	.L76:
 1696              	.LBE18:
 291:PumpCom.c     ****         }
 292:PumpCom.c     ****     }
 293:PumpCom.c     ****     if(address == side.d.dir){
 1697              		.loc 1 293 0 is_stmt 1
 1698 012c 124B     		ldr	r3, .L84+4
 1699 012e 93F89933 		ldrb	r3, [r3, #921]	@ zero_extendqisi2
 1700 0132 FA79     		ldrb	r2, [r7, #7]	@ zero_extendqisi2
 1701 0134 9A42     		cmp	r2, r3
 1702 0136 12D1     		bne	.L79
 1703              	.LBB19:
 294:PumpCom.c     ****         for(uint8 MepRx = 0; MepRx < size; MepRx++){
 1704              		.loc 1 294 0
 1705 0138 0023     		movs	r3, #0
 1706 013a BB72     		strb	r3, [r7, #10]
 1707 013c 0BE0     		b	.L80
 1708              	.L81:
 295:PumpCom.c     ****             side.d.MepsanStore[MepRx] = MepsanResponse[MepRx];
 1709              		.loc 1 295 0 discriminator 3
 1710 013e BB7A     		ldrb	r3, [r7, #10]	@ zero_extendqisi2
 1711 0140 BA7A     		ldrb	r2, [r7, #10]	@ zero_extendqisi2
 1712 0142 0C49     		ldr	r1, .L84
 1713 0144 895C     		ldrb	r1, [r1, r2]	@ zero_extendqisi2
 1714 0146 0C4A     		ldr	r2, .L84+4
 1715 0148 1344     		add	r3, r3, r2
 1716 014a 0A46     		mov	r2, r1
 1717 014c 83F81224 		strb	r2, [r3, #1042]
 294:PumpCom.c     ****         for(uint8 MepRx = 0; MepRx < size; MepRx++){
ARM GAS  C:\Users\Lenovo\AppData\Local\Temp\ccHWhG0i.s 			page 37


 1718              		.loc 1 294 0 discriminator 3
 1719 0150 BB7A     		ldrb	r3, [r7, #10]	@ zero_extendqisi2
 1720 0152 0133     		adds	r3, r3, #1
 1721 0154 BB72     		strb	r3, [r7, #10]
 1722              	.L80:
 294:PumpCom.c     ****         for(uint8 MepRx = 0; MepRx < size; MepRx++){
 1723              		.loc 1 294 0 is_stmt 0 discriminator 1
 1724 0156 BA7A     		ldrb	r2, [r7, #10]	@ zero_extendqisi2
 1725 0158 7B7A     		ldrb	r3, [r7, #9]	@ zero_extendqisi2
 1726 015a 9A42     		cmp	r2, r3
 1727 015c EFD3     		bcc	.L81
 1728              	.L79:
 1729              	.LBE19:
 296:PumpCom.c     ****         }
 297:PumpCom.c     ****     } 
 298:PumpCom.c     ****     if(size>=1){              
 1730              		.loc 1 298 0 is_stmt 1
 1731 015e 7B7A     		ldrb	r3, [r7, #9]	@ zero_extendqisi2
 1732 0160 002B     		cmp	r3, #0
 1733 0162 02D0     		beq	.L82
 299:PumpCom.c     ****         return MepsanResponse[1];
 1734              		.loc 1 299 0
 1735 0164 034B     		ldr	r3, .L84
 1736 0166 5B78     		ldrb	r3, [r3, #1]	@ zero_extendqisi2
 1737 0168 00E0     		b	.L83
 1738              	.L82:
 300:PumpCom.c     ****     }
 301:PumpCom.c     ****     else{
 302:PumpCom.c     ****        return 0;
 1739              		.loc 1 302 0
 1740 016a 0023     		movs	r3, #0
 1741              	.L83:
 303:PumpCom.c     ****     }
 304:PumpCom.c     ****     
 305:PumpCom.c     **** }
 1742              		.loc 1 305 0
 1743 016c 1846     		mov	r0, r3
 1744 016e 1437     		adds	r7, r7, #20
 1745              		.cfi_def_cfa_offset 12
 1746 0170 BD46     		mov	sp, r7
 1747              		.cfi_def_cfa_register 13
 1748              		@ sp needed
 1749 0172 90BD     		pop	{r4, r7, pc}
 1750              	.L85:
 1751              		.align	2
 1752              	.L84:
 1753 0174 00000000 		.word	MepsanResponse
 1754 0178 00000000 		.word	side
 1755              		.cfi_endproc
 1756              	.LFE68:
 1757              		.size	PumpState, .-PumpState
 1758              		.section	.text.PriceUpdate,"ax",%progbits
 1759              		.align	2
 1760              		.global	PriceUpdate
 1761              		.thumb
 1762              		.thumb_func
 1763              		.type	PriceUpdate, %function
ARM GAS  C:\Users\Lenovo\AppData\Local\Temp\ccHWhG0i.s 			page 38


 1764              	PriceUpdate:
 1765              	.LFB69:
 306:PumpCom.c     **** 
 307:PumpCom.c     **** 
 308:PumpCom.c     **** /*******************************************************************************
 309:PumpCom.c     **** * Function Name: PriceUpdate
 310:PumpCom.c     **** ********************************************************************************
 311:PumpCom.c     **** *
 312:PumpCom.c     **** *
 313:PumpCom.c     **** *******************************************************************************/
 314:PumpCom.c     **** 
 315:PumpCom.c     **** uint8 PriceUpdate(uint8 address, uint8 *price)
 316:PumpCom.c     **** { 
 1766              		.loc 1 316 0
 1767              		.cfi_startproc
 1768              		@ args = 0, pretend = 0, frame = 16
 1769              		@ frame_needed = 1, uses_anonymous_args = 0
 1770 0000 90B5     		push	{r4, r7, lr}
 1771              		.cfi_def_cfa_offset 12
 1772              		.cfi_offset 4, -12
 1773              		.cfi_offset 7, -8
 1774              		.cfi_offset 14, -4
 1775 0002 85B0     		sub	sp, sp, #20
 1776              		.cfi_def_cfa_offset 32
 1777 0004 00AF     		add	r7, sp, #0
 1778              		.cfi_def_cfa_register 7
 1779 0006 0346     		mov	r3, r0
 1780 0008 3960     		str	r1, [r7]
 1781 000a FB71     		strb	r3, [r7, #7]
 317:PumpCom.c     ****     uint8 size;
 318:PumpCom.c     ****     EnablePin_Write (1u);
 1782              		.loc 1 318 0
 1783 000c 0120     		movs	r0, #1
 1784 000e FFF7FEFF 		bl	EnablePin_Write
 319:PumpCom.c     ****     MepsanSendTo[0] = (0x50|address);
 1785              		.loc 1 319 0
 1786 0012 FB79     		ldrb	r3, [r7, #7]
 1787 0014 43F05003 		orr	r3, r3, #80
 1788 0018 DAB2     		uxtb	r2, r3
 1789 001a 3A4B     		ldr	r3, .L93
 1790 001c 1A70     		strb	r2, [r3]
 320:PumpCom.c     ****     MepsanSendTo[1] = (0x30);
 1791              		.loc 1 320 0
 1792 001e 394B     		ldr	r3, .L93
 1793 0020 3022     		movs	r2, #48
 1794 0022 5A70     		strb	r2, [r3, #1]
 321:PumpCom.c     ****     MepsanSendTo[2] = (0x05); //Price change transaction
 1795              		.loc 1 321 0
 1796 0024 374B     		ldr	r3, .L93
 1797 0026 0522     		movs	r2, #5
 1798 0028 9A70     		strb	r2, [r3, #2]
 322:PumpCom.c     ****     MepsanSendTo[3] = (0x03); //Data bytes in transaction
 1799              		.loc 1 322 0
 1800 002a 364B     		ldr	r3, .L93
 1801 002c 0322     		movs	r2, #3
 1802 002e DA70     		strb	r2, [r3, #3]
 323:PumpCom.c     ****     MepsanSendTo[4] = (price[0]);
ARM GAS  C:\Users\Lenovo\AppData\Local\Temp\ccHWhG0i.s 			page 39


 1803              		.loc 1 323 0
 1804 0030 3B68     		ldr	r3, [r7]
 1805 0032 1A78     		ldrb	r2, [r3]	@ zero_extendqisi2
 1806 0034 334B     		ldr	r3, .L93
 1807 0036 1A71     		strb	r2, [r3, #4]
 324:PumpCom.c     ****     MepsanSendTo[5] = (price[1]);
 1808              		.loc 1 324 0
 1809 0038 3B68     		ldr	r3, [r7]
 1810 003a 5A78     		ldrb	r2, [r3, #1]	@ zero_extendqisi2
 1811 003c 314B     		ldr	r3, .L93
 1812 003e 5A71     		strb	r2, [r3, #5]
 325:PumpCom.c     ****     MepsanSendTo[6] = (price[2]);
 1813              		.loc 1 325 0
 1814 0040 3B68     		ldr	r3, [r7]
 1815 0042 9A78     		ldrb	r2, [r3, #2]	@ zero_extendqisi2
 1816 0044 2F4B     		ldr	r3, .L93
 1817 0046 9A71     		strb	r2, [r3, #6]
 326:PumpCom.c     ****     CRC    = gen_crc16(MepsanSendTo,7);
 1818              		.loc 1 326 0
 1819 0048 0721     		movs	r1, #7
 1820 004a 2E48     		ldr	r0, .L93
 1821 004c FFF7FEFF 		bl	gen_crc16
 1822 0050 0346     		mov	r3, r0
 1823 0052 1A46     		mov	r2, r3
 1824 0054 2C4B     		ldr	r3, .L93+4
 1825 0056 1A80     		strh	r2, [r3]	@ movhi
 327:PumpCom.c     ****     crc_hi = (CRC & 0xFF00) >> 8;
 1826              		.loc 1 327 0
 1827 0058 2B4B     		ldr	r3, .L93+4
 1828 005a 1B88     		ldrh	r3, [r3]
 1829 005c 1B0A     		lsrs	r3, r3, #8
 1830 005e 9BB2     		uxth	r3, r3
 1831 0060 DAB2     		uxtb	r2, r3
 1832 0062 2A4B     		ldr	r3, .L93+8
 1833 0064 1A70     		strb	r2, [r3]
 328:PumpCom.c     ****     crc_lo = (CRC & 0x00FF) ;
 1834              		.loc 1 328 0
 1835 0066 284B     		ldr	r3, .L93+4
 1836 0068 1B88     		ldrh	r3, [r3]
 1837 006a DAB2     		uxtb	r2, r3
 1838 006c 284B     		ldr	r3, .L93+12
 1839 006e 1A70     		strb	r2, [r3]
 329:PumpCom.c     ****     MepsanSendTo[7] = crc_lo;
 1840              		.loc 1 329 0
 1841 0070 274B     		ldr	r3, .L93+12
 1842 0072 1A78     		ldrb	r2, [r3]	@ zero_extendqisi2
 1843 0074 234B     		ldr	r3, .L93
 1844 0076 DA71     		strb	r2, [r3, #7]
 330:PumpCom.c     ****     MepsanSendTo[8] = crc_hi;
 1845              		.loc 1 330 0
 1846 0078 244B     		ldr	r3, .L93+8
 1847 007a 1A78     		ldrb	r2, [r3]	@ zero_extendqisi2
 1848 007c 214B     		ldr	r3, .L93
 1849 007e 1A72     		strb	r2, [r3, #8]
 331:PumpCom.c     ****     MepsanSendTo[9] = 0x03;
 1850              		.loc 1 331 0
 1851 0080 204B     		ldr	r3, .L93
ARM GAS  C:\Users\Lenovo\AppData\Local\Temp\ccHWhG0i.s 			page 40


 1852 0082 0322     		movs	r2, #3
 1853 0084 5A72     		strb	r2, [r3, #9]
 332:PumpCom.c     ****     MepsanSendTo[10] = 0xFA; 
 1854              		.loc 1 332 0
 1855 0086 1F4B     		ldr	r3, .L93
 1856 0088 FA22     		movs	r2, #250
 1857 008a 9A72     		strb	r2, [r3, #10]
 1858              	.LBB20:
 333:PumpCom.c     ****     for(uint8 x = 0; x <= 11; x++){    
 1859              		.loc 1 333 0
 1860 008c 0023     		movs	r3, #0
 1861 008e FB73     		strb	r3, [r7, #15]
 1862 0090 08E0     		b	.L87
 1863              	.L88:
 334:PumpCom.c     ****         UART_1_PutChar(MepsanSendTo[x]);
 1864              		.loc 1 334 0 discriminator 3
 1865 0092 FB7B     		ldrb	r3, [r7, #15]	@ zero_extendqisi2
 1866 0094 1B4A     		ldr	r2, .L93
 1867 0096 D35C     		ldrb	r3, [r2, r3]	@ zero_extendqisi2
 1868 0098 1846     		mov	r0, r3
 1869 009a FFF7FEFF 		bl	UART_1_PutChar
 333:PumpCom.c     ****     for(uint8 x = 0; x <= 11; x++){    
 1870              		.loc 1 333 0 discriminator 3
 1871 009e FB7B     		ldrb	r3, [r7, #15]	@ zero_extendqisi2
 1872 00a0 0133     		adds	r3, r3, #1
 1873 00a2 FB73     		strb	r3, [r7, #15]
 1874              	.L87:
 333:PumpCom.c     ****     for(uint8 x = 0; x <= 11; x++){    
 1875              		.loc 1 333 0 is_stmt 0 discriminator 1
 1876 00a4 FB7B     		ldrb	r3, [r7, #15]	@ zero_extendqisi2
 1877 00a6 0B2B     		cmp	r3, #11
 1878 00a8 F3D9     		bls	.L88
 1879              	.LBE20:
 335:PumpCom.c     ****     }
 336:PumpCom.c     ****     CyDelay(4);
 1880              		.loc 1 336 0 is_stmt 1
 1881 00aa 0420     		movs	r0, #4
 1882 00ac FFF7FEFF 		bl	CyDelay
 337:PumpCom.c     ****     EnablePin_Write (0u);
 1883              		.loc 1 337 0
 1884 00b0 0020     		movs	r0, #0
 1885 00b2 FFF7FEFF 		bl	EnablePin_Write
 338:PumpCom.c     ****     size = UART_1_GetRxBufferSize();
 1886              		.loc 1 338 0
 1887 00b6 FFF7FEFF 		bl	UART_1_GetRxBufferSize
 1888 00ba 0346     		mov	r3, r0
 1889 00bc 7B73     		strb	r3, [r7, #13]
 1890              	.LBB21:
 339:PumpCom.c     ****     for(uint8 MepRx = 0; MepRx < size; MepRx++){
 1891              		.loc 1 339 0
 1892 00be 0023     		movs	r3, #0
 1893 00c0 BB73     		strb	r3, [r7, #14]
 1894 00c2 09E0     		b	.L89
 1895              	.L90:
 340:PumpCom.c     ****         MepsanResponse[MepRx] = UART_1_ReadRxData();   
 1896              		.loc 1 340 0 discriminator 3
 1897 00c4 BC7B     		ldrb	r4, [r7, #14]	@ zero_extendqisi2
ARM GAS  C:\Users\Lenovo\AppData\Local\Temp\ccHWhG0i.s 			page 41


 1898 00c6 FFF7FEFF 		bl	UART_1_ReadRxData
 1899 00ca 0346     		mov	r3, r0
 1900 00cc 1A46     		mov	r2, r3
 1901 00ce 114B     		ldr	r3, .L93+16
 1902 00d0 1A55     		strb	r2, [r3, r4]
 339:PumpCom.c     ****     for(uint8 MepRx = 0; MepRx < size; MepRx++){
 1903              		.loc 1 339 0 discriminator 3
 1904 00d2 BB7B     		ldrb	r3, [r7, #14]	@ zero_extendqisi2
 1905 00d4 0133     		adds	r3, r3, #1
 1906 00d6 BB73     		strb	r3, [r7, #14]
 1907              	.L89:
 339:PumpCom.c     ****     for(uint8 MepRx = 0; MepRx < size; MepRx++){
 1908              		.loc 1 339 0 is_stmt 0 discriminator 1
 1909 00d8 BA7B     		ldrb	r2, [r7, #14]	@ zero_extendqisi2
 1910 00da 7B7B     		ldrb	r3, [r7, #13]	@ zero_extendqisi2
 1911 00dc 9A42     		cmp	r2, r3
 1912 00de F1D3     		bcc	.L90
 1913              	.LBE21:
 341:PumpCom.c     ****     }
 342:PumpCom.c     ****     UART_1_ClearRxBuffer();
 1914              		.loc 1 342 0 is_stmt 1
 1915 00e0 FFF7FEFF 		bl	UART_1_ClearRxBuffer
 343:PumpCom.c     ****     CyDelay(500);    
 1916              		.loc 1 343 0
 1917 00e4 4FF4FA70 		mov	r0, #500
 1918 00e8 FFF7FEFF 		bl	CyDelay
 344:PumpCom.c     ****     if(size>=1){
 1919              		.loc 1 344 0
 1920 00ec 7B7B     		ldrb	r3, [r7, #13]	@ zero_extendqisi2
 1921 00ee 002B     		cmp	r3, #0
 1922 00f0 02D0     		beq	.L91
 345:PumpCom.c     ****         return  MepsanResponse[1];
 1923              		.loc 1 345 0
 1924 00f2 084B     		ldr	r3, .L93+16
 1925 00f4 5B78     		ldrb	r3, [r3, #1]	@ zero_extendqisi2
 1926 00f6 00E0     		b	.L92
 1927              	.L91:
 346:PumpCom.c     ****     }
 347:PumpCom.c     ****     else{
 348:PumpCom.c     ****        return 0;
 1928              		.loc 1 348 0
 1929 00f8 0023     		movs	r3, #0
 1930              	.L92:
 349:PumpCom.c     ****     }    
 350:PumpCom.c     **** }
 1931              		.loc 1 350 0
 1932 00fa 1846     		mov	r0, r3
 1933 00fc 1437     		adds	r7, r7, #20
 1934              		.cfi_def_cfa_offset 12
 1935 00fe BD46     		mov	sp, r7
 1936              		.cfi_def_cfa_register 13
 1937              		@ sp needed
 1938 0100 90BD     		pop	{r4, r7, pc}
 1939              	.L94:
 1940 0102 00BF     		.align	2
 1941              	.L93:
 1942 0104 00000000 		.word	MepsanSendTo
ARM GAS  C:\Users\Lenovo\AppData\Local\Temp\ccHWhG0i.s 			page 42


 1943 0108 00000000 		.word	CRC
 1944 010c 00000000 		.word	crc_hi
 1945 0110 00000000 		.word	crc_lo
 1946 0114 00000000 		.word	MepsanResponse
 1947              		.cfi_endproc
 1948              	.LFE69:
 1949              		.size	PriceUpdate, .-PriceUpdate
 1950              		.section	.text.TotalRequest,"ax",%progbits
 1951              		.align	2
 1952              		.global	TotalRequest
 1953              		.thumb
 1954              		.thumb_func
 1955              		.type	TotalRequest, %function
 1956              	TotalRequest:
 1957              	.LFB70:
 351:PumpCom.c     **** 
 352:PumpCom.c     **** /*******************************************************************************
 353:PumpCom.c     **** * Function Name: TotalRequest
 354:PumpCom.c     **** ********************************************************************************
 355:PumpCom.c     **** *
 356:PumpCom.c     **** *
 357:PumpCom.c     **** *******************************************************************************/
 358:PumpCom.c     **** 
 359:PumpCom.c     **** void TotalRequest(uint8 address, uint8 type, uint8 nozzle)
 360:PumpCom.c     **** { 
 1958              		.loc 1 360 0
 1959              		.cfi_startproc
 1960              		@ args = 0, pretend = 0, frame = 16
 1961              		@ frame_needed = 1, uses_anonymous_args = 0
 1962 0000 90B5     		push	{r4, r7, lr}
 1963              		.cfi_def_cfa_offset 12
 1964              		.cfi_offset 4, -12
 1965              		.cfi_offset 7, -8
 1966              		.cfi_offset 14, -4
 1967 0002 85B0     		sub	sp, sp, #20
 1968              		.cfi_def_cfa_offset 32
 1969 0004 00AF     		add	r7, sp, #0
 1970              		.cfi_def_cfa_register 7
 1971 0006 0346     		mov	r3, r0
 1972 0008 FB71     		strb	r3, [r7, #7]
 1973 000a 0B46     		mov	r3, r1
 1974 000c BB71     		strb	r3, [r7, #6]
 1975 000e 1346     		mov	r3, r2
 1976 0010 7B71     		strb	r3, [r7, #5]
 361:PumpCom.c     ****     uint8 size;
 362:PumpCom.c     ****     uint8 request;
 363:PumpCom.c     ****     request = ((type<<4)&0xF0)|(nozzle);
 1977              		.loc 1 363 0
 1978 0012 BB79     		ldrb	r3, [r7, #6]	@ zero_extendqisi2
 1979 0014 1B01     		lsls	r3, r3, #4
 1980 0016 5AB2     		sxtb	r2, r3
 1981 0018 97F90530 		ldrsb	r3, [r7, #5]
 1982 001c 1343     		orrs	r3, r3, r2
 1983 001e 5BB2     		sxtb	r3, r3
 1984 0020 7B73     		strb	r3, [r7, #13]
 364:PumpCom.c     ****     EnablePin_Write (1u);
 1985              		.loc 1 364 0
ARM GAS  C:\Users\Lenovo\AppData\Local\Temp\ccHWhG0i.s 			page 43


 1986 0022 0120     		movs	r0, #1
 1987 0024 FFF7FEFF 		bl	EnablePin_Write
 365:PumpCom.c     ****     MepsanSendTo[0] = (0x50|address);
 1988              		.loc 1 365 0
 1989 0028 FB79     		ldrb	r3, [r7, #7]
 1990 002a 43F05003 		orr	r3, r3, #80
 1991 002e DAB2     		uxtb	r2, r3
 1992 0030 314B     		ldr	r3, .L100
 1993 0032 1A70     		strb	r2, [r3]
 366:PumpCom.c     ****     MepsanSendTo[1] = (0x30);
 1994              		.loc 1 366 0
 1995 0034 304B     		ldr	r3, .L100
 1996 0036 3022     		movs	r2, #48
 1997 0038 5A70     		strb	r2, [r3, #1]
 367:PumpCom.c     ****     MepsanSendTo[2] = (0x65);
 1998              		.loc 1 367 0
 1999 003a 2F4B     		ldr	r3, .L100
 2000 003c 6522     		movs	r2, #101
 2001 003e 9A70     		strb	r2, [r3, #2]
 368:PumpCom.c     ****     MepsanSendTo[3] = (0x01); //Data bytes in transaction
 2002              		.loc 1 368 0
 2003 0040 2D4B     		ldr	r3, .L100
 2004 0042 0122     		movs	r2, #1
 2005 0044 DA70     		strb	r2, [r3, #3]
 369:PumpCom.c     ****     MepsanSendTo[4] = (request);
 2006              		.loc 1 369 0
 2007 0046 2C4A     		ldr	r2, .L100
 2008 0048 7B7B     		ldrb	r3, [r7, #13]
 2009 004a 1371     		strb	r3, [r2, #4]
 370:PumpCom.c     ****     CRC    = gen_crc16(MepsanSendTo,5);
 2010              		.loc 1 370 0
 2011 004c 0521     		movs	r1, #5
 2012 004e 2A48     		ldr	r0, .L100
 2013 0050 FFF7FEFF 		bl	gen_crc16
 2014 0054 0346     		mov	r3, r0
 2015 0056 1A46     		mov	r2, r3
 2016 0058 284B     		ldr	r3, .L100+4
 2017 005a 1A80     		strh	r2, [r3]	@ movhi
 371:PumpCom.c     ****     crc_hi = (CRC & 0xFF00) >> 8;
 2018              		.loc 1 371 0
 2019 005c 274B     		ldr	r3, .L100+4
 2020 005e 1B88     		ldrh	r3, [r3]
 2021 0060 1B0A     		lsrs	r3, r3, #8
 2022 0062 9BB2     		uxth	r3, r3
 2023 0064 DAB2     		uxtb	r2, r3
 2024 0066 264B     		ldr	r3, .L100+8
 2025 0068 1A70     		strb	r2, [r3]
 372:PumpCom.c     ****     crc_lo = (CRC & 0x00FF) ;
 2026              		.loc 1 372 0
 2027 006a 244B     		ldr	r3, .L100+4
 2028 006c 1B88     		ldrh	r3, [r3]
 2029 006e DAB2     		uxtb	r2, r3
 2030 0070 244B     		ldr	r3, .L100+12
 2031 0072 1A70     		strb	r2, [r3]
 373:PumpCom.c     ****     MepsanSendTo[5] = crc_lo;
 2032              		.loc 1 373 0
 2033 0074 234B     		ldr	r3, .L100+12
ARM GAS  C:\Users\Lenovo\AppData\Local\Temp\ccHWhG0i.s 			page 44


 2034 0076 1A78     		ldrb	r2, [r3]	@ zero_extendqisi2
 2035 0078 1F4B     		ldr	r3, .L100
 2036 007a 5A71     		strb	r2, [r3, #5]
 374:PumpCom.c     ****     MepsanSendTo[6] = crc_hi;
 2037              		.loc 1 374 0
 2038 007c 204B     		ldr	r3, .L100+8
 2039 007e 1A78     		ldrb	r2, [r3]	@ zero_extendqisi2
 2040 0080 1D4B     		ldr	r3, .L100
 2041 0082 9A71     		strb	r2, [r3, #6]
 375:PumpCom.c     ****     MepsanSendTo[7] = 0x03;
 2042              		.loc 1 375 0
 2043 0084 1C4B     		ldr	r3, .L100
 2044 0086 0322     		movs	r2, #3
 2045 0088 DA71     		strb	r2, [r3, #7]
 376:PumpCom.c     ****     MepsanSendTo[8] = 0xFA; 
 2046              		.loc 1 376 0
 2047 008a 1B4B     		ldr	r3, .L100
 2048 008c FA22     		movs	r2, #250
 2049 008e 1A72     		strb	r2, [r3, #8]
 2050              	.LBB22:
 377:PumpCom.c     ****     for(uint8 x = 0; x <= 9; x++){    
 2051              		.loc 1 377 0
 2052 0090 0023     		movs	r3, #0
 2053 0092 FB73     		strb	r3, [r7, #15]
 2054 0094 08E0     		b	.L96
 2055              	.L97:
 378:PumpCom.c     ****         UART_1_PutChar(MepsanSendTo[x]);
 2056              		.loc 1 378 0 discriminator 3
 2057 0096 FB7B     		ldrb	r3, [r7, #15]	@ zero_extendqisi2
 2058 0098 174A     		ldr	r2, .L100
 2059 009a D35C     		ldrb	r3, [r2, r3]	@ zero_extendqisi2
 2060 009c 1846     		mov	r0, r3
 2061 009e FFF7FEFF 		bl	UART_1_PutChar
 377:PumpCom.c     ****     for(uint8 x = 0; x <= 9; x++){    
 2062              		.loc 1 377 0 discriminator 3
 2063 00a2 FB7B     		ldrb	r3, [r7, #15]	@ zero_extendqisi2
 2064 00a4 0133     		adds	r3, r3, #1
 2065 00a6 FB73     		strb	r3, [r7, #15]
 2066              	.L96:
 377:PumpCom.c     ****     for(uint8 x = 0; x <= 9; x++){    
 2067              		.loc 1 377 0 is_stmt 0 discriminator 1
 2068 00a8 FB7B     		ldrb	r3, [r7, #15]	@ zero_extendqisi2
 2069 00aa 092B     		cmp	r3, #9
 2070 00ac F3D9     		bls	.L97
 2071              	.LBE22:
 379:PumpCom.c     ****     }
 380:PumpCom.c     ****     CyDelay(4);
 2072              		.loc 1 380 0 is_stmt 1
 2073 00ae 0420     		movs	r0, #4
 2074 00b0 FFF7FEFF 		bl	CyDelay
 381:PumpCom.c     ****     EnablePin_Write (0u);  
 2075              		.loc 1 381 0
 2076 00b4 0020     		movs	r0, #0
 2077 00b6 FFF7FEFF 		bl	EnablePin_Write
 382:PumpCom.c     ****     size = UART_1_GetRxBufferSize();
 2078              		.loc 1 382 0
 2079 00ba FFF7FEFF 		bl	UART_1_GetRxBufferSize
ARM GAS  C:\Users\Lenovo\AppData\Local\Temp\ccHWhG0i.s 			page 45


 2080 00be 0346     		mov	r3, r0
 2081 00c0 3B73     		strb	r3, [r7, #12]
 2082              	.LBB23:
 383:PumpCom.c     ****     for(uint8 MepRx = 0; MepRx < size; MepRx++){
 2083              		.loc 1 383 0
 2084 00c2 0023     		movs	r3, #0
 2085 00c4 BB73     		strb	r3, [r7, #14]
 2086 00c6 09E0     		b	.L98
 2087              	.L99:
 384:PumpCom.c     ****         MepsanResponse[MepRx] = UART_1_ReadRxData();
 2088              		.loc 1 384 0 discriminator 3
 2089 00c8 BC7B     		ldrb	r4, [r7, #14]	@ zero_extendqisi2
 2090 00ca FFF7FEFF 		bl	UART_1_ReadRxData
 2091 00ce 0346     		mov	r3, r0
 2092 00d0 1A46     		mov	r2, r3
 2093 00d2 0D4B     		ldr	r3, .L100+16
 2094 00d4 1A55     		strb	r2, [r3, r4]
 383:PumpCom.c     ****     for(uint8 MepRx = 0; MepRx < size; MepRx++){
 2095              		.loc 1 383 0 discriminator 3
 2096 00d6 BB7B     		ldrb	r3, [r7, #14]	@ zero_extendqisi2
 2097 00d8 0133     		adds	r3, r3, #1
 2098 00da BB73     		strb	r3, [r7, #14]
 2099              	.L98:
 383:PumpCom.c     ****     for(uint8 MepRx = 0; MepRx < size; MepRx++){
 2100              		.loc 1 383 0 is_stmt 0 discriminator 1
 2101 00dc BA7B     		ldrb	r2, [r7, #14]	@ zero_extendqisi2
 2102 00de 3B7B     		ldrb	r3, [r7, #12]	@ zero_extendqisi2
 2103 00e0 9A42     		cmp	r2, r3
 2104 00e2 F1D3     		bcc	.L99
 2105              	.LBE23:
 385:PumpCom.c     ****     }       
 386:PumpCom.c     ****     UART_1_ClearRxBuffer();
 2106              		.loc 1 386 0 is_stmt 1
 2107 00e4 FFF7FEFF 		bl	UART_1_ClearRxBuffer
 387:PumpCom.c     ****     CyDelay(200); 
 2108              		.loc 1 387 0
 2109 00e8 C820     		movs	r0, #200
 2110 00ea FFF7FEFF 		bl	CyDelay
 388:PumpCom.c     **** }
 2111              		.loc 1 388 0
 2112 00ee 00BF     		nop
 2113 00f0 1437     		adds	r7, r7, #20
 2114              		.cfi_def_cfa_offset 12
 2115 00f2 BD46     		mov	sp, r7
 2116              		.cfi_def_cfa_register 13
 2117              		@ sp needed
 2118 00f4 90BD     		pop	{r4, r7, pc}
 2119              	.L101:
 2120 00f6 00BF     		.align	2
 2121              	.L100:
 2122 00f8 00000000 		.word	MepsanSendTo
 2123 00fc 00000000 		.word	CRC
 2124 0100 00000000 		.word	crc_hi
 2125 0104 00000000 		.word	crc_lo
 2126 0108 00000000 		.word	MepsanResponse
 2127              		.cfi_endproc
 2128              	.LFE70:
ARM GAS  C:\Users\Lenovo\AppData\Local\Temp\ccHWhG0i.s 			page 46


 2129              		.size	TotalRequest, .-TotalRequest
 2130              		.section	.text.GetTotal,"ax",%progbits
 2131              		.align	2
 2132              		.global	GetTotal
 2133              		.thumb
 2134              		.thumb_func
 2135              		.type	GetTotal, %function
 2136              	GetTotal:
 2137              	.LFB71:
 389:PumpCom.c     **** 
 390:PumpCom.c     **** /*******************************************************************************
 391:PumpCom.c     **** * Function Name: GetTotal
 392:PumpCom.c     **** ********************************************************************************
 393:PumpCom.c     **** *
 394:PumpCom.c     **** *
 395:PumpCom.c     **** *******************************************************************************/
 396:PumpCom.c     **** 
 397:PumpCom.c     **** void GetTotal(void){
 2138              		.loc 1 397 0
 2139              		.cfi_startproc
 2140              		@ args = 0, pretend = 0, frame = 0
 2141              		@ frame_needed = 1, uses_anonymous_args = 0
 2142              		@ link register save eliminated.
 2143 0000 80B4     		push	{r7}
 2144              		.cfi_def_cfa_offset 4
 2145              		.cfi_offset 7, -4
 2146 0002 00AF     		add	r7, sp, #0
 2147              		.cfi_def_cfa_register 7
 398:PumpCom.c     **** //    for(uint8 x = 4; x < MepsanResponse[3] + 4; x++ ){
 399:PumpCom.c     **** //    }
 400:PumpCom.c     **** }
 2148              		.loc 1 400 0
 2149 0004 00BF     		nop
 2150 0006 BD46     		mov	sp, r7
 2151              		.cfi_def_cfa_register 13
 2152              		@ sp needed
 2153 0008 80BC     		pop	{r7}
 2154              		.cfi_restore 7
 2155              		.cfi_def_cfa_offset 0
 2156 000a 7047     		bx	lr
 2157              		.cfi_endproc
 2158              	.LFE71:
 2159              		.size	GetTotal, .-GetTotal
 2160              		.section	.text.GetACK,"ax",%progbits
 2161              		.align	2
 2162              		.global	GetACK
 2163              		.thumb
 2164              		.thumb_func
 2165              		.type	GetACK, %function
 2166              	GetACK:
 2167              	.LFB72:
 401:PumpCom.c     **** /*******************************************************************************
 402:PumpCom.c     **** * Function Name: GetTotal
 403:PumpCom.c     **** ********************************************************************************
 404:PumpCom.c     **** *
 405:PumpCom.c     **** *
 406:PumpCom.c     **** *******************************************************************************/
ARM GAS  C:\Users\Lenovo\AppData\Local\Temp\ccHWhG0i.s 			page 47


 407:PumpCom.c     **** 
 408:PumpCom.c     **** void GetACK(){
 2168              		.loc 1 408 0
 2169              		.cfi_startproc
 2170              		@ args = 0, pretend = 0, frame = 8
 2171              		@ frame_needed = 1, uses_anonymous_args = 0
 2172 0000 90B5     		push	{r4, r7, lr}
 2173              		.cfi_def_cfa_offset 12
 2174              		.cfi_offset 4, -12
 2175              		.cfi_offset 7, -8
 2176              		.cfi_offset 14, -4
 2177 0002 83B0     		sub	sp, sp, #12
 2178              		.cfi_def_cfa_offset 24
 2179 0004 00AF     		add	r7, sp, #0
 2180              		.cfi_def_cfa_register 7
 409:PumpCom.c     ****     uint8 size;
 410:PumpCom.c     ****     size = UART_1_GetRxBufferSize();        
 2181              		.loc 1 410 0
 2182 0006 FFF7FEFF 		bl	UART_1_GetRxBufferSize
 2183 000a 0346     		mov	r3, r0
 2184 000c BB71     		strb	r3, [r7, #6]
 2185              	.LBB24:
 411:PumpCom.c     ****     for(uint8 MepRx = 0; MepRx < size; MepRx++){
 2186              		.loc 1 411 0
 2187 000e 0023     		movs	r3, #0
 2188 0010 FB71     		strb	r3, [r7, #7]
 2189 0012 09E0     		b	.L104
 2190              	.L105:
 412:PumpCom.c     ****         MepsanResponse[MepRx] = UART_1_ReadRxData();        
 2191              		.loc 1 412 0 discriminator 3
 2192 0014 FC79     		ldrb	r4, [r7, #7]	@ zero_extendqisi2
 2193 0016 FFF7FEFF 		bl	UART_1_ReadRxData
 2194 001a 0346     		mov	r3, r0
 2195 001c 1A46     		mov	r2, r3
 2196 001e 074B     		ldr	r3, .L106
 2197 0020 1A55     		strb	r2, [r3, r4]
 411:PumpCom.c     ****     for(uint8 MepRx = 0; MepRx < size; MepRx++){
 2198              		.loc 1 411 0 discriminator 3
 2199 0022 FB79     		ldrb	r3, [r7, #7]	@ zero_extendqisi2
 2200 0024 0133     		adds	r3, r3, #1
 2201 0026 FB71     		strb	r3, [r7, #7]
 2202              	.L104:
 411:PumpCom.c     ****     for(uint8 MepRx = 0; MepRx < size; MepRx++){
 2203              		.loc 1 411 0 is_stmt 0 discriminator 1
 2204 0028 FA79     		ldrb	r2, [r7, #7]	@ zero_extendqisi2
 2205 002a BB79     		ldrb	r3, [r7, #6]	@ zero_extendqisi2
 2206 002c 9A42     		cmp	r2, r3
 2207 002e F1D3     		bcc	.L105
 2208              	.LBE24:
 413:PumpCom.c     ****     }    
 414:PumpCom.c     ****     UART_1_ClearRxBuffer();
 2209              		.loc 1 414 0 is_stmt 1
 2210 0030 FFF7FEFF 		bl	UART_1_ClearRxBuffer
 415:PumpCom.c     **** }
 2211              		.loc 1 415 0
 2212 0034 00BF     		nop
 2213 0036 0C37     		adds	r7, r7, #12
ARM GAS  C:\Users\Lenovo\AppData\Local\Temp\ccHWhG0i.s 			page 48


 2214              		.cfi_def_cfa_offset 12
 2215 0038 BD46     		mov	sp, r7
 2216              		.cfi_def_cfa_register 13
 2217              		@ sp needed
 2218 003a 90BD     		pop	{r4, r7, pc}
 2219              	.L107:
 2220              		.align	2
 2221              	.L106:
 2222 003c 00000000 		.word	MepsanResponse
 2223              		.cfi_endproc
 2224              	.LFE72:
 2225              		.size	GetACK, .-GetACK
 2226              		.section	.text.ProccessResponse,"ax",%progbits
 2227              		.align	2
 2228              		.global	ProccessResponse
 2229              		.thumb
 2230              		.thumb_func
 2231              		.type	ProccessResponse, %function
 2232              	ProccessResponse:
 2233              	.LFB73:
 416:PumpCom.c     **** 
 417:PumpCom.c     **** 
 418:PumpCom.c     **** void ProccessResponse(uint8 address){
 2234              		.loc 1 418 0
 2235              		.cfi_startproc
 2236              		@ args = 0, pretend = 0, frame = 16
 2237              		@ frame_needed = 1, uses_anonymous_args = 0
 2238 0000 F0B5     		push	{r4, r5, r6, r7, lr}
 2239              		.cfi_def_cfa_offset 20
 2240              		.cfi_offset 4, -20
 2241              		.cfi_offset 5, -16
 2242              		.cfi_offset 6, -12
 2243              		.cfi_offset 7, -8
 2244              		.cfi_offset 14, -4
 2245 0002 85B0     		sub	sp, sp, #20
 2246              		.cfi_def_cfa_offset 40
 2247 0004 00AF     		add	r7, sp, #0
 2248              		.cfi_def_cfa_register 7
 2249 0006 0346     		mov	r3, r0
 2250 0008 FB71     		strb	r3, [r7, #7]
 419:PumpCom.c     ****     uint8 ValidateA,ValidateB,x;            
 420:PumpCom.c     ****     if(address == side.a.dir){
 2251              		.loc 1 420 0
 2252 000a 284B     		ldr	r3, .L115
 2253 000c 1B78     		ldrb	r3, [r3]	@ zero_extendqisi2
 2254 000e FA79     		ldrb	r2, [r7, #7]	@ zero_extendqisi2
 2255 0010 9A42     		cmp	r2, r3
 2256 0012 37D1     		bne	.L109
 421:PumpCom.c     ****         ValidateA = (side.a.MepsanStore[1]|0xF0);
 2257              		.loc 1 421 0
 2258 0014 254B     		ldr	r3, .L115
 2259 0016 93F87A30 		ldrb	r3, [r3, #122]	@ zero_extendqisi2
 2260 001a 63F00F03 		orn	r3, r3, #15
 2261 001e FB73     		strb	r3, [r7, #15]
 422:PumpCom.c     ****         ValidateB =  side.a.MepsanStore[2];
 2262              		.loc 1 422 0
 2263 0020 224B     		ldr	r3, .L115
ARM GAS  C:\Users\Lenovo\AppData\Local\Temp\ccHWhG0i.s 			page 49


 2264 0022 93F87B30 		ldrb	r3, [r3, #123]
 2265 0026 BB73     		strb	r3, [r7, #14]
 423:PumpCom.c     ****         if(ValidateB == 0x65){
 2266              		.loc 1 423 0
 2267 0028 BB7B     		ldrb	r3, [r7, #14]	@ zero_extendqisi2
 2268 002a 652B     		cmp	r3, #101
 2269 002c 2AD1     		bne	.L109
 424:PumpCom.c     ****             for(x = 5; x < side.a.MepsanStore[3]+5; x++ ){
 2270              		.loc 1 424 0
 2271 002e 0523     		movs	r3, #5
 2272 0030 7B73     		strb	r3, [r7, #13]
 2273 0032 20E0     		b	.L110
 2274              	.L111:
 425:PumpCom.c     ****                 side.a.totalsNozzle[(side.a.MepsanStore[4])&0x0F][(side.a.MepsanStore[4]&0xF0)>>4][
 2275              		.loc 1 425 0 discriminator 3
 2276 0034 1D4B     		ldr	r3, .L115
 2277 0036 93F87D30 		ldrb	r3, [r3, #125]	@ zero_extendqisi2
 2278 003a 03F00F01 		and	r1, r3, #15
 2279 003e 1B4B     		ldr	r3, .L115
 2280 0040 93F87D30 		ldrb	r3, [r3, #125]	@ zero_extendqisi2
 2281 0044 1B09     		lsrs	r3, r3, #4
 2282 0046 DBB2     		uxtb	r3, r3
 2283 0048 1D46     		mov	r5, r3
 2284 004a 787B     		ldrb	r0, [r7, #13]	@ zero_extendqisi2
 2285 004c 7B7B     		ldrb	r3, [r7, #13]	@ zero_extendqisi2
 2286 004e 174A     		ldr	r2, .L115
 2287 0050 1344     		add	r3, r3, r2
 2288 0052 93F87960 		ldrb	r6, [r3, #121]	@ zero_extendqisi2
 2289 0056 154C     		ldr	r4, .L115
 2290 0058 2A46     		mov	r2, r5
 2291 005a 9200     		lsls	r2, r2, #2
 2292 005c 2A44     		add	r2, r2, r5
 2293 005e 0B46     		mov	r3, r1
 2294 0060 1B01     		lsls	r3, r3, #4
 2295 0062 5B1A     		subs	r3, r3, r1
 2296 0064 1344     		add	r3, r3, r2
 2297 0066 2344     		add	r3, r3, r4
 2298 0068 0344     		add	r3, r3, r0
 2299 006a 0133     		adds	r3, r3, #1
 2300 006c 3246     		mov	r2, r6
 2301 006e 1A70     		strb	r2, [r3]
 424:PumpCom.c     ****             for(x = 5; x < side.a.MepsanStore[3]+5; x++ ){
 2302              		.loc 1 424 0 discriminator 3
 2303 0070 7B7B     		ldrb	r3, [r7, #13]	@ zero_extendqisi2
 2304 0072 0133     		adds	r3, r3, #1
 2305 0074 7B73     		strb	r3, [r7, #13]
 2306              	.L110:
 424:PumpCom.c     ****             for(x = 5; x < side.a.MepsanStore[3]+5; x++ ){
 2307              		.loc 1 424 0 is_stmt 0 discriminator 1
 2308 0076 7A7B     		ldrb	r2, [r7, #13]	@ zero_extendqisi2
 2309 0078 0C4B     		ldr	r3, .L115
 2310 007a 93F87C30 		ldrb	r3, [r3, #124]	@ zero_extendqisi2
 2311 007e 0533     		adds	r3, r3, #5
 2312 0080 9A42     		cmp	r2, r3
 2313 0082 D7DB     		blt	.L111
 2314              	.L109:
 426:PumpCom.c     ****             }
ARM GAS  C:\Users\Lenovo\AppData\Local\Temp\ccHWhG0i.s 			page 50


 427:PumpCom.c     ****         }
 428:PumpCom.c     **** //        for(uint8 MepRx = 0; MepRx < 50; MepRx++){
 429:PumpCom.c     **** //            side.a.MepsanStore[MepRx] = MepsanResponse[MepRx];
 430:PumpCom.c     **** //        }
 431:PumpCom.c     ****     }
 432:PumpCom.c     **** //    if(address == side.b.dir){
 433:PumpCom.c     **** //        for(uint8 MepRx = 0; MepRx < 50; MepRx++){
 434:PumpCom.c     **** //            side.b.MepsanStore[MepRx] = MepsanResponse[MepRx];
 435:PumpCom.c     **** //        }
 436:PumpCom.c     **** //    }
 437:PumpCom.c     **** //    if(address == side.c.dir){
 438:PumpCom.c     **** //        for(uint8 MepRx = 0; MepRx < 50; MepRx++){
 439:PumpCom.c     **** //            side.c.MepsanStore[MepRx] = MepsanResponse[MepRx];
 440:PumpCom.c     **** //        }
 441:PumpCom.c     **** //    }
 442:PumpCom.c     **** //    if(address == side.d.dir){
 443:PumpCom.c     **** //        for(uint8 MepRx = 0; MepRx < 50; MepRx++){
 444:PumpCom.c     **** //            side.d.MepsanStore[MepRx] = MepsanResponse[MepRx];
 445:PumpCom.c     **** //        }
 446:PumpCom.c     **** //    }
 447:PumpCom.c     ****     
 448:PumpCom.c     ****     
 449:PumpCom.c     ****     
 450:PumpCom.c     ****     
 451:PumpCom.c     ****     
 452:PumpCom.c     ****     
 453:PumpCom.c     ****     UART_1_ClearRxBuffer();        
 2315              		.loc 1 453 0 is_stmt 1
 2316 0084 FFF7FEFF 		bl	UART_1_ClearRxBuffer
 454:PumpCom.c     ****     if(ValidateA == 0xC0 && ValidateB != 0x65){
 2317              		.loc 1 454 0
 2318 0088 FB7B     		ldrb	r3, [r7, #15]	@ zero_extendqisi2
 2319 008a C02B     		cmp	r3, #192
 2320 008c 04D1     		bne	.L112
 2321              		.loc 1 454 0 is_stmt 0 discriminator 1
 2322 008e BB7B     		ldrb	r3, [r7, #14]	@ zero_extendqisi2
 2323 0090 652B     		cmp	r3, #101
 2324 0092 01D0     		beq	.L112
 455:PumpCom.c     ****         GetACK();
 2325              		.loc 1 455 0 is_stmt 1
 2326 0094 FFF7FEFF 		bl	GetACK
 2327              	.L112:
 456:PumpCom.c     ****     }
 457:PumpCom.c     ****     if(ValidateB == 0x65){
 2328              		.loc 1 457 0
 2329 0098 BB7B     		ldrb	r3, [r7, #14]	@ zero_extendqisi2
 2330 009a 652B     		cmp	r3, #101
 2331 009c 01D1     		bne	.L114
 458:PumpCom.c     ****         GetTotal();
 2332              		.loc 1 458 0
 2333 009e FFF7FEFF 		bl	GetTotal
 2334              	.L114:
 459:PumpCom.c     ****     }    
 460:PumpCom.c     **** }...
 2335              		.loc 1 460 0
 2336 00a2 00BF     		nop
 2337 00a4 1437     		adds	r7, r7, #20
ARM GAS  C:\Users\Lenovo\AppData\Local\Temp\ccHWhG0i.s 			page 51


 2338              		.cfi_def_cfa_offset 20
 2339 00a6 BD46     		mov	sp, r7
 2340              		.cfi_def_cfa_register 13
 2341              		@ sp needed
 2342 00a8 F0BD     		pop	{r4, r5, r6, r7, pc}
 2343              	.L116:
 2344 00aa 00BF     		.align	2
 2345              	.L115:
 2346 00ac 00000000 		.word	side
 2347              		.cfi_endproc
 2348              	.LFE73:
 2349              		.size	ProccessResponse, .-ProccessResponse
 2350              		.text
 2351              	.Letext0:
 2352              		.file 2 "c:\\program files (x86)\\cypress\\psoc creator\\4.2\\psoc creator\\import\\gnu\\arm\\5.4.
 2353              		.file 3 "c:\\program files (x86)\\cypress\\psoc creator\\4.2\\psoc creator\\import\\gnu\\arm\\5.4.
 2354              		.file 4 "Generated_Source\\PSoC5/cytypes.h"
 2355              		.file 5 "./GVar.h"
 2356              		.file 6 "Generated_Source\\PSoC5/core_cm3.h"
 2357              		.section	.debug_info,"",%progbits
 2358              	.Ldebug_info0:
 2359 0000 B9080000 		.4byte	0x8b9
 2360 0004 0400     		.2byte	0x4
 2361 0006 00000000 		.4byte	.Ldebug_abbrev0
 2362 000a 04       		.byte	0x4
 2363 000b 01       		.uleb128 0x1
 2364 000c 87000000 		.4byte	.LASF72
 2365 0010 0C       		.byte	0xc
 2366 0011 78030000 		.4byte	.LASF73
 2367 0015 AF030000 		.4byte	.LASF74
 2368 0019 00000000 		.4byte	.Ldebug_ranges0+0
 2369 001d 00000000 		.4byte	0
 2370 0021 00000000 		.4byte	.Ldebug_line0
 2371 0025 02       		.uleb128 0x2
 2372 0026 01       		.byte	0x1
 2373 0027 06       		.byte	0x6
 2374 0028 50010000 		.4byte	.LASF0
 2375 002c 03       		.uleb128 0x3
 2376 002d BB010000 		.4byte	.LASF3
 2377 0031 02       		.byte	0x2
 2378 0032 1D       		.byte	0x1d
 2379 0033 37000000 		.4byte	0x37
 2380 0037 02       		.uleb128 0x2
 2381 0038 01       		.byte	0x1
 2382 0039 08       		.byte	0x8
 2383 003a 0B020000 		.4byte	.LASF1
 2384 003e 02       		.uleb128 0x2
 2385 003f 02       		.byte	0x2
 2386 0040 05       		.byte	0x5
 2387 0041 56000000 		.4byte	.LASF2
 2388 0045 03       		.uleb128 0x3
 2389 0046 1F010000 		.4byte	.LASF4
 2390 004a 02       		.byte	0x2
 2391 004b 2B       		.byte	0x2b
 2392 004c 50000000 		.4byte	0x50
 2393 0050 02       		.uleb128 0x2
 2394 0051 02       		.byte	0x2
ARM GAS  C:\Users\Lenovo\AppData\Local\Temp\ccHWhG0i.s 			page 52


 2395 0052 07       		.byte	0x7
 2396 0053 89020000 		.4byte	.LASF5
 2397 0057 03       		.uleb128 0x3
 2398 0058 34030000 		.4byte	.LASF6
 2399 005c 02       		.byte	0x2
 2400 005d 3F       		.byte	0x3f
 2401 005e 62000000 		.4byte	0x62
 2402 0062 02       		.uleb128 0x2
 2403 0063 04       		.byte	0x4
 2404 0064 05       		.byte	0x5
 2405 0065 84010000 		.4byte	.LASF7
 2406 0069 02       		.uleb128 0x2
 2407 006a 04       		.byte	0x4
 2408 006b 07       		.byte	0x7
 2409 006c E9020000 		.4byte	.LASF8
 2410 0070 02       		.uleb128 0x2
 2411 0071 08       		.byte	0x8
 2412 0072 05       		.byte	0x5
 2413 0073 62010000 		.4byte	.LASF9
 2414 0077 02       		.uleb128 0x2
 2415 0078 08       		.byte	0x8
 2416 0079 07       		.byte	0x7
 2417 007a 23020000 		.4byte	.LASF10
 2418 007e 04       		.uleb128 0x4
 2419 007f 04       		.byte	0x4
 2420 0080 05       		.byte	0x5
 2421 0081 696E7400 		.ascii	"int\000"
 2422 0085 02       		.uleb128 0x2
 2423 0086 04       		.byte	0x4
 2424 0087 07       		.byte	0x7
 2425 0088 3F020000 		.4byte	.LASF11
 2426 008c 03       		.uleb128 0x3
 2427 008d 42010000 		.4byte	.LASF12
 2428 0091 03       		.byte	0x3
 2429 0092 18       		.byte	0x18
 2430 0093 2C000000 		.4byte	0x2c
 2431 0097 03       		.uleb128 0x3
 2432 0098 AE020000 		.4byte	.LASF13
 2433 009c 03       		.byte	0x3
 2434 009d 24       		.byte	0x24
 2435 009e 45000000 		.4byte	0x45
 2436 00a2 03       		.uleb128 0x3
 2437 00a3 C1020000 		.4byte	.LASF14
 2438 00a7 03       		.byte	0x3
 2439 00a8 2C       		.byte	0x2c
 2440 00a9 57000000 		.4byte	0x57
 2441 00ad 05       		.uleb128 0x5
 2442 00ae 4A010000 		.4byte	.LASF15
 2443 00b2 04       		.byte	0x4
 2444 00b3 E401     		.2byte	0x1e4
 2445 00b5 37000000 		.4byte	0x37
 2446 00b9 05       		.uleb128 0x5
 2447 00ba 34010000 		.4byte	.LASF16
 2448 00be 04       		.byte	0x4
 2449 00bf E501     		.2byte	0x1e5
 2450 00c1 50000000 		.4byte	0x50
 2451 00c5 02       		.uleb128 0x2
ARM GAS  C:\Users\Lenovo\AppData\Local\Temp\ccHWhG0i.s 			page 53


 2452 00c6 04       		.byte	0x4
 2453 00c7 04       		.byte	0x4
 2454 00c8 5C010000 		.4byte	.LASF17
 2455 00cc 02       		.uleb128 0x2
 2456 00cd 08       		.byte	0x8
 2457 00ce 04       		.byte	0x4
 2458 00cf FB020000 		.4byte	.LASF18
 2459 00d3 02       		.uleb128 0x2
 2460 00d4 01       		.byte	0x1
 2461 00d5 08       		.byte	0x8
 2462 00d6 A9020000 		.4byte	.LASF19
 2463 00da 02       		.uleb128 0x2
 2464 00db 08       		.byte	0x8
 2465 00dc 04       		.byte	0x4
 2466 00dd F3010000 		.4byte	.LASF20
 2467 00e1 02       		.uleb128 0x2
 2468 00e2 04       		.byte	0x4
 2469 00e3 07       		.byte	0x7
 2470 00e4 60000000 		.4byte	.LASF21
 2471 00e8 06       		.uleb128 0x6
 2472 00e9 82030000 		.4byte	.LASF33
 2473 00ed 3301     		.2byte	0x133
 2474 00ef 05       		.byte	0x5
 2475 00f0 1B       		.byte	0x1b
 2476 00f1 88010000 		.4byte	0x188
 2477 00f5 07       		.uleb128 0x7
 2478 00f6 64697200 		.ascii	"dir\000"
 2479 00fa 05       		.byte	0x5
 2480 00fb 1C       		.byte	0x1c
 2481 00fc AD000000 		.4byte	0xad
 2482 0100 00       		.byte	0
 2483 0101 08       		.uleb128 0x8
 2484 0102 DC020000 		.4byte	.LASF22
 2485 0106 05       		.byte	0x5
 2486 0107 1D       		.byte	0x1d
 2487 0108 88010000 		.4byte	0x188
 2488 010c 01       		.byte	0x1
 2489 010d 08       		.uleb128 0x8
 2490 010e 19020000 		.4byte	.LASF23
 2491 0112 05       		.byte	0x5
 2492 0113 1E       		.byte	0x1e
 2493 0114 A4010000 		.4byte	0x1a4
 2494 0118 3D       		.byte	0x3d
 2495 0119 08       		.uleb128 0x8
 2496 011a 54020000 		.4byte	.LASF24
 2497 011e 05       		.byte	0x5
 2498 011f 1F       		.byte	0x1f
 2499 0120 BA010000 		.4byte	0x1ba
 2500 0124 5D       		.byte	0x5d
 2501 0125 08       		.uleb128 0x8
 2502 0126 B0010000 		.4byte	.LASF25
 2503 012a 05       		.byte	0x5
 2504 012b 20       		.byte	0x20
 2505 012c BA010000 		.4byte	0x1ba
 2506 0130 61       		.byte	0x61
 2507 0131 08       		.uleb128 0x8
 2508 0132 4C020000 		.4byte	.LASF26
ARM GAS  C:\Users\Lenovo\AppData\Local\Temp\ccHWhG0i.s 			page 54


 2509 0136 05       		.byte	0x5
 2510 0137 21       		.byte	0x21
 2511 0138 CA010000 		.4byte	0x1ca
 2512 013c 65       		.byte	0x65
 2513 013d 08       		.uleb128 0x8
 2514 013e 7D020000 		.4byte	.LASF27
 2515 0142 05       		.byte	0x5
 2516 0143 22       		.byte	0x22
 2517 0144 AD000000 		.4byte	0xad
 2518 0148 73       		.byte	0x73
 2519 0149 08       		.uleb128 0x8
 2520 014a 70010000 		.4byte	.LASF28
 2521 014e 05       		.byte	0x5
 2522 014f 23       		.byte	0x23
 2523 0150 DA010000 		.4byte	0x1da
 2524 0154 74       		.byte	0x74
 2525 0155 08       		.uleb128 0x8
 2526 0156 4F030000 		.4byte	.LASF29
 2527 015a 05       		.byte	0x5
 2528 015b 24       		.byte	0x24
 2529 015c EA010000 		.4byte	0x1ea
 2530 0160 79       		.byte	0x79
 2531 0161 08       		.uleb128 0x8
 2532 0162 D6010000 		.4byte	.LASF30
 2533 0166 05       		.byte	0x5
 2534 0167 25       		.byte	0x25
 2535 0168 FA010000 		.4byte	0x1fa
 2536 016c AB       		.byte	0xab
 2537 016d 09       		.uleb128 0x9
 2538 016e 5B030000 		.4byte	.LASF31
 2539 0172 05       		.byte	0x5
 2540 0173 26       		.byte	0x26
 2541 0174 16020000 		.4byte	0x216
 2542 0178 2301     		.2byte	0x123
 2543 017a 09       		.uleb128 0x9
 2544 017b 8D010000 		.4byte	.LASF32
 2545 017f 05       		.byte	0x5
 2546 0180 27       		.byte	0x27
 2547 0181 16020000 		.4byte	0x216
 2548 0185 2B01     		.2byte	0x12b
 2549 0187 00       		.byte	0
 2550 0188 0A       		.uleb128 0xa
 2551 0189 AD000000 		.4byte	0xad
 2552 018d A4010000 		.4byte	0x1a4
 2553 0191 0B       		.uleb128 0xb
 2554 0192 E1000000 		.4byte	0xe1
 2555 0196 03       		.byte	0x3
 2556 0197 0B       		.uleb128 0xb
 2557 0198 E1000000 		.4byte	0xe1
 2558 019c 02       		.byte	0x2
 2559 019d 0B       		.uleb128 0xb
 2560 019e E1000000 		.4byte	0xe1
 2561 01a2 04       		.byte	0x4
 2562 01a3 00       		.byte	0
 2563 01a4 0A       		.uleb128 0xa
 2564 01a5 AD000000 		.4byte	0xad
 2565 01a9 BA010000 		.4byte	0x1ba
ARM GAS  C:\Users\Lenovo\AppData\Local\Temp\ccHWhG0i.s 			page 55


 2566 01ad 0B       		.uleb128 0xb
 2567 01ae E1000000 		.4byte	0xe1
 2568 01b2 03       		.byte	0x3
 2569 01b3 0B       		.uleb128 0xb
 2570 01b4 E1000000 		.4byte	0xe1
 2571 01b8 07       		.byte	0x7
 2572 01b9 00       		.byte	0
 2573 01ba 0A       		.uleb128 0xa
 2574 01bb AD000000 		.4byte	0xad
 2575 01bf CA010000 		.4byte	0x1ca
 2576 01c3 0B       		.uleb128 0xb
 2577 01c4 E1000000 		.4byte	0xe1
 2578 01c8 03       		.byte	0x3
 2579 01c9 00       		.byte	0
 2580 01ca 0A       		.uleb128 0xa
 2581 01cb AD000000 		.4byte	0xad
 2582 01cf DA010000 		.4byte	0x1da
 2583 01d3 0B       		.uleb128 0xb
 2584 01d4 E1000000 		.4byte	0xe1
 2585 01d8 0D       		.byte	0xd
 2586 01d9 00       		.byte	0
 2587 01da 0A       		.uleb128 0xa
 2588 01db AD000000 		.4byte	0xad
 2589 01df EA010000 		.4byte	0x1ea
 2590 01e3 0B       		.uleb128 0xb
 2591 01e4 E1000000 		.4byte	0xe1
 2592 01e8 04       		.byte	0x4
 2593 01e9 00       		.byte	0
 2594 01ea 0A       		.uleb128 0xa
 2595 01eb AD000000 		.4byte	0xad
 2596 01ef FA010000 		.4byte	0x1fa
 2597 01f3 0B       		.uleb128 0xb
 2598 01f4 E1000000 		.4byte	0xe1
 2599 01f8 31       		.byte	0x31
 2600 01f9 00       		.byte	0
 2601 01fa 0A       		.uleb128 0xa
 2602 01fb AD000000 		.4byte	0xad
 2603 01ff 16020000 		.4byte	0x216
 2604 0203 0B       		.uleb128 0xb
 2605 0204 E1000000 		.4byte	0xe1
 2606 0208 03       		.byte	0x3
 2607 0209 0B       		.uleb128 0xb
 2608 020a E1000000 		.4byte	0xe1
 2609 020e 02       		.byte	0x2
 2610 020f 0B       		.uleb128 0xb
 2611 0210 E1000000 		.4byte	0xe1
 2612 0214 09       		.byte	0x9
 2613 0215 00       		.byte	0
 2614 0216 0A       		.uleb128 0xa
 2615 0217 AD000000 		.4byte	0xad
 2616 021b 26020000 		.4byte	0x226
 2617 021f 0B       		.uleb128 0xb
 2618 0220 E1000000 		.4byte	0xe1
 2619 0224 07       		.byte	0x7
 2620 0225 00       		.byte	0
 2621 0226 06       		.uleb128 0x6
 2622 0227 C9020000 		.4byte	.LASF34
ARM GAS  C:\Users\Lenovo\AppData\Local\Temp\ccHWhG0i.s 			page 56


 2623 022b CC04     		.2byte	0x4cc
 2624 022d 05       		.byte	0x5
 2625 022e 2B       		.byte	0x2b
 2626 022f 5F020000 		.4byte	0x25f
 2627 0233 07       		.uleb128 0x7
 2628 0234 6100     		.ascii	"a\000"
 2629 0236 05       		.byte	0x5
 2630 0237 2C       		.byte	0x2c
 2631 0238 E8000000 		.4byte	0xe8
 2632 023c 00       		.byte	0
 2633 023d 0C       		.uleb128 0xc
 2634 023e 6200     		.ascii	"b\000"
 2635 0240 05       		.byte	0x5
 2636 0241 2D       		.byte	0x2d
 2637 0242 E8000000 		.4byte	0xe8
 2638 0246 3301     		.2byte	0x133
 2639 0248 0C       		.uleb128 0xc
 2640 0249 6300     		.ascii	"c\000"
 2641 024b 05       		.byte	0x5
 2642 024c 2E       		.byte	0x2e
 2643 024d E8000000 		.4byte	0xe8
 2644 0251 6602     		.2byte	0x266
 2645 0253 0C       		.uleb128 0xc
 2646 0254 6400     		.ascii	"d\000"
 2647 0256 05       		.byte	0x5
 2648 0257 2F       		.byte	0x2f
 2649 0258 E8000000 		.4byte	0xe8
 2650 025c 9903     		.2byte	0x399
 2651 025e 00       		.byte	0
 2652 025f 0D       		.uleb128 0xd
 2653 0260 1A000000 		.4byte	.LASF75
 2654 0264 01       		.byte	0x1
 2655 0265 37000000 		.4byte	0x37
 2656 0269 05       		.byte	0x5
 2657 026a 34       		.byte	0x34
 2658 026b 82020000 		.4byte	0x282
 2659 026f 0E       		.uleb128 0xe
 2660 0270 00000000 		.4byte	.LASF35
 2661 0274 00       		.byte	0
 2662 0275 0E       		.uleb128 0xe
 2663 0276 C5010000 		.4byte	.LASF36
 2664 027a 06       		.byte	0x6
 2665 027b 0E       		.uleb128 0xe
 2666 027c 3C000000 		.4byte	.LASF37
 2667 0280 04       		.byte	0x4
 2668 0281 00       		.byte	0
 2669 0282 0F       		.uleb128 0xf
 2670 0283 B7020000 		.4byte	.LASF44
 2671 0287 01       		.byte	0x1
 2672 0288 1A       		.byte	0x1a
 2673 0289 97000000 		.4byte	0x97
 2674 028d 00000000 		.4byte	.LFB63
 2675 0291 FA000000 		.4byte	.LFE63-.LFB63
 2676 0295 01       		.uleb128 0x1
 2677 0296 9C       		.byte	0x9c
 2678 0297 08030000 		.4byte	0x308
 2679 029b 10       		.uleb128 0x10
ARM GAS  C:\Users\Lenovo\AppData\Local\Temp\ccHWhG0i.s 			page 57


 2680 029c D7020000 		.4byte	.LASF38
 2681 02a0 01       		.byte	0x1
 2682 02a1 1A       		.byte	0x1a
 2683 02a2 08030000 		.4byte	0x308
 2684 02a6 02       		.uleb128 0x2
 2685 02a7 91       		.byte	0x91
 2686 02a8 5C       		.sleb128 -36
 2687 02a9 10       		.uleb128 0x10
 2688 02aa 1E030000 		.4byte	.LASF39
 2689 02ae 01       		.byte	0x1
 2690 02af 1A       		.byte	0x1a
 2691 02b0 97000000 		.4byte	0x97
 2692 02b4 02       		.uleb128 0x2
 2693 02b5 91       		.byte	0x91
 2694 02b6 5A       		.sleb128 -38
 2695 02b7 11       		.uleb128 0x11
 2696 02b8 6F757400 		.ascii	"out\000"
 2697 02bc 01       		.byte	0x1
 2698 02bd 1C       		.byte	0x1c
 2699 02be 97000000 		.4byte	0x97
 2700 02c2 02       		.uleb128 0x2
 2701 02c3 91       		.byte	0x91
 2702 02c4 76       		.sleb128 -10
 2703 02c5 12       		.uleb128 0x12
 2704 02c6 73020000 		.4byte	.LASF40
 2705 02ca 01       		.byte	0x1
 2706 02cb 1D       		.byte	0x1d
 2707 02cc 7E000000 		.4byte	0x7e
 2708 02d0 02       		.uleb128 0x2
 2709 02d1 91       		.byte	0x91
 2710 02d2 70       		.sleb128 -16
 2711 02d3 12       		.uleb128 0x12
 2712 02d4 4D000000 		.4byte	.LASF41
 2713 02d8 01       		.byte	0x1
 2714 02d9 1D       		.byte	0x1d
 2715 02da 7E000000 		.4byte	0x7e
 2716 02de 02       		.uleb128 0x2
 2717 02df 91       		.byte	0x91
 2718 02e0 60       		.sleb128 -32
 2719 02e1 11       		.uleb128 0x11
 2720 02e2 6900     		.ascii	"i\000"
 2721 02e4 01       		.byte	0x1
 2722 02e5 3B       		.byte	0x3b
 2723 02e6 7E000000 		.4byte	0x7e
 2724 02ea 02       		.uleb128 0x2
 2725 02eb 91       		.byte	0x91
 2726 02ec 6C       		.sleb128 -20
 2727 02ed 11       		.uleb128 0x11
 2728 02ee 63726300 		.ascii	"crc\000"
 2729 02f2 01       		.byte	0x1
 2730 02f3 44       		.byte	0x44
 2731 02f4 97000000 		.4byte	0x97
 2732 02f8 02       		.uleb128 0x2
 2733 02f9 91       		.byte	0x91
 2734 02fa 6A       		.sleb128 -22
 2735 02fb 11       		.uleb128 0x11
 2736 02fc 6A00     		.ascii	"j\000"
ARM GAS  C:\Users\Lenovo\AppData\Local\Temp\ccHWhG0i.s 			page 58


 2737 02fe 01       		.byte	0x1
 2738 02ff 46       		.byte	0x46
 2739 0300 7E000000 		.4byte	0x7e
 2740 0304 02       		.uleb128 0x2
 2741 0305 91       		.byte	0x91
 2742 0306 64       		.sleb128 -28
 2743 0307 00       		.byte	0
 2744 0308 13       		.uleb128 0x13
 2745 0309 04       		.byte	0x4
 2746 030a 0E030000 		.4byte	0x30e
 2747 030e 14       		.uleb128 0x14
 2748 030f 8C000000 		.4byte	0x8c
 2749 0313 15       		.uleb128 0x15
 2750 0314 7B000000 		.4byte	.LASF52
 2751 0318 01       		.byte	0x1
 2752 0319 54       		.byte	0x54
 2753 031a 00000000 		.4byte	.LFB64
 2754 031e 00060000 		.4byte	.LFE64-.LFB64
 2755 0322 01       		.uleb128 0x1
 2756 0323 9C       		.byte	0x9c
 2757 0324 E5030000 		.4byte	0x3e5
 2758 0328 12       		.uleb128 0x12
 2759 0329 1E030000 		.4byte	.LASF39
 2760 032d 01       		.byte	0x1
 2761 032e 55       		.byte	0x55
 2762 032f AD000000 		.4byte	0xad
 2763 0333 02       		.uleb128 0x2
 2764 0334 91       		.byte	0x91
 2765 0335 61       		.sleb128 -31
 2766 0336 12       		.uleb128 0x12
 2767 0337 A1010000 		.4byte	.LASF42
 2768 033b 01       		.byte	0x1
 2769 033c 55       		.byte	0x55
 2770 033d AD000000 		.4byte	0xad
 2771 0341 02       		.uleb128 0x2
 2772 0342 91       		.byte	0x91
 2773 0343 60       		.sleb128 -32
 2774 0344 16       		.uleb128 0x16
 2775 0345 22000000 		.4byte	.LBB2
 2776 0349 2A000000 		.4byte	.LBE2-.LBB2
 2777 034d 60030000 		.4byte	0x360
 2778 0351 12       		.uleb128 0x12
 2779 0352 A3020000 		.4byte	.LASF43
 2780 0356 01       		.byte	0x1
 2781 0357 5A       		.byte	0x5a
 2782 0358 AD000000 		.4byte	0xad
 2783 035c 02       		.uleb128 0x2
 2784 035d 91       		.byte	0x91
 2785 035e 67       		.sleb128 -25
 2786 035f 00       		.byte	0
 2787 0360 16       		.uleb128 0x16
 2788 0361 58000000 		.4byte	.LBB3
 2789 0365 5E000000 		.4byte	.LBE3-.LBB3
 2790 0369 7A030000 		.4byte	0x37a
 2791 036d 11       		.uleb128 0x11
 2792 036e 7800     		.ascii	"x\000"
 2793 0370 01       		.byte	0x1
ARM GAS  C:\Users\Lenovo\AppData\Local\Temp\ccHWhG0i.s 			page 59


 2794 0371 5E       		.byte	0x5e
 2795 0372 AD000000 		.4byte	0xad
 2796 0376 02       		.uleb128 0x2
 2797 0377 91       		.byte	0x91
 2798 0378 66       		.sleb128 -26
 2799 0379 00       		.byte	0
 2800 037a 16       		.uleb128 0x16
 2801 037b C2040000 		.4byte	.LBB4
 2802 037f 44000000 		.4byte	.LBE4-.LBB4
 2803 0383 94030000 		.4byte	0x394
 2804 0387 11       		.uleb128 0x11
 2805 0388 7800     		.ascii	"x\000"
 2806 038a 01       		.byte	0x1
 2807 038b 75       		.byte	0x75
 2808 038c AD000000 		.4byte	0xad
 2809 0390 02       		.uleb128 0x2
 2810 0391 91       		.byte	0x91
 2811 0392 65       		.sleb128 -27
 2812 0393 00       		.byte	0
 2813 0394 16       		.uleb128 0x16
 2814 0395 54050000 		.4byte	.LBB5
 2815 0399 2A000000 		.4byte	.LBE5-.LBB5
 2816 039d B0030000 		.4byte	0x3b0
 2817 03a1 12       		.uleb128 0x12
 2818 03a2 A3020000 		.4byte	.LASF43
 2819 03a6 01       		.byte	0x1
 2820 03a7 82       		.byte	0x82
 2821 03a8 AD000000 		.4byte	0xad
 2822 03ac 02       		.uleb128 0x2
 2823 03ad 91       		.byte	0x91
 2824 03ae 64       		.sleb128 -28
 2825 03af 00       		.byte	0
 2826 03b0 16       		.uleb128 0x16
 2827 03b1 8A050000 		.4byte	.LBB6
 2828 03b5 2A000000 		.4byte	.LBE6-.LBB6
 2829 03b9 CC030000 		.4byte	0x3cc
 2830 03bd 12       		.uleb128 0x12
 2831 03be A3020000 		.4byte	.LASF43
 2832 03c2 01       		.byte	0x1
 2833 03c3 87       		.byte	0x87
 2834 03c4 AD000000 		.4byte	0xad
 2835 03c8 02       		.uleb128 0x2
 2836 03c9 91       		.byte	0x91
 2837 03ca 63       		.sleb128 -29
 2838 03cb 00       		.byte	0
 2839 03cc 17       		.uleb128 0x17
 2840 03cd C0050000 		.4byte	.LBB7
 2841 03d1 2A000000 		.4byte	.LBE7-.LBB7
 2842 03d5 12       		.uleb128 0x12
 2843 03d6 A3020000 		.4byte	.LASF43
 2844 03da 01       		.byte	0x1
 2845 03db 8C       		.byte	0x8c
 2846 03dc AD000000 		.4byte	0xad
 2847 03e0 02       		.uleb128 0x2
 2848 03e1 91       		.byte	0x91
 2849 03e2 62       		.sleb128 -30
 2850 03e3 00       		.byte	0
ARM GAS  C:\Users\Lenovo\AppData\Local\Temp\ccHWhG0i.s 			page 60


 2851 03e4 00       		.byte	0
 2852 03e5 18       		.uleb128 0x18
 2853 03e6 8B030000 		.4byte	.LASF45
 2854 03ea 01       		.byte	0x1
 2855 03eb 98       		.byte	0x98
 2856 03ec AD000000 		.4byte	0xad
 2857 03f0 00000000 		.4byte	.LFB65
 2858 03f4 B0000000 		.4byte	.LFE65-.LFB65
 2859 03f8 01       		.uleb128 0x1
 2860 03f9 9C       		.byte	0x9c
 2861 03fa 33040000 		.4byte	0x433
 2862 03fe 19       		.uleb128 0x19
 2863 03ff 706F7300 		.ascii	"pos\000"
 2864 0403 01       		.byte	0x1
 2865 0404 98       		.byte	0x98
 2866 0405 AD000000 		.4byte	0xad
 2867 0409 02       		.uleb128 0x2
 2868 040a 91       		.byte	0x91
 2869 040b 67       		.sleb128 -25
 2870 040c 12       		.uleb128 0x12
 2871 040d 1E030000 		.4byte	.LASF39
 2872 0411 01       		.byte	0x1
 2873 0412 9D       		.byte	0x9d
 2874 0413 AD000000 		.4byte	0xad
 2875 0417 02       		.uleb128 0x2
 2876 0418 91       		.byte	0x91
 2877 0419 6E       		.sleb128 -18
 2878 041a 17       		.uleb128 0x17
 2879 041b 5C000000 		.4byte	.LBB8
 2880 041f 22000000 		.4byte	.LBE8-.LBB8
 2881 0423 12       		.uleb128 0x12
 2882 0424 A3020000 		.4byte	.LASF43
 2883 0428 01       		.byte	0x1
 2884 0429 A5       		.byte	0xa5
 2885 042a AD000000 		.4byte	0xad
 2886 042e 02       		.uleb128 0x2
 2887 042f 91       		.byte	0x91
 2888 0430 6F       		.sleb128 -17
 2889 0431 00       		.byte	0
 2890 0432 00       		.byte	0
 2891 0433 18       		.uleb128 0x18
 2892 0434 15010000 		.4byte	.LASF46
 2893 0438 01       		.byte	0x1
 2894 0439 B9       		.byte	0xb9
 2895 043a AD000000 		.4byte	0xad
 2896 043e 00000000 		.4byte	.LFB66
 2897 0442 E0000000 		.4byte	.LFE66-.LFB66
 2898 0446 01       		.uleb128 0x1
 2899 0447 9C       		.byte	0x9c
 2900 0448 A4040000 		.4byte	0x4a4
 2901 044c 10       		.uleb128 0x10
 2902 044d A1010000 		.4byte	.LASF42
 2903 0451 01       		.byte	0x1
 2904 0452 B9       		.byte	0xb9
 2905 0453 AD000000 		.4byte	0xad
 2906 0457 02       		.uleb128 0x2
 2907 0458 91       		.byte	0x91
ARM GAS  C:\Users\Lenovo\AppData\Local\Temp\ccHWhG0i.s 			page 61


 2908 0459 6F       		.sleb128 -17
 2909 045a 1A       		.uleb128 0x1a
 2910 045b 1E030000 		.4byte	.LASF39
 2911 045f 01       		.byte	0x1
 2912 0460 BA       		.byte	0xba
 2913 0461 AD000000 		.4byte	0xad
 2914 0465 12       		.uleb128 0x12
 2915 0466 9C020000 		.4byte	.LASF47
 2916 046a 01       		.byte	0x1
 2917 046b BA       		.byte	0xba
 2918 046c AD000000 		.4byte	0xad
 2919 0470 02       		.uleb128 0x2
 2920 0471 91       		.byte	0x91
 2921 0472 75       		.sleb128 -11
 2922 0473 16       		.uleb128 0x16
 2923 0474 0A000000 		.4byte	.LBB9
 2924 0478 1A000000 		.4byte	.LBE9-.LBB9
 2925 047c 8D040000 		.4byte	0x48d
 2926 0480 11       		.uleb128 0x11
 2927 0481 7800     		.ascii	"x\000"
 2928 0483 01       		.byte	0x1
 2929 0484 BB       		.byte	0xbb
 2930 0485 AD000000 		.4byte	0xad
 2931 0489 02       		.uleb128 0x2
 2932 048a 91       		.byte	0x91
 2933 048b 77       		.sleb128 -9
 2934 048c 00       		.byte	0
 2935 048d 17       		.uleb128 0x17
 2936 048e 96000000 		.4byte	.LBB10
 2937 0492 1E000000 		.4byte	.LBE10-.LBB10
 2938 0496 11       		.uleb128 0x11
 2939 0497 7800     		.ascii	"x\000"
 2940 0499 01       		.byte	0x1
 2941 049a CB       		.byte	0xcb
 2942 049b AD000000 		.4byte	0xad
 2943 049f 02       		.uleb128 0x2
 2944 04a0 91       		.byte	0x91
 2945 04a1 76       		.sleb128 -10
 2946 04a2 00       		.byte	0
 2947 04a3 00       		.byte	0
 2948 04a4 18       		.uleb128 0x18
 2949 04a5 0D000000 		.4byte	.LASF48
 2950 04a9 01       		.byte	0x1
 2951 04aa DA       		.byte	0xda
 2952 04ab AD000000 		.4byte	0xad
 2953 04af 00000000 		.4byte	.LFB67
 2954 04b3 14010000 		.4byte	.LFE67-.LFB67
 2955 04b7 01       		.uleb128 0x1
 2956 04b8 9C       		.byte	0x9c
 2957 04b9 34050000 		.4byte	0x534
 2958 04bd 10       		.uleb128 0x10
 2959 04be A1010000 		.4byte	.LASF42
 2960 04c2 01       		.byte	0x1
 2961 04c3 DA       		.byte	0xda
 2962 04c4 AD000000 		.4byte	0xad
 2963 04c8 02       		.uleb128 0x2
 2964 04c9 91       		.byte	0x91
ARM GAS  C:\Users\Lenovo\AppData\Local\Temp\ccHWhG0i.s 			page 62


 2965 04ca 67       		.sleb128 -25
 2966 04cb 12       		.uleb128 0x12
 2967 04cc 1E030000 		.4byte	.LASF39
 2968 04d0 01       		.byte	0x1
 2969 04d1 DB       		.byte	0xdb
 2970 04d2 AD000000 		.4byte	0xad
 2971 04d6 02       		.uleb128 0x2
 2972 04d7 91       		.byte	0x91
 2973 04d8 6C       		.sleb128 -20
 2974 04d9 12       		.uleb128 0x12
 2975 04da 9C020000 		.4byte	.LASF47
 2976 04de 01       		.byte	0x1
 2977 04df DB       		.byte	0xdb
 2978 04e0 AD000000 		.4byte	0xad
 2979 04e4 02       		.uleb128 0x2
 2980 04e5 91       		.byte	0x91
 2981 04e6 6B       		.sleb128 -21
 2982 04e7 16       		.uleb128 0x16
 2983 04e8 0A000000 		.4byte	.LBB11
 2984 04ec 1A000000 		.4byte	.LBE11-.LBB11
 2985 04f0 01050000 		.4byte	0x501
 2986 04f4 11       		.uleb128 0x11
 2987 04f5 7800     		.ascii	"x\000"
 2988 04f7 01       		.byte	0x1
 2989 04f8 DC       		.byte	0xdc
 2990 04f9 AD000000 		.4byte	0xad
 2991 04fd 02       		.uleb128 0x2
 2992 04fe 91       		.byte	0x91
 2993 04ff 6F       		.sleb128 -17
 2994 0500 00       		.byte	0
 2995 0501 16       		.uleb128 0x16
 2996 0502 96000000 		.4byte	.LBB12
 2997 0506 1E000000 		.4byte	.LBE12-.LBB12
 2998 050a 1B050000 		.4byte	0x51b
 2999 050e 11       		.uleb128 0x11
 3000 050f 7800     		.ascii	"x\000"
 3001 0511 01       		.byte	0x1
 3002 0512 EC       		.byte	0xec
 3003 0513 AD000000 		.4byte	0xad
 3004 0517 02       		.uleb128 0x2
 3005 0518 91       		.byte	0x91
 3006 0519 6E       		.sleb128 -18
 3007 051a 00       		.byte	0
 3008 051b 17       		.uleb128 0x17
 3009 051c C8000000 		.4byte	.LBB13
 3010 0520 22000000 		.4byte	.LBE13-.LBB13
 3011 0524 12       		.uleb128 0x12
 3012 0525 A3020000 		.4byte	.LASF43
 3013 0529 01       		.byte	0x1
 3014 052a F2       		.byte	0xf2
 3015 052b AD000000 		.4byte	0xad
 3016 052f 02       		.uleb128 0x2
 3017 0530 91       		.byte	0x91
 3018 0531 6D       		.sleb128 -19
 3019 0532 00       		.byte	0
 3020 0533 00       		.byte	0
 3021 0534 1B       		.uleb128 0x1b
ARM GAS  C:\Users\Lenovo\AppData\Local\Temp\ccHWhG0i.s 			page 63


 3022 0535 6E030000 		.4byte	.LASF49
 3023 0539 01       		.byte	0x1
 3024 053a 0101     		.2byte	0x101
 3025 053c AD000000 		.4byte	0xad
 3026 0540 00000000 		.4byte	.LFB68
 3027 0544 7C010000 		.4byte	.LFE68-.LFB68
 3028 0548 01       		.uleb128 0x1
 3029 0549 9C       		.byte	0x9c
 3030 054a 15060000 		.4byte	0x615
 3031 054e 1C       		.uleb128 0x1c
 3032 054f A1010000 		.4byte	.LASF42
 3033 0553 01       		.byte	0x1
 3034 0554 0101     		.2byte	0x101
 3035 0556 AD000000 		.4byte	0xad
 3036 055a 02       		.uleb128 0x2
 3037 055b 91       		.byte	0x91
 3038 055c 67       		.sleb128 -25
 3039 055d 1D       		.uleb128 0x1d
 3040 055e 1E030000 		.4byte	.LASF39
 3041 0562 01       		.byte	0x1
 3042 0563 0601     		.2byte	0x106
 3043 0565 AD000000 		.4byte	0xad
 3044 0569 02       		.uleb128 0x2
 3045 056a 91       		.byte	0x91
 3046 056b 69       		.sleb128 -23
 3047 056c 16       		.uleb128 0x16
 3048 056d 0A000000 		.4byte	.LBB14
 3049 0571 1A000000 		.4byte	.LBE14-.LBB14
 3050 0575 87050000 		.4byte	0x587
 3051 0579 1E       		.uleb128 0x1e
 3052 057a 7800     		.ascii	"x\000"
 3053 057c 01       		.byte	0x1
 3054 057d 0301     		.2byte	0x103
 3055 057f AD000000 		.4byte	0xad
 3056 0583 02       		.uleb128 0x2
 3057 0584 91       		.byte	0x91
 3058 0585 6F       		.sleb128 -17
 3059 0586 00       		.byte	0
 3060 0587 16       		.uleb128 0x16
 3061 0588 5E000000 		.4byte	.LBB15
 3062 058c 24000000 		.4byte	.LBE15-.LBB15
 3063 0590 A4050000 		.4byte	0x5a4
 3064 0594 1D       		.uleb128 0x1d
 3065 0595 A3020000 		.4byte	.LASF43
 3066 0599 01       		.byte	0x1
 3067 059a 0F01     		.2byte	0x10f
 3068 059c AD000000 		.4byte	0xad
 3069 05a0 02       		.uleb128 0x2
 3070 05a1 91       		.byte	0x91
 3071 05a2 6E       		.sleb128 -18
 3072 05a3 00       		.byte	0
 3073 05a4 16       		.uleb128 0x16
 3074 05a5 A2000000 		.4byte	.LBB16
 3075 05a9 26000000 		.4byte	.LBE16-.LBB16
 3076 05ad C1050000 		.4byte	0x5c1
 3077 05b1 1D       		.uleb128 0x1d
 3078 05b2 A3020000 		.4byte	.LASF43
ARM GAS  C:\Users\Lenovo\AppData\Local\Temp\ccHWhG0i.s 			page 64


 3079 05b6 01       		.byte	0x1
 3080 05b7 1701     		.2byte	0x117
 3081 05b9 AD000000 		.4byte	0xad
 3082 05bd 02       		.uleb128 0x2
 3083 05be 91       		.byte	0x91
 3084 05bf 6D       		.sleb128 -19
 3085 05c0 00       		.byte	0
 3086 05c1 16       		.uleb128 0x16
 3087 05c2 D4000000 		.4byte	.LBB17
 3088 05c6 26000000 		.4byte	.LBE17-.LBB17
 3089 05ca DE050000 		.4byte	0x5de
 3090 05ce 1D       		.uleb128 0x1d
 3091 05cf A3020000 		.4byte	.LASF43
 3092 05d3 01       		.byte	0x1
 3093 05d4 1C01     		.2byte	0x11c
 3094 05d6 AD000000 		.4byte	0xad
 3095 05da 02       		.uleb128 0x2
 3096 05db 91       		.byte	0x91
 3097 05dc 6C       		.sleb128 -20
 3098 05dd 00       		.byte	0
 3099 05de 16       		.uleb128 0x16
 3100 05df 06010000 		.4byte	.LBB18
 3101 05e3 26000000 		.4byte	.LBE18-.LBB18
 3102 05e7 FB050000 		.4byte	0x5fb
 3103 05eb 1D       		.uleb128 0x1d
 3104 05ec A3020000 		.4byte	.LASF43
 3105 05f0 01       		.byte	0x1
 3106 05f1 2101     		.2byte	0x121
 3107 05f3 AD000000 		.4byte	0xad
 3108 05f7 02       		.uleb128 0x2
 3109 05f8 91       		.byte	0x91
 3110 05f9 6B       		.sleb128 -21
 3111 05fa 00       		.byte	0
 3112 05fb 17       		.uleb128 0x17
 3113 05fc 38010000 		.4byte	.LBB19
 3114 0600 26000000 		.4byte	.LBE19-.LBB19
 3115 0604 1D       		.uleb128 0x1d
 3116 0605 A3020000 		.4byte	.LASF43
 3117 0609 01       		.byte	0x1
 3118 060a 2601     		.2byte	0x126
 3119 060c AD000000 		.4byte	0xad
 3120 0610 02       		.uleb128 0x2
 3121 0611 91       		.byte	0x91
 3122 0612 6A       		.sleb128 -22
 3123 0613 00       		.byte	0
 3124 0614 00       		.byte	0
 3125 0615 1B       		.uleb128 0x1b
 3126 0616 29000000 		.4byte	.LASF50
 3127 061a 01       		.byte	0x1
 3128 061b 3B01     		.2byte	0x13b
 3129 061d AD000000 		.4byte	0xad
 3130 0621 00000000 		.4byte	.LFB69
 3131 0625 18010000 		.4byte	.LFE69-.LFB69
 3132 0629 01       		.uleb128 0x1
 3133 062a 9C       		.byte	0x9c
 3134 062b 91060000 		.4byte	0x691
 3135 062f 1C       		.uleb128 0x1c
ARM GAS  C:\Users\Lenovo\AppData\Local\Temp\ccHWhG0i.s 			page 65


 3136 0630 A1010000 		.4byte	.LASF42
 3137 0634 01       		.byte	0x1
 3138 0635 3B01     		.2byte	0x13b
 3139 0637 AD000000 		.4byte	0xad
 3140 063b 02       		.uleb128 0x2
 3141 063c 91       		.byte	0x91
 3142 063d 67       		.sleb128 -25
 3143 063e 1C       		.uleb128 0x1c
 3144 063f 75000000 		.4byte	.LASF51
 3145 0643 01       		.byte	0x1
 3146 0644 3B01     		.2byte	0x13b
 3147 0646 91060000 		.4byte	0x691
 3148 064a 02       		.uleb128 0x2
 3149 064b 91       		.byte	0x91
 3150 064c 60       		.sleb128 -32
 3151 064d 1D       		.uleb128 0x1d
 3152 064e 1E030000 		.4byte	.LASF39
 3153 0652 01       		.byte	0x1
 3154 0653 3D01     		.2byte	0x13d
 3155 0655 AD000000 		.4byte	0xad
 3156 0659 02       		.uleb128 0x2
 3157 065a 91       		.byte	0x91
 3158 065b 6D       		.sleb128 -19
 3159 065c 16       		.uleb128 0x16
 3160 065d 8C000000 		.4byte	.LBB20
 3161 0661 1E000000 		.4byte	.LBE20-.LBB20
 3162 0665 77060000 		.4byte	0x677
 3163 0669 1E       		.uleb128 0x1e
 3164 066a 7800     		.ascii	"x\000"
 3165 066c 01       		.byte	0x1
 3166 066d 4D01     		.2byte	0x14d
 3167 066f AD000000 		.4byte	0xad
 3168 0673 02       		.uleb128 0x2
 3169 0674 91       		.byte	0x91
 3170 0675 6F       		.sleb128 -17
 3171 0676 00       		.byte	0
 3172 0677 17       		.uleb128 0x17
 3173 0678 BE000000 		.4byte	.LBB21
 3174 067c 22000000 		.4byte	.LBE21-.LBB21
 3175 0680 1D       		.uleb128 0x1d
 3176 0681 A3020000 		.4byte	.LASF43
 3177 0685 01       		.byte	0x1
 3178 0686 5301     		.2byte	0x153
 3179 0688 AD000000 		.4byte	0xad
 3180 068c 02       		.uleb128 0x2
 3181 068d 91       		.byte	0x91
 3182 068e 6E       		.sleb128 -18
 3183 068f 00       		.byte	0
 3184 0690 00       		.byte	0
 3185 0691 13       		.uleb128 0x13
 3186 0692 04       		.byte	0x4
 3187 0693 AD000000 		.4byte	0xad
 3188 0697 1F       		.uleb128 0x1f
 3189 0698 77010000 		.4byte	.LASF53
 3190 069c 01       		.byte	0x1
 3191 069d 6701     		.2byte	0x167
 3192 069f 00000000 		.4byte	.LFB70
ARM GAS  C:\Users\Lenovo\AppData\Local\Temp\ccHWhG0i.s 			page 66


 3193 06a3 0C010000 		.4byte	.LFE70-.LFB70
 3194 06a7 01       		.uleb128 0x1
 3195 06a8 9C       		.byte	0x9c
 3196 06a9 2D070000 		.4byte	0x72d
 3197 06ad 1C       		.uleb128 0x1c
 3198 06ae A1010000 		.4byte	.LASF42
 3199 06b2 01       		.byte	0x1
 3200 06b3 6701     		.2byte	0x167
 3201 06b5 AD000000 		.4byte	0xad
 3202 06b9 02       		.uleb128 0x2
 3203 06ba 91       		.byte	0x91
 3204 06bb 67       		.sleb128 -25
 3205 06bc 1C       		.uleb128 0x1c
 3206 06bd 3A020000 		.4byte	.LASF54
 3207 06c1 01       		.byte	0x1
 3208 06c2 6701     		.2byte	0x167
 3209 06c4 AD000000 		.4byte	0xad
 3210 06c8 02       		.uleb128 0x2
 3211 06c9 91       		.byte	0x91
 3212 06ca 66       		.sleb128 -26
 3213 06cb 1C       		.uleb128 0x1c
 3214 06cc 3B010000 		.4byte	.LASF55
 3215 06d0 01       		.byte	0x1
 3216 06d1 6701     		.2byte	0x167
 3217 06d3 AD000000 		.4byte	0xad
 3218 06d7 02       		.uleb128 0x2
 3219 06d8 91       		.byte	0x91
 3220 06d9 65       		.sleb128 -27
 3221 06da 1D       		.uleb128 0x1d
 3222 06db 1E030000 		.4byte	.LASF39
 3223 06df 01       		.byte	0x1
 3224 06e0 6901     		.2byte	0x169
 3225 06e2 AD000000 		.4byte	0xad
 3226 06e6 02       		.uleb128 0x2
 3227 06e7 91       		.byte	0x91
 3228 06e8 6C       		.sleb128 -20
 3229 06e9 1D       		.uleb128 0x1d
 3230 06ea 6B020000 		.4byte	.LASF56
 3231 06ee 01       		.byte	0x1
 3232 06ef 6A01     		.2byte	0x16a
 3233 06f1 AD000000 		.4byte	0xad
 3234 06f5 02       		.uleb128 0x2
 3235 06f6 91       		.byte	0x91
 3236 06f7 6D       		.sleb128 -19
 3237 06f8 16       		.uleb128 0x16
 3238 06f9 90000000 		.4byte	.LBB22
 3239 06fd 1E000000 		.4byte	.LBE22-.LBB22
 3240 0701 13070000 		.4byte	0x713
 3241 0705 1E       		.uleb128 0x1e
 3242 0706 7800     		.ascii	"x\000"
 3243 0708 01       		.byte	0x1
 3244 0709 7901     		.2byte	0x179
 3245 070b AD000000 		.4byte	0xad
 3246 070f 02       		.uleb128 0x2
 3247 0710 91       		.byte	0x91
 3248 0711 6F       		.sleb128 -17
 3249 0712 00       		.byte	0
ARM GAS  C:\Users\Lenovo\AppData\Local\Temp\ccHWhG0i.s 			page 67


 3250 0713 17       		.uleb128 0x17
 3251 0714 C2000000 		.4byte	.LBB23
 3252 0718 22000000 		.4byte	.LBE23-.LBB23
 3253 071c 1D       		.uleb128 0x1d
 3254 071d A3020000 		.4byte	.LASF43
 3255 0721 01       		.byte	0x1
 3256 0722 7F01     		.2byte	0x17f
 3257 0724 AD000000 		.4byte	0xad
 3258 0728 02       		.uleb128 0x2
 3259 0729 91       		.byte	0x91
 3260 072a 6E       		.sleb128 -18
 3261 072b 00       		.byte	0
 3262 072c 00       		.byte	0
 3263 072d 20       		.uleb128 0x20
 3264 072e CE020000 		.4byte	.LASF76
 3265 0732 01       		.byte	0x1
 3266 0733 8D01     		.2byte	0x18d
 3267 0735 00000000 		.4byte	.LFB71
 3268 0739 0C000000 		.4byte	.LFE71-.LFB71
 3269 073d 01       		.uleb128 0x1
 3270 073e 9C       		.byte	0x9c
 3271 073f 21       		.uleb128 0x21
 3272 0740 EB030000 		.4byte	.LASF77
 3273 0744 01       		.byte	0x1
 3274 0745 9801     		.2byte	0x198
 3275 0747 00000000 		.4byte	.LFB72
 3276 074b 40000000 		.4byte	.LFE72-.LFB72
 3277 074f 01       		.uleb128 0x1
 3278 0750 9C       		.byte	0x9c
 3279 0751 7E070000 		.4byte	0x77e
 3280 0755 1D       		.uleb128 0x1d
 3281 0756 1E030000 		.4byte	.LASF39
 3282 075a 01       		.byte	0x1
 3283 075b 9901     		.2byte	0x199
 3284 075d AD000000 		.4byte	0xad
 3285 0761 02       		.uleb128 0x2
 3286 0762 91       		.byte	0x91
 3287 0763 6E       		.sleb128 -18
 3288 0764 17       		.uleb128 0x17
 3289 0765 0E000000 		.4byte	.LBB24
 3290 0769 22000000 		.4byte	.LBE24-.LBB24
 3291 076d 1D       		.uleb128 0x1d
 3292 076e A3020000 		.4byte	.LASF43
 3293 0772 01       		.byte	0x1
 3294 0773 9B01     		.2byte	0x19b
 3295 0775 AD000000 		.4byte	0xad
 3296 0779 02       		.uleb128 0x2
 3297 077a 91       		.byte	0x91
 3298 077b 6F       		.sleb128 -17
 3299 077c 00       		.byte	0
 3300 077d 00       		.byte	0
 3301 077e 1F       		.uleb128 0x1f
 3302 077f 23030000 		.4byte	.LASF57
 3303 0783 01       		.byte	0x1
 3304 0784 A201     		.2byte	0x1a2
 3305 0786 00000000 		.4byte	.LFB73
 3306 078a B0000000 		.4byte	.LFE73-.LFB73
ARM GAS  C:\Users\Lenovo\AppData\Local\Temp\ccHWhG0i.s 			page 68


 3307 078e 01       		.uleb128 0x1
 3308 078f 9C       		.byte	0x9c
 3309 0790 CF070000 		.4byte	0x7cf
 3310 0794 1C       		.uleb128 0x1c
 3311 0795 A1010000 		.4byte	.LASF42
 3312 0799 01       		.byte	0x1
 3313 079a A201     		.2byte	0x1a2
 3314 079c AD000000 		.4byte	0xad
 3315 07a0 02       		.uleb128 0x2
 3316 07a1 91       		.byte	0x91
 3317 07a2 5F       		.sleb128 -33
 3318 07a3 1D       		.uleb128 0x1d
 3319 07a4 9B030000 		.4byte	.LASF58
 3320 07a8 01       		.byte	0x1
 3321 07a9 A301     		.2byte	0x1a3
 3322 07ab AD000000 		.4byte	0xad
 3323 07af 02       		.uleb128 0x2
 3324 07b0 91       		.byte	0x91
 3325 07b1 67       		.sleb128 -25
 3326 07b2 1D       		.uleb128 0x1d
 3327 07b3 A5030000 		.4byte	.LASF59
 3328 07b7 01       		.byte	0x1
 3329 07b8 A301     		.2byte	0x1a3
 3330 07ba AD000000 		.4byte	0xad
 3331 07be 02       		.uleb128 0x2
 3332 07bf 91       		.byte	0x91
 3333 07c0 66       		.sleb128 -26
 3334 07c1 1E       		.uleb128 0x1e
 3335 07c2 7800     		.ascii	"x\000"
 3336 07c4 01       		.byte	0x1
 3337 07c5 A301     		.2byte	0x1a3
 3338 07c7 AD000000 		.4byte	0xad
 3339 07cb 02       		.uleb128 0x2
 3340 07cc 91       		.byte	0x91
 3341 07cd 65       		.sleb128 -27
 3342 07ce 00       		.byte	0
 3343 07cf 22       		.uleb128 0x22
 3344 07d0 11030000 		.4byte	.LASF60
 3345 07d4 06       		.byte	0x6
 3346 07d5 1207     		.2byte	0x712
 3347 07d7 DB070000 		.4byte	0x7db
 3348 07db 23       		.uleb128 0x23
 3349 07dc A2000000 		.4byte	0xa2
 3350 07e0 24       		.uleb128 0x24
 3351 07e1 69000000 		.4byte	.LASF61
 3352 07e5 05       		.byte	0x5
 3353 07e6 10       		.byte	0x10
 3354 07e7 B9000000 		.4byte	0xb9
 3355 07eb 05       		.uleb128 0x5
 3356 07ec 03       		.byte	0x3
 3357 07ed 00000000 		.4byte	PollCounter
 3358 07f1 24       		.uleb128 0x24
 3359 07f2 5E020000 		.4byte	.LASF62
 3360 07f6 05       		.byte	0x5
 3361 07f7 11       		.byte	0x11
 3362 07f8 AD000000 		.4byte	0xad
 3363 07fc 05       		.uleb128 0x5
ARM GAS  C:\Users\Lenovo\AppData\Local\Temp\ccHWhG0i.s 			page 69


 3364 07fd 03       		.byte	0x3
 3365 07fe 00000000 		.4byte	CurrentState
 3366 0802 24       		.uleb128 0x24
 3367 0803 96030000 		.4byte	.LASF63
 3368 0807 05       		.byte	0x5
 3369 0808 32       		.byte	0x32
 3370 0809 26020000 		.4byte	0x226
 3371 080d 05       		.uleb128 0x5
 3372 080e 03       		.byte	0x3
 3373 080f 00000000 		.4byte	side
 3374 0813 24       		.uleb128 0x24
 3375 0814 02030000 		.4byte	.LASF64
 3376 0818 05       		.byte	0x5
 3377 0819 3B       		.byte	0x3b
 3378 081a EA010000 		.4byte	0x1ea
 3379 081e 05       		.uleb128 0x5
 3380 081f 03       		.byte	0x3
 3381 0820 00000000 		.4byte	MepsanResponse
 3382 0824 24       		.uleb128 0x24
 3383 0825 E6010000 		.4byte	.LASF65
 3384 0829 05       		.byte	0x5
 3385 082a 3C       		.byte	0x3c
 3386 082b EA010000 		.4byte	0x1ea
 3387 082f 05       		.uleb128 0x5
 3388 0830 03       		.byte	0x3
 3389 0831 00000000 		.4byte	MepsanSendTo
 3390 0835 0A       		.uleb128 0xa
 3391 0836 AD000000 		.4byte	0xad
 3392 083a 45080000 		.4byte	0x845
 3393 083e 0B       		.uleb128 0xb
 3394 083f E1000000 		.4byte	0xe1
 3395 0843 0E       		.byte	0xe
 3396 0844 00       		.byte	0
 3397 0845 24       		.uleb128 0x24
 3398 0846 FF010000 		.4byte	.LASF66
 3399 084a 05       		.byte	0x5
 3400 084b 3D       		.byte	0x3d
 3401 084c 35080000 		.4byte	0x835
 3402 0850 05       		.uleb128 0x5
 3403 0851 03       		.byte	0x3
 3404 0852 00000000 		.4byte	PumpAddress
 3405 0856 25       		.uleb128 0x25
 3406 0857 43524300 		.ascii	"CRC\000"
 3407 085b 05       		.byte	0x5
 3408 085c 3E       		.byte	0x3e
 3409 085d B9000000 		.4byte	0xb9
 3410 0861 05       		.uleb128 0x5
 3411 0862 03       		.byte	0x3
 3412 0863 00000000 		.4byte	CRC
 3413 0867 24       		.uleb128 0x24
 3414 0868 35000000 		.4byte	.LASF67
 3415 086c 05       		.byte	0x5
 3416 086d 3F       		.byte	0x3f
 3417 086e AD000000 		.4byte	0xad
 3418 0872 05       		.uleb128 0x5
 3419 0873 03       		.byte	0x3
 3420 0874 00000000 		.4byte	crc_lo
ARM GAS  C:\Users\Lenovo\AppData\Local\Temp\ccHWhG0i.s 			page 70


 3421 0878 24       		.uleb128 0x24
 3422 0879 E4030000 		.4byte	.LASF68
 3423 087d 05       		.byte	0x5
 3424 087e 3F       		.byte	0x3f
 3425 087f AD000000 		.4byte	0xad
 3426 0883 05       		.uleb128 0x5
 3427 0884 03       		.byte	0x3
 3428 0885 00000000 		.4byte	crc_hi
 3429 0889 24       		.uleb128 0x24
 3430 088a 2A010000 		.4byte	.LASF69
 3431 088e 05       		.byte	0x5
 3432 088f 40       		.byte	0x40
 3433 0890 AD000000 		.4byte	0xad
 3434 0894 05       		.uleb128 0x5
 3435 0895 03       		.byte	0x3
 3436 0896 00000000 		.4byte	Positions
 3437 089a 24       		.uleb128 0x24
 3438 089b 3E030000 		.4byte	.LASF70
 3439 089f 05       		.byte	0x5
 3440 08a0 41       		.byte	0x41
 3441 08a1 AD000000 		.4byte	0xad
 3442 08a5 05       		.uleb128 0x5
 3443 08a6 03       		.byte	0x3
 3444 08a7 00000000 		.4byte	TotalRequestType
 3445 08ab 24       		.uleb128 0x24
 3446 08ac A9010000 		.4byte	.LASF71
 3447 08b0 05       		.byte	0x5
 3448 08b1 4B       		.byte	0x4b
 3449 08b2 AD000000 		.4byte	0xad
 3450 08b6 05       		.uleb128 0x5
 3451 08b7 03       		.byte	0x3
 3452 08b8 00000000 		.4byte	dirGbr
 3453 08bc 00       		.byte	0
 3454              		.section	.debug_abbrev,"",%progbits
 3455              	.Ldebug_abbrev0:
 3456 0000 01       		.uleb128 0x1
 3457 0001 11       		.uleb128 0x11
 3458 0002 01       		.byte	0x1
 3459 0003 25       		.uleb128 0x25
 3460 0004 0E       		.uleb128 0xe
 3461 0005 13       		.uleb128 0x13
 3462 0006 0B       		.uleb128 0xb
 3463 0007 03       		.uleb128 0x3
 3464 0008 0E       		.uleb128 0xe
 3465 0009 1B       		.uleb128 0x1b
 3466 000a 0E       		.uleb128 0xe
 3467 000b 55       		.uleb128 0x55
 3468 000c 17       		.uleb128 0x17
 3469 000d 11       		.uleb128 0x11
 3470 000e 01       		.uleb128 0x1
 3471 000f 10       		.uleb128 0x10
 3472 0010 17       		.uleb128 0x17
 3473 0011 00       		.byte	0
 3474 0012 00       		.byte	0
 3475 0013 02       		.uleb128 0x2
 3476 0014 24       		.uleb128 0x24
 3477 0015 00       		.byte	0
ARM GAS  C:\Users\Lenovo\AppData\Local\Temp\ccHWhG0i.s 			page 71


 3478 0016 0B       		.uleb128 0xb
 3479 0017 0B       		.uleb128 0xb
 3480 0018 3E       		.uleb128 0x3e
 3481 0019 0B       		.uleb128 0xb
 3482 001a 03       		.uleb128 0x3
 3483 001b 0E       		.uleb128 0xe
 3484 001c 00       		.byte	0
 3485 001d 00       		.byte	0
 3486 001e 03       		.uleb128 0x3
 3487 001f 16       		.uleb128 0x16
 3488 0020 00       		.byte	0
 3489 0021 03       		.uleb128 0x3
 3490 0022 0E       		.uleb128 0xe
 3491 0023 3A       		.uleb128 0x3a
 3492 0024 0B       		.uleb128 0xb
 3493 0025 3B       		.uleb128 0x3b
 3494 0026 0B       		.uleb128 0xb
 3495 0027 49       		.uleb128 0x49
 3496 0028 13       		.uleb128 0x13
 3497 0029 00       		.byte	0
 3498 002a 00       		.byte	0
 3499 002b 04       		.uleb128 0x4
 3500 002c 24       		.uleb128 0x24
 3501 002d 00       		.byte	0
 3502 002e 0B       		.uleb128 0xb
 3503 002f 0B       		.uleb128 0xb
 3504 0030 3E       		.uleb128 0x3e
 3505 0031 0B       		.uleb128 0xb
 3506 0032 03       		.uleb128 0x3
 3507 0033 08       		.uleb128 0x8
 3508 0034 00       		.byte	0
 3509 0035 00       		.byte	0
 3510 0036 05       		.uleb128 0x5
 3511 0037 16       		.uleb128 0x16
 3512 0038 00       		.byte	0
 3513 0039 03       		.uleb128 0x3
 3514 003a 0E       		.uleb128 0xe
 3515 003b 3A       		.uleb128 0x3a
 3516 003c 0B       		.uleb128 0xb
 3517 003d 3B       		.uleb128 0x3b
 3518 003e 05       		.uleb128 0x5
 3519 003f 49       		.uleb128 0x49
 3520 0040 13       		.uleb128 0x13
 3521 0041 00       		.byte	0
 3522 0042 00       		.byte	0
 3523 0043 06       		.uleb128 0x6
 3524 0044 13       		.uleb128 0x13
 3525 0045 01       		.byte	0x1
 3526 0046 03       		.uleb128 0x3
 3527 0047 0E       		.uleb128 0xe
 3528 0048 0B       		.uleb128 0xb
 3529 0049 05       		.uleb128 0x5
 3530 004a 3A       		.uleb128 0x3a
 3531 004b 0B       		.uleb128 0xb
 3532 004c 3B       		.uleb128 0x3b
 3533 004d 0B       		.uleb128 0xb
 3534 004e 01       		.uleb128 0x1
ARM GAS  C:\Users\Lenovo\AppData\Local\Temp\ccHWhG0i.s 			page 72


 3535 004f 13       		.uleb128 0x13
 3536 0050 00       		.byte	0
 3537 0051 00       		.byte	0
 3538 0052 07       		.uleb128 0x7
 3539 0053 0D       		.uleb128 0xd
 3540 0054 00       		.byte	0
 3541 0055 03       		.uleb128 0x3
 3542 0056 08       		.uleb128 0x8
 3543 0057 3A       		.uleb128 0x3a
 3544 0058 0B       		.uleb128 0xb
 3545 0059 3B       		.uleb128 0x3b
 3546 005a 0B       		.uleb128 0xb
 3547 005b 49       		.uleb128 0x49
 3548 005c 13       		.uleb128 0x13
 3549 005d 38       		.uleb128 0x38
 3550 005e 0B       		.uleb128 0xb
 3551 005f 00       		.byte	0
 3552 0060 00       		.byte	0
 3553 0061 08       		.uleb128 0x8
 3554 0062 0D       		.uleb128 0xd
 3555 0063 00       		.byte	0
 3556 0064 03       		.uleb128 0x3
 3557 0065 0E       		.uleb128 0xe
 3558 0066 3A       		.uleb128 0x3a
 3559 0067 0B       		.uleb128 0xb
 3560 0068 3B       		.uleb128 0x3b
 3561 0069 0B       		.uleb128 0xb
 3562 006a 49       		.uleb128 0x49
 3563 006b 13       		.uleb128 0x13
 3564 006c 38       		.uleb128 0x38
 3565 006d 0B       		.uleb128 0xb
 3566 006e 00       		.byte	0
 3567 006f 00       		.byte	0
 3568 0070 09       		.uleb128 0x9
 3569 0071 0D       		.uleb128 0xd
 3570 0072 00       		.byte	0
 3571 0073 03       		.uleb128 0x3
 3572 0074 0E       		.uleb128 0xe
 3573 0075 3A       		.uleb128 0x3a
 3574 0076 0B       		.uleb128 0xb
 3575 0077 3B       		.uleb128 0x3b
 3576 0078 0B       		.uleb128 0xb
 3577 0079 49       		.uleb128 0x49
 3578 007a 13       		.uleb128 0x13
 3579 007b 38       		.uleb128 0x38
 3580 007c 05       		.uleb128 0x5
 3581 007d 00       		.byte	0
 3582 007e 00       		.byte	0
 3583 007f 0A       		.uleb128 0xa
 3584 0080 01       		.uleb128 0x1
 3585 0081 01       		.byte	0x1
 3586 0082 49       		.uleb128 0x49
 3587 0083 13       		.uleb128 0x13
 3588 0084 01       		.uleb128 0x1
 3589 0085 13       		.uleb128 0x13
 3590 0086 00       		.byte	0
 3591 0087 00       		.byte	0
ARM GAS  C:\Users\Lenovo\AppData\Local\Temp\ccHWhG0i.s 			page 73


 3592 0088 0B       		.uleb128 0xb
 3593 0089 21       		.uleb128 0x21
 3594 008a 00       		.byte	0
 3595 008b 49       		.uleb128 0x49
 3596 008c 13       		.uleb128 0x13
 3597 008d 2F       		.uleb128 0x2f
 3598 008e 0B       		.uleb128 0xb
 3599 008f 00       		.byte	0
 3600 0090 00       		.byte	0
 3601 0091 0C       		.uleb128 0xc
 3602 0092 0D       		.uleb128 0xd
 3603 0093 00       		.byte	0
 3604 0094 03       		.uleb128 0x3
 3605 0095 08       		.uleb128 0x8
 3606 0096 3A       		.uleb128 0x3a
 3607 0097 0B       		.uleb128 0xb
 3608 0098 3B       		.uleb128 0x3b
 3609 0099 0B       		.uleb128 0xb
 3610 009a 49       		.uleb128 0x49
 3611 009b 13       		.uleb128 0x13
 3612 009c 38       		.uleb128 0x38
 3613 009d 05       		.uleb128 0x5
 3614 009e 00       		.byte	0
 3615 009f 00       		.byte	0
 3616 00a0 0D       		.uleb128 0xd
 3617 00a1 04       		.uleb128 0x4
 3618 00a2 01       		.byte	0x1
 3619 00a3 03       		.uleb128 0x3
 3620 00a4 0E       		.uleb128 0xe
 3621 00a5 0B       		.uleb128 0xb
 3622 00a6 0B       		.uleb128 0xb
 3623 00a7 49       		.uleb128 0x49
 3624 00a8 13       		.uleb128 0x13
 3625 00a9 3A       		.uleb128 0x3a
 3626 00aa 0B       		.uleb128 0xb
 3627 00ab 3B       		.uleb128 0x3b
 3628 00ac 0B       		.uleb128 0xb
 3629 00ad 01       		.uleb128 0x1
 3630 00ae 13       		.uleb128 0x13
 3631 00af 00       		.byte	0
 3632 00b0 00       		.byte	0
 3633 00b1 0E       		.uleb128 0xe
 3634 00b2 28       		.uleb128 0x28
 3635 00b3 00       		.byte	0
 3636 00b4 03       		.uleb128 0x3
 3637 00b5 0E       		.uleb128 0xe
 3638 00b6 1C       		.uleb128 0x1c
 3639 00b7 0B       		.uleb128 0xb
 3640 00b8 00       		.byte	0
 3641 00b9 00       		.byte	0
 3642 00ba 0F       		.uleb128 0xf
 3643 00bb 2E       		.uleb128 0x2e
 3644 00bc 01       		.byte	0x1
 3645 00bd 3F       		.uleb128 0x3f
 3646 00be 19       		.uleb128 0x19
 3647 00bf 03       		.uleb128 0x3
 3648 00c0 0E       		.uleb128 0xe
ARM GAS  C:\Users\Lenovo\AppData\Local\Temp\ccHWhG0i.s 			page 74


 3649 00c1 3A       		.uleb128 0x3a
 3650 00c2 0B       		.uleb128 0xb
 3651 00c3 3B       		.uleb128 0x3b
 3652 00c4 0B       		.uleb128 0xb
 3653 00c5 27       		.uleb128 0x27
 3654 00c6 19       		.uleb128 0x19
 3655 00c7 49       		.uleb128 0x49
 3656 00c8 13       		.uleb128 0x13
 3657 00c9 11       		.uleb128 0x11
 3658 00ca 01       		.uleb128 0x1
 3659 00cb 12       		.uleb128 0x12
 3660 00cc 06       		.uleb128 0x6
 3661 00cd 40       		.uleb128 0x40
 3662 00ce 18       		.uleb128 0x18
 3663 00cf 9742     		.uleb128 0x2117
 3664 00d1 19       		.uleb128 0x19
 3665 00d2 01       		.uleb128 0x1
 3666 00d3 13       		.uleb128 0x13
 3667 00d4 00       		.byte	0
 3668 00d5 00       		.byte	0
 3669 00d6 10       		.uleb128 0x10
 3670 00d7 05       		.uleb128 0x5
 3671 00d8 00       		.byte	0
 3672 00d9 03       		.uleb128 0x3
 3673 00da 0E       		.uleb128 0xe
 3674 00db 3A       		.uleb128 0x3a
 3675 00dc 0B       		.uleb128 0xb
 3676 00dd 3B       		.uleb128 0x3b
 3677 00de 0B       		.uleb128 0xb
 3678 00df 49       		.uleb128 0x49
 3679 00e0 13       		.uleb128 0x13
 3680 00e1 02       		.uleb128 0x2
 3681 00e2 18       		.uleb128 0x18
 3682 00e3 00       		.byte	0
 3683 00e4 00       		.byte	0
 3684 00e5 11       		.uleb128 0x11
 3685 00e6 34       		.uleb128 0x34
 3686 00e7 00       		.byte	0
 3687 00e8 03       		.uleb128 0x3
 3688 00e9 08       		.uleb128 0x8
 3689 00ea 3A       		.uleb128 0x3a
 3690 00eb 0B       		.uleb128 0xb
 3691 00ec 3B       		.uleb128 0x3b
 3692 00ed 0B       		.uleb128 0xb
 3693 00ee 49       		.uleb128 0x49
 3694 00ef 13       		.uleb128 0x13
 3695 00f0 02       		.uleb128 0x2
 3696 00f1 18       		.uleb128 0x18
 3697 00f2 00       		.byte	0
 3698 00f3 00       		.byte	0
 3699 00f4 12       		.uleb128 0x12
 3700 00f5 34       		.uleb128 0x34
 3701 00f6 00       		.byte	0
 3702 00f7 03       		.uleb128 0x3
 3703 00f8 0E       		.uleb128 0xe
 3704 00f9 3A       		.uleb128 0x3a
 3705 00fa 0B       		.uleb128 0xb
ARM GAS  C:\Users\Lenovo\AppData\Local\Temp\ccHWhG0i.s 			page 75


 3706 00fb 3B       		.uleb128 0x3b
 3707 00fc 0B       		.uleb128 0xb
 3708 00fd 49       		.uleb128 0x49
 3709 00fe 13       		.uleb128 0x13
 3710 00ff 02       		.uleb128 0x2
 3711 0100 18       		.uleb128 0x18
 3712 0101 00       		.byte	0
 3713 0102 00       		.byte	0
 3714 0103 13       		.uleb128 0x13
 3715 0104 0F       		.uleb128 0xf
 3716 0105 00       		.byte	0
 3717 0106 0B       		.uleb128 0xb
 3718 0107 0B       		.uleb128 0xb
 3719 0108 49       		.uleb128 0x49
 3720 0109 13       		.uleb128 0x13
 3721 010a 00       		.byte	0
 3722 010b 00       		.byte	0
 3723 010c 14       		.uleb128 0x14
 3724 010d 26       		.uleb128 0x26
 3725 010e 00       		.byte	0
 3726 010f 49       		.uleb128 0x49
 3727 0110 13       		.uleb128 0x13
 3728 0111 00       		.byte	0
 3729 0112 00       		.byte	0
 3730 0113 15       		.uleb128 0x15
 3731 0114 2E       		.uleb128 0x2e
 3732 0115 01       		.byte	0x1
 3733 0116 3F       		.uleb128 0x3f
 3734 0117 19       		.uleb128 0x19
 3735 0118 03       		.uleb128 0x3
 3736 0119 0E       		.uleb128 0xe
 3737 011a 3A       		.uleb128 0x3a
 3738 011b 0B       		.uleb128 0xb
 3739 011c 3B       		.uleb128 0x3b
 3740 011d 0B       		.uleb128 0xb
 3741 011e 27       		.uleb128 0x27
 3742 011f 19       		.uleb128 0x19
 3743 0120 11       		.uleb128 0x11
 3744 0121 01       		.uleb128 0x1
 3745 0122 12       		.uleb128 0x12
 3746 0123 06       		.uleb128 0x6
 3747 0124 40       		.uleb128 0x40
 3748 0125 18       		.uleb128 0x18
 3749 0126 9642     		.uleb128 0x2116
 3750 0128 19       		.uleb128 0x19
 3751 0129 01       		.uleb128 0x1
 3752 012a 13       		.uleb128 0x13
 3753 012b 00       		.byte	0
 3754 012c 00       		.byte	0
 3755 012d 16       		.uleb128 0x16
 3756 012e 0B       		.uleb128 0xb
 3757 012f 01       		.byte	0x1
 3758 0130 11       		.uleb128 0x11
 3759 0131 01       		.uleb128 0x1
 3760 0132 12       		.uleb128 0x12
 3761 0133 06       		.uleb128 0x6
 3762 0134 01       		.uleb128 0x1
ARM GAS  C:\Users\Lenovo\AppData\Local\Temp\ccHWhG0i.s 			page 76


 3763 0135 13       		.uleb128 0x13
 3764 0136 00       		.byte	0
 3765 0137 00       		.byte	0
 3766 0138 17       		.uleb128 0x17
 3767 0139 0B       		.uleb128 0xb
 3768 013a 01       		.byte	0x1
 3769 013b 11       		.uleb128 0x11
 3770 013c 01       		.uleb128 0x1
 3771 013d 12       		.uleb128 0x12
 3772 013e 06       		.uleb128 0x6
 3773 013f 00       		.byte	0
 3774 0140 00       		.byte	0
 3775 0141 18       		.uleb128 0x18
 3776 0142 2E       		.uleb128 0x2e
 3777 0143 01       		.byte	0x1
 3778 0144 3F       		.uleb128 0x3f
 3779 0145 19       		.uleb128 0x19
 3780 0146 03       		.uleb128 0x3
 3781 0147 0E       		.uleb128 0xe
 3782 0148 3A       		.uleb128 0x3a
 3783 0149 0B       		.uleb128 0xb
 3784 014a 3B       		.uleb128 0x3b
 3785 014b 0B       		.uleb128 0xb
 3786 014c 27       		.uleb128 0x27
 3787 014d 19       		.uleb128 0x19
 3788 014e 49       		.uleb128 0x49
 3789 014f 13       		.uleb128 0x13
 3790 0150 11       		.uleb128 0x11
 3791 0151 01       		.uleb128 0x1
 3792 0152 12       		.uleb128 0x12
 3793 0153 06       		.uleb128 0x6
 3794 0154 40       		.uleb128 0x40
 3795 0155 18       		.uleb128 0x18
 3796 0156 9642     		.uleb128 0x2116
 3797 0158 19       		.uleb128 0x19
 3798 0159 01       		.uleb128 0x1
 3799 015a 13       		.uleb128 0x13
 3800 015b 00       		.byte	0
 3801 015c 00       		.byte	0
 3802 015d 19       		.uleb128 0x19
 3803 015e 05       		.uleb128 0x5
 3804 015f 00       		.byte	0
 3805 0160 03       		.uleb128 0x3
 3806 0161 08       		.uleb128 0x8
 3807 0162 3A       		.uleb128 0x3a
 3808 0163 0B       		.uleb128 0xb
 3809 0164 3B       		.uleb128 0x3b
 3810 0165 0B       		.uleb128 0xb
 3811 0166 49       		.uleb128 0x49
 3812 0167 13       		.uleb128 0x13
 3813 0168 02       		.uleb128 0x2
 3814 0169 18       		.uleb128 0x18
 3815 016a 00       		.byte	0
 3816 016b 00       		.byte	0
 3817 016c 1A       		.uleb128 0x1a
 3818 016d 34       		.uleb128 0x34
 3819 016e 00       		.byte	0
ARM GAS  C:\Users\Lenovo\AppData\Local\Temp\ccHWhG0i.s 			page 77


 3820 016f 03       		.uleb128 0x3
 3821 0170 0E       		.uleb128 0xe
 3822 0171 3A       		.uleb128 0x3a
 3823 0172 0B       		.uleb128 0xb
 3824 0173 3B       		.uleb128 0x3b
 3825 0174 0B       		.uleb128 0xb
 3826 0175 49       		.uleb128 0x49
 3827 0176 13       		.uleb128 0x13
 3828 0177 00       		.byte	0
 3829 0178 00       		.byte	0
 3830 0179 1B       		.uleb128 0x1b
 3831 017a 2E       		.uleb128 0x2e
 3832 017b 01       		.byte	0x1
 3833 017c 3F       		.uleb128 0x3f
 3834 017d 19       		.uleb128 0x19
 3835 017e 03       		.uleb128 0x3
 3836 017f 0E       		.uleb128 0xe
 3837 0180 3A       		.uleb128 0x3a
 3838 0181 0B       		.uleb128 0xb
 3839 0182 3B       		.uleb128 0x3b
 3840 0183 05       		.uleb128 0x5
 3841 0184 27       		.uleb128 0x27
 3842 0185 19       		.uleb128 0x19
 3843 0186 49       		.uleb128 0x49
 3844 0187 13       		.uleb128 0x13
 3845 0188 11       		.uleb128 0x11
 3846 0189 01       		.uleb128 0x1
 3847 018a 12       		.uleb128 0x12
 3848 018b 06       		.uleb128 0x6
 3849 018c 40       		.uleb128 0x40
 3850 018d 18       		.uleb128 0x18
 3851 018e 9642     		.uleb128 0x2116
 3852 0190 19       		.uleb128 0x19
 3853 0191 01       		.uleb128 0x1
 3854 0192 13       		.uleb128 0x13
 3855 0193 00       		.byte	0
 3856 0194 00       		.byte	0
 3857 0195 1C       		.uleb128 0x1c
 3858 0196 05       		.uleb128 0x5
 3859 0197 00       		.byte	0
 3860 0198 03       		.uleb128 0x3
 3861 0199 0E       		.uleb128 0xe
 3862 019a 3A       		.uleb128 0x3a
 3863 019b 0B       		.uleb128 0xb
 3864 019c 3B       		.uleb128 0x3b
 3865 019d 05       		.uleb128 0x5
 3866 019e 49       		.uleb128 0x49
 3867 019f 13       		.uleb128 0x13
 3868 01a0 02       		.uleb128 0x2
 3869 01a1 18       		.uleb128 0x18
 3870 01a2 00       		.byte	0
 3871 01a3 00       		.byte	0
 3872 01a4 1D       		.uleb128 0x1d
 3873 01a5 34       		.uleb128 0x34
 3874 01a6 00       		.byte	0
 3875 01a7 03       		.uleb128 0x3
 3876 01a8 0E       		.uleb128 0xe
ARM GAS  C:\Users\Lenovo\AppData\Local\Temp\ccHWhG0i.s 			page 78


 3877 01a9 3A       		.uleb128 0x3a
 3878 01aa 0B       		.uleb128 0xb
 3879 01ab 3B       		.uleb128 0x3b
 3880 01ac 05       		.uleb128 0x5
 3881 01ad 49       		.uleb128 0x49
 3882 01ae 13       		.uleb128 0x13
 3883 01af 02       		.uleb128 0x2
 3884 01b0 18       		.uleb128 0x18
 3885 01b1 00       		.byte	0
 3886 01b2 00       		.byte	0
 3887 01b3 1E       		.uleb128 0x1e
 3888 01b4 34       		.uleb128 0x34
 3889 01b5 00       		.byte	0
 3890 01b6 03       		.uleb128 0x3
 3891 01b7 08       		.uleb128 0x8
 3892 01b8 3A       		.uleb128 0x3a
 3893 01b9 0B       		.uleb128 0xb
 3894 01ba 3B       		.uleb128 0x3b
 3895 01bb 05       		.uleb128 0x5
 3896 01bc 49       		.uleb128 0x49
 3897 01bd 13       		.uleb128 0x13
 3898 01be 02       		.uleb128 0x2
 3899 01bf 18       		.uleb128 0x18
 3900 01c0 00       		.byte	0
 3901 01c1 00       		.byte	0
 3902 01c2 1F       		.uleb128 0x1f
 3903 01c3 2E       		.uleb128 0x2e
 3904 01c4 01       		.byte	0x1
 3905 01c5 3F       		.uleb128 0x3f
 3906 01c6 19       		.uleb128 0x19
 3907 01c7 03       		.uleb128 0x3
 3908 01c8 0E       		.uleb128 0xe
 3909 01c9 3A       		.uleb128 0x3a
 3910 01ca 0B       		.uleb128 0xb
 3911 01cb 3B       		.uleb128 0x3b
 3912 01cc 05       		.uleb128 0x5
 3913 01cd 27       		.uleb128 0x27
 3914 01ce 19       		.uleb128 0x19
 3915 01cf 11       		.uleb128 0x11
 3916 01d0 01       		.uleb128 0x1
 3917 01d1 12       		.uleb128 0x12
 3918 01d2 06       		.uleb128 0x6
 3919 01d3 40       		.uleb128 0x40
 3920 01d4 18       		.uleb128 0x18
 3921 01d5 9642     		.uleb128 0x2116
 3922 01d7 19       		.uleb128 0x19
 3923 01d8 01       		.uleb128 0x1
 3924 01d9 13       		.uleb128 0x13
 3925 01da 00       		.byte	0
 3926 01db 00       		.byte	0
 3927 01dc 20       		.uleb128 0x20
 3928 01dd 2E       		.uleb128 0x2e
 3929 01de 00       		.byte	0
 3930 01df 3F       		.uleb128 0x3f
 3931 01e0 19       		.uleb128 0x19
 3932 01e1 03       		.uleb128 0x3
 3933 01e2 0E       		.uleb128 0xe
ARM GAS  C:\Users\Lenovo\AppData\Local\Temp\ccHWhG0i.s 			page 79


 3934 01e3 3A       		.uleb128 0x3a
 3935 01e4 0B       		.uleb128 0xb
 3936 01e5 3B       		.uleb128 0x3b
 3937 01e6 05       		.uleb128 0x5
 3938 01e7 27       		.uleb128 0x27
 3939 01e8 19       		.uleb128 0x19
 3940 01e9 11       		.uleb128 0x11
 3941 01ea 01       		.uleb128 0x1
 3942 01eb 12       		.uleb128 0x12
 3943 01ec 06       		.uleb128 0x6
 3944 01ed 40       		.uleb128 0x40
 3945 01ee 18       		.uleb128 0x18
 3946 01ef 9742     		.uleb128 0x2117
 3947 01f1 19       		.uleb128 0x19
 3948 01f2 00       		.byte	0
 3949 01f3 00       		.byte	0
 3950 01f4 21       		.uleb128 0x21
 3951 01f5 2E       		.uleb128 0x2e
 3952 01f6 01       		.byte	0x1
 3953 01f7 3F       		.uleb128 0x3f
 3954 01f8 19       		.uleb128 0x19
 3955 01f9 03       		.uleb128 0x3
 3956 01fa 0E       		.uleb128 0xe
 3957 01fb 3A       		.uleb128 0x3a
 3958 01fc 0B       		.uleb128 0xb
 3959 01fd 3B       		.uleb128 0x3b
 3960 01fe 05       		.uleb128 0x5
 3961 01ff 11       		.uleb128 0x11
 3962 0200 01       		.uleb128 0x1
 3963 0201 12       		.uleb128 0x12
 3964 0202 06       		.uleb128 0x6
 3965 0203 40       		.uleb128 0x40
 3966 0204 18       		.uleb128 0x18
 3967 0205 9642     		.uleb128 0x2116
 3968 0207 19       		.uleb128 0x19
 3969 0208 01       		.uleb128 0x1
 3970 0209 13       		.uleb128 0x13
 3971 020a 00       		.byte	0
 3972 020b 00       		.byte	0
 3973 020c 22       		.uleb128 0x22
 3974 020d 34       		.uleb128 0x34
 3975 020e 00       		.byte	0
 3976 020f 03       		.uleb128 0x3
 3977 0210 0E       		.uleb128 0xe
 3978 0211 3A       		.uleb128 0x3a
 3979 0212 0B       		.uleb128 0xb
 3980 0213 3B       		.uleb128 0x3b
 3981 0214 05       		.uleb128 0x5
 3982 0215 49       		.uleb128 0x49
 3983 0216 13       		.uleb128 0x13
 3984 0217 3F       		.uleb128 0x3f
 3985 0218 19       		.uleb128 0x19
 3986 0219 3C       		.uleb128 0x3c
 3987 021a 19       		.uleb128 0x19
 3988 021b 00       		.byte	0
 3989 021c 00       		.byte	0
 3990 021d 23       		.uleb128 0x23
ARM GAS  C:\Users\Lenovo\AppData\Local\Temp\ccHWhG0i.s 			page 80


 3991 021e 35       		.uleb128 0x35
 3992 021f 00       		.byte	0
 3993 0220 49       		.uleb128 0x49
 3994 0221 13       		.uleb128 0x13
 3995 0222 00       		.byte	0
 3996 0223 00       		.byte	0
 3997 0224 24       		.uleb128 0x24
 3998 0225 34       		.uleb128 0x34
 3999 0226 00       		.byte	0
 4000 0227 03       		.uleb128 0x3
 4001 0228 0E       		.uleb128 0xe
 4002 0229 3A       		.uleb128 0x3a
 4003 022a 0B       		.uleb128 0xb
 4004 022b 3B       		.uleb128 0x3b
 4005 022c 0B       		.uleb128 0xb
 4006 022d 49       		.uleb128 0x49
 4007 022e 13       		.uleb128 0x13
 4008 022f 3F       		.uleb128 0x3f
 4009 0230 19       		.uleb128 0x19
 4010 0231 02       		.uleb128 0x2
 4011 0232 18       		.uleb128 0x18
 4012 0233 00       		.byte	0
 4013 0234 00       		.byte	0
 4014 0235 25       		.uleb128 0x25
 4015 0236 34       		.uleb128 0x34
 4016 0237 00       		.byte	0
 4017 0238 03       		.uleb128 0x3
 4018 0239 08       		.uleb128 0x8
 4019 023a 3A       		.uleb128 0x3a
 4020 023b 0B       		.uleb128 0xb
 4021 023c 3B       		.uleb128 0x3b
 4022 023d 0B       		.uleb128 0xb
 4023 023e 49       		.uleb128 0x49
 4024 023f 13       		.uleb128 0x13
 4025 0240 3F       		.uleb128 0x3f
 4026 0241 19       		.uleb128 0x19
 4027 0242 02       		.uleb128 0x2
 4028 0243 18       		.uleb128 0x18
 4029 0244 00       		.byte	0
 4030 0245 00       		.byte	0
 4031 0246 00       		.byte	0
 4032              		.section	.debug_aranges,"",%progbits
 4033 0000 6C000000 		.4byte	0x6c
 4034 0004 0200     		.2byte	0x2
 4035 0006 00000000 		.4byte	.Ldebug_info0
 4036 000a 04       		.byte	0x4
 4037 000b 00       		.byte	0
 4038 000c 0000     		.2byte	0
 4039 000e 0000     		.2byte	0
 4040 0010 00000000 		.4byte	.LFB63
 4041 0014 FA000000 		.4byte	.LFE63-.LFB63
 4042 0018 00000000 		.4byte	.LFB64
 4043 001c 00060000 		.4byte	.LFE64-.LFB64
 4044 0020 00000000 		.4byte	.LFB65
 4045 0024 B0000000 		.4byte	.LFE65-.LFB65
 4046 0028 00000000 		.4byte	.LFB66
 4047 002c E0000000 		.4byte	.LFE66-.LFB66
ARM GAS  C:\Users\Lenovo\AppData\Local\Temp\ccHWhG0i.s 			page 81


 4048 0030 00000000 		.4byte	.LFB67
 4049 0034 14010000 		.4byte	.LFE67-.LFB67
 4050 0038 00000000 		.4byte	.LFB68
 4051 003c 7C010000 		.4byte	.LFE68-.LFB68
 4052 0040 00000000 		.4byte	.LFB69
 4053 0044 18010000 		.4byte	.LFE69-.LFB69
 4054 0048 00000000 		.4byte	.LFB70
 4055 004c 0C010000 		.4byte	.LFE70-.LFB70
 4056 0050 00000000 		.4byte	.LFB71
 4057 0054 0C000000 		.4byte	.LFE71-.LFB71
 4058 0058 00000000 		.4byte	.LFB72
 4059 005c 40000000 		.4byte	.LFE72-.LFB72
 4060 0060 00000000 		.4byte	.LFB73
 4061 0064 B0000000 		.4byte	.LFE73-.LFB73
 4062 0068 00000000 		.4byte	0
 4063 006c 00000000 		.4byte	0
 4064              		.section	.debug_ranges,"",%progbits
 4065              	.Ldebug_ranges0:
 4066 0000 00000000 		.4byte	.LFB63
 4067 0004 FA000000 		.4byte	.LFE63
 4068 0008 00000000 		.4byte	.LFB64
 4069 000c 00060000 		.4byte	.LFE64
 4070 0010 00000000 		.4byte	.LFB65
 4071 0014 B0000000 		.4byte	.LFE65
 4072 0018 00000000 		.4byte	.LFB66
 4073 001c E0000000 		.4byte	.LFE66
 4074 0020 00000000 		.4byte	.LFB67
 4075 0024 14010000 		.4byte	.LFE67
 4076 0028 00000000 		.4byte	.LFB68
 4077 002c 7C010000 		.4byte	.LFE68
 4078 0030 00000000 		.4byte	.LFB69
 4079 0034 18010000 		.4byte	.LFE69
 4080 0038 00000000 		.4byte	.LFB70
 4081 003c 0C010000 		.4byte	.LFE70
 4082 0040 00000000 		.4byte	.LFB71
 4083 0044 0C000000 		.4byte	.LFE71
 4084 0048 00000000 		.4byte	.LFB72
 4085 004c 40000000 		.4byte	.LFE72
 4086 0050 00000000 		.4byte	.LFB73
 4087 0054 B0000000 		.4byte	.LFE73
 4088 0058 00000000 		.4byte	0
 4089 005c 00000000 		.4byte	0
 4090              		.section	.debug_line,"",%progbits
 4091              	.Ldebug_line0:
 4092 0000 C3040000 		.section	.debug_str,"MS",%progbits,1
 4092      02005B01 
 4092      00000201 
 4092      FB0E0D00 
 4092      01010101 
 4093              	.LASF35:
 4094 0000 4D455053 		.ascii	"MEPSAN_STATE\000"
 4094      414E5F53 
 4094      54415445 
 4094      00
 4095              	.LASF48:
 4096 000d 52657475 		.ascii	"ReturnStatus\000"
 4096      726E5374 
ARM GAS  C:\Users\Lenovo\AppData\Local\Temp\ccHWhG0i.s 			page 82


 4096      61747573 
 4096      00
 4097              	.LASF75:
 4098 001a 4D455053 		.ascii	"MEPSAN_REQUEST\000"
 4098      414E5F52 
 4098      45515545 
 4098      535400
 4099              	.LASF50:
 4100 0029 50726963 		.ascii	"PriceUpdate\000"
 4100      65557064 
 4100      61746500 
 4101              	.LASF67:
 4102 0035 6372635F 		.ascii	"crc_lo\000"
 4102      6C6F00
 4103              	.LASF37:
 4104 003c 4D455053 		.ascii	"MEPSAN_R_FILLING\000"
 4104      414E5F52 
 4104      5F46494C 
 4104      4C494E47 
 4104      00
 4105              	.LASF41:
 4106 004d 6269745F 		.ascii	"bit_flag\000"
 4106      666C6167 
 4106      00
 4107              	.LASF2:
 4108 0056 73686F72 		.ascii	"short int\000"
 4108      7420696E 
 4108      7400
 4109              	.LASF21:
 4110 0060 73697A65 		.ascii	"sizetype\000"
 4110      74797065 
 4110      00
 4111              	.LASF61:
 4112 0069 506F6C6C 		.ascii	"PollCounter\000"
 4112      436F756E 
 4112      74657200 
 4113              	.LASF51:
 4114 0075 70726963 		.ascii	"price\000"
 4114      6500
 4115              	.LASF52:
 4116 007b 47657452 		.ascii	"GetResponse\000"
 4116      6573706F 
 4116      6E736500 
 4117              	.LASF72:
 4118 0087 474E5520 		.ascii	"GNU C11 5.4.1 20160609 (release) [ARM/embedded-5-br"
 4118      43313120 
 4118      352E342E 
 4118      31203230 
 4118      31363036 
 4119 00ba 616E6368 		.ascii	"anch revision 237715] -mcpu=cortex-m3 -mthumb -g -O"
 4119      20726576 
 4119      6973696F 
 4119      6E203233 
 4119      37373135 
 4120 00ed 30202D66 		.ascii	"0 -ffunction-sections -ffat-lto-objects\000"
 4120      66756E63 
 4120      74696F6E 
ARM GAS  C:\Users\Lenovo\AppData\Local\Temp\ccHWhG0i.s 			page 83


 4120      2D736563 
 4120      74696F6E 
 4121              	.LASF46:
 4122 0115 41757468 		.ascii	"Authorize\000"
 4122      6F72697A 
 4122      6500
 4123              	.LASF4:
 4124 011f 5F5F7569 		.ascii	"__uint16_t\000"
 4124      6E743136 
 4124      5F7400
 4125              	.LASF69:
 4126 012a 506F7369 		.ascii	"Positions\000"
 4126      74696F6E 
 4126      7300
 4127              	.LASF16:
 4128 0134 75696E74 		.ascii	"uint16\000"
 4128      313600
 4129              	.LASF55:
 4130 013b 6E6F7A7A 		.ascii	"nozzle\000"
 4130      6C6500
 4131              	.LASF12:
 4132 0142 75696E74 		.ascii	"uint8_t\000"
 4132      385F7400 
 4133              	.LASF15:
 4134 014a 75696E74 		.ascii	"uint8\000"
 4134      3800
 4135              	.LASF0:
 4136 0150 7369676E 		.ascii	"signed char\000"
 4136      65642063 
 4136      68617200 
 4137              	.LASF17:
 4138 015c 666C6F61 		.ascii	"float\000"
 4138      7400
 4139              	.LASF9:
 4140 0162 6C6F6E67 		.ascii	"long long int\000"
 4140      206C6F6E 
 4140      6720696E 
 4140      7400
 4141              	.LASF28:
 4142 0170 73746174 		.ascii	"states\000"
 4142      657300
 4143              	.LASF53:
 4144 0177 546F7461 		.ascii	"TotalRequest\000"
 4144      6C526571 
 4144      75657374 
 4144      00
 4145              	.LASF7:
 4146 0184 6C6F6E67 		.ascii	"long int\000"
 4146      20696E74 
 4146      00
 4147              	.LASF32:
 4148 018d 50726F63 		.ascii	"ProcessedvolumeSale\000"
 4148      65737365 
 4148      64766F6C 
 4148      756D6553 
 4148      616C6500 
 4149              	.LASF42:
ARM GAS  C:\Users\Lenovo\AppData\Local\Temp\ccHWhG0i.s 			page 84


 4150 01a1 61646472 		.ascii	"address\000"
 4150      65737300 
 4151              	.LASF71:
 4152 01a9 64697247 		.ascii	"dirGbr\000"
 4152      627200
 4153              	.LASF25:
 4154 01b0 766F6C75 		.ascii	"volumeSale\000"
 4154      6D655361 
 4154      6C6500
 4155              	.LASF3:
 4156 01bb 5F5F7569 		.ascii	"__uint8_t\000"
 4156      6E74385F 
 4156      7400
 4157              	.LASF36:
 4158 01c5 4D455053 		.ascii	"MEPSAN_AUTHORIZE\000"
 4158      414E5F41 
 4158      5554484F 
 4158      52495A45 
 4158      00
 4159              	.LASF30:
 4160 01d6 50726F63 		.ascii	"ProcessedTotals\000"
 4160      65737365 
 4160      64546F74 
 4160      616C7300 
 4161              	.LASF65:
 4162 01e6 4D657073 		.ascii	"MepsanSendTo\000"
 4162      616E5365 
 4162      6E64546F 
 4162      00
 4163              	.LASF20:
 4164 01f3 6C6F6E67 		.ascii	"long double\000"
 4164      20646F75 
 4164      626C6500 
 4165              	.LASF66:
 4166 01ff 50756D70 		.ascii	"PumpAddress\000"
 4166      41646472 
 4166      65737300 
 4167              	.LASF1:
 4168 020b 756E7369 		.ascii	"unsigned char\000"
 4168      676E6564 
 4168      20636861 
 4168      7200
 4169              	.LASF23:
 4170 0219 7070754E 		.ascii	"ppuNozzle\000"
 4170      6F7A7A6C 
 4170      6500
 4171              	.LASF10:
 4172 0223 6C6F6E67 		.ascii	"long long unsigned int\000"
 4172      206C6F6E 
 4172      6720756E 
 4172      7369676E 
 4172      65642069 
 4173              	.LASF54:
 4174 023a 74797065 		.ascii	"type\000"
 4174      00
 4175              	.LASF11:
 4176 023f 756E7369 		.ascii	"unsigned int\000"
ARM GAS  C:\Users\Lenovo\AppData\Local\Temp\ccHWhG0i.s 			page 85


 4176      676E6564 
 4176      20696E74 
 4176      00
 4177              	.LASF26:
 4178 024c 70707553 		.ascii	"ppuSale\000"
 4178      616C6500 
 4179              	.LASF24:
 4180 0254 6D6F6E65 		.ascii	"moneySale\000"
 4180      7953616C 
 4180      6500
 4181              	.LASF62:
 4182 025e 43757272 		.ascii	"CurrentState\000"
 4182      656E7453 
 4182      74617465 
 4182      00
 4183              	.LASF56:
 4184 026b 72657175 		.ascii	"request\000"
 4184      65737400 
 4185              	.LASF40:
 4186 0273 62697473 		.ascii	"bits_read\000"
 4186      5F726561 
 4186      6400
 4187              	.LASF27:
 4188 027d 70726F64 		.ascii	"productSale\000"
 4188      75637453 
 4188      616C6500 
 4189              	.LASF5:
 4190 0289 73686F72 		.ascii	"short unsigned int\000"
 4190      7420756E 
 4190      7369676E 
 4190      65642069 
 4190      6E7400
 4191              	.LASF47:
 4192 029c 73746174 		.ascii	"status\000"
 4192      757300
 4193              	.LASF43:
 4194 02a3 4D657052 		.ascii	"MepRx\000"
 4194      7800
 4195              	.LASF19:
 4196 02a9 63686172 		.ascii	"char\000"
 4196      00
 4197              	.LASF13:
 4198 02ae 75696E74 		.ascii	"uint16_t\000"
 4198      31365F74 
 4198      00
 4199              	.LASF44:
 4200 02b7 67656E5F 		.ascii	"gen_crc16\000"
 4200      63726331 
 4200      3600
 4201              	.LASF14:
 4202 02c1 696E7433 		.ascii	"int32_t\000"
 4202      325F7400 
 4203              	.LASF34:
 4204 02c9 70756D70 		.ascii	"pump\000"
 4204      00
 4205              	.LASF76:
 4206 02ce 47657454 		.ascii	"GetTotal\000"
ARM GAS  C:\Users\Lenovo\AppData\Local\Temp\ccHWhG0i.s 			page 86


 4206      6F74616C 
 4206      00
 4207              	.LASF38:
 4208 02d7 64617461 		.ascii	"data\000"
 4208      00
 4209              	.LASF22:
 4210 02dc 746F7461 		.ascii	"totalsNozzle\000"
 4210      6C734E6F 
 4210      7A7A6C65 
 4210      00
 4211              	.LASF8:
 4212 02e9 6C6F6E67 		.ascii	"long unsigned int\000"
 4212      20756E73 
 4212      69676E65 
 4212      6420696E 
 4212      7400
 4213              	.LASF18:
 4214 02fb 646F7562 		.ascii	"double\000"
 4214      6C6500
 4215              	.LASF64:
 4216 0302 4D657073 		.ascii	"MepsanResponse\000"
 4216      616E5265 
 4216      73706F6E 
 4216      736500
 4217              	.LASF60:
 4218 0311 49544D5F 		.ascii	"ITM_RxBuffer\000"
 4218      52784275 
 4218      66666572 
 4218      00
 4219              	.LASF39:
 4220 031e 73697A65 		.ascii	"size\000"
 4220      00
 4221              	.LASF57:
 4222 0323 50726F63 		.ascii	"ProccessResponse\000"
 4222      63657373 
 4222      52657370 
 4222      6F6E7365 
 4222      00
 4223              	.LASF6:
 4224 0334 5F5F696E 		.ascii	"__int32_t\000"
 4224      7433325F 
 4224      7400
 4225              	.LASF70:
 4226 033e 546F7461 		.ascii	"TotalRequestType\000"
 4226      6C526571 
 4226      75657374 
 4226      54797065 
 4226      00
 4227              	.LASF29:
 4228 034f 4D657073 		.ascii	"MepsanStore\000"
 4228      616E5374 
 4228      6F726500 
 4229              	.LASF31:
 4230 035b 50726F63 		.ascii	"ProcessedmoneySale\000"
 4230      65737365 
 4230      646D6F6E 
 4230      65795361 
ARM GAS  C:\Users\Lenovo\AppData\Local\Temp\ccHWhG0i.s 			page 87


 4230      6C6500
 4231              	.LASF49:
 4232 036e 50756D70 		.ascii	"PumpState\000"
 4232      53746174 
 4232      6500
 4233              	.LASF73:
 4234 0378 50756D70 		.ascii	"PumpCom.c\000"
 4234      436F6D2E 
 4234      6300
 4235              	.LASF33:
 4236 0382 706F7369 		.ascii	"position\000"
 4236      74696F6E 
 4236      00
 4237              	.LASF45:
 4238 038b 47657441 		.ascii	"GetAddress\000"
 4238      64647265 
 4238      737300
 4239              	.LASF63:
 4240 0396 73696465 		.ascii	"side\000"
 4240      00
 4241              	.LASF58:
 4242 039b 56616C69 		.ascii	"ValidateA\000"
 4242      64617465 
 4242      4100
 4243              	.LASF59:
 4244 03a5 56616C69 		.ascii	"ValidateB\000"
 4244      64617465 
 4244      4200
 4245              	.LASF74:
 4246 03af 433A5C55 		.ascii	"C:\\Users\\Lenovo\\Documents\\GitHub\\Mepsan\\Mepsa"
 4246      73657273 
 4246      5C4C656E 
 4246      6F766F5C 
 4246      446F6375 
 4247 03dc 6E2E6379 		.ascii	"n.cydsn\000"
 4247      64736E00 
 4248              	.LASF68:
 4249 03e4 6372635F 		.ascii	"crc_hi\000"
 4249      686900
 4250              	.LASF77:
 4251 03eb 47657441 		.ascii	"GetACK\000"
 4251      434B00
 4252              		.ident	"GCC: (GNU Tools for ARM Embedded Processors) 5.4.1 20160609 (release) [ARM/embedded-5-bran
