ARM GAS  C:\Users\Lenovo\AppData\Local\Temp\ccP94fx0.s 			page 1


   1              		.syntax unified
   2              		.cpu cortex-m3
   3              		.fpu softvfp
   4              		.eabi_attribute 20, 1
   5              		.eabi_attribute 21, 1
   6              		.eabi_attribute 23, 3
   7              		.eabi_attribute 24, 1
   8              		.eabi_attribute 25, 1
   9              		.eabi_attribute 26, 1
  10              		.eabi_attribute 30, 6
  11              		.eabi_attribute 34, 1
  12              		.eabi_attribute 18, 4
  13              		.thumb
  14              		.syntax unified
  15              		.file	"PumpCom.c"
  16              		.text
  17              	.Ltext0:
  18              		.cfi_sections	.debug_frame
  19              		.comm	PollCounter,2,2
  20              		.comm	CurrentState,1,1
  21              		.comm	Receipt,1,1
  22              		.comm	side,1164,4
  23              		.comm	MepsanResponse,50,4
  24              		.comm	MepsanSendTo,50,4
  25              		.comm	PumpAddress,15,4
  26              		.comm	CRC,2,2
  27              		.comm	crc_lo,1,1
  28              		.comm	crc_hi,1,1
  29              		.comm	Positions,1,1
  30              		.comm	TotalRequestType,1,1
  31              		.comm	DecVol,1,1
  32              		.comm	dirGbr,1,1
  33              		.section	.text.gen_crc16,"ax",%progbits
  34              		.align	2
  35              		.global	gen_crc16
  36              		.thumb
  37              		.thumb_func
  38              		.type	gen_crc16, %function
  39              	gen_crc16:
  40              	.LFB63:
  41              		.file 1 "PumpCom.c"
   1:PumpCom.c     **** /**
   2:PumpCom.c     ****  * @file PumpCom.c
   3:PumpCom.c     ****  * @author Kugel Electronics
   4:PumpCom.c     ****  * @date 10/04/2018
   5:PumpCom.c     ****  * @brief Comunicación con el dispensador.
   6:PumpCom.c     ****  *
   7:PumpCom.c     ****  * Here typically goes a more extensive explanation of what the header
   8:PumpCom.c     ****  * defines. Doxygens tags are words preceeded by either a backslash @\
   9:PumpCom.c     ****  * or by an at symbol @@.
  10:PumpCom.c     ****  * @see http://www.stack.nl/~dimitri/doxygen/docblocks.html
  11:PumpCom.c     ****  * @see http://www.stack.nl/~dimitri/doxygen/commands.html
  12:PumpCom.c     ****  */
  13:PumpCom.c     **** 
  14:PumpCom.c     **** /* [] END OF FILE */
  15:PumpCom.c     **** 
  16:PumpCom.c     **** #include <GVar.h>
ARM GAS  C:\Users\Lenovo\AppData\Local\Temp\ccP94fx0.s 			page 2


  17:PumpCom.c     **** 
  18:PumpCom.c     **** #define CRC16 0x8005
  19:PumpCom.c     **** 
  20:PumpCom.c     **** /*******************************************************************************
  21:PumpCom.c     **** * Function Name: gen_crc16
  22:PumpCom.c     **** ********************************************************************************
  23:PumpCom.c     **** *
  24:PumpCom.c     **** *
  25:PumpCom.c     **** *******************************************************************************/
  26:PumpCom.c     **** uint16_t gen_crc16(const uint8_t *data, uint16_t size)
  27:PumpCom.c     **** {
  42              		.loc 1 27 0
  43              		.cfi_startproc
  44              		@ args = 0, pretend = 0, frame = 32
  45              		@ frame_needed = 1, uses_anonymous_args = 0
  46              		@ link register save eliminated.
  47 0000 80B4     		push	{r7}
  48              		.cfi_def_cfa_offset 4
  49              		.cfi_offset 7, -4
  50 0002 89B0     		sub	sp, sp, #36
  51              		.cfi_def_cfa_offset 40
  52 0004 00AF     		add	r7, sp, #0
  53              		.cfi_def_cfa_register 7
  54 0006 7860     		str	r0, [r7, #4]
  55 0008 0B46     		mov	r3, r1
  56 000a 7B80     		strh	r3, [r7, #2]	@ movhi
  28:PumpCom.c     ****     uint16_t out = 0;
  57              		.loc 1 28 0
  58 000c 0023     		movs	r3, #0
  59 000e FB83     		strh	r3, [r7, #30]	@ movhi
  29:PumpCom.c     ****     int bits_read = 0, bit_flag;
  60              		.loc 1 29 0
  61 0010 0023     		movs	r3, #0
  62 0012 BB61     		str	r3, [r7, #24]
  30:PumpCom.c     **** 
  31:PumpCom.c     ****     /* Sanity check: */
  32:PumpCom.c     ****     if(data == NULL)
  63              		.loc 1 32 0
  64 0014 7B68     		ldr	r3, [r7, #4]
  65 0016 002B     		cmp	r3, #0
  66 0018 2FD1     		bne	.L4
  33:PumpCom.c     ****         return 0;
  67              		.loc 1 33 0
  68 001a 0023     		movs	r3, #0
  69 001c 68E0     		b	.L3
  70              	.L6:
  34:PumpCom.c     **** 
  35:PumpCom.c     ****     while(size > 0)
  36:PumpCom.c     ****     {
  37:PumpCom.c     ****         bit_flag = out >> 15;
  71              		.loc 1 37 0
  72 001e FB8B     		ldrh	r3, [r7, #30]
  73 0020 DB0B     		lsrs	r3, r3, #15
  74 0022 9BB2     		uxth	r3, r3
  75 0024 BB60     		str	r3, [r7, #8]
  38:PumpCom.c     **** 
  39:PumpCom.c     ****         /* Get next bit: */
ARM GAS  C:\Users\Lenovo\AppData\Local\Temp\ccP94fx0.s 			page 3


  40:PumpCom.c     ****         out <<= 1;
  76              		.loc 1 40 0
  77 0026 FB8B     		ldrh	r3, [r7, #30]	@ movhi
  78 0028 5B00     		lsls	r3, r3, #1
  79 002a FB83     		strh	r3, [r7, #30]	@ movhi
  41:PumpCom.c     ****         out |= (*data >> bits_read) & 1; // item a) work from the least significant bits
  80              		.loc 1 41 0
  81 002c 7B68     		ldr	r3, [r7, #4]
  82 002e 1B78     		ldrb	r3, [r3]	@ zero_extendqisi2
  83 0030 1A46     		mov	r2, r3
  84 0032 BB69     		ldr	r3, [r7, #24]
  85 0034 42FA03F3 		asr	r3, r2, r3
  86 0038 1BB2     		sxth	r3, r3
  87 003a 03F00103 		and	r3, r3, #1
  88 003e 1AB2     		sxth	r2, r3
  89 0040 B7F91E30 		ldrsh	r3, [r7, #30]
  90 0044 1343     		orrs	r3, r3, r2
  91 0046 1BB2     		sxth	r3, r3
  92 0048 FB83     		strh	r3, [r7, #30]	@ movhi
  42:PumpCom.c     **** 
  43:PumpCom.c     ****         /* Increment bit counter: */
  44:PumpCom.c     ****         bits_read++;
  93              		.loc 1 44 0
  94 004a BB69     		ldr	r3, [r7, #24]
  95 004c 0133     		adds	r3, r3, #1
  96 004e BB61     		str	r3, [r7, #24]
  45:PumpCom.c     ****         if(bits_read > 7)
  97              		.loc 1 45 0
  98 0050 BB69     		ldr	r3, [r7, #24]
  99 0052 072B     		cmp	r3, #7
 100 0054 07DD     		ble	.L5
  46:PumpCom.c     ****         {
  47:PumpCom.c     ****             bits_read = 0;
 101              		.loc 1 47 0
 102 0056 0023     		movs	r3, #0
 103 0058 BB61     		str	r3, [r7, #24]
  48:PumpCom.c     ****             data++;
 104              		.loc 1 48 0
 105 005a 7B68     		ldr	r3, [r7, #4]
 106 005c 0133     		adds	r3, r3, #1
 107 005e 7B60     		str	r3, [r7, #4]
  49:PumpCom.c     ****             size--;
 108              		.loc 1 49 0
 109 0060 7B88     		ldrh	r3, [r7, #2]
 110 0062 013B     		subs	r3, r3, #1
 111 0064 7B80     		strh	r3, [r7, #2]	@ movhi
 112              	.L5:
  50:PumpCom.c     ****         }
  51:PumpCom.c     **** 
  52:PumpCom.c     ****         /* Cycle check: */
  53:PumpCom.c     ****         if(bit_flag)
 113              		.loc 1 53 0
 114 0066 BB68     		ldr	r3, [r7, #8]
 115 0068 002B     		cmp	r3, #0
 116 006a 06D0     		beq	.L4
  54:PumpCom.c     ****             out ^= CRC16;
 117              		.loc 1 54 0
ARM GAS  C:\Users\Lenovo\AppData\Local\Temp\ccP94fx0.s 			page 4


 118 006c FB8B     		ldrh	r3, [r7, #30]	@ movhi
 119 006e 83F4FF43 		eor	r3, r3, #32640
 120 0072 83F07A03 		eor	r3, r3, #122
 121 0076 DB43     		mvns	r3, r3
 122 0078 FB83     		strh	r3, [r7, #30]	@ movhi
 123              	.L4:
  35:PumpCom.c     ****     {
 124              		.loc 1 35 0
 125 007a 7B88     		ldrh	r3, [r7, #2]
 126 007c 002B     		cmp	r3, #0
 127 007e CED1     		bne	.L6
  55:PumpCom.c     **** 
  56:PumpCom.c     ****     }
  57:PumpCom.c     **** 
  58:PumpCom.c     ****     // item b) "push out" the last 16 bits
  59:PumpCom.c     ****     int i;
  60:PumpCom.c     ****     for (i = 0; i < 16; ++i) {
 128              		.loc 1 60 0
 129 0080 0023     		movs	r3, #0
 130 0082 7B61     		str	r3, [r7, #20]
 131 0084 13E0     		b	.L7
 132              	.L9:
  61:PumpCom.c     ****         bit_flag = out >> 15;
 133              		.loc 1 61 0
 134 0086 FB8B     		ldrh	r3, [r7, #30]
 135 0088 DB0B     		lsrs	r3, r3, #15
 136 008a 9BB2     		uxth	r3, r3
 137 008c BB60     		str	r3, [r7, #8]
  62:PumpCom.c     ****         out <<= 1;
 138              		.loc 1 62 0
 139 008e FB8B     		ldrh	r3, [r7, #30]	@ movhi
 140 0090 5B00     		lsls	r3, r3, #1
 141 0092 FB83     		strh	r3, [r7, #30]	@ movhi
  63:PumpCom.c     ****         if(bit_flag)
 142              		.loc 1 63 0
 143 0094 BB68     		ldr	r3, [r7, #8]
 144 0096 002B     		cmp	r3, #0
 145 0098 06D0     		beq	.L8
  64:PumpCom.c     ****             out ^= CRC16;
 146              		.loc 1 64 0
 147 009a FB8B     		ldrh	r3, [r7, #30]	@ movhi
 148 009c 83F4FF43 		eor	r3, r3, #32640
 149 00a0 83F07A03 		eor	r3, r3, #122
 150 00a4 DB43     		mvns	r3, r3
 151 00a6 FB83     		strh	r3, [r7, #30]	@ movhi
 152              	.L8:
  60:PumpCom.c     ****         bit_flag = out >> 15;
 153              		.loc 1 60 0 discriminator 2
 154 00a8 7B69     		ldr	r3, [r7, #20]
 155 00aa 0133     		adds	r3, r3, #1
 156 00ac 7B61     		str	r3, [r7, #20]
 157              	.L7:
  60:PumpCom.c     ****         bit_flag = out >> 15;
 158              		.loc 1 60 0 is_stmt 0 discriminator 1
 159 00ae 7B69     		ldr	r3, [r7, #20]
 160 00b0 0F2B     		cmp	r3, #15
 161 00b2 E8DD     		ble	.L9
ARM GAS  C:\Users\Lenovo\AppData\Local\Temp\ccP94fx0.s 			page 5


  65:PumpCom.c     ****     }
  66:PumpCom.c     **** 
  67:PumpCom.c     ****     // item c) reverse the bits
  68:PumpCom.c     ****     uint16_t crc = 0;
 162              		.loc 1 68 0 is_stmt 1
 163 00b4 0023     		movs	r3, #0
 164 00b6 7B82     		strh	r3, [r7, #18]	@ movhi
  69:PumpCom.c     ****     i = 0x8000;
 165              		.loc 1 69 0
 166 00b8 4FF40043 		mov	r3, #32768
 167 00bc 7B61     		str	r3, [r7, #20]
  70:PumpCom.c     ****     int j = 0x0001;
 168              		.loc 1 70 0
 169 00be 0123     		movs	r3, #1
 170 00c0 FB60     		str	r3, [r7, #12]
  71:PumpCom.c     ****     for (; i != 0; i >>=1, j <<= 1) {
 171              		.loc 1 71 0
 172 00c2 11E0     		b	.L10
 173              	.L12:
  72:PumpCom.c     ****         if (i & out) crc |= j;
 174              		.loc 1 72 0
 175 00c4 FA8B     		ldrh	r2, [r7, #30]
 176 00c6 7B69     		ldr	r3, [r7, #20]
 177 00c8 1340     		ands	r3, r3, r2
 178 00ca 002B     		cmp	r3, #0
 179 00cc 06D0     		beq	.L11
 180              		.loc 1 72 0 is_stmt 0 discriminator 1
 181 00ce FB68     		ldr	r3, [r7, #12]
 182 00d0 1AB2     		sxth	r2, r3
 183 00d2 B7F91230 		ldrsh	r3, [r7, #18]
 184 00d6 1343     		orrs	r3, r3, r2
 185 00d8 1BB2     		sxth	r3, r3
 186 00da 7B82     		strh	r3, [r7, #18]	@ movhi
 187              	.L11:
  71:PumpCom.c     ****     for (; i != 0; i >>=1, j <<= 1) {
 188              		.loc 1 71 0 is_stmt 1
 189 00dc 7B69     		ldr	r3, [r7, #20]
 190 00de 5B10     		asrs	r3, r3, #1
 191 00e0 7B61     		str	r3, [r7, #20]
 192 00e2 FB68     		ldr	r3, [r7, #12]
 193 00e4 5B00     		lsls	r3, r3, #1
 194 00e6 FB60     		str	r3, [r7, #12]
 195              	.L10:
  71:PumpCom.c     ****     for (; i != 0; i >>=1, j <<= 1) {
 196              		.loc 1 71 0 is_stmt 0 discriminator 1
 197 00e8 7B69     		ldr	r3, [r7, #20]
 198 00ea 002B     		cmp	r3, #0
 199 00ec EAD1     		bne	.L12
  73:PumpCom.c     ****     }
  74:PumpCom.c     **** 
  75:PumpCom.c     ****     return crc;
 200              		.loc 1 75 0 is_stmt 1
 201 00ee 7B8A     		ldrh	r3, [r7, #18]
 202              	.L3:
  76:PumpCom.c     **** }
 203              		.loc 1 76 0
 204 00f0 1846     		mov	r0, r3
ARM GAS  C:\Users\Lenovo\AppData\Local\Temp\ccP94fx0.s 			page 6


 205 00f2 2437     		adds	r7, r7, #36
 206              		.cfi_def_cfa_offset 4
 207 00f4 BD46     		mov	sp, r7
 208              		.cfi_def_cfa_register 13
 209              		@ sp needed
 210 00f6 80BC     		pop	{r7}
 211              		.cfi_restore 7
 212              		.cfi_def_cfa_offset 0
 213 00f8 7047     		bx	lr
 214              		.cfi_endproc
 215              	.LFE63:
 216              		.size	gen_crc16, .-gen_crc16
 217 00fa 00BF     		.section	.text.GetResponse,"ax",%progbits
 218              		.align	2
 219              		.global	GetResponse
 220              		.thumb
 221              		.thumb_func
 222              		.type	GetResponse, %function
 223              	GetResponse:
 224              	.LFB64:
  77:PumpCom.c     **** 
  78:PumpCom.c     **** /*******************************************************************************
  79:PumpCom.c     **** * Function Name: GetResponse
  80:PumpCom.c     **** ********************************************************************************
  81:PumpCom.c     **** *
  82:PumpCom.c     **** *
  83:PumpCom.c     **** *******************************************************************************/
  84:PumpCom.c     **** void GetResponse(void){
 225              		.loc 1 84 0
 226              		.cfi_startproc
 227              		@ args = 0, pretend = 0, frame = 16
 228              		@ frame_needed = 1, uses_anonymous_args = 0
 229 0000 F0B5     		push	{r4, r5, r6, r7, lr}
 230              		.cfi_def_cfa_offset 20
 231              		.cfi_offset 4, -20
 232              		.cfi_offset 5, -16
 233              		.cfi_offset 6, -12
 234              		.cfi_offset 7, -8
 235              		.cfi_offset 14, -4
 236 0002 85B0     		sub	sp, sp, #20
 237              		.cfi_def_cfa_offset 40
 238 0004 00AF     		add	r7, sp, #0
 239              		.cfi_def_cfa_register 7
  85:PumpCom.c     ****     uint8 size, address;
  86:PumpCom.c     ****     size = MepsanResponse[0];          
 240              		.loc 1 86 0
 241 0006 164B     		ldr	r3, .L47
 242 0008 1B78     		ldrb	r3, [r3]
 243 000a FB70     		strb	r3, [r7, #3]
  87:PumpCom.c     ****     //CyDelay(10); 
  88:PumpCom.c     ****     address = MepsanResponse[1] & 0x0F;
 244              		.loc 1 88 0
 245 000c 144B     		ldr	r3, .L47
 246 000e 5B78     		ldrb	r3, [r3, #1]	@ zero_extendqisi2
 247 0010 03F00F03 		and	r3, r3, #15
 248 0014 BB70     		strb	r3, [r7, #2]
  89:PumpCom.c     ****     if(address == side.a.dir){
ARM GAS  C:\Users\Lenovo\AppData\Local\Temp\ccP94fx0.s 			page 7


 249              		.loc 1 89 0
 250 0016 134B     		ldr	r3, .L47+4
 251 0018 1B78     		ldrb	r3, [r3]	@ zero_extendqisi2
 252 001a BA78     		ldrb	r2, [r7, #2]	@ zero_extendqisi2
 253 001c 9A42     		cmp	r2, r3
 254 001e 40F02F83 		bne	.L14
 255              	.LBB2:
  90:PumpCom.c     ****         for(uint8 MepRx = 1; MepRx < size + 1; MepRx++){
 256              		.loc 1 90 0
 257 0022 0123     		movs	r3, #1
 258 0024 FB73     		strb	r3, [r7, #15]
 259 0026 0CE0     		b	.L15
 260              	.L16:
  91:PumpCom.c     ****             side.a.MepsanStore[MepRx - 1] = MepsanResponse[MepRx];
 261              		.loc 1 91 0 discriminator 3
 262 0028 FB7B     		ldrb	r3, [r7, #15]	@ zero_extendqisi2
 263 002a 013B     		subs	r3, r3, #1
 264 002c FA7B     		ldrb	r2, [r7, #15]	@ zero_extendqisi2
 265 002e 0C49     		ldr	r1, .L47
 266 0030 895C     		ldrb	r1, [r1, r2]	@ zero_extendqisi2
 267 0032 0C4A     		ldr	r2, .L47+4
 268 0034 1344     		add	r3, r3, r2
 269 0036 0A46     		mov	r2, r1
 270 0038 83F85120 		strb	r2, [r3, #81]
  90:PumpCom.c     ****         for(uint8 MepRx = 1; MepRx < size + 1; MepRx++){
 271              		.loc 1 90 0 discriminator 3
 272 003c FB7B     		ldrb	r3, [r7, #15]	@ zero_extendqisi2
 273 003e 0133     		adds	r3, r3, #1
 274 0040 FB73     		strb	r3, [r7, #15]
 275              	.L15:
  90:PumpCom.c     ****         for(uint8 MepRx = 1; MepRx < size + 1; MepRx++){
 276              		.loc 1 90 0 is_stmt 0 discriminator 1
 277 0042 FA7B     		ldrb	r2, [r7, #15]	@ zero_extendqisi2
 278 0044 FB78     		ldrb	r3, [r7, #3]	@ zero_extendqisi2
 279 0046 0133     		adds	r3, r3, #1
 280 0048 9A42     		cmp	r2, r3
 281 004a EDDB     		blt	.L16
 282              	.LBE2:
  92:PumpCom.c     ****         }
  93:PumpCom.c     ****         if(side.a.MepsanStore[2] == 0x65){
 283              		.loc 1 93 0 is_stmt 1
 284 004c 054B     		ldr	r3, .L47+4
 285 004e 93F85330 		ldrb	r3, [r3, #83]	@ zero_extendqisi2
 286 0052 652B     		cmp	r3, #101
 287 0054 40F03E82 		bne	.L17
 288              	.LBB3:
  94:PumpCom.c     ****             for(uint8 x = 5; x < (side.a.MepsanStore[3]-1) + 5; x++ ){
 289              		.loc 1 94 0
 290 0058 0523     		movs	r3, #5
 291 005a BB73     		strb	r3, [r7, #14]
 292 005c 25E0     		b	.L18
 293              	.L48:
 294 005e 00BF     		.align	2
 295              	.L47:
 296 0060 00000000 		.word	MepsanResponse
 297 0064 00000000 		.word	side
 298              	.L19:
ARM GAS  C:\Users\Lenovo\AppData\Local\Temp\ccP94fx0.s 			page 8


  95:PumpCom.c     ****                 side.a.totalsNozzle[((side.a.MepsanStore[4])&0x0F)-1][TotalRequestType][x-5] = side
 299              		.loc 1 95 0 discriminator 3
 300 0068 CD4B     		ldr	r3, .L49
 301 006a 93F85530 		ldrb	r3, [r3, #85]	@ zero_extendqisi2
 302 006e 03F00F03 		and	r3, r3, #15
 303 0072 591E     		subs	r1, r3, #1
 304 0074 CB4B     		ldr	r3, .L49+4
 305 0076 1B78     		ldrb	r3, [r3]	@ zero_extendqisi2
 306 0078 1D46     		mov	r5, r3
 307 007a BB7B     		ldrb	r3, [r7, #14]	@ zero_extendqisi2
 308 007c 581F     		subs	r0, r3, #5
 309 007e BB7B     		ldrb	r3, [r7, #14]	@ zero_extendqisi2
 310 0080 C74A     		ldr	r2, .L49
 311 0082 1344     		add	r3, r3, r2
 312 0084 93F85160 		ldrb	r6, [r3, #81]	@ zero_extendqisi2
 313 0088 C54C     		ldr	r4, .L49
 314 008a 2A46     		mov	r2, r5
 315 008c 9200     		lsls	r2, r2, #2
 316 008e 2A44     		add	r2, r2, r5
 317 0090 0B46     		mov	r3, r1
 318 0092 9B00     		lsls	r3, r3, #2
 319 0094 0B44     		add	r3, r3, r1
 320 0096 5B00     		lsls	r3, r3, #1
 321 0098 1344     		add	r3, r3, r2
 322 009a 2344     		add	r3, r3, r4
 323 009c 0344     		add	r3, r3, r0
 324 009e 0133     		adds	r3, r3, #1
 325 00a0 3246     		mov	r2, r6
 326 00a2 1A70     		strb	r2, [r3]
  94:PumpCom.c     ****             for(uint8 x = 5; x < (side.a.MepsanStore[3]-1) + 5; x++ ){
 327              		.loc 1 94 0 discriminator 3
 328 00a4 BB7B     		ldrb	r3, [r7, #14]	@ zero_extendqisi2
 329 00a6 0133     		adds	r3, r3, #1
 330 00a8 BB73     		strb	r3, [r7, #14]
 331              	.L18:
  94:PumpCom.c     ****             for(uint8 x = 5; x < (side.a.MepsanStore[3]-1) + 5; x++ ){
 332              		.loc 1 94 0 is_stmt 0 discriminator 1
 333 00aa BA7B     		ldrb	r2, [r7, #14]	@ zero_extendqisi2
 334 00ac BC4B     		ldr	r3, .L49
 335 00ae 93F85430 		ldrb	r3, [r3, #84]	@ zero_extendqisi2
 336 00b2 0433     		adds	r3, r3, #4
 337 00b4 9A42     		cmp	r2, r3
 338 00b6 D7DB     		blt	.L19
 339              	.LBE3:
  96:PumpCom.c     ****             }
  97:PumpCom.c     ****             
  98:PumpCom.c     ****             side.a.ProcessedTotals[((side.a.MepsanStore[4])&0x0F)-1][TotalRequestType][0] = (side.a
 340              		.loc 1 98 0 is_stmt 1
 341 00b8 B94B     		ldr	r3, .L49
 342 00ba 93F85530 		ldrb	r3, [r3, #85]	@ zero_extendqisi2
 343 00be 03F00F03 		and	r3, r3, #15
 344 00c2 591E     		subs	r1, r3, #1
 345 00c4 B74B     		ldr	r3, .L49+4
 346 00c6 1B78     		ldrb	r3, [r3]	@ zero_extendqisi2
 347 00c8 1D46     		mov	r5, r3
 348 00ca B54B     		ldr	r3, .L49
 349 00cc 93F85530 		ldrb	r3, [r3, #85]	@ zero_extendqisi2
ARM GAS  C:\Users\Lenovo\AppData\Local\Temp\ccP94fx0.s 			page 9


 350 00d0 03F00F03 		and	r3, r3, #15
 351 00d4 581E     		subs	r0, r3, #1
 352 00d6 B34B     		ldr	r3, .L49+4
 353 00d8 1B78     		ldrb	r3, [r3]	@ zero_extendqisi2
 354 00da B14C     		ldr	r4, .L49
 355 00dc 1A46     		mov	r2, r3
 356 00de 9200     		lsls	r2, r2, #2
 357 00e0 1A44     		add	r2, r2, r3
 358 00e2 0346     		mov	r3, r0
 359 00e4 9B00     		lsls	r3, r3, #2
 360 00e6 0344     		add	r3, r3, r0
 361 00e8 5B00     		lsls	r3, r3, #1
 362 00ea 1344     		add	r3, r3, r2
 363 00ec 2344     		add	r3, r3, r4
 364 00ee 0133     		adds	r3, r3, #1
 365 00f0 1B78     		ldrb	r3, [r3]	@ zero_extendqisi2
 366 00f2 1B09     		lsrs	r3, r3, #4
 367 00f4 DBB2     		uxtb	r3, r3
 368 00f6 3033     		adds	r3, r3, #48
 369 00f8 DCB2     		uxtb	r4, r3
 370 00fa A948     		ldr	r0, .L49
 371 00fc 2A46     		mov	r2, r5
 372 00fe 9200     		lsls	r2, r2, #2
 373 0100 2A44     		add	r2, r2, r5
 374 0102 5300     		lsls	r3, r2, #1
 375 0104 1A46     		mov	r2, r3
 376 0106 0B46     		mov	r3, r1
 377 0108 1B01     		lsls	r3, r3, #4
 378 010a 5B1A     		subs	r3, r3, r1
 379 010c 5B00     		lsls	r3, r3, #1
 380 010e 1344     		add	r3, r3, r2
 381 0110 0344     		add	r3, r3, r0
 382 0112 8333     		adds	r3, r3, #131
 383 0114 2246     		mov	r2, r4
 384 0116 1A70     		strb	r2, [r3]
  99:PumpCom.c     ****             side.a.ProcessedTotals[((side.a.MepsanStore[4])&0x0F)-1][TotalRequestType][1] = (side.a
 385              		.loc 1 99 0
 386 0118 A14B     		ldr	r3, .L49
 387 011a 93F85530 		ldrb	r3, [r3, #85]	@ zero_extendqisi2
 388 011e 03F00F03 		and	r3, r3, #15
 389 0122 591E     		subs	r1, r3, #1
 390 0124 9F4B     		ldr	r3, .L49+4
 391 0126 1B78     		ldrb	r3, [r3]	@ zero_extendqisi2
 392 0128 1D46     		mov	r5, r3
 393 012a 9D4B     		ldr	r3, .L49
 394 012c 93F85530 		ldrb	r3, [r3, #85]	@ zero_extendqisi2
 395 0130 03F00F03 		and	r3, r3, #15
 396 0134 581E     		subs	r0, r3, #1
 397 0136 9B4B     		ldr	r3, .L49+4
 398 0138 1B78     		ldrb	r3, [r3]	@ zero_extendqisi2
 399 013a 994C     		ldr	r4, .L49
 400 013c 1A46     		mov	r2, r3
 401 013e 9200     		lsls	r2, r2, #2
 402 0140 1A44     		add	r2, r2, r3
 403 0142 0346     		mov	r3, r0
 404 0144 9B00     		lsls	r3, r3, #2
 405 0146 0344     		add	r3, r3, r0
ARM GAS  C:\Users\Lenovo\AppData\Local\Temp\ccP94fx0.s 			page 10


 406 0148 5B00     		lsls	r3, r3, #1
 407 014a 1344     		add	r3, r3, r2
 408 014c 2344     		add	r3, r3, r4
 409 014e 0133     		adds	r3, r3, #1
 410 0150 1B78     		ldrb	r3, [r3]	@ zero_extendqisi2
 411 0152 03F00F03 		and	r3, r3, #15
 412 0156 DBB2     		uxtb	r3, r3
 413 0158 3033     		adds	r3, r3, #48
 414 015a DCB2     		uxtb	r4, r3
 415 015c 9048     		ldr	r0, .L49
 416 015e 2A46     		mov	r2, r5
 417 0160 9200     		lsls	r2, r2, #2
 418 0162 2A44     		add	r2, r2, r5
 419 0164 5300     		lsls	r3, r2, #1
 420 0166 1A46     		mov	r2, r3
 421 0168 0B46     		mov	r3, r1
 422 016a 1B01     		lsls	r3, r3, #4
 423 016c 5B1A     		subs	r3, r3, r1
 424 016e 5B00     		lsls	r3, r3, #1
 425 0170 1344     		add	r3, r3, r2
 426 0172 0344     		add	r3, r3, r0
 427 0174 8433     		adds	r3, r3, #132
 428 0176 2246     		mov	r2, r4
 429 0178 1A70     		strb	r2, [r3]
 100:PumpCom.c     ****             side.a.ProcessedTotals[((side.a.MepsanStore[4])&0x0F)-1][TotalRequestType][2] = (side.a
 430              		.loc 1 100 0
 431 017a 894B     		ldr	r3, .L49
 432 017c 93F85530 		ldrb	r3, [r3, #85]	@ zero_extendqisi2
 433 0180 03F00F03 		and	r3, r3, #15
 434 0184 591E     		subs	r1, r3, #1
 435 0186 874B     		ldr	r3, .L49+4
 436 0188 1B78     		ldrb	r3, [r3]	@ zero_extendqisi2
 437 018a 1D46     		mov	r5, r3
 438 018c 844B     		ldr	r3, .L49
 439 018e 93F85530 		ldrb	r3, [r3, #85]	@ zero_extendqisi2
 440 0192 03F00F03 		and	r3, r3, #15
 441 0196 581E     		subs	r0, r3, #1
 442 0198 824B     		ldr	r3, .L49+4
 443 019a 1B78     		ldrb	r3, [r3]	@ zero_extendqisi2
 444 019c 804C     		ldr	r4, .L49
 445 019e 1A46     		mov	r2, r3
 446 01a0 9200     		lsls	r2, r2, #2
 447 01a2 1A44     		add	r2, r2, r3
 448 01a4 0346     		mov	r3, r0
 449 01a6 9B00     		lsls	r3, r3, #2
 450 01a8 0344     		add	r3, r3, r0
 451 01aa 5B00     		lsls	r3, r3, #1
 452 01ac 1344     		add	r3, r3, r2
 453 01ae 2344     		add	r3, r3, r4
 454 01b0 0233     		adds	r3, r3, #2
 455 01b2 1B78     		ldrb	r3, [r3]	@ zero_extendqisi2
 456 01b4 1B09     		lsrs	r3, r3, #4
 457 01b6 DBB2     		uxtb	r3, r3
 458 01b8 3033     		adds	r3, r3, #48
 459 01ba DCB2     		uxtb	r4, r3
 460 01bc 7848     		ldr	r0, .L49
 461 01be 2A46     		mov	r2, r5
ARM GAS  C:\Users\Lenovo\AppData\Local\Temp\ccP94fx0.s 			page 11


 462 01c0 9200     		lsls	r2, r2, #2
 463 01c2 2A44     		add	r2, r2, r5
 464 01c4 5300     		lsls	r3, r2, #1
 465 01c6 1A46     		mov	r2, r3
 466 01c8 0B46     		mov	r3, r1
 467 01ca 1B01     		lsls	r3, r3, #4
 468 01cc 5B1A     		subs	r3, r3, r1
 469 01ce 5B00     		lsls	r3, r3, #1
 470 01d0 1344     		add	r3, r3, r2
 471 01d2 0344     		add	r3, r3, r0
 472 01d4 8533     		adds	r3, r3, #133
 473 01d6 2246     		mov	r2, r4
 474 01d8 1A70     		strb	r2, [r3]
 101:PumpCom.c     ****             side.a.ProcessedTotals[((side.a.MepsanStore[4])&0x0F)-1][TotalRequestType][3] = (side.a
 475              		.loc 1 101 0
 476 01da 714B     		ldr	r3, .L49
 477 01dc 93F85530 		ldrb	r3, [r3, #85]	@ zero_extendqisi2
 478 01e0 03F00F03 		and	r3, r3, #15
 479 01e4 591E     		subs	r1, r3, #1
 480 01e6 6F4B     		ldr	r3, .L49+4
 481 01e8 1B78     		ldrb	r3, [r3]	@ zero_extendqisi2
 482 01ea 1D46     		mov	r5, r3
 483 01ec 6C4B     		ldr	r3, .L49
 484 01ee 93F85530 		ldrb	r3, [r3, #85]	@ zero_extendqisi2
 485 01f2 03F00F03 		and	r3, r3, #15
 486 01f6 581E     		subs	r0, r3, #1
 487 01f8 6A4B     		ldr	r3, .L49+4
 488 01fa 1B78     		ldrb	r3, [r3]	@ zero_extendqisi2
 489 01fc 684C     		ldr	r4, .L49
 490 01fe 1A46     		mov	r2, r3
 491 0200 9200     		lsls	r2, r2, #2
 492 0202 1A44     		add	r2, r2, r3
 493 0204 0346     		mov	r3, r0
 494 0206 9B00     		lsls	r3, r3, #2
 495 0208 0344     		add	r3, r3, r0
 496 020a 5B00     		lsls	r3, r3, #1
 497 020c 1344     		add	r3, r3, r2
 498 020e 2344     		add	r3, r3, r4
 499 0210 0233     		adds	r3, r3, #2
 500 0212 1B78     		ldrb	r3, [r3]	@ zero_extendqisi2
 501 0214 03F00F03 		and	r3, r3, #15
 502 0218 DBB2     		uxtb	r3, r3
 503 021a 3033     		adds	r3, r3, #48
 504 021c DCB2     		uxtb	r4, r3
 505 021e 6048     		ldr	r0, .L49
 506 0220 2A46     		mov	r2, r5
 507 0222 9200     		lsls	r2, r2, #2
 508 0224 2A44     		add	r2, r2, r5
 509 0226 5300     		lsls	r3, r2, #1
 510 0228 1A46     		mov	r2, r3
 511 022a 0B46     		mov	r3, r1
 512 022c 1B01     		lsls	r3, r3, #4
 513 022e 5B1A     		subs	r3, r3, r1
 514 0230 5B00     		lsls	r3, r3, #1
 515 0232 1344     		add	r3, r3, r2
 516 0234 0344     		add	r3, r3, r0
 517 0236 8633     		adds	r3, r3, #134
ARM GAS  C:\Users\Lenovo\AppData\Local\Temp\ccP94fx0.s 			page 12


 518 0238 2246     		mov	r2, r4
 519 023a 1A70     		strb	r2, [r3]
 102:PumpCom.c     ****             side.a.ProcessedTotals[((side.a.MepsanStore[4])&0x0F)-1][TotalRequestType][4] = (side.a
 520              		.loc 1 102 0
 521 023c 584B     		ldr	r3, .L49
 522 023e 93F85530 		ldrb	r3, [r3, #85]	@ zero_extendqisi2
 523 0242 03F00F03 		and	r3, r3, #15
 524 0246 591E     		subs	r1, r3, #1
 525 0248 564B     		ldr	r3, .L49+4
 526 024a 1B78     		ldrb	r3, [r3]	@ zero_extendqisi2
 527 024c 1D46     		mov	r5, r3
 528 024e 544B     		ldr	r3, .L49
 529 0250 93F85530 		ldrb	r3, [r3, #85]	@ zero_extendqisi2
 530 0254 03F00F03 		and	r3, r3, #15
 531 0258 581E     		subs	r0, r3, #1
 532 025a 524B     		ldr	r3, .L49+4
 533 025c 1B78     		ldrb	r3, [r3]	@ zero_extendqisi2
 534 025e 504C     		ldr	r4, .L49
 535 0260 1A46     		mov	r2, r3
 536 0262 9200     		lsls	r2, r2, #2
 537 0264 1A44     		add	r2, r2, r3
 538 0266 0346     		mov	r3, r0
 539 0268 9B00     		lsls	r3, r3, #2
 540 026a 0344     		add	r3, r3, r0
 541 026c 5B00     		lsls	r3, r3, #1
 542 026e 1344     		add	r3, r3, r2
 543 0270 2344     		add	r3, r3, r4
 544 0272 0333     		adds	r3, r3, #3
 545 0274 1B78     		ldrb	r3, [r3]	@ zero_extendqisi2
 546 0276 1B09     		lsrs	r3, r3, #4
 547 0278 DBB2     		uxtb	r3, r3
 548 027a 3033     		adds	r3, r3, #48
 549 027c DCB2     		uxtb	r4, r3
 550 027e 4848     		ldr	r0, .L49
 551 0280 2A46     		mov	r2, r5
 552 0282 9200     		lsls	r2, r2, #2
 553 0284 2A44     		add	r2, r2, r5
 554 0286 5300     		lsls	r3, r2, #1
 555 0288 1A46     		mov	r2, r3
 556 028a 0B46     		mov	r3, r1
 557 028c 1B01     		lsls	r3, r3, #4
 558 028e 5B1A     		subs	r3, r3, r1
 559 0290 5B00     		lsls	r3, r3, #1
 560 0292 1344     		add	r3, r3, r2
 561 0294 0344     		add	r3, r3, r0
 562 0296 8733     		adds	r3, r3, #135
 563 0298 2246     		mov	r2, r4
 564 029a 1A70     		strb	r2, [r3]
 103:PumpCom.c     ****             side.a.ProcessedTotals[((side.a.MepsanStore[4])&0x0F)-1][TotalRequestType][5] = (side.a
 565              		.loc 1 103 0
 566 029c 404B     		ldr	r3, .L49
 567 029e 93F85530 		ldrb	r3, [r3, #85]	@ zero_extendqisi2
 568 02a2 03F00F03 		and	r3, r3, #15
 569 02a6 591E     		subs	r1, r3, #1
 570 02a8 3E4B     		ldr	r3, .L49+4
 571 02aa 1B78     		ldrb	r3, [r3]	@ zero_extendqisi2
 572 02ac 1D46     		mov	r5, r3
ARM GAS  C:\Users\Lenovo\AppData\Local\Temp\ccP94fx0.s 			page 13


 573 02ae 3C4B     		ldr	r3, .L49
 574 02b0 93F85530 		ldrb	r3, [r3, #85]	@ zero_extendqisi2
 575 02b4 03F00F03 		and	r3, r3, #15
 576 02b8 581E     		subs	r0, r3, #1
 577 02ba 3A4B     		ldr	r3, .L49+4
 578 02bc 1B78     		ldrb	r3, [r3]	@ zero_extendqisi2
 579 02be 384C     		ldr	r4, .L49
 580 02c0 1A46     		mov	r2, r3
 581 02c2 9200     		lsls	r2, r2, #2
 582 02c4 1A44     		add	r2, r2, r3
 583 02c6 0346     		mov	r3, r0
 584 02c8 9B00     		lsls	r3, r3, #2
 585 02ca 0344     		add	r3, r3, r0
 586 02cc 5B00     		lsls	r3, r3, #1
 587 02ce 1344     		add	r3, r3, r2
 588 02d0 2344     		add	r3, r3, r4
 589 02d2 0333     		adds	r3, r3, #3
 590 02d4 1B78     		ldrb	r3, [r3]	@ zero_extendqisi2
 591 02d6 03F00F03 		and	r3, r3, #15
 592 02da DBB2     		uxtb	r3, r3
 593 02dc 3033     		adds	r3, r3, #48
 594 02de DCB2     		uxtb	r4, r3
 595 02e0 2F48     		ldr	r0, .L49
 596 02e2 2A46     		mov	r2, r5
 597 02e4 9200     		lsls	r2, r2, #2
 598 02e6 2A44     		add	r2, r2, r5
 599 02e8 5300     		lsls	r3, r2, #1
 600 02ea 1A46     		mov	r2, r3
 601 02ec 0B46     		mov	r3, r1
 602 02ee 1B01     		lsls	r3, r3, #4
 603 02f0 5B1A     		subs	r3, r3, r1
 604 02f2 5B00     		lsls	r3, r3, #1
 605 02f4 1344     		add	r3, r3, r2
 606 02f6 0344     		add	r3, r3, r0
 607 02f8 8833     		adds	r3, r3, #136
 608 02fa 2246     		mov	r2, r4
 609 02fc 1A70     		strb	r2, [r3]
 104:PumpCom.c     ****             side.a.ProcessedTotals[((side.a.MepsanStore[4])&0x0F)-1][TotalRequestType][6] = (side.a
 610              		.loc 1 104 0
 611 02fe 284B     		ldr	r3, .L49
 612 0300 93F85530 		ldrb	r3, [r3, #85]	@ zero_extendqisi2
 613 0304 03F00F03 		and	r3, r3, #15
 614 0308 591E     		subs	r1, r3, #1
 615 030a 264B     		ldr	r3, .L49+4
 616 030c 1B78     		ldrb	r3, [r3]	@ zero_extendqisi2
 617 030e 1D46     		mov	r5, r3
 618 0310 234B     		ldr	r3, .L49
 619 0312 93F85530 		ldrb	r3, [r3, #85]	@ zero_extendqisi2
 620 0316 03F00F03 		and	r3, r3, #15
 621 031a 581E     		subs	r0, r3, #1
 622 031c 214B     		ldr	r3, .L49+4
 623 031e 1B78     		ldrb	r3, [r3]	@ zero_extendqisi2
 624 0320 1F4C     		ldr	r4, .L49
 625 0322 1A46     		mov	r2, r3
 626 0324 9200     		lsls	r2, r2, #2
 627 0326 1A44     		add	r2, r2, r3
 628 0328 0346     		mov	r3, r0
ARM GAS  C:\Users\Lenovo\AppData\Local\Temp\ccP94fx0.s 			page 14


 629 032a 9B00     		lsls	r3, r3, #2
 630 032c 0344     		add	r3, r3, r0
 631 032e 5B00     		lsls	r3, r3, #1
 632 0330 1344     		add	r3, r3, r2
 633 0332 2344     		add	r3, r3, r4
 634 0334 0433     		adds	r3, r3, #4
 635 0336 1B78     		ldrb	r3, [r3]	@ zero_extendqisi2
 636 0338 1B09     		lsrs	r3, r3, #4
 637 033a DBB2     		uxtb	r3, r3
 638 033c 3033     		adds	r3, r3, #48
 639 033e DCB2     		uxtb	r4, r3
 640 0340 1748     		ldr	r0, .L49
 641 0342 2A46     		mov	r2, r5
 642 0344 9200     		lsls	r2, r2, #2
 643 0346 2A44     		add	r2, r2, r5
 644 0348 5300     		lsls	r3, r2, #1
 645 034a 1A46     		mov	r2, r3
 646 034c 0B46     		mov	r3, r1
 647 034e 1B01     		lsls	r3, r3, #4
 648 0350 5B1A     		subs	r3, r3, r1
 649 0352 5B00     		lsls	r3, r3, #1
 650 0354 1344     		add	r3, r3, r2
 651 0356 0344     		add	r3, r3, r0
 652 0358 8933     		adds	r3, r3, #137
 653 035a 2246     		mov	r2, r4
 654 035c 1A70     		strb	r2, [r3]
 105:PumpCom.c     ****             side.a.ProcessedTotals[((side.a.MepsanStore[4])&0x0F)-1][TotalRequestType][7] = (side.a
 655              		.loc 1 105 0
 656 035e 104B     		ldr	r3, .L49
 657 0360 93F85530 		ldrb	r3, [r3, #85]	@ zero_extendqisi2
 658 0364 03F00F03 		and	r3, r3, #15
 659 0368 591E     		subs	r1, r3, #1
 660 036a 0E4B     		ldr	r3, .L49+4
 661 036c 1B78     		ldrb	r3, [r3]	@ zero_extendqisi2
 662 036e 1D46     		mov	r5, r3
 663 0370 0B4B     		ldr	r3, .L49
 664 0372 93F85530 		ldrb	r3, [r3, #85]	@ zero_extendqisi2
 665 0376 03F00F03 		and	r3, r3, #15
 666 037a 581E     		subs	r0, r3, #1
 667 037c 094B     		ldr	r3, .L49+4
 668 037e 1B78     		ldrb	r3, [r3]	@ zero_extendqisi2
 669 0380 074C     		ldr	r4, .L49
 670 0382 1A46     		mov	r2, r3
 671 0384 9200     		lsls	r2, r2, #2
 672 0386 1A44     		add	r2, r2, r3
 673 0388 0346     		mov	r3, r0
 674 038a 9B00     		lsls	r3, r3, #2
 675 038c 0344     		add	r3, r3, r0
 676 038e 5B00     		lsls	r3, r3, #1
 677 0390 1344     		add	r3, r3, r2
 678 0392 2344     		add	r3, r3, r4
 679 0394 0433     		adds	r3, r3, #4
 680 0396 1B78     		ldrb	r3, [r3]	@ zero_extendqisi2
 681 0398 03F00F03 		and	r3, r3, #15
 682 039c DBB2     		uxtb	r3, r3
 683 039e 03E0     		b	.L50
 684              	.L51:
ARM GAS  C:\Users\Lenovo\AppData\Local\Temp\ccP94fx0.s 			page 15


 685              		.align	2
 686              	.L49:
 687 03a0 00000000 		.word	side
 688 03a4 00000000 		.word	TotalRequestType
 689              	.L50:
 690 03a8 3033     		adds	r3, r3, #48
 691 03aa DCB2     		uxtb	r4, r3
 692 03ac B948     		ldr	r0, .L52
 693 03ae 2A46     		mov	r2, r5
 694 03b0 9200     		lsls	r2, r2, #2
 695 03b2 2A44     		add	r2, r2, r5
 696 03b4 5300     		lsls	r3, r2, #1
 697 03b6 1A46     		mov	r2, r3
 698 03b8 0B46     		mov	r3, r1
 699 03ba 1B01     		lsls	r3, r3, #4
 700 03bc 5B1A     		subs	r3, r3, r1
 701 03be 5B00     		lsls	r3, r3, #1
 702 03c0 1344     		add	r3, r3, r2
 703 03c2 0344     		add	r3, r3, r0
 704 03c4 8A33     		adds	r3, r3, #138
 705 03c6 2246     		mov	r2, r4
 706 03c8 1A70     		strb	r2, [r3]
 106:PumpCom.c     ****             side.a.ProcessedTotals[((side.a.MepsanStore[4])&0x0F)-1][TotalRequestType][8] = (side.a
 707              		.loc 1 106 0
 708 03ca B24B     		ldr	r3, .L52
 709 03cc 93F85530 		ldrb	r3, [r3, #85]	@ zero_extendqisi2
 710 03d0 03F00F03 		and	r3, r3, #15
 711 03d4 591E     		subs	r1, r3, #1
 712 03d6 B04B     		ldr	r3, .L52+4
 713 03d8 1B78     		ldrb	r3, [r3]	@ zero_extendqisi2
 714 03da 1D46     		mov	r5, r3
 715 03dc AD4B     		ldr	r3, .L52
 716 03de 93F85530 		ldrb	r3, [r3, #85]	@ zero_extendqisi2
 717 03e2 03F00F03 		and	r3, r3, #15
 718 03e6 581E     		subs	r0, r3, #1
 719 03e8 AB4B     		ldr	r3, .L52+4
 720 03ea 1B78     		ldrb	r3, [r3]	@ zero_extendqisi2
 721 03ec A94C     		ldr	r4, .L52
 722 03ee 1A46     		mov	r2, r3
 723 03f0 9200     		lsls	r2, r2, #2
 724 03f2 1A44     		add	r2, r2, r3
 725 03f4 0346     		mov	r3, r0
 726 03f6 9B00     		lsls	r3, r3, #2
 727 03f8 0344     		add	r3, r3, r0
 728 03fa 5B00     		lsls	r3, r3, #1
 729 03fc 1344     		add	r3, r3, r2
 730 03fe 2344     		add	r3, r3, r4
 731 0400 0533     		adds	r3, r3, #5
 732 0402 1B78     		ldrb	r3, [r3]	@ zero_extendqisi2
 733 0404 1B09     		lsrs	r3, r3, #4
 734 0406 DBB2     		uxtb	r3, r3
 735 0408 3033     		adds	r3, r3, #48
 736 040a DCB2     		uxtb	r4, r3
 737 040c A148     		ldr	r0, .L52
 738 040e 2A46     		mov	r2, r5
 739 0410 9200     		lsls	r2, r2, #2
 740 0412 2A44     		add	r2, r2, r5
ARM GAS  C:\Users\Lenovo\AppData\Local\Temp\ccP94fx0.s 			page 16


 741 0414 5300     		lsls	r3, r2, #1
 742 0416 1A46     		mov	r2, r3
 743 0418 0B46     		mov	r3, r1
 744 041a 1B01     		lsls	r3, r3, #4
 745 041c 5B1A     		subs	r3, r3, r1
 746 041e 5B00     		lsls	r3, r3, #1
 747 0420 1344     		add	r3, r3, r2
 748 0422 0344     		add	r3, r3, r0
 749 0424 8B33     		adds	r3, r3, #139
 750 0426 2246     		mov	r2, r4
 751 0428 1A70     		strb	r2, [r3]
 107:PumpCom.c     ****             side.a.ProcessedTotals[((side.a.MepsanStore[4])&0x0F)-1][TotalRequestType][9] = (side.a
 752              		.loc 1 107 0
 753 042a 9A4B     		ldr	r3, .L52
 754 042c 93F85530 		ldrb	r3, [r3, #85]	@ zero_extendqisi2
 755 0430 03F00F03 		and	r3, r3, #15
 756 0434 591E     		subs	r1, r3, #1
 757 0436 984B     		ldr	r3, .L52+4
 758 0438 1B78     		ldrb	r3, [r3]	@ zero_extendqisi2
 759 043a 1D46     		mov	r5, r3
 760 043c 954B     		ldr	r3, .L52
 761 043e 93F85530 		ldrb	r3, [r3, #85]	@ zero_extendqisi2
 762 0442 03F00F03 		and	r3, r3, #15
 763 0446 581E     		subs	r0, r3, #1
 764 0448 934B     		ldr	r3, .L52+4
 765 044a 1B78     		ldrb	r3, [r3]	@ zero_extendqisi2
 766 044c 914C     		ldr	r4, .L52
 767 044e 1A46     		mov	r2, r3
 768 0450 9200     		lsls	r2, r2, #2
 769 0452 1A44     		add	r2, r2, r3
 770 0454 0346     		mov	r3, r0
 771 0456 9B00     		lsls	r3, r3, #2
 772 0458 0344     		add	r3, r3, r0
 773 045a 5B00     		lsls	r3, r3, #1
 774 045c 1344     		add	r3, r3, r2
 775 045e 2344     		add	r3, r3, r4
 776 0460 0533     		adds	r3, r3, #5
 777 0462 1B78     		ldrb	r3, [r3]	@ zero_extendqisi2
 778 0464 03F00F03 		and	r3, r3, #15
 779 0468 DBB2     		uxtb	r3, r3
 780 046a 3033     		adds	r3, r3, #48
 781 046c DCB2     		uxtb	r4, r3
 782 046e 8948     		ldr	r0, .L52
 783 0470 2A46     		mov	r2, r5
 784 0472 9200     		lsls	r2, r2, #2
 785 0474 2A44     		add	r2, r2, r5
 786 0476 5300     		lsls	r3, r2, #1
 787 0478 1A46     		mov	r2, r3
 788 047a 0B46     		mov	r3, r1
 789 047c 1B01     		lsls	r3, r3, #4
 790 047e 5B1A     		subs	r3, r3, r1
 791 0480 5B00     		lsls	r3, r3, #1
 792 0482 1344     		add	r3, r3, r2
 793 0484 0344     		add	r3, r3, r0
 794 0486 8C33     		adds	r3, r3, #140
 795 0488 2246     		mov	r2, r4
 796 048a 1A70     		strb	r2, [r3]
ARM GAS  C:\Users\Lenovo\AppData\Local\Temp\ccP94fx0.s 			page 17


 108:PumpCom.c     ****             
 109:PumpCom.c     ****             Receipt = 4;
 797              		.loc 1 109 0
 798 048c 834B     		ldr	r3, .L52+8
 799 048e 0422     		movs	r2, #4
 800 0490 1A70     		strb	r2, [r3]
 110:PumpCom.c     ****             
 111:PumpCom.c     ****             EnablePin_Write (1u);
 801              		.loc 1 111 0
 802 0492 0120     		movs	r0, #1
 803 0494 FFF7FEFF 		bl	EnablePin_Write
 112:PumpCom.c     ****             UART_1_PutChar((0x50|address));
 804              		.loc 1 112 0
 805 0498 BB78     		ldrb	r3, [r7, #2]
 806 049a 43F05003 		orr	r3, r3, #80
 807 049e DBB2     		uxtb	r3, r3
 808 04a0 1846     		mov	r0, r3
 809 04a2 FFF7FEFF 		bl	UART_1_PutChar
 113:PumpCom.c     ****             UART_1_PutChar(0xC0|(side.a.MepsanStore[1]&0x0F));
 810              		.loc 1 113 0
 811 04a6 7B4B     		ldr	r3, .L52
 812 04a8 93F85230 		ldrb	r3, [r3, #82]	@ zero_extendqisi2
 813 04ac 5BB2     		sxtb	r3, r3
 814 04ae 03F00F03 		and	r3, r3, #15
 815 04b2 5BB2     		sxtb	r3, r3
 816 04b4 63F03F03 		orn	r3, r3, #63
 817 04b8 5BB2     		sxtb	r3, r3
 818 04ba DBB2     		uxtb	r3, r3
 819 04bc 1846     		mov	r0, r3
 820 04be FFF7FEFF 		bl	UART_1_PutChar
 114:PumpCom.c     ****             UART_1_PutChar(0xFA); 
 821              		.loc 1 114 0
 822 04c2 FA20     		movs	r0, #250
 823 04c4 FFF7FEFF 		bl	UART_1_PutChar
 115:PumpCom.c     ****             CyDelay(4);
 824              		.loc 1 115 0
 825 04c8 0420     		movs	r0, #4
 826 04ca FFF7FEFF 		bl	CyDelay
 116:PumpCom.c     ****             EnablePin_Write (0u);
 827              		.loc 1 116 0
 828 04ce 0020     		movs	r0, #0
 829 04d0 FFF7FEFF 		bl	EnablePin_Write
 830              	.L17:
 117:PumpCom.c     ****         }
 118:PumpCom.c     ****         if(side.a.MepsanStore[2] == 0x02){
 831              		.loc 1 118 0
 832 04d4 6F4B     		ldr	r3, .L52
 833 04d6 93F85330 		ldrb	r3, [r3, #83]	@ zero_extendqisi2
 834 04da 022B     		cmp	r3, #2
 835 04dc 40F0D080 		bne	.L14
 836              	.LBB4:
 119:PumpCom.c     ****             for(uint8 x = 4; x < 8; x++ ){
 837              		.loc 1 119 0
 838 04e0 0423     		movs	r3, #4
 839 04e2 7B73     		strb	r3, [r7, #13]
 840 04e4 1BE0     		b	.L20
 841              	.L21:
ARM GAS  C:\Users\Lenovo\AppData\Local\Temp\ccP94fx0.s 			page 18


 120:PumpCom.c     ****                 side.a.volumeSale[x-4] = side.a.MepsanStore[x];
 842              		.loc 1 120 0 discriminator 3
 843 04e6 7B7B     		ldrb	r3, [r7, #13]	@ zero_extendqisi2
 844 04e8 043B     		subs	r3, r3, #4
 845 04ea 7A7B     		ldrb	r2, [r7, #13]	@ zero_extendqisi2
 846 04ec 6949     		ldr	r1, .L52
 847 04ee 0A44     		add	r2, r2, r1
 848 04f0 92F85110 		ldrb	r1, [r2, #81]	@ zero_extendqisi2
 849 04f4 674A     		ldr	r2, .L52
 850 04f6 1344     		add	r3, r3, r2
 851 04f8 0A46     		mov	r2, r1
 852 04fa 83F83920 		strb	r2, [r3, #57]
 121:PumpCom.c     ****                 side.a.moneySale[x-4] = side.a.MepsanStore[x+4];
 853              		.loc 1 121 0 discriminator 3
 854 04fe 7B7B     		ldrb	r3, [r7, #13]	@ zero_extendqisi2
 855 0500 043B     		subs	r3, r3, #4
 856 0502 7A7B     		ldrb	r2, [r7, #13]	@ zero_extendqisi2
 857 0504 0432     		adds	r2, r2, #4
 858 0506 6349     		ldr	r1, .L52
 859 0508 0A44     		add	r2, r2, r1
 860 050a 92F85110 		ldrb	r1, [r2, #81]	@ zero_extendqisi2
 861 050e 614A     		ldr	r2, .L52
 862 0510 1344     		add	r3, r3, r2
 863 0512 0A46     		mov	r2, r1
 864 0514 83F83520 		strb	r2, [r3, #53]
 119:PumpCom.c     ****             for(uint8 x = 4; x < 8; x++ ){
 865              		.loc 1 119 0 discriminator 3
 866 0518 7B7B     		ldrb	r3, [r7, #13]	@ zero_extendqisi2
 867 051a 0133     		adds	r3, r3, #1
 868 051c 7B73     		strb	r3, [r7, #13]
 869              	.L20:
 119:PumpCom.c     ****             for(uint8 x = 4; x < 8; x++ ){
 870              		.loc 1 119 0 is_stmt 0 discriminator 1
 871 051e 7B7B     		ldrb	r3, [r7, #13]	@ zero_extendqisi2
 872 0520 072B     		cmp	r3, #7
 873 0522 E0D9     		bls	.L21
 874              	.LBE4:
 122:PumpCom.c     ****             }
 123:PumpCom.c     ****             side.a.ProcessedvolumeSale[0] = (side.a.volumeSale[0]  >> 4) + 0x30;
 875              		.loc 1 123 0 is_stmt 1
 876 0524 5B4B     		ldr	r3, .L52
 877 0526 93F83930 		ldrb	r3, [r3, #57]	@ zero_extendqisi2
 878 052a 1B09     		lsrs	r3, r3, #4
 879 052c DBB2     		uxtb	r3, r3
 880 052e 3033     		adds	r3, r3, #48
 881 0530 DAB2     		uxtb	r2, r3
 882 0532 584B     		ldr	r3, .L52
 883 0534 83F80321 		strb	r2, [r3, #259]
 124:PumpCom.c     ****             side.a.ProcessedvolumeSale[1] = (side.a.volumeSale[0]  & 0x0F) + 0x30;
 884              		.loc 1 124 0
 885 0538 564B     		ldr	r3, .L52
 886 053a 93F83930 		ldrb	r3, [r3, #57]	@ zero_extendqisi2
 887 053e 03F00F03 		and	r3, r3, #15
 888 0542 DBB2     		uxtb	r3, r3
 889 0544 3033     		adds	r3, r3, #48
 890 0546 DAB2     		uxtb	r2, r3
 891 0548 524B     		ldr	r3, .L52
ARM GAS  C:\Users\Lenovo\AppData\Local\Temp\ccP94fx0.s 			page 19


 892 054a 83F80421 		strb	r2, [r3, #260]
 125:PumpCom.c     ****             side.a.ProcessedvolumeSale[2] = (side.a.volumeSale[1]  >> 4) + 0x30;
 893              		.loc 1 125 0
 894 054e 514B     		ldr	r3, .L52
 895 0550 93F83A30 		ldrb	r3, [r3, #58]	@ zero_extendqisi2
 896 0554 1B09     		lsrs	r3, r3, #4
 897 0556 DBB2     		uxtb	r3, r3
 898 0558 3033     		adds	r3, r3, #48
 899 055a DAB2     		uxtb	r2, r3
 900 055c 4D4B     		ldr	r3, .L52
 901 055e 83F80521 		strb	r2, [r3, #261]
 126:PumpCom.c     ****             side.a.ProcessedvolumeSale[3] = (side.a.volumeSale[1]  & 0x0F) + 0x30;
 902              		.loc 1 126 0
 903 0562 4C4B     		ldr	r3, .L52
 904 0564 93F83A30 		ldrb	r3, [r3, #58]	@ zero_extendqisi2
 905 0568 03F00F03 		and	r3, r3, #15
 906 056c DBB2     		uxtb	r3, r3
 907 056e 3033     		adds	r3, r3, #48
 908 0570 DAB2     		uxtb	r2, r3
 909 0572 484B     		ldr	r3, .L52
 910 0574 83F80621 		strb	r2, [r3, #262]
 127:PumpCom.c     ****             side.a.ProcessedvolumeSale[4] = (side.a.volumeSale[2]  >> 4) + 0x30;
 911              		.loc 1 127 0
 912 0578 464B     		ldr	r3, .L52
 913 057a 93F83B30 		ldrb	r3, [r3, #59]	@ zero_extendqisi2
 914 057e 1B09     		lsrs	r3, r3, #4
 915 0580 DBB2     		uxtb	r3, r3
 916 0582 3033     		adds	r3, r3, #48
 917 0584 DAB2     		uxtb	r2, r3
 918 0586 434B     		ldr	r3, .L52
 919 0588 83F80721 		strb	r2, [r3, #263]
 128:PumpCom.c     ****             side.a.ProcessedvolumeSale[5] = (side.a.volumeSale[2]  & 0x0F) + 0x30;
 920              		.loc 1 128 0
 921 058c 414B     		ldr	r3, .L52
 922 058e 93F83B30 		ldrb	r3, [r3, #59]	@ zero_extendqisi2
 923 0592 03F00F03 		and	r3, r3, #15
 924 0596 DBB2     		uxtb	r3, r3
 925 0598 3033     		adds	r3, r3, #48
 926 059a DAB2     		uxtb	r2, r3
 927 059c 3D4B     		ldr	r3, .L52
 928 059e 83F80821 		strb	r2, [r3, #264]
 129:PumpCom.c     ****             side.a.ProcessedvolumeSale[6] = (side.a.volumeSale[3]  >> 4) + 0x30;
 929              		.loc 1 129 0
 930 05a2 3C4B     		ldr	r3, .L52
 931 05a4 93F83C30 		ldrb	r3, [r3, #60]	@ zero_extendqisi2
 932 05a8 1B09     		lsrs	r3, r3, #4
 933 05aa DBB2     		uxtb	r3, r3
 934 05ac 3033     		adds	r3, r3, #48
 935 05ae DAB2     		uxtb	r2, r3
 936 05b0 384B     		ldr	r3, .L52
 937 05b2 83F80921 		strb	r2, [r3, #265]
 130:PumpCom.c     ****             side.a.ProcessedvolumeSale[7] = (side.a.volumeSale[3]  & 0x0F) + 0x30;
 938              		.loc 1 130 0
 939 05b6 374B     		ldr	r3, .L52
 940 05b8 93F83C30 		ldrb	r3, [r3, #60]	@ zero_extendqisi2
 941 05bc 03F00F03 		and	r3, r3, #15
 942 05c0 DBB2     		uxtb	r3, r3
ARM GAS  C:\Users\Lenovo\AppData\Local\Temp\ccP94fx0.s 			page 20


 943 05c2 3033     		adds	r3, r3, #48
 944 05c4 DAB2     		uxtb	r2, r3
 945 05c6 334B     		ldr	r3, .L52
 946 05c8 83F80A21 		strb	r2, [r3, #266]
 131:PumpCom.c     ****             
 132:PumpCom.c     ****             side.a.ProcessedmoneySale[0] = (side.a.moneySale[0]  >> 4) + 0x30;
 947              		.loc 1 132 0
 948 05cc 314B     		ldr	r3, .L52
 949 05ce 93F83530 		ldrb	r3, [r3, #53]	@ zero_extendqisi2
 950 05d2 1B09     		lsrs	r3, r3, #4
 951 05d4 DBB2     		uxtb	r3, r3
 952 05d6 3033     		adds	r3, r3, #48
 953 05d8 DAB2     		uxtb	r2, r3
 954 05da 2E4B     		ldr	r3, .L52
 955 05dc 83F8FB20 		strb	r2, [r3, #251]
 133:PumpCom.c     ****             side.a.ProcessedmoneySale[1] = (side.a.moneySale[0]  & 0x0F) + 0x30;
 956              		.loc 1 133 0
 957 05e0 2C4B     		ldr	r3, .L52
 958 05e2 93F83530 		ldrb	r3, [r3, #53]	@ zero_extendqisi2
 959 05e6 03F00F03 		and	r3, r3, #15
 960 05ea DBB2     		uxtb	r3, r3
 961 05ec 3033     		adds	r3, r3, #48
 962 05ee DAB2     		uxtb	r2, r3
 963 05f0 284B     		ldr	r3, .L52
 964 05f2 83F8FC20 		strb	r2, [r3, #252]
 134:PumpCom.c     ****             side.a.ProcessedmoneySale[2] = (side.a.moneySale[1]  >> 4) + 0x30;
 965              		.loc 1 134 0
 966 05f6 274B     		ldr	r3, .L52
 967 05f8 93F83630 		ldrb	r3, [r3, #54]	@ zero_extendqisi2
 968 05fc 1B09     		lsrs	r3, r3, #4
 969 05fe DBB2     		uxtb	r3, r3
 970 0600 3033     		adds	r3, r3, #48
 971 0602 DAB2     		uxtb	r2, r3
 972 0604 234B     		ldr	r3, .L52
 973 0606 83F8FD20 		strb	r2, [r3, #253]
 135:PumpCom.c     ****             side.a.ProcessedmoneySale[3] = (side.a.moneySale[1]  & 0x0F) + 0x30;
 974              		.loc 1 135 0
 975 060a 224B     		ldr	r3, .L52
 976 060c 93F83630 		ldrb	r3, [r3, #54]	@ zero_extendqisi2
 977 0610 03F00F03 		and	r3, r3, #15
 978 0614 DBB2     		uxtb	r3, r3
 979 0616 3033     		adds	r3, r3, #48
 980 0618 DAB2     		uxtb	r2, r3
 981 061a 1E4B     		ldr	r3, .L52
 982 061c 83F8FE20 		strb	r2, [r3, #254]
 136:PumpCom.c     ****             side.a.ProcessedmoneySale[4] = (side.a.moneySale[2]  >> 4) + 0x30;
 983              		.loc 1 136 0
 984 0620 1C4B     		ldr	r3, .L52
 985 0622 93F83730 		ldrb	r3, [r3, #55]	@ zero_extendqisi2
 986 0626 1B09     		lsrs	r3, r3, #4
 987 0628 DBB2     		uxtb	r3, r3
 988 062a 3033     		adds	r3, r3, #48
 989 062c DAB2     		uxtb	r2, r3
 990 062e 194B     		ldr	r3, .L52
 991 0630 83F8FF20 		strb	r2, [r3, #255]
 137:PumpCom.c     ****             side.a.ProcessedmoneySale[5] = (side.a.moneySale[2]  & 0x0F) + 0x30;
 992              		.loc 1 137 0
ARM GAS  C:\Users\Lenovo\AppData\Local\Temp\ccP94fx0.s 			page 21


 993 0634 174B     		ldr	r3, .L52
 994 0636 93F83730 		ldrb	r3, [r3, #55]	@ zero_extendqisi2
 995 063a 03F00F03 		and	r3, r3, #15
 996 063e DBB2     		uxtb	r3, r3
 997 0640 3033     		adds	r3, r3, #48
 998 0642 DAB2     		uxtb	r2, r3
 999 0644 134B     		ldr	r3, .L52
 1000 0646 83F80021 		strb	r2, [r3, #256]
 138:PumpCom.c     ****             side.a.ProcessedmoneySale[6] = (side.a.moneySale[3]  >> 4) + 0x30;
 1001              		.loc 1 138 0
 1002 064a 124B     		ldr	r3, .L52
 1003 064c 93F83830 		ldrb	r3, [r3, #56]	@ zero_extendqisi2
 1004 0650 1B09     		lsrs	r3, r3, #4
 1005 0652 DBB2     		uxtb	r3, r3
 1006 0654 3033     		adds	r3, r3, #48
 1007 0656 DAB2     		uxtb	r2, r3
 1008 0658 0E4B     		ldr	r3, .L52
 1009 065a 83F80121 		strb	r2, [r3, #257]
 139:PumpCom.c     ****             side.a.ProcessedmoneySale[7] = (side.a.moneySale[3]  & 0x0F) + 0x30;
 1010              		.loc 1 139 0
 1011 065e 0D4B     		ldr	r3, .L52
 1012 0660 93F83830 		ldrb	r3, [r3, #56]	@ zero_extendqisi2
 1013 0664 03F00F03 		and	r3, r3, #15
 1014 0668 DBB2     		uxtb	r3, r3
 1015 066a 3033     		adds	r3, r3, #48
 1016 066c DAB2     		uxtb	r2, r3
 1017 066e 094B     		ldr	r3, .L52
 1018 0670 83F80221 		strb	r2, [r3, #258]
 140:PumpCom.c     ****             
 141:PumpCom.c     ****             Receipt = 1;
 1019              		.loc 1 141 0
 1020 0674 094B     		ldr	r3, .L52+8
 1021 0676 0122     		movs	r2, #1
 1022 0678 1A70     		strb	r2, [r3]
 142:PumpCom.c     ****             EnablePin_Write (0u);
 1023              		.loc 1 142 0
 1024 067a 0020     		movs	r0, #0
 1025 067c FFF7FEFF 		bl	EnablePin_Write
 1026              	.L14:
 143:PumpCom.c     ****         }
 144:PumpCom.c     ****     }
 145:PumpCom.c     ****     if(address == side.b.dir){
 1027              		.loc 1 145 0
 1028 0680 044B     		ldr	r3, .L52
 1029 0682 93F82331 		ldrb	r3, [r3, #291]	@ zero_extendqisi2
 1030 0686 BA78     		ldrb	r2, [r7, #2]	@ zero_extendqisi2
 1031 0688 9A42     		cmp	r2, r3
 1032 068a 40F05083 		bne	.L22
 1033              	.LBB5:
 146:PumpCom.c     ****         for(uint8 MepRx = 1; MepRx < size + 1; MepRx++){
 1034              		.loc 1 146 0
 1035 068e 0123     		movs	r3, #1
 1036 0690 3B73     		strb	r3, [r7, #12]
 1037 0692 12E0     		b	.L23
 1038              	.L53:
 1039              		.align	2
 1040              	.L52:
ARM GAS  C:\Users\Lenovo\AppData\Local\Temp\ccP94fx0.s 			page 22


 1041 0694 00000000 		.word	side
 1042 0698 00000000 		.word	TotalRequestType
 1043 069c 00000000 		.word	Receipt
 1044              	.L24:
 147:PumpCom.c     ****             side.b.MepsanStore[MepRx - 1] = MepsanResponse[MepRx];
 1045              		.loc 1 147 0 discriminator 3
 1046 06a0 3B7B     		ldrb	r3, [r7, #12]	@ zero_extendqisi2
 1047 06a2 013B     		subs	r3, r3, #1
 1048 06a4 3A7B     		ldrb	r2, [r7, #12]	@ zero_extendqisi2
 1049 06a6 0C49     		ldr	r1, .L54
 1050 06a8 895C     		ldrb	r1, [r1, r2]	@ zero_extendqisi2
 1051 06aa 0C4A     		ldr	r2, .L54+4
 1052 06ac 1344     		add	r3, r3, r2
 1053 06ae 0A46     		mov	r2, r1
 1054 06b0 83F87421 		strb	r2, [r3, #372]
 146:PumpCom.c     ****         for(uint8 MepRx = 1; MepRx < size + 1; MepRx++){
 1055              		.loc 1 146 0 discriminator 3
 1056 06b4 3B7B     		ldrb	r3, [r7, #12]	@ zero_extendqisi2
 1057 06b6 0133     		adds	r3, r3, #1
 1058 06b8 3B73     		strb	r3, [r7, #12]
 1059              	.L23:
 146:PumpCom.c     ****         for(uint8 MepRx = 1; MepRx < size + 1; MepRx++){
 1060              		.loc 1 146 0 is_stmt 0 discriminator 1
 1061 06ba 3A7B     		ldrb	r2, [r7, #12]	@ zero_extendqisi2
 1062 06bc FB78     		ldrb	r3, [r7, #3]	@ zero_extendqisi2
 1063 06be 0133     		adds	r3, r3, #1
 1064 06c0 9A42     		cmp	r2, r3
 1065 06c2 EDDB     		blt	.L24
 1066              	.LBE5:
 148:PumpCom.c     ****         }
 149:PumpCom.c     ****         if(side.b.MepsanStore[2] == 0x65){
 1067              		.loc 1 149 0 is_stmt 1
 1068 06c4 054B     		ldr	r3, .L54+4
 1069 06c6 93F87631 		ldrb	r3, [r3, #374]	@ zero_extendqisi2
 1070 06ca 652B     		cmp	r3, #101
 1071 06cc 40F05382 		bne	.L25
 1072              	.LBB6:
 150:PumpCom.c     ****             for(uint8 x = 5; x < (side.b.MepsanStore[3]-1) + 5; x++ ){
 1073              		.loc 1 150 0
 1074 06d0 0523     		movs	r3, #5
 1075 06d2 FB72     		strb	r3, [r7, #11]
 1076 06d4 26E0     		b	.L26
 1077              	.L55:
 1078 06d6 00BF     		.align	2
 1079              	.L54:
 1080 06d8 00000000 		.word	MepsanResponse
 1081 06dc 00000000 		.word	side
 1082              	.L27:
 151:PumpCom.c     ****                 side.b.totalsNozzle[((side.b.MepsanStore[4])&0x0F)-1][TotalRequestType][x-5] = side
 1083              		.loc 1 151 0 discriminator 3
 1084 06e0 CD4B     		ldr	r3, .L56
 1085 06e2 93F87831 		ldrb	r3, [r3, #376]	@ zero_extendqisi2
 1086 06e6 03F00F03 		and	r3, r3, #15
 1087 06ea 591E     		subs	r1, r3, #1
 1088 06ec CB4B     		ldr	r3, .L56+4
 1089 06ee 1B78     		ldrb	r3, [r3]	@ zero_extendqisi2
 1090 06f0 1D46     		mov	r5, r3
ARM GAS  C:\Users\Lenovo\AppData\Local\Temp\ccP94fx0.s 			page 23


 1091 06f2 FB7A     		ldrb	r3, [r7, #11]	@ zero_extendqisi2
 1092 06f4 581F     		subs	r0, r3, #5
 1093 06f6 FB7A     		ldrb	r3, [r7, #11]	@ zero_extendqisi2
 1094 06f8 C74A     		ldr	r2, .L56
 1095 06fa 1344     		add	r3, r3, r2
 1096 06fc 93F87461 		ldrb	r6, [r3, #372]	@ zero_extendqisi2
 1097 0700 C54C     		ldr	r4, .L56
 1098 0702 2A46     		mov	r2, r5
 1099 0704 9200     		lsls	r2, r2, #2
 1100 0706 2A44     		add	r2, r2, r5
 1101 0708 0B46     		mov	r3, r1
 1102 070a 9B00     		lsls	r3, r3, #2
 1103 070c 0B44     		add	r3, r3, r1
 1104 070e 5B00     		lsls	r3, r3, #1
 1105 0710 1344     		add	r3, r3, r2
 1106 0712 2344     		add	r3, r3, r4
 1107 0714 0344     		add	r3, r3, r0
 1108 0716 03F59273 		add	r3, r3, #292
 1109 071a 3246     		mov	r2, r6
 1110 071c 1A70     		strb	r2, [r3]
 150:PumpCom.c     ****             for(uint8 x = 5; x < (side.b.MepsanStore[3]-1) + 5; x++ ){
 1111              		.loc 1 150 0 discriminator 3
 1112 071e FB7A     		ldrb	r3, [r7, #11]	@ zero_extendqisi2
 1113 0720 0133     		adds	r3, r3, #1
 1114 0722 FB72     		strb	r3, [r7, #11]
 1115              	.L26:
 150:PumpCom.c     ****             for(uint8 x = 5; x < (side.b.MepsanStore[3]-1) + 5; x++ ){
 1116              		.loc 1 150 0 is_stmt 0 discriminator 1
 1117 0724 FA7A     		ldrb	r2, [r7, #11]	@ zero_extendqisi2
 1118 0726 BC4B     		ldr	r3, .L56
 1119 0728 93F87731 		ldrb	r3, [r3, #375]	@ zero_extendqisi2
 1120 072c 0433     		adds	r3, r3, #4
 1121 072e 9A42     		cmp	r2, r3
 1122 0730 D6DB     		blt	.L27
 1123              	.LBE6:
 152:PumpCom.c     ****             }
 153:PumpCom.c     ****             
 154:PumpCom.c     ****             side.b.ProcessedTotals[((side.b.MepsanStore[4])&0x0F)-1][TotalRequestType][0] = (side.b
 1124              		.loc 1 154 0 is_stmt 1
 1125 0732 B94B     		ldr	r3, .L56
 1126 0734 93F87831 		ldrb	r3, [r3, #376]	@ zero_extendqisi2
 1127 0738 03F00F03 		and	r3, r3, #15
 1128 073c 591E     		subs	r1, r3, #1
 1129 073e B74B     		ldr	r3, .L56+4
 1130 0740 1B78     		ldrb	r3, [r3]	@ zero_extendqisi2
 1131 0742 1D46     		mov	r5, r3
 1132 0744 B44B     		ldr	r3, .L56
 1133 0746 93F87831 		ldrb	r3, [r3, #376]	@ zero_extendqisi2
 1134 074a 03F00F03 		and	r3, r3, #15
 1135 074e 581E     		subs	r0, r3, #1
 1136 0750 B24B     		ldr	r3, .L56+4
 1137 0752 1B78     		ldrb	r3, [r3]	@ zero_extendqisi2
 1138 0754 B04C     		ldr	r4, .L56
 1139 0756 1A46     		mov	r2, r3
 1140 0758 9200     		lsls	r2, r2, #2
 1141 075a 1A44     		add	r2, r2, r3
 1142 075c 0346     		mov	r3, r0
ARM GAS  C:\Users\Lenovo\AppData\Local\Temp\ccP94fx0.s 			page 24


 1143 075e 9B00     		lsls	r3, r3, #2
 1144 0760 0344     		add	r3, r3, r0
 1145 0762 5B00     		lsls	r3, r3, #1
 1146 0764 1344     		add	r3, r3, r2
 1147 0766 2344     		add	r3, r3, r4
 1148 0768 03F59273 		add	r3, r3, #292
 1149 076c 1B78     		ldrb	r3, [r3]	@ zero_extendqisi2
 1150 076e 1B09     		lsrs	r3, r3, #4
 1151 0770 DBB2     		uxtb	r3, r3
 1152 0772 3033     		adds	r3, r3, #48
 1153 0774 DCB2     		uxtb	r4, r3
 1154 0776 A848     		ldr	r0, .L56
 1155 0778 2A46     		mov	r2, r5
 1156 077a 9200     		lsls	r2, r2, #2
 1157 077c 2A44     		add	r2, r2, r5
 1158 077e 5300     		lsls	r3, r2, #1
 1159 0780 1A46     		mov	r2, r3
 1160 0782 0B46     		mov	r3, r1
 1161 0784 1B01     		lsls	r3, r3, #4
 1162 0786 5B1A     		subs	r3, r3, r1
 1163 0788 5B00     		lsls	r3, r3, #1
 1164 078a 1344     		add	r3, r3, r2
 1165 078c 0344     		add	r3, r3, r0
 1166 078e 03F5D373 		add	r3, r3, #422
 1167 0792 2246     		mov	r2, r4
 1168 0794 1A70     		strb	r2, [r3]
 155:PumpCom.c     ****             side.b.ProcessedTotals[((side.b.MepsanStore[4])&0x0F)-1][TotalRequestType][1] = (side.b
 1169              		.loc 1 155 0
 1170 0796 A04B     		ldr	r3, .L56
 1171 0798 93F87831 		ldrb	r3, [r3, #376]	@ zero_extendqisi2
 1172 079c 03F00F03 		and	r3, r3, #15
 1173 07a0 591E     		subs	r1, r3, #1
 1174 07a2 9E4B     		ldr	r3, .L56+4
 1175 07a4 1B78     		ldrb	r3, [r3]	@ zero_extendqisi2
 1176 07a6 1D46     		mov	r5, r3
 1177 07a8 9B4B     		ldr	r3, .L56
 1178 07aa 93F87831 		ldrb	r3, [r3, #376]	@ zero_extendqisi2
 1179 07ae 03F00F03 		and	r3, r3, #15
 1180 07b2 581E     		subs	r0, r3, #1
 1181 07b4 994B     		ldr	r3, .L56+4
 1182 07b6 1B78     		ldrb	r3, [r3]	@ zero_extendqisi2
 1183 07b8 974C     		ldr	r4, .L56
 1184 07ba 1A46     		mov	r2, r3
 1185 07bc 9200     		lsls	r2, r2, #2
 1186 07be 1A44     		add	r2, r2, r3
 1187 07c0 0346     		mov	r3, r0
 1188 07c2 9B00     		lsls	r3, r3, #2
 1189 07c4 0344     		add	r3, r3, r0
 1190 07c6 5B00     		lsls	r3, r3, #1
 1191 07c8 1344     		add	r3, r3, r2
 1192 07ca 2344     		add	r3, r3, r4
 1193 07cc 03F59273 		add	r3, r3, #292
 1194 07d0 1B78     		ldrb	r3, [r3]	@ zero_extendqisi2
 1195 07d2 03F00F03 		and	r3, r3, #15
 1196 07d6 DBB2     		uxtb	r3, r3
 1197 07d8 3033     		adds	r3, r3, #48
 1198 07da DCB2     		uxtb	r4, r3
ARM GAS  C:\Users\Lenovo\AppData\Local\Temp\ccP94fx0.s 			page 25


 1199 07dc 8E48     		ldr	r0, .L56
 1200 07de 2A46     		mov	r2, r5
 1201 07e0 9200     		lsls	r2, r2, #2
 1202 07e2 2A44     		add	r2, r2, r5
 1203 07e4 5300     		lsls	r3, r2, #1
 1204 07e6 1A46     		mov	r2, r3
 1205 07e8 0B46     		mov	r3, r1
 1206 07ea 1B01     		lsls	r3, r3, #4
 1207 07ec 5B1A     		subs	r3, r3, r1
 1208 07ee 5B00     		lsls	r3, r3, #1
 1209 07f0 1344     		add	r3, r3, r2
 1210 07f2 0344     		add	r3, r3, r0
 1211 07f4 03F2A713 		addw	r3, r3, #423
 1212 07f8 2246     		mov	r2, r4
 1213 07fa 1A70     		strb	r2, [r3]
 156:PumpCom.c     ****             side.b.ProcessedTotals[((side.b.MepsanStore[4])&0x0F)-1][TotalRequestType][2] = (side.b
 1214              		.loc 1 156 0
 1215 07fc 864B     		ldr	r3, .L56
 1216 07fe 93F87831 		ldrb	r3, [r3, #376]	@ zero_extendqisi2
 1217 0802 03F00F03 		and	r3, r3, #15
 1218 0806 591E     		subs	r1, r3, #1
 1219 0808 844B     		ldr	r3, .L56+4
 1220 080a 1B78     		ldrb	r3, [r3]	@ zero_extendqisi2
 1221 080c 1D46     		mov	r5, r3
 1222 080e 824B     		ldr	r3, .L56
 1223 0810 93F87831 		ldrb	r3, [r3, #376]	@ zero_extendqisi2
 1224 0814 03F00F03 		and	r3, r3, #15
 1225 0818 581E     		subs	r0, r3, #1
 1226 081a 804B     		ldr	r3, .L56+4
 1227 081c 1B78     		ldrb	r3, [r3]	@ zero_extendqisi2
 1228 081e 7E4C     		ldr	r4, .L56
 1229 0820 1A46     		mov	r2, r3
 1230 0822 9200     		lsls	r2, r2, #2
 1231 0824 1A44     		add	r2, r2, r3
 1232 0826 0346     		mov	r3, r0
 1233 0828 9B00     		lsls	r3, r3, #2
 1234 082a 0344     		add	r3, r3, r0
 1235 082c 5B00     		lsls	r3, r3, #1
 1236 082e 1344     		add	r3, r3, r2
 1237 0830 2344     		add	r3, r3, r4
 1238 0832 03F22513 		addw	r3, r3, #293
 1239 0836 1B78     		ldrb	r3, [r3]	@ zero_extendqisi2
 1240 0838 1B09     		lsrs	r3, r3, #4
 1241 083a DBB2     		uxtb	r3, r3
 1242 083c 3033     		adds	r3, r3, #48
 1243 083e DCB2     		uxtb	r4, r3
 1244 0840 7548     		ldr	r0, .L56
 1245 0842 2A46     		mov	r2, r5
 1246 0844 9200     		lsls	r2, r2, #2
 1247 0846 2A44     		add	r2, r2, r5
 1248 0848 5300     		lsls	r3, r2, #1
 1249 084a 1A46     		mov	r2, r3
 1250 084c 0B46     		mov	r3, r1
 1251 084e 1B01     		lsls	r3, r3, #4
 1252 0850 5B1A     		subs	r3, r3, r1
 1253 0852 5B00     		lsls	r3, r3, #1
 1254 0854 1344     		add	r3, r3, r2
ARM GAS  C:\Users\Lenovo\AppData\Local\Temp\ccP94fx0.s 			page 26


 1255 0856 0344     		add	r3, r3, r0
 1256 0858 03F5D473 		add	r3, r3, #424
 1257 085c 2246     		mov	r2, r4
 1258 085e 1A70     		strb	r2, [r3]
 157:PumpCom.c     ****             side.b.ProcessedTotals[((side.b.MepsanStore[4])&0x0F)-1][TotalRequestType][3] = (side.b
 1259              		.loc 1 157 0
 1260 0860 6D4B     		ldr	r3, .L56
 1261 0862 93F87831 		ldrb	r3, [r3, #376]	@ zero_extendqisi2
 1262 0866 03F00F03 		and	r3, r3, #15
 1263 086a 591E     		subs	r1, r3, #1
 1264 086c 6B4B     		ldr	r3, .L56+4
 1265 086e 1B78     		ldrb	r3, [r3]	@ zero_extendqisi2
 1266 0870 1D46     		mov	r5, r3
 1267 0872 694B     		ldr	r3, .L56
 1268 0874 93F87831 		ldrb	r3, [r3, #376]	@ zero_extendqisi2
 1269 0878 03F00F03 		and	r3, r3, #15
 1270 087c 581E     		subs	r0, r3, #1
 1271 087e 674B     		ldr	r3, .L56+4
 1272 0880 1B78     		ldrb	r3, [r3]	@ zero_extendqisi2
 1273 0882 654C     		ldr	r4, .L56
 1274 0884 1A46     		mov	r2, r3
 1275 0886 9200     		lsls	r2, r2, #2
 1276 0888 1A44     		add	r2, r2, r3
 1277 088a 0346     		mov	r3, r0
 1278 088c 9B00     		lsls	r3, r3, #2
 1279 088e 0344     		add	r3, r3, r0
 1280 0890 5B00     		lsls	r3, r3, #1
 1281 0892 1344     		add	r3, r3, r2
 1282 0894 2344     		add	r3, r3, r4
 1283 0896 03F22513 		addw	r3, r3, #293
 1284 089a 1B78     		ldrb	r3, [r3]	@ zero_extendqisi2
 1285 089c 03F00F03 		and	r3, r3, #15
 1286 08a0 DBB2     		uxtb	r3, r3
 1287 08a2 3033     		adds	r3, r3, #48
 1288 08a4 DCB2     		uxtb	r4, r3
 1289 08a6 5C48     		ldr	r0, .L56
 1290 08a8 2A46     		mov	r2, r5
 1291 08aa 9200     		lsls	r2, r2, #2
 1292 08ac 2A44     		add	r2, r2, r5
 1293 08ae 5300     		lsls	r3, r2, #1
 1294 08b0 1A46     		mov	r2, r3
 1295 08b2 0B46     		mov	r3, r1
 1296 08b4 1B01     		lsls	r3, r3, #4
 1297 08b6 5B1A     		subs	r3, r3, r1
 1298 08b8 5B00     		lsls	r3, r3, #1
 1299 08ba 1344     		add	r3, r3, r2
 1300 08bc 0344     		add	r3, r3, r0
 1301 08be 03F2A913 		addw	r3, r3, #425
 1302 08c2 2246     		mov	r2, r4
 1303 08c4 1A70     		strb	r2, [r3]
 158:PumpCom.c     ****             side.b.ProcessedTotals[((side.b.MepsanStore[4])&0x0F)-1][TotalRequestType][4] = (side.b
 1304              		.loc 1 158 0
 1305 08c6 544B     		ldr	r3, .L56
 1306 08c8 93F87831 		ldrb	r3, [r3, #376]	@ zero_extendqisi2
 1307 08cc 03F00F03 		and	r3, r3, #15
 1308 08d0 591E     		subs	r1, r3, #1
 1309 08d2 524B     		ldr	r3, .L56+4
ARM GAS  C:\Users\Lenovo\AppData\Local\Temp\ccP94fx0.s 			page 27


 1310 08d4 1B78     		ldrb	r3, [r3]	@ zero_extendqisi2
 1311 08d6 1D46     		mov	r5, r3
 1312 08d8 4F4B     		ldr	r3, .L56
 1313 08da 93F87831 		ldrb	r3, [r3, #376]	@ zero_extendqisi2
 1314 08de 03F00F03 		and	r3, r3, #15
 1315 08e2 581E     		subs	r0, r3, #1
 1316 08e4 4D4B     		ldr	r3, .L56+4
 1317 08e6 1B78     		ldrb	r3, [r3]	@ zero_extendqisi2
 1318 08e8 4B4C     		ldr	r4, .L56
 1319 08ea 1A46     		mov	r2, r3
 1320 08ec 9200     		lsls	r2, r2, #2
 1321 08ee 1A44     		add	r2, r2, r3
 1322 08f0 0346     		mov	r3, r0
 1323 08f2 9B00     		lsls	r3, r3, #2
 1324 08f4 0344     		add	r3, r3, r0
 1325 08f6 5B00     		lsls	r3, r3, #1
 1326 08f8 1344     		add	r3, r3, r2
 1327 08fa 2344     		add	r3, r3, r4
 1328 08fc 03F59373 		add	r3, r3, #294
 1329 0900 1B78     		ldrb	r3, [r3]	@ zero_extendqisi2
 1330 0902 1B09     		lsrs	r3, r3, #4
 1331 0904 DBB2     		uxtb	r3, r3
 1332 0906 3033     		adds	r3, r3, #48
 1333 0908 DCB2     		uxtb	r4, r3
 1334 090a 4348     		ldr	r0, .L56
 1335 090c 2A46     		mov	r2, r5
 1336 090e 9200     		lsls	r2, r2, #2
 1337 0910 2A44     		add	r2, r2, r5
 1338 0912 5300     		lsls	r3, r2, #1
 1339 0914 1A46     		mov	r2, r3
 1340 0916 0B46     		mov	r3, r1
 1341 0918 1B01     		lsls	r3, r3, #4
 1342 091a 5B1A     		subs	r3, r3, r1
 1343 091c 5B00     		lsls	r3, r3, #1
 1344 091e 1344     		add	r3, r3, r2
 1345 0920 0344     		add	r3, r3, r0
 1346 0922 03F5D573 		add	r3, r3, #426
 1347 0926 2246     		mov	r2, r4
 1348 0928 1A70     		strb	r2, [r3]
 159:PumpCom.c     ****             side.b.ProcessedTotals[((side.b.MepsanStore[4])&0x0F)-1][TotalRequestType][5] = (side.b
 1349              		.loc 1 159 0
 1350 092a 3B4B     		ldr	r3, .L56
 1351 092c 93F87831 		ldrb	r3, [r3, #376]	@ zero_extendqisi2
 1352 0930 03F00F03 		and	r3, r3, #15
 1353 0934 591E     		subs	r1, r3, #1
 1354 0936 394B     		ldr	r3, .L56+4
 1355 0938 1B78     		ldrb	r3, [r3]	@ zero_extendqisi2
 1356 093a 1D46     		mov	r5, r3
 1357 093c 364B     		ldr	r3, .L56
 1358 093e 93F87831 		ldrb	r3, [r3, #376]	@ zero_extendqisi2
 1359 0942 03F00F03 		and	r3, r3, #15
 1360 0946 581E     		subs	r0, r3, #1
 1361 0948 344B     		ldr	r3, .L56+4
 1362 094a 1B78     		ldrb	r3, [r3]	@ zero_extendqisi2
 1363 094c 324C     		ldr	r4, .L56
 1364 094e 1A46     		mov	r2, r3
 1365 0950 9200     		lsls	r2, r2, #2
ARM GAS  C:\Users\Lenovo\AppData\Local\Temp\ccP94fx0.s 			page 28


 1366 0952 1A44     		add	r2, r2, r3
 1367 0954 0346     		mov	r3, r0
 1368 0956 9B00     		lsls	r3, r3, #2
 1369 0958 0344     		add	r3, r3, r0
 1370 095a 5B00     		lsls	r3, r3, #1
 1371 095c 1344     		add	r3, r3, r2
 1372 095e 2344     		add	r3, r3, r4
 1373 0960 03F59373 		add	r3, r3, #294
 1374 0964 1B78     		ldrb	r3, [r3]	@ zero_extendqisi2
 1375 0966 03F00F03 		and	r3, r3, #15
 1376 096a DBB2     		uxtb	r3, r3
 1377 096c 3033     		adds	r3, r3, #48
 1378 096e DCB2     		uxtb	r4, r3
 1379 0970 2948     		ldr	r0, .L56
 1380 0972 2A46     		mov	r2, r5
 1381 0974 9200     		lsls	r2, r2, #2
 1382 0976 2A44     		add	r2, r2, r5
 1383 0978 5300     		lsls	r3, r2, #1
 1384 097a 1A46     		mov	r2, r3
 1385 097c 0B46     		mov	r3, r1
 1386 097e 1B01     		lsls	r3, r3, #4
 1387 0980 5B1A     		subs	r3, r3, r1
 1388 0982 5B00     		lsls	r3, r3, #1
 1389 0984 1344     		add	r3, r3, r2
 1390 0986 0344     		add	r3, r3, r0
 1391 0988 03F2AB13 		addw	r3, r3, #427
 1392 098c 2246     		mov	r2, r4
 1393 098e 1A70     		strb	r2, [r3]
 160:PumpCom.c     ****             side.b.ProcessedTotals[((side.b.MepsanStore[4])&0x0F)-1][TotalRequestType][6] = (side.b
 1394              		.loc 1 160 0
 1395 0990 214B     		ldr	r3, .L56
 1396 0992 93F87831 		ldrb	r3, [r3, #376]	@ zero_extendqisi2
 1397 0996 03F00F03 		and	r3, r3, #15
 1398 099a 591E     		subs	r1, r3, #1
 1399 099c 1F4B     		ldr	r3, .L56+4
 1400 099e 1B78     		ldrb	r3, [r3]	@ zero_extendqisi2
 1401 09a0 1D46     		mov	r5, r3
 1402 09a2 1D4B     		ldr	r3, .L56
 1403 09a4 93F87831 		ldrb	r3, [r3, #376]	@ zero_extendqisi2
 1404 09a8 03F00F03 		and	r3, r3, #15
 1405 09ac 581E     		subs	r0, r3, #1
 1406 09ae 1B4B     		ldr	r3, .L56+4
 1407 09b0 1B78     		ldrb	r3, [r3]	@ zero_extendqisi2
 1408 09b2 194C     		ldr	r4, .L56
 1409 09b4 1A46     		mov	r2, r3
 1410 09b6 9200     		lsls	r2, r2, #2
 1411 09b8 1A44     		add	r2, r2, r3
 1412 09ba 0346     		mov	r3, r0
 1413 09bc 9B00     		lsls	r3, r3, #2
 1414 09be 0344     		add	r3, r3, r0
 1415 09c0 5B00     		lsls	r3, r3, #1
 1416 09c2 1344     		add	r3, r3, r2
 1417 09c4 2344     		add	r3, r3, r4
 1418 09c6 03F22713 		addw	r3, r3, #295
 1419 09ca 1B78     		ldrb	r3, [r3]	@ zero_extendqisi2
 1420 09cc 1B09     		lsrs	r3, r3, #4
 1421 09ce DBB2     		uxtb	r3, r3
ARM GAS  C:\Users\Lenovo\AppData\Local\Temp\ccP94fx0.s 			page 29


 1422 09d0 3033     		adds	r3, r3, #48
 1423 09d2 DCB2     		uxtb	r4, r3
 1424 09d4 1048     		ldr	r0, .L56
 1425 09d6 2A46     		mov	r2, r5
 1426 09d8 9200     		lsls	r2, r2, #2
 1427 09da 2A44     		add	r2, r2, r5
 1428 09dc 5300     		lsls	r3, r2, #1
 1429 09de 1A46     		mov	r2, r3
 1430 09e0 0B46     		mov	r3, r1
 1431 09e2 1B01     		lsls	r3, r3, #4
 1432 09e4 5B1A     		subs	r3, r3, r1
 1433 09e6 5B00     		lsls	r3, r3, #1
 1434 09e8 1344     		add	r3, r3, r2
 1435 09ea 0344     		add	r3, r3, r0
 1436 09ec 03F5D673 		add	r3, r3, #428
 1437 09f0 2246     		mov	r2, r4
 1438 09f2 1A70     		strb	r2, [r3]
 161:PumpCom.c     ****             side.b.ProcessedTotals[((side.b.MepsanStore[4])&0x0F)-1][TotalRequestType][7] = (side.b
 1439              		.loc 1 161 0
 1440 09f4 084B     		ldr	r3, .L56
 1441 09f6 93F87831 		ldrb	r3, [r3, #376]	@ zero_extendqisi2
 1442 09fa 03F00F03 		and	r3, r3, #15
 1443 09fe 591E     		subs	r1, r3, #1
 1444 0a00 064B     		ldr	r3, .L56+4
 1445 0a02 1B78     		ldrb	r3, [r3]	@ zero_extendqisi2
 1446 0a04 1D46     		mov	r5, r3
 1447 0a06 044B     		ldr	r3, .L56
 1448 0a08 93F87831 		ldrb	r3, [r3, #376]	@ zero_extendqisi2
 1449 0a0c 03F00F03 		and	r3, r3, #15
 1450 0a10 581E     		subs	r0, r3, #1
 1451 0a12 024B     		ldr	r3, .L56+4
 1452 0a14 1B78     		ldrb	r3, [r3]	@ zero_extendqisi2
 1453 0a16 03E0     		b	.L57
 1454              	.L58:
 1455              		.align	2
 1456              	.L56:
 1457 0a18 00000000 		.word	side
 1458 0a1c 00000000 		.word	TotalRequestType
 1459              	.L57:
 1460 0a20 594C     		ldr	r4, .L59
 1461 0a22 1A46     		mov	r2, r3
 1462 0a24 9200     		lsls	r2, r2, #2
 1463 0a26 1A44     		add	r2, r2, r3
 1464 0a28 0346     		mov	r3, r0
 1465 0a2a 9B00     		lsls	r3, r3, #2
 1466 0a2c 0344     		add	r3, r3, r0
 1467 0a2e 5B00     		lsls	r3, r3, #1
 1468 0a30 1344     		add	r3, r3, r2
 1469 0a32 2344     		add	r3, r3, r4
 1470 0a34 03F22713 		addw	r3, r3, #295
 1471 0a38 1B78     		ldrb	r3, [r3]	@ zero_extendqisi2
 1472 0a3a 03F00F03 		and	r3, r3, #15
 1473 0a3e DBB2     		uxtb	r3, r3
 1474 0a40 3033     		adds	r3, r3, #48
 1475 0a42 DCB2     		uxtb	r4, r3
 1476 0a44 5048     		ldr	r0, .L59
 1477 0a46 2A46     		mov	r2, r5
ARM GAS  C:\Users\Lenovo\AppData\Local\Temp\ccP94fx0.s 			page 30


 1478 0a48 9200     		lsls	r2, r2, #2
 1479 0a4a 2A44     		add	r2, r2, r5
 1480 0a4c 5300     		lsls	r3, r2, #1
 1481 0a4e 1A46     		mov	r2, r3
 1482 0a50 0B46     		mov	r3, r1
 1483 0a52 1B01     		lsls	r3, r3, #4
 1484 0a54 5B1A     		subs	r3, r3, r1
 1485 0a56 5B00     		lsls	r3, r3, #1
 1486 0a58 1344     		add	r3, r3, r2
 1487 0a5a 0344     		add	r3, r3, r0
 1488 0a5c 03F2AD13 		addw	r3, r3, #429
 1489 0a60 2246     		mov	r2, r4
 1490 0a62 1A70     		strb	r2, [r3]
 162:PumpCom.c     ****             side.b.ProcessedTotals[((side.b.MepsanStore[4])&0x0F)-1][TotalRequestType][8] = (side.b
 1491              		.loc 1 162 0
 1492 0a64 484B     		ldr	r3, .L59
 1493 0a66 93F87831 		ldrb	r3, [r3, #376]	@ zero_extendqisi2
 1494 0a6a 03F00F03 		and	r3, r3, #15
 1495 0a6e 591E     		subs	r1, r3, #1
 1496 0a70 464B     		ldr	r3, .L59+4
 1497 0a72 1B78     		ldrb	r3, [r3]	@ zero_extendqisi2
 1498 0a74 1D46     		mov	r5, r3
 1499 0a76 444B     		ldr	r3, .L59
 1500 0a78 93F87831 		ldrb	r3, [r3, #376]	@ zero_extendqisi2
 1501 0a7c 03F00F03 		and	r3, r3, #15
 1502 0a80 581E     		subs	r0, r3, #1
 1503 0a82 424B     		ldr	r3, .L59+4
 1504 0a84 1B78     		ldrb	r3, [r3]	@ zero_extendqisi2
 1505 0a86 404C     		ldr	r4, .L59
 1506 0a88 1A46     		mov	r2, r3
 1507 0a8a 9200     		lsls	r2, r2, #2
 1508 0a8c 1A44     		add	r2, r2, r3
 1509 0a8e 0346     		mov	r3, r0
 1510 0a90 9B00     		lsls	r3, r3, #2
 1511 0a92 0344     		add	r3, r3, r0
 1512 0a94 5B00     		lsls	r3, r3, #1
 1513 0a96 1344     		add	r3, r3, r2
 1514 0a98 2344     		add	r3, r3, r4
 1515 0a9a 03F59473 		add	r3, r3, #296
 1516 0a9e 1B78     		ldrb	r3, [r3]	@ zero_extendqisi2
 1517 0aa0 1B09     		lsrs	r3, r3, #4
 1518 0aa2 DBB2     		uxtb	r3, r3
 1519 0aa4 3033     		adds	r3, r3, #48
 1520 0aa6 DCB2     		uxtb	r4, r3
 1521 0aa8 3748     		ldr	r0, .L59
 1522 0aaa 2A46     		mov	r2, r5
 1523 0aac 9200     		lsls	r2, r2, #2
 1524 0aae 2A44     		add	r2, r2, r5
 1525 0ab0 5300     		lsls	r3, r2, #1
 1526 0ab2 1A46     		mov	r2, r3
 1527 0ab4 0B46     		mov	r3, r1
 1528 0ab6 1B01     		lsls	r3, r3, #4
 1529 0ab8 5B1A     		subs	r3, r3, r1
 1530 0aba 5B00     		lsls	r3, r3, #1
 1531 0abc 1344     		add	r3, r3, r2
 1532 0abe 0344     		add	r3, r3, r0
 1533 0ac0 03F5D773 		add	r3, r3, #430
ARM GAS  C:\Users\Lenovo\AppData\Local\Temp\ccP94fx0.s 			page 31


 1534 0ac4 2246     		mov	r2, r4
 1535 0ac6 1A70     		strb	r2, [r3]
 163:PumpCom.c     ****             side.b.ProcessedTotals[((side.b.MepsanStore[4])&0x0F)-1][TotalRequestType][9] = (side.b
 1536              		.loc 1 163 0
 1537 0ac8 2F4B     		ldr	r3, .L59
 1538 0aca 93F87831 		ldrb	r3, [r3, #376]	@ zero_extendqisi2
 1539 0ace 03F00F03 		and	r3, r3, #15
 1540 0ad2 591E     		subs	r1, r3, #1
 1541 0ad4 2D4B     		ldr	r3, .L59+4
 1542 0ad6 1B78     		ldrb	r3, [r3]	@ zero_extendqisi2
 1543 0ad8 1D46     		mov	r5, r3
 1544 0ada 2B4B     		ldr	r3, .L59
 1545 0adc 93F87831 		ldrb	r3, [r3, #376]	@ zero_extendqisi2
 1546 0ae0 03F00F03 		and	r3, r3, #15
 1547 0ae4 581E     		subs	r0, r3, #1
 1548 0ae6 294B     		ldr	r3, .L59+4
 1549 0ae8 1B78     		ldrb	r3, [r3]	@ zero_extendqisi2
 1550 0aea 274C     		ldr	r4, .L59
 1551 0aec 1A46     		mov	r2, r3
 1552 0aee 9200     		lsls	r2, r2, #2
 1553 0af0 1A44     		add	r2, r2, r3
 1554 0af2 0346     		mov	r3, r0
 1555 0af4 9B00     		lsls	r3, r3, #2
 1556 0af6 0344     		add	r3, r3, r0
 1557 0af8 5B00     		lsls	r3, r3, #1
 1558 0afa 1344     		add	r3, r3, r2
 1559 0afc 2344     		add	r3, r3, r4
 1560 0afe 03F59473 		add	r3, r3, #296
 1561 0b02 1B78     		ldrb	r3, [r3]	@ zero_extendqisi2
 1562 0b04 03F00F03 		and	r3, r3, #15
 1563 0b08 DBB2     		uxtb	r3, r3
 1564 0b0a 3033     		adds	r3, r3, #48
 1565 0b0c DCB2     		uxtb	r4, r3
 1566 0b0e 1E48     		ldr	r0, .L59
 1567 0b10 2A46     		mov	r2, r5
 1568 0b12 9200     		lsls	r2, r2, #2
 1569 0b14 2A44     		add	r2, r2, r5
 1570 0b16 5300     		lsls	r3, r2, #1
 1571 0b18 1A46     		mov	r2, r3
 1572 0b1a 0B46     		mov	r3, r1
 1573 0b1c 1B01     		lsls	r3, r3, #4
 1574 0b1e 5B1A     		subs	r3, r3, r1
 1575 0b20 5B00     		lsls	r3, r3, #1
 1576 0b22 1344     		add	r3, r3, r2
 1577 0b24 0344     		add	r3, r3, r0
 1578 0b26 03F2AF13 		addw	r3, r3, #431
 1579 0b2a 2246     		mov	r2, r4
 1580 0b2c 1A70     		strb	r2, [r3]
 164:PumpCom.c     ****             
 165:PumpCom.c     ****             Receipt = 5;
 1581              		.loc 1 165 0
 1582 0b2e 184B     		ldr	r3, .L59+8
 1583 0b30 0522     		movs	r2, #5
 1584 0b32 1A70     		strb	r2, [r3]
 166:PumpCom.c     ****             
 167:PumpCom.c     ****             EnablePin_Write (1u);
 1585              		.loc 1 167 0
ARM GAS  C:\Users\Lenovo\AppData\Local\Temp\ccP94fx0.s 			page 32


 1586 0b34 0120     		movs	r0, #1
 1587 0b36 FFF7FEFF 		bl	EnablePin_Write
 168:PumpCom.c     ****             UART_1_PutChar((0x50|address));
 1588              		.loc 1 168 0
 1589 0b3a BB78     		ldrb	r3, [r7, #2]
 1590 0b3c 43F05003 		orr	r3, r3, #80
 1591 0b40 DBB2     		uxtb	r3, r3
 1592 0b42 1846     		mov	r0, r3
 1593 0b44 FFF7FEFF 		bl	UART_1_PutChar
 169:PumpCom.c     ****             UART_1_PutChar(0xC0|(side.b.MepsanStore[1]&0x0F));
 1594              		.loc 1 169 0
 1595 0b48 0F4B     		ldr	r3, .L59
 1596 0b4a 93F87531 		ldrb	r3, [r3, #373]	@ zero_extendqisi2
 1597 0b4e 5BB2     		sxtb	r3, r3
 1598 0b50 03F00F03 		and	r3, r3, #15
 1599 0b54 5BB2     		sxtb	r3, r3
 1600 0b56 63F03F03 		orn	r3, r3, #63
 1601 0b5a 5BB2     		sxtb	r3, r3
 1602 0b5c DBB2     		uxtb	r3, r3
 1603 0b5e 1846     		mov	r0, r3
 1604 0b60 FFF7FEFF 		bl	UART_1_PutChar
 170:PumpCom.c     ****             UART_1_PutChar(0xFA); 
 1605              		.loc 1 170 0
 1606 0b64 FA20     		movs	r0, #250
 1607 0b66 FFF7FEFF 		bl	UART_1_PutChar
 171:PumpCom.c     ****             CyDelay(4);
 1608              		.loc 1 171 0
 1609 0b6a 0420     		movs	r0, #4
 1610 0b6c FFF7FEFF 		bl	CyDelay
 172:PumpCom.c     ****             EnablePin_Write (0u);
 1611              		.loc 1 172 0
 1612 0b70 0020     		movs	r0, #0
 1613 0b72 FFF7FEFF 		bl	EnablePin_Write
 1614              	.L25:
 173:PumpCom.c     ****         }
 174:PumpCom.c     ****         if(side.b.MepsanStore[2] == 0x02){
 1615              		.loc 1 174 0
 1616 0b76 044B     		ldr	r3, .L59
 1617 0b78 93F87631 		ldrb	r3, [r3, #374]	@ zero_extendqisi2
 1618 0b7c 022B     		cmp	r3, #2
 1619 0b7e 40F0D680 		bne	.L22
 1620              	.LBB7:
 175:PumpCom.c     ****             for(uint8 x = 4; x < 8; x++ ){
 1621              		.loc 1 175 0
 1622 0b82 0423     		movs	r3, #4
 1623 0b84 BB72     		strb	r3, [r7, #10]
 1624 0b86 21E0     		b	.L28
 1625              	.L60:
 1626              		.align	2
 1627              	.L59:
 1628 0b88 00000000 		.word	side
 1629 0b8c 00000000 		.word	TotalRequestType
 1630 0b90 00000000 		.word	Receipt
 1631              	.L29:
 176:PumpCom.c     ****                 side.b.volumeSale[x-4] = side.b.MepsanStore[x];
 1632              		.loc 1 176 0 discriminator 3
 1633 0b94 BB7A     		ldrb	r3, [r7, #10]	@ zero_extendqisi2
ARM GAS  C:\Users\Lenovo\AppData\Local\Temp\ccP94fx0.s 			page 33


 1634 0b96 043B     		subs	r3, r3, #4
 1635 0b98 BA7A     		ldrb	r2, [r7, #10]	@ zero_extendqisi2
 1636 0b9a 7749     		ldr	r1, .L61
 1637 0b9c 0A44     		add	r2, r2, r1
 1638 0b9e 92F87411 		ldrb	r1, [r2, #372]	@ zero_extendqisi2
 1639 0ba2 754A     		ldr	r2, .L61
 1640 0ba4 1344     		add	r3, r3, r2
 1641 0ba6 0A46     		mov	r2, r1
 1642 0ba8 83F85C21 		strb	r2, [r3, #348]
 177:PumpCom.c     ****                 side.b.moneySale[x-4] = side.b.MepsanStore[x+4];
 1643              		.loc 1 177 0 discriminator 3
 1644 0bac BB7A     		ldrb	r3, [r7, #10]	@ zero_extendqisi2
 1645 0bae 043B     		subs	r3, r3, #4
 1646 0bb0 BA7A     		ldrb	r2, [r7, #10]	@ zero_extendqisi2
 1647 0bb2 0432     		adds	r2, r2, #4
 1648 0bb4 7049     		ldr	r1, .L61
 1649 0bb6 0A44     		add	r2, r2, r1
 1650 0bb8 92F87411 		ldrb	r1, [r2, #372]	@ zero_extendqisi2
 1651 0bbc 6E4A     		ldr	r2, .L61
 1652 0bbe 1344     		add	r3, r3, r2
 1653 0bc0 0A46     		mov	r2, r1
 1654 0bc2 83F85821 		strb	r2, [r3, #344]
 175:PumpCom.c     ****             for(uint8 x = 4; x < 8; x++ ){
 1655              		.loc 1 175 0 discriminator 3
 1656 0bc6 BB7A     		ldrb	r3, [r7, #10]	@ zero_extendqisi2
 1657 0bc8 0133     		adds	r3, r3, #1
 1658 0bca BB72     		strb	r3, [r7, #10]
 1659              	.L28:
 175:PumpCom.c     ****             for(uint8 x = 4; x < 8; x++ ){
 1660              		.loc 1 175 0 is_stmt 0 discriminator 1
 1661 0bcc BB7A     		ldrb	r3, [r7, #10]	@ zero_extendqisi2
 1662 0bce 072B     		cmp	r3, #7
 1663 0bd0 E0D9     		bls	.L29
 1664              	.LBE7:
 178:PumpCom.c     ****             }
 179:PumpCom.c     ****             side.b.ProcessedvolumeSale[0] = (side.b.volumeSale[0]  >> 4) + 0x30;
 1665              		.loc 1 179 0 is_stmt 1
 1666 0bd2 694B     		ldr	r3, .L61
 1667 0bd4 93F85C31 		ldrb	r3, [r3, #348]	@ zero_extendqisi2
 1668 0bd8 1B09     		lsrs	r3, r3, #4
 1669 0bda DBB2     		uxtb	r3, r3
 1670 0bdc 3033     		adds	r3, r3, #48
 1671 0bde DAB2     		uxtb	r2, r3
 1672 0be0 654B     		ldr	r3, .L61
 1673 0be2 83F82622 		strb	r2, [r3, #550]
 180:PumpCom.c     ****             side.b.ProcessedvolumeSale[1] = (side.b.volumeSale[0]  & 0x0F) + 0x30;
 1674              		.loc 1 180 0
 1675 0be6 644B     		ldr	r3, .L61
 1676 0be8 93F85C31 		ldrb	r3, [r3, #348]	@ zero_extendqisi2
 1677 0bec 03F00F03 		and	r3, r3, #15
 1678 0bf0 DBB2     		uxtb	r3, r3
 1679 0bf2 3033     		adds	r3, r3, #48
 1680 0bf4 DAB2     		uxtb	r2, r3
 1681 0bf6 604B     		ldr	r3, .L61
 1682 0bf8 83F82722 		strb	r2, [r3, #551]
 181:PumpCom.c     ****             side.b.ProcessedvolumeSale[2] = (side.b.volumeSale[1]  >> 4) + 0x30;
 1683              		.loc 1 181 0
ARM GAS  C:\Users\Lenovo\AppData\Local\Temp\ccP94fx0.s 			page 34


 1684 0bfc 5E4B     		ldr	r3, .L61
 1685 0bfe 93F85D31 		ldrb	r3, [r3, #349]	@ zero_extendqisi2
 1686 0c02 1B09     		lsrs	r3, r3, #4
 1687 0c04 DBB2     		uxtb	r3, r3
 1688 0c06 3033     		adds	r3, r3, #48
 1689 0c08 DAB2     		uxtb	r2, r3
 1690 0c0a 5B4B     		ldr	r3, .L61
 1691 0c0c 83F82822 		strb	r2, [r3, #552]
 182:PumpCom.c     ****             side.b.ProcessedvolumeSale[3] = (side.b.volumeSale[1]  & 0x0F) + 0x30;
 1692              		.loc 1 182 0
 1693 0c10 594B     		ldr	r3, .L61
 1694 0c12 93F85D31 		ldrb	r3, [r3, #349]	@ zero_extendqisi2
 1695 0c16 03F00F03 		and	r3, r3, #15
 1696 0c1a DBB2     		uxtb	r3, r3
 1697 0c1c 3033     		adds	r3, r3, #48
 1698 0c1e DAB2     		uxtb	r2, r3
 1699 0c20 554B     		ldr	r3, .L61
 1700 0c22 83F82922 		strb	r2, [r3, #553]
 183:PumpCom.c     ****             side.b.ProcessedvolumeSale[4] = (side.b.volumeSale[2]  >> 4) + 0x30;
 1701              		.loc 1 183 0
 1702 0c26 544B     		ldr	r3, .L61
 1703 0c28 93F85E31 		ldrb	r3, [r3, #350]	@ zero_extendqisi2
 1704 0c2c 1B09     		lsrs	r3, r3, #4
 1705 0c2e DBB2     		uxtb	r3, r3
 1706 0c30 3033     		adds	r3, r3, #48
 1707 0c32 DAB2     		uxtb	r2, r3
 1708 0c34 504B     		ldr	r3, .L61
 1709 0c36 83F82A22 		strb	r2, [r3, #554]
 184:PumpCom.c     ****             side.b.ProcessedvolumeSale[5] = (side.b.volumeSale[2]  & 0x0F) + 0x30;
 1710              		.loc 1 184 0
 1711 0c3a 4F4B     		ldr	r3, .L61
 1712 0c3c 93F85E31 		ldrb	r3, [r3, #350]	@ zero_extendqisi2
 1713 0c40 03F00F03 		and	r3, r3, #15
 1714 0c44 DBB2     		uxtb	r3, r3
 1715 0c46 3033     		adds	r3, r3, #48
 1716 0c48 DAB2     		uxtb	r2, r3
 1717 0c4a 4B4B     		ldr	r3, .L61
 1718 0c4c 83F82B22 		strb	r2, [r3, #555]
 185:PumpCom.c     ****             side.b.ProcessedvolumeSale[6] = (side.b.volumeSale[3]  >> 4) + 0x30;
 1719              		.loc 1 185 0
 1720 0c50 494B     		ldr	r3, .L61
 1721 0c52 93F85F31 		ldrb	r3, [r3, #351]	@ zero_extendqisi2
 1722 0c56 1B09     		lsrs	r3, r3, #4
 1723 0c58 DBB2     		uxtb	r3, r3
 1724 0c5a 3033     		adds	r3, r3, #48
 1725 0c5c DAB2     		uxtb	r2, r3
 1726 0c5e 464B     		ldr	r3, .L61
 1727 0c60 83F82C22 		strb	r2, [r3, #556]
 186:PumpCom.c     ****             side.b.ProcessedvolumeSale[7] = (side.b.volumeSale[3]  & 0x0F) + 0x30;
 1728              		.loc 1 186 0
 1729 0c64 444B     		ldr	r3, .L61
 1730 0c66 93F85F31 		ldrb	r3, [r3, #351]	@ zero_extendqisi2
 1731 0c6a 03F00F03 		and	r3, r3, #15
 1732 0c6e DBB2     		uxtb	r3, r3
 1733 0c70 3033     		adds	r3, r3, #48
 1734 0c72 DAB2     		uxtb	r2, r3
 1735 0c74 404B     		ldr	r3, .L61
ARM GAS  C:\Users\Lenovo\AppData\Local\Temp\ccP94fx0.s 			page 35


 1736 0c76 83F82D22 		strb	r2, [r3, #557]
 187:PumpCom.c     ****             
 188:PumpCom.c     ****             side.b.ProcessedmoneySale[0] = (side.b.moneySale[0]  >> 4) + 0x30;
 1737              		.loc 1 188 0
 1738 0c7a 3F4B     		ldr	r3, .L61
 1739 0c7c 93F85831 		ldrb	r3, [r3, #344]	@ zero_extendqisi2
 1740 0c80 1B09     		lsrs	r3, r3, #4
 1741 0c82 DBB2     		uxtb	r3, r3
 1742 0c84 3033     		adds	r3, r3, #48
 1743 0c86 DAB2     		uxtb	r2, r3
 1744 0c88 3B4B     		ldr	r3, .L61
 1745 0c8a 83F81E22 		strb	r2, [r3, #542]
 189:PumpCom.c     ****             side.b.ProcessedmoneySale[1] = (side.b.moneySale[0]  & 0x0F) + 0x30;
 1746              		.loc 1 189 0
 1747 0c8e 3A4B     		ldr	r3, .L61
 1748 0c90 93F85831 		ldrb	r3, [r3, #344]	@ zero_extendqisi2
 1749 0c94 03F00F03 		and	r3, r3, #15
 1750 0c98 DBB2     		uxtb	r3, r3
 1751 0c9a 3033     		adds	r3, r3, #48
 1752 0c9c DAB2     		uxtb	r2, r3
 1753 0c9e 364B     		ldr	r3, .L61
 1754 0ca0 83F81F22 		strb	r2, [r3, #543]
 190:PumpCom.c     ****             side.b.ProcessedmoneySale[2] = (side.b.moneySale[1]  >> 4) + 0x30;
 1755              		.loc 1 190 0
 1756 0ca4 344B     		ldr	r3, .L61
 1757 0ca6 93F85931 		ldrb	r3, [r3, #345]	@ zero_extendqisi2
 1758 0caa 1B09     		lsrs	r3, r3, #4
 1759 0cac DBB2     		uxtb	r3, r3
 1760 0cae 3033     		adds	r3, r3, #48
 1761 0cb0 DAB2     		uxtb	r2, r3
 1762 0cb2 314B     		ldr	r3, .L61
 1763 0cb4 83F82022 		strb	r2, [r3, #544]
 191:PumpCom.c     ****             side.b.ProcessedmoneySale[3] = (side.b.moneySale[1]  & 0x0F) + 0x30;
 1764              		.loc 1 191 0
 1765 0cb8 2F4B     		ldr	r3, .L61
 1766 0cba 93F85931 		ldrb	r3, [r3, #345]	@ zero_extendqisi2
 1767 0cbe 03F00F03 		and	r3, r3, #15
 1768 0cc2 DBB2     		uxtb	r3, r3
 1769 0cc4 3033     		adds	r3, r3, #48
 1770 0cc6 DAB2     		uxtb	r2, r3
 1771 0cc8 2B4B     		ldr	r3, .L61
 1772 0cca 83F82122 		strb	r2, [r3, #545]
 192:PumpCom.c     ****             side.b.ProcessedmoneySale[4] = (side.b.moneySale[2]  >> 4) + 0x30;
 1773              		.loc 1 192 0
 1774 0cce 2A4B     		ldr	r3, .L61
 1775 0cd0 93F85A31 		ldrb	r3, [r3, #346]	@ zero_extendqisi2
 1776 0cd4 1B09     		lsrs	r3, r3, #4
 1777 0cd6 DBB2     		uxtb	r3, r3
 1778 0cd8 3033     		adds	r3, r3, #48
 1779 0cda DAB2     		uxtb	r2, r3
 1780 0cdc 264B     		ldr	r3, .L61
 1781 0cde 83F82222 		strb	r2, [r3, #546]
 193:PumpCom.c     ****             side.b.ProcessedmoneySale[5] = (side.b.moneySale[2]  & 0x0F) + 0x30;
 1782              		.loc 1 193 0
 1783 0ce2 254B     		ldr	r3, .L61
 1784 0ce4 93F85A31 		ldrb	r3, [r3, #346]	@ zero_extendqisi2
 1785 0ce8 03F00F03 		and	r3, r3, #15
ARM GAS  C:\Users\Lenovo\AppData\Local\Temp\ccP94fx0.s 			page 36


 1786 0cec DBB2     		uxtb	r3, r3
 1787 0cee 3033     		adds	r3, r3, #48
 1788 0cf0 DAB2     		uxtb	r2, r3
 1789 0cf2 214B     		ldr	r3, .L61
 1790 0cf4 83F82322 		strb	r2, [r3, #547]
 194:PumpCom.c     ****             side.b.ProcessedmoneySale[6] = (side.b.moneySale[3]  >> 4) + 0x30;
 1791              		.loc 1 194 0
 1792 0cf8 1F4B     		ldr	r3, .L61
 1793 0cfa 93F85B31 		ldrb	r3, [r3, #347]	@ zero_extendqisi2
 1794 0cfe 1B09     		lsrs	r3, r3, #4
 1795 0d00 DBB2     		uxtb	r3, r3
 1796 0d02 3033     		adds	r3, r3, #48
 1797 0d04 DAB2     		uxtb	r2, r3
 1798 0d06 1C4B     		ldr	r3, .L61
 1799 0d08 83F82422 		strb	r2, [r3, #548]
 195:PumpCom.c     ****             side.b.ProcessedmoneySale[7] = (side.b.moneySale[3]  & 0x0F) + 0x30;
 1800              		.loc 1 195 0
 1801 0d0c 1A4B     		ldr	r3, .L61
 1802 0d0e 93F85B31 		ldrb	r3, [r3, #347]	@ zero_extendqisi2
 1803 0d12 03F00F03 		and	r3, r3, #15
 1804 0d16 DBB2     		uxtb	r3, r3
 1805 0d18 3033     		adds	r3, r3, #48
 1806 0d1a DAB2     		uxtb	r2, r3
 1807 0d1c 164B     		ldr	r3, .L61
 1808 0d1e 83F82522 		strb	r2, [r3, #549]
 196:PumpCom.c     ****             
 197:PumpCom.c     ****             Receipt = 2;
 1809              		.loc 1 197 0
 1810 0d22 164B     		ldr	r3, .L61+4
 1811 0d24 0222     		movs	r2, #2
 1812 0d26 1A70     		strb	r2, [r3]
 198:PumpCom.c     ****             EnablePin_Write (0u);
 1813              		.loc 1 198 0
 1814 0d28 0020     		movs	r0, #0
 1815 0d2a FFF7FEFF 		bl	EnablePin_Write
 1816              	.L22:
 199:PumpCom.c     ****         }
 200:PumpCom.c     ****     }
 201:PumpCom.c     ****     if(address == side.c.dir){
 1817              		.loc 1 201 0
 1818 0d2e 124B     		ldr	r3, .L61
 1819 0d30 93F84632 		ldrb	r3, [r3, #582]	@ zero_extendqisi2
 1820 0d34 BA78     		ldrb	r2, [r7, #2]	@ zero_extendqisi2
 1821 0d36 9A42     		cmp	r2, r3
 1822 0d38 40F04283 		bne	.L30
 1823              	.LBB8:
 202:PumpCom.c     ****         for(uint8 MepRx = 1; MepRx < size + 1; MepRx++){
 1824              		.loc 1 202 0
 1825 0d3c 0123     		movs	r3, #1
 1826 0d3e 7B72     		strb	r3, [r7, #9]
 1827 0d40 0CE0     		b	.L31
 1828              	.L32:
 203:PumpCom.c     ****             side.c.MepsanStore[MepRx - 1] = MepsanResponse[MepRx];
 1829              		.loc 1 203 0 discriminator 3
 1830 0d42 7B7A     		ldrb	r3, [r7, #9]	@ zero_extendqisi2
 1831 0d44 013B     		subs	r3, r3, #1
 1832 0d46 7A7A     		ldrb	r2, [r7, #9]	@ zero_extendqisi2
ARM GAS  C:\Users\Lenovo\AppData\Local\Temp\ccP94fx0.s 			page 37


 1833 0d48 0D49     		ldr	r1, .L61+8
 1834 0d4a 895C     		ldrb	r1, [r1, r2]	@ zero_extendqisi2
 1835 0d4c 0A4A     		ldr	r2, .L61
 1836 0d4e 1344     		add	r3, r3, r2
 1837 0d50 0A46     		mov	r2, r1
 1838 0d52 83F89722 		strb	r2, [r3, #663]
 202:PumpCom.c     ****         for(uint8 MepRx = 1; MepRx < size + 1; MepRx++){
 1839              		.loc 1 202 0 discriminator 3
 1840 0d56 7B7A     		ldrb	r3, [r7, #9]	@ zero_extendqisi2
 1841 0d58 0133     		adds	r3, r3, #1
 1842 0d5a 7B72     		strb	r3, [r7, #9]
 1843              	.L31:
 202:PumpCom.c     ****         for(uint8 MepRx = 1; MepRx < size + 1; MepRx++){
 1844              		.loc 1 202 0 is_stmt 0 discriminator 1
 1845 0d5c 7A7A     		ldrb	r2, [r7, #9]	@ zero_extendqisi2
 1846 0d5e FB78     		ldrb	r3, [r7, #3]	@ zero_extendqisi2
 1847 0d60 0133     		adds	r3, r3, #1
 1848 0d62 9A42     		cmp	r2, r3
 1849 0d64 EDDB     		blt	.L32
 1850              	.LBE8:
 204:PumpCom.c     ****         }
 205:PumpCom.c     ****         if(side.c.MepsanStore[2] == 0x65){
 1851              		.loc 1 205 0 is_stmt 1
 1852 0d66 044B     		ldr	r3, .L61
 1853 0d68 93F89932 		ldrb	r3, [r3, #665]	@ zero_extendqisi2
 1854 0d6c 652B     		cmp	r3, #101
 1855 0d6e 40F05182 		bne	.L33
 1856              	.LBB9:
 206:PumpCom.c     ****             for(uint8 x = 5; x < (side.c.MepsanStore[3]-1) + 5; x++ ){
 1857              		.loc 1 206 0
 1858 0d72 0523     		movs	r3, #5
 1859 0d74 3B72     		strb	r3, [r7, #8]
 1860 0d76 27E0     		b	.L34
 1861              	.L62:
 1862              		.align	2
 1863              	.L61:
 1864 0d78 00000000 		.word	side
 1865 0d7c 00000000 		.word	Receipt
 1866 0d80 00000000 		.word	MepsanResponse
 1867              	.L35:
 207:PumpCom.c     ****                 side.c.totalsNozzle[((side.c.MepsanStore[4])&0x0F)-1][TotalRequestType][x-5] = side
 1868              		.loc 1 207 0 discriminator 3
 1869 0d84 CD4B     		ldr	r3, .L63
 1870 0d86 93F89B32 		ldrb	r3, [r3, #667]	@ zero_extendqisi2
 1871 0d8a 03F00F03 		and	r3, r3, #15
 1872 0d8e 591E     		subs	r1, r3, #1
 1873 0d90 CB4B     		ldr	r3, .L63+4
 1874 0d92 1B78     		ldrb	r3, [r3]	@ zero_extendqisi2
 1875 0d94 1D46     		mov	r5, r3
 1876 0d96 3B7A     		ldrb	r3, [r7, #8]	@ zero_extendqisi2
 1877 0d98 581F     		subs	r0, r3, #5
 1878 0d9a 3B7A     		ldrb	r3, [r7, #8]	@ zero_extendqisi2
 1879 0d9c C74A     		ldr	r2, .L63
 1880 0d9e 1344     		add	r3, r3, r2
 1881 0da0 93F89762 		ldrb	r6, [r3, #663]	@ zero_extendqisi2
 1882 0da4 C54C     		ldr	r4, .L63
 1883 0da6 2A46     		mov	r2, r5
ARM GAS  C:\Users\Lenovo\AppData\Local\Temp\ccP94fx0.s 			page 38


 1884 0da8 9200     		lsls	r2, r2, #2
 1885 0daa 2A44     		add	r2, r2, r5
 1886 0dac 0B46     		mov	r3, r1
 1887 0dae 9B00     		lsls	r3, r3, #2
 1888 0db0 0B44     		add	r3, r3, r1
 1889 0db2 5B00     		lsls	r3, r3, #1
 1890 0db4 1344     		add	r3, r3, r2
 1891 0db6 2344     		add	r3, r3, r4
 1892 0db8 0344     		add	r3, r3, r0
 1893 0dba 03F24723 		addw	r3, r3, #583
 1894 0dbe 3246     		mov	r2, r6
 1895 0dc0 1A70     		strb	r2, [r3]
 206:PumpCom.c     ****             for(uint8 x = 5; x < (side.c.MepsanStore[3]-1) + 5; x++ ){
 1896              		.loc 1 206 0 discriminator 3
 1897 0dc2 3B7A     		ldrb	r3, [r7, #8]	@ zero_extendqisi2
 1898 0dc4 0133     		adds	r3, r3, #1
 1899 0dc6 3B72     		strb	r3, [r7, #8]
 1900              	.L34:
 206:PumpCom.c     ****             for(uint8 x = 5; x < (side.c.MepsanStore[3]-1) + 5; x++ ){
 1901              		.loc 1 206 0 is_stmt 0 discriminator 1
 1902 0dc8 3A7A     		ldrb	r2, [r7, #8]	@ zero_extendqisi2
 1903 0dca BC4B     		ldr	r3, .L63
 1904 0dcc 93F89A32 		ldrb	r3, [r3, #666]	@ zero_extendqisi2
 1905 0dd0 0433     		adds	r3, r3, #4
 1906 0dd2 9A42     		cmp	r2, r3
 1907 0dd4 D6DB     		blt	.L35
 1908              	.LBE9:
 208:PumpCom.c     ****             }
 209:PumpCom.c     ****             
 210:PumpCom.c     ****             side.c.ProcessedTotals[((side.c.MepsanStore[4])&0x0F)-1][TotalRequestType][0] = (side.c
 1909              		.loc 1 210 0 is_stmt 1
 1910 0dd6 B94B     		ldr	r3, .L63
 1911 0dd8 93F89B32 		ldrb	r3, [r3, #667]	@ zero_extendqisi2
 1912 0ddc 03F00F03 		and	r3, r3, #15
 1913 0de0 591E     		subs	r1, r3, #1
 1914 0de2 B74B     		ldr	r3, .L63+4
 1915 0de4 1B78     		ldrb	r3, [r3]	@ zero_extendqisi2
 1916 0de6 1D46     		mov	r5, r3
 1917 0de8 B44B     		ldr	r3, .L63
 1918 0dea 93F89B32 		ldrb	r3, [r3, #667]	@ zero_extendqisi2
 1919 0dee 03F00F03 		and	r3, r3, #15
 1920 0df2 581E     		subs	r0, r3, #1
 1921 0df4 B24B     		ldr	r3, .L63+4
 1922 0df6 1B78     		ldrb	r3, [r3]	@ zero_extendqisi2
 1923 0df8 B04C     		ldr	r4, .L63
 1924 0dfa 1A46     		mov	r2, r3
 1925 0dfc 9200     		lsls	r2, r2, #2
 1926 0dfe 1A44     		add	r2, r2, r3
 1927 0e00 0346     		mov	r3, r0
 1928 0e02 9B00     		lsls	r3, r3, #2
 1929 0e04 0344     		add	r3, r3, r0
 1930 0e06 5B00     		lsls	r3, r3, #1
 1931 0e08 1344     		add	r3, r3, r2
 1932 0e0a 2344     		add	r3, r3, r4
 1933 0e0c 03F24723 		addw	r3, r3, #583
 1934 0e10 1B78     		ldrb	r3, [r3]	@ zero_extendqisi2
 1935 0e12 1B09     		lsrs	r3, r3, #4
ARM GAS  C:\Users\Lenovo\AppData\Local\Temp\ccP94fx0.s 			page 39


 1936 0e14 DBB2     		uxtb	r3, r3
 1937 0e16 3033     		adds	r3, r3, #48
 1938 0e18 DCB2     		uxtb	r4, r3
 1939 0e1a A848     		ldr	r0, .L63
 1940 0e1c 2A46     		mov	r2, r5
 1941 0e1e 9200     		lsls	r2, r2, #2
 1942 0e20 2A44     		add	r2, r2, r5
 1943 0e22 5300     		lsls	r3, r2, #1
 1944 0e24 1A46     		mov	r2, r3
 1945 0e26 0B46     		mov	r3, r1
 1946 0e28 1B01     		lsls	r3, r3, #4
 1947 0e2a 5B1A     		subs	r3, r3, r1
 1948 0e2c 5B00     		lsls	r3, r3, #1
 1949 0e2e 1344     		add	r3, r3, r2
 1950 0e30 0344     		add	r3, r3, r0
 1951 0e32 03F2C923 		addw	r3, r3, #713
 1952 0e36 2246     		mov	r2, r4
 1953 0e38 1A70     		strb	r2, [r3]
 211:PumpCom.c     ****             side.c.ProcessedTotals[((side.c.MepsanStore[4])&0x0F)-1][TotalRequestType][1] = (side.c
 1954              		.loc 1 211 0
 1955 0e3a A04B     		ldr	r3, .L63
 1956 0e3c 93F89B32 		ldrb	r3, [r3, #667]	@ zero_extendqisi2
 1957 0e40 03F00F03 		and	r3, r3, #15
 1958 0e44 591E     		subs	r1, r3, #1
 1959 0e46 9E4B     		ldr	r3, .L63+4
 1960 0e48 1B78     		ldrb	r3, [r3]	@ zero_extendqisi2
 1961 0e4a 1D46     		mov	r5, r3
 1962 0e4c 9B4B     		ldr	r3, .L63
 1963 0e4e 93F89B32 		ldrb	r3, [r3, #667]	@ zero_extendqisi2
 1964 0e52 03F00F03 		and	r3, r3, #15
 1965 0e56 581E     		subs	r0, r3, #1
 1966 0e58 994B     		ldr	r3, .L63+4
 1967 0e5a 1B78     		ldrb	r3, [r3]	@ zero_extendqisi2
 1968 0e5c 974C     		ldr	r4, .L63
 1969 0e5e 1A46     		mov	r2, r3
 1970 0e60 9200     		lsls	r2, r2, #2
 1971 0e62 1A44     		add	r2, r2, r3
 1972 0e64 0346     		mov	r3, r0
 1973 0e66 9B00     		lsls	r3, r3, #2
 1974 0e68 0344     		add	r3, r3, r0
 1975 0e6a 5B00     		lsls	r3, r3, #1
 1976 0e6c 1344     		add	r3, r3, r2
 1977 0e6e 2344     		add	r3, r3, r4
 1978 0e70 03F24723 		addw	r3, r3, #583
 1979 0e74 1B78     		ldrb	r3, [r3]	@ zero_extendqisi2
 1980 0e76 03F00F03 		and	r3, r3, #15
 1981 0e7a DBB2     		uxtb	r3, r3
 1982 0e7c 3033     		adds	r3, r3, #48
 1983 0e7e DCB2     		uxtb	r4, r3
 1984 0e80 8E48     		ldr	r0, .L63
 1985 0e82 2A46     		mov	r2, r5
 1986 0e84 9200     		lsls	r2, r2, #2
 1987 0e86 2A44     		add	r2, r2, r5
 1988 0e88 5300     		lsls	r3, r2, #1
 1989 0e8a 1A46     		mov	r2, r3
 1990 0e8c 0B46     		mov	r3, r1
 1991 0e8e 1B01     		lsls	r3, r3, #4
ARM GAS  C:\Users\Lenovo\AppData\Local\Temp\ccP94fx0.s 			page 40


 1992 0e90 5B1A     		subs	r3, r3, r1
 1993 0e92 5B00     		lsls	r3, r3, #1
 1994 0e94 1344     		add	r3, r3, r2
 1995 0e96 0344     		add	r3, r3, r0
 1996 0e98 03F2CA23 		addw	r3, r3, #714
 1997 0e9c 2246     		mov	r2, r4
 1998 0e9e 1A70     		strb	r2, [r3]
 212:PumpCom.c     ****             side.c.ProcessedTotals[((side.c.MepsanStore[4])&0x0F)-1][TotalRequestType][2] = (side.c
 1999              		.loc 1 212 0
 2000 0ea0 864B     		ldr	r3, .L63
 2001 0ea2 93F89B32 		ldrb	r3, [r3, #667]	@ zero_extendqisi2
 2002 0ea6 03F00F03 		and	r3, r3, #15
 2003 0eaa 591E     		subs	r1, r3, #1
 2004 0eac 844B     		ldr	r3, .L63+4
 2005 0eae 1B78     		ldrb	r3, [r3]	@ zero_extendqisi2
 2006 0eb0 1D46     		mov	r5, r3
 2007 0eb2 824B     		ldr	r3, .L63
 2008 0eb4 93F89B32 		ldrb	r3, [r3, #667]	@ zero_extendqisi2
 2009 0eb8 03F00F03 		and	r3, r3, #15
 2010 0ebc 581E     		subs	r0, r3, #1
 2011 0ebe 804B     		ldr	r3, .L63+4
 2012 0ec0 1B78     		ldrb	r3, [r3]	@ zero_extendqisi2
 2013 0ec2 7E4C     		ldr	r4, .L63
 2014 0ec4 1A46     		mov	r2, r3
 2015 0ec6 9200     		lsls	r2, r2, #2
 2016 0ec8 1A44     		add	r2, r2, r3
 2017 0eca 0346     		mov	r3, r0
 2018 0ecc 9B00     		lsls	r3, r3, #2
 2019 0ece 0344     		add	r3, r3, r0
 2020 0ed0 5B00     		lsls	r3, r3, #1
 2021 0ed2 1344     		add	r3, r3, r2
 2022 0ed4 2344     		add	r3, r3, r4
 2023 0ed6 03F51273 		add	r3, r3, #584
 2024 0eda 1B78     		ldrb	r3, [r3]	@ zero_extendqisi2
 2025 0edc 1B09     		lsrs	r3, r3, #4
 2026 0ede DBB2     		uxtb	r3, r3
 2027 0ee0 3033     		adds	r3, r3, #48
 2028 0ee2 DCB2     		uxtb	r4, r3
 2029 0ee4 7548     		ldr	r0, .L63
 2030 0ee6 2A46     		mov	r2, r5
 2031 0ee8 9200     		lsls	r2, r2, #2
 2032 0eea 2A44     		add	r2, r2, r5
 2033 0eec 5300     		lsls	r3, r2, #1
 2034 0eee 1A46     		mov	r2, r3
 2035 0ef0 0B46     		mov	r3, r1
 2036 0ef2 1B01     		lsls	r3, r3, #4
 2037 0ef4 5B1A     		subs	r3, r3, r1
 2038 0ef6 5B00     		lsls	r3, r3, #1
 2039 0ef8 1344     		add	r3, r3, r2
 2040 0efa 0344     		add	r3, r3, r0
 2041 0efc 03F2CB23 		addw	r3, r3, #715
 2042 0f00 2246     		mov	r2, r4
 2043 0f02 1A70     		strb	r2, [r3]
 213:PumpCom.c     ****             side.c.ProcessedTotals[((side.c.MepsanStore[4])&0x0F)-1][TotalRequestType][3] = (side.c
 2044              		.loc 1 213 0
 2045 0f04 6D4B     		ldr	r3, .L63
 2046 0f06 93F89B32 		ldrb	r3, [r3, #667]	@ zero_extendqisi2
ARM GAS  C:\Users\Lenovo\AppData\Local\Temp\ccP94fx0.s 			page 41


 2047 0f0a 03F00F03 		and	r3, r3, #15
 2048 0f0e 591E     		subs	r1, r3, #1
 2049 0f10 6B4B     		ldr	r3, .L63+4
 2050 0f12 1B78     		ldrb	r3, [r3]	@ zero_extendqisi2
 2051 0f14 1D46     		mov	r5, r3
 2052 0f16 694B     		ldr	r3, .L63
 2053 0f18 93F89B32 		ldrb	r3, [r3, #667]	@ zero_extendqisi2
 2054 0f1c 03F00F03 		and	r3, r3, #15
 2055 0f20 581E     		subs	r0, r3, #1
 2056 0f22 674B     		ldr	r3, .L63+4
 2057 0f24 1B78     		ldrb	r3, [r3]	@ zero_extendqisi2
 2058 0f26 654C     		ldr	r4, .L63
 2059 0f28 1A46     		mov	r2, r3
 2060 0f2a 9200     		lsls	r2, r2, #2
 2061 0f2c 1A44     		add	r2, r2, r3
 2062 0f2e 0346     		mov	r3, r0
 2063 0f30 9B00     		lsls	r3, r3, #2
 2064 0f32 0344     		add	r3, r3, r0
 2065 0f34 5B00     		lsls	r3, r3, #1
 2066 0f36 1344     		add	r3, r3, r2
 2067 0f38 2344     		add	r3, r3, r4
 2068 0f3a 03F51273 		add	r3, r3, #584
 2069 0f3e 1B78     		ldrb	r3, [r3]	@ zero_extendqisi2
 2070 0f40 03F00F03 		and	r3, r3, #15
 2071 0f44 DBB2     		uxtb	r3, r3
 2072 0f46 3033     		adds	r3, r3, #48
 2073 0f48 DCB2     		uxtb	r4, r3
 2074 0f4a 5C48     		ldr	r0, .L63
 2075 0f4c 2A46     		mov	r2, r5
 2076 0f4e 9200     		lsls	r2, r2, #2
 2077 0f50 2A44     		add	r2, r2, r5
 2078 0f52 5300     		lsls	r3, r2, #1
 2079 0f54 1A46     		mov	r2, r3
 2080 0f56 0B46     		mov	r3, r1
 2081 0f58 1B01     		lsls	r3, r3, #4
 2082 0f5a 5B1A     		subs	r3, r3, r1
 2083 0f5c 5B00     		lsls	r3, r3, #1
 2084 0f5e 1344     		add	r3, r3, r2
 2085 0f60 0344     		add	r3, r3, r0
 2086 0f62 03F53373 		add	r3, r3, #716
 2087 0f66 2246     		mov	r2, r4
 2088 0f68 1A70     		strb	r2, [r3]
 214:PumpCom.c     ****             side.c.ProcessedTotals[((side.c.MepsanStore[4])&0x0F)-1][TotalRequestType][4] = (side.c
 2089              		.loc 1 214 0
 2090 0f6a 544B     		ldr	r3, .L63
 2091 0f6c 93F89B32 		ldrb	r3, [r3, #667]	@ zero_extendqisi2
 2092 0f70 03F00F03 		and	r3, r3, #15
 2093 0f74 591E     		subs	r1, r3, #1
 2094 0f76 524B     		ldr	r3, .L63+4
 2095 0f78 1B78     		ldrb	r3, [r3]	@ zero_extendqisi2
 2096 0f7a 1D46     		mov	r5, r3
 2097 0f7c 4F4B     		ldr	r3, .L63
 2098 0f7e 93F89B32 		ldrb	r3, [r3, #667]	@ zero_extendqisi2
 2099 0f82 03F00F03 		and	r3, r3, #15
 2100 0f86 581E     		subs	r0, r3, #1
 2101 0f88 4D4B     		ldr	r3, .L63+4
 2102 0f8a 1B78     		ldrb	r3, [r3]	@ zero_extendqisi2
ARM GAS  C:\Users\Lenovo\AppData\Local\Temp\ccP94fx0.s 			page 42


 2103 0f8c 4B4C     		ldr	r4, .L63
 2104 0f8e 1A46     		mov	r2, r3
 2105 0f90 9200     		lsls	r2, r2, #2
 2106 0f92 1A44     		add	r2, r2, r3
 2107 0f94 0346     		mov	r3, r0
 2108 0f96 9B00     		lsls	r3, r3, #2
 2109 0f98 0344     		add	r3, r3, r0
 2110 0f9a 5B00     		lsls	r3, r3, #1
 2111 0f9c 1344     		add	r3, r3, r2
 2112 0f9e 2344     		add	r3, r3, r4
 2113 0fa0 03F24923 		addw	r3, r3, #585
 2114 0fa4 1B78     		ldrb	r3, [r3]	@ zero_extendqisi2
 2115 0fa6 1B09     		lsrs	r3, r3, #4
 2116 0fa8 DBB2     		uxtb	r3, r3
 2117 0faa 3033     		adds	r3, r3, #48
 2118 0fac DCB2     		uxtb	r4, r3
 2119 0fae 4348     		ldr	r0, .L63
 2120 0fb0 2A46     		mov	r2, r5
 2121 0fb2 9200     		lsls	r2, r2, #2
 2122 0fb4 2A44     		add	r2, r2, r5
 2123 0fb6 5300     		lsls	r3, r2, #1
 2124 0fb8 1A46     		mov	r2, r3
 2125 0fba 0B46     		mov	r3, r1
 2126 0fbc 1B01     		lsls	r3, r3, #4
 2127 0fbe 5B1A     		subs	r3, r3, r1
 2128 0fc0 5B00     		lsls	r3, r3, #1
 2129 0fc2 1344     		add	r3, r3, r2
 2130 0fc4 0344     		add	r3, r3, r0
 2131 0fc6 03F2CD23 		addw	r3, r3, #717
 2132 0fca 2246     		mov	r2, r4
 2133 0fcc 1A70     		strb	r2, [r3]
 215:PumpCom.c     ****             side.c.ProcessedTotals[((side.c.MepsanStore[4])&0x0F)-1][TotalRequestType][5] = (side.c
 2134              		.loc 1 215 0
 2135 0fce 3B4B     		ldr	r3, .L63
 2136 0fd0 93F89B32 		ldrb	r3, [r3, #667]	@ zero_extendqisi2
 2137 0fd4 03F00F03 		and	r3, r3, #15
 2138 0fd8 591E     		subs	r1, r3, #1
 2139 0fda 394B     		ldr	r3, .L63+4
 2140 0fdc 1B78     		ldrb	r3, [r3]	@ zero_extendqisi2
 2141 0fde 1D46     		mov	r5, r3
 2142 0fe0 364B     		ldr	r3, .L63
 2143 0fe2 93F89B32 		ldrb	r3, [r3, #667]	@ zero_extendqisi2
 2144 0fe6 03F00F03 		and	r3, r3, #15
 2145 0fea 581E     		subs	r0, r3, #1
 2146 0fec 344B     		ldr	r3, .L63+4
 2147 0fee 1B78     		ldrb	r3, [r3]	@ zero_extendqisi2
 2148 0ff0 324C     		ldr	r4, .L63
 2149 0ff2 1A46     		mov	r2, r3
 2150 0ff4 9200     		lsls	r2, r2, #2
 2151 0ff6 1A44     		add	r2, r2, r3
 2152 0ff8 0346     		mov	r3, r0
 2153 0ffa 9B00     		lsls	r3, r3, #2
 2154 0ffc 0344     		add	r3, r3, r0
 2155 0ffe 5B00     		lsls	r3, r3, #1
 2156 1000 1344     		add	r3, r3, r2
 2157 1002 2344     		add	r3, r3, r4
 2158 1004 03F24923 		addw	r3, r3, #585
ARM GAS  C:\Users\Lenovo\AppData\Local\Temp\ccP94fx0.s 			page 43


 2159 1008 1B78     		ldrb	r3, [r3]	@ zero_extendqisi2
 2160 100a 03F00F03 		and	r3, r3, #15
 2161 100e DBB2     		uxtb	r3, r3
 2162 1010 3033     		adds	r3, r3, #48
 2163 1012 DCB2     		uxtb	r4, r3
 2164 1014 2948     		ldr	r0, .L63
 2165 1016 2A46     		mov	r2, r5
 2166 1018 9200     		lsls	r2, r2, #2
 2167 101a 2A44     		add	r2, r2, r5
 2168 101c 5300     		lsls	r3, r2, #1
 2169 101e 1A46     		mov	r2, r3
 2170 1020 0B46     		mov	r3, r1
 2171 1022 1B01     		lsls	r3, r3, #4
 2172 1024 5B1A     		subs	r3, r3, r1
 2173 1026 5B00     		lsls	r3, r3, #1
 2174 1028 1344     		add	r3, r3, r2
 2175 102a 0344     		add	r3, r3, r0
 2176 102c 03F2CE23 		addw	r3, r3, #718
 2177 1030 2246     		mov	r2, r4
 2178 1032 1A70     		strb	r2, [r3]
 216:PumpCom.c     ****             side.c.ProcessedTotals[((side.c.MepsanStore[4])&0x0F)-1][TotalRequestType][6] = (side.c
 2179              		.loc 1 216 0
 2180 1034 214B     		ldr	r3, .L63
 2181 1036 93F89B32 		ldrb	r3, [r3, #667]	@ zero_extendqisi2
 2182 103a 03F00F03 		and	r3, r3, #15
 2183 103e 591E     		subs	r1, r3, #1
 2184 1040 1F4B     		ldr	r3, .L63+4
 2185 1042 1B78     		ldrb	r3, [r3]	@ zero_extendqisi2
 2186 1044 1D46     		mov	r5, r3
 2187 1046 1D4B     		ldr	r3, .L63
 2188 1048 93F89B32 		ldrb	r3, [r3, #667]	@ zero_extendqisi2
 2189 104c 03F00F03 		and	r3, r3, #15
 2190 1050 581E     		subs	r0, r3, #1
 2191 1052 1B4B     		ldr	r3, .L63+4
 2192 1054 1B78     		ldrb	r3, [r3]	@ zero_extendqisi2
 2193 1056 194C     		ldr	r4, .L63
 2194 1058 1A46     		mov	r2, r3
 2195 105a 9200     		lsls	r2, r2, #2
 2196 105c 1A44     		add	r2, r2, r3
 2197 105e 0346     		mov	r3, r0
 2198 1060 9B00     		lsls	r3, r3, #2
 2199 1062 0344     		add	r3, r3, r0
 2200 1064 5B00     		lsls	r3, r3, #1
 2201 1066 1344     		add	r3, r3, r2
 2202 1068 2344     		add	r3, r3, r4
 2203 106a 03F24A23 		addw	r3, r3, #586
 2204 106e 1B78     		ldrb	r3, [r3]	@ zero_extendqisi2
 2205 1070 1B09     		lsrs	r3, r3, #4
 2206 1072 DBB2     		uxtb	r3, r3
 2207 1074 3033     		adds	r3, r3, #48
 2208 1076 DCB2     		uxtb	r4, r3
 2209 1078 1048     		ldr	r0, .L63
 2210 107a 2A46     		mov	r2, r5
 2211 107c 9200     		lsls	r2, r2, #2
 2212 107e 2A44     		add	r2, r2, r5
 2213 1080 5300     		lsls	r3, r2, #1
 2214 1082 1A46     		mov	r2, r3
ARM GAS  C:\Users\Lenovo\AppData\Local\Temp\ccP94fx0.s 			page 44


 2215 1084 0B46     		mov	r3, r1
 2216 1086 1B01     		lsls	r3, r3, #4
 2217 1088 5B1A     		subs	r3, r3, r1
 2218 108a 5B00     		lsls	r3, r3, #1
 2219 108c 1344     		add	r3, r3, r2
 2220 108e 0344     		add	r3, r3, r0
 2221 1090 03F2CF23 		addw	r3, r3, #719
 2222 1094 2246     		mov	r2, r4
 2223 1096 1A70     		strb	r2, [r3]
 217:PumpCom.c     ****             side.c.ProcessedTotals[((side.c.MepsanStore[4])&0x0F)-1][TotalRequestType][7] = (side.c
 2224              		.loc 1 217 0
 2225 1098 084B     		ldr	r3, .L63
 2226 109a 93F89B32 		ldrb	r3, [r3, #667]	@ zero_extendqisi2
 2227 109e 03F00F03 		and	r3, r3, #15
 2228 10a2 591E     		subs	r1, r3, #1
 2229 10a4 064B     		ldr	r3, .L63+4
 2230 10a6 1B78     		ldrb	r3, [r3]	@ zero_extendqisi2
 2231 10a8 1D46     		mov	r5, r3
 2232 10aa 044B     		ldr	r3, .L63
 2233 10ac 93F89B32 		ldrb	r3, [r3, #667]	@ zero_extendqisi2
 2234 10b0 03F00F03 		and	r3, r3, #15
 2235 10b4 581E     		subs	r0, r3, #1
 2236 10b6 024B     		ldr	r3, .L63+4
 2237 10b8 1B78     		ldrb	r3, [r3]	@ zero_extendqisi2
 2238 10ba 03E0     		b	.L64
 2239              	.L65:
 2240              		.align	2
 2241              	.L63:
 2242 10bc 00000000 		.word	side
 2243 10c0 00000000 		.word	TotalRequestType
 2244              	.L64:
 2245 10c4 C34C     		ldr	r4, .L66
 2246 10c6 1A46     		mov	r2, r3
 2247 10c8 9200     		lsls	r2, r2, #2
 2248 10ca 1A44     		add	r2, r2, r3
 2249 10cc 0346     		mov	r3, r0
 2250 10ce 9B00     		lsls	r3, r3, #2
 2251 10d0 0344     		add	r3, r3, r0
 2252 10d2 5B00     		lsls	r3, r3, #1
 2253 10d4 1344     		add	r3, r3, r2
 2254 10d6 2344     		add	r3, r3, r4
 2255 10d8 03F24A23 		addw	r3, r3, #586
 2256 10dc 1B78     		ldrb	r3, [r3]	@ zero_extendqisi2
 2257 10de 03F00F03 		and	r3, r3, #15
 2258 10e2 DBB2     		uxtb	r3, r3
 2259 10e4 3033     		adds	r3, r3, #48
 2260 10e6 DCB2     		uxtb	r4, r3
 2261 10e8 BA48     		ldr	r0, .L66
 2262 10ea 2A46     		mov	r2, r5
 2263 10ec 9200     		lsls	r2, r2, #2
 2264 10ee 2A44     		add	r2, r2, r5
 2265 10f0 5300     		lsls	r3, r2, #1
 2266 10f2 1A46     		mov	r2, r3
 2267 10f4 0B46     		mov	r3, r1
 2268 10f6 1B01     		lsls	r3, r3, #4
 2269 10f8 5B1A     		subs	r3, r3, r1
 2270 10fa 5B00     		lsls	r3, r3, #1
ARM GAS  C:\Users\Lenovo\AppData\Local\Temp\ccP94fx0.s 			page 45


 2271 10fc 1344     		add	r3, r3, r2
 2272 10fe 0344     		add	r3, r3, r0
 2273 1100 03F53473 		add	r3, r3, #720
 2274 1104 2246     		mov	r2, r4
 2275 1106 1A70     		strb	r2, [r3]
 218:PumpCom.c     ****             side.c.ProcessedTotals[((side.c.MepsanStore[4])&0x0F)-1][TotalRequestType][8] = (side.c
 2276              		.loc 1 218 0
 2277 1108 B24B     		ldr	r3, .L66
 2278 110a 93F89B32 		ldrb	r3, [r3, #667]	@ zero_extendqisi2
 2279 110e 03F00F03 		and	r3, r3, #15
 2280 1112 591E     		subs	r1, r3, #1
 2281 1114 B04B     		ldr	r3, .L66+4
 2282 1116 1B78     		ldrb	r3, [r3]	@ zero_extendqisi2
 2283 1118 1D46     		mov	r5, r3
 2284 111a AE4B     		ldr	r3, .L66
 2285 111c 93F89B32 		ldrb	r3, [r3, #667]	@ zero_extendqisi2
 2286 1120 03F00F03 		and	r3, r3, #15
 2287 1124 581E     		subs	r0, r3, #1
 2288 1126 AC4B     		ldr	r3, .L66+4
 2289 1128 1B78     		ldrb	r3, [r3]	@ zero_extendqisi2
 2290 112a AA4C     		ldr	r4, .L66
 2291 112c 1A46     		mov	r2, r3
 2292 112e 9200     		lsls	r2, r2, #2
 2293 1130 1A44     		add	r2, r2, r3
 2294 1132 0346     		mov	r3, r0
 2295 1134 9B00     		lsls	r3, r3, #2
 2296 1136 0344     		add	r3, r3, r0
 2297 1138 5B00     		lsls	r3, r3, #1
 2298 113a 1344     		add	r3, r3, r2
 2299 113c 2344     		add	r3, r3, r4
 2300 113e 03F24B23 		addw	r3, r3, #587
 2301 1142 1B78     		ldrb	r3, [r3]	@ zero_extendqisi2
 2302 1144 1B09     		lsrs	r3, r3, #4
 2303 1146 DBB2     		uxtb	r3, r3
 2304 1148 3033     		adds	r3, r3, #48
 2305 114a DCB2     		uxtb	r4, r3
 2306 114c A148     		ldr	r0, .L66
 2307 114e 2A46     		mov	r2, r5
 2308 1150 9200     		lsls	r2, r2, #2
 2309 1152 2A44     		add	r2, r2, r5
 2310 1154 5300     		lsls	r3, r2, #1
 2311 1156 1A46     		mov	r2, r3
 2312 1158 0B46     		mov	r3, r1
 2313 115a 1B01     		lsls	r3, r3, #4
 2314 115c 5B1A     		subs	r3, r3, r1
 2315 115e 5B00     		lsls	r3, r3, #1
 2316 1160 1344     		add	r3, r3, r2
 2317 1162 0344     		add	r3, r3, r0
 2318 1164 03F2D123 		addw	r3, r3, #721
 2319 1168 2246     		mov	r2, r4
 2320 116a 1A70     		strb	r2, [r3]
 219:PumpCom.c     ****             side.c.ProcessedTotals[((side.c.MepsanStore[4])&0x0F)-1][TotalRequestType][9] = (side.c
 2321              		.loc 1 219 0
 2322 116c 994B     		ldr	r3, .L66
 2323 116e 93F89B32 		ldrb	r3, [r3, #667]	@ zero_extendqisi2
 2324 1172 03F00F03 		and	r3, r3, #15
 2325 1176 591E     		subs	r1, r3, #1
ARM GAS  C:\Users\Lenovo\AppData\Local\Temp\ccP94fx0.s 			page 46


 2326 1178 974B     		ldr	r3, .L66+4
 2327 117a 1B78     		ldrb	r3, [r3]	@ zero_extendqisi2
 2328 117c 1D46     		mov	r5, r3
 2329 117e 954B     		ldr	r3, .L66
 2330 1180 93F89B32 		ldrb	r3, [r3, #667]	@ zero_extendqisi2
 2331 1184 03F00F03 		and	r3, r3, #15
 2332 1188 581E     		subs	r0, r3, #1
 2333 118a 934B     		ldr	r3, .L66+4
 2334 118c 1B78     		ldrb	r3, [r3]	@ zero_extendqisi2
 2335 118e 914C     		ldr	r4, .L66
 2336 1190 1A46     		mov	r2, r3
 2337 1192 9200     		lsls	r2, r2, #2
 2338 1194 1A44     		add	r2, r2, r3
 2339 1196 0346     		mov	r3, r0
 2340 1198 9B00     		lsls	r3, r3, #2
 2341 119a 0344     		add	r3, r3, r0
 2342 119c 5B00     		lsls	r3, r3, #1
 2343 119e 1344     		add	r3, r3, r2
 2344 11a0 2344     		add	r3, r3, r4
 2345 11a2 03F24B23 		addw	r3, r3, #587
 2346 11a6 1B78     		ldrb	r3, [r3]	@ zero_extendqisi2
 2347 11a8 03F00F03 		and	r3, r3, #15
 2348 11ac DBB2     		uxtb	r3, r3
 2349 11ae 3033     		adds	r3, r3, #48
 2350 11b0 DCB2     		uxtb	r4, r3
 2351 11b2 8848     		ldr	r0, .L66
 2352 11b4 2A46     		mov	r2, r5
 2353 11b6 9200     		lsls	r2, r2, #2
 2354 11b8 2A44     		add	r2, r2, r5
 2355 11ba 5300     		lsls	r3, r2, #1
 2356 11bc 1A46     		mov	r2, r3
 2357 11be 0B46     		mov	r3, r1
 2358 11c0 1B01     		lsls	r3, r3, #4
 2359 11c2 5B1A     		subs	r3, r3, r1
 2360 11c4 5B00     		lsls	r3, r3, #1
 2361 11c6 1344     		add	r3, r3, r2
 2362 11c8 0344     		add	r3, r3, r0
 2363 11ca 03F2D223 		addw	r3, r3, #722
 2364 11ce 2246     		mov	r2, r4
 2365 11d0 1A70     		strb	r2, [r3]
 220:PumpCom.c     ****             
 221:PumpCom.c     ****             EnablePin_Write (1u);
 2366              		.loc 1 221 0
 2367 11d2 0120     		movs	r0, #1
 2368 11d4 FFF7FEFF 		bl	EnablePin_Write
 222:PumpCom.c     ****             UART_1_PutChar((0x50|address));
 2369              		.loc 1 222 0
 2370 11d8 BB78     		ldrb	r3, [r7, #2]
 2371 11da 43F05003 		orr	r3, r3, #80
 2372 11de DBB2     		uxtb	r3, r3
 2373 11e0 1846     		mov	r0, r3
 2374 11e2 FFF7FEFF 		bl	UART_1_PutChar
 223:PumpCom.c     ****             UART_1_PutChar(0xC0|(side.c.MepsanStore[1]&0x0F));
 2375              		.loc 1 223 0
 2376 11e6 7B4B     		ldr	r3, .L66
 2377 11e8 93F89832 		ldrb	r3, [r3, #664]	@ zero_extendqisi2
 2378 11ec 5BB2     		sxtb	r3, r3
ARM GAS  C:\Users\Lenovo\AppData\Local\Temp\ccP94fx0.s 			page 47


 2379 11ee 03F00F03 		and	r3, r3, #15
 2380 11f2 5BB2     		sxtb	r3, r3
 2381 11f4 63F03F03 		orn	r3, r3, #63
 2382 11f8 5BB2     		sxtb	r3, r3
 2383 11fa DBB2     		uxtb	r3, r3
 2384 11fc 1846     		mov	r0, r3
 2385 11fe FFF7FEFF 		bl	UART_1_PutChar
 224:PumpCom.c     ****             UART_1_PutChar(0xFA); 
 2386              		.loc 1 224 0
 2387 1202 FA20     		movs	r0, #250
 2388 1204 FFF7FEFF 		bl	UART_1_PutChar
 225:PumpCom.c     ****             CyDelay(4);
 2389              		.loc 1 225 0
 2390 1208 0420     		movs	r0, #4
 2391 120a FFF7FEFF 		bl	CyDelay
 226:PumpCom.c     ****             EnablePin_Write (0u);
 2392              		.loc 1 226 0
 2393 120e 0020     		movs	r0, #0
 2394 1210 FFF7FEFF 		bl	EnablePin_Write
 2395              	.L33:
 227:PumpCom.c     ****         }
 228:PumpCom.c     ****         if(side.c.MepsanStore[2] == 0x02){
 2396              		.loc 1 228 0
 2397 1214 6F4B     		ldr	r3, .L66
 2398 1216 93F89932 		ldrb	r3, [r3, #665]	@ zero_extendqisi2
 2399 121a 022B     		cmp	r3, #2
 2400 121c 40F0D080 		bne	.L30
 2401              	.LBB10:
 229:PumpCom.c     ****             for(uint8 x = 4; x < 8; x++ ){
 2402              		.loc 1 229 0
 2403 1220 0423     		movs	r3, #4
 2404 1222 FB71     		strb	r3, [r7, #7]
 2405 1224 1BE0     		b	.L36
 2406              	.L37:
 230:PumpCom.c     ****                 side.c.volumeSale[x-4] = side.c.MepsanStore[x];
 2407              		.loc 1 230 0 discriminator 3
 2408 1226 FB79     		ldrb	r3, [r7, #7]	@ zero_extendqisi2
 2409 1228 043B     		subs	r3, r3, #4
 2410 122a FA79     		ldrb	r2, [r7, #7]	@ zero_extendqisi2
 2411 122c 6949     		ldr	r1, .L66
 2412 122e 0A44     		add	r2, r2, r1
 2413 1230 92F89712 		ldrb	r1, [r2, #663]	@ zero_extendqisi2
 2414 1234 674A     		ldr	r2, .L66
 2415 1236 1344     		add	r3, r3, r2
 2416 1238 0A46     		mov	r2, r1
 2417 123a 83F87F22 		strb	r2, [r3, #639]
 231:PumpCom.c     ****                 side.c.moneySale[x-4] = side.c.MepsanStore[x+4];
 2418              		.loc 1 231 0 discriminator 3
 2419 123e FB79     		ldrb	r3, [r7, #7]	@ zero_extendqisi2
 2420 1240 043B     		subs	r3, r3, #4
 2421 1242 FA79     		ldrb	r2, [r7, #7]	@ zero_extendqisi2
 2422 1244 0432     		adds	r2, r2, #4
 2423 1246 6349     		ldr	r1, .L66
 2424 1248 0A44     		add	r2, r2, r1
 2425 124a 92F89712 		ldrb	r1, [r2, #663]	@ zero_extendqisi2
 2426 124e 614A     		ldr	r2, .L66
 2427 1250 1344     		add	r3, r3, r2
ARM GAS  C:\Users\Lenovo\AppData\Local\Temp\ccP94fx0.s 			page 48


 2428 1252 0A46     		mov	r2, r1
 2429 1254 83F87B22 		strb	r2, [r3, #635]
 229:PumpCom.c     ****             for(uint8 x = 4; x < 8; x++ ){
 2430              		.loc 1 229 0 discriminator 3
 2431 1258 FB79     		ldrb	r3, [r7, #7]	@ zero_extendqisi2
 2432 125a 0133     		adds	r3, r3, #1
 2433 125c FB71     		strb	r3, [r7, #7]
 2434              	.L36:
 229:PumpCom.c     ****             for(uint8 x = 4; x < 8; x++ ){
 2435              		.loc 1 229 0 is_stmt 0 discriminator 1
 2436 125e FB79     		ldrb	r3, [r7, #7]	@ zero_extendqisi2
 2437 1260 072B     		cmp	r3, #7
 2438 1262 E0D9     		bls	.L37
 2439              	.LBE10:
 232:PumpCom.c     ****             }
 233:PumpCom.c     ****             side.c.ProcessedvolumeSale[0] = (side.c.volumeSale[0]  >> 4) + 0x30;
 2440              		.loc 1 233 0 is_stmt 1
 2441 1264 5B4B     		ldr	r3, .L66
 2442 1266 93F87F32 		ldrb	r3, [r3, #639]	@ zero_extendqisi2
 2443 126a 1B09     		lsrs	r3, r3, #4
 2444 126c DBB2     		uxtb	r3, r3
 2445 126e 3033     		adds	r3, r3, #48
 2446 1270 DAB2     		uxtb	r2, r3
 2447 1272 584B     		ldr	r3, .L66
 2448 1274 83F84923 		strb	r2, [r3, #841]
 234:PumpCom.c     ****             side.c.ProcessedvolumeSale[1] = (side.c.volumeSale[0]  & 0x0F) + 0x30;
 2449              		.loc 1 234 0
 2450 1278 564B     		ldr	r3, .L66
 2451 127a 93F87F32 		ldrb	r3, [r3, #639]	@ zero_extendqisi2
 2452 127e 03F00F03 		and	r3, r3, #15
 2453 1282 DBB2     		uxtb	r3, r3
 2454 1284 3033     		adds	r3, r3, #48
 2455 1286 DAB2     		uxtb	r2, r3
 2456 1288 524B     		ldr	r3, .L66
 2457 128a 83F84A23 		strb	r2, [r3, #842]
 235:PumpCom.c     ****             side.c.ProcessedvolumeSale[2] = (side.c.volumeSale[1]  >> 4) + 0x30;
 2458              		.loc 1 235 0
 2459 128e 514B     		ldr	r3, .L66
 2460 1290 93F88032 		ldrb	r3, [r3, #640]	@ zero_extendqisi2
 2461 1294 1B09     		lsrs	r3, r3, #4
 2462 1296 DBB2     		uxtb	r3, r3
 2463 1298 3033     		adds	r3, r3, #48
 2464 129a DAB2     		uxtb	r2, r3
 2465 129c 4D4B     		ldr	r3, .L66
 2466 129e 83F84B23 		strb	r2, [r3, #843]
 236:PumpCom.c     ****             side.c.ProcessedvolumeSale[3] = (side.c.volumeSale[1]  & 0x0F) + 0x30;
 2467              		.loc 1 236 0
 2468 12a2 4C4B     		ldr	r3, .L66
 2469 12a4 93F88032 		ldrb	r3, [r3, #640]	@ zero_extendqisi2
 2470 12a8 03F00F03 		and	r3, r3, #15
 2471 12ac DBB2     		uxtb	r3, r3
 2472 12ae 3033     		adds	r3, r3, #48
 2473 12b0 DAB2     		uxtb	r2, r3
 2474 12b2 484B     		ldr	r3, .L66
 2475 12b4 83F84C23 		strb	r2, [r3, #844]
 237:PumpCom.c     ****             side.c.ProcessedvolumeSale[4] = (side.c.volumeSale[2]  >> 4) + 0x30;
 2476              		.loc 1 237 0
ARM GAS  C:\Users\Lenovo\AppData\Local\Temp\ccP94fx0.s 			page 49


 2477 12b8 464B     		ldr	r3, .L66
 2478 12ba 93F88132 		ldrb	r3, [r3, #641]	@ zero_extendqisi2
 2479 12be 1B09     		lsrs	r3, r3, #4
 2480 12c0 DBB2     		uxtb	r3, r3
 2481 12c2 3033     		adds	r3, r3, #48
 2482 12c4 DAB2     		uxtb	r2, r3
 2483 12c6 434B     		ldr	r3, .L66
 2484 12c8 83F84D23 		strb	r2, [r3, #845]
 238:PumpCom.c     ****             side.c.ProcessedvolumeSale[5] = (side.c.volumeSale[2]  & 0x0F) + 0x30;
 2485              		.loc 1 238 0
 2486 12cc 414B     		ldr	r3, .L66
 2487 12ce 93F88132 		ldrb	r3, [r3, #641]	@ zero_extendqisi2
 2488 12d2 03F00F03 		and	r3, r3, #15
 2489 12d6 DBB2     		uxtb	r3, r3
 2490 12d8 3033     		adds	r3, r3, #48
 2491 12da DAB2     		uxtb	r2, r3
 2492 12dc 3D4B     		ldr	r3, .L66
 2493 12de 83F84E23 		strb	r2, [r3, #846]
 239:PumpCom.c     ****             side.c.ProcessedvolumeSale[6] = (side.c.volumeSale[3]  >> 4) + 0x30;
 2494              		.loc 1 239 0
 2495 12e2 3C4B     		ldr	r3, .L66
 2496 12e4 93F88232 		ldrb	r3, [r3, #642]	@ zero_extendqisi2
 2497 12e8 1B09     		lsrs	r3, r3, #4
 2498 12ea DBB2     		uxtb	r3, r3
 2499 12ec 3033     		adds	r3, r3, #48
 2500 12ee DAB2     		uxtb	r2, r3
 2501 12f0 384B     		ldr	r3, .L66
 2502 12f2 83F84F23 		strb	r2, [r3, #847]
 240:PumpCom.c     ****             side.c.ProcessedvolumeSale[7] = (side.c.volumeSale[3]  & 0x0F) + 0x30;
 2503              		.loc 1 240 0
 2504 12f6 374B     		ldr	r3, .L66
 2505 12f8 93F88232 		ldrb	r3, [r3, #642]	@ zero_extendqisi2
 2506 12fc 03F00F03 		and	r3, r3, #15
 2507 1300 DBB2     		uxtb	r3, r3
 2508 1302 3033     		adds	r3, r3, #48
 2509 1304 DAB2     		uxtb	r2, r3
 2510 1306 334B     		ldr	r3, .L66
 2511 1308 83F85023 		strb	r2, [r3, #848]
 241:PumpCom.c     ****             
 242:PumpCom.c     ****             side.c.ProcessedmoneySale[0] = (side.c.moneySale[0]  >> 4) + 0x30;
 2512              		.loc 1 242 0
 2513 130c 314B     		ldr	r3, .L66
 2514 130e 93F87B32 		ldrb	r3, [r3, #635]	@ zero_extendqisi2
 2515 1312 1B09     		lsrs	r3, r3, #4
 2516 1314 DBB2     		uxtb	r3, r3
 2517 1316 3033     		adds	r3, r3, #48
 2518 1318 DAB2     		uxtb	r2, r3
 2519 131a 2E4B     		ldr	r3, .L66
 2520 131c 83F84123 		strb	r2, [r3, #833]
 243:PumpCom.c     ****             side.c.ProcessedmoneySale[1] = (side.c.moneySale[0]  & 0x0F) + 0x30;
 2521              		.loc 1 243 0
 2522 1320 2C4B     		ldr	r3, .L66
 2523 1322 93F87B32 		ldrb	r3, [r3, #635]	@ zero_extendqisi2
 2524 1326 03F00F03 		and	r3, r3, #15
 2525 132a DBB2     		uxtb	r3, r3
 2526 132c 3033     		adds	r3, r3, #48
 2527 132e DAB2     		uxtb	r2, r3
ARM GAS  C:\Users\Lenovo\AppData\Local\Temp\ccP94fx0.s 			page 50


 2528 1330 284B     		ldr	r3, .L66
 2529 1332 83F84223 		strb	r2, [r3, #834]
 244:PumpCom.c     ****             side.c.ProcessedmoneySale[2] = (side.c.moneySale[1]  >> 4) + 0x30;
 2530              		.loc 1 244 0
 2531 1336 274B     		ldr	r3, .L66
 2532 1338 93F87C32 		ldrb	r3, [r3, #636]	@ zero_extendqisi2
 2533 133c 1B09     		lsrs	r3, r3, #4
 2534 133e DBB2     		uxtb	r3, r3
 2535 1340 3033     		adds	r3, r3, #48
 2536 1342 DAB2     		uxtb	r2, r3
 2537 1344 234B     		ldr	r3, .L66
 2538 1346 83F84323 		strb	r2, [r3, #835]
 245:PumpCom.c     ****             side.c.ProcessedmoneySale[3] = (side.c.moneySale[1]  & 0x0F) + 0x30;
 2539              		.loc 1 245 0
 2540 134a 224B     		ldr	r3, .L66
 2541 134c 93F87C32 		ldrb	r3, [r3, #636]	@ zero_extendqisi2
 2542 1350 03F00F03 		and	r3, r3, #15
 2543 1354 DBB2     		uxtb	r3, r3
 2544 1356 3033     		adds	r3, r3, #48
 2545 1358 DAB2     		uxtb	r2, r3
 2546 135a 1E4B     		ldr	r3, .L66
 2547 135c 83F84423 		strb	r2, [r3, #836]
 246:PumpCom.c     ****             side.c.ProcessedmoneySale[4] = (side.c.moneySale[2]  >> 4) + 0x30;
 2548              		.loc 1 246 0
 2549 1360 1C4B     		ldr	r3, .L66
 2550 1362 93F87D32 		ldrb	r3, [r3, #637]	@ zero_extendqisi2
 2551 1366 1B09     		lsrs	r3, r3, #4
 2552 1368 DBB2     		uxtb	r3, r3
 2553 136a 3033     		adds	r3, r3, #48
 2554 136c DAB2     		uxtb	r2, r3
 2555 136e 194B     		ldr	r3, .L66
 2556 1370 83F84523 		strb	r2, [r3, #837]
 247:PumpCom.c     ****             side.c.ProcessedmoneySale[5] = (side.c.moneySale[2]  & 0x0F) + 0x30;
 2557              		.loc 1 247 0
 2558 1374 174B     		ldr	r3, .L66
 2559 1376 93F87D32 		ldrb	r3, [r3, #637]	@ zero_extendqisi2
 2560 137a 03F00F03 		and	r3, r3, #15
 2561 137e DBB2     		uxtb	r3, r3
 2562 1380 3033     		adds	r3, r3, #48
 2563 1382 DAB2     		uxtb	r2, r3
 2564 1384 134B     		ldr	r3, .L66
 2565 1386 83F84623 		strb	r2, [r3, #838]
 248:PumpCom.c     ****             side.c.ProcessedmoneySale[6] = (side.c.moneySale[3]  >> 4) + 0x30;
 2566              		.loc 1 248 0
 2567 138a 124B     		ldr	r3, .L66
 2568 138c 93F87E32 		ldrb	r3, [r3, #638]	@ zero_extendqisi2
 2569 1390 1B09     		lsrs	r3, r3, #4
 2570 1392 DBB2     		uxtb	r3, r3
 2571 1394 3033     		adds	r3, r3, #48
 2572 1396 DAB2     		uxtb	r2, r3
 2573 1398 0E4B     		ldr	r3, .L66
 2574 139a 83F84723 		strb	r2, [r3, #839]
 249:PumpCom.c     ****             side.c.ProcessedmoneySale[7] = (side.c.moneySale[3]  & 0x0F) + 0x30;
 2575              		.loc 1 249 0
 2576 139e 0D4B     		ldr	r3, .L66
 2577 13a0 93F87E32 		ldrb	r3, [r3, #638]	@ zero_extendqisi2
 2578 13a4 03F00F03 		and	r3, r3, #15
ARM GAS  C:\Users\Lenovo\AppData\Local\Temp\ccP94fx0.s 			page 51


 2579 13a8 DBB2     		uxtb	r3, r3
 2580 13aa 3033     		adds	r3, r3, #48
 2581 13ac DAB2     		uxtb	r2, r3
 2582 13ae 094B     		ldr	r3, .L66
 2583 13b0 83F84823 		strb	r2, [r3, #840]
 250:PumpCom.c     ****             
 251:PumpCom.c     ****             Receipt = 3;
 2584              		.loc 1 251 0
 2585 13b4 094B     		ldr	r3, .L66+8
 2586 13b6 0322     		movs	r2, #3
 2587 13b8 1A70     		strb	r2, [r3]
 252:PumpCom.c     ****             EnablePin_Write (0u);
 2588              		.loc 1 252 0
 2589 13ba 0020     		movs	r0, #0
 2590 13bc FFF7FEFF 		bl	EnablePin_Write
 2591              	.L30:
 253:PumpCom.c     ****         }
 254:PumpCom.c     ****     }
 255:PumpCom.c     ****     if(address == side.d.dir){
 2592              		.loc 1 255 0
 2593 13c0 044B     		ldr	r3, .L66
 2594 13c2 93F86933 		ldrb	r3, [r3, #873]	@ zero_extendqisi2
 2595 13c6 BA78     		ldrb	r2, [r7, #2]	@ zero_extendqisi2
 2596 13c8 9A42     		cmp	r2, r3
 2597 13ca 40F04783 		bne	.L46
 2598              	.LBB11:
 256:PumpCom.c     ****         for(uint8 MepRx = 1; MepRx < size + 1; MepRx++){
 2599              		.loc 1 256 0
 2600 13ce 0123     		movs	r3, #1
 2601 13d0 BB71     		strb	r3, [r7, #6]
 2602 13d2 12E0     		b	.L39
 2603              	.L67:
 2604              		.align	2
 2605              	.L66:
 2606 13d4 00000000 		.word	side
 2607 13d8 00000000 		.word	TotalRequestType
 2608 13dc 00000000 		.word	Receipt
 2609              	.L40:
 257:PumpCom.c     ****             side.d.MepsanStore[MepRx - 1] = MepsanResponse[MepRx];
 2610              		.loc 1 257 0 discriminator 3
 2611 13e0 BB79     		ldrb	r3, [r7, #6]	@ zero_extendqisi2
 2612 13e2 013B     		subs	r3, r3, #1
 2613 13e4 BA79     		ldrb	r2, [r7, #6]	@ zero_extendqisi2
 2614 13e6 0C49     		ldr	r1, .L68
 2615 13e8 895C     		ldrb	r1, [r1, r2]	@ zero_extendqisi2
 2616 13ea 0C4A     		ldr	r2, .L68+4
 2617 13ec 1344     		add	r3, r3, r2
 2618 13ee 0A46     		mov	r2, r1
 2619 13f0 83F8BA23 		strb	r2, [r3, #954]
 256:PumpCom.c     ****         for(uint8 MepRx = 1; MepRx < size + 1; MepRx++){
 2620              		.loc 1 256 0 discriminator 3
 2621 13f4 BB79     		ldrb	r3, [r7, #6]	@ zero_extendqisi2
 2622 13f6 0133     		adds	r3, r3, #1
 2623 13f8 BB71     		strb	r3, [r7, #6]
 2624              	.L39:
 256:PumpCom.c     ****         for(uint8 MepRx = 1; MepRx < size + 1; MepRx++){
 2625              		.loc 1 256 0 is_stmt 0 discriminator 1
ARM GAS  C:\Users\Lenovo\AppData\Local\Temp\ccP94fx0.s 			page 52


 2626 13fa BA79     		ldrb	r2, [r7, #6]	@ zero_extendqisi2
 2627 13fc FB78     		ldrb	r3, [r7, #3]	@ zero_extendqisi2
 2628 13fe 0133     		adds	r3, r3, #1
 2629 1400 9A42     		cmp	r2, r3
 2630 1402 EDDB     		blt	.L40
 2631              	.LBE11:
 258:PumpCom.c     ****         }
 259:PumpCom.c     ****         if(side.d.MepsanStore[2] == 0x65){
 2632              		.loc 1 259 0 is_stmt 1
 2633 1404 054B     		ldr	r3, .L68+4
 2634 1406 93F8BC33 		ldrb	r3, [r3, #956]	@ zero_extendqisi2
 2635 140a 652B     		cmp	r3, #101
 2636 140c 40F05082 		bne	.L41
 2637              	.LBB12:
 260:PumpCom.c     ****             for(uint8 x = 5; x < (side.d.MepsanStore[3]-1) + 5; x++ ){
 2638              		.loc 1 260 0
 2639 1410 0523     		movs	r3, #5
 2640 1412 7B71     		strb	r3, [r7, #5]
 2641 1414 26E0     		b	.L42
 2642              	.L69:
 2643 1416 00BF     		.align	2
 2644              	.L68:
 2645 1418 00000000 		.word	MepsanResponse
 2646 141c 00000000 		.word	side
 2647              	.L43:
 261:PumpCom.c     ****                 side.d.totalsNozzle[((side.d.MepsanStore[4])&0x0F)-1][TotalRequestType][x-5] = side
 2648              		.loc 1 261 0 discriminator 3
 2649 1420 CD4B     		ldr	r3, .L70
 2650 1422 93F8BE33 		ldrb	r3, [r3, #958]	@ zero_extendqisi2
 2651 1426 03F00F03 		and	r3, r3, #15
 2652 142a 591E     		subs	r1, r3, #1
 2653 142c CB4B     		ldr	r3, .L70+4
 2654 142e 1B78     		ldrb	r3, [r3]	@ zero_extendqisi2
 2655 1430 1D46     		mov	r5, r3
 2656 1432 7B79     		ldrb	r3, [r7, #5]	@ zero_extendqisi2
 2657 1434 581F     		subs	r0, r3, #5
 2658 1436 7B79     		ldrb	r3, [r7, #5]	@ zero_extendqisi2
 2659 1438 C74A     		ldr	r2, .L70
 2660 143a 1344     		add	r3, r3, r2
 2661 143c 93F8BA63 		ldrb	r6, [r3, #954]	@ zero_extendqisi2
 2662 1440 C54C     		ldr	r4, .L70
 2663 1442 2A46     		mov	r2, r5
 2664 1444 9200     		lsls	r2, r2, #2
 2665 1446 2A44     		add	r2, r2, r5
 2666 1448 0B46     		mov	r3, r1
 2667 144a 9B00     		lsls	r3, r3, #2
 2668 144c 0B44     		add	r3, r3, r1
 2669 144e 5B00     		lsls	r3, r3, #1
 2670 1450 1344     		add	r3, r3, r2
 2671 1452 2344     		add	r3, r3, r4
 2672 1454 0344     		add	r3, r3, r0
 2673 1456 03F26A33 		addw	r3, r3, #874
 2674 145a 3246     		mov	r2, r6
 2675 145c 1A70     		strb	r2, [r3]
 260:PumpCom.c     ****             for(uint8 x = 5; x < (side.d.MepsanStore[3]-1) + 5; x++ ){
 2676              		.loc 1 260 0 discriminator 3
 2677 145e 7B79     		ldrb	r3, [r7, #5]	@ zero_extendqisi2
ARM GAS  C:\Users\Lenovo\AppData\Local\Temp\ccP94fx0.s 			page 53


 2678 1460 0133     		adds	r3, r3, #1
 2679 1462 7B71     		strb	r3, [r7, #5]
 2680              	.L42:
 260:PumpCom.c     ****             for(uint8 x = 5; x < (side.d.MepsanStore[3]-1) + 5; x++ ){
 2681              		.loc 1 260 0 is_stmt 0 discriminator 1
 2682 1464 7A79     		ldrb	r2, [r7, #5]	@ zero_extendqisi2
 2683 1466 BC4B     		ldr	r3, .L70
 2684 1468 93F8BD33 		ldrb	r3, [r3, #957]	@ zero_extendqisi2
 2685 146c 0433     		adds	r3, r3, #4
 2686 146e 9A42     		cmp	r2, r3
 2687 1470 D6DB     		blt	.L43
 2688              	.LBE12:
 262:PumpCom.c     ****             }
 263:PumpCom.c     ****             
 264:PumpCom.c     ****             side.d.ProcessedTotals[((side.d.MepsanStore[4])&0x0F)-1][TotalRequestType][0] = (side.d
 2689              		.loc 1 264 0 is_stmt 1
 2690 1472 B94B     		ldr	r3, .L70
 2691 1474 93F8BE33 		ldrb	r3, [r3, #958]	@ zero_extendqisi2
 2692 1478 03F00F03 		and	r3, r3, #15
 2693 147c 591E     		subs	r1, r3, #1
 2694 147e B74B     		ldr	r3, .L70+4
 2695 1480 1B78     		ldrb	r3, [r3]	@ zero_extendqisi2
 2696 1482 1D46     		mov	r5, r3
 2697 1484 B44B     		ldr	r3, .L70
 2698 1486 93F8BE33 		ldrb	r3, [r3, #958]	@ zero_extendqisi2
 2699 148a 03F00F03 		and	r3, r3, #15
 2700 148e 581E     		subs	r0, r3, #1
 2701 1490 B24B     		ldr	r3, .L70+4
 2702 1492 1B78     		ldrb	r3, [r3]	@ zero_extendqisi2
 2703 1494 B04C     		ldr	r4, .L70
 2704 1496 1A46     		mov	r2, r3
 2705 1498 9200     		lsls	r2, r2, #2
 2706 149a 1A44     		add	r2, r2, r3
 2707 149c 0346     		mov	r3, r0
 2708 149e 9B00     		lsls	r3, r3, #2
 2709 14a0 0344     		add	r3, r3, r0
 2710 14a2 5B00     		lsls	r3, r3, #1
 2711 14a4 1344     		add	r3, r3, r2
 2712 14a6 2344     		add	r3, r3, r4
 2713 14a8 03F26A33 		addw	r3, r3, #874
 2714 14ac 1B78     		ldrb	r3, [r3]	@ zero_extendqisi2
 2715 14ae 1B09     		lsrs	r3, r3, #4
 2716 14b0 DBB2     		uxtb	r3, r3
 2717 14b2 3033     		adds	r3, r3, #48
 2718 14b4 DCB2     		uxtb	r4, r3
 2719 14b6 A848     		ldr	r0, .L70
 2720 14b8 2A46     		mov	r2, r5
 2721 14ba 9200     		lsls	r2, r2, #2
 2722 14bc 2A44     		add	r2, r2, r5
 2723 14be 5300     		lsls	r3, r2, #1
 2724 14c0 1A46     		mov	r2, r3
 2725 14c2 0B46     		mov	r3, r1
 2726 14c4 1B01     		lsls	r3, r3, #4
 2727 14c6 5B1A     		subs	r3, r3, r1
 2728 14c8 5B00     		lsls	r3, r3, #1
 2729 14ca 1344     		add	r3, r3, r2
 2730 14cc 0344     		add	r3, r3, r0
ARM GAS  C:\Users\Lenovo\AppData\Local\Temp\ccP94fx0.s 			page 54


 2731 14ce 03F57B73 		add	r3, r3, #1004
 2732 14d2 2246     		mov	r2, r4
 2733 14d4 1A70     		strb	r2, [r3]
 265:PumpCom.c     ****             side.d.ProcessedTotals[((side.d.MepsanStore[4])&0x0F)-1][TotalRequestType][1] = (side.d
 2734              		.loc 1 265 0
 2735 14d6 A04B     		ldr	r3, .L70
 2736 14d8 93F8BE33 		ldrb	r3, [r3, #958]	@ zero_extendqisi2
 2737 14dc 03F00F03 		and	r3, r3, #15
 2738 14e0 591E     		subs	r1, r3, #1
 2739 14e2 9E4B     		ldr	r3, .L70+4
 2740 14e4 1B78     		ldrb	r3, [r3]	@ zero_extendqisi2
 2741 14e6 1D46     		mov	r5, r3
 2742 14e8 9B4B     		ldr	r3, .L70
 2743 14ea 93F8BE33 		ldrb	r3, [r3, #958]	@ zero_extendqisi2
 2744 14ee 03F00F03 		and	r3, r3, #15
 2745 14f2 581E     		subs	r0, r3, #1
 2746 14f4 994B     		ldr	r3, .L70+4
 2747 14f6 1B78     		ldrb	r3, [r3]	@ zero_extendqisi2
 2748 14f8 974C     		ldr	r4, .L70
 2749 14fa 1A46     		mov	r2, r3
 2750 14fc 9200     		lsls	r2, r2, #2
 2751 14fe 1A44     		add	r2, r2, r3
 2752 1500 0346     		mov	r3, r0
 2753 1502 9B00     		lsls	r3, r3, #2
 2754 1504 0344     		add	r3, r3, r0
 2755 1506 5B00     		lsls	r3, r3, #1
 2756 1508 1344     		add	r3, r3, r2
 2757 150a 2344     		add	r3, r3, r4
 2758 150c 03F26A33 		addw	r3, r3, #874
 2759 1510 1B78     		ldrb	r3, [r3]	@ zero_extendqisi2
 2760 1512 03F00F03 		and	r3, r3, #15
 2761 1516 DBB2     		uxtb	r3, r3
 2762 1518 3033     		adds	r3, r3, #48
 2763 151a DCB2     		uxtb	r4, r3
 2764 151c 8E48     		ldr	r0, .L70
 2765 151e 2A46     		mov	r2, r5
 2766 1520 9200     		lsls	r2, r2, #2
 2767 1522 2A44     		add	r2, r2, r5
 2768 1524 5300     		lsls	r3, r2, #1
 2769 1526 1A46     		mov	r2, r3
 2770 1528 0B46     		mov	r3, r1
 2771 152a 1B01     		lsls	r3, r3, #4
 2772 152c 5B1A     		subs	r3, r3, r1
 2773 152e 5B00     		lsls	r3, r3, #1
 2774 1530 1344     		add	r3, r3, r2
 2775 1532 0344     		add	r3, r3, r0
 2776 1534 03F2ED33 		addw	r3, r3, #1005
 2777 1538 2246     		mov	r2, r4
 2778 153a 1A70     		strb	r2, [r3]
 266:PumpCom.c     ****             side.d.ProcessedTotals[((side.d.MepsanStore[4])&0x0F)-1][TotalRequestType][2] = (side.d
 2779              		.loc 1 266 0
 2780 153c 864B     		ldr	r3, .L70
 2781 153e 93F8BE33 		ldrb	r3, [r3, #958]	@ zero_extendqisi2
 2782 1542 03F00F03 		and	r3, r3, #15
 2783 1546 591E     		subs	r1, r3, #1
 2784 1548 844B     		ldr	r3, .L70+4
 2785 154a 1B78     		ldrb	r3, [r3]	@ zero_extendqisi2
ARM GAS  C:\Users\Lenovo\AppData\Local\Temp\ccP94fx0.s 			page 55


 2786 154c 1D46     		mov	r5, r3
 2787 154e 824B     		ldr	r3, .L70
 2788 1550 93F8BE33 		ldrb	r3, [r3, #958]	@ zero_extendqisi2
 2789 1554 03F00F03 		and	r3, r3, #15
 2790 1558 581E     		subs	r0, r3, #1
 2791 155a 804B     		ldr	r3, .L70+4
 2792 155c 1B78     		ldrb	r3, [r3]	@ zero_extendqisi2
 2793 155e 7E4C     		ldr	r4, .L70
 2794 1560 1A46     		mov	r2, r3
 2795 1562 9200     		lsls	r2, r2, #2
 2796 1564 1A44     		add	r2, r2, r3
 2797 1566 0346     		mov	r3, r0
 2798 1568 9B00     		lsls	r3, r3, #2
 2799 156a 0344     		add	r3, r3, r0
 2800 156c 5B00     		lsls	r3, r3, #1
 2801 156e 1344     		add	r3, r3, r2
 2802 1570 2344     		add	r3, r3, r4
 2803 1572 03F26B33 		addw	r3, r3, #875
 2804 1576 1B78     		ldrb	r3, [r3]	@ zero_extendqisi2
 2805 1578 1B09     		lsrs	r3, r3, #4
 2806 157a DBB2     		uxtb	r3, r3
 2807 157c 3033     		adds	r3, r3, #48
 2808 157e DCB2     		uxtb	r4, r3
 2809 1580 7548     		ldr	r0, .L70
 2810 1582 2A46     		mov	r2, r5
 2811 1584 9200     		lsls	r2, r2, #2
 2812 1586 2A44     		add	r2, r2, r5
 2813 1588 5300     		lsls	r3, r2, #1
 2814 158a 1A46     		mov	r2, r3
 2815 158c 0B46     		mov	r3, r1
 2816 158e 1B01     		lsls	r3, r3, #4
 2817 1590 5B1A     		subs	r3, r3, r1
 2818 1592 5B00     		lsls	r3, r3, #1
 2819 1594 1344     		add	r3, r3, r2
 2820 1596 0344     		add	r3, r3, r0
 2821 1598 03F2EE33 		addw	r3, r3, #1006
 2822 159c 2246     		mov	r2, r4
 2823 159e 1A70     		strb	r2, [r3]
 267:PumpCom.c     ****             side.d.ProcessedTotals[((side.d.MepsanStore[4])&0x0F)-1][TotalRequestType][3] = (side.d
 2824              		.loc 1 267 0
 2825 15a0 6D4B     		ldr	r3, .L70
 2826 15a2 93F8BE33 		ldrb	r3, [r3, #958]	@ zero_extendqisi2
 2827 15a6 03F00F03 		and	r3, r3, #15
 2828 15aa 591E     		subs	r1, r3, #1
 2829 15ac 6B4B     		ldr	r3, .L70+4
 2830 15ae 1B78     		ldrb	r3, [r3]	@ zero_extendqisi2
 2831 15b0 1D46     		mov	r5, r3
 2832 15b2 694B     		ldr	r3, .L70
 2833 15b4 93F8BE33 		ldrb	r3, [r3, #958]	@ zero_extendqisi2
 2834 15b8 03F00F03 		and	r3, r3, #15
 2835 15bc 581E     		subs	r0, r3, #1
 2836 15be 674B     		ldr	r3, .L70+4
 2837 15c0 1B78     		ldrb	r3, [r3]	@ zero_extendqisi2
 2838 15c2 654C     		ldr	r4, .L70
 2839 15c4 1A46     		mov	r2, r3
 2840 15c6 9200     		lsls	r2, r2, #2
 2841 15c8 1A44     		add	r2, r2, r3
ARM GAS  C:\Users\Lenovo\AppData\Local\Temp\ccP94fx0.s 			page 56


 2842 15ca 0346     		mov	r3, r0
 2843 15cc 9B00     		lsls	r3, r3, #2
 2844 15ce 0344     		add	r3, r3, r0
 2845 15d0 5B00     		lsls	r3, r3, #1
 2846 15d2 1344     		add	r3, r3, r2
 2847 15d4 2344     		add	r3, r3, r4
 2848 15d6 03F26B33 		addw	r3, r3, #875
 2849 15da 1B78     		ldrb	r3, [r3]	@ zero_extendqisi2
 2850 15dc 03F00F03 		and	r3, r3, #15
 2851 15e0 DBB2     		uxtb	r3, r3
 2852 15e2 3033     		adds	r3, r3, #48
 2853 15e4 DCB2     		uxtb	r4, r3
 2854 15e6 5C48     		ldr	r0, .L70
 2855 15e8 2A46     		mov	r2, r5
 2856 15ea 9200     		lsls	r2, r2, #2
 2857 15ec 2A44     		add	r2, r2, r5
 2858 15ee 5300     		lsls	r3, r2, #1
 2859 15f0 1A46     		mov	r2, r3
 2860 15f2 0B46     		mov	r3, r1
 2861 15f4 1B01     		lsls	r3, r3, #4
 2862 15f6 5B1A     		subs	r3, r3, r1
 2863 15f8 5B00     		lsls	r3, r3, #1
 2864 15fa 1344     		add	r3, r3, r2
 2865 15fc 0344     		add	r3, r3, r0
 2866 15fe 03F2EF33 		addw	r3, r3, #1007
 2867 1602 2246     		mov	r2, r4
 2868 1604 1A70     		strb	r2, [r3]
 268:PumpCom.c     ****             side.d.ProcessedTotals[((side.d.MepsanStore[4])&0x0F)-1][TotalRequestType][4] = (side.d
 2869              		.loc 1 268 0
 2870 1606 544B     		ldr	r3, .L70
 2871 1608 93F8BE33 		ldrb	r3, [r3, #958]	@ zero_extendqisi2
 2872 160c 03F00F03 		and	r3, r3, #15
 2873 1610 591E     		subs	r1, r3, #1
 2874 1612 524B     		ldr	r3, .L70+4
 2875 1614 1B78     		ldrb	r3, [r3]	@ zero_extendqisi2
 2876 1616 1D46     		mov	r5, r3
 2877 1618 4F4B     		ldr	r3, .L70
 2878 161a 93F8BE33 		ldrb	r3, [r3, #958]	@ zero_extendqisi2
 2879 161e 03F00F03 		and	r3, r3, #15
 2880 1622 581E     		subs	r0, r3, #1
 2881 1624 4D4B     		ldr	r3, .L70+4
 2882 1626 1B78     		ldrb	r3, [r3]	@ zero_extendqisi2
 2883 1628 4B4C     		ldr	r4, .L70
 2884 162a 1A46     		mov	r2, r3
 2885 162c 9200     		lsls	r2, r2, #2
 2886 162e 1A44     		add	r2, r2, r3
 2887 1630 0346     		mov	r3, r0
 2888 1632 9B00     		lsls	r3, r3, #2
 2889 1634 0344     		add	r3, r3, r0
 2890 1636 5B00     		lsls	r3, r3, #1
 2891 1638 1344     		add	r3, r3, r2
 2892 163a 2344     		add	r3, r3, r4
 2893 163c 03F55B73 		add	r3, r3, #876
 2894 1640 1B78     		ldrb	r3, [r3]	@ zero_extendqisi2
 2895 1642 1B09     		lsrs	r3, r3, #4
 2896 1644 DBB2     		uxtb	r3, r3
 2897 1646 3033     		adds	r3, r3, #48
ARM GAS  C:\Users\Lenovo\AppData\Local\Temp\ccP94fx0.s 			page 57


 2898 1648 DCB2     		uxtb	r4, r3
 2899 164a 4348     		ldr	r0, .L70
 2900 164c 2A46     		mov	r2, r5
 2901 164e 9200     		lsls	r2, r2, #2
 2902 1650 2A44     		add	r2, r2, r5
 2903 1652 5300     		lsls	r3, r2, #1
 2904 1654 1A46     		mov	r2, r3
 2905 1656 0B46     		mov	r3, r1
 2906 1658 1B01     		lsls	r3, r3, #4
 2907 165a 5B1A     		subs	r3, r3, r1
 2908 165c 5B00     		lsls	r3, r3, #1
 2909 165e 1344     		add	r3, r3, r2
 2910 1660 0344     		add	r3, r3, r0
 2911 1662 03F57C73 		add	r3, r3, #1008
 2912 1666 2246     		mov	r2, r4
 2913 1668 1A70     		strb	r2, [r3]
 269:PumpCom.c     ****             side.d.ProcessedTotals[((side.d.MepsanStore[4])&0x0F)-1][TotalRequestType][5] = (side.d
 2914              		.loc 1 269 0
 2915 166a 3B4B     		ldr	r3, .L70
 2916 166c 93F8BE33 		ldrb	r3, [r3, #958]	@ zero_extendqisi2
 2917 1670 03F00F03 		and	r3, r3, #15
 2918 1674 591E     		subs	r1, r3, #1
 2919 1676 394B     		ldr	r3, .L70+4
 2920 1678 1B78     		ldrb	r3, [r3]	@ zero_extendqisi2
 2921 167a 1D46     		mov	r5, r3
 2922 167c 364B     		ldr	r3, .L70
 2923 167e 93F8BE33 		ldrb	r3, [r3, #958]	@ zero_extendqisi2
 2924 1682 03F00F03 		and	r3, r3, #15
 2925 1686 581E     		subs	r0, r3, #1
 2926 1688 344B     		ldr	r3, .L70+4
 2927 168a 1B78     		ldrb	r3, [r3]	@ zero_extendqisi2
 2928 168c 324C     		ldr	r4, .L70
 2929 168e 1A46     		mov	r2, r3
 2930 1690 9200     		lsls	r2, r2, #2
 2931 1692 1A44     		add	r2, r2, r3
 2932 1694 0346     		mov	r3, r0
 2933 1696 9B00     		lsls	r3, r3, #2
 2934 1698 0344     		add	r3, r3, r0
 2935 169a 5B00     		lsls	r3, r3, #1
 2936 169c 1344     		add	r3, r3, r2
 2937 169e 2344     		add	r3, r3, r4
 2938 16a0 03F55B73 		add	r3, r3, #876
 2939 16a4 1B78     		ldrb	r3, [r3]	@ zero_extendqisi2
 2940 16a6 03F00F03 		and	r3, r3, #15
 2941 16aa DBB2     		uxtb	r3, r3
 2942 16ac 3033     		adds	r3, r3, #48
 2943 16ae DCB2     		uxtb	r4, r3
 2944 16b0 2948     		ldr	r0, .L70
 2945 16b2 2A46     		mov	r2, r5
 2946 16b4 9200     		lsls	r2, r2, #2
 2947 16b6 2A44     		add	r2, r2, r5
 2948 16b8 5300     		lsls	r3, r2, #1
 2949 16ba 1A46     		mov	r2, r3
 2950 16bc 0B46     		mov	r3, r1
 2951 16be 1B01     		lsls	r3, r3, #4
 2952 16c0 5B1A     		subs	r3, r3, r1
 2953 16c2 5B00     		lsls	r3, r3, #1
ARM GAS  C:\Users\Lenovo\AppData\Local\Temp\ccP94fx0.s 			page 58


 2954 16c4 1344     		add	r3, r3, r2
 2955 16c6 0344     		add	r3, r3, r0
 2956 16c8 03F2F133 		addw	r3, r3, #1009
 2957 16cc 2246     		mov	r2, r4
 2958 16ce 1A70     		strb	r2, [r3]
 270:PumpCom.c     ****             side.d.ProcessedTotals[((side.d.MepsanStore[4])&0x0F)-1][TotalRequestType][6] = (side.d
 2959              		.loc 1 270 0
 2960 16d0 214B     		ldr	r3, .L70
 2961 16d2 93F8BE33 		ldrb	r3, [r3, #958]	@ zero_extendqisi2
 2962 16d6 03F00F03 		and	r3, r3, #15
 2963 16da 591E     		subs	r1, r3, #1
 2964 16dc 1F4B     		ldr	r3, .L70+4
 2965 16de 1B78     		ldrb	r3, [r3]	@ zero_extendqisi2
 2966 16e0 1D46     		mov	r5, r3
 2967 16e2 1D4B     		ldr	r3, .L70
 2968 16e4 93F8BE33 		ldrb	r3, [r3, #958]	@ zero_extendqisi2
 2969 16e8 03F00F03 		and	r3, r3, #15
 2970 16ec 581E     		subs	r0, r3, #1
 2971 16ee 1B4B     		ldr	r3, .L70+4
 2972 16f0 1B78     		ldrb	r3, [r3]	@ zero_extendqisi2
 2973 16f2 194C     		ldr	r4, .L70
 2974 16f4 1A46     		mov	r2, r3
 2975 16f6 9200     		lsls	r2, r2, #2
 2976 16f8 1A44     		add	r2, r2, r3
 2977 16fa 0346     		mov	r3, r0
 2978 16fc 9B00     		lsls	r3, r3, #2
 2979 16fe 0344     		add	r3, r3, r0
 2980 1700 5B00     		lsls	r3, r3, #1
 2981 1702 1344     		add	r3, r3, r2
 2982 1704 2344     		add	r3, r3, r4
 2983 1706 03F26D33 		addw	r3, r3, #877
 2984 170a 1B78     		ldrb	r3, [r3]	@ zero_extendqisi2
 2985 170c 1B09     		lsrs	r3, r3, #4
 2986 170e DBB2     		uxtb	r3, r3
 2987 1710 3033     		adds	r3, r3, #48
 2988 1712 DCB2     		uxtb	r4, r3
 2989 1714 1048     		ldr	r0, .L70
 2990 1716 2A46     		mov	r2, r5
 2991 1718 9200     		lsls	r2, r2, #2
 2992 171a 2A44     		add	r2, r2, r5
 2993 171c 5300     		lsls	r3, r2, #1
 2994 171e 1A46     		mov	r2, r3
 2995 1720 0B46     		mov	r3, r1
 2996 1722 1B01     		lsls	r3, r3, #4
 2997 1724 5B1A     		subs	r3, r3, r1
 2998 1726 5B00     		lsls	r3, r3, #1
 2999 1728 1344     		add	r3, r3, r2
 3000 172a 0344     		add	r3, r3, r0
 3001 172c 03F2F233 		addw	r3, r3, #1010
 3002 1730 2246     		mov	r2, r4
 3003 1732 1A70     		strb	r2, [r3]
 271:PumpCom.c     ****             side.d.ProcessedTotals[((side.d.MepsanStore[4])&0x0F)-1][TotalRequestType][7] = (side.d
 3004              		.loc 1 271 0
 3005 1734 084B     		ldr	r3, .L70
 3006 1736 93F8BE33 		ldrb	r3, [r3, #958]	@ zero_extendqisi2
 3007 173a 03F00F03 		and	r3, r3, #15
 3008 173e 591E     		subs	r1, r3, #1
ARM GAS  C:\Users\Lenovo\AppData\Local\Temp\ccP94fx0.s 			page 59


 3009 1740 064B     		ldr	r3, .L70+4
 3010 1742 1B78     		ldrb	r3, [r3]	@ zero_extendqisi2
 3011 1744 1D46     		mov	r5, r3
 3012 1746 044B     		ldr	r3, .L70
 3013 1748 93F8BE33 		ldrb	r3, [r3, #958]	@ zero_extendqisi2
 3014 174c 03F00F03 		and	r3, r3, #15
 3015 1750 581E     		subs	r0, r3, #1
 3016 1752 024B     		ldr	r3, .L70+4
 3017 1754 1B78     		ldrb	r3, [r3]	@ zero_extendqisi2
 3018 1756 03E0     		b	.L71
 3019              	.L72:
 3020              		.align	2
 3021              	.L70:
 3022 1758 00000000 		.word	side
 3023 175c 00000000 		.word	TotalRequestType
 3024              	.L71:
 3025 1760 C04C     		ldr	r4, .L73
 3026 1762 1A46     		mov	r2, r3
 3027 1764 9200     		lsls	r2, r2, #2
 3028 1766 1A44     		add	r2, r2, r3
 3029 1768 0346     		mov	r3, r0
 3030 176a 9B00     		lsls	r3, r3, #2
 3031 176c 0344     		add	r3, r3, r0
 3032 176e 5B00     		lsls	r3, r3, #1
 3033 1770 1344     		add	r3, r3, r2
 3034 1772 2344     		add	r3, r3, r4
 3035 1774 03F26D33 		addw	r3, r3, #877
 3036 1778 1B78     		ldrb	r3, [r3]	@ zero_extendqisi2
 3037 177a 03F00F03 		and	r3, r3, #15
 3038 177e DBB2     		uxtb	r3, r3
 3039 1780 3033     		adds	r3, r3, #48
 3040 1782 DCB2     		uxtb	r4, r3
 3041 1784 B748     		ldr	r0, .L73
 3042 1786 2A46     		mov	r2, r5
 3043 1788 9200     		lsls	r2, r2, #2
 3044 178a 2A44     		add	r2, r2, r5
 3045 178c 5300     		lsls	r3, r2, #1
 3046 178e 1A46     		mov	r2, r3
 3047 1790 0B46     		mov	r3, r1
 3048 1792 1B01     		lsls	r3, r3, #4
 3049 1794 5B1A     		subs	r3, r3, r1
 3050 1796 5B00     		lsls	r3, r3, #1
 3051 1798 1344     		add	r3, r3, r2
 3052 179a 0344     		add	r3, r3, r0
 3053 179c 03F2F333 		addw	r3, r3, #1011
 3054 17a0 2246     		mov	r2, r4
 3055 17a2 1A70     		strb	r2, [r3]
 272:PumpCom.c     ****             side.d.ProcessedTotals[((side.d.MepsanStore[4])&0x0F)-1][TotalRequestType][8] = (side.d
 3056              		.loc 1 272 0
 3057 17a4 AF4B     		ldr	r3, .L73
 3058 17a6 93F8BE33 		ldrb	r3, [r3, #958]	@ zero_extendqisi2
 3059 17aa 03F00F03 		and	r3, r3, #15
 3060 17ae 591E     		subs	r1, r3, #1
 3061 17b0 AD4B     		ldr	r3, .L73+4
 3062 17b2 1B78     		ldrb	r3, [r3]	@ zero_extendqisi2
 3063 17b4 1D46     		mov	r5, r3
 3064 17b6 AB4B     		ldr	r3, .L73
ARM GAS  C:\Users\Lenovo\AppData\Local\Temp\ccP94fx0.s 			page 60


 3065 17b8 93F8BE33 		ldrb	r3, [r3, #958]	@ zero_extendqisi2
 3066 17bc 03F00F03 		and	r3, r3, #15
 3067 17c0 581E     		subs	r0, r3, #1
 3068 17c2 A94B     		ldr	r3, .L73+4
 3069 17c4 1B78     		ldrb	r3, [r3]	@ zero_extendqisi2
 3070 17c6 A74C     		ldr	r4, .L73
 3071 17c8 1A46     		mov	r2, r3
 3072 17ca 9200     		lsls	r2, r2, #2
 3073 17cc 1A44     		add	r2, r2, r3
 3074 17ce 0346     		mov	r3, r0
 3075 17d0 9B00     		lsls	r3, r3, #2
 3076 17d2 0344     		add	r3, r3, r0
 3077 17d4 5B00     		lsls	r3, r3, #1
 3078 17d6 1344     		add	r3, r3, r2
 3079 17d8 2344     		add	r3, r3, r4
 3080 17da 03F26E33 		addw	r3, r3, #878
 3081 17de 1B78     		ldrb	r3, [r3]	@ zero_extendqisi2
 3082 17e0 1B09     		lsrs	r3, r3, #4
 3083 17e2 DBB2     		uxtb	r3, r3
 3084 17e4 3033     		adds	r3, r3, #48
 3085 17e6 DCB2     		uxtb	r4, r3
 3086 17e8 9E48     		ldr	r0, .L73
 3087 17ea 2A46     		mov	r2, r5
 3088 17ec 9200     		lsls	r2, r2, #2
 3089 17ee 2A44     		add	r2, r2, r5
 3090 17f0 5300     		lsls	r3, r2, #1
 3091 17f2 1A46     		mov	r2, r3
 3092 17f4 0B46     		mov	r3, r1
 3093 17f6 1B01     		lsls	r3, r3, #4
 3094 17f8 5B1A     		subs	r3, r3, r1
 3095 17fa 5B00     		lsls	r3, r3, #1
 3096 17fc 1344     		add	r3, r3, r2
 3097 17fe 0344     		add	r3, r3, r0
 3098 1800 03F57D73 		add	r3, r3, #1012
 3099 1804 2246     		mov	r2, r4
 3100 1806 1A70     		strb	r2, [r3]
 273:PumpCom.c     ****             side.d.ProcessedTotals[((side.d.MepsanStore[4])&0x0F)-1][TotalRequestType][9] = (side.d
 3101              		.loc 1 273 0
 3102 1808 964B     		ldr	r3, .L73
 3103 180a 93F8BE33 		ldrb	r3, [r3, #958]	@ zero_extendqisi2
 3104 180e 03F00F03 		and	r3, r3, #15
 3105 1812 591E     		subs	r1, r3, #1
 3106 1814 944B     		ldr	r3, .L73+4
 3107 1816 1B78     		ldrb	r3, [r3]	@ zero_extendqisi2
 3108 1818 1D46     		mov	r5, r3
 3109 181a 924B     		ldr	r3, .L73
 3110 181c 93F8BE33 		ldrb	r3, [r3, #958]	@ zero_extendqisi2
 3111 1820 03F00F03 		and	r3, r3, #15
 3112 1824 581E     		subs	r0, r3, #1
 3113 1826 904B     		ldr	r3, .L73+4
 3114 1828 1B78     		ldrb	r3, [r3]	@ zero_extendqisi2
 3115 182a 8E4C     		ldr	r4, .L73
 3116 182c 1A46     		mov	r2, r3
 3117 182e 9200     		lsls	r2, r2, #2
 3118 1830 1A44     		add	r2, r2, r3
 3119 1832 0346     		mov	r3, r0
 3120 1834 9B00     		lsls	r3, r3, #2
ARM GAS  C:\Users\Lenovo\AppData\Local\Temp\ccP94fx0.s 			page 61


 3121 1836 0344     		add	r3, r3, r0
 3122 1838 5B00     		lsls	r3, r3, #1
 3123 183a 1344     		add	r3, r3, r2
 3124 183c 2344     		add	r3, r3, r4
 3125 183e 03F26E33 		addw	r3, r3, #878
 3126 1842 1B78     		ldrb	r3, [r3]	@ zero_extendqisi2
 3127 1844 03F00F03 		and	r3, r3, #15
 3128 1848 DBB2     		uxtb	r3, r3
 3129 184a 3033     		adds	r3, r3, #48
 3130 184c DCB2     		uxtb	r4, r3
 3131 184e 8548     		ldr	r0, .L73
 3132 1850 2A46     		mov	r2, r5
 3133 1852 9200     		lsls	r2, r2, #2
 3134 1854 2A44     		add	r2, r2, r5
 3135 1856 5300     		lsls	r3, r2, #1
 3136 1858 1A46     		mov	r2, r3
 3137 185a 0B46     		mov	r3, r1
 3138 185c 1B01     		lsls	r3, r3, #4
 3139 185e 5B1A     		subs	r3, r3, r1
 3140 1860 5B00     		lsls	r3, r3, #1
 3141 1862 1344     		add	r3, r3, r2
 3142 1864 0344     		add	r3, r3, r0
 3143 1866 03F2F533 		addw	r3, r3, #1013
 3144 186a 2246     		mov	r2, r4
 3145 186c 1A70     		strb	r2, [r3]
 274:PumpCom.c     ****             
 275:PumpCom.c     ****             EnablePin_Write (1u);
 3146              		.loc 1 275 0
 3147 186e 0120     		movs	r0, #1
 3148 1870 FFF7FEFF 		bl	EnablePin_Write
 276:PumpCom.c     ****             UART_1_PutChar((0x50|address));
 3149              		.loc 1 276 0
 3150 1874 BB78     		ldrb	r3, [r7, #2]
 3151 1876 43F05003 		orr	r3, r3, #80
 3152 187a DBB2     		uxtb	r3, r3
 3153 187c 1846     		mov	r0, r3
 3154 187e FFF7FEFF 		bl	UART_1_PutChar
 277:PumpCom.c     ****             UART_1_PutChar(0xC0|(side.d.MepsanStore[1]&0x0F));
 3155              		.loc 1 277 0
 3156 1882 784B     		ldr	r3, .L73
 3157 1884 93F8BB33 		ldrb	r3, [r3, #955]	@ zero_extendqisi2
 3158 1888 5BB2     		sxtb	r3, r3
 3159 188a 03F00F03 		and	r3, r3, #15
 3160 188e 5BB2     		sxtb	r3, r3
 3161 1890 63F03F03 		orn	r3, r3, #63
 3162 1894 5BB2     		sxtb	r3, r3
 3163 1896 DBB2     		uxtb	r3, r3
 3164 1898 1846     		mov	r0, r3
 3165 189a FFF7FEFF 		bl	UART_1_PutChar
 278:PumpCom.c     ****             UART_1_PutChar(0xFA); 
 3166              		.loc 1 278 0
 3167 189e FA20     		movs	r0, #250
 3168 18a0 FFF7FEFF 		bl	UART_1_PutChar
 279:PumpCom.c     ****             CyDelay(4);
 3169              		.loc 1 279 0
 3170 18a4 0420     		movs	r0, #4
 3171 18a6 FFF7FEFF 		bl	CyDelay
ARM GAS  C:\Users\Lenovo\AppData\Local\Temp\ccP94fx0.s 			page 62


 280:PumpCom.c     ****             EnablePin_Write (0u);
 3172              		.loc 1 280 0
 3173 18aa 0020     		movs	r0, #0
 3174 18ac FFF7FEFF 		bl	EnablePin_Write
 3175              	.L41:
 281:PumpCom.c     ****         }
 282:PumpCom.c     ****         if(side.d.MepsanStore[2] == 0x02){
 3176              		.loc 1 282 0
 3177 18b0 6C4B     		ldr	r3, .L73
 3178 18b2 93F8BC33 		ldrb	r3, [r3, #956]	@ zero_extendqisi2
 3179 18b6 022B     		cmp	r3, #2
 3180 18b8 40F0D080 		bne	.L46
 3181              	.LBB13:
 283:PumpCom.c     ****             for(uint8 x = 4; x < 8; x++ ){
 3182              		.loc 1 283 0
 3183 18bc 0423     		movs	r3, #4
 3184 18be 3B71     		strb	r3, [r7, #4]
 3185 18c0 1BE0     		b	.L44
 3186              	.L45:
 284:PumpCom.c     ****                 side.d.volumeSale[x-4] = side.d.MepsanStore[x];
 3187              		.loc 1 284 0 discriminator 3
 3188 18c2 3B79     		ldrb	r3, [r7, #4]	@ zero_extendqisi2
 3189 18c4 043B     		subs	r3, r3, #4
 3190 18c6 3A79     		ldrb	r2, [r7, #4]	@ zero_extendqisi2
 3191 18c8 6649     		ldr	r1, .L73
 3192 18ca 0A44     		add	r2, r2, r1
 3193 18cc 92F8BA13 		ldrb	r1, [r2, #954]	@ zero_extendqisi2
 3194 18d0 644A     		ldr	r2, .L73
 3195 18d2 1344     		add	r3, r3, r2
 3196 18d4 0A46     		mov	r2, r1
 3197 18d6 83F8A223 		strb	r2, [r3, #930]
 285:PumpCom.c     ****                 side.d.moneySale[x-4] = side.d.MepsanStore[x+4];
 3198              		.loc 1 285 0 discriminator 3
 3199 18da 3B79     		ldrb	r3, [r7, #4]	@ zero_extendqisi2
 3200 18dc 043B     		subs	r3, r3, #4
 3201 18de 3A79     		ldrb	r2, [r7, #4]	@ zero_extendqisi2
 3202 18e0 0432     		adds	r2, r2, #4
 3203 18e2 6049     		ldr	r1, .L73
 3204 18e4 0A44     		add	r2, r2, r1
 3205 18e6 92F8BA13 		ldrb	r1, [r2, #954]	@ zero_extendqisi2
 3206 18ea 5E4A     		ldr	r2, .L73
 3207 18ec 1344     		add	r3, r3, r2
 3208 18ee 0A46     		mov	r2, r1
 3209 18f0 83F89E23 		strb	r2, [r3, #926]
 283:PumpCom.c     ****             for(uint8 x = 4; x < 8; x++ ){
 3210              		.loc 1 283 0 discriminator 3
 3211 18f4 3B79     		ldrb	r3, [r7, #4]	@ zero_extendqisi2
 3212 18f6 0133     		adds	r3, r3, #1
 3213 18f8 3B71     		strb	r3, [r7, #4]
 3214              	.L44:
 283:PumpCom.c     ****             for(uint8 x = 4; x < 8; x++ ){
 3215              		.loc 1 283 0 is_stmt 0 discriminator 1
 3216 18fa 3B79     		ldrb	r3, [r7, #4]	@ zero_extendqisi2
 3217 18fc 072B     		cmp	r3, #7
 3218 18fe E0D9     		bls	.L45
 3219              	.LBE13:
 286:PumpCom.c     ****             }
ARM GAS  C:\Users\Lenovo\AppData\Local\Temp\ccP94fx0.s 			page 63


 287:PumpCom.c     ****             side.d.ProcessedvolumeSale[0] = (side.d.volumeSale[0]  >> 4) + 0x30;
 3220              		.loc 1 287 0 is_stmt 1
 3221 1900 584B     		ldr	r3, .L73
 3222 1902 93F8A233 		ldrb	r3, [r3, #930]	@ zero_extendqisi2
 3223 1906 1B09     		lsrs	r3, r3, #4
 3224 1908 DBB2     		uxtb	r3, r3
 3225 190a 3033     		adds	r3, r3, #48
 3226 190c DAB2     		uxtb	r2, r3
 3227 190e 554B     		ldr	r3, .L73
 3228 1910 83F86C24 		strb	r2, [r3, #1132]
 288:PumpCom.c     ****             side.d.ProcessedvolumeSale[1] = (side.d.volumeSale[0]  & 0x0F) + 0x30;
 3229              		.loc 1 288 0
 3230 1914 534B     		ldr	r3, .L73
 3231 1916 93F8A233 		ldrb	r3, [r3, #930]	@ zero_extendqisi2
 3232 191a 03F00F03 		and	r3, r3, #15
 3233 191e DBB2     		uxtb	r3, r3
 3234 1920 3033     		adds	r3, r3, #48
 3235 1922 DAB2     		uxtb	r2, r3
 3236 1924 4F4B     		ldr	r3, .L73
 3237 1926 83F86D24 		strb	r2, [r3, #1133]
 289:PumpCom.c     ****             side.d.ProcessedvolumeSale[2] = (side.d.volumeSale[1]  >> 4) + 0x30;
 3238              		.loc 1 289 0
 3239 192a 4E4B     		ldr	r3, .L73
 3240 192c 93F8A333 		ldrb	r3, [r3, #931]	@ zero_extendqisi2
 3241 1930 1B09     		lsrs	r3, r3, #4
 3242 1932 DBB2     		uxtb	r3, r3
 3243 1934 3033     		adds	r3, r3, #48
 3244 1936 DAB2     		uxtb	r2, r3
 3245 1938 4A4B     		ldr	r3, .L73
 3246 193a 83F86E24 		strb	r2, [r3, #1134]
 290:PumpCom.c     ****             side.d.ProcessedvolumeSale[3] = (side.d.volumeSale[1]  & 0x0F) + 0x30;
 3247              		.loc 1 290 0
 3248 193e 494B     		ldr	r3, .L73
 3249 1940 93F8A333 		ldrb	r3, [r3, #931]	@ zero_extendqisi2
 3250 1944 03F00F03 		and	r3, r3, #15
 3251 1948 DBB2     		uxtb	r3, r3
 3252 194a 3033     		adds	r3, r3, #48
 3253 194c DAB2     		uxtb	r2, r3
 3254 194e 454B     		ldr	r3, .L73
 3255 1950 83F86F24 		strb	r2, [r3, #1135]
 291:PumpCom.c     ****             side.d.ProcessedvolumeSale[4] = (side.d.volumeSale[2]  >> 4) + 0x30;
 3256              		.loc 1 291 0
 3257 1954 434B     		ldr	r3, .L73
 3258 1956 93F8A433 		ldrb	r3, [r3, #932]	@ zero_extendqisi2
 3259 195a 1B09     		lsrs	r3, r3, #4
 3260 195c DBB2     		uxtb	r3, r3
 3261 195e 3033     		adds	r3, r3, #48
 3262 1960 DAB2     		uxtb	r2, r3
 3263 1962 404B     		ldr	r3, .L73
 3264 1964 83F87024 		strb	r2, [r3, #1136]
 292:PumpCom.c     ****             side.d.ProcessedvolumeSale[5] = (side.d.volumeSale[2]  & 0x0F) + 0x30;
 3265              		.loc 1 292 0
 3266 1968 3E4B     		ldr	r3, .L73
 3267 196a 93F8A433 		ldrb	r3, [r3, #932]	@ zero_extendqisi2
 3268 196e 03F00F03 		and	r3, r3, #15
 3269 1972 DBB2     		uxtb	r3, r3
 3270 1974 3033     		adds	r3, r3, #48
ARM GAS  C:\Users\Lenovo\AppData\Local\Temp\ccP94fx0.s 			page 64


 3271 1976 DAB2     		uxtb	r2, r3
 3272 1978 3A4B     		ldr	r3, .L73
 3273 197a 83F87124 		strb	r2, [r3, #1137]
 293:PumpCom.c     ****             side.d.ProcessedvolumeSale[6] = (side.d.volumeSale[3]  >> 4) + 0x30;
 3274              		.loc 1 293 0
 3275 197e 394B     		ldr	r3, .L73
 3276 1980 93F8A533 		ldrb	r3, [r3, #933]	@ zero_extendqisi2
 3277 1984 1B09     		lsrs	r3, r3, #4
 3278 1986 DBB2     		uxtb	r3, r3
 3279 1988 3033     		adds	r3, r3, #48
 3280 198a DAB2     		uxtb	r2, r3
 3281 198c 354B     		ldr	r3, .L73
 3282 198e 83F87224 		strb	r2, [r3, #1138]
 294:PumpCom.c     ****             side.d.ProcessedvolumeSale[7] = (side.d.volumeSale[3]  & 0x0F) + 0x30;
 3283              		.loc 1 294 0
 3284 1992 344B     		ldr	r3, .L73
 3285 1994 93F8A533 		ldrb	r3, [r3, #933]	@ zero_extendqisi2
 3286 1998 03F00F03 		and	r3, r3, #15
 3287 199c DBB2     		uxtb	r3, r3
 3288 199e 3033     		adds	r3, r3, #48
 3289 19a0 DAB2     		uxtb	r2, r3
 3290 19a2 304B     		ldr	r3, .L73
 3291 19a4 83F87324 		strb	r2, [r3, #1139]
 295:PumpCom.c     ****             
 296:PumpCom.c     ****             side.d.ProcessedmoneySale[0] = (side.d.moneySale[0]  >> 4) + 0x30;
 3292              		.loc 1 296 0
 3293 19a8 2E4B     		ldr	r3, .L73
 3294 19aa 93F89E33 		ldrb	r3, [r3, #926]	@ zero_extendqisi2
 3295 19ae 1B09     		lsrs	r3, r3, #4
 3296 19b0 DBB2     		uxtb	r3, r3
 3297 19b2 3033     		adds	r3, r3, #48
 3298 19b4 DAB2     		uxtb	r2, r3
 3299 19b6 2B4B     		ldr	r3, .L73
 3300 19b8 83F86424 		strb	r2, [r3, #1124]
 297:PumpCom.c     ****             side.d.ProcessedmoneySale[1] = (side.d.moneySale[0]  & 0x0F) + 0x30;
 3301              		.loc 1 297 0
 3302 19bc 294B     		ldr	r3, .L73
 3303 19be 93F89E33 		ldrb	r3, [r3, #926]	@ zero_extendqisi2
 3304 19c2 03F00F03 		and	r3, r3, #15
 3305 19c6 DBB2     		uxtb	r3, r3
 3306 19c8 3033     		adds	r3, r3, #48
 3307 19ca DAB2     		uxtb	r2, r3
 3308 19cc 254B     		ldr	r3, .L73
 3309 19ce 83F86524 		strb	r2, [r3, #1125]
 298:PumpCom.c     ****             side.d.ProcessedmoneySale[2] = (side.d.moneySale[1]  >> 4) + 0x30;
 3310              		.loc 1 298 0
 3311 19d2 244B     		ldr	r3, .L73
 3312 19d4 93F89F33 		ldrb	r3, [r3, #927]	@ zero_extendqisi2
 3313 19d8 1B09     		lsrs	r3, r3, #4
 3314 19da DBB2     		uxtb	r3, r3
 3315 19dc 3033     		adds	r3, r3, #48
 3316 19de DAB2     		uxtb	r2, r3
 3317 19e0 204B     		ldr	r3, .L73
 3318 19e2 83F86624 		strb	r2, [r3, #1126]
 299:PumpCom.c     ****             side.d.ProcessedmoneySale[3] = (side.d.moneySale[1]  & 0x0F) + 0x30;
 3319              		.loc 1 299 0
 3320 19e6 1F4B     		ldr	r3, .L73
ARM GAS  C:\Users\Lenovo\AppData\Local\Temp\ccP94fx0.s 			page 65


 3321 19e8 93F89F33 		ldrb	r3, [r3, #927]	@ zero_extendqisi2
 3322 19ec 03F00F03 		and	r3, r3, #15
 3323 19f0 DBB2     		uxtb	r3, r3
 3324 19f2 3033     		adds	r3, r3, #48
 3325 19f4 DAB2     		uxtb	r2, r3
 3326 19f6 1B4B     		ldr	r3, .L73
 3327 19f8 83F86724 		strb	r2, [r3, #1127]
 300:PumpCom.c     ****             side.d.ProcessedmoneySale[4] = (side.d.moneySale[2]  >> 4) + 0x30;
 3328              		.loc 1 300 0
 3329 19fc 194B     		ldr	r3, .L73
 3330 19fe 93F8A033 		ldrb	r3, [r3, #928]	@ zero_extendqisi2
 3331 1a02 1B09     		lsrs	r3, r3, #4
 3332 1a04 DBB2     		uxtb	r3, r3
 3333 1a06 3033     		adds	r3, r3, #48
 3334 1a08 DAB2     		uxtb	r2, r3
 3335 1a0a 164B     		ldr	r3, .L73
 3336 1a0c 83F86824 		strb	r2, [r3, #1128]
 301:PumpCom.c     ****             side.d.ProcessedmoneySale[5] = (side.d.moneySale[2]  & 0x0F) + 0x30;
 3337              		.loc 1 301 0
 3338 1a10 144B     		ldr	r3, .L73
 3339 1a12 93F8A033 		ldrb	r3, [r3, #928]	@ zero_extendqisi2
 3340 1a16 03F00F03 		and	r3, r3, #15
 3341 1a1a DBB2     		uxtb	r3, r3
 3342 1a1c 3033     		adds	r3, r3, #48
 3343 1a1e DAB2     		uxtb	r2, r3
 3344 1a20 104B     		ldr	r3, .L73
 3345 1a22 83F86924 		strb	r2, [r3, #1129]
 302:PumpCom.c     ****             side.d.ProcessedmoneySale[6] = (side.d.moneySale[3]  >> 4) + 0x30;
 3346              		.loc 1 302 0
 3347 1a26 0F4B     		ldr	r3, .L73
 3348 1a28 93F8A133 		ldrb	r3, [r3, #929]	@ zero_extendqisi2
 3349 1a2c 1B09     		lsrs	r3, r3, #4
 3350 1a2e DBB2     		uxtb	r3, r3
 3351 1a30 3033     		adds	r3, r3, #48
 3352 1a32 DAB2     		uxtb	r2, r3
 3353 1a34 0B4B     		ldr	r3, .L73
 3354 1a36 83F86A24 		strb	r2, [r3, #1130]
 303:PumpCom.c     ****             side.d.ProcessedmoneySale[7] = (side.d.moneySale[3]  & 0x0F) + 0x30;
 3355              		.loc 1 303 0
 3356 1a3a 0A4B     		ldr	r3, .L73
 3357 1a3c 93F8A133 		ldrb	r3, [r3, #929]	@ zero_extendqisi2
 3358 1a40 03F00F03 		and	r3, r3, #15
 3359 1a44 DBB2     		uxtb	r3, r3
 3360 1a46 3033     		adds	r3, r3, #48
 3361 1a48 DAB2     		uxtb	r2, r3
 3362 1a4a 064B     		ldr	r3, .L73
 3363 1a4c 83F86B24 		strb	r2, [r3, #1131]
 304:PumpCom.c     ****             
 305:PumpCom.c     ****             Receipt = 4;
 3364              		.loc 1 305 0
 3365 1a50 064B     		ldr	r3, .L73+8
 3366 1a52 0422     		movs	r2, #4
 3367 1a54 1A70     		strb	r2, [r3]
 306:PumpCom.c     ****             EnablePin_Write (0u);
 3368              		.loc 1 306 0
 3369 1a56 0020     		movs	r0, #0
 3370 1a58 FFF7FEFF 		bl	EnablePin_Write
ARM GAS  C:\Users\Lenovo\AppData\Local\Temp\ccP94fx0.s 			page 66


 3371              	.L46:
 307:PumpCom.c     ****         }
 308:PumpCom.c     ****     } 
 309:PumpCom.c     **** }
 3372              		.loc 1 309 0
 3373 1a5c 00BF     		nop
 3374 1a5e 1437     		adds	r7, r7, #20
 3375              		.cfi_def_cfa_offset 20
 3376 1a60 BD46     		mov	sp, r7
 3377              		.cfi_def_cfa_register 13
 3378              		@ sp needed
 3379 1a62 F0BD     		pop	{r4, r5, r6, r7, pc}
 3380              	.L74:
 3381              		.align	2
 3382              	.L73:
 3383 1a64 00000000 		.word	side
 3384 1a68 00000000 		.word	TotalRequestType
 3385 1a6c 00000000 		.word	Receipt
 3386              		.cfi_endproc
 3387              	.LFE64:
 3388              		.size	GetResponse, .-GetResponse
 3389              		.section	.text.GetAddress,"ax",%progbits
 3390              		.align	2
 3391              		.global	GetAddress
 3392              		.thumb
 3393              		.thumb_func
 3394              		.type	GetAddress, %function
 3395              	GetAddress:
 3396              	.LFB65:
 310:PumpCom.c     **** 
 311:PumpCom.c     **** /*******************************************************************************
 312:PumpCom.c     **** * Function Name: GetAddress
 313:PumpCom.c     **** ********************************************************************************
 314:PumpCom.c     **** *
 315:PumpCom.c     **** *
 316:PumpCom.c     **** *******************************************************************************/
 317:PumpCom.c     **** uint8 GetAddress (uint8 pos){     
 3397              		.loc 1 317 0
 3398              		.cfi_startproc
 3399              		@ args = 0, pretend = 0, frame = 16
 3400              		@ frame_needed = 1, uses_anonymous_args = 0
 3401 0000 90B5     		push	{r4, r7, lr}
 3402              		.cfi_def_cfa_offset 12
 3403              		.cfi_offset 4, -12
 3404              		.cfi_offset 7, -8
 3405              		.cfi_offset 14, -4
 3406 0002 85B0     		sub	sp, sp, #20
 3407              		.cfi_def_cfa_offset 32
 3408 0004 00AF     		add	r7, sp, #0
 3409              		.cfi_def_cfa_register 7
 3410 0006 0346     		mov	r3, r0
 3411 0008 FB71     		strb	r3, [r7, #7]
 318:PumpCom.c     ****     side.a.dir = 0xFF;
 3412              		.loc 1 318 0
 3413 000a 274B     		ldr	r3, .L80
 3414 000c FF22     		movs	r2, #255
 3415 000e 1A70     		strb	r2, [r3]
ARM GAS  C:\Users\Lenovo\AppData\Local\Temp\ccP94fx0.s 			page 67


 319:PumpCom.c     ****     side.b.dir = 0xFF;
 3416              		.loc 1 319 0
 3417 0010 254B     		ldr	r3, .L80
 3418 0012 FF22     		movs	r2, #255
 3419 0014 83F82321 		strb	r2, [r3, #291]
 320:PumpCom.c     ****     side.c.dir = 0xFF;
 3420              		.loc 1 320 0
 3421 0018 234B     		ldr	r3, .L80
 3422 001a FF22     		movs	r2, #255
 3423 001c 83F84622 		strb	r2, [r3, #582]
 321:PumpCom.c     ****     side.d.dir = 0xFF;
 3424              		.loc 1 321 0
 3425 0020 214B     		ldr	r3, .L80
 3426 0022 FF22     		movs	r2, #255
 3427 0024 83F86923 		strb	r2, [r3, #873]
 322:PumpCom.c     ****     uint8 size;
 323:PumpCom.c     ****     EnablePin_Write (1u);
 3428              		.loc 1 323 0
 3429 0028 0120     		movs	r0, #1
 3430 002a FFF7FEFF 		bl	EnablePin_Write
 324:PumpCom.c     ****     UART_1_PutChar((0x50|pos));
 3431              		.loc 1 324 0
 3432 002e FB79     		ldrb	r3, [r7, #7]
 3433 0030 43F05003 		orr	r3, r3, #80
 3434 0034 DBB2     		uxtb	r3, r3
 3435 0036 1846     		mov	r0, r3
 3436 0038 FFF7FEFF 		bl	UART_1_PutChar
 325:PumpCom.c     ****     UART_1_PutChar(0x20);
 3437              		.loc 1 325 0
 3438 003c 2020     		movs	r0, #32
 3439 003e FFF7FEFF 		bl	UART_1_PutChar
 326:PumpCom.c     ****     UART_1_PutChar(0xFA); 
 3440              		.loc 1 326 0
 3441 0042 FA20     		movs	r0, #250
 3442 0044 FFF7FEFF 		bl	UART_1_PutChar
 327:PumpCom.c     ****     CyDelay(4);
 3443              		.loc 1 327 0
 3444 0048 0420     		movs	r0, #4
 3445 004a FFF7FEFF 		bl	CyDelay
 328:PumpCom.c     ****     EnablePin_Write (0u);
 3446              		.loc 1 328 0
 3447 004e 0020     		movs	r0, #0
 3448 0050 FFF7FEFF 		bl	EnablePin_Write
 329:PumpCom.c     ****     size = UART_1_GetRxBufferSize();
 3449              		.loc 1 329 0
 3450 0054 FFF7FEFF 		bl	UART_1_GetRxBufferSize
 3451 0058 0346     		mov	r3, r0
 3452 005a BB73     		strb	r3, [r7, #14]
 3453              	.LBB14:
 330:PumpCom.c     ****     for(uint8 MepRx = 0; MepRx < size; MepRx++){
 3454              		.loc 1 330 0
 3455 005c 0023     		movs	r3, #0
 3456 005e FB73     		strb	r3, [r7, #15]
 3457 0060 09E0     		b	.L76
 3458              	.L77:
 331:PumpCom.c     ****        MepsanResponse[MepRx] = UART_1_ReadRxData();        
 3459              		.loc 1 331 0 discriminator 3
ARM GAS  C:\Users\Lenovo\AppData\Local\Temp\ccP94fx0.s 			page 68


 3460 0062 FC7B     		ldrb	r4, [r7, #15]	@ zero_extendqisi2
 3461 0064 FFF7FEFF 		bl	UART_1_ReadRxData
 3462 0068 0346     		mov	r3, r0
 3463 006a 1A46     		mov	r2, r3
 3464 006c 0F4B     		ldr	r3, .L80+4
 3465 006e 1A55     		strb	r2, [r3, r4]
 330:PumpCom.c     ****     for(uint8 MepRx = 0; MepRx < size; MepRx++){
 3466              		.loc 1 330 0 discriminator 3
 3467 0070 FB7B     		ldrb	r3, [r7, #15]	@ zero_extendqisi2
 3468 0072 0133     		adds	r3, r3, #1
 3469 0074 FB73     		strb	r3, [r7, #15]
 3470              	.L76:
 330:PumpCom.c     ****     for(uint8 MepRx = 0; MepRx < size; MepRx++){
 3471              		.loc 1 330 0 is_stmt 0 discriminator 1
 3472 0076 FA7B     		ldrb	r2, [r7, #15]	@ zero_extendqisi2
 3473 0078 BB7B     		ldrb	r3, [r7, #14]	@ zero_extendqisi2
 3474 007a 9A42     		cmp	r2, r3
 3475 007c F1D3     		bcc	.L77
 3476              	.LBE14:
 332:PumpCom.c     ****     }
 333:PumpCom.c     ****     UART_1_ClearRxBuffer(); 
 3477              		.loc 1 333 0 is_stmt 1
 3478 007e FFF7FEFF 		bl	UART_1_ClearRxBuffer
 334:PumpCom.c     ****     CyDelay(300); 
 3479              		.loc 1 334 0
 3480 0082 4FF49670 		mov	r0, #300
 3481 0086 FFF7FEFF 		bl	CyDelay
 335:PumpCom.c     ****     if(size>=1){              
 3482              		.loc 1 335 0
 3483 008a BB7B     		ldrb	r3, [r7, #14]	@ zero_extendqisi2
 3484 008c 002B     		cmp	r3, #0
 3485 008e 05D0     		beq	.L78
 336:PumpCom.c     ****         return MepsanResponse[0] & 0x0F;
 3486              		.loc 1 336 0
 3487 0090 064B     		ldr	r3, .L80+4
 3488 0092 1B78     		ldrb	r3, [r3]	@ zero_extendqisi2
 3489 0094 03F00F03 		and	r3, r3, #15
 3490 0098 DBB2     		uxtb	r3, r3
 3491 009a 00E0     		b	.L79
 3492              	.L78:
 337:PumpCom.c     ****         
 338:PumpCom.c     ****     }else{
 339:PumpCom.c     ****        return 0xFF;
 3493              		.loc 1 339 0
 3494 009c FF23     		movs	r3, #255
 3495              	.L79:
 340:PumpCom.c     ****     }
 341:PumpCom.c     **** }
 3496              		.loc 1 341 0
 3497 009e 1846     		mov	r0, r3
 3498 00a0 1437     		adds	r7, r7, #20
 3499              		.cfi_def_cfa_offset 12
 3500 00a2 BD46     		mov	sp, r7
 3501              		.cfi_def_cfa_register 13
 3502              		@ sp needed
 3503 00a4 90BD     		pop	{r4, r7, pc}
 3504              	.L81:
ARM GAS  C:\Users\Lenovo\AppData\Local\Temp\ccP94fx0.s 			page 69


 3505 00a6 00BF     		.align	2
 3506              	.L80:
 3507 00a8 00000000 		.word	side
 3508 00ac 00000000 		.word	MepsanResponse
 3509              		.cfi_endproc
 3510              	.LFE65:
 3511              		.size	GetAddress, .-GetAddress
 3512              		.section	.text.Authorize,"ax",%progbits
 3513              		.align	2
 3514              		.global	Authorize
 3515              		.thumb
 3516              		.thumb_func
 3517              		.type	Authorize, %function
 3518              	Authorize:
 3519              	.LFB66:
 342:PumpCom.c     **** 
 343:PumpCom.c     **** 
 344:PumpCom.c     **** /*******************************************************************************
 345:PumpCom.c     **** * Function Name: ReturnStatus
 346:PumpCom.c     **** ********************************************************************************
 347:PumpCom.c     **** *
 348:PumpCom.c     **** *
 349:PumpCom.c     **** *******************************************************************************/
 350:PumpCom.c     **** uint8 Authorize(uint8 address){
 3520              		.loc 1 350 0
 3521              		.cfi_startproc
 3522              		@ args = 0, pretend = 0, frame = 16
 3523              		@ frame_needed = 1, uses_anonymous_args = 0
 3524 0000 80B5     		push	{r7, lr}
 3525              		.cfi_def_cfa_offset 8
 3526              		.cfi_offset 7, -8
 3527              		.cfi_offset 14, -4
 3528 0002 84B0     		sub	sp, sp, #16
 3529              		.cfi_def_cfa_offset 24
 3530 0004 00AF     		add	r7, sp, #0
 3531              		.cfi_def_cfa_register 7
 3532 0006 0346     		mov	r3, r0
 3533 0008 FB71     		strb	r3, [r7, #7]
 3534              	.LBB15:
 351:PumpCom.c     ****     uint8 size, status;    
 352:PumpCom.c     ****     for(uint8 x = 0; x < 50; x ++){
 3535              		.loc 1 352 0
 3536 000a 0023     		movs	r3, #0
 3537 000c FB73     		strb	r3, [r7, #15]
 3538 000e 06E0     		b	.L83
 3539              	.L84:
 353:PumpCom.c     ****         MepsanSendTo[x] = 0x00;
 3540              		.loc 1 353 0 discriminator 3
 3541 0010 FB7B     		ldrb	r3, [r7, #15]	@ zero_extendqisi2
 3542 0012 2E4A     		ldr	r2, .L88
 3543 0014 0021     		movs	r1, #0
 3544 0016 D154     		strb	r1, [r2, r3]
 352:PumpCom.c     ****         MepsanSendTo[x] = 0x00;
 3545              		.loc 1 352 0 discriminator 3
 3546 0018 FB7B     		ldrb	r3, [r7, #15]	@ zero_extendqisi2
 3547 001a 0133     		adds	r3, r3, #1
 3548 001c FB73     		strb	r3, [r7, #15]
ARM GAS  C:\Users\Lenovo\AppData\Local\Temp\ccP94fx0.s 			page 70


 3549              	.L83:
 352:PumpCom.c     ****         MepsanSendTo[x] = 0x00;
 3550              		.loc 1 352 0 is_stmt 0 discriminator 1
 3551 001e FB7B     		ldrb	r3, [r7, #15]	@ zero_extendqisi2
 3552 0020 312B     		cmp	r3, #49
 3553 0022 F5D9     		bls	.L84
 3554              	.LBE15:
 354:PumpCom.c     ****     }
 355:PumpCom.c     ****     EnablePin_Write (1u);
 3555              		.loc 1 355 0 is_stmt 1
 3556 0024 0120     		movs	r0, #1
 3557 0026 FFF7FEFF 		bl	EnablePin_Write
 356:PumpCom.c     ****     MepsanSendTo[0] = (0x50|address);
 3558              		.loc 1 356 0
 3559 002a FB79     		ldrb	r3, [r7, #7]
 3560 002c 43F05003 		orr	r3, r3, #80
 3561 0030 DAB2     		uxtb	r2, r3
 3562 0032 264B     		ldr	r3, .L88
 3563 0034 1A70     		strb	r2, [r3]
 357:PumpCom.c     ****     MepsanSendTo[1] = (0x30);
 3564              		.loc 1 357 0
 3565 0036 254B     		ldr	r3, .L88
 3566 0038 3022     		movs	r2, #48
 3567 003a 5A70     		strb	r2, [r3, #1]
 358:PumpCom.c     ****     MepsanSendTo[2] = (0x01);
 3568              		.loc 1 358 0
 3569 003c 234B     		ldr	r3, .L88
 3570 003e 0122     		movs	r2, #1
 3571 0040 9A70     		strb	r2, [r3, #2]
 359:PumpCom.c     ****     MepsanSendTo[3] = (0x01);
 3572              		.loc 1 359 0
 3573 0042 224B     		ldr	r3, .L88
 3574 0044 0122     		movs	r2, #1
 3575 0046 DA70     		strb	r2, [r3, #3]
 360:PumpCom.c     ****     MepsanSendTo[4] = (MEPSAN_AUTHORIZE);
 3576              		.loc 1 360 0
 3577 0048 204B     		ldr	r3, .L88
 3578 004a 0622     		movs	r2, #6
 3579 004c 1A71     		strb	r2, [r3, #4]
 361:PumpCom.c     ****     CRC    = gen_crc16(MepsanSendTo,5);
 3580              		.loc 1 361 0
 3581 004e 0521     		movs	r1, #5
 3582 0050 1E48     		ldr	r0, .L88
 3583 0052 FFF7FEFF 		bl	gen_crc16
 3584 0056 0346     		mov	r3, r0
 3585 0058 1A46     		mov	r2, r3
 3586 005a 1D4B     		ldr	r3, .L88+4
 3587 005c 1A80     		strh	r2, [r3]	@ movhi
 362:PumpCom.c     ****     crc_hi = (CRC & 0xFF00) >> 8;
 3588              		.loc 1 362 0
 3589 005e 1C4B     		ldr	r3, .L88+4
 3590 0060 1B88     		ldrh	r3, [r3]
 3591 0062 1B0A     		lsrs	r3, r3, #8
 3592 0064 9BB2     		uxth	r3, r3
 3593 0066 DAB2     		uxtb	r2, r3
 3594 0068 1A4B     		ldr	r3, .L88+8
 3595 006a 1A70     		strb	r2, [r3]
ARM GAS  C:\Users\Lenovo\AppData\Local\Temp\ccP94fx0.s 			page 71


 363:PumpCom.c     ****     crc_lo = (CRC & 0x00FF) ;
 3596              		.loc 1 363 0
 3597 006c 184B     		ldr	r3, .L88+4
 3598 006e 1B88     		ldrh	r3, [r3]
 3599 0070 DAB2     		uxtb	r2, r3
 3600 0072 194B     		ldr	r3, .L88+12
 3601 0074 1A70     		strb	r2, [r3]
 364:PumpCom.c     ****     MepsanSendTo[5] = crc_lo;
 3602              		.loc 1 364 0
 3603 0076 184B     		ldr	r3, .L88+12
 3604 0078 1A78     		ldrb	r2, [r3]	@ zero_extendqisi2
 3605 007a 144B     		ldr	r3, .L88
 3606 007c 5A71     		strb	r2, [r3, #5]
 365:PumpCom.c     ****     MepsanSendTo[6] = crc_hi;
 3607              		.loc 1 365 0
 3608 007e 154B     		ldr	r3, .L88+8
 3609 0080 1A78     		ldrb	r2, [r3]	@ zero_extendqisi2
 3610 0082 124B     		ldr	r3, .L88
 3611 0084 9A71     		strb	r2, [r3, #6]
 366:PumpCom.c     ****     MepsanSendTo[7] = 0x03;
 3612              		.loc 1 366 0
 3613 0086 114B     		ldr	r3, .L88
 3614 0088 0322     		movs	r2, #3
 3615 008a DA71     		strb	r2, [r3, #7]
 367:PumpCom.c     ****     MepsanSendTo[8] = 0xFA;
 3616              		.loc 1 367 0
 3617 008c 0F4B     		ldr	r3, .L88
 3618 008e FA22     		movs	r2, #250
 3619 0090 1A72     		strb	r2, [r3, #8]
 3620              	.LBB16:
 368:PumpCom.c     ****     for(uint8 x = 0; x <= 9; x++){    
 3621              		.loc 1 368 0
 3622 0092 0023     		movs	r3, #0
 3623 0094 BB73     		strb	r3, [r7, #14]
 3624 0096 08E0     		b	.L85
 3625              	.L86:
 369:PumpCom.c     ****         UART_1_PutChar(MepsanSendTo[x]);
 3626              		.loc 1 369 0 discriminator 3
 3627 0098 BB7B     		ldrb	r3, [r7, #14]	@ zero_extendqisi2
 3628 009a 0C4A     		ldr	r2, .L88
 3629 009c D35C     		ldrb	r3, [r2, r3]	@ zero_extendqisi2
 3630 009e 1846     		mov	r0, r3
 3631 00a0 FFF7FEFF 		bl	UART_1_PutChar
 368:PumpCom.c     ****     for(uint8 x = 0; x <= 9; x++){    
 3632              		.loc 1 368 0 discriminator 3
 3633 00a4 BB7B     		ldrb	r3, [r7, #14]	@ zero_extendqisi2
 3634 00a6 0133     		adds	r3, r3, #1
 3635 00a8 BB73     		strb	r3, [r7, #14]
 3636              	.L85:
 368:PumpCom.c     ****     for(uint8 x = 0; x <= 9; x++){    
 3637              		.loc 1 368 0 is_stmt 0 discriminator 1
 3638 00aa BB7B     		ldrb	r3, [r7, #14]	@ zero_extendqisi2
 3639 00ac 092B     		cmp	r3, #9
 3640 00ae F3D9     		bls	.L86
 3641              	.LBE16:
 370:PumpCom.c     ****     }
 371:PumpCom.c     ****     CyDelay(4);
ARM GAS  C:\Users\Lenovo\AppData\Local\Temp\ccP94fx0.s 			page 72


 3642              		.loc 1 371 0 is_stmt 1
 3643 00b0 0420     		movs	r0, #4
 3644 00b2 FFF7FEFF 		bl	CyDelay
 372:PumpCom.c     ****     EnablePin_Write (0u);
 3645              		.loc 1 372 0
 3646 00b6 0020     		movs	r0, #0
 3647 00b8 FFF7FEFF 		bl	EnablePin_Write
 373:PumpCom.c     ****     CyDelay(200);
 3648              		.loc 1 373 0
 3649 00bc C820     		movs	r0, #200
 3650 00be FFF7FEFF 		bl	CyDelay
 374:PumpCom.c     ****     return status;
 3651              		.loc 1 374 0
 3652 00c2 7B7B     		ldrb	r3, [r7, #13]	@ zero_extendqisi2
 375:PumpCom.c     **** }
 3653              		.loc 1 375 0
 3654 00c4 1846     		mov	r0, r3
 3655 00c6 1037     		adds	r7, r7, #16
 3656              		.cfi_def_cfa_offset 8
 3657 00c8 BD46     		mov	sp, r7
 3658              		.cfi_def_cfa_register 13
 3659              		@ sp needed
 3660 00ca 80BD     		pop	{r7, pc}
 3661              	.L89:
 3662              		.align	2
 3663              	.L88:
 3664 00cc 00000000 		.word	MepsanSendTo
 3665 00d0 00000000 		.word	CRC
 3666 00d4 00000000 		.word	crc_hi
 3667 00d8 00000000 		.word	crc_lo
 3668              		.cfi_endproc
 3669              	.LFE66:
 3670              		.size	Authorize, .-Authorize
 3671              		.section	.text.ReturnStatus,"ax",%progbits
 3672              		.align	2
 3673              		.global	ReturnStatus
 3674              		.thumb
 3675              		.thumb_func
 3676              		.type	ReturnStatus, %function
 3677              	ReturnStatus:
 3678              	.LFB67:
 376:PumpCom.c     **** 
 377:PumpCom.c     **** /*******************************************************************************
 378:PumpCom.c     **** * Function Name: ReturnStatus
 379:PumpCom.c     **** ********************************************************************************
 380:PumpCom.c     **** *
 381:PumpCom.c     **** *
 382:PumpCom.c     **** *******************************************************************************/
 383:PumpCom.c     **** uint8 ReturnStatus(uint8 address){
 3679              		.loc 1 383 0
 3680              		.cfi_startproc
 3681              		@ args = 0, pretend = 0, frame = 16
 3682              		@ frame_needed = 1, uses_anonymous_args = 0
 3683 0000 90B5     		push	{r4, r7, lr}
 3684              		.cfi_def_cfa_offset 12
 3685              		.cfi_offset 4, -12
 3686              		.cfi_offset 7, -8
ARM GAS  C:\Users\Lenovo\AppData\Local\Temp\ccP94fx0.s 			page 73


 3687              		.cfi_offset 14, -4
 3688 0002 85B0     		sub	sp, sp, #20
 3689              		.cfi_def_cfa_offset 32
 3690 0004 00AF     		add	r7, sp, #0
 3691              		.cfi_def_cfa_register 7
 3692 0006 0346     		mov	r3, r0
 3693 0008 FB71     		strb	r3, [r7, #7]
 3694              	.LBB17:
 384:PumpCom.c     ****     uint8 size, status;    
 385:PumpCom.c     ****     for(uint8 x = 0; x < 50; x ++){
 3695              		.loc 1 385 0
 3696 000a 0023     		movs	r3, #0
 3697 000c FB73     		strb	r3, [r7, #15]
 3698 000e 06E0     		b	.L91
 3699              	.L92:
 386:PumpCom.c     ****         MepsanSendTo[x] = 0x00;
 3700              		.loc 1 386 0 discriminator 3
 3701 0010 FB7B     		ldrb	r3, [r7, #15]	@ zero_extendqisi2
 3702 0012 3B4A     		ldr	r2, .L98
 3703 0014 0021     		movs	r1, #0
 3704 0016 D154     		strb	r1, [r2, r3]
 385:PumpCom.c     ****         MepsanSendTo[x] = 0x00;
 3705              		.loc 1 385 0 discriminator 3
 3706 0018 FB7B     		ldrb	r3, [r7, #15]	@ zero_extendqisi2
 3707 001a 0133     		adds	r3, r3, #1
 3708 001c FB73     		strb	r3, [r7, #15]
 3709              	.L91:
 385:PumpCom.c     ****         MepsanSendTo[x] = 0x00;
 3710              		.loc 1 385 0 is_stmt 0 discriminator 1
 3711 001e FB7B     		ldrb	r3, [r7, #15]	@ zero_extendqisi2
 3712 0020 312B     		cmp	r3, #49
 3713 0022 F5D9     		bls	.L92
 3714              	.LBE17:
 387:PumpCom.c     ****     }
 388:PumpCom.c     ****     EnablePin_Write (1u);
 3715              		.loc 1 388 0 is_stmt 1
 3716 0024 0120     		movs	r0, #1
 3717 0026 FFF7FEFF 		bl	EnablePin_Write
 389:PumpCom.c     ****     MepsanSendTo[0] = (0x50|address);
 3718              		.loc 1 389 0
 3719 002a FB79     		ldrb	r3, [r7, #7]
 3720 002c 43F05003 		orr	r3, r3, #80
 3721 0030 DAB2     		uxtb	r2, r3
 3722 0032 334B     		ldr	r3, .L98
 3723 0034 1A70     		strb	r2, [r3]
 390:PumpCom.c     ****     MepsanSendTo[1] = (0x30);
 3724              		.loc 1 390 0
 3725 0036 324B     		ldr	r3, .L98
 3726 0038 3022     		movs	r2, #48
 3727 003a 5A70     		strb	r2, [r3, #1]
 391:PumpCom.c     ****     MepsanSendTo[2] = (address + 1);
 3728              		.loc 1 391 0
 3729 003c FB79     		ldrb	r3, [r7, #7]
 3730 003e 0133     		adds	r3, r3, #1
 3731 0040 DAB2     		uxtb	r2, r3
 3732 0042 2F4B     		ldr	r3, .L98
 3733 0044 9A70     		strb	r2, [r3, #2]
ARM GAS  C:\Users\Lenovo\AppData\Local\Temp\ccP94fx0.s 			page 74


 392:PumpCom.c     ****     MepsanSendTo[3] = (0x01);
 3734              		.loc 1 392 0
 3735 0046 2E4B     		ldr	r3, .L98
 3736 0048 0122     		movs	r2, #1
 3737 004a DA70     		strb	r2, [r3, #3]
 393:PumpCom.c     ****     MepsanSendTo[4] = (MEPSAN_STATE);
 3738              		.loc 1 393 0
 3739 004c 2C4B     		ldr	r3, .L98
 3740 004e 0022     		movs	r2, #0
 3741 0050 1A71     		strb	r2, [r3, #4]
 394:PumpCom.c     ****     CRC    = gen_crc16(MepsanSendTo,5);
 3742              		.loc 1 394 0
 3743 0052 0521     		movs	r1, #5
 3744 0054 2A48     		ldr	r0, .L98
 3745 0056 FFF7FEFF 		bl	gen_crc16
 3746 005a 0346     		mov	r3, r0
 3747 005c 1A46     		mov	r2, r3
 3748 005e 294B     		ldr	r3, .L98+4
 3749 0060 1A80     		strh	r2, [r3]	@ movhi
 395:PumpCom.c     ****     crc_hi = (CRC & 0xFF00) >> 8;
 3750              		.loc 1 395 0
 3751 0062 284B     		ldr	r3, .L98+4
 3752 0064 1B88     		ldrh	r3, [r3]
 3753 0066 1B0A     		lsrs	r3, r3, #8
 3754 0068 9BB2     		uxth	r3, r3
 3755 006a DAB2     		uxtb	r2, r3
 3756 006c 264B     		ldr	r3, .L98+8
 3757 006e 1A70     		strb	r2, [r3]
 396:PumpCom.c     ****     crc_lo = (CRC & 0x00FF) ;
 3758              		.loc 1 396 0
 3759 0070 244B     		ldr	r3, .L98+4
 3760 0072 1B88     		ldrh	r3, [r3]
 3761 0074 DAB2     		uxtb	r2, r3
 3762 0076 254B     		ldr	r3, .L98+12
 3763 0078 1A70     		strb	r2, [r3]
 397:PumpCom.c     ****     MepsanSendTo[5] = crc_lo;
 3764              		.loc 1 397 0
 3765 007a 244B     		ldr	r3, .L98+12
 3766 007c 1A78     		ldrb	r2, [r3]	@ zero_extendqisi2
 3767 007e 204B     		ldr	r3, .L98
 3768 0080 5A71     		strb	r2, [r3, #5]
 398:PumpCom.c     ****     MepsanSendTo[6] = crc_hi;
 3769              		.loc 1 398 0
 3770 0082 214B     		ldr	r3, .L98+8
 3771 0084 1A78     		ldrb	r2, [r3]	@ zero_extendqisi2
 3772 0086 1E4B     		ldr	r3, .L98
 3773 0088 9A71     		strb	r2, [r3, #6]
 399:PumpCom.c     ****     MepsanSendTo[7] = 0x03;
 3774              		.loc 1 399 0
 3775 008a 1D4B     		ldr	r3, .L98
 3776 008c 0322     		movs	r2, #3
 3777 008e DA71     		strb	r2, [r3, #7]
 400:PumpCom.c     ****     MepsanSendTo[8] = 0xFA;
 3778              		.loc 1 400 0
 3779 0090 1B4B     		ldr	r3, .L98
 3780 0092 FA22     		movs	r2, #250
 3781 0094 1A72     		strb	r2, [r3, #8]
ARM GAS  C:\Users\Lenovo\AppData\Local\Temp\ccP94fx0.s 			page 75


 3782              	.LBB18:
 401:PumpCom.c     ****     for(uint8 x = 0; x <= 9; x++){    
 3783              		.loc 1 401 0
 3784 0096 0023     		movs	r3, #0
 3785 0098 BB73     		strb	r3, [r7, #14]
 3786 009a 08E0     		b	.L93
 3787              	.L94:
 402:PumpCom.c     ****         UART_1_PutChar(MepsanSendTo[x]);
 3788              		.loc 1 402 0 discriminator 3
 3789 009c BB7B     		ldrb	r3, [r7, #14]	@ zero_extendqisi2
 3790 009e 184A     		ldr	r2, .L98
 3791 00a0 D35C     		ldrb	r3, [r2, r3]	@ zero_extendqisi2
 3792 00a2 1846     		mov	r0, r3
 3793 00a4 FFF7FEFF 		bl	UART_1_PutChar
 401:PumpCom.c     ****     for(uint8 x = 0; x <= 9; x++){    
 3794              		.loc 1 401 0 discriminator 3
 3795 00a8 BB7B     		ldrb	r3, [r7, #14]	@ zero_extendqisi2
 3796 00aa 0133     		adds	r3, r3, #1
 3797 00ac BB73     		strb	r3, [r7, #14]
 3798              	.L93:
 401:PumpCom.c     ****     for(uint8 x = 0; x <= 9; x++){    
 3799              		.loc 1 401 0 is_stmt 0 discriminator 1
 3800 00ae BB7B     		ldrb	r3, [r7, #14]	@ zero_extendqisi2
 3801 00b0 092B     		cmp	r3, #9
 3802 00b2 F3D9     		bls	.L94
 3803              	.LBE18:
 403:PumpCom.c     ****     }
 404:PumpCom.c     ****     CyDelay(4);
 3804              		.loc 1 404 0 is_stmt 1
 3805 00b4 0420     		movs	r0, #4
 3806 00b6 FFF7FEFF 		bl	CyDelay
 405:PumpCom.c     ****     EnablePin_Write (0u);
 3807              		.loc 1 405 0
 3808 00ba 0020     		movs	r0, #0
 3809 00bc FFF7FEFF 		bl	EnablePin_Write
 406:PumpCom.c     ****     size = UART_1_GetRxBufferSize();
 3810              		.loc 1 406 0
 3811 00c0 FFF7FEFF 		bl	UART_1_GetRxBufferSize
 3812 00c4 0346     		mov	r3, r0
 3813 00c6 3B73     		strb	r3, [r7, #12]
 3814              	.LBB19:
 407:PumpCom.c     ****     for(uint8 MepRx = 0; MepRx < size; MepRx++){
 3815              		.loc 1 407 0
 3816 00c8 0023     		movs	r3, #0
 3817 00ca 7B73     		strb	r3, [r7, #13]
 3818 00cc 09E0     		b	.L95
 3819              	.L96:
 408:PumpCom.c     ****         MepsanResponse[MepRx] = UART_1_ReadRxData();
 3820              		.loc 1 408 0 discriminator 3
 3821 00ce 7C7B     		ldrb	r4, [r7, #13]	@ zero_extendqisi2
 3822 00d0 FFF7FEFF 		bl	UART_1_ReadRxData
 3823 00d4 0346     		mov	r3, r0
 3824 00d6 1A46     		mov	r2, r3
 3825 00d8 0D4B     		ldr	r3, .L98+16
 3826 00da 1A55     		strb	r2, [r3, r4]
 407:PumpCom.c     ****     for(uint8 MepRx = 0; MepRx < size; MepRx++){
 3827              		.loc 1 407 0 discriminator 3
ARM GAS  C:\Users\Lenovo\AppData\Local\Temp\ccP94fx0.s 			page 76


 3828 00dc 7B7B     		ldrb	r3, [r7, #13]	@ zero_extendqisi2
 3829 00de 0133     		adds	r3, r3, #1
 3830 00e0 7B73     		strb	r3, [r7, #13]
 3831              	.L95:
 407:PumpCom.c     ****     for(uint8 MepRx = 0; MepRx < size; MepRx++){
 3832              		.loc 1 407 0 is_stmt 0 discriminator 1
 3833 00e2 7A7B     		ldrb	r2, [r7, #13]	@ zero_extendqisi2
 3834 00e4 3B7B     		ldrb	r3, [r7, #12]	@ zero_extendqisi2
 3835 00e6 9A42     		cmp	r2, r3
 3836 00e8 F1D3     		bcc	.L96
 3837              	.LBE19:
 409:PumpCom.c     ****     }       
 410:PumpCom.c     ****     UART_1_ClearRxBuffer();
 3838              		.loc 1 410 0 is_stmt 1
 3839 00ea FFF7FEFF 		bl	UART_1_ClearRxBuffer
 411:PumpCom.c     ****     CyDelay(300); 
 3840              		.loc 1 411 0
 3841 00ee 4FF49670 		mov	r0, #300
 3842 00f2 FFF7FEFF 		bl	CyDelay
 412:PumpCom.c     ****     return status;
 3843              		.loc 1 412 0
 3844 00f6 FB7A     		ldrb	r3, [r7, #11]	@ zero_extendqisi2
 413:PumpCom.c     **** }
 3845              		.loc 1 413 0
 3846 00f8 1846     		mov	r0, r3
 3847 00fa 1437     		adds	r7, r7, #20
 3848              		.cfi_def_cfa_offset 12
 3849 00fc BD46     		mov	sp, r7
 3850              		.cfi_def_cfa_register 13
 3851              		@ sp needed
 3852 00fe 90BD     		pop	{r4, r7, pc}
 3853              	.L99:
 3854              		.align	2
 3855              	.L98:
 3856 0100 00000000 		.word	MepsanSendTo
 3857 0104 00000000 		.word	CRC
 3858 0108 00000000 		.word	crc_hi
 3859 010c 00000000 		.word	crc_lo
 3860 0110 00000000 		.word	MepsanResponse
 3861              		.cfi_endproc
 3862              	.LFE67:
 3863              		.size	ReturnStatus, .-ReturnStatus
 3864              		.section	.text.PumpState,"ax",%progbits
 3865              		.align	2
 3866              		.global	PumpState
 3867              		.thumb
 3868              		.thumb_func
 3869              		.type	PumpState, %function
 3870              	PumpState:
 3871              	.LFB68:
 414:PumpCom.c     **** 
 415:PumpCom.c     **** /*******************************************************************************
 416:PumpCom.c     **** * Function Name: PumpState
 417:PumpCom.c     **** ********************************************************************************
 418:PumpCom.c     **** *
 419:PumpCom.c     **** *
 420:PumpCom.c     **** *******************************************************************************/
ARM GAS  C:\Users\Lenovo\AppData\Local\Temp\ccP94fx0.s 			page 77


 421:PumpCom.c     **** 
 422:PumpCom.c     **** uint8 PumpState(uint8 address)
 423:PumpCom.c     **** { 
 3872              		.loc 1 423 0
 3873              		.cfi_startproc
 3874              		@ args = 0, pretend = 0, frame = 16
 3875              		@ frame_needed = 1, uses_anonymous_args = 0
 3876 0000 90B5     		push	{r4, r7, lr}
 3877              		.cfi_def_cfa_offset 12
 3878              		.cfi_offset 4, -12
 3879              		.cfi_offset 7, -8
 3880              		.cfi_offset 14, -4
 3881 0002 85B0     		sub	sp, sp, #20
 3882              		.cfi_def_cfa_offset 32
 3883 0004 00AF     		add	r7, sp, #0
 3884              		.cfi_def_cfa_register 7
 3885 0006 0346     		mov	r3, r0
 3886 0008 FB71     		strb	r3, [r7, #7]
 3887              	.LBB20:
 424:PumpCom.c     ****     for(uint8 x = 0; x < 50; x ++){
 3888              		.loc 1 424 0
 3889 000a 0023     		movs	r3, #0
 3890 000c FB73     		strb	r3, [r7, #15]
 3891 000e 06E0     		b	.L101
 3892              	.L102:
 425:PumpCom.c     ****         MepsanResponse[x] = 0x00;
 3893              		.loc 1 425 0 discriminator 3
 3894 0010 FB7B     		ldrb	r3, [r7, #15]	@ zero_extendqisi2
 3895 0012 5A4A     		ldr	r2, .L120
 3896 0014 0021     		movs	r1, #0
 3897 0016 D154     		strb	r1, [r2, r3]
 424:PumpCom.c     ****     for(uint8 x = 0; x < 50; x ++){
 3898              		.loc 1 424 0 discriminator 3
 3899 0018 FB7B     		ldrb	r3, [r7, #15]	@ zero_extendqisi2
 3900 001a 0133     		adds	r3, r3, #1
 3901 001c FB73     		strb	r3, [r7, #15]
 3902              	.L101:
 424:PumpCom.c     ****     for(uint8 x = 0; x < 50; x ++){
 3903              		.loc 1 424 0 is_stmt 0 discriminator 1
 3904 001e FB7B     		ldrb	r3, [r7, #15]	@ zero_extendqisi2
 3905 0020 312B     		cmp	r3, #49
 3906 0022 F5D9     		bls	.L102
 3907              	.LBE20:
 426:PumpCom.c     ****     }
 427:PumpCom.c     ****     uint8 size;
 428:PumpCom.c     ****     EnablePin_Write (1u);
 3908              		.loc 1 428 0 is_stmt 1
 3909 0024 0120     		movs	r0, #1
 3910 0026 FFF7FEFF 		bl	EnablePin_Write
 429:PumpCom.c     ****     UART_1_PutChar((0x50|address));
 3911              		.loc 1 429 0
 3912 002a FB79     		ldrb	r3, [r7, #7]
 3913 002c 43F05003 		orr	r3, r3, #80
 3914 0030 DBB2     		uxtb	r3, r3
 3915 0032 1846     		mov	r0, r3
 3916 0034 FFF7FEFF 		bl	UART_1_PutChar
 430:PumpCom.c     ****     UART_1_PutChar(0x20);
ARM GAS  C:\Users\Lenovo\AppData\Local\Temp\ccP94fx0.s 			page 78


 3917              		.loc 1 430 0
 3918 0038 2020     		movs	r0, #32
 3919 003a FFF7FEFF 		bl	UART_1_PutChar
 431:PumpCom.c     ****     UART_1_PutChar(0xFA); 
 3920              		.loc 1 431 0
 3921 003e FA20     		movs	r0, #250
 3922 0040 FFF7FEFF 		bl	UART_1_PutChar
 432:PumpCom.c     ****     CyDelay(3);
 3923              		.loc 1 432 0
 3924 0044 0320     		movs	r0, #3
 3925 0046 FFF7FEFF 		bl	CyDelay
 433:PumpCom.c     ****     EnablePin_Write (0u);
 3926              		.loc 1 433 0
 3927 004a 0020     		movs	r0, #0
 3928 004c FFF7FEFF 		bl	EnablePin_Write
 434:PumpCom.c     ****     size = UART_1_GetRxBufferSize();       
 3929              		.loc 1 434 0
 3930 0050 FFF7FEFF 		bl	UART_1_GetRxBufferSize
 3931 0054 0346     		mov	r3, r0
 3932 0056 7B72     		strb	r3, [r7, #9]
 3933              	.LBB21:
 435:PumpCom.c     ****     for(uint8 MepRx = 1; MepRx < size + 1; MepRx++){
 3934              		.loc 1 435 0
 3935 0058 0123     		movs	r3, #1
 3936 005a BB73     		strb	r3, [r7, #14]
 3937 005c 09E0     		b	.L103
 3938              	.L104:
 436:PumpCom.c     ****         MepsanResponse[MepRx] = UART_1_ReadRxData();
 3939              		.loc 1 436 0 discriminator 3
 3940 005e BC7B     		ldrb	r4, [r7, #14]	@ zero_extendqisi2
 3941 0060 FFF7FEFF 		bl	UART_1_ReadRxData
 3942 0064 0346     		mov	r3, r0
 3943 0066 1A46     		mov	r2, r3
 3944 0068 444B     		ldr	r3, .L120
 3945 006a 1A55     		strb	r2, [r3, r4]
 435:PumpCom.c     ****     for(uint8 MepRx = 1; MepRx < size + 1; MepRx++){
 3946              		.loc 1 435 0 discriminator 3
 3947 006c BB7B     		ldrb	r3, [r7, #14]	@ zero_extendqisi2
 3948 006e 0133     		adds	r3, r3, #1
 3949 0070 BB73     		strb	r3, [r7, #14]
 3950              	.L103:
 435:PumpCom.c     ****     for(uint8 MepRx = 1; MepRx < size + 1; MepRx++){
 3951              		.loc 1 435 0 is_stmt 0 discriminator 1
 3952 0072 BA7B     		ldrb	r2, [r7, #14]	@ zero_extendqisi2
 3953 0074 7B7A     		ldrb	r3, [r7, #9]	@ zero_extendqisi2
 3954 0076 0133     		adds	r3, r3, #1
 3955 0078 9A42     		cmp	r2, r3
 3956 007a F0DB     		blt	.L104
 3957              	.LBE21:
 437:PumpCom.c     ****     } 
 438:PumpCom.c     ****     MepsanResponse[0] = size;
 3958              		.loc 1 438 0 is_stmt 1
 3959 007c 3F4A     		ldr	r2, .L120
 3960 007e 7B7A     		ldrb	r3, [r7, #9]
 3961 0080 1370     		strb	r3, [r2]
 439:PumpCom.c     ****     UART_1_ClearRxBuffer();
 3962              		.loc 1 439 0
ARM GAS  C:\Users\Lenovo\AppData\Local\Temp\ccP94fx0.s 			page 79


 3963 0082 FFF7FEFF 		bl	UART_1_ClearRxBuffer
 440:PumpCom.c     ****     if(size > 3){
 3964              		.loc 1 440 0
 3965 0086 7B7A     		ldrb	r3, [r7, #9]	@ zero_extendqisi2
 3966 0088 032B     		cmp	r3, #3
 3967 008a 05D9     		bls	.L105
 441:PumpCom.c     ****         GetResponse();
 3968              		.loc 1 441 0
 3969 008c FFF7FEFF 		bl	GetResponse
 442:PumpCom.c     ****         CyDelay(100);
 3970              		.loc 1 442 0
 3971 0090 6420     		movs	r0, #100
 3972 0092 FFF7FEFF 		bl	CyDelay
 3973 0096 65E0     		b	.L106
 3974              	.L105:
 443:PumpCom.c     ****     }else{
 444:PumpCom.c     ****         CyDelay(100); 
 3975              		.loc 1 444 0
 3976 0098 6420     		movs	r0, #100
 3977 009a FFF7FEFF 		bl	CyDelay
 445:PumpCom.c     ****         if(address == side.a.dir){
 3978              		.loc 1 445 0
 3979 009e 384B     		ldr	r3, .L120+4
 3980 00a0 1B78     		ldrb	r3, [r3]	@ zero_extendqisi2
 3981 00a2 FA79     		ldrb	r2, [r7, #7]	@ zero_extendqisi2
 3982 00a4 9A42     		cmp	r2, r3
 3983 00a6 12D1     		bne	.L107
 3984              	.LBB22:
 446:PumpCom.c     ****             for(uint8 MepRx = 0; MepRx < size; MepRx++){
 3985              		.loc 1 446 0
 3986 00a8 0023     		movs	r3, #0
 3987 00aa 7B73     		strb	r3, [r7, #13]
 3988 00ac 0BE0     		b	.L108
 3989              	.L109:
 447:PumpCom.c     ****                 side.a.MepsanStore[MepRx] = MepsanResponse[MepRx];
 3990              		.loc 1 447 0 discriminator 3
 3991 00ae 7B7B     		ldrb	r3, [r7, #13]	@ zero_extendqisi2
 3992 00b0 7A7B     		ldrb	r2, [r7, #13]	@ zero_extendqisi2
 3993 00b2 3249     		ldr	r1, .L120
 3994 00b4 895C     		ldrb	r1, [r1, r2]	@ zero_extendqisi2
 3995 00b6 324A     		ldr	r2, .L120+4
 3996 00b8 1344     		add	r3, r3, r2
 3997 00ba 0A46     		mov	r2, r1
 3998 00bc 83F85120 		strb	r2, [r3, #81]
 446:PumpCom.c     ****             for(uint8 MepRx = 0; MepRx < size; MepRx++){
 3999              		.loc 1 446 0 discriminator 3
 4000 00c0 7B7B     		ldrb	r3, [r7, #13]	@ zero_extendqisi2
 4001 00c2 0133     		adds	r3, r3, #1
 4002 00c4 7B73     		strb	r3, [r7, #13]
 4003              	.L108:
 446:PumpCom.c     ****             for(uint8 MepRx = 0; MepRx < size; MepRx++){
 4004              		.loc 1 446 0 is_stmt 0 discriminator 1
 4005 00c6 7A7B     		ldrb	r2, [r7, #13]	@ zero_extendqisi2
 4006 00c8 7B7A     		ldrb	r3, [r7, #9]	@ zero_extendqisi2
 4007 00ca 9A42     		cmp	r2, r3
 4008 00cc EFD3     		bcc	.L109
 4009              	.L107:
ARM GAS  C:\Users\Lenovo\AppData\Local\Temp\ccP94fx0.s 			page 80


 4010              	.LBE22:
 448:PumpCom.c     ****             }        
 449:PumpCom.c     ****         }
 450:PumpCom.c     ****         if(address == side.b.dir){
 4011              		.loc 1 450 0 is_stmt 1
 4012 00ce 2C4B     		ldr	r3, .L120+4
 4013 00d0 93F82331 		ldrb	r3, [r3, #291]	@ zero_extendqisi2
 4014 00d4 FA79     		ldrb	r2, [r7, #7]	@ zero_extendqisi2
 4015 00d6 9A42     		cmp	r2, r3
 4016 00d8 12D1     		bne	.L110
 4017              	.LBB23:
 451:PumpCom.c     ****             for(uint8 MepRx = 0; MepRx < size; MepRx++){
 4018              		.loc 1 451 0
 4019 00da 0023     		movs	r3, #0
 4020 00dc 3B73     		strb	r3, [r7, #12]
 4021 00de 0BE0     		b	.L111
 4022              	.L112:
 452:PumpCom.c     ****                 side.b.MepsanStore[MepRx] = MepsanResponse[MepRx];
 4023              		.loc 1 452 0 discriminator 3
 4024 00e0 3B7B     		ldrb	r3, [r7, #12]	@ zero_extendqisi2
 4025 00e2 3A7B     		ldrb	r2, [r7, #12]	@ zero_extendqisi2
 4026 00e4 2549     		ldr	r1, .L120
 4027 00e6 895C     		ldrb	r1, [r1, r2]	@ zero_extendqisi2
 4028 00e8 254A     		ldr	r2, .L120+4
 4029 00ea 1344     		add	r3, r3, r2
 4030 00ec 0A46     		mov	r2, r1
 4031 00ee 83F87421 		strb	r2, [r3, #372]
 451:PumpCom.c     ****             for(uint8 MepRx = 0; MepRx < size; MepRx++){
 4032              		.loc 1 451 0 discriminator 3
 4033 00f2 3B7B     		ldrb	r3, [r7, #12]	@ zero_extendqisi2
 4034 00f4 0133     		adds	r3, r3, #1
 4035 00f6 3B73     		strb	r3, [r7, #12]
 4036              	.L111:
 451:PumpCom.c     ****             for(uint8 MepRx = 0; MepRx < size; MepRx++){
 4037              		.loc 1 451 0 is_stmt 0 discriminator 1
 4038 00f8 3A7B     		ldrb	r2, [r7, #12]	@ zero_extendqisi2
 4039 00fa 7B7A     		ldrb	r3, [r7, #9]	@ zero_extendqisi2
 4040 00fc 9A42     		cmp	r2, r3
 4041 00fe EFD3     		bcc	.L112
 4042              	.L110:
 4043              	.LBE23:
 453:PumpCom.c     ****             }
 454:PumpCom.c     ****         }
 455:PumpCom.c     ****         if(address == side.c.dir){
 4044              		.loc 1 455 0 is_stmt 1
 4045 0100 1F4B     		ldr	r3, .L120+4
 4046 0102 93F84632 		ldrb	r3, [r3, #582]	@ zero_extendqisi2
 4047 0106 FA79     		ldrb	r2, [r7, #7]	@ zero_extendqisi2
 4048 0108 9A42     		cmp	r2, r3
 4049 010a 12D1     		bne	.L113
 4050              	.LBB24:
 456:PumpCom.c     ****             for(uint8 MepRx = 0; MepRx < size; MepRx++){
 4051              		.loc 1 456 0
 4052 010c 0023     		movs	r3, #0
 4053 010e FB72     		strb	r3, [r7, #11]
 4054 0110 0BE0     		b	.L114
 4055              	.L115:
ARM GAS  C:\Users\Lenovo\AppData\Local\Temp\ccP94fx0.s 			page 81


 457:PumpCom.c     ****                 side.c.MepsanStore[MepRx] = MepsanResponse[MepRx];
 4056              		.loc 1 457 0 discriminator 3
 4057 0112 FB7A     		ldrb	r3, [r7, #11]	@ zero_extendqisi2
 4058 0114 FA7A     		ldrb	r2, [r7, #11]	@ zero_extendqisi2
 4059 0116 1949     		ldr	r1, .L120
 4060 0118 895C     		ldrb	r1, [r1, r2]	@ zero_extendqisi2
 4061 011a 194A     		ldr	r2, .L120+4
 4062 011c 1344     		add	r3, r3, r2
 4063 011e 0A46     		mov	r2, r1
 4064 0120 83F89722 		strb	r2, [r3, #663]
 456:PumpCom.c     ****             for(uint8 MepRx = 0; MepRx < size; MepRx++){
 4065              		.loc 1 456 0 discriminator 3
 4066 0124 FB7A     		ldrb	r3, [r7, #11]	@ zero_extendqisi2
 4067 0126 0133     		adds	r3, r3, #1
 4068 0128 FB72     		strb	r3, [r7, #11]
 4069              	.L114:
 456:PumpCom.c     ****             for(uint8 MepRx = 0; MepRx < size; MepRx++){
 4070              		.loc 1 456 0 is_stmt 0 discriminator 1
 4071 012a FA7A     		ldrb	r2, [r7, #11]	@ zero_extendqisi2
 4072 012c 7B7A     		ldrb	r3, [r7, #9]	@ zero_extendqisi2
 4073 012e 9A42     		cmp	r2, r3
 4074 0130 EFD3     		bcc	.L115
 4075              	.L113:
 4076              	.LBE24:
 458:PumpCom.c     ****             }
 459:PumpCom.c     ****         }
 460:PumpCom.c     ****         if(address == side.d.dir){
 4077              		.loc 1 460 0 is_stmt 1
 4078 0132 134B     		ldr	r3, .L120+4
 4079 0134 93F86933 		ldrb	r3, [r3, #873]	@ zero_extendqisi2
 4080 0138 FA79     		ldrb	r2, [r7, #7]	@ zero_extendqisi2
 4081 013a 9A42     		cmp	r2, r3
 4082 013c 12D1     		bne	.L106
 4083              	.LBB25:
 461:PumpCom.c     ****             for(uint8 MepRx = 0; MepRx < size; MepRx++){
 4084              		.loc 1 461 0
 4085 013e 0023     		movs	r3, #0
 4086 0140 BB72     		strb	r3, [r7, #10]
 4087 0142 0BE0     		b	.L116
 4088              	.L117:
 462:PumpCom.c     ****                 side.d.MepsanStore[MepRx] = MepsanResponse[MepRx];
 4089              		.loc 1 462 0 discriminator 3
 4090 0144 BB7A     		ldrb	r3, [r7, #10]	@ zero_extendqisi2
 4091 0146 BA7A     		ldrb	r2, [r7, #10]	@ zero_extendqisi2
 4092 0148 0C49     		ldr	r1, .L120
 4093 014a 895C     		ldrb	r1, [r1, r2]	@ zero_extendqisi2
 4094 014c 0C4A     		ldr	r2, .L120+4
 4095 014e 1344     		add	r3, r3, r2
 4096 0150 0A46     		mov	r2, r1
 4097 0152 83F8BA23 		strb	r2, [r3, #954]
 461:PumpCom.c     ****             for(uint8 MepRx = 0; MepRx < size; MepRx++){
 4098              		.loc 1 461 0 discriminator 3
 4099 0156 BB7A     		ldrb	r3, [r7, #10]	@ zero_extendqisi2
 4100 0158 0133     		adds	r3, r3, #1
 4101 015a BB72     		strb	r3, [r7, #10]
 4102              	.L116:
 461:PumpCom.c     ****             for(uint8 MepRx = 0; MepRx < size; MepRx++){
ARM GAS  C:\Users\Lenovo\AppData\Local\Temp\ccP94fx0.s 			page 82


 4103              		.loc 1 461 0 is_stmt 0 discriminator 1
 4104 015c BA7A     		ldrb	r2, [r7, #10]	@ zero_extendqisi2
 4105 015e 7B7A     		ldrb	r3, [r7, #9]	@ zero_extendqisi2
 4106 0160 9A42     		cmp	r2, r3
 4107 0162 EFD3     		bcc	.L117
 4108              	.L106:
 4109              	.LBE25:
 463:PumpCom.c     ****             }
 464:PumpCom.c     ****         } 
 465:PumpCom.c     ****     }
 466:PumpCom.c     ****     if(size>=1){              
 4110              		.loc 1 466 0 is_stmt 1
 4111 0164 7B7A     		ldrb	r3, [r7, #9]	@ zero_extendqisi2
 4112 0166 002B     		cmp	r3, #0
 4113 0168 02D0     		beq	.L118
 467:PumpCom.c     ****         return MepsanResponse[1];
 4114              		.loc 1 467 0
 4115 016a 044B     		ldr	r3, .L120
 4116 016c 5B78     		ldrb	r3, [r3, #1]	@ zero_extendqisi2
 4117 016e 00E0     		b	.L119
 4118              	.L118:
 468:PumpCom.c     ****     }
 469:PumpCom.c     ****     else{
 470:PumpCom.c     ****        return 0;
 4119              		.loc 1 470 0
 4120 0170 0023     		movs	r3, #0
 4121              	.L119:
 471:PumpCom.c     ****     }
 472:PumpCom.c     ****     
 473:PumpCom.c     **** }
 4122              		.loc 1 473 0
 4123 0172 1846     		mov	r0, r3
 4124 0174 1437     		adds	r7, r7, #20
 4125              		.cfi_def_cfa_offset 12
 4126 0176 BD46     		mov	sp, r7
 4127              		.cfi_def_cfa_register 13
 4128              		@ sp needed
 4129 0178 90BD     		pop	{r4, r7, pc}
 4130              	.L121:
 4131 017a 00BF     		.align	2
 4132              	.L120:
 4133 017c 00000000 		.word	MepsanResponse
 4134 0180 00000000 		.word	side
 4135              		.cfi_endproc
 4136              	.LFE68:
 4137              		.size	PumpState, .-PumpState
 4138              		.section	.text.PriceUpdate,"ax",%progbits
 4139              		.align	2
 4140              		.global	PriceUpdate
 4141              		.thumb
 4142              		.thumb_func
 4143              		.type	PriceUpdate, %function
 4144              	PriceUpdate:
 4145              	.LFB69:
 474:PumpCom.c     **** 
 475:PumpCom.c     **** 
 476:PumpCom.c     **** /*******************************************************************************
ARM GAS  C:\Users\Lenovo\AppData\Local\Temp\ccP94fx0.s 			page 83


 477:PumpCom.c     **** * Function Name: PriceUpdate
 478:PumpCom.c     **** ********************************************************************************
 479:PumpCom.c     **** *
 480:PumpCom.c     **** *
 481:PumpCom.c     **** *******************************************************************************/
 482:PumpCom.c     **** 
 483:PumpCom.c     **** uint8 PriceUpdate(uint8 address, uint8 *price)
 484:PumpCom.c     **** { 
 4146              		.loc 1 484 0
 4147              		.cfi_startproc
 4148              		@ args = 0, pretend = 0, frame = 16
 4149              		@ frame_needed = 1, uses_anonymous_args = 0
 4150 0000 90B5     		push	{r4, r7, lr}
 4151              		.cfi_def_cfa_offset 12
 4152              		.cfi_offset 4, -12
 4153              		.cfi_offset 7, -8
 4154              		.cfi_offset 14, -4
 4155 0002 85B0     		sub	sp, sp, #20
 4156              		.cfi_def_cfa_offset 32
 4157 0004 00AF     		add	r7, sp, #0
 4158              		.cfi_def_cfa_register 7
 4159 0006 0346     		mov	r3, r0
 4160 0008 3960     		str	r1, [r7]
 4161 000a FB71     		strb	r3, [r7, #7]
 485:PumpCom.c     ****     uint8 size;
 486:PumpCom.c     ****     EnablePin_Write (1u);
 4162              		.loc 1 486 0
 4163 000c 0120     		movs	r0, #1
 4164 000e FFF7FEFF 		bl	EnablePin_Write
 487:PumpCom.c     ****     MepsanSendTo[0] = (0x50|address);
 4165              		.loc 1 487 0
 4166 0012 FB79     		ldrb	r3, [r7, #7]
 4167 0014 43F05003 		orr	r3, r3, #80
 4168 0018 DAB2     		uxtb	r2, r3
 4169 001a 3A4B     		ldr	r3, .L129
 4170 001c 1A70     		strb	r2, [r3]
 488:PumpCom.c     ****     MepsanSendTo[1] = (0x30);
 4171              		.loc 1 488 0
 4172 001e 394B     		ldr	r3, .L129
 4173 0020 3022     		movs	r2, #48
 4174 0022 5A70     		strb	r2, [r3, #1]
 489:PumpCom.c     ****     MepsanSendTo[2] = (0x05); //Price change transaction
 4175              		.loc 1 489 0
 4176 0024 374B     		ldr	r3, .L129
 4177 0026 0522     		movs	r2, #5
 4178 0028 9A70     		strb	r2, [r3, #2]
 490:PumpCom.c     ****     MepsanSendTo[3] = (0x03); //Data bytes in transaction
 4179              		.loc 1 490 0
 4180 002a 364B     		ldr	r3, .L129
 4181 002c 0322     		movs	r2, #3
 4182 002e DA70     		strb	r2, [r3, #3]
 491:PumpCom.c     ****     MepsanSendTo[4] = (price[0]);
 4183              		.loc 1 491 0
 4184 0030 3B68     		ldr	r3, [r7]
 4185 0032 1A78     		ldrb	r2, [r3]	@ zero_extendqisi2
 4186 0034 334B     		ldr	r3, .L129
 4187 0036 1A71     		strb	r2, [r3, #4]
ARM GAS  C:\Users\Lenovo\AppData\Local\Temp\ccP94fx0.s 			page 84


 492:PumpCom.c     ****     MepsanSendTo[5] = (price[1]);
 4188              		.loc 1 492 0
 4189 0038 3B68     		ldr	r3, [r7]
 4190 003a 5A78     		ldrb	r2, [r3, #1]	@ zero_extendqisi2
 4191 003c 314B     		ldr	r3, .L129
 4192 003e 5A71     		strb	r2, [r3, #5]
 493:PumpCom.c     ****     MepsanSendTo[6] = (price[2]);
 4193              		.loc 1 493 0
 4194 0040 3B68     		ldr	r3, [r7]
 4195 0042 9A78     		ldrb	r2, [r3, #2]	@ zero_extendqisi2
 4196 0044 2F4B     		ldr	r3, .L129
 4197 0046 9A71     		strb	r2, [r3, #6]
 494:PumpCom.c     ****     CRC    = gen_crc16(MepsanSendTo,7);
 4198              		.loc 1 494 0
 4199 0048 0721     		movs	r1, #7
 4200 004a 2E48     		ldr	r0, .L129
 4201 004c FFF7FEFF 		bl	gen_crc16
 4202 0050 0346     		mov	r3, r0
 4203 0052 1A46     		mov	r2, r3
 4204 0054 2C4B     		ldr	r3, .L129+4
 4205 0056 1A80     		strh	r2, [r3]	@ movhi
 495:PumpCom.c     ****     crc_hi = (CRC & 0xFF00) >> 8;
 4206              		.loc 1 495 0
 4207 0058 2B4B     		ldr	r3, .L129+4
 4208 005a 1B88     		ldrh	r3, [r3]
 4209 005c 1B0A     		lsrs	r3, r3, #8
 4210 005e 9BB2     		uxth	r3, r3
 4211 0060 DAB2     		uxtb	r2, r3
 4212 0062 2A4B     		ldr	r3, .L129+8
 4213 0064 1A70     		strb	r2, [r3]
 496:PumpCom.c     ****     crc_lo = (CRC & 0x00FF) ;
 4214              		.loc 1 496 0
 4215 0066 284B     		ldr	r3, .L129+4
 4216 0068 1B88     		ldrh	r3, [r3]
 4217 006a DAB2     		uxtb	r2, r3
 4218 006c 284B     		ldr	r3, .L129+12
 4219 006e 1A70     		strb	r2, [r3]
 497:PumpCom.c     ****     MepsanSendTo[7] = crc_lo;
 4220              		.loc 1 497 0
 4221 0070 274B     		ldr	r3, .L129+12
 4222 0072 1A78     		ldrb	r2, [r3]	@ zero_extendqisi2
 4223 0074 234B     		ldr	r3, .L129
 4224 0076 DA71     		strb	r2, [r3, #7]
 498:PumpCom.c     ****     MepsanSendTo[8] = crc_hi;
 4225              		.loc 1 498 0
 4226 0078 244B     		ldr	r3, .L129+8
 4227 007a 1A78     		ldrb	r2, [r3]	@ zero_extendqisi2
 4228 007c 214B     		ldr	r3, .L129
 4229 007e 1A72     		strb	r2, [r3, #8]
 499:PumpCom.c     ****     MepsanSendTo[9] = 0x03;
 4230              		.loc 1 499 0
 4231 0080 204B     		ldr	r3, .L129
 4232 0082 0322     		movs	r2, #3
 4233 0084 5A72     		strb	r2, [r3, #9]
 500:PumpCom.c     ****     MepsanSendTo[10] = 0xFA; 
 4234              		.loc 1 500 0
 4235 0086 1F4B     		ldr	r3, .L129
ARM GAS  C:\Users\Lenovo\AppData\Local\Temp\ccP94fx0.s 			page 85


 4236 0088 FA22     		movs	r2, #250
 4237 008a 9A72     		strb	r2, [r3, #10]
 4238              	.LBB26:
 501:PumpCom.c     ****     for(uint8 x = 0; x <= 11; x++){    
 4239              		.loc 1 501 0
 4240 008c 0023     		movs	r3, #0
 4241 008e FB73     		strb	r3, [r7, #15]
 4242 0090 08E0     		b	.L123
 4243              	.L124:
 502:PumpCom.c     ****         UART_1_PutChar(MepsanSendTo[x]);
 4244              		.loc 1 502 0 discriminator 3
 4245 0092 FB7B     		ldrb	r3, [r7, #15]	@ zero_extendqisi2
 4246 0094 1B4A     		ldr	r2, .L129
 4247 0096 D35C     		ldrb	r3, [r2, r3]	@ zero_extendqisi2
 4248 0098 1846     		mov	r0, r3
 4249 009a FFF7FEFF 		bl	UART_1_PutChar
 501:PumpCom.c     ****     for(uint8 x = 0; x <= 11; x++){    
 4250              		.loc 1 501 0 discriminator 3
 4251 009e FB7B     		ldrb	r3, [r7, #15]	@ zero_extendqisi2
 4252 00a0 0133     		adds	r3, r3, #1
 4253 00a2 FB73     		strb	r3, [r7, #15]
 4254              	.L123:
 501:PumpCom.c     ****     for(uint8 x = 0; x <= 11; x++){    
 4255              		.loc 1 501 0 is_stmt 0 discriminator 1
 4256 00a4 FB7B     		ldrb	r3, [r7, #15]	@ zero_extendqisi2
 4257 00a6 0B2B     		cmp	r3, #11
 4258 00a8 F3D9     		bls	.L124
 4259              	.LBE26:
 503:PumpCom.c     ****     }
 504:PumpCom.c     ****     CyDelay(4);
 4260              		.loc 1 504 0 is_stmt 1
 4261 00aa 0420     		movs	r0, #4
 4262 00ac FFF7FEFF 		bl	CyDelay
 505:PumpCom.c     ****     EnablePin_Write (0u);
 4263              		.loc 1 505 0
 4264 00b0 0020     		movs	r0, #0
 4265 00b2 FFF7FEFF 		bl	EnablePin_Write
 506:PumpCom.c     ****     size = UART_1_GetRxBufferSize();
 4266              		.loc 1 506 0
 4267 00b6 FFF7FEFF 		bl	UART_1_GetRxBufferSize
 4268 00ba 0346     		mov	r3, r0
 4269 00bc 7B73     		strb	r3, [r7, #13]
 4270              	.LBB27:
 507:PumpCom.c     ****     for(uint8 MepRx = 0; MepRx < size; MepRx++){
 4271              		.loc 1 507 0
 4272 00be 0023     		movs	r3, #0
 4273 00c0 BB73     		strb	r3, [r7, #14]
 4274 00c2 09E0     		b	.L125
 4275              	.L126:
 508:PumpCom.c     ****         MepsanResponse[MepRx] = UART_1_ReadRxData();   
 4276              		.loc 1 508 0 discriminator 3
 4277 00c4 BC7B     		ldrb	r4, [r7, #14]	@ zero_extendqisi2
 4278 00c6 FFF7FEFF 		bl	UART_1_ReadRxData
 4279 00ca 0346     		mov	r3, r0
 4280 00cc 1A46     		mov	r2, r3
 4281 00ce 114B     		ldr	r3, .L129+16
 4282 00d0 1A55     		strb	r2, [r3, r4]
ARM GAS  C:\Users\Lenovo\AppData\Local\Temp\ccP94fx0.s 			page 86


 507:PumpCom.c     ****     for(uint8 MepRx = 0; MepRx < size; MepRx++){
 4283              		.loc 1 507 0 discriminator 3
 4284 00d2 BB7B     		ldrb	r3, [r7, #14]	@ zero_extendqisi2
 4285 00d4 0133     		adds	r3, r3, #1
 4286 00d6 BB73     		strb	r3, [r7, #14]
 4287              	.L125:
 507:PumpCom.c     ****     for(uint8 MepRx = 0; MepRx < size; MepRx++){
 4288              		.loc 1 507 0 is_stmt 0 discriminator 1
 4289 00d8 BA7B     		ldrb	r2, [r7, #14]	@ zero_extendqisi2
 4290 00da 7B7B     		ldrb	r3, [r7, #13]	@ zero_extendqisi2
 4291 00dc 9A42     		cmp	r2, r3
 4292 00de F1D3     		bcc	.L126
 4293              	.LBE27:
 509:PumpCom.c     ****     }
 510:PumpCom.c     ****     UART_1_ClearRxBuffer();
 4294              		.loc 1 510 0 is_stmt 1
 4295 00e0 FFF7FEFF 		bl	UART_1_ClearRxBuffer
 511:PumpCom.c     ****     CyDelay(500);    
 4296              		.loc 1 511 0
 4297 00e4 4FF4FA70 		mov	r0, #500
 4298 00e8 FFF7FEFF 		bl	CyDelay
 512:PumpCom.c     ****     if(size>=1){
 4299              		.loc 1 512 0
 4300 00ec 7B7B     		ldrb	r3, [r7, #13]	@ zero_extendqisi2
 4301 00ee 002B     		cmp	r3, #0
 4302 00f0 02D0     		beq	.L127
 513:PumpCom.c     ****         return  MepsanResponse[1];
 4303              		.loc 1 513 0
 4304 00f2 084B     		ldr	r3, .L129+16
 4305 00f4 5B78     		ldrb	r3, [r3, #1]	@ zero_extendqisi2
 4306 00f6 00E0     		b	.L128
 4307              	.L127:
 514:PumpCom.c     ****     }
 515:PumpCom.c     ****     else{
 516:PumpCom.c     ****        return 0;
 4308              		.loc 1 516 0
 4309 00f8 0023     		movs	r3, #0
 4310              	.L128:
 517:PumpCom.c     ****     }    
 518:PumpCom.c     **** }
 4311              		.loc 1 518 0
 4312 00fa 1846     		mov	r0, r3
 4313 00fc 1437     		adds	r7, r7, #20
 4314              		.cfi_def_cfa_offset 12
 4315 00fe BD46     		mov	sp, r7
 4316              		.cfi_def_cfa_register 13
 4317              		@ sp needed
 4318 0100 90BD     		pop	{r4, r7, pc}
 4319              	.L130:
 4320 0102 00BF     		.align	2
 4321              	.L129:
 4322 0104 00000000 		.word	MepsanSendTo
 4323 0108 00000000 		.word	CRC
 4324 010c 00000000 		.word	crc_hi
 4325 0110 00000000 		.word	crc_lo
 4326 0114 00000000 		.word	MepsanResponse
 4327              		.cfi_endproc
ARM GAS  C:\Users\Lenovo\AppData\Local\Temp\ccP94fx0.s 			page 87


 4328              	.LFE69:
 4329              		.size	PriceUpdate, .-PriceUpdate
 4330              		.section	.text.TotalRequest,"ax",%progbits
 4331              		.align	2
 4332              		.global	TotalRequest
 4333              		.thumb
 4334              		.thumb_func
 4335              		.type	TotalRequest, %function
 4336              	TotalRequest:
 4337              	.LFB70:
 519:PumpCom.c     **** 
 520:PumpCom.c     **** /*******************************************************************************
 521:PumpCom.c     **** * Function Name: TotalRequest
 522:PumpCom.c     **** ********************************************************************************
 523:PumpCom.c     **** *
 524:PumpCom.c     **** *
 525:PumpCom.c     **** *******************************************************************************/
 526:PumpCom.c     **** 
 527:PumpCom.c     **** void TotalRequest(uint8 address, uint8 type, uint8 nozzle)
 528:PumpCom.c     **** { 
 4338              		.loc 1 528 0
 4339              		.cfi_startproc
 4340              		@ args = 0, pretend = 0, frame = 16
 4341              		@ frame_needed = 1, uses_anonymous_args = 0
 4342 0000 90B5     		push	{r4, r7, lr}
 4343              		.cfi_def_cfa_offset 12
 4344              		.cfi_offset 4, -12
 4345              		.cfi_offset 7, -8
 4346              		.cfi_offset 14, -4
 4347 0002 85B0     		sub	sp, sp, #20
 4348              		.cfi_def_cfa_offset 32
 4349 0004 00AF     		add	r7, sp, #0
 4350              		.cfi_def_cfa_register 7
 4351 0006 0346     		mov	r3, r0
 4352 0008 FB71     		strb	r3, [r7, #7]
 4353 000a 0B46     		mov	r3, r1
 4354 000c BB71     		strb	r3, [r7, #6]
 4355 000e 1346     		mov	r3, r2
 4356 0010 7B71     		strb	r3, [r7, #5]
 529:PumpCom.c     ****     uint8 size;
 530:PumpCom.c     ****     uint8 request;
 531:PumpCom.c     ****     request = ((type<<4)&0xF0)|(nozzle);
 4357              		.loc 1 531 0
 4358 0012 BB79     		ldrb	r3, [r7, #6]	@ zero_extendqisi2
 4359 0014 1B01     		lsls	r3, r3, #4
 4360 0016 5AB2     		sxtb	r2, r3
 4361 0018 97F90530 		ldrsb	r3, [r7, #5]
 4362 001c 1343     		orrs	r3, r3, r2
 4363 001e 5BB2     		sxtb	r3, r3
 4364 0020 7B73     		strb	r3, [r7, #13]
 532:PumpCom.c     ****     EnablePin_Write (1u);
 4365              		.loc 1 532 0
 4366 0022 0120     		movs	r0, #1
 4367 0024 FFF7FEFF 		bl	EnablePin_Write
 533:PumpCom.c     ****     MepsanSendTo[0] = (0x50|address);
 4368              		.loc 1 533 0
 4369 0028 FB79     		ldrb	r3, [r7, #7]
ARM GAS  C:\Users\Lenovo\AppData\Local\Temp\ccP94fx0.s 			page 88


 4370 002a 43F05003 		orr	r3, r3, #80
 4371 002e DAB2     		uxtb	r2, r3
 4372 0030 314B     		ldr	r3, .L136
 4373 0032 1A70     		strb	r2, [r3]
 534:PumpCom.c     ****     MepsanSendTo[1] = (0x30);
 4374              		.loc 1 534 0
 4375 0034 304B     		ldr	r3, .L136
 4376 0036 3022     		movs	r2, #48
 4377 0038 5A70     		strb	r2, [r3, #1]
 535:PumpCom.c     ****     MepsanSendTo[2] = (0x65);
 4378              		.loc 1 535 0
 4379 003a 2F4B     		ldr	r3, .L136
 4380 003c 6522     		movs	r2, #101
 4381 003e 9A70     		strb	r2, [r3, #2]
 536:PumpCom.c     ****     MepsanSendTo[3] = (0x01); //Data bytes in transaction
 4382              		.loc 1 536 0
 4383 0040 2D4B     		ldr	r3, .L136
 4384 0042 0122     		movs	r2, #1
 4385 0044 DA70     		strb	r2, [r3, #3]
 537:PumpCom.c     ****     MepsanSendTo[4] = (request);
 4386              		.loc 1 537 0
 4387 0046 2C4A     		ldr	r2, .L136
 4388 0048 7B7B     		ldrb	r3, [r7, #13]
 4389 004a 1371     		strb	r3, [r2, #4]
 538:PumpCom.c     ****     CRC    = gen_crc16(MepsanSendTo,5);
 4390              		.loc 1 538 0
 4391 004c 0521     		movs	r1, #5
 4392 004e 2A48     		ldr	r0, .L136
 4393 0050 FFF7FEFF 		bl	gen_crc16
 4394 0054 0346     		mov	r3, r0
 4395 0056 1A46     		mov	r2, r3
 4396 0058 284B     		ldr	r3, .L136+4
 4397 005a 1A80     		strh	r2, [r3]	@ movhi
 539:PumpCom.c     ****     crc_hi = (CRC & 0xFF00) >> 8;
 4398              		.loc 1 539 0
 4399 005c 274B     		ldr	r3, .L136+4
 4400 005e 1B88     		ldrh	r3, [r3]
 4401 0060 1B0A     		lsrs	r3, r3, #8
 4402 0062 9BB2     		uxth	r3, r3
 4403 0064 DAB2     		uxtb	r2, r3
 4404 0066 264B     		ldr	r3, .L136+8
 4405 0068 1A70     		strb	r2, [r3]
 540:PumpCom.c     ****     crc_lo = (CRC & 0x00FF) ;
 4406              		.loc 1 540 0
 4407 006a 244B     		ldr	r3, .L136+4
 4408 006c 1B88     		ldrh	r3, [r3]
 4409 006e DAB2     		uxtb	r2, r3
 4410 0070 244B     		ldr	r3, .L136+12
 4411 0072 1A70     		strb	r2, [r3]
 541:PumpCom.c     ****     MepsanSendTo[5] = crc_lo;
 4412              		.loc 1 541 0
 4413 0074 234B     		ldr	r3, .L136+12
 4414 0076 1A78     		ldrb	r2, [r3]	@ zero_extendqisi2
 4415 0078 1F4B     		ldr	r3, .L136
 4416 007a 5A71     		strb	r2, [r3, #5]
 542:PumpCom.c     ****     MepsanSendTo[6] = crc_hi;
 4417              		.loc 1 542 0
ARM GAS  C:\Users\Lenovo\AppData\Local\Temp\ccP94fx0.s 			page 89


 4418 007c 204B     		ldr	r3, .L136+8
 4419 007e 1A78     		ldrb	r2, [r3]	@ zero_extendqisi2
 4420 0080 1D4B     		ldr	r3, .L136
 4421 0082 9A71     		strb	r2, [r3, #6]
 543:PumpCom.c     ****     MepsanSendTo[7] = 0x03;
 4422              		.loc 1 543 0
 4423 0084 1C4B     		ldr	r3, .L136
 4424 0086 0322     		movs	r2, #3
 4425 0088 DA71     		strb	r2, [r3, #7]
 544:PumpCom.c     ****     MepsanSendTo[8] = 0xFA; 
 4426              		.loc 1 544 0
 4427 008a 1B4B     		ldr	r3, .L136
 4428 008c FA22     		movs	r2, #250
 4429 008e 1A72     		strb	r2, [r3, #8]
 4430              	.LBB28:
 545:PumpCom.c     ****     for(uint8 x = 0; x <= 9; x++){    
 4431              		.loc 1 545 0
 4432 0090 0023     		movs	r3, #0
 4433 0092 FB73     		strb	r3, [r7, #15]
 4434 0094 08E0     		b	.L132
 4435              	.L133:
 546:PumpCom.c     ****         UART_1_PutChar(MepsanSendTo[x]);
 4436              		.loc 1 546 0 discriminator 3
 4437 0096 FB7B     		ldrb	r3, [r7, #15]	@ zero_extendqisi2
 4438 0098 174A     		ldr	r2, .L136
 4439 009a D35C     		ldrb	r3, [r2, r3]	@ zero_extendqisi2
 4440 009c 1846     		mov	r0, r3
 4441 009e FFF7FEFF 		bl	UART_1_PutChar
 545:PumpCom.c     ****     for(uint8 x = 0; x <= 9; x++){    
 4442              		.loc 1 545 0 discriminator 3
 4443 00a2 FB7B     		ldrb	r3, [r7, #15]	@ zero_extendqisi2
 4444 00a4 0133     		adds	r3, r3, #1
 4445 00a6 FB73     		strb	r3, [r7, #15]
 4446              	.L132:
 545:PumpCom.c     ****     for(uint8 x = 0; x <= 9; x++){    
 4447              		.loc 1 545 0 is_stmt 0 discriminator 1
 4448 00a8 FB7B     		ldrb	r3, [r7, #15]	@ zero_extendqisi2
 4449 00aa 092B     		cmp	r3, #9
 4450 00ac F3D9     		bls	.L133
 4451              	.LBE28:
 547:PumpCom.c     ****     }
 548:PumpCom.c     ****     CyDelay(4);
 4452              		.loc 1 548 0 is_stmt 1
 4453 00ae 0420     		movs	r0, #4
 4454 00b0 FFF7FEFF 		bl	CyDelay
 549:PumpCom.c     ****     EnablePin_Write (0u);  
 4455              		.loc 1 549 0
 4456 00b4 0020     		movs	r0, #0
 4457 00b6 FFF7FEFF 		bl	EnablePin_Write
 550:PumpCom.c     ****     size = UART_1_GetRxBufferSize();
 4458              		.loc 1 550 0
 4459 00ba FFF7FEFF 		bl	UART_1_GetRxBufferSize
 4460 00be 0346     		mov	r3, r0
 4461 00c0 3B73     		strb	r3, [r7, #12]
 4462              	.LBB29:
 551:PumpCom.c     ****     for(uint8 MepRx = 0; MepRx < size; MepRx++){
 4463              		.loc 1 551 0
ARM GAS  C:\Users\Lenovo\AppData\Local\Temp\ccP94fx0.s 			page 90


 4464 00c2 0023     		movs	r3, #0
 4465 00c4 BB73     		strb	r3, [r7, #14]
 4466 00c6 09E0     		b	.L134
 4467              	.L135:
 552:PumpCom.c     ****         MepsanResponse[MepRx] = UART_1_ReadRxData();
 4468              		.loc 1 552 0 discriminator 3
 4469 00c8 BC7B     		ldrb	r4, [r7, #14]	@ zero_extendqisi2
 4470 00ca FFF7FEFF 		bl	UART_1_ReadRxData
 4471 00ce 0346     		mov	r3, r0
 4472 00d0 1A46     		mov	r2, r3
 4473 00d2 0D4B     		ldr	r3, .L136+16
 4474 00d4 1A55     		strb	r2, [r3, r4]
 551:PumpCom.c     ****     for(uint8 MepRx = 0; MepRx < size; MepRx++){
 4475              		.loc 1 551 0 discriminator 3
 4476 00d6 BB7B     		ldrb	r3, [r7, #14]	@ zero_extendqisi2
 4477 00d8 0133     		adds	r3, r3, #1
 4478 00da BB73     		strb	r3, [r7, #14]
 4479              	.L134:
 551:PumpCom.c     ****     for(uint8 MepRx = 0; MepRx < size; MepRx++){
 4480              		.loc 1 551 0 is_stmt 0 discriminator 1
 4481 00dc BA7B     		ldrb	r2, [r7, #14]	@ zero_extendqisi2
 4482 00de 3B7B     		ldrb	r3, [r7, #12]	@ zero_extendqisi2
 4483 00e0 9A42     		cmp	r2, r3
 4484 00e2 F1D3     		bcc	.L135
 4485              	.LBE29:
 553:PumpCom.c     ****     }       
 554:PumpCom.c     ****     UART_1_ClearRxBuffer();
 4486              		.loc 1 554 0 is_stmt 1
 4487 00e4 FFF7FEFF 		bl	UART_1_ClearRxBuffer
 555:PumpCom.c     ****     CyDelay(200); 
 4488              		.loc 1 555 0
 4489 00e8 C820     		movs	r0, #200
 4490 00ea FFF7FEFF 		bl	CyDelay
 556:PumpCom.c     **** }
 4491              		.loc 1 556 0
 4492 00ee 00BF     		nop
 4493 00f0 1437     		adds	r7, r7, #20
 4494              		.cfi_def_cfa_offset 12
 4495 00f2 BD46     		mov	sp, r7
 4496              		.cfi_def_cfa_register 13
 4497              		@ sp needed
 4498 00f4 90BD     		pop	{r4, r7, pc}
 4499              	.L137:
 4500 00f6 00BF     		.align	2
 4501              	.L136:
 4502 00f8 00000000 		.word	MepsanSendTo
 4503 00fc 00000000 		.word	CRC
 4504 0100 00000000 		.word	crc_hi
 4505 0104 00000000 		.word	crc_lo
 4506 0108 00000000 		.word	MepsanResponse
 4507              		.cfi_endproc
 4508              	.LFE70:
 4509              		.size	TotalRequest, .-TotalRequest
 4510              		.section	.text.GetTotal,"ax",%progbits
 4511              		.align	2
 4512              		.global	GetTotal
 4513              		.thumb
ARM GAS  C:\Users\Lenovo\AppData\Local\Temp\ccP94fx0.s 			page 91


 4514              		.thumb_func
 4515              		.type	GetTotal, %function
 4516              	GetTotal:
 4517              	.LFB71:
 557:PumpCom.c     **** 
 558:PumpCom.c     **** /*******************************************************************************
 559:PumpCom.c     **** * Function Name: GetTotal
 560:PumpCom.c     **** ********************************************************************************
 561:PumpCom.c     **** *
 562:PumpCom.c     **** *
 563:PumpCom.c     **** *******************************************************************************/
 564:PumpCom.c     **** 
 565:PumpCom.c     **** void GetTotal(void){
 4518              		.loc 1 565 0
 4519              		.cfi_startproc
 4520              		@ args = 0, pretend = 0, frame = 0
 4521              		@ frame_needed = 1, uses_anonymous_args = 0
 4522              		@ link register save eliminated.
 4523 0000 80B4     		push	{r7}
 4524              		.cfi_def_cfa_offset 4
 4525              		.cfi_offset 7, -4
 4526 0002 00AF     		add	r7, sp, #0
 4527              		.cfi_def_cfa_register 7
 566:PumpCom.c     **** //    for(uint8 x = 4; x < MepsanResponse[3] + 4; x++ ){
 567:PumpCom.c     **** //    }
 568:PumpCom.c     **** }
 4528              		.loc 1 568 0
 4529 0004 00BF     		nop
 4530 0006 BD46     		mov	sp, r7
 4531              		.cfi_def_cfa_register 13
 4532              		@ sp needed
 4533 0008 80BC     		pop	{r7}
 4534              		.cfi_restore 7
 4535              		.cfi_def_cfa_offset 0
 4536 000a 7047     		bx	lr
 4537              		.cfi_endproc
 4538              	.LFE71:
 4539              		.size	GetTotal, .-GetTotal
 4540              		.section	.text.GetACK,"ax",%progbits
 4541              		.align	2
 4542              		.global	GetACK
 4543              		.thumb
 4544              		.thumb_func
 4545              		.type	GetACK, %function
 4546              	GetACK:
 4547              	.LFB72:
 569:PumpCom.c     **** /*******************************************************************************
 570:PumpCom.c     **** * Function Name: GetTotal
 571:PumpCom.c     **** ********************************************************************************
 572:PumpCom.c     **** *
 573:PumpCom.c     **** *
 574:PumpCom.c     **** *******************************************************************************/
 575:PumpCom.c     **** 
 576:PumpCom.c     **** void GetACK(){
 4548              		.loc 1 576 0
 4549              		.cfi_startproc
 4550              		@ args = 0, pretend = 0, frame = 8
ARM GAS  C:\Users\Lenovo\AppData\Local\Temp\ccP94fx0.s 			page 92


 4551              		@ frame_needed = 1, uses_anonymous_args = 0
 4552 0000 90B5     		push	{r4, r7, lr}
 4553              		.cfi_def_cfa_offset 12
 4554              		.cfi_offset 4, -12
 4555              		.cfi_offset 7, -8
 4556              		.cfi_offset 14, -4
 4557 0002 83B0     		sub	sp, sp, #12
 4558              		.cfi_def_cfa_offset 24
 4559 0004 00AF     		add	r7, sp, #0
 4560              		.cfi_def_cfa_register 7
 577:PumpCom.c     ****     uint8 size;
 578:PumpCom.c     ****     size = UART_1_GetRxBufferSize();        
 4561              		.loc 1 578 0
 4562 0006 FFF7FEFF 		bl	UART_1_GetRxBufferSize
 4563 000a 0346     		mov	r3, r0
 4564 000c BB71     		strb	r3, [r7, #6]
 4565              	.LBB30:
 579:PumpCom.c     ****     for(uint8 MepRx = 0; MepRx < size; MepRx++){
 4566              		.loc 1 579 0
 4567 000e 0023     		movs	r3, #0
 4568 0010 FB71     		strb	r3, [r7, #7]
 4569 0012 09E0     		b	.L140
 4570              	.L141:
 580:PumpCom.c     ****         MepsanResponse[MepRx] = UART_1_ReadRxData();        
 4571              		.loc 1 580 0 discriminator 3
 4572 0014 FC79     		ldrb	r4, [r7, #7]	@ zero_extendqisi2
 4573 0016 FFF7FEFF 		bl	UART_1_ReadRxData
 4574 001a 0346     		mov	r3, r0
 4575 001c 1A46     		mov	r2, r3
 4576 001e 074B     		ldr	r3, .L142
 4577 0020 1A55     		strb	r2, [r3, r4]
 579:PumpCom.c     ****     for(uint8 MepRx = 0; MepRx < size; MepRx++){
 4578              		.loc 1 579 0 discriminator 3
 4579 0022 FB79     		ldrb	r3, [r7, #7]	@ zero_extendqisi2
 4580 0024 0133     		adds	r3, r3, #1
 4581 0026 FB71     		strb	r3, [r7, #7]
 4582              	.L140:
 579:PumpCom.c     ****     for(uint8 MepRx = 0; MepRx < size; MepRx++){
 4583              		.loc 1 579 0 is_stmt 0 discriminator 1
 4584 0028 FA79     		ldrb	r2, [r7, #7]	@ zero_extendqisi2
 4585 002a BB79     		ldrb	r3, [r7, #6]	@ zero_extendqisi2
 4586 002c 9A42     		cmp	r2, r3
 4587 002e F1D3     		bcc	.L141
 4588              	.LBE30:
 581:PumpCom.c     ****     }    
 582:PumpCom.c     ****     UART_1_ClearRxBuffer();
 4589              		.loc 1 582 0 is_stmt 1
 4590 0030 FFF7FEFF 		bl	UART_1_ClearRxBuffer
 583:PumpCom.c     **** }
 4591              		.loc 1 583 0
 4592 0034 00BF     		nop
 4593 0036 0C37     		adds	r7, r7, #12
 4594              		.cfi_def_cfa_offset 12
 4595 0038 BD46     		mov	sp, r7
 4596              		.cfi_def_cfa_register 13
 4597              		@ sp needed
 4598 003a 90BD     		pop	{r4, r7, pc}
ARM GAS  C:\Users\Lenovo\AppData\Local\Temp\ccP94fx0.s 			page 93


 4599              	.L143:
 4600              		.align	2
 4601              	.L142:
 4602 003c 00000000 		.word	MepsanResponse
 4603              		.cfi_endproc
 4604              	.LFE72:
 4605              		.size	GetACK, .-GetACK
 4606              		.text
 4607              	.Letext0:
 4608              		.file 2 "c:\\program files (x86)\\cypress\\psoc creator\\4.2\\psoc creator\\import\\gnu\\arm\\5.4.
 4609              		.file 3 "c:\\program files (x86)\\cypress\\psoc creator\\4.2\\psoc creator\\import\\gnu\\arm\\5.4.
 4610              		.file 4 "Generated_Source\\PSoC5/cytypes.h"
 4611              		.file 5 "./GVar.h"
 4612              		.file 6 "Generated_Source\\PSoC5/core_cm3.h"
 4613              		.section	.debug_info,"",%progbits
 4614              	.Ldebug_info0:
 4615 0000 5C090000 		.4byte	0x95c
 4616 0004 0400     		.2byte	0x4
 4617 0006 00000000 		.4byte	.Ldebug_abbrev0
 4618 000a 04       		.byte	0x4
 4619 000b 01       		.uleb128 0x1
 4620 000c 81000000 		.4byte	.LASF72
 4621 0010 0C       		.byte	0xc
 4622 0011 6E030000 		.4byte	.LASF73
 4623 0015 A6030000 		.4byte	.LASF74
 4624 0019 00000000 		.4byte	.Ldebug_ranges0+0
 4625 001d 00000000 		.4byte	0
 4626 0021 00000000 		.4byte	.Ldebug_line0
 4627 0025 02       		.uleb128 0x2
 4628 0026 01       		.byte	0x1
 4629 0027 06       		.byte	0x6
 4630 0028 4A010000 		.4byte	.LASF0
 4631 002c 03       		.uleb128 0x3
 4632 002d B5010000 		.4byte	.LASF3
 4633 0031 02       		.byte	0x2
 4634 0032 1D       		.byte	0x1d
 4635 0033 37000000 		.4byte	0x37
 4636 0037 02       		.uleb128 0x2
 4637 0038 01       		.byte	0x1
 4638 0039 08       		.byte	0x8
 4639 003a 05020000 		.4byte	.LASF1
 4640 003e 02       		.uleb128 0x2
 4641 003f 02       		.byte	0x2
 4642 0040 05       		.byte	0x5
 4643 0041 50000000 		.4byte	.LASF2
 4644 0045 03       		.uleb128 0x3
 4645 0046 19010000 		.4byte	.LASF4
 4646 004a 02       		.byte	0x2
 4647 004b 2B       		.byte	0x2b
 4648 004c 50000000 		.4byte	0x50
 4649 0050 02       		.uleb128 0x2
 4650 0051 02       		.byte	0x2
 4651 0052 07       		.byte	0x7
 4652 0053 83020000 		.4byte	.LASF5
 4653 0057 03       		.uleb128 0x3
 4654 0058 2A030000 		.4byte	.LASF6
 4655 005c 02       		.byte	0x2
ARM GAS  C:\Users\Lenovo\AppData\Local\Temp\ccP94fx0.s 			page 94


 4656 005d 3F       		.byte	0x3f
 4657 005e 62000000 		.4byte	0x62
 4658 0062 02       		.uleb128 0x2
 4659 0063 04       		.byte	0x4
 4660 0064 05       		.byte	0x5
 4661 0065 7E010000 		.4byte	.LASF7
 4662 0069 02       		.uleb128 0x2
 4663 006a 04       		.byte	0x4
 4664 006b 07       		.byte	0x7
 4665 006c F0020000 		.4byte	.LASF8
 4666 0070 02       		.uleb128 0x2
 4667 0071 08       		.byte	0x8
 4668 0072 05       		.byte	0x5
 4669 0073 5C010000 		.4byte	.LASF9
 4670 0077 02       		.uleb128 0x2
 4671 0078 08       		.byte	0x8
 4672 0079 07       		.byte	0x7
 4673 007a 1D020000 		.4byte	.LASF10
 4674 007e 04       		.uleb128 0x4
 4675 007f 04       		.byte	0x4
 4676 0080 05       		.byte	0x5
 4677 0081 696E7400 		.ascii	"int\000"
 4678 0085 02       		.uleb128 0x2
 4679 0086 04       		.byte	0x4
 4680 0087 07       		.byte	0x7
 4681 0088 39020000 		.4byte	.LASF11
 4682 008c 03       		.uleb128 0x3
 4683 008d 3C010000 		.4byte	.LASF12
 4684 0091 03       		.byte	0x3
 4685 0092 18       		.byte	0x18
 4686 0093 2C000000 		.4byte	0x2c
 4687 0097 03       		.uleb128 0x3
 4688 0098 A8020000 		.4byte	.LASF13
 4689 009c 03       		.byte	0x3
 4690 009d 24       		.byte	0x24
 4691 009e 45000000 		.4byte	0x45
 4692 00a2 03       		.uleb128 0x3
 4693 00a3 BB020000 		.4byte	.LASF14
 4694 00a7 03       		.byte	0x3
 4695 00a8 2C       		.byte	0x2c
 4696 00a9 57000000 		.4byte	0x57
 4697 00ad 05       		.uleb128 0x5
 4698 00ae 44010000 		.4byte	.LASF15
 4699 00b2 04       		.byte	0x4
 4700 00b3 E401     		.2byte	0x1e4
 4701 00b5 37000000 		.4byte	0x37
 4702 00b9 05       		.uleb128 0x5
 4703 00ba 2E010000 		.4byte	.LASF16
 4704 00be 04       		.byte	0x4
 4705 00bf E501     		.2byte	0x1e5
 4706 00c1 50000000 		.4byte	0x50
 4707 00c5 02       		.uleb128 0x2
 4708 00c6 04       		.byte	0x4
 4709 00c7 04       		.byte	0x4
 4710 00c8 56010000 		.4byte	.LASF17
 4711 00cc 02       		.uleb128 0x2
 4712 00cd 08       		.byte	0x8
ARM GAS  C:\Users\Lenovo\AppData\Local\Temp\ccP94fx0.s 			page 95


 4713 00ce 04       		.byte	0x4
 4714 00cf 02030000 		.4byte	.LASF18
 4715 00d3 02       		.uleb128 0x2
 4716 00d4 01       		.byte	0x1
 4717 00d5 08       		.byte	0x8
 4718 00d6 A3020000 		.4byte	.LASF19
 4719 00da 02       		.uleb128 0x2
 4720 00db 08       		.byte	0x8
 4721 00dc 04       		.byte	0x4
 4722 00dd ED010000 		.4byte	.LASF20
 4723 00e1 02       		.uleb128 0x2
 4724 00e2 04       		.byte	0x4
 4725 00e3 07       		.byte	0x7
 4726 00e4 5A000000 		.4byte	.LASF21
 4727 00e8 06       		.uleb128 0x6
 4728 00e9 78030000 		.4byte	.LASF34
 4729 00ed 2301     		.2byte	0x123
 4730 00ef 05       		.byte	0x5
 4731 00f0 1C       		.byte	0x1c
 4732 00f1 94010000 		.4byte	0x194
 4733 00f5 07       		.uleb128 0x7
 4734 00f6 64697200 		.ascii	"dir\000"
 4735 00fa 05       		.byte	0x5
 4736 00fb 1D       		.byte	0x1d
 4737 00fc AD000000 		.4byte	0xad
 4738 0100 00       		.byte	0
 4739 0101 08       		.uleb128 0x8
 4740 0102 D6020000 		.4byte	.LASF22
 4741 0106 05       		.byte	0x5
 4742 0107 1E       		.byte	0x1e
 4743 0108 94010000 		.4byte	0x194
 4744 010c 01       		.byte	0x1
 4745 010d 08       		.uleb128 0x8
 4746 010e 13020000 		.4byte	.LASF23
 4747 0112 05       		.byte	0x5
 4748 0113 1F       		.byte	0x1f
 4749 0114 B0010000 		.4byte	0x1b0
 4750 0118 29       		.byte	0x29
 4751 0119 08       		.uleb128 0x8
 4752 011a 4E020000 		.4byte	.LASF24
 4753 011e 05       		.byte	0x5
 4754 011f 20       		.byte	0x20
 4755 0120 C6010000 		.4byte	0x1c6
 4756 0124 35       		.byte	0x35
 4757 0125 08       		.uleb128 0x8
 4758 0126 AA010000 		.4byte	.LASF25
 4759 012a 05       		.byte	0x5
 4760 012b 21       		.byte	0x21
 4761 012c C6010000 		.4byte	0x1c6
 4762 0130 39       		.byte	0x39
 4763 0131 08       		.uleb128 0x8
 4764 0132 46020000 		.4byte	.LASF26
 4765 0136 05       		.byte	0x5
 4766 0137 22       		.byte	0x22
 4767 0138 D6010000 		.4byte	0x1d6
 4768 013c 3D       		.byte	0x3d
 4769 013d 08       		.uleb128 0x8
ARM GAS  C:\Users\Lenovo\AppData\Local\Temp\ccP94fx0.s 			page 96


 4770 013e 77020000 		.4byte	.LASF27
 4771 0142 05       		.byte	0x5
 4772 0143 23       		.byte	0x23
 4773 0144 AD000000 		.4byte	0xad
 4774 0148 4B       		.byte	0x4b
 4775 0149 08       		.uleb128 0x8
 4776 014a 6A010000 		.4byte	.LASF28
 4777 014e 05       		.byte	0x5
 4778 014f 24       		.byte	0x24
 4779 0150 E6010000 		.4byte	0x1e6
 4780 0154 4C       		.byte	0x4c
 4781 0155 08       		.uleb128 0x8
 4782 0156 45030000 		.4byte	.LASF29
 4783 015a 05       		.byte	0x5
 4784 015b 25       		.byte	0x25
 4785 015c F6010000 		.4byte	0x1f6
 4786 0160 51       		.byte	0x51
 4787 0161 08       		.uleb128 0x8
 4788 0162 D0010000 		.4byte	.LASF30
 4789 0166 05       		.byte	0x5
 4790 0167 26       		.byte	0x26
 4791 0168 06020000 		.4byte	0x206
 4792 016c 83       		.byte	0x83
 4793 016d 08       		.uleb128 0x8
 4794 016e 51030000 		.4byte	.LASF31
 4795 0172 05       		.byte	0x5
 4796 0173 27       		.byte	0x27
 4797 0174 22020000 		.4byte	0x222
 4798 0178 FB       		.byte	0xfb
 4799 0179 09       		.uleb128 0x9
 4800 017a 87010000 		.4byte	.LASF32
 4801 017e 05       		.byte	0x5
 4802 017f 28       		.byte	0x28
 4803 0180 22020000 		.4byte	0x222
 4804 0184 0301     		.2byte	0x103
 4805 0186 09       		.uleb128 0x9
 4806 0187 E3020000 		.4byte	.LASF33
 4807 018b 05       		.byte	0x5
 4808 018c 29       		.byte	0x29
 4809 018d 32020000 		.4byte	0x232
 4810 0191 0B01     		.2byte	0x10b
 4811 0193 00       		.byte	0
 4812 0194 0A       		.uleb128 0xa
 4813 0195 AD000000 		.4byte	0xad
 4814 0199 B0010000 		.4byte	0x1b0
 4815 019d 0B       		.uleb128 0xb
 4816 019e E1000000 		.4byte	0xe1
 4817 01a2 03       		.byte	0x3
 4818 01a3 0B       		.uleb128 0xb
 4819 01a4 E1000000 		.4byte	0xe1
 4820 01a8 01       		.byte	0x1
 4821 01a9 0B       		.uleb128 0xb
 4822 01aa E1000000 		.4byte	0xe1
 4823 01ae 04       		.byte	0x4
 4824 01af 00       		.byte	0
 4825 01b0 0A       		.uleb128 0xa
 4826 01b1 AD000000 		.4byte	0xad
ARM GAS  C:\Users\Lenovo\AppData\Local\Temp\ccP94fx0.s 			page 97


 4827 01b5 C6010000 		.4byte	0x1c6
 4828 01b9 0B       		.uleb128 0xb
 4829 01ba E1000000 		.4byte	0xe1
 4830 01be 03       		.byte	0x3
 4831 01bf 0B       		.uleb128 0xb
 4832 01c0 E1000000 		.4byte	0xe1
 4833 01c4 02       		.byte	0x2
 4834 01c5 00       		.byte	0
 4835 01c6 0A       		.uleb128 0xa
 4836 01c7 AD000000 		.4byte	0xad
 4837 01cb D6010000 		.4byte	0x1d6
 4838 01cf 0B       		.uleb128 0xb
 4839 01d0 E1000000 		.4byte	0xe1
 4840 01d4 03       		.byte	0x3
 4841 01d5 00       		.byte	0
 4842 01d6 0A       		.uleb128 0xa
 4843 01d7 AD000000 		.4byte	0xad
 4844 01db E6010000 		.4byte	0x1e6
 4845 01df 0B       		.uleb128 0xb
 4846 01e0 E1000000 		.4byte	0xe1
 4847 01e4 0D       		.byte	0xd
 4848 01e5 00       		.byte	0
 4849 01e6 0A       		.uleb128 0xa
 4850 01e7 AD000000 		.4byte	0xad
 4851 01eb F6010000 		.4byte	0x1f6
 4852 01ef 0B       		.uleb128 0xb
 4853 01f0 E1000000 		.4byte	0xe1
 4854 01f4 04       		.byte	0x4
 4855 01f5 00       		.byte	0
 4856 01f6 0A       		.uleb128 0xa
 4857 01f7 AD000000 		.4byte	0xad
 4858 01fb 06020000 		.4byte	0x206
 4859 01ff 0B       		.uleb128 0xb
 4860 0200 E1000000 		.4byte	0xe1
 4861 0204 31       		.byte	0x31
 4862 0205 00       		.byte	0
 4863 0206 0A       		.uleb128 0xa
 4864 0207 AD000000 		.4byte	0xad
 4865 020b 22020000 		.4byte	0x222
 4866 020f 0B       		.uleb128 0xb
 4867 0210 E1000000 		.4byte	0xe1
 4868 0214 03       		.byte	0x3
 4869 0215 0B       		.uleb128 0xb
 4870 0216 E1000000 		.4byte	0xe1
 4871 021a 02       		.byte	0x2
 4872 021b 0B       		.uleb128 0xb
 4873 021c E1000000 		.4byte	0xe1
 4874 0220 09       		.byte	0x9
 4875 0221 00       		.byte	0
 4876 0222 0A       		.uleb128 0xa
 4877 0223 AD000000 		.4byte	0xad
 4878 0227 32020000 		.4byte	0x232
 4879 022b 0B       		.uleb128 0xb
 4880 022c E1000000 		.4byte	0xe1
 4881 0230 07       		.byte	0x7
 4882 0231 00       		.byte	0
 4883 0232 0A       		.uleb128 0xa
ARM GAS  C:\Users\Lenovo\AppData\Local\Temp\ccP94fx0.s 			page 98


 4884 0233 AD000000 		.4byte	0xad
 4885 0237 48020000 		.4byte	0x248
 4886 023b 0B       		.uleb128 0xb
 4887 023c E1000000 		.4byte	0xe1
 4888 0240 03       		.byte	0x3
 4889 0241 0B       		.uleb128 0xb
 4890 0242 E1000000 		.4byte	0xe1
 4891 0246 05       		.byte	0x5
 4892 0247 00       		.byte	0
 4893 0248 06       		.uleb128 0x6
 4894 0249 C3020000 		.4byte	.LASF35
 4895 024d 8C04     		.2byte	0x48c
 4896 024f 05       		.byte	0x5
 4897 0250 2D       		.byte	0x2d
 4898 0251 81020000 		.4byte	0x281
 4899 0255 07       		.uleb128 0x7
 4900 0256 6100     		.ascii	"a\000"
 4901 0258 05       		.byte	0x5
 4902 0259 2E       		.byte	0x2e
 4903 025a E8000000 		.4byte	0xe8
 4904 025e 00       		.byte	0
 4905 025f 0C       		.uleb128 0xc
 4906 0260 6200     		.ascii	"b\000"
 4907 0262 05       		.byte	0x5
 4908 0263 2F       		.byte	0x2f
 4909 0264 E8000000 		.4byte	0xe8
 4910 0268 2301     		.2byte	0x123
 4911 026a 0C       		.uleb128 0xc
 4912 026b 6300     		.ascii	"c\000"
 4913 026d 05       		.byte	0x5
 4914 026e 30       		.byte	0x30
 4915 026f E8000000 		.4byte	0xe8
 4916 0273 4602     		.2byte	0x246
 4917 0275 0C       		.uleb128 0xc
 4918 0276 6400     		.ascii	"d\000"
 4919 0278 05       		.byte	0x5
 4920 0279 31       		.byte	0x31
 4921 027a E8000000 		.4byte	0xe8
 4922 027e 6903     		.2byte	0x369
 4923 0280 00       		.byte	0
 4924 0281 0D       		.uleb128 0xd
 4925 0282 14000000 		.4byte	.LASF75
 4926 0286 01       		.byte	0x1
 4927 0287 37000000 		.4byte	0x37
 4928 028b 05       		.byte	0x5
 4929 028c 36       		.byte	0x36
 4930 028d A4020000 		.4byte	0x2a4
 4931 0291 0E       		.uleb128 0xe
 4932 0292 99030000 		.4byte	.LASF36
 4933 0296 00       		.byte	0
 4934 0297 0E       		.uleb128 0xe
 4935 0298 BF010000 		.4byte	.LASF37
 4936 029c 06       		.byte	0x6
 4937 029d 0E       		.uleb128 0xe
 4938 029e 36000000 		.4byte	.LASF38
 4939 02a2 04       		.byte	0x4
 4940 02a3 00       		.byte	0
ARM GAS  C:\Users\Lenovo\AppData\Local\Temp\ccP94fx0.s 			page 99


 4941 02a4 0F       		.uleb128 0xf
 4942 02a5 B1020000 		.4byte	.LASF45
 4943 02a9 01       		.byte	0x1
 4944 02aa 1A       		.byte	0x1a
 4945 02ab 97000000 		.4byte	0x97
 4946 02af 00000000 		.4byte	.LFB63
 4947 02b3 FA000000 		.4byte	.LFE63-.LFB63
 4948 02b7 01       		.uleb128 0x1
 4949 02b8 9C       		.byte	0x9c
 4950 02b9 2A030000 		.4byte	0x32a
 4951 02bd 10       		.uleb128 0x10
 4952 02be D1020000 		.4byte	.LASF39
 4953 02c2 01       		.byte	0x1
 4954 02c3 1A       		.byte	0x1a
 4955 02c4 2A030000 		.4byte	0x32a
 4956 02c8 02       		.uleb128 0x2
 4957 02c9 91       		.byte	0x91
 4958 02ca 5C       		.sleb128 -36
 4959 02cb 10       		.uleb128 0x10
 4960 02cc 25030000 		.4byte	.LASF40
 4961 02d0 01       		.byte	0x1
 4962 02d1 1A       		.byte	0x1a
 4963 02d2 97000000 		.4byte	0x97
 4964 02d6 02       		.uleb128 0x2
 4965 02d7 91       		.byte	0x91
 4966 02d8 5A       		.sleb128 -38
 4967 02d9 11       		.uleb128 0x11
 4968 02da 6F757400 		.ascii	"out\000"
 4969 02de 01       		.byte	0x1
 4970 02df 1C       		.byte	0x1c
 4971 02e0 97000000 		.4byte	0x97
 4972 02e4 02       		.uleb128 0x2
 4973 02e5 91       		.byte	0x91
 4974 02e6 76       		.sleb128 -10
 4975 02e7 12       		.uleb128 0x12
 4976 02e8 6D020000 		.4byte	.LASF41
 4977 02ec 01       		.byte	0x1
 4978 02ed 1D       		.byte	0x1d
 4979 02ee 7E000000 		.4byte	0x7e
 4980 02f2 02       		.uleb128 0x2
 4981 02f3 91       		.byte	0x91
 4982 02f4 70       		.sleb128 -16
 4983 02f5 12       		.uleb128 0x12
 4984 02f6 47000000 		.4byte	.LASF42
 4985 02fa 01       		.byte	0x1
 4986 02fb 1D       		.byte	0x1d
 4987 02fc 7E000000 		.4byte	0x7e
 4988 0300 02       		.uleb128 0x2
 4989 0301 91       		.byte	0x91
 4990 0302 60       		.sleb128 -32
 4991 0303 11       		.uleb128 0x11
 4992 0304 6900     		.ascii	"i\000"
 4993 0306 01       		.byte	0x1
 4994 0307 3B       		.byte	0x3b
 4995 0308 7E000000 		.4byte	0x7e
 4996 030c 02       		.uleb128 0x2
 4997 030d 91       		.byte	0x91
ARM GAS  C:\Users\Lenovo\AppData\Local\Temp\ccP94fx0.s 			page 100


 4998 030e 6C       		.sleb128 -20
 4999 030f 11       		.uleb128 0x11
 5000 0310 63726300 		.ascii	"crc\000"
 5001 0314 01       		.byte	0x1
 5002 0315 44       		.byte	0x44
 5003 0316 97000000 		.4byte	0x97
 5004 031a 02       		.uleb128 0x2
 5005 031b 91       		.byte	0x91
 5006 031c 6A       		.sleb128 -22
 5007 031d 11       		.uleb128 0x11
 5008 031e 6A00     		.ascii	"j\000"
 5009 0320 01       		.byte	0x1
 5010 0321 46       		.byte	0x46
 5011 0322 7E000000 		.4byte	0x7e
 5012 0326 02       		.uleb128 0x2
 5013 0327 91       		.byte	0x91
 5014 0328 64       		.sleb128 -28
 5015 0329 00       		.byte	0
 5016 032a 13       		.uleb128 0x13
 5017 032b 04       		.byte	0x4
 5018 032c 30030000 		.4byte	0x330
 5019 0330 14       		.uleb128 0x14
 5020 0331 8C000000 		.4byte	0x8c
 5021 0335 15       		.uleb128 0x15
 5022 0336 75000000 		.4byte	.LASF53
 5023 033a 01       		.byte	0x1
 5024 033b 54       		.byte	0x54
 5025 033c 00000000 		.4byte	.LFB64
 5026 0340 701A0000 		.4byte	.LFE64-.LFB64
 5027 0344 01       		.uleb128 0x1
 5028 0345 9C       		.byte	0x9c
 5029 0346 A6040000 		.4byte	0x4a6
 5030 034a 12       		.uleb128 0x12
 5031 034b 25030000 		.4byte	.LASF40
 5032 034f 01       		.byte	0x1
 5033 0350 55       		.byte	0x55
 5034 0351 AD000000 		.4byte	0xad
 5035 0355 02       		.uleb128 0x2
 5036 0356 91       		.byte	0x91
 5037 0357 5B       		.sleb128 -37
 5038 0358 12       		.uleb128 0x12
 5039 0359 9B010000 		.4byte	.LASF43
 5040 035d 01       		.byte	0x1
 5041 035e 55       		.byte	0x55
 5042 035f AD000000 		.4byte	0xad
 5043 0363 02       		.uleb128 0x2
 5044 0364 91       		.byte	0x91
 5045 0365 5A       		.sleb128 -38
 5046 0366 16       		.uleb128 0x16
 5047 0367 22000000 		.4byte	.LBB2
 5048 036b 2A000000 		.4byte	.LBE2-.LBB2
 5049 036f 82030000 		.4byte	0x382
 5050 0373 12       		.uleb128 0x12
 5051 0374 9D020000 		.4byte	.LASF44
 5052 0378 01       		.byte	0x1
 5053 0379 5A       		.byte	0x5a
 5054 037a AD000000 		.4byte	0xad
ARM GAS  C:\Users\Lenovo\AppData\Local\Temp\ccP94fx0.s 			page 101


 5055 037e 02       		.uleb128 0x2
 5056 037f 91       		.byte	0x91
 5057 0380 67       		.sleb128 -25
 5058 0381 00       		.byte	0
 5059 0382 16       		.uleb128 0x16
 5060 0383 58000000 		.4byte	.LBB3
 5061 0387 60000000 		.4byte	.LBE3-.LBB3
 5062 038b 9C030000 		.4byte	0x39c
 5063 038f 11       		.uleb128 0x11
 5064 0390 7800     		.ascii	"x\000"
 5065 0392 01       		.byte	0x1
 5066 0393 5E       		.byte	0x5e
 5067 0394 AD000000 		.4byte	0xad
 5068 0398 02       		.uleb128 0x2
 5069 0399 91       		.byte	0x91
 5070 039a 66       		.sleb128 -26
 5071 039b 00       		.byte	0
 5072 039c 16       		.uleb128 0x16
 5073 039d E0040000 		.4byte	.LBB4
 5074 03a1 44000000 		.4byte	.LBE4-.LBB4
 5075 03a5 B6030000 		.4byte	0x3b6
 5076 03a9 11       		.uleb128 0x11
 5077 03aa 7800     		.ascii	"x\000"
 5078 03ac 01       		.byte	0x1
 5079 03ad 77       		.byte	0x77
 5080 03ae AD000000 		.4byte	0xad
 5081 03b2 02       		.uleb128 0x2
 5082 03b3 91       		.byte	0x91
 5083 03b4 65       		.sleb128 -27
 5084 03b5 00       		.byte	0
 5085 03b6 16       		.uleb128 0x16
 5086 03b7 8E060000 		.4byte	.LBB5
 5087 03bb 36000000 		.4byte	.LBE5-.LBB5
 5088 03bf D2030000 		.4byte	0x3d2
 5089 03c3 12       		.uleb128 0x12
 5090 03c4 9D020000 		.4byte	.LASF44
 5091 03c8 01       		.byte	0x1
 5092 03c9 92       		.byte	0x92
 5093 03ca AD000000 		.4byte	0xad
 5094 03ce 02       		.uleb128 0x2
 5095 03cf 91       		.byte	0x91
 5096 03d0 64       		.sleb128 -28
 5097 03d1 00       		.byte	0
 5098 03d2 16       		.uleb128 0x16
 5099 03d3 D0060000 		.4byte	.LBB6
 5100 03d7 62000000 		.4byte	.LBE6-.LBB6
 5101 03db EC030000 		.4byte	0x3ec
 5102 03df 11       		.uleb128 0x11
 5103 03e0 7800     		.ascii	"x\000"
 5104 03e2 01       		.byte	0x1
 5105 03e3 96       		.byte	0x96
 5106 03e4 AD000000 		.4byte	0xad
 5107 03e8 02       		.uleb128 0x2
 5108 03e9 91       		.byte	0x91
 5109 03ea 63       		.sleb128 -29
 5110 03eb 00       		.byte	0
 5111 03ec 16       		.uleb128 0x16
ARM GAS  C:\Users\Lenovo\AppData\Local\Temp\ccP94fx0.s 			page 102


 5112 03ed 820B0000 		.4byte	.LBB7
 5113 03f1 50000000 		.4byte	.LBE7-.LBB7
 5114 03f5 06040000 		.4byte	0x406
 5115 03f9 11       		.uleb128 0x11
 5116 03fa 7800     		.ascii	"x\000"
 5117 03fc 01       		.byte	0x1
 5118 03fd AF       		.byte	0xaf
 5119 03fe AD000000 		.4byte	0xad
 5120 0402 02       		.uleb128 0x2
 5121 0403 91       		.byte	0x91
 5122 0404 62       		.sleb128 -30
 5123 0405 00       		.byte	0
 5124 0406 16       		.uleb128 0x16
 5125 0407 3C0D0000 		.4byte	.LBB8
 5126 040b 2A000000 		.4byte	.LBE8-.LBB8
 5127 040f 22040000 		.4byte	0x422
 5128 0413 12       		.uleb128 0x12
 5129 0414 9D020000 		.4byte	.LASF44
 5130 0418 01       		.byte	0x1
 5131 0419 CA       		.byte	0xca
 5132 041a AD000000 		.4byte	0xad
 5133 041e 02       		.uleb128 0x2
 5134 041f 91       		.byte	0x91
 5135 0420 61       		.sleb128 -31
 5136 0421 00       		.byte	0
 5137 0422 16       		.uleb128 0x16
 5138 0423 720D0000 		.4byte	.LBB9
 5139 0427 64000000 		.4byte	.LBE9-.LBB9
 5140 042b 3C040000 		.4byte	0x43c
 5141 042f 11       		.uleb128 0x11
 5142 0430 7800     		.ascii	"x\000"
 5143 0432 01       		.byte	0x1
 5144 0433 CE       		.byte	0xce
 5145 0434 AD000000 		.4byte	0xad
 5146 0438 02       		.uleb128 0x2
 5147 0439 91       		.byte	0x91
 5148 043a 60       		.sleb128 -32
 5149 043b 00       		.byte	0
 5150 043c 16       		.uleb128 0x16
 5151 043d 20120000 		.4byte	.LBB10
 5152 0441 44000000 		.4byte	.LBE10-.LBB10
 5153 0445 56040000 		.4byte	0x456
 5154 0449 11       		.uleb128 0x11
 5155 044a 7800     		.ascii	"x\000"
 5156 044c 01       		.byte	0x1
 5157 044d E5       		.byte	0xe5
 5158 044e AD000000 		.4byte	0xad
 5159 0452 02       		.uleb128 0x2
 5160 0453 91       		.byte	0x91
 5161 0454 5F       		.sleb128 -33
 5162 0455 00       		.byte	0
 5163 0456 16       		.uleb128 0x16
 5164 0457 CE130000 		.4byte	.LBB11
 5165 045b 36000000 		.4byte	.LBE11-.LBB11
 5166 045f 73040000 		.4byte	0x473
 5167 0463 17       		.uleb128 0x17
 5168 0464 9D020000 		.4byte	.LASF44
ARM GAS  C:\Users\Lenovo\AppData\Local\Temp\ccP94fx0.s 			page 103


 5169 0468 01       		.byte	0x1
 5170 0469 0001     		.2byte	0x100
 5171 046b AD000000 		.4byte	0xad
 5172 046f 02       		.uleb128 0x2
 5173 0470 91       		.byte	0x91
 5174 0471 5E       		.sleb128 -34
 5175 0472 00       		.byte	0
 5176 0473 16       		.uleb128 0x16
 5177 0474 10140000 		.4byte	.LBB12
 5178 0478 62000000 		.4byte	.LBE12-.LBB12
 5179 047c 8E040000 		.4byte	0x48e
 5180 0480 18       		.uleb128 0x18
 5181 0481 7800     		.ascii	"x\000"
 5182 0483 01       		.byte	0x1
 5183 0484 0401     		.2byte	0x104
 5184 0486 AD000000 		.4byte	0xad
 5185 048a 02       		.uleb128 0x2
 5186 048b 91       		.byte	0x91
 5187 048c 5D       		.sleb128 -35
 5188 048d 00       		.byte	0
 5189 048e 19       		.uleb128 0x19
 5190 048f BC180000 		.4byte	.LBB13
 5191 0493 44000000 		.4byte	.LBE13-.LBB13
 5192 0497 18       		.uleb128 0x18
 5193 0498 7800     		.ascii	"x\000"
 5194 049a 01       		.byte	0x1
 5195 049b 1B01     		.2byte	0x11b
 5196 049d AD000000 		.4byte	0xad
 5197 04a1 02       		.uleb128 0x2
 5198 04a2 91       		.byte	0x91
 5199 04a3 5C       		.sleb128 -36
 5200 04a4 00       		.byte	0
 5201 04a5 00       		.byte	0
 5202 04a6 1A       		.uleb128 0x1a
 5203 04a7 81030000 		.4byte	.LASF46
 5204 04ab 01       		.byte	0x1
 5205 04ac 3D01     		.2byte	0x13d
 5206 04ae AD000000 		.4byte	0xad
 5207 04b2 00000000 		.4byte	.LFB65
 5208 04b6 B0000000 		.4byte	.LFE65-.LFB65
 5209 04ba 01       		.uleb128 0x1
 5210 04bb 9C       		.byte	0x9c
 5211 04bc F8040000 		.4byte	0x4f8
 5212 04c0 1B       		.uleb128 0x1b
 5213 04c1 706F7300 		.ascii	"pos\000"
 5214 04c5 01       		.byte	0x1
 5215 04c6 3D01     		.2byte	0x13d
 5216 04c8 AD000000 		.4byte	0xad
 5217 04cc 02       		.uleb128 0x2
 5218 04cd 91       		.byte	0x91
 5219 04ce 67       		.sleb128 -25
 5220 04cf 17       		.uleb128 0x17
 5221 04d0 25030000 		.4byte	.LASF40
 5222 04d4 01       		.byte	0x1
 5223 04d5 4201     		.2byte	0x142
 5224 04d7 AD000000 		.4byte	0xad
 5225 04db 02       		.uleb128 0x2
ARM GAS  C:\Users\Lenovo\AppData\Local\Temp\ccP94fx0.s 			page 104


 5226 04dc 91       		.byte	0x91
 5227 04dd 6E       		.sleb128 -18
 5228 04de 19       		.uleb128 0x19
 5229 04df 5C000000 		.4byte	.LBB14
 5230 04e3 22000000 		.4byte	.LBE14-.LBB14
 5231 04e7 17       		.uleb128 0x17
 5232 04e8 9D020000 		.4byte	.LASF44
 5233 04ec 01       		.byte	0x1
 5234 04ed 4A01     		.2byte	0x14a
 5235 04ef AD000000 		.4byte	0xad
 5236 04f3 02       		.uleb128 0x2
 5237 04f4 91       		.byte	0x91
 5238 04f5 6F       		.sleb128 -17
 5239 04f6 00       		.byte	0
 5240 04f7 00       		.byte	0
 5241 04f8 1A       		.uleb128 0x1a
 5242 04f9 0F010000 		.4byte	.LASF47
 5243 04fd 01       		.byte	0x1
 5244 04fe 5E01     		.2byte	0x15e
 5245 0500 AD000000 		.4byte	0xad
 5246 0504 00000000 		.4byte	.LFB66
 5247 0508 DC000000 		.4byte	.LFE66-.LFB66
 5248 050c 01       		.uleb128 0x1
 5249 050d 9C       		.byte	0x9c
 5250 050e 6F050000 		.4byte	0x56f
 5251 0512 1C       		.uleb128 0x1c
 5252 0513 9B010000 		.4byte	.LASF43
 5253 0517 01       		.byte	0x1
 5254 0518 5E01     		.2byte	0x15e
 5255 051a AD000000 		.4byte	0xad
 5256 051e 02       		.uleb128 0x2
 5257 051f 91       		.byte	0x91
 5258 0520 6F       		.sleb128 -17
 5259 0521 1D       		.uleb128 0x1d
 5260 0522 25030000 		.4byte	.LASF40
 5261 0526 01       		.byte	0x1
 5262 0527 5F01     		.2byte	0x15f
 5263 0529 AD000000 		.4byte	0xad
 5264 052d 17       		.uleb128 0x17
 5265 052e 96020000 		.4byte	.LASF48
 5266 0532 01       		.byte	0x1
 5267 0533 5F01     		.2byte	0x15f
 5268 0535 AD000000 		.4byte	0xad
 5269 0539 02       		.uleb128 0x2
 5270 053a 91       		.byte	0x91
 5271 053b 75       		.sleb128 -11
 5272 053c 16       		.uleb128 0x16
 5273 053d 0A000000 		.4byte	.LBB15
 5274 0541 1A000000 		.4byte	.LBE15-.LBB15
 5275 0545 57050000 		.4byte	0x557
 5276 0549 18       		.uleb128 0x18
 5277 054a 7800     		.ascii	"x\000"
 5278 054c 01       		.byte	0x1
 5279 054d 6001     		.2byte	0x160
 5280 054f AD000000 		.4byte	0xad
 5281 0553 02       		.uleb128 0x2
 5282 0554 91       		.byte	0x91
ARM GAS  C:\Users\Lenovo\AppData\Local\Temp\ccP94fx0.s 			page 105


 5283 0555 77       		.sleb128 -9
 5284 0556 00       		.byte	0
 5285 0557 19       		.uleb128 0x19
 5286 0558 92000000 		.4byte	.LBB16
 5287 055c 1E000000 		.4byte	.LBE16-.LBB16
 5288 0560 18       		.uleb128 0x18
 5289 0561 7800     		.ascii	"x\000"
 5290 0563 01       		.byte	0x1
 5291 0564 7001     		.2byte	0x170
 5292 0566 AD000000 		.4byte	0xad
 5293 056a 02       		.uleb128 0x2
 5294 056b 91       		.byte	0x91
 5295 056c 76       		.sleb128 -10
 5296 056d 00       		.byte	0
 5297 056e 00       		.byte	0
 5298 056f 1A       		.uleb128 0x1a
 5299 0570 00000000 		.4byte	.LASF49
 5300 0574 01       		.byte	0x1
 5301 0575 7F01     		.2byte	0x17f
 5302 0577 AD000000 		.4byte	0xad
 5303 057b 00000000 		.4byte	.LFB67
 5304 057f 14010000 		.4byte	.LFE67-.LFB67
 5305 0583 01       		.uleb128 0x1
 5306 0584 9C       		.byte	0x9c
 5307 0585 06060000 		.4byte	0x606
 5308 0589 1C       		.uleb128 0x1c
 5309 058a 9B010000 		.4byte	.LASF43
 5310 058e 01       		.byte	0x1
 5311 058f 7F01     		.2byte	0x17f
 5312 0591 AD000000 		.4byte	0xad
 5313 0595 02       		.uleb128 0x2
 5314 0596 91       		.byte	0x91
 5315 0597 67       		.sleb128 -25
 5316 0598 17       		.uleb128 0x17
 5317 0599 25030000 		.4byte	.LASF40
 5318 059d 01       		.byte	0x1
 5319 059e 8001     		.2byte	0x180
 5320 05a0 AD000000 		.4byte	0xad
 5321 05a4 02       		.uleb128 0x2
 5322 05a5 91       		.byte	0x91
 5323 05a6 6C       		.sleb128 -20
 5324 05a7 17       		.uleb128 0x17
 5325 05a8 96020000 		.4byte	.LASF48
 5326 05ac 01       		.byte	0x1
 5327 05ad 8001     		.2byte	0x180
 5328 05af AD000000 		.4byte	0xad
 5329 05b3 02       		.uleb128 0x2
 5330 05b4 91       		.byte	0x91
 5331 05b5 6B       		.sleb128 -21
 5332 05b6 16       		.uleb128 0x16
 5333 05b7 0A000000 		.4byte	.LBB17
 5334 05bb 1A000000 		.4byte	.LBE17-.LBB17
 5335 05bf D1050000 		.4byte	0x5d1
 5336 05c3 18       		.uleb128 0x18
 5337 05c4 7800     		.ascii	"x\000"
 5338 05c6 01       		.byte	0x1
 5339 05c7 8101     		.2byte	0x181
ARM GAS  C:\Users\Lenovo\AppData\Local\Temp\ccP94fx0.s 			page 106


 5340 05c9 AD000000 		.4byte	0xad
 5341 05cd 02       		.uleb128 0x2
 5342 05ce 91       		.byte	0x91
 5343 05cf 6F       		.sleb128 -17
 5344 05d0 00       		.byte	0
 5345 05d1 16       		.uleb128 0x16
 5346 05d2 96000000 		.4byte	.LBB18
 5347 05d6 1E000000 		.4byte	.LBE18-.LBB18
 5348 05da EC050000 		.4byte	0x5ec
 5349 05de 18       		.uleb128 0x18
 5350 05df 7800     		.ascii	"x\000"
 5351 05e1 01       		.byte	0x1
 5352 05e2 9101     		.2byte	0x191
 5353 05e4 AD000000 		.4byte	0xad
 5354 05e8 02       		.uleb128 0x2
 5355 05e9 91       		.byte	0x91
 5356 05ea 6E       		.sleb128 -18
 5357 05eb 00       		.byte	0
 5358 05ec 19       		.uleb128 0x19
 5359 05ed C8000000 		.4byte	.LBB19
 5360 05f1 22000000 		.4byte	.LBE19-.LBB19
 5361 05f5 17       		.uleb128 0x17
 5362 05f6 9D020000 		.4byte	.LASF44
 5363 05fa 01       		.byte	0x1
 5364 05fb 9701     		.2byte	0x197
 5365 05fd AD000000 		.4byte	0xad
 5366 0601 02       		.uleb128 0x2
 5367 0602 91       		.byte	0x91
 5368 0603 6D       		.sleb128 -19
 5369 0604 00       		.byte	0
 5370 0605 00       		.byte	0
 5371 0606 1A       		.uleb128 0x1a
 5372 0607 64030000 		.4byte	.LASF50
 5373 060b 01       		.byte	0x1
 5374 060c A601     		.2byte	0x1a6
 5375 060e AD000000 		.4byte	0xad
 5376 0612 00000000 		.4byte	.LFB68
 5377 0616 84010000 		.4byte	.LFE68-.LFB68
 5378 061a 01       		.uleb128 0x1
 5379 061b 9C       		.byte	0x9c
 5380 061c E7060000 		.4byte	0x6e7
 5381 0620 1C       		.uleb128 0x1c
 5382 0621 9B010000 		.4byte	.LASF43
 5383 0625 01       		.byte	0x1
 5384 0626 A601     		.2byte	0x1a6
 5385 0628 AD000000 		.4byte	0xad
 5386 062c 02       		.uleb128 0x2
 5387 062d 91       		.byte	0x91
 5388 062e 67       		.sleb128 -25
 5389 062f 17       		.uleb128 0x17
 5390 0630 25030000 		.4byte	.LASF40
 5391 0634 01       		.byte	0x1
 5392 0635 AB01     		.2byte	0x1ab
 5393 0637 AD000000 		.4byte	0xad
 5394 063b 02       		.uleb128 0x2
 5395 063c 91       		.byte	0x91
 5396 063d 69       		.sleb128 -23
ARM GAS  C:\Users\Lenovo\AppData\Local\Temp\ccP94fx0.s 			page 107


 5397 063e 16       		.uleb128 0x16
 5398 063f 0A000000 		.4byte	.LBB20
 5399 0643 1A000000 		.4byte	.LBE20-.LBB20
 5400 0647 59060000 		.4byte	0x659
 5401 064b 18       		.uleb128 0x18
 5402 064c 7800     		.ascii	"x\000"
 5403 064e 01       		.byte	0x1
 5404 064f A801     		.2byte	0x1a8
 5405 0651 AD000000 		.4byte	0xad
 5406 0655 02       		.uleb128 0x2
 5407 0656 91       		.byte	0x91
 5408 0657 6F       		.sleb128 -17
 5409 0658 00       		.byte	0
 5410 0659 16       		.uleb128 0x16
 5411 065a 58000000 		.4byte	.LBB21
 5412 065e 24000000 		.4byte	.LBE21-.LBB21
 5413 0662 76060000 		.4byte	0x676
 5414 0666 17       		.uleb128 0x17
 5415 0667 9D020000 		.4byte	.LASF44
 5416 066b 01       		.byte	0x1
 5417 066c B301     		.2byte	0x1b3
 5418 066e AD000000 		.4byte	0xad
 5419 0672 02       		.uleb128 0x2
 5420 0673 91       		.byte	0x91
 5421 0674 6E       		.sleb128 -18
 5422 0675 00       		.byte	0
 5423 0676 16       		.uleb128 0x16
 5424 0677 A8000000 		.4byte	.LBB22
 5425 067b 26000000 		.4byte	.LBE22-.LBB22
 5426 067f 93060000 		.4byte	0x693
 5427 0683 17       		.uleb128 0x17
 5428 0684 9D020000 		.4byte	.LASF44
 5429 0688 01       		.byte	0x1
 5430 0689 BE01     		.2byte	0x1be
 5431 068b AD000000 		.4byte	0xad
 5432 068f 02       		.uleb128 0x2
 5433 0690 91       		.byte	0x91
 5434 0691 6D       		.sleb128 -19
 5435 0692 00       		.byte	0
 5436 0693 16       		.uleb128 0x16
 5437 0694 DA000000 		.4byte	.LBB23
 5438 0698 26000000 		.4byte	.LBE23-.LBB23
 5439 069c B0060000 		.4byte	0x6b0
 5440 06a0 17       		.uleb128 0x17
 5441 06a1 9D020000 		.4byte	.LASF44
 5442 06a5 01       		.byte	0x1
 5443 06a6 C301     		.2byte	0x1c3
 5444 06a8 AD000000 		.4byte	0xad
 5445 06ac 02       		.uleb128 0x2
 5446 06ad 91       		.byte	0x91
 5447 06ae 6C       		.sleb128 -20
 5448 06af 00       		.byte	0
 5449 06b0 16       		.uleb128 0x16
 5450 06b1 0C010000 		.4byte	.LBB24
 5451 06b5 26000000 		.4byte	.LBE24-.LBB24
 5452 06b9 CD060000 		.4byte	0x6cd
 5453 06bd 17       		.uleb128 0x17
ARM GAS  C:\Users\Lenovo\AppData\Local\Temp\ccP94fx0.s 			page 108


 5454 06be 9D020000 		.4byte	.LASF44
 5455 06c2 01       		.byte	0x1
 5456 06c3 C801     		.2byte	0x1c8
 5457 06c5 AD000000 		.4byte	0xad
 5458 06c9 02       		.uleb128 0x2
 5459 06ca 91       		.byte	0x91
 5460 06cb 6B       		.sleb128 -21
 5461 06cc 00       		.byte	0
 5462 06cd 19       		.uleb128 0x19
 5463 06ce 3E010000 		.4byte	.LBB25
 5464 06d2 26000000 		.4byte	.LBE25-.LBB25
 5465 06d6 17       		.uleb128 0x17
 5466 06d7 9D020000 		.4byte	.LASF44
 5467 06db 01       		.byte	0x1
 5468 06dc CD01     		.2byte	0x1cd
 5469 06de AD000000 		.4byte	0xad
 5470 06e2 02       		.uleb128 0x2
 5471 06e3 91       		.byte	0x91
 5472 06e4 6A       		.sleb128 -22
 5473 06e5 00       		.byte	0
 5474 06e6 00       		.byte	0
 5475 06e7 1A       		.uleb128 0x1a
 5476 06e8 23000000 		.4byte	.LASF51
 5477 06ec 01       		.byte	0x1
 5478 06ed E301     		.2byte	0x1e3
 5479 06ef AD000000 		.4byte	0xad
 5480 06f3 00000000 		.4byte	.LFB69
 5481 06f7 18010000 		.4byte	.LFE69-.LFB69
 5482 06fb 01       		.uleb128 0x1
 5483 06fc 9C       		.byte	0x9c
 5484 06fd 63070000 		.4byte	0x763
 5485 0701 1C       		.uleb128 0x1c
 5486 0702 9B010000 		.4byte	.LASF43
 5487 0706 01       		.byte	0x1
 5488 0707 E301     		.2byte	0x1e3
 5489 0709 AD000000 		.4byte	0xad
 5490 070d 02       		.uleb128 0x2
 5491 070e 91       		.byte	0x91
 5492 070f 67       		.sleb128 -25
 5493 0710 1C       		.uleb128 0x1c
 5494 0711 6F000000 		.4byte	.LASF52
 5495 0715 01       		.byte	0x1
 5496 0716 E301     		.2byte	0x1e3
 5497 0718 63070000 		.4byte	0x763
 5498 071c 02       		.uleb128 0x2
 5499 071d 91       		.byte	0x91
 5500 071e 60       		.sleb128 -32
 5501 071f 17       		.uleb128 0x17
 5502 0720 25030000 		.4byte	.LASF40
 5503 0724 01       		.byte	0x1
 5504 0725 E501     		.2byte	0x1e5
 5505 0727 AD000000 		.4byte	0xad
 5506 072b 02       		.uleb128 0x2
 5507 072c 91       		.byte	0x91
 5508 072d 6D       		.sleb128 -19
 5509 072e 16       		.uleb128 0x16
 5510 072f 8C000000 		.4byte	.LBB26
ARM GAS  C:\Users\Lenovo\AppData\Local\Temp\ccP94fx0.s 			page 109


 5511 0733 1E000000 		.4byte	.LBE26-.LBB26
 5512 0737 49070000 		.4byte	0x749
 5513 073b 18       		.uleb128 0x18
 5514 073c 7800     		.ascii	"x\000"
 5515 073e 01       		.byte	0x1
 5516 073f F501     		.2byte	0x1f5
 5517 0741 AD000000 		.4byte	0xad
 5518 0745 02       		.uleb128 0x2
 5519 0746 91       		.byte	0x91
 5520 0747 6F       		.sleb128 -17
 5521 0748 00       		.byte	0
 5522 0749 19       		.uleb128 0x19
 5523 074a BE000000 		.4byte	.LBB27
 5524 074e 22000000 		.4byte	.LBE27-.LBB27
 5525 0752 17       		.uleb128 0x17
 5526 0753 9D020000 		.4byte	.LASF44
 5527 0757 01       		.byte	0x1
 5528 0758 FB01     		.2byte	0x1fb
 5529 075a AD000000 		.4byte	0xad
 5530 075e 02       		.uleb128 0x2
 5531 075f 91       		.byte	0x91
 5532 0760 6E       		.sleb128 -18
 5533 0761 00       		.byte	0
 5534 0762 00       		.byte	0
 5535 0763 13       		.uleb128 0x13
 5536 0764 04       		.byte	0x4
 5537 0765 AD000000 		.4byte	0xad
 5538 0769 1E       		.uleb128 0x1e
 5539 076a 71010000 		.4byte	.LASF54
 5540 076e 01       		.byte	0x1
 5541 076f 0F02     		.2byte	0x20f
 5542 0771 00000000 		.4byte	.LFB70
 5543 0775 0C010000 		.4byte	.LFE70-.LFB70
 5544 0779 01       		.uleb128 0x1
 5545 077a 9C       		.byte	0x9c
 5546 077b FF070000 		.4byte	0x7ff
 5547 077f 1C       		.uleb128 0x1c
 5548 0780 9B010000 		.4byte	.LASF43
 5549 0784 01       		.byte	0x1
 5550 0785 0F02     		.2byte	0x20f
 5551 0787 AD000000 		.4byte	0xad
 5552 078b 02       		.uleb128 0x2
 5553 078c 91       		.byte	0x91
 5554 078d 67       		.sleb128 -25
 5555 078e 1C       		.uleb128 0x1c
 5556 078f 34020000 		.4byte	.LASF55
 5557 0793 01       		.byte	0x1
 5558 0794 0F02     		.2byte	0x20f
 5559 0796 AD000000 		.4byte	0xad
 5560 079a 02       		.uleb128 0x2
 5561 079b 91       		.byte	0x91
 5562 079c 66       		.sleb128 -26
 5563 079d 1C       		.uleb128 0x1c
 5564 079e 35010000 		.4byte	.LASF56
 5565 07a2 01       		.byte	0x1
 5566 07a3 0F02     		.2byte	0x20f
 5567 07a5 AD000000 		.4byte	0xad
ARM GAS  C:\Users\Lenovo\AppData\Local\Temp\ccP94fx0.s 			page 110


 5568 07a9 02       		.uleb128 0x2
 5569 07aa 91       		.byte	0x91
 5570 07ab 65       		.sleb128 -27
 5571 07ac 17       		.uleb128 0x17
 5572 07ad 25030000 		.4byte	.LASF40
 5573 07b1 01       		.byte	0x1
 5574 07b2 1102     		.2byte	0x211
 5575 07b4 AD000000 		.4byte	0xad
 5576 07b8 02       		.uleb128 0x2
 5577 07b9 91       		.byte	0x91
 5578 07ba 6C       		.sleb128 -20
 5579 07bb 17       		.uleb128 0x17
 5580 07bc 65020000 		.4byte	.LASF57
 5581 07c0 01       		.byte	0x1
 5582 07c1 1202     		.2byte	0x212
 5583 07c3 AD000000 		.4byte	0xad
 5584 07c7 02       		.uleb128 0x2
 5585 07c8 91       		.byte	0x91
 5586 07c9 6D       		.sleb128 -19
 5587 07ca 16       		.uleb128 0x16
 5588 07cb 90000000 		.4byte	.LBB28
 5589 07cf 1E000000 		.4byte	.LBE28-.LBB28
 5590 07d3 E5070000 		.4byte	0x7e5
 5591 07d7 18       		.uleb128 0x18
 5592 07d8 7800     		.ascii	"x\000"
 5593 07da 01       		.byte	0x1
 5594 07db 2102     		.2byte	0x221
 5595 07dd AD000000 		.4byte	0xad
 5596 07e1 02       		.uleb128 0x2
 5597 07e2 91       		.byte	0x91
 5598 07e3 6F       		.sleb128 -17
 5599 07e4 00       		.byte	0
 5600 07e5 19       		.uleb128 0x19
 5601 07e6 C2000000 		.4byte	.LBB29
 5602 07ea 22000000 		.4byte	.LBE29-.LBB29
 5603 07ee 17       		.uleb128 0x17
 5604 07ef 9D020000 		.4byte	.LASF44
 5605 07f3 01       		.byte	0x1
 5606 07f4 2702     		.2byte	0x227
 5607 07f6 AD000000 		.4byte	0xad
 5608 07fa 02       		.uleb128 0x2
 5609 07fb 91       		.byte	0x91
 5610 07fc 6E       		.sleb128 -18
 5611 07fd 00       		.byte	0
 5612 07fe 00       		.byte	0
 5613 07ff 1F       		.uleb128 0x1f
 5614 0800 C8020000 		.4byte	.LASF76
 5615 0804 01       		.byte	0x1
 5616 0805 3502     		.2byte	0x235
 5617 0807 00000000 		.4byte	.LFB71
 5618 080b 0C000000 		.4byte	.LFE71-.LFB71
 5619 080f 01       		.uleb128 0x1
 5620 0810 9C       		.byte	0x9c
 5621 0811 20       		.uleb128 0x20
 5622 0812 E2030000 		.4byte	.LASF77
 5623 0816 01       		.byte	0x1
 5624 0817 4002     		.2byte	0x240
ARM GAS  C:\Users\Lenovo\AppData\Local\Temp\ccP94fx0.s 			page 111


 5625 0819 00000000 		.4byte	.LFB72
 5626 081d 40000000 		.4byte	.LFE72-.LFB72
 5627 0821 01       		.uleb128 0x1
 5628 0822 9C       		.byte	0x9c
 5629 0823 50080000 		.4byte	0x850
 5630 0827 17       		.uleb128 0x17
 5631 0828 25030000 		.4byte	.LASF40
 5632 082c 01       		.byte	0x1
 5633 082d 4102     		.2byte	0x241
 5634 082f AD000000 		.4byte	0xad
 5635 0833 02       		.uleb128 0x2
 5636 0834 91       		.byte	0x91
 5637 0835 6E       		.sleb128 -18
 5638 0836 19       		.uleb128 0x19
 5639 0837 0E000000 		.4byte	.LBB30
 5640 083b 22000000 		.4byte	.LBE30-.LBB30
 5641 083f 17       		.uleb128 0x17
 5642 0840 9D020000 		.4byte	.LASF44
 5643 0844 01       		.byte	0x1
 5644 0845 4302     		.2byte	0x243
 5645 0847 AD000000 		.4byte	0xad
 5646 084b 02       		.uleb128 0x2
 5647 084c 91       		.byte	0x91
 5648 084d 6F       		.sleb128 -17
 5649 084e 00       		.byte	0
 5650 084f 00       		.byte	0
 5651 0850 21       		.uleb128 0x21
 5652 0851 18030000 		.4byte	.LASF58
 5653 0855 06       		.byte	0x6
 5654 0856 1207     		.2byte	0x712
 5655 0858 5C080000 		.4byte	0x85c
 5656 085c 22       		.uleb128 0x22
 5657 085d A2000000 		.4byte	0xa2
 5658 0861 23       		.uleb128 0x23
 5659 0862 63000000 		.4byte	.LASF59
 5660 0866 05       		.byte	0x5
 5661 0867 10       		.byte	0x10
 5662 0868 B9000000 		.4byte	0xb9
 5663 086c 05       		.uleb128 0x5
 5664 086d 03       		.byte	0x3
 5665 086e 00000000 		.4byte	PollCounter
 5666 0872 23       		.uleb128 0x23
 5667 0873 58020000 		.4byte	.LASF60
 5668 0877 05       		.byte	0x5
 5669 0878 11       		.byte	0x11
 5670 0879 AD000000 		.4byte	0xad
 5671 087d 05       		.uleb128 0x5
 5672 087e 03       		.byte	0x3
 5673 087f 00000000 		.4byte	CurrentState
 5674 0883 23       		.uleb128 0x23
 5675 0884 8C030000 		.4byte	.LASF61
 5676 0888 05       		.byte	0x5
 5677 0889 12       		.byte	0x12
 5678 088a AD000000 		.4byte	0xad
 5679 088e 05       		.uleb128 0x5
 5680 088f 03       		.byte	0x3
 5681 0890 00000000 		.4byte	Receipt
ARM GAS  C:\Users\Lenovo\AppData\Local\Temp\ccP94fx0.s 			page 112


 5682 0894 23       		.uleb128 0x23
 5683 0895 94030000 		.4byte	.LASF62
 5684 0899 05       		.byte	0x5
 5685 089a 34       		.byte	0x34
 5686 089b 48020000 		.4byte	0x248
 5687 089f 05       		.uleb128 0x5
 5688 08a0 03       		.byte	0x3
 5689 08a1 00000000 		.4byte	side
 5690 08a5 23       		.uleb128 0x23
 5691 08a6 09030000 		.4byte	.LASF63
 5692 08aa 05       		.byte	0x5
 5693 08ab 3D       		.byte	0x3d
 5694 08ac F6010000 		.4byte	0x1f6
 5695 08b0 05       		.uleb128 0x5
 5696 08b1 03       		.byte	0x3
 5697 08b2 00000000 		.4byte	MepsanResponse
 5698 08b6 23       		.uleb128 0x23
 5699 08b7 E0010000 		.4byte	.LASF64
 5700 08bb 05       		.byte	0x5
 5701 08bc 3E       		.byte	0x3e
 5702 08bd F6010000 		.4byte	0x1f6
 5703 08c1 05       		.uleb128 0x5
 5704 08c2 03       		.byte	0x3
 5705 08c3 00000000 		.4byte	MepsanSendTo
 5706 08c7 0A       		.uleb128 0xa
 5707 08c8 AD000000 		.4byte	0xad
 5708 08cc D7080000 		.4byte	0x8d7
 5709 08d0 0B       		.uleb128 0xb
 5710 08d1 E1000000 		.4byte	0xe1
 5711 08d5 0E       		.byte	0xe
 5712 08d6 00       		.byte	0
 5713 08d7 23       		.uleb128 0x23
 5714 08d8 F9010000 		.4byte	.LASF65
 5715 08dc 05       		.byte	0x5
 5716 08dd 3F       		.byte	0x3f
 5717 08de C7080000 		.4byte	0x8c7
 5718 08e2 05       		.uleb128 0x5
 5719 08e3 03       		.byte	0x3
 5720 08e4 00000000 		.4byte	PumpAddress
 5721 08e8 24       		.uleb128 0x24
 5722 08e9 43524300 		.ascii	"CRC\000"
 5723 08ed 05       		.byte	0x5
 5724 08ee 40       		.byte	0x40
 5725 08ef B9000000 		.4byte	0xb9
 5726 08f3 05       		.uleb128 0x5
 5727 08f4 03       		.byte	0x3
 5728 08f5 00000000 		.4byte	CRC
 5729 08f9 23       		.uleb128 0x23
 5730 08fa 2F000000 		.4byte	.LASF66
 5731 08fe 05       		.byte	0x5
 5732 08ff 41       		.byte	0x41
 5733 0900 AD000000 		.4byte	0xad
 5734 0904 05       		.uleb128 0x5
 5735 0905 03       		.byte	0x3
 5736 0906 00000000 		.4byte	crc_lo
 5737 090a 23       		.uleb128 0x23
 5738 090b DB030000 		.4byte	.LASF67
ARM GAS  C:\Users\Lenovo\AppData\Local\Temp\ccP94fx0.s 			page 113


 5739 090f 05       		.byte	0x5
 5740 0910 41       		.byte	0x41
 5741 0911 AD000000 		.4byte	0xad
 5742 0915 05       		.uleb128 0x5
 5743 0916 03       		.byte	0x3
 5744 0917 00000000 		.4byte	crc_hi
 5745 091b 23       		.uleb128 0x23
 5746 091c 24010000 		.4byte	.LASF68
 5747 0920 05       		.byte	0x5
 5748 0921 42       		.byte	0x42
 5749 0922 AD000000 		.4byte	0xad
 5750 0926 05       		.uleb128 0x5
 5751 0927 03       		.byte	0x3
 5752 0928 00000000 		.4byte	Positions
 5753 092c 23       		.uleb128 0x23
 5754 092d 34030000 		.4byte	.LASF69
 5755 0931 05       		.byte	0x5
 5756 0932 43       		.byte	0x43
 5757 0933 AD000000 		.4byte	0xad
 5758 0937 05       		.uleb128 0x5
 5759 0938 03       		.byte	0x3
 5760 0939 00000000 		.4byte	TotalRequestType
 5761 093d 23       		.uleb128 0x23
 5762 093e 0D000000 		.4byte	.LASF70
 5763 0942 05       		.byte	0x5
 5764 0943 44       		.byte	0x44
 5765 0944 AD000000 		.4byte	0xad
 5766 0948 05       		.uleb128 0x5
 5767 0949 03       		.byte	0x3
 5768 094a 00000000 		.4byte	DecVol
 5769 094e 23       		.uleb128 0x23
 5770 094f A3010000 		.4byte	.LASF71
 5771 0953 05       		.byte	0x5
 5772 0954 4F       		.byte	0x4f
 5773 0955 AD000000 		.4byte	0xad
 5774 0959 05       		.uleb128 0x5
 5775 095a 03       		.byte	0x3
 5776 095b 00000000 		.4byte	dirGbr
 5777 095f 00       		.byte	0
 5778              		.section	.debug_abbrev,"",%progbits
 5779              	.Ldebug_abbrev0:
 5780 0000 01       		.uleb128 0x1
 5781 0001 11       		.uleb128 0x11
 5782 0002 01       		.byte	0x1
 5783 0003 25       		.uleb128 0x25
 5784 0004 0E       		.uleb128 0xe
 5785 0005 13       		.uleb128 0x13
 5786 0006 0B       		.uleb128 0xb
 5787 0007 03       		.uleb128 0x3
 5788 0008 0E       		.uleb128 0xe
 5789 0009 1B       		.uleb128 0x1b
 5790 000a 0E       		.uleb128 0xe
 5791 000b 55       		.uleb128 0x55
 5792 000c 17       		.uleb128 0x17
 5793 000d 11       		.uleb128 0x11
 5794 000e 01       		.uleb128 0x1
 5795 000f 10       		.uleb128 0x10
ARM GAS  C:\Users\Lenovo\AppData\Local\Temp\ccP94fx0.s 			page 114


 5796 0010 17       		.uleb128 0x17
 5797 0011 00       		.byte	0
 5798 0012 00       		.byte	0
 5799 0013 02       		.uleb128 0x2
 5800 0014 24       		.uleb128 0x24
 5801 0015 00       		.byte	0
 5802 0016 0B       		.uleb128 0xb
 5803 0017 0B       		.uleb128 0xb
 5804 0018 3E       		.uleb128 0x3e
 5805 0019 0B       		.uleb128 0xb
 5806 001a 03       		.uleb128 0x3
 5807 001b 0E       		.uleb128 0xe
 5808 001c 00       		.byte	0
 5809 001d 00       		.byte	0
 5810 001e 03       		.uleb128 0x3
 5811 001f 16       		.uleb128 0x16
 5812 0020 00       		.byte	0
 5813 0021 03       		.uleb128 0x3
 5814 0022 0E       		.uleb128 0xe
 5815 0023 3A       		.uleb128 0x3a
 5816 0024 0B       		.uleb128 0xb
 5817 0025 3B       		.uleb128 0x3b
 5818 0026 0B       		.uleb128 0xb
 5819 0027 49       		.uleb128 0x49
 5820 0028 13       		.uleb128 0x13
 5821 0029 00       		.byte	0
 5822 002a 00       		.byte	0
 5823 002b 04       		.uleb128 0x4
 5824 002c 24       		.uleb128 0x24
 5825 002d 00       		.byte	0
 5826 002e 0B       		.uleb128 0xb
 5827 002f 0B       		.uleb128 0xb
 5828 0030 3E       		.uleb128 0x3e
 5829 0031 0B       		.uleb128 0xb
 5830 0032 03       		.uleb128 0x3
 5831 0033 08       		.uleb128 0x8
 5832 0034 00       		.byte	0
 5833 0035 00       		.byte	0
 5834 0036 05       		.uleb128 0x5
 5835 0037 16       		.uleb128 0x16
 5836 0038 00       		.byte	0
 5837 0039 03       		.uleb128 0x3
 5838 003a 0E       		.uleb128 0xe
 5839 003b 3A       		.uleb128 0x3a
 5840 003c 0B       		.uleb128 0xb
 5841 003d 3B       		.uleb128 0x3b
 5842 003e 05       		.uleb128 0x5
 5843 003f 49       		.uleb128 0x49
 5844 0040 13       		.uleb128 0x13
 5845 0041 00       		.byte	0
 5846 0042 00       		.byte	0
 5847 0043 06       		.uleb128 0x6
 5848 0044 13       		.uleb128 0x13
 5849 0045 01       		.byte	0x1
 5850 0046 03       		.uleb128 0x3
 5851 0047 0E       		.uleb128 0xe
 5852 0048 0B       		.uleb128 0xb
ARM GAS  C:\Users\Lenovo\AppData\Local\Temp\ccP94fx0.s 			page 115


 5853 0049 05       		.uleb128 0x5
 5854 004a 3A       		.uleb128 0x3a
 5855 004b 0B       		.uleb128 0xb
 5856 004c 3B       		.uleb128 0x3b
 5857 004d 0B       		.uleb128 0xb
 5858 004e 01       		.uleb128 0x1
 5859 004f 13       		.uleb128 0x13
 5860 0050 00       		.byte	0
 5861 0051 00       		.byte	0
 5862 0052 07       		.uleb128 0x7
 5863 0053 0D       		.uleb128 0xd
 5864 0054 00       		.byte	0
 5865 0055 03       		.uleb128 0x3
 5866 0056 08       		.uleb128 0x8
 5867 0057 3A       		.uleb128 0x3a
 5868 0058 0B       		.uleb128 0xb
 5869 0059 3B       		.uleb128 0x3b
 5870 005a 0B       		.uleb128 0xb
 5871 005b 49       		.uleb128 0x49
 5872 005c 13       		.uleb128 0x13
 5873 005d 38       		.uleb128 0x38
 5874 005e 0B       		.uleb128 0xb
 5875 005f 00       		.byte	0
 5876 0060 00       		.byte	0
 5877 0061 08       		.uleb128 0x8
 5878 0062 0D       		.uleb128 0xd
 5879 0063 00       		.byte	0
 5880 0064 03       		.uleb128 0x3
 5881 0065 0E       		.uleb128 0xe
 5882 0066 3A       		.uleb128 0x3a
 5883 0067 0B       		.uleb128 0xb
 5884 0068 3B       		.uleb128 0x3b
 5885 0069 0B       		.uleb128 0xb
 5886 006a 49       		.uleb128 0x49
 5887 006b 13       		.uleb128 0x13
 5888 006c 38       		.uleb128 0x38
 5889 006d 0B       		.uleb128 0xb
 5890 006e 00       		.byte	0
 5891 006f 00       		.byte	0
 5892 0070 09       		.uleb128 0x9
 5893 0071 0D       		.uleb128 0xd
 5894 0072 00       		.byte	0
 5895 0073 03       		.uleb128 0x3
 5896 0074 0E       		.uleb128 0xe
 5897 0075 3A       		.uleb128 0x3a
 5898 0076 0B       		.uleb128 0xb
 5899 0077 3B       		.uleb128 0x3b
 5900 0078 0B       		.uleb128 0xb
 5901 0079 49       		.uleb128 0x49
 5902 007a 13       		.uleb128 0x13
 5903 007b 38       		.uleb128 0x38
 5904 007c 05       		.uleb128 0x5
 5905 007d 00       		.byte	0
 5906 007e 00       		.byte	0
 5907 007f 0A       		.uleb128 0xa
 5908 0080 01       		.uleb128 0x1
 5909 0081 01       		.byte	0x1
ARM GAS  C:\Users\Lenovo\AppData\Local\Temp\ccP94fx0.s 			page 116


 5910 0082 49       		.uleb128 0x49
 5911 0083 13       		.uleb128 0x13
 5912 0084 01       		.uleb128 0x1
 5913 0085 13       		.uleb128 0x13
 5914 0086 00       		.byte	0
 5915 0087 00       		.byte	0
 5916 0088 0B       		.uleb128 0xb
 5917 0089 21       		.uleb128 0x21
 5918 008a 00       		.byte	0
 5919 008b 49       		.uleb128 0x49
 5920 008c 13       		.uleb128 0x13
 5921 008d 2F       		.uleb128 0x2f
 5922 008e 0B       		.uleb128 0xb
 5923 008f 00       		.byte	0
 5924 0090 00       		.byte	0
 5925 0091 0C       		.uleb128 0xc
 5926 0092 0D       		.uleb128 0xd
 5927 0093 00       		.byte	0
 5928 0094 03       		.uleb128 0x3
 5929 0095 08       		.uleb128 0x8
 5930 0096 3A       		.uleb128 0x3a
 5931 0097 0B       		.uleb128 0xb
 5932 0098 3B       		.uleb128 0x3b
 5933 0099 0B       		.uleb128 0xb
 5934 009a 49       		.uleb128 0x49
 5935 009b 13       		.uleb128 0x13
 5936 009c 38       		.uleb128 0x38
 5937 009d 05       		.uleb128 0x5
 5938 009e 00       		.byte	0
 5939 009f 00       		.byte	0
 5940 00a0 0D       		.uleb128 0xd
 5941 00a1 04       		.uleb128 0x4
 5942 00a2 01       		.byte	0x1
 5943 00a3 03       		.uleb128 0x3
 5944 00a4 0E       		.uleb128 0xe
 5945 00a5 0B       		.uleb128 0xb
 5946 00a6 0B       		.uleb128 0xb
 5947 00a7 49       		.uleb128 0x49
 5948 00a8 13       		.uleb128 0x13
 5949 00a9 3A       		.uleb128 0x3a
 5950 00aa 0B       		.uleb128 0xb
 5951 00ab 3B       		.uleb128 0x3b
 5952 00ac 0B       		.uleb128 0xb
 5953 00ad 01       		.uleb128 0x1
 5954 00ae 13       		.uleb128 0x13
 5955 00af 00       		.byte	0
 5956 00b0 00       		.byte	0
 5957 00b1 0E       		.uleb128 0xe
 5958 00b2 28       		.uleb128 0x28
 5959 00b3 00       		.byte	0
 5960 00b4 03       		.uleb128 0x3
 5961 00b5 0E       		.uleb128 0xe
 5962 00b6 1C       		.uleb128 0x1c
 5963 00b7 0B       		.uleb128 0xb
 5964 00b8 00       		.byte	0
 5965 00b9 00       		.byte	0
 5966 00ba 0F       		.uleb128 0xf
ARM GAS  C:\Users\Lenovo\AppData\Local\Temp\ccP94fx0.s 			page 117


 5967 00bb 2E       		.uleb128 0x2e
 5968 00bc 01       		.byte	0x1
 5969 00bd 3F       		.uleb128 0x3f
 5970 00be 19       		.uleb128 0x19
 5971 00bf 03       		.uleb128 0x3
 5972 00c0 0E       		.uleb128 0xe
 5973 00c1 3A       		.uleb128 0x3a
 5974 00c2 0B       		.uleb128 0xb
 5975 00c3 3B       		.uleb128 0x3b
 5976 00c4 0B       		.uleb128 0xb
 5977 00c5 27       		.uleb128 0x27
 5978 00c6 19       		.uleb128 0x19
 5979 00c7 49       		.uleb128 0x49
 5980 00c8 13       		.uleb128 0x13
 5981 00c9 11       		.uleb128 0x11
 5982 00ca 01       		.uleb128 0x1
 5983 00cb 12       		.uleb128 0x12
 5984 00cc 06       		.uleb128 0x6
 5985 00cd 40       		.uleb128 0x40
 5986 00ce 18       		.uleb128 0x18
 5987 00cf 9742     		.uleb128 0x2117
 5988 00d1 19       		.uleb128 0x19
 5989 00d2 01       		.uleb128 0x1
 5990 00d3 13       		.uleb128 0x13
 5991 00d4 00       		.byte	0
 5992 00d5 00       		.byte	0
 5993 00d6 10       		.uleb128 0x10
 5994 00d7 05       		.uleb128 0x5
 5995 00d8 00       		.byte	0
 5996 00d9 03       		.uleb128 0x3
 5997 00da 0E       		.uleb128 0xe
 5998 00db 3A       		.uleb128 0x3a
 5999 00dc 0B       		.uleb128 0xb
 6000 00dd 3B       		.uleb128 0x3b
 6001 00de 0B       		.uleb128 0xb
 6002 00df 49       		.uleb128 0x49
 6003 00e0 13       		.uleb128 0x13
 6004 00e1 02       		.uleb128 0x2
 6005 00e2 18       		.uleb128 0x18
 6006 00e3 00       		.byte	0
 6007 00e4 00       		.byte	0
 6008 00e5 11       		.uleb128 0x11
 6009 00e6 34       		.uleb128 0x34
 6010 00e7 00       		.byte	0
 6011 00e8 03       		.uleb128 0x3
 6012 00e9 08       		.uleb128 0x8
 6013 00ea 3A       		.uleb128 0x3a
 6014 00eb 0B       		.uleb128 0xb
 6015 00ec 3B       		.uleb128 0x3b
 6016 00ed 0B       		.uleb128 0xb
 6017 00ee 49       		.uleb128 0x49
 6018 00ef 13       		.uleb128 0x13
 6019 00f0 02       		.uleb128 0x2
 6020 00f1 18       		.uleb128 0x18
 6021 00f2 00       		.byte	0
 6022 00f3 00       		.byte	0
 6023 00f4 12       		.uleb128 0x12
ARM GAS  C:\Users\Lenovo\AppData\Local\Temp\ccP94fx0.s 			page 118


 6024 00f5 34       		.uleb128 0x34
 6025 00f6 00       		.byte	0
 6026 00f7 03       		.uleb128 0x3
 6027 00f8 0E       		.uleb128 0xe
 6028 00f9 3A       		.uleb128 0x3a
 6029 00fa 0B       		.uleb128 0xb
 6030 00fb 3B       		.uleb128 0x3b
 6031 00fc 0B       		.uleb128 0xb
 6032 00fd 49       		.uleb128 0x49
 6033 00fe 13       		.uleb128 0x13
 6034 00ff 02       		.uleb128 0x2
 6035 0100 18       		.uleb128 0x18
 6036 0101 00       		.byte	0
 6037 0102 00       		.byte	0
 6038 0103 13       		.uleb128 0x13
 6039 0104 0F       		.uleb128 0xf
 6040 0105 00       		.byte	0
 6041 0106 0B       		.uleb128 0xb
 6042 0107 0B       		.uleb128 0xb
 6043 0108 49       		.uleb128 0x49
 6044 0109 13       		.uleb128 0x13
 6045 010a 00       		.byte	0
 6046 010b 00       		.byte	0
 6047 010c 14       		.uleb128 0x14
 6048 010d 26       		.uleb128 0x26
 6049 010e 00       		.byte	0
 6050 010f 49       		.uleb128 0x49
 6051 0110 13       		.uleb128 0x13
 6052 0111 00       		.byte	0
 6053 0112 00       		.byte	0
 6054 0113 15       		.uleb128 0x15
 6055 0114 2E       		.uleb128 0x2e
 6056 0115 01       		.byte	0x1
 6057 0116 3F       		.uleb128 0x3f
 6058 0117 19       		.uleb128 0x19
 6059 0118 03       		.uleb128 0x3
 6060 0119 0E       		.uleb128 0xe
 6061 011a 3A       		.uleb128 0x3a
 6062 011b 0B       		.uleb128 0xb
 6063 011c 3B       		.uleb128 0x3b
 6064 011d 0B       		.uleb128 0xb
 6065 011e 27       		.uleb128 0x27
 6066 011f 19       		.uleb128 0x19
 6067 0120 11       		.uleb128 0x11
 6068 0121 01       		.uleb128 0x1
 6069 0122 12       		.uleb128 0x12
 6070 0123 06       		.uleb128 0x6
 6071 0124 40       		.uleb128 0x40
 6072 0125 18       		.uleb128 0x18
 6073 0126 9642     		.uleb128 0x2116
 6074 0128 19       		.uleb128 0x19
 6075 0129 01       		.uleb128 0x1
 6076 012a 13       		.uleb128 0x13
 6077 012b 00       		.byte	0
 6078 012c 00       		.byte	0
 6079 012d 16       		.uleb128 0x16
 6080 012e 0B       		.uleb128 0xb
ARM GAS  C:\Users\Lenovo\AppData\Local\Temp\ccP94fx0.s 			page 119


 6081 012f 01       		.byte	0x1
 6082 0130 11       		.uleb128 0x11
 6083 0131 01       		.uleb128 0x1
 6084 0132 12       		.uleb128 0x12
 6085 0133 06       		.uleb128 0x6
 6086 0134 01       		.uleb128 0x1
 6087 0135 13       		.uleb128 0x13
 6088 0136 00       		.byte	0
 6089 0137 00       		.byte	0
 6090 0138 17       		.uleb128 0x17
 6091 0139 34       		.uleb128 0x34
 6092 013a 00       		.byte	0
 6093 013b 03       		.uleb128 0x3
 6094 013c 0E       		.uleb128 0xe
 6095 013d 3A       		.uleb128 0x3a
 6096 013e 0B       		.uleb128 0xb
 6097 013f 3B       		.uleb128 0x3b
 6098 0140 05       		.uleb128 0x5
 6099 0141 49       		.uleb128 0x49
 6100 0142 13       		.uleb128 0x13
 6101 0143 02       		.uleb128 0x2
 6102 0144 18       		.uleb128 0x18
 6103 0145 00       		.byte	0
 6104 0146 00       		.byte	0
 6105 0147 18       		.uleb128 0x18
 6106 0148 34       		.uleb128 0x34
 6107 0149 00       		.byte	0
 6108 014a 03       		.uleb128 0x3
 6109 014b 08       		.uleb128 0x8
 6110 014c 3A       		.uleb128 0x3a
 6111 014d 0B       		.uleb128 0xb
 6112 014e 3B       		.uleb128 0x3b
 6113 014f 05       		.uleb128 0x5
 6114 0150 49       		.uleb128 0x49
 6115 0151 13       		.uleb128 0x13
 6116 0152 02       		.uleb128 0x2
 6117 0153 18       		.uleb128 0x18
 6118 0154 00       		.byte	0
 6119 0155 00       		.byte	0
 6120 0156 19       		.uleb128 0x19
 6121 0157 0B       		.uleb128 0xb
 6122 0158 01       		.byte	0x1
 6123 0159 11       		.uleb128 0x11
 6124 015a 01       		.uleb128 0x1
 6125 015b 12       		.uleb128 0x12
 6126 015c 06       		.uleb128 0x6
 6127 015d 00       		.byte	0
 6128 015e 00       		.byte	0
 6129 015f 1A       		.uleb128 0x1a
 6130 0160 2E       		.uleb128 0x2e
 6131 0161 01       		.byte	0x1
 6132 0162 3F       		.uleb128 0x3f
 6133 0163 19       		.uleb128 0x19
 6134 0164 03       		.uleb128 0x3
 6135 0165 0E       		.uleb128 0xe
 6136 0166 3A       		.uleb128 0x3a
 6137 0167 0B       		.uleb128 0xb
ARM GAS  C:\Users\Lenovo\AppData\Local\Temp\ccP94fx0.s 			page 120


 6138 0168 3B       		.uleb128 0x3b
 6139 0169 05       		.uleb128 0x5
 6140 016a 27       		.uleb128 0x27
 6141 016b 19       		.uleb128 0x19
 6142 016c 49       		.uleb128 0x49
 6143 016d 13       		.uleb128 0x13
 6144 016e 11       		.uleb128 0x11
 6145 016f 01       		.uleb128 0x1
 6146 0170 12       		.uleb128 0x12
 6147 0171 06       		.uleb128 0x6
 6148 0172 40       		.uleb128 0x40
 6149 0173 18       		.uleb128 0x18
 6150 0174 9642     		.uleb128 0x2116
 6151 0176 19       		.uleb128 0x19
 6152 0177 01       		.uleb128 0x1
 6153 0178 13       		.uleb128 0x13
 6154 0179 00       		.byte	0
 6155 017a 00       		.byte	0
 6156 017b 1B       		.uleb128 0x1b
 6157 017c 05       		.uleb128 0x5
 6158 017d 00       		.byte	0
 6159 017e 03       		.uleb128 0x3
 6160 017f 08       		.uleb128 0x8
 6161 0180 3A       		.uleb128 0x3a
 6162 0181 0B       		.uleb128 0xb
 6163 0182 3B       		.uleb128 0x3b
 6164 0183 05       		.uleb128 0x5
 6165 0184 49       		.uleb128 0x49
 6166 0185 13       		.uleb128 0x13
 6167 0186 02       		.uleb128 0x2
 6168 0187 18       		.uleb128 0x18
 6169 0188 00       		.byte	0
 6170 0189 00       		.byte	0
 6171 018a 1C       		.uleb128 0x1c
 6172 018b 05       		.uleb128 0x5
 6173 018c 00       		.byte	0
 6174 018d 03       		.uleb128 0x3
 6175 018e 0E       		.uleb128 0xe
 6176 018f 3A       		.uleb128 0x3a
 6177 0190 0B       		.uleb128 0xb
 6178 0191 3B       		.uleb128 0x3b
 6179 0192 05       		.uleb128 0x5
 6180 0193 49       		.uleb128 0x49
 6181 0194 13       		.uleb128 0x13
 6182 0195 02       		.uleb128 0x2
 6183 0196 18       		.uleb128 0x18
 6184 0197 00       		.byte	0
 6185 0198 00       		.byte	0
 6186 0199 1D       		.uleb128 0x1d
 6187 019a 34       		.uleb128 0x34
 6188 019b 00       		.byte	0
 6189 019c 03       		.uleb128 0x3
 6190 019d 0E       		.uleb128 0xe
 6191 019e 3A       		.uleb128 0x3a
 6192 019f 0B       		.uleb128 0xb
 6193 01a0 3B       		.uleb128 0x3b
 6194 01a1 05       		.uleb128 0x5
ARM GAS  C:\Users\Lenovo\AppData\Local\Temp\ccP94fx0.s 			page 121


 6195 01a2 49       		.uleb128 0x49
 6196 01a3 13       		.uleb128 0x13
 6197 01a4 00       		.byte	0
 6198 01a5 00       		.byte	0
 6199 01a6 1E       		.uleb128 0x1e
 6200 01a7 2E       		.uleb128 0x2e
 6201 01a8 01       		.byte	0x1
 6202 01a9 3F       		.uleb128 0x3f
 6203 01aa 19       		.uleb128 0x19
 6204 01ab 03       		.uleb128 0x3
 6205 01ac 0E       		.uleb128 0xe
 6206 01ad 3A       		.uleb128 0x3a
 6207 01ae 0B       		.uleb128 0xb
 6208 01af 3B       		.uleb128 0x3b
 6209 01b0 05       		.uleb128 0x5
 6210 01b1 27       		.uleb128 0x27
 6211 01b2 19       		.uleb128 0x19
 6212 01b3 11       		.uleb128 0x11
 6213 01b4 01       		.uleb128 0x1
 6214 01b5 12       		.uleb128 0x12
 6215 01b6 06       		.uleb128 0x6
 6216 01b7 40       		.uleb128 0x40
 6217 01b8 18       		.uleb128 0x18
 6218 01b9 9642     		.uleb128 0x2116
 6219 01bb 19       		.uleb128 0x19
 6220 01bc 01       		.uleb128 0x1
 6221 01bd 13       		.uleb128 0x13
 6222 01be 00       		.byte	0
 6223 01bf 00       		.byte	0
 6224 01c0 1F       		.uleb128 0x1f
 6225 01c1 2E       		.uleb128 0x2e
 6226 01c2 00       		.byte	0
 6227 01c3 3F       		.uleb128 0x3f
 6228 01c4 19       		.uleb128 0x19
 6229 01c5 03       		.uleb128 0x3
 6230 01c6 0E       		.uleb128 0xe
 6231 01c7 3A       		.uleb128 0x3a
 6232 01c8 0B       		.uleb128 0xb
 6233 01c9 3B       		.uleb128 0x3b
 6234 01ca 05       		.uleb128 0x5
 6235 01cb 27       		.uleb128 0x27
 6236 01cc 19       		.uleb128 0x19
 6237 01cd 11       		.uleb128 0x11
 6238 01ce 01       		.uleb128 0x1
 6239 01cf 12       		.uleb128 0x12
 6240 01d0 06       		.uleb128 0x6
 6241 01d1 40       		.uleb128 0x40
 6242 01d2 18       		.uleb128 0x18
 6243 01d3 9742     		.uleb128 0x2117
 6244 01d5 19       		.uleb128 0x19
 6245 01d6 00       		.byte	0
 6246 01d7 00       		.byte	0
 6247 01d8 20       		.uleb128 0x20
 6248 01d9 2E       		.uleb128 0x2e
 6249 01da 01       		.byte	0x1
 6250 01db 3F       		.uleb128 0x3f
 6251 01dc 19       		.uleb128 0x19
ARM GAS  C:\Users\Lenovo\AppData\Local\Temp\ccP94fx0.s 			page 122


 6252 01dd 03       		.uleb128 0x3
 6253 01de 0E       		.uleb128 0xe
 6254 01df 3A       		.uleb128 0x3a
 6255 01e0 0B       		.uleb128 0xb
 6256 01e1 3B       		.uleb128 0x3b
 6257 01e2 05       		.uleb128 0x5
 6258 01e3 11       		.uleb128 0x11
 6259 01e4 01       		.uleb128 0x1
 6260 01e5 12       		.uleb128 0x12
 6261 01e6 06       		.uleb128 0x6
 6262 01e7 40       		.uleb128 0x40
 6263 01e8 18       		.uleb128 0x18
 6264 01e9 9642     		.uleb128 0x2116
 6265 01eb 19       		.uleb128 0x19
 6266 01ec 01       		.uleb128 0x1
 6267 01ed 13       		.uleb128 0x13
 6268 01ee 00       		.byte	0
 6269 01ef 00       		.byte	0
 6270 01f0 21       		.uleb128 0x21
 6271 01f1 34       		.uleb128 0x34
 6272 01f2 00       		.byte	0
 6273 01f3 03       		.uleb128 0x3
 6274 01f4 0E       		.uleb128 0xe
 6275 01f5 3A       		.uleb128 0x3a
 6276 01f6 0B       		.uleb128 0xb
 6277 01f7 3B       		.uleb128 0x3b
 6278 01f8 05       		.uleb128 0x5
 6279 01f9 49       		.uleb128 0x49
 6280 01fa 13       		.uleb128 0x13
 6281 01fb 3F       		.uleb128 0x3f
 6282 01fc 19       		.uleb128 0x19
 6283 01fd 3C       		.uleb128 0x3c
 6284 01fe 19       		.uleb128 0x19
 6285 01ff 00       		.byte	0
 6286 0200 00       		.byte	0
 6287 0201 22       		.uleb128 0x22
 6288 0202 35       		.uleb128 0x35
 6289 0203 00       		.byte	0
 6290 0204 49       		.uleb128 0x49
 6291 0205 13       		.uleb128 0x13
 6292 0206 00       		.byte	0
 6293 0207 00       		.byte	0
 6294 0208 23       		.uleb128 0x23
 6295 0209 34       		.uleb128 0x34
 6296 020a 00       		.byte	0
 6297 020b 03       		.uleb128 0x3
 6298 020c 0E       		.uleb128 0xe
 6299 020d 3A       		.uleb128 0x3a
 6300 020e 0B       		.uleb128 0xb
 6301 020f 3B       		.uleb128 0x3b
 6302 0210 0B       		.uleb128 0xb
 6303 0211 49       		.uleb128 0x49
 6304 0212 13       		.uleb128 0x13
 6305 0213 3F       		.uleb128 0x3f
 6306 0214 19       		.uleb128 0x19
 6307 0215 02       		.uleb128 0x2
 6308 0216 18       		.uleb128 0x18
ARM GAS  C:\Users\Lenovo\AppData\Local\Temp\ccP94fx0.s 			page 123


 6309 0217 00       		.byte	0
 6310 0218 00       		.byte	0
 6311 0219 24       		.uleb128 0x24
 6312 021a 34       		.uleb128 0x34
 6313 021b 00       		.byte	0
 6314 021c 03       		.uleb128 0x3
 6315 021d 08       		.uleb128 0x8
 6316 021e 3A       		.uleb128 0x3a
 6317 021f 0B       		.uleb128 0xb
 6318 0220 3B       		.uleb128 0x3b
 6319 0221 0B       		.uleb128 0xb
 6320 0222 49       		.uleb128 0x49
 6321 0223 13       		.uleb128 0x13
 6322 0224 3F       		.uleb128 0x3f
 6323 0225 19       		.uleb128 0x19
 6324 0226 02       		.uleb128 0x2
 6325 0227 18       		.uleb128 0x18
 6326 0228 00       		.byte	0
 6327 0229 00       		.byte	0
 6328 022a 00       		.byte	0
 6329              		.section	.debug_aranges,"",%progbits
 6330 0000 64000000 		.4byte	0x64
 6331 0004 0200     		.2byte	0x2
 6332 0006 00000000 		.4byte	.Ldebug_info0
 6333 000a 04       		.byte	0x4
 6334 000b 00       		.byte	0
 6335 000c 0000     		.2byte	0
 6336 000e 0000     		.2byte	0
 6337 0010 00000000 		.4byte	.LFB63
 6338 0014 FA000000 		.4byte	.LFE63-.LFB63
 6339 0018 00000000 		.4byte	.LFB64
 6340 001c 701A0000 		.4byte	.LFE64-.LFB64
 6341 0020 00000000 		.4byte	.LFB65
 6342 0024 B0000000 		.4byte	.LFE65-.LFB65
 6343 0028 00000000 		.4byte	.LFB66
 6344 002c DC000000 		.4byte	.LFE66-.LFB66
 6345 0030 00000000 		.4byte	.LFB67
 6346 0034 14010000 		.4byte	.LFE67-.LFB67
 6347 0038 00000000 		.4byte	.LFB68
 6348 003c 84010000 		.4byte	.LFE68-.LFB68
 6349 0040 00000000 		.4byte	.LFB69
 6350 0044 18010000 		.4byte	.LFE69-.LFB69
 6351 0048 00000000 		.4byte	.LFB70
 6352 004c 0C010000 		.4byte	.LFE70-.LFB70
 6353 0050 00000000 		.4byte	.LFB71
 6354 0054 0C000000 		.4byte	.LFE71-.LFB71
 6355 0058 00000000 		.4byte	.LFB72
 6356 005c 40000000 		.4byte	.LFE72-.LFB72
 6357 0060 00000000 		.4byte	0
 6358 0064 00000000 		.4byte	0
 6359              		.section	.debug_ranges,"",%progbits
 6360              	.Ldebug_ranges0:
 6361 0000 00000000 		.4byte	.LFB63
 6362 0004 FA000000 		.4byte	.LFE63
 6363 0008 00000000 		.4byte	.LFB64
 6364 000c 701A0000 		.4byte	.LFE64
 6365 0010 00000000 		.4byte	.LFB65
ARM GAS  C:\Users\Lenovo\AppData\Local\Temp\ccP94fx0.s 			page 124


 6366 0014 B0000000 		.4byte	.LFE65
 6367 0018 00000000 		.4byte	.LFB66
 6368 001c DC000000 		.4byte	.LFE66
 6369 0020 00000000 		.4byte	.LFB67
 6370 0024 14010000 		.4byte	.LFE67
 6371 0028 00000000 		.4byte	.LFB68
 6372 002c 84010000 		.4byte	.LFE68
 6373 0030 00000000 		.4byte	.LFB69
 6374 0034 18010000 		.4byte	.LFE69
 6375 0038 00000000 		.4byte	.LFB70
 6376 003c 0C010000 		.4byte	.LFE70
 6377 0040 00000000 		.4byte	.LFB71
 6378 0044 0C000000 		.4byte	.LFE71
 6379 0048 00000000 		.4byte	.LFB72
 6380 004c 40000000 		.4byte	.LFE72
 6381 0050 00000000 		.4byte	0
 6382 0054 00000000 		.4byte	0
 6383              		.section	.debug_line,"",%progbits
 6384              	.Ldebug_line0:
 6385 0000 C1050000 		.section	.debug_str,"MS",%progbits,1
 6385      02005B01 
 6385      00000201 
 6385      FB0E0D00 
 6385      01010101 
 6386              	.LASF49:
 6387 0000 52657475 		.ascii	"ReturnStatus\000"
 6387      726E5374 
 6387      61747573 
 6387      00
 6388              	.LASF70:
 6389 000d 44656356 		.ascii	"DecVol\000"
 6389      6F6C00
 6390              	.LASF75:
 6391 0014 4D455053 		.ascii	"MEPSAN_REQUEST\000"
 6391      414E5F52 
 6391      45515545 
 6391      535400
 6392              	.LASF51:
 6393 0023 50726963 		.ascii	"PriceUpdate\000"
 6393      65557064 
 6393      61746500 
 6394              	.LASF66:
 6395 002f 6372635F 		.ascii	"crc_lo\000"
 6395      6C6F00
 6396              	.LASF38:
 6397 0036 4D455053 		.ascii	"MEPSAN_R_FILLING\000"
 6397      414E5F52 
 6397      5F46494C 
 6397      4C494E47 
 6397      00
 6398              	.LASF42:
 6399 0047 6269745F 		.ascii	"bit_flag\000"
 6399      666C6167 
 6399      00
 6400              	.LASF2:
 6401 0050 73686F72 		.ascii	"short int\000"
 6401      7420696E 
ARM GAS  C:\Users\Lenovo\AppData\Local\Temp\ccP94fx0.s 			page 125


 6401      7400
 6402              	.LASF21:
 6403 005a 73697A65 		.ascii	"sizetype\000"
 6403      74797065 
 6403      00
 6404              	.LASF59:
 6405 0063 506F6C6C 		.ascii	"PollCounter\000"
 6405      436F756E 
 6405      74657200 
 6406              	.LASF52:
 6407 006f 70726963 		.ascii	"price\000"
 6407      6500
 6408              	.LASF53:
 6409 0075 47657452 		.ascii	"GetResponse\000"
 6409      6573706F 
 6409      6E736500 
 6410              	.LASF72:
 6411 0081 474E5520 		.ascii	"GNU C11 5.4.1 20160609 (release) [ARM/embedded-5-br"
 6411      43313120 
 6411      352E342E 
 6411      31203230 
 6411      31363036 
 6412 00b4 616E6368 		.ascii	"anch revision 237715] -mcpu=cortex-m3 -mthumb -g -O"
 6412      20726576 
 6412      6973696F 
 6412      6E203233 
 6412      37373135 
 6413 00e7 30202D66 		.ascii	"0 -ffunction-sections -ffat-lto-objects\000"
 6413      66756E63 
 6413      74696F6E 
 6413      2D736563 
 6413      74696F6E 
 6414              	.LASF47:
 6415 010f 41757468 		.ascii	"Authorize\000"
 6415      6F72697A 
 6415      6500
 6416              	.LASF4:
 6417 0119 5F5F7569 		.ascii	"__uint16_t\000"
 6417      6E743136 
 6417      5F7400
 6418              	.LASF68:
 6419 0124 506F7369 		.ascii	"Positions\000"
 6419      74696F6E 
 6419      7300
 6420              	.LASF16:
 6421 012e 75696E74 		.ascii	"uint16\000"
 6421      313600
 6422              	.LASF56:
 6423 0135 6E6F7A7A 		.ascii	"nozzle\000"
 6423      6C6500
 6424              	.LASF12:
 6425 013c 75696E74 		.ascii	"uint8_t\000"
 6425      385F7400 
 6426              	.LASF15:
 6427 0144 75696E74 		.ascii	"uint8\000"
 6427      3800
 6428              	.LASF0:
ARM GAS  C:\Users\Lenovo\AppData\Local\Temp\ccP94fx0.s 			page 126


 6429 014a 7369676E 		.ascii	"signed char\000"
 6429      65642063 
 6429      68617200 
 6430              	.LASF17:
 6431 0156 666C6F61 		.ascii	"float\000"
 6431      7400
 6432              	.LASF9:
 6433 015c 6C6F6E67 		.ascii	"long long int\000"
 6433      206C6F6E 
 6433      6720696E 
 6433      7400
 6434              	.LASF28:
 6435 016a 73746174 		.ascii	"states\000"
 6435      657300
 6436              	.LASF54:
 6437 0171 546F7461 		.ascii	"TotalRequest\000"
 6437      6C526571 
 6437      75657374 
 6437      00
 6438              	.LASF7:
 6439 017e 6C6F6E67 		.ascii	"long int\000"
 6439      20696E74 
 6439      00
 6440              	.LASF32:
 6441 0187 50726F63 		.ascii	"ProcessedvolumeSale\000"
 6441      65737365 
 6441      64766F6C 
 6441      756D6553 
 6441      616C6500 
 6442              	.LASF43:
 6443 019b 61646472 		.ascii	"address\000"
 6443      65737300 
 6444              	.LASF71:
 6445 01a3 64697247 		.ascii	"dirGbr\000"
 6445      627200
 6446              	.LASF25:
 6447 01aa 766F6C75 		.ascii	"volumeSale\000"
 6447      6D655361 
 6447      6C6500
 6448              	.LASF3:
 6449 01b5 5F5F7569 		.ascii	"__uint8_t\000"
 6449      6E74385F 
 6449      7400
 6450              	.LASF37:
 6451 01bf 4D455053 		.ascii	"MEPSAN_AUTHORIZE\000"
 6451      414E5F41 
 6451      5554484F 
 6451      52495A45 
 6451      00
 6452              	.LASF30:
 6453 01d0 50726F63 		.ascii	"ProcessedTotals\000"
 6453      65737365 
 6453      64546F74 
 6453      616C7300 
 6454              	.LASF64:
 6455 01e0 4D657073 		.ascii	"MepsanSendTo\000"
 6455      616E5365 
ARM GAS  C:\Users\Lenovo\AppData\Local\Temp\ccP94fx0.s 			page 127


 6455      6E64546F 
 6455      00
 6456              	.LASF20:
 6457 01ed 6C6F6E67 		.ascii	"long double\000"
 6457      20646F75 
 6457      626C6500 
 6458              	.LASF65:
 6459 01f9 50756D70 		.ascii	"PumpAddress\000"
 6459      41646472 
 6459      65737300 
 6460              	.LASF1:
 6461 0205 756E7369 		.ascii	"unsigned char\000"
 6461      676E6564 
 6461      20636861 
 6461      7200
 6462              	.LASF23:
 6463 0213 7070754E 		.ascii	"ppuNozzle\000"
 6463      6F7A7A6C 
 6463      6500
 6464              	.LASF10:
 6465 021d 6C6F6E67 		.ascii	"long long unsigned int\000"
 6465      206C6F6E 
 6465      6720756E 
 6465      7369676E 
 6465      65642069 
 6466              	.LASF55:
 6467 0234 74797065 		.ascii	"type\000"
 6467      00
 6468              	.LASF11:
 6469 0239 756E7369 		.ascii	"unsigned int\000"
 6469      676E6564 
 6469      20696E74 
 6469      00
 6470              	.LASF26:
 6471 0246 70707553 		.ascii	"ppuSale\000"
 6471      616C6500 
 6472              	.LASF24:
 6473 024e 6D6F6E65 		.ascii	"moneySale\000"
 6473      7953616C 
 6473      6500
 6474              	.LASF60:
 6475 0258 43757272 		.ascii	"CurrentState\000"
 6475      656E7453 
 6475      74617465 
 6475      00
 6476              	.LASF57:
 6477 0265 72657175 		.ascii	"request\000"
 6477      65737400 
 6478              	.LASF41:
 6479 026d 62697473 		.ascii	"bits_read\000"
 6479      5F726561 
 6479      6400
 6480              	.LASF27:
 6481 0277 70726F64 		.ascii	"productSale\000"
 6481      75637453 
 6481      616C6500 
 6482              	.LASF5:
ARM GAS  C:\Users\Lenovo\AppData\Local\Temp\ccP94fx0.s 			page 128


 6483 0283 73686F72 		.ascii	"short unsigned int\000"
 6483      7420756E 
 6483      7369676E 
 6483      65642069 
 6483      6E7400
 6484              	.LASF48:
 6485 0296 73746174 		.ascii	"status\000"
 6485      757300
 6486              	.LASF44:
 6487 029d 4D657052 		.ascii	"MepRx\000"
 6487      7800
 6488              	.LASF19:
 6489 02a3 63686172 		.ascii	"char\000"
 6489      00
 6490              	.LASF13:
 6491 02a8 75696E74 		.ascii	"uint16_t\000"
 6491      31365F74 
 6491      00
 6492              	.LASF45:
 6493 02b1 67656E5F 		.ascii	"gen_crc16\000"
 6493      63726331 
 6493      3600
 6494              	.LASF14:
 6495 02bb 696E7433 		.ascii	"int32_t\000"
 6495      325F7400 
 6496              	.LASF35:
 6497 02c3 70756D70 		.ascii	"pump\000"
 6497      00
 6498              	.LASF76:
 6499 02c8 47657454 		.ascii	"GetTotal\000"
 6499      6F74616C 
 6499      00
 6500              	.LASF39:
 6501 02d1 64617461 		.ascii	"data\000"
 6501      00
 6502              	.LASF22:
 6503 02d6 746F7461 		.ascii	"totalsNozzle\000"
 6503      6C734E6F 
 6503      7A7A6C65 
 6503      00
 6504              	.LASF33:
 6505 02e3 50726F63 		.ascii	"ProcessedPPU\000"
 6505      65737365 
 6505      64505055 
 6505      00
 6506              	.LASF8:
 6507 02f0 6C6F6E67 		.ascii	"long unsigned int\000"
 6507      20756E73 
 6507      69676E65 
 6507      6420696E 
 6507      7400
 6508              	.LASF18:
 6509 0302 646F7562 		.ascii	"double\000"
 6509      6C6500
 6510              	.LASF63:
 6511 0309 4D657073 		.ascii	"MepsanResponse\000"
 6511      616E5265 
ARM GAS  C:\Users\Lenovo\AppData\Local\Temp\ccP94fx0.s 			page 129


 6511      73706F6E 
 6511      736500
 6512              	.LASF58:
 6513 0318 49544D5F 		.ascii	"ITM_RxBuffer\000"
 6513      52784275 
 6513      66666572 
 6513      00
 6514              	.LASF40:
 6515 0325 73697A65 		.ascii	"size\000"
 6515      00
 6516              	.LASF6:
 6517 032a 5F5F696E 		.ascii	"__int32_t\000"
 6517      7433325F 
 6517      7400
 6518              	.LASF69:
 6519 0334 546F7461 		.ascii	"TotalRequestType\000"
 6519      6C526571 
 6519      75657374 
 6519      54797065 
 6519      00
 6520              	.LASF29:
 6521 0345 4D657073 		.ascii	"MepsanStore\000"
 6521      616E5374 
 6521      6F726500 
 6522              	.LASF31:
 6523 0351 50726F63 		.ascii	"ProcessedmoneySale\000"
 6523      65737365 
 6523      646D6F6E 
 6523      65795361 
 6523      6C6500
 6524              	.LASF50:
 6525 0364 50756D70 		.ascii	"PumpState\000"
 6525      53746174 
 6525      6500
 6526              	.LASF73:
 6527 036e 50756D70 		.ascii	"PumpCom.c\000"
 6527      436F6D2E 
 6527      6300
 6528              	.LASF34:
 6529 0378 706F7369 		.ascii	"position\000"
 6529      74696F6E 
 6529      00
 6530              	.LASF46:
 6531 0381 47657441 		.ascii	"GetAddress\000"
 6531      64647265 
 6531      737300
 6532              	.LASF61:
 6533 038c 52656365 		.ascii	"Receipt\000"
 6533      69707400 
 6534              	.LASF62:
 6535 0394 73696465 		.ascii	"side\000"
 6535      00
 6536              	.LASF36:
 6537 0399 4D455053 		.ascii	"MEPSAN_STATE\000"
 6537      414E5F53 
 6537      54415445 
 6537      00
ARM GAS  C:\Users\Lenovo\AppData\Local\Temp\ccP94fx0.s 			page 130


 6538              	.LASF74:
 6539 03a6 433A5C55 		.ascii	"C:\\Users\\Lenovo\\Documents\\GitHub\\Mepsan\\Mepsa"
 6539      73657273 
 6539      5C4C656E 
 6539      6F766F5C 
 6539      446F6375 
 6540 03d3 6E2E6379 		.ascii	"n.cydsn\000"
 6540      64736E00 
 6541              	.LASF67:
 6542 03db 6372635F 		.ascii	"crc_hi\000"
 6542      686900
 6543              	.LASF77:
 6544 03e2 47657441 		.ascii	"GetACK\000"
 6544      434B00
 6545              		.ident	"GCC: (GNU Tools for ARM Embedded Processors) 5.4.1 20160609 (release) [ARM/embedded-5-bran
