ARM GAS  C:\Users\Diego\AppData\Local\Temp\ccj1d66j.s 			page 1


   1              		.syntax unified
   2              		.cpu cortex-m3
   3              		.fpu softvfp
   4              		.eabi_attribute 20, 1
   5              		.eabi_attribute 21, 1
   6              		.eabi_attribute 23, 3
   7              		.eabi_attribute 24, 1
   8              		.eabi_attribute 25, 1
   9              		.eabi_attribute 26, 1
  10              		.eabi_attribute 30, 6
  11              		.eabi_attribute 34, 1
  12              		.eabi_attribute 18, 4
  13              		.thumb
  14              		.syntax unified
  15              		.file	"PumpCom.c"
  16              		.text
  17              	.Ltext0:
  18              		.cfi_sections	.debug_frame
  19              		.comm	PollCounter,2,2
  20              		.comm	CurrentState,1,1
  21              		.comm	Receipt,1,1
  22              		.comm	sale_number,6,4
  23              		.comm	sale_number_copy,6,4
  24              		.comm	int_salenumber,1,1
  25              		.comm	shift_number,6,4
  26              		.comm	int_shiftnumber,1,1
  27              		.comm	LCDhose,1,1
  28              		.comm	side,1236,4
  29              		.comm	MepsanResponse,50,4
  30              		.comm	MepsanSendTo,50,4
  31              		.comm	PumpAddress,15,4
  32              		.comm	GBResponse,50,4
  33              		.comm	CRC,2,2
  34              		.comm	crc_lo,1,1
  35              		.comm	crc_hi,1,1
  36              		.comm	Positions,1,1
  37              		.comm	TotalRequestType,1,1
  38              		.comm	DecVol,1,1
  39              		.comm	touch1,20,4
  40              		.comm	dirGbr,1,1
  41              		.section	.text.gen_crc16,"ax",%progbits
  42              		.align	2
  43              		.global	gen_crc16
  44              		.thumb
  45              		.thumb_func
  46              		.type	gen_crc16, %function
  47              	gen_crc16:
  48              	.LFB63:
  49              		.file 1 "PumpCom.c"
   1:PumpCom.c     **** /**
   2:PumpCom.c     ****  * @file PumpCom.c
   3:PumpCom.c     ****  * @author Kugel Electronics
   4:PumpCom.c     ****  * @date 10/04/2018
   5:PumpCom.c     ****  * @brief Comunicación con el dispensador.
   6:PumpCom.c     ****  *
   7:PumpCom.c     ****  * Here typically goes a more extensive explanation of what the header
   8:PumpCom.c     ****  * defines. Doxygens tags are words preceeded by either a backslash @\
ARM GAS  C:\Users\Diego\AppData\Local\Temp\ccj1d66j.s 			page 2


   9:PumpCom.c     ****  * or by an at symbol @@.
  10:PumpCom.c     ****  * @see http://www.stack.nl/~dimitri/doxygen/docblocks.html
  11:PumpCom.c     ****  * @see http://www.stack.nl/~dimitri/doxygen/commands.html
  12:PumpCom.c     ****  */
  13:PumpCom.c     **** 
  14:PumpCom.c     **** /* [] END OF FILE */
  15:PumpCom.c     **** 
  16:PumpCom.c     **** #include <GVar.h>
  17:PumpCom.c     **** 
  18:PumpCom.c     **** #define CRC16 0x8005
  19:PumpCom.c     **** 
  20:PumpCom.c     **** /*******************************************************************************
  21:PumpCom.c     **** * Function Name: gen_crc16
  22:PumpCom.c     **** ********************************************************************************
  23:PumpCom.c     **** *
  24:PumpCom.c     **** *
  25:PumpCom.c     **** *******************************************************************************/
  26:PumpCom.c     **** uint16_t gen_crc16(const uint8_t *data, uint16_t size)
  27:PumpCom.c     **** {
  50              		.loc 1 27 0
  51              		.cfi_startproc
  52              		@ args = 0, pretend = 0, frame = 32
  53              		@ frame_needed = 1, uses_anonymous_args = 0
  54              		@ link register save eliminated.
  55 0000 80B4     		push	{r7}
  56              		.cfi_def_cfa_offset 4
  57              		.cfi_offset 7, -4
  58 0002 89B0     		sub	sp, sp, #36
  59              		.cfi_def_cfa_offset 40
  60 0004 00AF     		add	r7, sp, #0
  61              		.cfi_def_cfa_register 7
  62 0006 7860     		str	r0, [r7, #4]
  63 0008 0B46     		mov	r3, r1
  64 000a 7B80     		strh	r3, [r7, #2]	@ movhi
  28:PumpCom.c     ****     uint16_t out = 0;
  65              		.loc 1 28 0
  66 000c 0023     		movs	r3, #0
  67 000e FB83     		strh	r3, [r7, #30]	@ movhi
  29:PumpCom.c     ****     int bits_read = 0, bit_flag;
  68              		.loc 1 29 0
  69 0010 0023     		movs	r3, #0
  70 0012 BB61     		str	r3, [r7, #24]
  30:PumpCom.c     **** 
  31:PumpCom.c     ****     /* Sanity check: */
  32:PumpCom.c     ****     if(data == NULL)
  71              		.loc 1 32 0
  72 0014 7B68     		ldr	r3, [r7, #4]
  73 0016 002B     		cmp	r3, #0
  74 0018 2FD1     		bne	.L4
  33:PumpCom.c     ****         return 0;
  75              		.loc 1 33 0
  76 001a 0023     		movs	r3, #0
  77 001c 68E0     		b	.L3
  78              	.L6:
  34:PumpCom.c     **** 
  35:PumpCom.c     ****     while(size > 0)
  36:PumpCom.c     ****     {
ARM GAS  C:\Users\Diego\AppData\Local\Temp\ccj1d66j.s 			page 3


  37:PumpCom.c     ****         bit_flag = out >> 15;
  79              		.loc 1 37 0
  80 001e FB8B     		ldrh	r3, [r7, #30]
  81 0020 DB0B     		lsrs	r3, r3, #15
  82 0022 9BB2     		uxth	r3, r3
  83 0024 BB60     		str	r3, [r7, #8]
  38:PumpCom.c     **** 
  39:PumpCom.c     ****         /* Get next bit: */
  40:PumpCom.c     ****         out <<= 1;
  84              		.loc 1 40 0
  85 0026 FB8B     		ldrh	r3, [r7, #30]	@ movhi
  86 0028 5B00     		lsls	r3, r3, #1
  87 002a FB83     		strh	r3, [r7, #30]	@ movhi
  41:PumpCom.c     ****         out |= (*data >> bits_read) & 1; // item a) work from the least significant bits
  88              		.loc 1 41 0
  89 002c 7B68     		ldr	r3, [r7, #4]
  90 002e 1B78     		ldrb	r3, [r3]	@ zero_extendqisi2
  91 0030 1A46     		mov	r2, r3
  92 0032 BB69     		ldr	r3, [r7, #24]
  93 0034 42FA03F3 		asr	r3, r2, r3
  94 0038 1BB2     		sxth	r3, r3
  95 003a 03F00103 		and	r3, r3, #1
  96 003e 1AB2     		sxth	r2, r3
  97 0040 B7F91E30 		ldrsh	r3, [r7, #30]
  98 0044 1343     		orrs	r3, r3, r2
  99 0046 1BB2     		sxth	r3, r3
 100 0048 FB83     		strh	r3, [r7, #30]	@ movhi
  42:PumpCom.c     **** 
  43:PumpCom.c     ****         /* Increment bit counter: */
  44:PumpCom.c     ****         bits_read++;
 101              		.loc 1 44 0
 102 004a BB69     		ldr	r3, [r7, #24]
 103 004c 0133     		adds	r3, r3, #1
 104 004e BB61     		str	r3, [r7, #24]
  45:PumpCom.c     ****         if(bits_read > 7)
 105              		.loc 1 45 0
 106 0050 BB69     		ldr	r3, [r7, #24]
 107 0052 072B     		cmp	r3, #7
 108 0054 07DD     		ble	.L5
  46:PumpCom.c     ****         {
  47:PumpCom.c     ****             bits_read = 0;
 109              		.loc 1 47 0
 110 0056 0023     		movs	r3, #0
 111 0058 BB61     		str	r3, [r7, #24]
  48:PumpCom.c     ****             data++;
 112              		.loc 1 48 0
 113 005a 7B68     		ldr	r3, [r7, #4]
 114 005c 0133     		adds	r3, r3, #1
 115 005e 7B60     		str	r3, [r7, #4]
  49:PumpCom.c     ****             size--;
 116              		.loc 1 49 0
 117 0060 7B88     		ldrh	r3, [r7, #2]
 118 0062 013B     		subs	r3, r3, #1
 119 0064 7B80     		strh	r3, [r7, #2]	@ movhi
 120              	.L5:
  50:PumpCom.c     ****         }
  51:PumpCom.c     **** 
ARM GAS  C:\Users\Diego\AppData\Local\Temp\ccj1d66j.s 			page 4


  52:PumpCom.c     ****         /* Cycle check: */
  53:PumpCom.c     ****         if(bit_flag)
 121              		.loc 1 53 0
 122 0066 BB68     		ldr	r3, [r7, #8]
 123 0068 002B     		cmp	r3, #0
 124 006a 06D0     		beq	.L4
  54:PumpCom.c     ****             out ^= CRC16;
 125              		.loc 1 54 0
 126 006c FB8B     		ldrh	r3, [r7, #30]	@ movhi
 127 006e 83F4FF43 		eor	r3, r3, #32640
 128 0072 83F07A03 		eor	r3, r3, #122
 129 0076 DB43     		mvns	r3, r3
 130 0078 FB83     		strh	r3, [r7, #30]	@ movhi
 131              	.L4:
  35:PumpCom.c     ****     {
 132              		.loc 1 35 0
 133 007a 7B88     		ldrh	r3, [r7, #2]
 134 007c 002B     		cmp	r3, #0
 135 007e CED1     		bne	.L6
  55:PumpCom.c     **** 
  56:PumpCom.c     ****     }
  57:PumpCom.c     **** 
  58:PumpCom.c     ****     // item b) "push out" the last 16 bits
  59:PumpCom.c     ****     int i;
  60:PumpCom.c     ****     for (i = 0; i < 16; ++i) {
 136              		.loc 1 60 0
 137 0080 0023     		movs	r3, #0
 138 0082 7B61     		str	r3, [r7, #20]
 139 0084 13E0     		b	.L7
 140              	.L9:
  61:PumpCom.c     ****         bit_flag = out >> 15;
 141              		.loc 1 61 0
 142 0086 FB8B     		ldrh	r3, [r7, #30]
 143 0088 DB0B     		lsrs	r3, r3, #15
 144 008a 9BB2     		uxth	r3, r3
 145 008c BB60     		str	r3, [r7, #8]
  62:PumpCom.c     ****         out <<= 1;
 146              		.loc 1 62 0
 147 008e FB8B     		ldrh	r3, [r7, #30]	@ movhi
 148 0090 5B00     		lsls	r3, r3, #1
 149 0092 FB83     		strh	r3, [r7, #30]	@ movhi
  63:PumpCom.c     ****         if(bit_flag)
 150              		.loc 1 63 0
 151 0094 BB68     		ldr	r3, [r7, #8]
 152 0096 002B     		cmp	r3, #0
 153 0098 06D0     		beq	.L8
  64:PumpCom.c     ****             out ^= CRC16;
 154              		.loc 1 64 0
 155 009a FB8B     		ldrh	r3, [r7, #30]	@ movhi
 156 009c 83F4FF43 		eor	r3, r3, #32640
 157 00a0 83F07A03 		eor	r3, r3, #122
 158 00a4 DB43     		mvns	r3, r3
 159 00a6 FB83     		strh	r3, [r7, #30]	@ movhi
 160              	.L8:
  60:PumpCom.c     ****         bit_flag = out >> 15;
 161              		.loc 1 60 0 discriminator 2
 162 00a8 7B69     		ldr	r3, [r7, #20]
ARM GAS  C:\Users\Diego\AppData\Local\Temp\ccj1d66j.s 			page 5


 163 00aa 0133     		adds	r3, r3, #1
 164 00ac 7B61     		str	r3, [r7, #20]
 165              	.L7:
  60:PumpCom.c     ****         bit_flag = out >> 15;
 166              		.loc 1 60 0 is_stmt 0 discriminator 1
 167 00ae 7B69     		ldr	r3, [r7, #20]
 168 00b0 0F2B     		cmp	r3, #15
 169 00b2 E8DD     		ble	.L9
  65:PumpCom.c     ****     }
  66:PumpCom.c     **** 
  67:PumpCom.c     ****     // item c) reverse the bits
  68:PumpCom.c     ****     uint16_t crc = 0;
 170              		.loc 1 68 0 is_stmt 1
 171 00b4 0023     		movs	r3, #0
 172 00b6 7B82     		strh	r3, [r7, #18]	@ movhi
  69:PumpCom.c     ****     i = 0x8000;
 173              		.loc 1 69 0
 174 00b8 4FF40043 		mov	r3, #32768
 175 00bc 7B61     		str	r3, [r7, #20]
  70:PumpCom.c     ****     int j = 0x0001;
 176              		.loc 1 70 0
 177 00be 0123     		movs	r3, #1
 178 00c0 FB60     		str	r3, [r7, #12]
  71:PumpCom.c     ****     for (; i != 0; i >>=1, j <<= 1) {
 179              		.loc 1 71 0
 180 00c2 11E0     		b	.L10
 181              	.L12:
  72:PumpCom.c     ****         if (i & out) crc |= j;
 182              		.loc 1 72 0
 183 00c4 FA8B     		ldrh	r2, [r7, #30]
 184 00c6 7B69     		ldr	r3, [r7, #20]
 185 00c8 1340     		ands	r3, r3, r2
 186 00ca 002B     		cmp	r3, #0
 187 00cc 06D0     		beq	.L11
 188              		.loc 1 72 0 is_stmt 0 discriminator 1
 189 00ce FB68     		ldr	r3, [r7, #12]
 190 00d0 1AB2     		sxth	r2, r3
 191 00d2 B7F91230 		ldrsh	r3, [r7, #18]
 192 00d6 1343     		orrs	r3, r3, r2
 193 00d8 1BB2     		sxth	r3, r3
 194 00da 7B82     		strh	r3, [r7, #18]	@ movhi
 195              	.L11:
  71:PumpCom.c     ****     for (; i != 0; i >>=1, j <<= 1) {
 196              		.loc 1 71 0 is_stmt 1
 197 00dc 7B69     		ldr	r3, [r7, #20]
 198 00de 5B10     		asrs	r3, r3, #1
 199 00e0 7B61     		str	r3, [r7, #20]
 200 00e2 FB68     		ldr	r3, [r7, #12]
 201 00e4 5B00     		lsls	r3, r3, #1
 202 00e6 FB60     		str	r3, [r7, #12]
 203              	.L10:
  71:PumpCom.c     ****     for (; i != 0; i >>=1, j <<= 1) {
 204              		.loc 1 71 0 is_stmt 0 discriminator 1
 205 00e8 7B69     		ldr	r3, [r7, #20]
 206 00ea 002B     		cmp	r3, #0
 207 00ec EAD1     		bne	.L12
  73:PumpCom.c     ****     }
ARM GAS  C:\Users\Diego\AppData\Local\Temp\ccj1d66j.s 			page 6


  74:PumpCom.c     **** 
  75:PumpCom.c     ****     return crc;
 208              		.loc 1 75 0 is_stmt 1
 209 00ee 7B8A     		ldrh	r3, [r7, #18]
 210              	.L3:
  76:PumpCom.c     **** }
 211              		.loc 1 76 0
 212 00f0 1846     		mov	r0, r3
 213 00f2 2437     		adds	r7, r7, #36
 214              		.cfi_def_cfa_offset 4
 215 00f4 BD46     		mov	sp, r7
 216              		.cfi_def_cfa_register 13
 217              		@ sp needed
 218 00f6 80BC     		pop	{r7}
 219              		.cfi_restore 7
 220              		.cfi_def_cfa_offset 0
 221 00f8 7047     		bx	lr
 222              		.cfi_endproc
 223              	.LFE63:
 224              		.size	gen_crc16, .-gen_crc16
 225 00fa 00BF     		.section	.text.GetResponse,"ax",%progbits
 226              		.align	2
 227              		.global	GetResponse
 228              		.thumb
 229              		.thumb_func
 230              		.type	GetResponse, %function
 231              	GetResponse:
 232              	.LFB64:
  77:PumpCom.c     **** 
  78:PumpCom.c     **** /*******************************************************************************
  79:PumpCom.c     **** * Function Name: GetResponse
  80:PumpCom.c     **** ********************************************************************************
  81:PumpCom.c     **** *
  82:PumpCom.c     **** *
  83:PumpCom.c     **** *******************************************************************************/
  84:PumpCom.c     **** void GetResponse(void){
 233              		.loc 1 84 0
 234              		.cfi_startproc
 235              		@ args = 0, pretend = 0, frame = 24
 236              		@ frame_needed = 1, uses_anonymous_args = 0
 237 0000 F0B5     		push	{r4, r5, r6, r7, lr}
 238              		.cfi_def_cfa_offset 20
 239              		.cfi_offset 4, -20
 240              		.cfi_offset 5, -16
 241              		.cfi_offset 6, -12
 242              		.cfi_offset 7, -8
 243              		.cfi_offset 14, -4
 244 0002 87B0     		sub	sp, sp, #28
 245              		.cfi_def_cfa_offset 48
 246 0004 00AF     		add	r7, sp, #0
 247              		.cfi_def_cfa_register 7
  85:PumpCom.c     ****     uint8 size, address;
  86:PumpCom.c     ****     size = MepsanResponse[0];          
 248              		.loc 1 86 0
 249 0006 184B     		ldr	r3, .L79
 250 0008 1B78     		ldrb	r3, [r3]
 251 000a 7B71     		strb	r3, [r7, #5]
ARM GAS  C:\Users\Diego\AppData\Local\Temp\ccj1d66j.s 			page 7


  87:PumpCom.c     ****     //CyDelay(10); 
  88:PumpCom.c     ****     address = MepsanResponse[1] & 0x0F;
 252              		.loc 1 88 0
 253 000c 164B     		ldr	r3, .L79
 254 000e 5B78     		ldrb	r3, [r3, #1]	@ zero_extendqisi2
 255 0010 03F00F03 		and	r3, r3, #15
 256 0014 3B71     		strb	r3, [r7, #4]
  89:PumpCom.c     ****     if(address == side.a.dir){
 257              		.loc 1 89 0
 258 0016 154B     		ldr	r3, .L79+4
 259 0018 1B78     		ldrb	r3, [r3]	@ zero_extendqisi2
 260 001a 3A79     		ldrb	r2, [r7, #4]	@ zero_extendqisi2
 261 001c 9A42     		cmp	r2, r3
 262 001e 40F05184 		bne	.L14
  90:PumpCom.c     ****         side.a.MepRequest = 0;
 263              		.loc 1 90 0
 264 0022 124B     		ldr	r3, .L79+4
 265 0024 0022     		movs	r2, #0
 266 0026 83F82B21 		strb	r2, [r3, #299]
 267              	.LBB2:
  91:PumpCom.c     ****         for(uint8 MepRx = 1; MepRx < size + 1; MepRx++){
 268              		.loc 1 91 0
 269 002a 0123     		movs	r3, #1
 270 002c FB75     		strb	r3, [r7, #23]
 271 002e 0CE0     		b	.L15
 272              	.L16:
  92:PumpCom.c     ****             side.a.MepsanStore[MepRx - 1] = MepsanResponse[MepRx];
 273              		.loc 1 92 0 discriminator 3
 274 0030 FB7D     		ldrb	r3, [r7, #23]	@ zero_extendqisi2
 275 0032 013B     		subs	r3, r3, #1
 276 0034 FA7D     		ldrb	r2, [r7, #23]	@ zero_extendqisi2
 277 0036 0C49     		ldr	r1, .L79
 278 0038 895C     		ldrb	r1, [r1, r2]	@ zero_extendqisi2
 279 003a 0C4A     		ldr	r2, .L79+4
 280 003c 1344     		add	r3, r3, r2
 281 003e 0A46     		mov	r2, r1
 282 0040 83F85120 		strb	r2, [r3, #81]
  91:PumpCom.c     ****         for(uint8 MepRx = 1; MepRx < size + 1; MepRx++){
 283              		.loc 1 91 0 discriminator 3
 284 0044 FB7D     		ldrb	r3, [r7, #23]	@ zero_extendqisi2
 285 0046 0133     		adds	r3, r3, #1
 286 0048 FB75     		strb	r3, [r7, #23]
 287              	.L15:
  91:PumpCom.c     ****         for(uint8 MepRx = 1; MepRx < size + 1; MepRx++){
 288              		.loc 1 91 0 is_stmt 0 discriminator 1
 289 004a FA7D     		ldrb	r2, [r7, #23]	@ zero_extendqisi2
 290 004c 7B79     		ldrb	r3, [r7, #5]	@ zero_extendqisi2
 291 004e 0133     		adds	r3, r3, #1
 292 0050 9A42     		cmp	r2, r3
 293 0052 EDDB     		blt	.L16
 294              	.LBE2:
  93:PumpCom.c     ****         }
  94:PumpCom.c     ****         if(side.a.MepsanStore[2] == 0x65){
 295              		.loc 1 94 0 is_stmt 1
 296 0054 054B     		ldr	r3, .L79+4
 297 0056 93F85330 		ldrb	r3, [r3, #83]	@ zero_extendqisi2
 298 005a 652B     		cmp	r3, #101
ARM GAS  C:\Users\Diego\AppData\Local\Temp\ccj1d66j.s 			page 8


 299 005c 40F07F82 		bne	.L17
 300              	.LBB3:
  95:PumpCom.c     ****             for(uint8 x = 5; x < (side.a.MepsanStore[3]-1) + 5; x++ ){
 301              		.loc 1 95 0
 302 0060 0523     		movs	r3, #5
 303 0062 BB75     		strb	r3, [r7, #22]
 304 0064 25E0     		b	.L18
 305              	.L80:
 306 0066 00BF     		.align	2
 307              	.L79:
 308 0068 00000000 		.word	MepsanResponse
 309 006c 00000000 		.word	side
 310              	.L19:
  96:PumpCom.c     ****                 side.a.totalsNozzle[((side.a.MepsanStore[4])&0x0F)-1][TotalRequestType][x-5] = side
 311              		.loc 1 96 0 discriminator 3
 312 0070 CD4B     		ldr	r3, .L81
 313 0072 93F85530 		ldrb	r3, [r3, #85]	@ zero_extendqisi2
 314 0076 03F00F03 		and	r3, r3, #15
 315 007a 591E     		subs	r1, r3, #1
 316 007c CB4B     		ldr	r3, .L81+4
 317 007e 1B78     		ldrb	r3, [r3]	@ zero_extendqisi2
 318 0080 1D46     		mov	r5, r3
 319 0082 BB7D     		ldrb	r3, [r7, #22]	@ zero_extendqisi2
 320 0084 581F     		subs	r0, r3, #5
 321 0086 BB7D     		ldrb	r3, [r7, #22]	@ zero_extendqisi2
 322 0088 C74A     		ldr	r2, .L81
 323 008a 1344     		add	r3, r3, r2
 324 008c 93F85160 		ldrb	r6, [r3, #81]	@ zero_extendqisi2
 325 0090 C54C     		ldr	r4, .L81
 326 0092 2A46     		mov	r2, r5
 327 0094 9200     		lsls	r2, r2, #2
 328 0096 2A44     		add	r2, r2, r5
 329 0098 0B46     		mov	r3, r1
 330 009a 9B00     		lsls	r3, r3, #2
 331 009c 0B44     		add	r3, r3, r1
 332 009e 5B00     		lsls	r3, r3, #1
 333 00a0 1344     		add	r3, r3, r2
 334 00a2 2344     		add	r3, r3, r4
 335 00a4 0344     		add	r3, r3, r0
 336 00a6 0133     		adds	r3, r3, #1
 337 00a8 3246     		mov	r2, r6
 338 00aa 1A70     		strb	r2, [r3]
  95:PumpCom.c     ****             for(uint8 x = 5; x < (side.a.MepsanStore[3]-1) + 5; x++ ){
 339              		.loc 1 95 0 discriminator 3
 340 00ac BB7D     		ldrb	r3, [r7, #22]	@ zero_extendqisi2
 341 00ae 0133     		adds	r3, r3, #1
 342 00b0 BB75     		strb	r3, [r7, #22]
 343              	.L18:
  95:PumpCom.c     ****             for(uint8 x = 5; x < (side.a.MepsanStore[3]-1) + 5; x++ ){
 344              		.loc 1 95 0 is_stmt 0 discriminator 1
 345 00b2 BA7D     		ldrb	r2, [r7, #22]	@ zero_extendqisi2
 346 00b4 BC4B     		ldr	r3, .L81
 347 00b6 93F85430 		ldrb	r3, [r3, #84]	@ zero_extendqisi2
 348 00ba 0433     		adds	r3, r3, #4
 349 00bc 9A42     		cmp	r2, r3
 350 00be D7DB     		blt	.L19
 351              	.LBE3:
ARM GAS  C:\Users\Diego\AppData\Local\Temp\ccj1d66j.s 			page 9


  97:PumpCom.c     ****             }
  98:PumpCom.c     ****             side.a.ProcessedTotals[((side.a.MepsanStore[4])&0x0F)-1][TotalRequestType][0] = (side.a
 352              		.loc 1 98 0 is_stmt 1
 353 00c0 B94B     		ldr	r3, .L81
 354 00c2 93F85530 		ldrb	r3, [r3, #85]	@ zero_extendqisi2
 355 00c6 03F00F03 		and	r3, r3, #15
 356 00ca 591E     		subs	r1, r3, #1
 357 00cc B74B     		ldr	r3, .L81+4
 358 00ce 1B78     		ldrb	r3, [r3]	@ zero_extendqisi2
 359 00d0 1D46     		mov	r5, r3
 360 00d2 B54B     		ldr	r3, .L81
 361 00d4 93F85530 		ldrb	r3, [r3, #85]	@ zero_extendqisi2
 362 00d8 03F00F03 		and	r3, r3, #15
 363 00dc 581E     		subs	r0, r3, #1
 364 00de B34B     		ldr	r3, .L81+4
 365 00e0 1B78     		ldrb	r3, [r3]	@ zero_extendqisi2
 366 00e2 B14C     		ldr	r4, .L81
 367 00e4 1A46     		mov	r2, r3
 368 00e6 9200     		lsls	r2, r2, #2
 369 00e8 1A44     		add	r2, r2, r3
 370 00ea 0346     		mov	r3, r0
 371 00ec 9B00     		lsls	r3, r3, #2
 372 00ee 0344     		add	r3, r3, r0
 373 00f0 5B00     		lsls	r3, r3, #1
 374 00f2 1344     		add	r3, r3, r2
 375 00f4 2344     		add	r3, r3, r4
 376 00f6 0133     		adds	r3, r3, #1
 377 00f8 1B78     		ldrb	r3, [r3]	@ zero_extendqisi2
 378 00fa 1B09     		lsrs	r3, r3, #4
 379 00fc DBB2     		uxtb	r3, r3
 380 00fe 3033     		adds	r3, r3, #48
 381 0100 DCB2     		uxtb	r4, r3
 382 0102 A948     		ldr	r0, .L81
 383 0104 2A46     		mov	r2, r5
 384 0106 9200     		lsls	r2, r2, #2
 385 0108 2A44     		add	r2, r2, r5
 386 010a 5300     		lsls	r3, r2, #1
 387 010c 1A46     		mov	r2, r3
 388 010e 0B46     		mov	r3, r1
 389 0110 1B01     		lsls	r3, r3, #4
 390 0112 5B1A     		subs	r3, r3, r1
 391 0114 5B00     		lsls	r3, r3, #1
 392 0116 1344     		add	r3, r3, r2
 393 0118 0344     		add	r3, r3, r0
 394 011a 8333     		adds	r3, r3, #131
 395 011c 2246     		mov	r2, r4
 396 011e 1A70     		strb	r2, [r3]
  99:PumpCom.c     ****             side.a.ProcessedTotals[((side.a.MepsanStore[4])&0x0F)-1][TotalRequestType][1] = (side.a
 397              		.loc 1 99 0
 398 0120 A14B     		ldr	r3, .L81
 399 0122 93F85530 		ldrb	r3, [r3, #85]	@ zero_extendqisi2
 400 0126 03F00F03 		and	r3, r3, #15
 401 012a 591E     		subs	r1, r3, #1
 402 012c 9F4B     		ldr	r3, .L81+4
 403 012e 1B78     		ldrb	r3, [r3]	@ zero_extendqisi2
 404 0130 1D46     		mov	r5, r3
 405 0132 9D4B     		ldr	r3, .L81
ARM GAS  C:\Users\Diego\AppData\Local\Temp\ccj1d66j.s 			page 10


 406 0134 93F85530 		ldrb	r3, [r3, #85]	@ zero_extendqisi2
 407 0138 03F00F03 		and	r3, r3, #15
 408 013c 581E     		subs	r0, r3, #1
 409 013e 9B4B     		ldr	r3, .L81+4
 410 0140 1B78     		ldrb	r3, [r3]	@ zero_extendqisi2
 411 0142 994C     		ldr	r4, .L81
 412 0144 1A46     		mov	r2, r3
 413 0146 9200     		lsls	r2, r2, #2
 414 0148 1A44     		add	r2, r2, r3
 415 014a 0346     		mov	r3, r0
 416 014c 9B00     		lsls	r3, r3, #2
 417 014e 0344     		add	r3, r3, r0
 418 0150 5B00     		lsls	r3, r3, #1
 419 0152 1344     		add	r3, r3, r2
 420 0154 2344     		add	r3, r3, r4
 421 0156 0133     		adds	r3, r3, #1
 422 0158 1B78     		ldrb	r3, [r3]	@ zero_extendqisi2
 423 015a 03F00F03 		and	r3, r3, #15
 424 015e DBB2     		uxtb	r3, r3
 425 0160 3033     		adds	r3, r3, #48
 426 0162 DCB2     		uxtb	r4, r3
 427 0164 9048     		ldr	r0, .L81
 428 0166 2A46     		mov	r2, r5
 429 0168 9200     		lsls	r2, r2, #2
 430 016a 2A44     		add	r2, r2, r5
 431 016c 5300     		lsls	r3, r2, #1
 432 016e 1A46     		mov	r2, r3
 433 0170 0B46     		mov	r3, r1
 434 0172 1B01     		lsls	r3, r3, #4
 435 0174 5B1A     		subs	r3, r3, r1
 436 0176 5B00     		lsls	r3, r3, #1
 437 0178 1344     		add	r3, r3, r2
 438 017a 0344     		add	r3, r3, r0
 439 017c 8433     		adds	r3, r3, #132
 440 017e 2246     		mov	r2, r4
 441 0180 1A70     		strb	r2, [r3]
 100:PumpCom.c     ****             side.a.ProcessedTotals[((side.a.MepsanStore[4])&0x0F)-1][TotalRequestType][2] = (side.a
 442              		.loc 1 100 0
 443 0182 894B     		ldr	r3, .L81
 444 0184 93F85530 		ldrb	r3, [r3, #85]	@ zero_extendqisi2
 445 0188 03F00F03 		and	r3, r3, #15
 446 018c 591E     		subs	r1, r3, #1
 447 018e 874B     		ldr	r3, .L81+4
 448 0190 1B78     		ldrb	r3, [r3]	@ zero_extendqisi2
 449 0192 1D46     		mov	r5, r3
 450 0194 844B     		ldr	r3, .L81
 451 0196 93F85530 		ldrb	r3, [r3, #85]	@ zero_extendqisi2
 452 019a 03F00F03 		and	r3, r3, #15
 453 019e 581E     		subs	r0, r3, #1
 454 01a0 824B     		ldr	r3, .L81+4
 455 01a2 1B78     		ldrb	r3, [r3]	@ zero_extendqisi2
 456 01a4 804C     		ldr	r4, .L81
 457 01a6 1A46     		mov	r2, r3
 458 01a8 9200     		lsls	r2, r2, #2
 459 01aa 1A44     		add	r2, r2, r3
 460 01ac 0346     		mov	r3, r0
 461 01ae 9B00     		lsls	r3, r3, #2
ARM GAS  C:\Users\Diego\AppData\Local\Temp\ccj1d66j.s 			page 11


 462 01b0 0344     		add	r3, r3, r0
 463 01b2 5B00     		lsls	r3, r3, #1
 464 01b4 1344     		add	r3, r3, r2
 465 01b6 2344     		add	r3, r3, r4
 466 01b8 0233     		adds	r3, r3, #2
 467 01ba 1B78     		ldrb	r3, [r3]	@ zero_extendqisi2
 468 01bc 1B09     		lsrs	r3, r3, #4
 469 01be DBB2     		uxtb	r3, r3
 470 01c0 3033     		adds	r3, r3, #48
 471 01c2 DCB2     		uxtb	r4, r3
 472 01c4 7848     		ldr	r0, .L81
 473 01c6 2A46     		mov	r2, r5
 474 01c8 9200     		lsls	r2, r2, #2
 475 01ca 2A44     		add	r2, r2, r5
 476 01cc 5300     		lsls	r3, r2, #1
 477 01ce 1A46     		mov	r2, r3
 478 01d0 0B46     		mov	r3, r1
 479 01d2 1B01     		lsls	r3, r3, #4
 480 01d4 5B1A     		subs	r3, r3, r1
 481 01d6 5B00     		lsls	r3, r3, #1
 482 01d8 1344     		add	r3, r3, r2
 483 01da 0344     		add	r3, r3, r0
 484 01dc 8533     		adds	r3, r3, #133
 485 01de 2246     		mov	r2, r4
 486 01e0 1A70     		strb	r2, [r3]
 101:PumpCom.c     ****             side.a.ProcessedTotals[((side.a.MepsanStore[4])&0x0F)-1][TotalRequestType][3] = (side.a
 487              		.loc 1 101 0
 488 01e2 714B     		ldr	r3, .L81
 489 01e4 93F85530 		ldrb	r3, [r3, #85]	@ zero_extendqisi2
 490 01e8 03F00F03 		and	r3, r3, #15
 491 01ec 591E     		subs	r1, r3, #1
 492 01ee 6F4B     		ldr	r3, .L81+4
 493 01f0 1B78     		ldrb	r3, [r3]	@ zero_extendqisi2
 494 01f2 1D46     		mov	r5, r3
 495 01f4 6C4B     		ldr	r3, .L81
 496 01f6 93F85530 		ldrb	r3, [r3, #85]	@ zero_extendqisi2
 497 01fa 03F00F03 		and	r3, r3, #15
 498 01fe 581E     		subs	r0, r3, #1
 499 0200 6A4B     		ldr	r3, .L81+4
 500 0202 1B78     		ldrb	r3, [r3]	@ zero_extendqisi2
 501 0204 684C     		ldr	r4, .L81
 502 0206 1A46     		mov	r2, r3
 503 0208 9200     		lsls	r2, r2, #2
 504 020a 1A44     		add	r2, r2, r3
 505 020c 0346     		mov	r3, r0
 506 020e 9B00     		lsls	r3, r3, #2
 507 0210 0344     		add	r3, r3, r0
 508 0212 5B00     		lsls	r3, r3, #1
 509 0214 1344     		add	r3, r3, r2
 510 0216 2344     		add	r3, r3, r4
 511 0218 0233     		adds	r3, r3, #2
 512 021a 1B78     		ldrb	r3, [r3]	@ zero_extendqisi2
 513 021c 03F00F03 		and	r3, r3, #15
 514 0220 DBB2     		uxtb	r3, r3
 515 0222 3033     		adds	r3, r3, #48
 516 0224 DCB2     		uxtb	r4, r3
 517 0226 6048     		ldr	r0, .L81
ARM GAS  C:\Users\Diego\AppData\Local\Temp\ccj1d66j.s 			page 12


 518 0228 2A46     		mov	r2, r5
 519 022a 9200     		lsls	r2, r2, #2
 520 022c 2A44     		add	r2, r2, r5
 521 022e 5300     		lsls	r3, r2, #1
 522 0230 1A46     		mov	r2, r3
 523 0232 0B46     		mov	r3, r1
 524 0234 1B01     		lsls	r3, r3, #4
 525 0236 5B1A     		subs	r3, r3, r1
 526 0238 5B00     		lsls	r3, r3, #1
 527 023a 1344     		add	r3, r3, r2
 528 023c 0344     		add	r3, r3, r0
 529 023e 8633     		adds	r3, r3, #134
 530 0240 2246     		mov	r2, r4
 531 0242 1A70     		strb	r2, [r3]
 102:PumpCom.c     ****             side.a.ProcessedTotals[((side.a.MepsanStore[4])&0x0F)-1][TotalRequestType][4] = (side.a
 532              		.loc 1 102 0
 533 0244 584B     		ldr	r3, .L81
 534 0246 93F85530 		ldrb	r3, [r3, #85]	@ zero_extendqisi2
 535 024a 03F00F03 		and	r3, r3, #15
 536 024e 591E     		subs	r1, r3, #1
 537 0250 564B     		ldr	r3, .L81+4
 538 0252 1B78     		ldrb	r3, [r3]	@ zero_extendqisi2
 539 0254 1D46     		mov	r5, r3
 540 0256 544B     		ldr	r3, .L81
 541 0258 93F85530 		ldrb	r3, [r3, #85]	@ zero_extendqisi2
 542 025c 03F00F03 		and	r3, r3, #15
 543 0260 581E     		subs	r0, r3, #1
 544 0262 524B     		ldr	r3, .L81+4
 545 0264 1B78     		ldrb	r3, [r3]	@ zero_extendqisi2
 546 0266 504C     		ldr	r4, .L81
 547 0268 1A46     		mov	r2, r3
 548 026a 9200     		lsls	r2, r2, #2
 549 026c 1A44     		add	r2, r2, r3
 550 026e 0346     		mov	r3, r0
 551 0270 9B00     		lsls	r3, r3, #2
 552 0272 0344     		add	r3, r3, r0
 553 0274 5B00     		lsls	r3, r3, #1
 554 0276 1344     		add	r3, r3, r2
 555 0278 2344     		add	r3, r3, r4
 556 027a 0333     		adds	r3, r3, #3
 557 027c 1B78     		ldrb	r3, [r3]	@ zero_extendqisi2
 558 027e 1B09     		lsrs	r3, r3, #4
 559 0280 DBB2     		uxtb	r3, r3
 560 0282 3033     		adds	r3, r3, #48
 561 0284 DCB2     		uxtb	r4, r3
 562 0286 4848     		ldr	r0, .L81
 563 0288 2A46     		mov	r2, r5
 564 028a 9200     		lsls	r2, r2, #2
 565 028c 2A44     		add	r2, r2, r5
 566 028e 5300     		lsls	r3, r2, #1
 567 0290 1A46     		mov	r2, r3
 568 0292 0B46     		mov	r3, r1
 569 0294 1B01     		lsls	r3, r3, #4
 570 0296 5B1A     		subs	r3, r3, r1
 571 0298 5B00     		lsls	r3, r3, #1
 572 029a 1344     		add	r3, r3, r2
 573 029c 0344     		add	r3, r3, r0
ARM GAS  C:\Users\Diego\AppData\Local\Temp\ccj1d66j.s 			page 13


 574 029e 8733     		adds	r3, r3, #135
 575 02a0 2246     		mov	r2, r4
 576 02a2 1A70     		strb	r2, [r3]
 103:PumpCom.c     ****             side.a.ProcessedTotals[((side.a.MepsanStore[4])&0x0F)-1][TotalRequestType][5] = (side.a
 577              		.loc 1 103 0
 578 02a4 404B     		ldr	r3, .L81
 579 02a6 93F85530 		ldrb	r3, [r3, #85]	@ zero_extendqisi2
 580 02aa 03F00F03 		and	r3, r3, #15
 581 02ae 591E     		subs	r1, r3, #1
 582 02b0 3E4B     		ldr	r3, .L81+4
 583 02b2 1B78     		ldrb	r3, [r3]	@ zero_extendqisi2
 584 02b4 1D46     		mov	r5, r3
 585 02b6 3C4B     		ldr	r3, .L81
 586 02b8 93F85530 		ldrb	r3, [r3, #85]	@ zero_extendqisi2
 587 02bc 03F00F03 		and	r3, r3, #15
 588 02c0 581E     		subs	r0, r3, #1
 589 02c2 3A4B     		ldr	r3, .L81+4
 590 02c4 1B78     		ldrb	r3, [r3]	@ zero_extendqisi2
 591 02c6 384C     		ldr	r4, .L81
 592 02c8 1A46     		mov	r2, r3
 593 02ca 9200     		lsls	r2, r2, #2
 594 02cc 1A44     		add	r2, r2, r3
 595 02ce 0346     		mov	r3, r0
 596 02d0 9B00     		lsls	r3, r3, #2
 597 02d2 0344     		add	r3, r3, r0
 598 02d4 5B00     		lsls	r3, r3, #1
 599 02d6 1344     		add	r3, r3, r2
 600 02d8 2344     		add	r3, r3, r4
 601 02da 0333     		adds	r3, r3, #3
 602 02dc 1B78     		ldrb	r3, [r3]	@ zero_extendqisi2
 603 02de 03F00F03 		and	r3, r3, #15
 604 02e2 DBB2     		uxtb	r3, r3
 605 02e4 3033     		adds	r3, r3, #48
 606 02e6 DCB2     		uxtb	r4, r3
 607 02e8 2F48     		ldr	r0, .L81
 608 02ea 2A46     		mov	r2, r5
 609 02ec 9200     		lsls	r2, r2, #2
 610 02ee 2A44     		add	r2, r2, r5
 611 02f0 5300     		lsls	r3, r2, #1
 612 02f2 1A46     		mov	r2, r3
 613 02f4 0B46     		mov	r3, r1
 614 02f6 1B01     		lsls	r3, r3, #4
 615 02f8 5B1A     		subs	r3, r3, r1
 616 02fa 5B00     		lsls	r3, r3, #1
 617 02fc 1344     		add	r3, r3, r2
 618 02fe 0344     		add	r3, r3, r0
 619 0300 8833     		adds	r3, r3, #136
 620 0302 2246     		mov	r2, r4
 621 0304 1A70     		strb	r2, [r3]
 104:PumpCom.c     ****             side.a.ProcessedTotals[((side.a.MepsanStore[4])&0x0F)-1][TotalRequestType][6] = (side.a
 622              		.loc 1 104 0
 623 0306 284B     		ldr	r3, .L81
 624 0308 93F85530 		ldrb	r3, [r3, #85]	@ zero_extendqisi2
 625 030c 03F00F03 		and	r3, r3, #15
 626 0310 591E     		subs	r1, r3, #1
 627 0312 264B     		ldr	r3, .L81+4
 628 0314 1B78     		ldrb	r3, [r3]	@ zero_extendqisi2
ARM GAS  C:\Users\Diego\AppData\Local\Temp\ccj1d66j.s 			page 14


 629 0316 1D46     		mov	r5, r3
 630 0318 234B     		ldr	r3, .L81
 631 031a 93F85530 		ldrb	r3, [r3, #85]	@ zero_extendqisi2
 632 031e 03F00F03 		and	r3, r3, #15
 633 0322 581E     		subs	r0, r3, #1
 634 0324 214B     		ldr	r3, .L81+4
 635 0326 1B78     		ldrb	r3, [r3]	@ zero_extendqisi2
 636 0328 1F4C     		ldr	r4, .L81
 637 032a 1A46     		mov	r2, r3
 638 032c 9200     		lsls	r2, r2, #2
 639 032e 1A44     		add	r2, r2, r3
 640 0330 0346     		mov	r3, r0
 641 0332 9B00     		lsls	r3, r3, #2
 642 0334 0344     		add	r3, r3, r0
 643 0336 5B00     		lsls	r3, r3, #1
 644 0338 1344     		add	r3, r3, r2
 645 033a 2344     		add	r3, r3, r4
 646 033c 0433     		adds	r3, r3, #4
 647 033e 1B78     		ldrb	r3, [r3]	@ zero_extendqisi2
 648 0340 1B09     		lsrs	r3, r3, #4
 649 0342 DBB2     		uxtb	r3, r3
 650 0344 3033     		adds	r3, r3, #48
 651 0346 DCB2     		uxtb	r4, r3
 652 0348 1748     		ldr	r0, .L81
 653 034a 2A46     		mov	r2, r5
 654 034c 9200     		lsls	r2, r2, #2
 655 034e 2A44     		add	r2, r2, r5
 656 0350 5300     		lsls	r3, r2, #1
 657 0352 1A46     		mov	r2, r3
 658 0354 0B46     		mov	r3, r1
 659 0356 1B01     		lsls	r3, r3, #4
 660 0358 5B1A     		subs	r3, r3, r1
 661 035a 5B00     		lsls	r3, r3, #1
 662 035c 1344     		add	r3, r3, r2
 663 035e 0344     		add	r3, r3, r0
 664 0360 8933     		adds	r3, r3, #137
 665 0362 2246     		mov	r2, r4
 666 0364 1A70     		strb	r2, [r3]
 105:PumpCom.c     ****             side.a.ProcessedTotals[((side.a.MepsanStore[4])&0x0F)-1][TotalRequestType][7] = (side.a
 667              		.loc 1 105 0
 668 0366 104B     		ldr	r3, .L81
 669 0368 93F85530 		ldrb	r3, [r3, #85]	@ zero_extendqisi2
 670 036c 03F00F03 		and	r3, r3, #15
 671 0370 591E     		subs	r1, r3, #1
 672 0372 0E4B     		ldr	r3, .L81+4
 673 0374 1B78     		ldrb	r3, [r3]	@ zero_extendqisi2
 674 0376 1D46     		mov	r5, r3
 675 0378 0B4B     		ldr	r3, .L81
 676 037a 93F85530 		ldrb	r3, [r3, #85]	@ zero_extendqisi2
 677 037e 03F00F03 		and	r3, r3, #15
 678 0382 581E     		subs	r0, r3, #1
 679 0384 094B     		ldr	r3, .L81+4
 680 0386 1B78     		ldrb	r3, [r3]	@ zero_extendqisi2
 681 0388 074C     		ldr	r4, .L81
 682 038a 1A46     		mov	r2, r3
 683 038c 9200     		lsls	r2, r2, #2
 684 038e 1A44     		add	r2, r2, r3
ARM GAS  C:\Users\Diego\AppData\Local\Temp\ccj1d66j.s 			page 15


 685 0390 0346     		mov	r3, r0
 686 0392 9B00     		lsls	r3, r3, #2
 687 0394 0344     		add	r3, r3, r0
 688 0396 5B00     		lsls	r3, r3, #1
 689 0398 1344     		add	r3, r3, r2
 690 039a 2344     		add	r3, r3, r4
 691 039c 0433     		adds	r3, r3, #4
 692 039e 1B78     		ldrb	r3, [r3]	@ zero_extendqisi2
 693 03a0 03F00F03 		and	r3, r3, #15
 694 03a4 DBB2     		uxtb	r3, r3
 695 03a6 03E0     		b	.L82
 696              	.L83:
 697              		.align	2
 698              	.L81:
 699 03a8 00000000 		.word	side
 700 03ac 00000000 		.word	TotalRequestType
 701              	.L82:
 702 03b0 3033     		adds	r3, r3, #48
 703 03b2 DCB2     		uxtb	r4, r3
 704 03b4 B848     		ldr	r0, .L84
 705 03b6 2A46     		mov	r2, r5
 706 03b8 9200     		lsls	r2, r2, #2
 707 03ba 2A44     		add	r2, r2, r5
 708 03bc 5300     		lsls	r3, r2, #1
 709 03be 1A46     		mov	r2, r3
 710 03c0 0B46     		mov	r3, r1
 711 03c2 1B01     		lsls	r3, r3, #4
 712 03c4 5B1A     		subs	r3, r3, r1
 713 03c6 5B00     		lsls	r3, r3, #1
 714 03c8 1344     		add	r3, r3, r2
 715 03ca 0344     		add	r3, r3, r0
 716 03cc 8A33     		adds	r3, r3, #138
 717 03ce 2246     		mov	r2, r4
 718 03d0 1A70     		strb	r2, [r3]
 106:PumpCom.c     ****             side.a.ProcessedTotals[((side.a.MepsanStore[4])&0x0F)-1][TotalRequestType][8] = (side.a
 719              		.loc 1 106 0
 720 03d2 B14B     		ldr	r3, .L84
 721 03d4 93F85530 		ldrb	r3, [r3, #85]	@ zero_extendqisi2
 722 03d8 03F00F03 		and	r3, r3, #15
 723 03dc 591E     		subs	r1, r3, #1
 724 03de AF4B     		ldr	r3, .L84+4
 725 03e0 1B78     		ldrb	r3, [r3]	@ zero_extendqisi2
 726 03e2 1D46     		mov	r5, r3
 727 03e4 AC4B     		ldr	r3, .L84
 728 03e6 93F85530 		ldrb	r3, [r3, #85]	@ zero_extendqisi2
 729 03ea 03F00F03 		and	r3, r3, #15
 730 03ee 581E     		subs	r0, r3, #1
 731 03f0 AA4B     		ldr	r3, .L84+4
 732 03f2 1B78     		ldrb	r3, [r3]	@ zero_extendqisi2
 733 03f4 A84C     		ldr	r4, .L84
 734 03f6 1A46     		mov	r2, r3
 735 03f8 9200     		lsls	r2, r2, #2
 736 03fa 1A44     		add	r2, r2, r3
 737 03fc 0346     		mov	r3, r0
 738 03fe 9B00     		lsls	r3, r3, #2
 739 0400 0344     		add	r3, r3, r0
 740 0402 5B00     		lsls	r3, r3, #1
ARM GAS  C:\Users\Diego\AppData\Local\Temp\ccj1d66j.s 			page 16


 741 0404 1344     		add	r3, r3, r2
 742 0406 2344     		add	r3, r3, r4
 743 0408 0533     		adds	r3, r3, #5
 744 040a 1B78     		ldrb	r3, [r3]	@ zero_extendqisi2
 745 040c 1B09     		lsrs	r3, r3, #4
 746 040e DBB2     		uxtb	r3, r3
 747 0410 3033     		adds	r3, r3, #48
 748 0412 DCB2     		uxtb	r4, r3
 749 0414 A048     		ldr	r0, .L84
 750 0416 2A46     		mov	r2, r5
 751 0418 9200     		lsls	r2, r2, #2
 752 041a 2A44     		add	r2, r2, r5
 753 041c 5300     		lsls	r3, r2, #1
 754 041e 1A46     		mov	r2, r3
 755 0420 0B46     		mov	r3, r1
 756 0422 1B01     		lsls	r3, r3, #4
 757 0424 5B1A     		subs	r3, r3, r1
 758 0426 5B00     		lsls	r3, r3, #1
 759 0428 1344     		add	r3, r3, r2
 760 042a 0344     		add	r3, r3, r0
 761 042c 8B33     		adds	r3, r3, #139
 762 042e 2246     		mov	r2, r4
 763 0430 1A70     		strb	r2, [r3]
 107:PumpCom.c     ****             side.a.ProcessedTotals[((side.a.MepsanStore[4])&0x0F)-1][TotalRequestType][9] = (side.a
 764              		.loc 1 107 0
 765 0432 994B     		ldr	r3, .L84
 766 0434 93F85530 		ldrb	r3, [r3, #85]	@ zero_extendqisi2
 767 0438 03F00F03 		and	r3, r3, #15
 768 043c 591E     		subs	r1, r3, #1
 769 043e 974B     		ldr	r3, .L84+4
 770 0440 1B78     		ldrb	r3, [r3]	@ zero_extendqisi2
 771 0442 1D46     		mov	r5, r3
 772 0444 944B     		ldr	r3, .L84
 773 0446 93F85530 		ldrb	r3, [r3, #85]	@ zero_extendqisi2
 774 044a 03F00F03 		and	r3, r3, #15
 775 044e 581E     		subs	r0, r3, #1
 776 0450 924B     		ldr	r3, .L84+4
 777 0452 1B78     		ldrb	r3, [r3]	@ zero_extendqisi2
 778 0454 904C     		ldr	r4, .L84
 779 0456 1A46     		mov	r2, r3
 780 0458 9200     		lsls	r2, r2, #2
 781 045a 1A44     		add	r2, r2, r3
 782 045c 0346     		mov	r3, r0
 783 045e 9B00     		lsls	r3, r3, #2
 784 0460 0344     		add	r3, r3, r0
 785 0462 5B00     		lsls	r3, r3, #1
 786 0464 1344     		add	r3, r3, r2
 787 0466 2344     		add	r3, r3, r4
 788 0468 0533     		adds	r3, r3, #5
 789 046a 1B78     		ldrb	r3, [r3]	@ zero_extendqisi2
 790 046c 03F00F03 		and	r3, r3, #15
 791 0470 DBB2     		uxtb	r3, r3
 792 0472 3033     		adds	r3, r3, #48
 793 0474 DCB2     		uxtb	r4, r3
 794 0476 8848     		ldr	r0, .L84
 795 0478 2A46     		mov	r2, r5
 796 047a 9200     		lsls	r2, r2, #2
ARM GAS  C:\Users\Diego\AppData\Local\Temp\ccj1d66j.s 			page 17


 797 047c 2A44     		add	r2, r2, r5
 798 047e 5300     		lsls	r3, r2, #1
 799 0480 1A46     		mov	r2, r3
 800 0482 0B46     		mov	r3, r1
 801 0484 1B01     		lsls	r3, r3, #4
 802 0486 5B1A     		subs	r3, r3, r1
 803 0488 5B00     		lsls	r3, r3, #1
 804 048a 1344     		add	r3, r3, r2
 805 048c 0344     		add	r3, r3, r0
 806 048e 8C33     		adds	r3, r3, #140
 807 0490 2246     		mov	r2, r4
 808 0492 1A70     		strb	r2, [r3]
 809              	.LBB4:
 108:PumpCom.c     ****             for(int8 i = 0; i < 8; i++){
 810              		.loc 1 108 0
 811 0494 0023     		movs	r3, #0
 812 0496 7B75     		strb	r3, [r7, #21]
 813 0498 3AE0     		b	.L20
 814              	.L23:
 109:PumpCom.c     ****                 if(side.a.ProcessedTotals[((side.a.MepsanStore[4])&0x0F)-1][TotalRequestType][i] !=
 815              		.loc 1 109 0
 816 049a 7F4B     		ldr	r3, .L84
 817 049c 93F85530 		ldrb	r3, [r3, #85]	@ zero_extendqisi2
 818 04a0 03F00F03 		and	r3, r3, #15
 819 04a4 591E     		subs	r1, r3, #1
 820 04a6 7D4B     		ldr	r3, .L84+4
 821 04a8 1B78     		ldrb	r3, [r3]	@ zero_extendqisi2
 822 04aa 97F91500 		ldrsb	r0, [r7, #21]
 823 04ae 7A4C     		ldr	r4, .L84
 824 04b0 1A46     		mov	r2, r3
 825 04b2 9200     		lsls	r2, r2, #2
 826 04b4 1A44     		add	r2, r2, r3
 827 04b6 5300     		lsls	r3, r2, #1
 828 04b8 1A46     		mov	r2, r3
 829 04ba 0B46     		mov	r3, r1
 830 04bc 1B01     		lsls	r3, r3, #4
 831 04be 5B1A     		subs	r3, r3, r1
 832 04c0 5B00     		lsls	r3, r3, #1
 833 04c2 1344     		add	r3, r3, r2
 834 04c4 2344     		add	r3, r3, r4
 835 04c6 0344     		add	r3, r3, r0
 836 04c8 8333     		adds	r3, r3, #131
 837 04ca 1B78     		ldrb	r3, [r3]	@ zero_extendqisi2
 838 04cc 302B     		cmp	r3, #48
 839 04ce 24D1     		bne	.L72
 110:PumpCom.c     ****                     break;
 111:PumpCom.c     ****                 side.a.ProcessedTotals[((side.a.MepsanStore[4])&0x0F)-1][TotalRequestType][i] = 0x0
 840              		.loc 1 111 0 discriminator 2
 841 04d0 714B     		ldr	r3, .L84
 842 04d2 93F85530 		ldrb	r3, [r3, #85]	@ zero_extendqisi2
 843 04d6 03F00F03 		and	r3, r3, #15
 844 04da 591E     		subs	r1, r3, #1
 845 04dc 6F4B     		ldr	r3, .L84+4
 846 04de 1B78     		ldrb	r3, [r3]	@ zero_extendqisi2
 847 04e0 97F91500 		ldrsb	r0, [r7, #21]
 848 04e4 6C4C     		ldr	r4, .L84
 849 04e6 1A46     		mov	r2, r3
ARM GAS  C:\Users\Diego\AppData\Local\Temp\ccj1d66j.s 			page 18


 850 04e8 9200     		lsls	r2, r2, #2
 851 04ea 1A44     		add	r2, r2, r3
 852 04ec 5300     		lsls	r3, r2, #1
 853 04ee 1A46     		mov	r2, r3
 854 04f0 0B46     		mov	r3, r1
 855 04f2 1B01     		lsls	r3, r3, #4
 856 04f4 5B1A     		subs	r3, r3, r1
 857 04f6 5B00     		lsls	r3, r3, #1
 858 04f8 1344     		add	r3, r3, r2
 859 04fa 2344     		add	r3, r3, r4
 860 04fc 0344     		add	r3, r3, r0
 861 04fe 8333     		adds	r3, r3, #131
 862 0500 0022     		movs	r2, #0
 863 0502 1A70     		strb	r2, [r3]
 108:PumpCom.c     ****                 if(side.a.ProcessedTotals[((side.a.MepsanStore[4])&0x0F)-1][TotalRequestType][i] !=
 864              		.loc 1 108 0 discriminator 2
 865 0504 97F91530 		ldrsb	r3, [r7, #21]
 866 0508 DBB2     		uxtb	r3, r3
 867 050a 0133     		adds	r3, r3, #1
 868 050c DBB2     		uxtb	r3, r3
 869 050e 7B75     		strb	r3, [r7, #21]
 870              	.L20:
 108:PumpCom.c     ****                 if(side.a.ProcessedTotals[((side.a.MepsanStore[4])&0x0F)-1][TotalRequestType][i] !=
 871              		.loc 1 108 0 is_stmt 0 discriminator 1
 872 0510 97F91530 		ldrsb	r3, [r7, #21]
 873 0514 072B     		cmp	r3, #7
 874 0516 C0DD     		ble	.L23
 875 0518 00E0     		b	.L22
 876              	.L72:
 110:PumpCom.c     ****                     break;
 877              		.loc 1 110 0 is_stmt 1
 878 051a 00BF     		nop
 879              	.L22:
 880              	.LBE4:
 112:PumpCom.c     ****             }
 113:PumpCom.c     ****             EnablePin_Write (1u);
 881              		.loc 1 113 0
 882 051c 0120     		movs	r0, #1
 883 051e FFF7FEFF 		bl	EnablePin_Write
 114:PumpCom.c     ****             MEPSAN_PutChar((0x50|address));
 884              		.loc 1 114 0
 885 0522 3B79     		ldrb	r3, [r7, #4]
 886 0524 43F05003 		orr	r3, r3, #80
 887 0528 DBB2     		uxtb	r3, r3
 888 052a 1846     		mov	r0, r3
 889 052c FFF7FEFF 		bl	MEPSAN_PutChar
 115:PumpCom.c     ****             MEPSAN_PutChar(0xC0|(side.a.MepsanStore[1]&0x0F));
 890              		.loc 1 115 0
 891 0530 594B     		ldr	r3, .L84
 892 0532 93F85230 		ldrb	r3, [r3, #82]	@ zero_extendqisi2
 893 0536 5BB2     		sxtb	r3, r3
 894 0538 03F00F03 		and	r3, r3, #15
 895 053c 5BB2     		sxtb	r3, r3
 896 053e 63F03F03 		orn	r3, r3, #63
 897 0542 5BB2     		sxtb	r3, r3
 898 0544 DBB2     		uxtb	r3, r3
 899 0546 1846     		mov	r0, r3
ARM GAS  C:\Users\Diego\AppData\Local\Temp\ccj1d66j.s 			page 19


 900 0548 FFF7FEFF 		bl	MEPSAN_PutChar
 116:PumpCom.c     ****             MEPSAN_PutChar(0xFA); 
 901              		.loc 1 116 0
 902 054c FA20     		movs	r0, #250
 903 054e FFF7FEFF 		bl	MEPSAN_PutChar
 117:PumpCom.c     ****             CyDelay(4);
 904              		.loc 1 117 0
 905 0552 0420     		movs	r0, #4
 906 0554 FFF7FEFF 		bl	CyDelay
 118:PumpCom.c     ****             EnablePin_Write (0u);
 907              		.loc 1 118 0
 908 0558 0020     		movs	r0, #0
 909 055a FFF7FEFF 		bl	EnablePin_Write
 910              	.L17:
 119:PumpCom.c     ****         }
 120:PumpCom.c     ****         if(side.a.MepsanStore[2] == 0x02){
 911              		.loc 1 120 0
 912 055e 4E4B     		ldr	r3, .L84
 913 0560 93F85330 		ldrb	r3, [r3, #83]	@ zero_extendqisi2
 914 0564 022B     		cmp	r3, #2
 915 0566 40F01381 		bne	.L24
 916              	.LBB5:
 121:PumpCom.c     ****             for(uint8 x = 4; x < 8; x++ ){
 917              		.loc 1 121 0
 918 056a 0423     		movs	r3, #4
 919 056c 3B75     		strb	r3, [r7, #20]
 920 056e 1BE0     		b	.L25
 921              	.L26:
 122:PumpCom.c     ****                 side.a.volumeSale[x-4] = side.a.MepsanStore[x];
 922              		.loc 1 122 0 discriminator 3
 923 0570 3B7D     		ldrb	r3, [r7, #20]	@ zero_extendqisi2
 924 0572 043B     		subs	r3, r3, #4
 925 0574 3A7D     		ldrb	r2, [r7, #20]	@ zero_extendqisi2
 926 0576 4849     		ldr	r1, .L84
 927 0578 0A44     		add	r2, r2, r1
 928 057a 92F85110 		ldrb	r1, [r2, #81]	@ zero_extendqisi2
 929 057e 464A     		ldr	r2, .L84
 930 0580 1344     		add	r3, r3, r2
 931 0582 0A46     		mov	r2, r1
 932 0584 83F83920 		strb	r2, [r3, #57]
 123:PumpCom.c     ****                 side.a.moneySale[x-4] = side.a.MepsanStore[x+4];
 933              		.loc 1 123 0 discriminator 3
 934 0588 3B7D     		ldrb	r3, [r7, #20]	@ zero_extendqisi2
 935 058a 043B     		subs	r3, r3, #4
 936 058c 3A7D     		ldrb	r2, [r7, #20]	@ zero_extendqisi2
 937 058e 0432     		adds	r2, r2, #4
 938 0590 4149     		ldr	r1, .L84
 939 0592 0A44     		add	r2, r2, r1
 940 0594 92F85110 		ldrb	r1, [r2, #81]	@ zero_extendqisi2
 941 0598 3F4A     		ldr	r2, .L84
 942 059a 1344     		add	r3, r3, r2
 943 059c 0A46     		mov	r2, r1
 944 059e 83F83520 		strb	r2, [r3, #53]
 121:PumpCom.c     ****             for(uint8 x = 4; x < 8; x++ ){
 945              		.loc 1 121 0 discriminator 3
 946 05a2 3B7D     		ldrb	r3, [r7, #20]	@ zero_extendqisi2
 947 05a4 0133     		adds	r3, r3, #1
ARM GAS  C:\Users\Diego\AppData\Local\Temp\ccj1d66j.s 			page 20


 948 05a6 3B75     		strb	r3, [r7, #20]
 949              	.L25:
 121:PumpCom.c     ****             for(uint8 x = 4; x < 8; x++ ){
 950              		.loc 1 121 0 is_stmt 0 discriminator 1
 951 05a8 3B7D     		ldrb	r3, [r7, #20]	@ zero_extendqisi2
 952 05aa 072B     		cmp	r3, #7
 953 05ac E0D9     		bls	.L26
 954              	.LBE5:
 124:PumpCom.c     ****             }
 125:PumpCom.c     ****             side.a.ProcessedvolumeSale[0] = (side.a.volumeSale[0]  >> 4) + 0x30;
 955              		.loc 1 125 0 is_stmt 1
 956 05ae 3A4B     		ldr	r3, .L84
 957 05b0 93F83930 		ldrb	r3, [r3, #57]	@ zero_extendqisi2
 958 05b4 1B09     		lsrs	r3, r3, #4
 959 05b6 DBB2     		uxtb	r3, r3
 960 05b8 3033     		adds	r3, r3, #48
 961 05ba DAB2     		uxtb	r2, r3
 962 05bc 364B     		ldr	r3, .L84
 963 05be 83F80321 		strb	r2, [r3, #259]
 126:PumpCom.c     ****             side.a.ProcessedvolumeSale[1] = (side.a.volumeSale[0]  & 0x0F) + 0x30;
 964              		.loc 1 126 0
 965 05c2 354B     		ldr	r3, .L84
 966 05c4 93F83930 		ldrb	r3, [r3, #57]	@ zero_extendqisi2
 967 05c8 03F00F03 		and	r3, r3, #15
 968 05cc DBB2     		uxtb	r3, r3
 969 05ce 3033     		adds	r3, r3, #48
 970 05d0 DAB2     		uxtb	r2, r3
 971 05d2 314B     		ldr	r3, .L84
 972 05d4 83F80421 		strb	r2, [r3, #260]
 127:PumpCom.c     ****             side.a.ProcessedvolumeSale[2] = (side.a.volumeSale[1]  >> 4) + 0x30;
 973              		.loc 1 127 0
 974 05d8 2F4B     		ldr	r3, .L84
 975 05da 93F83A30 		ldrb	r3, [r3, #58]	@ zero_extendqisi2
 976 05de 1B09     		lsrs	r3, r3, #4
 977 05e0 DBB2     		uxtb	r3, r3
 978 05e2 3033     		adds	r3, r3, #48
 979 05e4 DAB2     		uxtb	r2, r3
 980 05e6 2C4B     		ldr	r3, .L84
 981 05e8 83F80521 		strb	r2, [r3, #261]
 128:PumpCom.c     ****             side.a.ProcessedvolumeSale[3] = (side.a.volumeSale[1]  & 0x0F) + 0x30;
 982              		.loc 1 128 0
 983 05ec 2A4B     		ldr	r3, .L84
 984 05ee 93F83A30 		ldrb	r3, [r3, #58]	@ zero_extendqisi2
 985 05f2 03F00F03 		and	r3, r3, #15
 986 05f6 DBB2     		uxtb	r3, r3
 987 05f8 3033     		adds	r3, r3, #48
 988 05fa DAB2     		uxtb	r2, r3
 989 05fc 264B     		ldr	r3, .L84
 990 05fe 83F80621 		strb	r2, [r3, #262]
 129:PumpCom.c     ****             side.a.ProcessedvolumeSale[4] = (side.a.volumeSale[2]  >> 4) + 0x30;
 991              		.loc 1 129 0
 992 0602 254B     		ldr	r3, .L84
 993 0604 93F83B30 		ldrb	r3, [r3, #59]	@ zero_extendqisi2
 994 0608 1B09     		lsrs	r3, r3, #4
 995 060a DBB2     		uxtb	r3, r3
 996 060c 3033     		adds	r3, r3, #48
 997 060e DAB2     		uxtb	r2, r3
ARM GAS  C:\Users\Diego\AppData\Local\Temp\ccj1d66j.s 			page 21


 998 0610 214B     		ldr	r3, .L84
 999 0612 83F80721 		strb	r2, [r3, #263]
 130:PumpCom.c     ****             side.a.ProcessedvolumeSale[5] = (side.a.volumeSale[2]  & 0x0F) + 0x30;
 1000              		.loc 1 130 0
 1001 0616 204B     		ldr	r3, .L84
 1002 0618 93F83B30 		ldrb	r3, [r3, #59]	@ zero_extendqisi2
 1003 061c 03F00F03 		and	r3, r3, #15
 1004 0620 DBB2     		uxtb	r3, r3
 1005 0622 3033     		adds	r3, r3, #48
 1006 0624 DAB2     		uxtb	r2, r3
 1007 0626 1C4B     		ldr	r3, .L84
 1008 0628 83F80821 		strb	r2, [r3, #264]
 131:PumpCom.c     ****             side.a.ProcessedvolumeSale[6] = (side.a.volumeSale[3]  >> 4) + 0x30;
 1009              		.loc 1 131 0
 1010 062c 1A4B     		ldr	r3, .L84
 1011 062e 93F83C30 		ldrb	r3, [r3, #60]	@ zero_extendqisi2
 1012 0632 1B09     		lsrs	r3, r3, #4
 1013 0634 DBB2     		uxtb	r3, r3
 1014 0636 3033     		adds	r3, r3, #48
 1015 0638 DAB2     		uxtb	r2, r3
 1016 063a 174B     		ldr	r3, .L84
 1017 063c 83F80921 		strb	r2, [r3, #265]
 132:PumpCom.c     ****             side.a.ProcessedvolumeSale[7] = (side.a.volumeSale[3]  & 0x0F) + 0x30;
 1018              		.loc 1 132 0
 1019 0640 154B     		ldr	r3, .L84
 1020 0642 93F83C30 		ldrb	r3, [r3, #60]	@ zero_extendqisi2
 1021 0646 03F00F03 		and	r3, r3, #15
 1022 064a DBB2     		uxtb	r3, r3
 1023 064c 3033     		adds	r3, r3, #48
 1024 064e DAB2     		uxtb	r2, r3
 1025 0650 114B     		ldr	r3, .L84
 1026 0652 83F80A21 		strb	r2, [r3, #266]
 1027              	.LBB6:
 133:PumpCom.c     ****             for(int8 i = 0; i < DecVol+1; i++){
 1028              		.loc 1 133 0
 1029 0656 0023     		movs	r3, #0
 1030 0658 FB74     		strb	r3, [r7, #19]
 1031 065a 14E0     		b	.L27
 1032              	.L30:
 134:PumpCom.c     ****                 if(side.a.ProcessedvolumeSale[i] != 0x30 )
 1033              		.loc 1 134 0
 1034 065c 97F91330 		ldrsb	r3, [r7, #19]
 1035 0660 0D4A     		ldr	r2, .L84
 1036 0662 1344     		add	r3, r3, r2
 1037 0664 93F80331 		ldrb	r3, [r3, #259]	@ zero_extendqisi2
 1038 0668 302B     		cmp	r3, #48
 1039 066a 1BD1     		bne	.L73
 135:PumpCom.c     ****                     break;
 136:PumpCom.c     ****                 side.a.ProcessedvolumeSale[i] = 0x00;                
 1040              		.loc 1 136 0 discriminator 2
 1041 066c 97F91330 		ldrsb	r3, [r7, #19]
 1042 0670 094A     		ldr	r2, .L84
 1043 0672 1344     		add	r3, r3, r2
 1044 0674 0022     		movs	r2, #0
 1045 0676 83F80321 		strb	r2, [r3, #259]
 133:PumpCom.c     ****                 if(side.a.ProcessedvolumeSale[i] != 0x30 )
 1046              		.loc 1 133 0 discriminator 2
ARM GAS  C:\Users\Diego\AppData\Local\Temp\ccj1d66j.s 			page 22


 1047 067a 97F91330 		ldrsb	r3, [r7, #19]
 1048 067e DBB2     		uxtb	r3, r3
 1049 0680 0133     		adds	r3, r3, #1
 1050 0682 DBB2     		uxtb	r3, r3
 1051 0684 FB74     		strb	r3, [r7, #19]
 1052              	.L27:
 133:PumpCom.c     ****                 if(side.a.ProcessedvolumeSale[i] != 0x30 )
 1053              		.loc 1 133 0 is_stmt 0 discriminator 1
 1054 0686 97F91320 		ldrsb	r2, [r7, #19]
 1055 068a 054B     		ldr	r3, .L84+8
 1056 068c 1B78     		ldrb	r3, [r3]	@ zero_extendqisi2
 1057 068e 0133     		adds	r3, r3, #1
 1058 0690 9A42     		cmp	r2, r3
 1059 0692 E3DB     		blt	.L30
 1060 0694 07E0     		b	.L29
 1061              	.L85:
 1062 0696 00BF     		.align	2
 1063              	.L84:
 1064 0698 00000000 		.word	side
 1065 069c 00000000 		.word	TotalRequestType
 1066 06a0 00000000 		.word	DecVol
 1067              	.L73:
 135:PumpCom.c     ****                     break;
 1068              		.loc 1 135 0 is_stmt 1
 1069 06a4 00BF     		nop
 1070              	.L29:
 1071              	.LBE6:
 137:PumpCom.c     ****             }
 138:PumpCom.c     ****             side.a.ProcessedmoneySale[0] = (side.a.moneySale[0]  >> 4) + 0x30;
 1072              		.loc 1 138 0
 1073 06a6 9C4B     		ldr	r3, .L86
 1074 06a8 93F83530 		ldrb	r3, [r3, #53]	@ zero_extendqisi2
 1075 06ac 1B09     		lsrs	r3, r3, #4
 1076 06ae DBB2     		uxtb	r3, r3
 1077 06b0 3033     		adds	r3, r3, #48
 1078 06b2 DAB2     		uxtb	r2, r3
 1079 06b4 984B     		ldr	r3, .L86
 1080 06b6 83F8FB20 		strb	r2, [r3, #251]
 139:PumpCom.c     ****             side.a.ProcessedmoneySale[1] = (side.a.moneySale[0]  & 0x0F) + 0x30;
 1081              		.loc 1 139 0
 1082 06ba 974B     		ldr	r3, .L86
 1083 06bc 93F83530 		ldrb	r3, [r3, #53]	@ zero_extendqisi2
 1084 06c0 03F00F03 		and	r3, r3, #15
 1085 06c4 DBB2     		uxtb	r3, r3
 1086 06c6 3033     		adds	r3, r3, #48
 1087 06c8 DAB2     		uxtb	r2, r3
 1088 06ca 934B     		ldr	r3, .L86
 1089 06cc 83F8FC20 		strb	r2, [r3, #252]
 140:PumpCom.c     ****             side.a.ProcessedmoneySale[2] = (side.a.moneySale[1]  >> 4) + 0x30;
 1090              		.loc 1 140 0
 1091 06d0 914B     		ldr	r3, .L86
 1092 06d2 93F83630 		ldrb	r3, [r3, #54]	@ zero_extendqisi2
 1093 06d6 1B09     		lsrs	r3, r3, #4
 1094 06d8 DBB2     		uxtb	r3, r3
 1095 06da 3033     		adds	r3, r3, #48
 1096 06dc DAB2     		uxtb	r2, r3
 1097 06de 8E4B     		ldr	r3, .L86
ARM GAS  C:\Users\Diego\AppData\Local\Temp\ccj1d66j.s 			page 23


 1098 06e0 83F8FD20 		strb	r2, [r3, #253]
 141:PumpCom.c     ****             side.a.ProcessedmoneySale[3] = (side.a.moneySale[1]  & 0x0F) + 0x30;
 1099              		.loc 1 141 0
 1100 06e4 8C4B     		ldr	r3, .L86
 1101 06e6 93F83630 		ldrb	r3, [r3, #54]	@ zero_extendqisi2
 1102 06ea 03F00F03 		and	r3, r3, #15
 1103 06ee DBB2     		uxtb	r3, r3
 1104 06f0 3033     		adds	r3, r3, #48
 1105 06f2 DAB2     		uxtb	r2, r3
 1106 06f4 884B     		ldr	r3, .L86
 1107 06f6 83F8FE20 		strb	r2, [r3, #254]
 142:PumpCom.c     ****             side.a.ProcessedmoneySale[4] = (side.a.moneySale[2]  >> 4) + 0x30;
 1108              		.loc 1 142 0
 1109 06fa 874B     		ldr	r3, .L86
 1110 06fc 93F83730 		ldrb	r3, [r3, #55]	@ zero_extendqisi2
 1111 0700 1B09     		lsrs	r3, r3, #4
 1112 0702 DBB2     		uxtb	r3, r3
 1113 0704 3033     		adds	r3, r3, #48
 1114 0706 DAB2     		uxtb	r2, r3
 1115 0708 834B     		ldr	r3, .L86
 1116 070a 83F8FF20 		strb	r2, [r3, #255]
 143:PumpCom.c     ****             side.a.ProcessedmoneySale[5] = (side.a.moneySale[2]  & 0x0F) + 0x30;
 1117              		.loc 1 143 0
 1118 070e 824B     		ldr	r3, .L86
 1119 0710 93F83730 		ldrb	r3, [r3, #55]	@ zero_extendqisi2
 1120 0714 03F00F03 		and	r3, r3, #15
 1121 0718 DBB2     		uxtb	r3, r3
 1122 071a 3033     		adds	r3, r3, #48
 1123 071c DAB2     		uxtb	r2, r3
 1124 071e 7E4B     		ldr	r3, .L86
 1125 0720 83F80021 		strb	r2, [r3, #256]
 144:PumpCom.c     ****             side.a.ProcessedmoneySale[6] = (side.a.moneySale[3]  >> 4) + 0x30;
 1126              		.loc 1 144 0
 1127 0724 7C4B     		ldr	r3, .L86
 1128 0726 93F83830 		ldrb	r3, [r3, #56]	@ zero_extendqisi2
 1129 072a 1B09     		lsrs	r3, r3, #4
 1130 072c DBB2     		uxtb	r3, r3
 1131 072e 3033     		adds	r3, r3, #48
 1132 0730 DAB2     		uxtb	r2, r3
 1133 0732 794B     		ldr	r3, .L86
 1134 0734 83F80121 		strb	r2, [r3, #257]
 145:PumpCom.c     ****             side.a.ProcessedmoneySale[7] = (side.a.moneySale[3]  & 0x0F) + 0x30;
 1135              		.loc 1 145 0
 1136 0738 774B     		ldr	r3, .L86
 1137 073a 93F83830 		ldrb	r3, [r3, #56]	@ zero_extendqisi2
 1138 073e 03F00F03 		and	r3, r3, #15
 1139 0742 DBB2     		uxtb	r3, r3
 1140 0744 3033     		adds	r3, r3, #48
 1141 0746 DAB2     		uxtb	r2, r3
 1142 0748 734B     		ldr	r3, .L86
 1143 074a 83F80221 		strb	r2, [r3, #258]
 1144              	.LBB7:
 146:PumpCom.c     ****             
 147:PumpCom.c     ****             for(int8 i = 0; i < 8; i++){
 1145              		.loc 1 147 0
 1146 074e 0023     		movs	r3, #0
 1147 0750 BB74     		strb	r3, [r7, #18]
ARM GAS  C:\Users\Diego\AppData\Local\Temp\ccj1d66j.s 			page 24


 1148 0752 14E0     		b	.L31
 1149              	.L34:
 148:PumpCom.c     ****                 if(side.a.ProcessedmoneySale[i] != 0x30)
 1150              		.loc 1 148 0
 1151 0754 97F91230 		ldrsb	r3, [r7, #18]
 1152 0758 6F4A     		ldr	r2, .L86
 1153 075a 1344     		add	r3, r3, r2
 1154 075c 93F8FB30 		ldrb	r3, [r3, #251]	@ zero_extendqisi2
 1155 0760 302B     		cmp	r3, #48
 1156 0762 11D1     		bne	.L74
 149:PumpCom.c     ****                     break;
 150:PumpCom.c     ****                 side.a.ProcessedmoneySale[i] = 0x00;                
 1157              		.loc 1 150 0 discriminator 2
 1158 0764 97F91230 		ldrsb	r3, [r7, #18]
 1159 0768 6B4A     		ldr	r2, .L86
 1160 076a 1344     		add	r3, r3, r2
 1161 076c 0022     		movs	r2, #0
 1162 076e 83F8FB20 		strb	r2, [r3, #251]
 147:PumpCom.c     ****                 if(side.a.ProcessedmoneySale[i] != 0x30)
 1163              		.loc 1 147 0 discriminator 2
 1164 0772 97F91230 		ldrsb	r3, [r7, #18]
 1165 0776 DBB2     		uxtb	r3, r3
 1166 0778 0133     		adds	r3, r3, #1
 1167 077a DBB2     		uxtb	r3, r3
 1168 077c BB74     		strb	r3, [r7, #18]
 1169              	.L31:
 147:PumpCom.c     ****                 if(side.a.ProcessedmoneySale[i] != 0x30)
 1170              		.loc 1 147 0 is_stmt 0 discriminator 1
 1171 077e 97F91230 		ldrsb	r3, [r7, #18]
 1172 0782 072B     		cmp	r3, #7
 1173 0784 E6DD     		ble	.L34
 1174 0786 00E0     		b	.L33
 1175              	.L74:
 149:PumpCom.c     ****                     break;
 1176              		.loc 1 149 0 is_stmt 1
 1177 0788 00BF     		nop
 1178              	.L33:
 1179              	.LBE7:
 151:PumpCom.c     ****             }
 152:PumpCom.c     ****             EnablePin_Write (0u);
 1180              		.loc 1 152 0
 1181 078a 0020     		movs	r0, #0
 1182 078c FFF7FEFF 		bl	EnablePin_Write
 1183              	.L24:
 153:PumpCom.c     ****         }
 154:PumpCom.c     ****         if(side.a.MepsanStore[2] == 0x03 && side.a.MepsanStore[3] == 0x04 ){
 1184              		.loc 1 154 0
 1185 0790 614B     		ldr	r3, .L86
 1186 0792 93F85330 		ldrb	r3, [r3, #83]	@ zero_extendqisi2
 1187 0796 032B     		cmp	r3, #3
 1188 0798 40F09480 		bne	.L14
 1189              		.loc 1 154 0 is_stmt 0 discriminator 1
 1190 079c 5E4B     		ldr	r3, .L86
 1191 079e 93F85430 		ldrb	r3, [r3, #84]	@ zero_extendqisi2
 1192 07a2 042B     		cmp	r3, #4
 1193 07a4 40F08E80 		bne	.L14
 155:PumpCom.c     ****             side.a.MepRequest = MEPSAN_AUTHORIZE;
ARM GAS  C:\Users\Diego\AppData\Local\Temp\ccj1d66j.s 			page 25


 1194              		.loc 1 155 0 is_stmt 1
 1195 07a8 5B4B     		ldr	r3, .L86
 1196 07aa 0622     		movs	r2, #6
 1197 07ac 83F82B21 		strb	r2, [r3, #299]
 156:PumpCom.c     ****             side.a.Nozzle = side.a.MepsanStore[7] & 0x0F;
 1198              		.loc 1 156 0
 1199 07b0 594B     		ldr	r3, .L86
 1200 07b2 93F85830 		ldrb	r3, [r3, #88]	@ zero_extendqisi2
 1201 07b6 03F00F03 		and	r3, r3, #15
 1202 07ba DAB2     		uxtb	r2, r3
 1203 07bc 564B     		ldr	r3, .L86
 1204 07be 83F82C21 		strb	r2, [r3, #300]
 157:PumpCom.c     ****             side.a.ProcessedPPU[side.a.Nozzle-1][5] = (side.a.MepsanStore[6] & 0x0F) + 0x30;       
 1205              		.loc 1 157 0
 1206 07c2 554B     		ldr	r3, .L86
 1207 07c4 93F82C31 		ldrb	r3, [r3, #300]	@ zero_extendqisi2
 1208 07c8 5A1E     		subs	r2, r3, #1
 1209 07ca 534B     		ldr	r3, .L86
 1210 07cc 93F85730 		ldrb	r3, [r3, #87]	@ zero_extendqisi2
 1211 07d0 03F00F03 		and	r3, r3, #15
 1212 07d4 DBB2     		uxtb	r3, r3
 1213 07d6 3033     		adds	r3, r3, #48
 1214 07d8 D8B2     		uxtb	r0, r3
 1215 07da 4F49     		ldr	r1, .L86
 1216 07dc 1346     		mov	r3, r2
 1217 07de 5B00     		lsls	r3, r3, #1
 1218 07e0 1344     		add	r3, r3, r2
 1219 07e2 5B00     		lsls	r3, r3, #1
 1220 07e4 0B44     		add	r3, r3, r1
 1221 07e6 03F58873 		add	r3, r3, #272
 1222 07ea 0246     		mov	r2, r0
 1223 07ec 1A70     		strb	r2, [r3]
 158:PumpCom.c     ****             side.a.ProcessedPPU[side.a.Nozzle-1][4] = (side.a.MepsanStore[6] >> 4) + 0x30;
 1224              		.loc 1 158 0
 1225 07ee 4A4B     		ldr	r3, .L86
 1226 07f0 93F82C31 		ldrb	r3, [r3, #300]	@ zero_extendqisi2
 1227 07f4 5A1E     		subs	r2, r3, #1
 1228 07f6 484B     		ldr	r3, .L86
 1229 07f8 93F85730 		ldrb	r3, [r3, #87]	@ zero_extendqisi2
 1230 07fc 1B09     		lsrs	r3, r3, #4
 1231 07fe DBB2     		uxtb	r3, r3
 1232 0800 3033     		adds	r3, r3, #48
 1233 0802 D8B2     		uxtb	r0, r3
 1234 0804 4449     		ldr	r1, .L86
 1235 0806 1346     		mov	r3, r2
 1236 0808 5B00     		lsls	r3, r3, #1
 1237 080a 1344     		add	r3, r3, r2
 1238 080c 5B00     		lsls	r3, r3, #1
 1239 080e 0B44     		add	r3, r3, r1
 1240 0810 03F20F13 		addw	r3, r3, #271
 1241 0814 0246     		mov	r2, r0
 1242 0816 1A70     		strb	r2, [r3]
 159:PumpCom.c     ****             side.a.ProcessedPPU[side.a.Nozzle-1][3] = (side.a.MepsanStore[5] & 0x0F) + 0x30;
 1243              		.loc 1 159 0
 1244 0818 3F4B     		ldr	r3, .L86
 1245 081a 93F82C31 		ldrb	r3, [r3, #300]	@ zero_extendqisi2
 1246 081e 5A1E     		subs	r2, r3, #1
ARM GAS  C:\Users\Diego\AppData\Local\Temp\ccj1d66j.s 			page 26


 1247 0820 3D4B     		ldr	r3, .L86
 1248 0822 93F85630 		ldrb	r3, [r3, #86]	@ zero_extendqisi2
 1249 0826 03F00F03 		and	r3, r3, #15
 1250 082a DBB2     		uxtb	r3, r3
 1251 082c 3033     		adds	r3, r3, #48
 1252 082e D8B2     		uxtb	r0, r3
 1253 0830 3949     		ldr	r1, .L86
 1254 0832 1346     		mov	r3, r2
 1255 0834 5B00     		lsls	r3, r3, #1
 1256 0836 1344     		add	r3, r3, r2
 1257 0838 5B00     		lsls	r3, r3, #1
 1258 083a 0B44     		add	r3, r3, r1
 1259 083c 03F58773 		add	r3, r3, #270
 1260 0840 0246     		mov	r2, r0
 1261 0842 1A70     		strb	r2, [r3]
 160:PumpCom.c     ****             side.a.ProcessedPPU[side.a.Nozzle-1][2] = (side.a.MepsanStore[5] >> 4) + 0x30;
 1262              		.loc 1 160 0
 1263 0844 344B     		ldr	r3, .L86
 1264 0846 93F82C31 		ldrb	r3, [r3, #300]	@ zero_extendqisi2
 1265 084a 5A1E     		subs	r2, r3, #1
 1266 084c 324B     		ldr	r3, .L86
 1267 084e 93F85630 		ldrb	r3, [r3, #86]	@ zero_extendqisi2
 1268 0852 1B09     		lsrs	r3, r3, #4
 1269 0854 DBB2     		uxtb	r3, r3
 1270 0856 3033     		adds	r3, r3, #48
 1271 0858 D8B2     		uxtb	r0, r3
 1272 085a 2F49     		ldr	r1, .L86
 1273 085c 1346     		mov	r3, r2
 1274 085e 5B00     		lsls	r3, r3, #1
 1275 0860 1344     		add	r3, r3, r2
 1276 0862 5B00     		lsls	r3, r3, #1
 1277 0864 0B44     		add	r3, r3, r1
 1278 0866 03F20D13 		addw	r3, r3, #269
 1279 086a 0246     		mov	r2, r0
 1280 086c 1A70     		strb	r2, [r3]
 161:PumpCom.c     ****             side.a.ProcessedPPU[side.a.Nozzle-1][1] = (side.a.MepsanStore[4] & 0x0F) + 0x30;
 1281              		.loc 1 161 0
 1282 086e 2A4B     		ldr	r3, .L86
 1283 0870 93F82C31 		ldrb	r3, [r3, #300]	@ zero_extendqisi2
 1284 0874 5A1E     		subs	r2, r3, #1
 1285 0876 284B     		ldr	r3, .L86
 1286 0878 93F85530 		ldrb	r3, [r3, #85]	@ zero_extendqisi2
 1287 087c 03F00F03 		and	r3, r3, #15
 1288 0880 DBB2     		uxtb	r3, r3
 1289 0882 3033     		adds	r3, r3, #48
 1290 0884 D8B2     		uxtb	r0, r3
 1291 0886 2449     		ldr	r1, .L86
 1292 0888 1346     		mov	r3, r2
 1293 088a 5B00     		lsls	r3, r3, #1
 1294 088c 1344     		add	r3, r3, r2
 1295 088e 5B00     		lsls	r3, r3, #1
 1296 0890 0B44     		add	r3, r3, r1
 1297 0892 03F58673 		add	r3, r3, #268
 1298 0896 0246     		mov	r2, r0
 1299 0898 1A70     		strb	r2, [r3]
 162:PumpCom.c     ****             side.a.ProcessedPPU[side.a.Nozzle-1][0] = (side.a.MepsanStore[4] >> 4) + 0x30;         
 1300              		.loc 1 162 0
ARM GAS  C:\Users\Diego\AppData\Local\Temp\ccj1d66j.s 			page 27


 1301 089a 1F4B     		ldr	r3, .L86
 1302 089c 93F82C31 		ldrb	r3, [r3, #300]	@ zero_extendqisi2
 1303 08a0 5A1E     		subs	r2, r3, #1
 1304 08a2 1D4B     		ldr	r3, .L86
 1305 08a4 93F85530 		ldrb	r3, [r3, #85]	@ zero_extendqisi2
 1306 08a8 1B09     		lsrs	r3, r3, #4
 1307 08aa DBB2     		uxtb	r3, r3
 1308 08ac 3033     		adds	r3, r3, #48
 1309 08ae D8B2     		uxtb	r0, r3
 1310 08b0 1949     		ldr	r1, .L86
 1311 08b2 1346     		mov	r3, r2
 1312 08b4 5B00     		lsls	r3, r3, #1
 1313 08b6 1344     		add	r3, r3, r2
 1314 08b8 5B00     		lsls	r3, r3, #1
 1315 08ba 0B44     		add	r3, r3, r1
 1316 08bc 03F20B13 		addw	r3, r3, #267
 1317 08c0 0246     		mov	r2, r0
 1318 08c2 1A70     		strb	r2, [r3]
 1319              	.L14:
 163:PumpCom.c     ****         }
 164:PumpCom.c     ****     }
 165:PumpCom.c     ****     if(address == side.b.dir){
 1320              		.loc 1 165 0
 1321 08c4 144B     		ldr	r3, .L86
 1322 08c6 93F83531 		ldrb	r3, [r3, #309]	@ zero_extendqisi2
 1323 08ca 3A79     		ldrb	r2, [r7, #4]	@ zero_extendqisi2
 1324 08cc 9A42     		cmp	r2, r3
 1325 08ce 40F06784 		bne	.L35
 166:PumpCom.c     ****         side.a.MepRequest = 0;
 1326              		.loc 1 166 0
 1327 08d2 114B     		ldr	r3, .L86
 1328 08d4 0022     		movs	r2, #0
 1329 08d6 83F82B21 		strb	r2, [r3, #299]
 1330              	.LBB8:
 167:PumpCom.c     ****         for(uint8 MepRx = 1; MepRx < size + 1; MepRx++){
 1331              		.loc 1 167 0
 1332 08da 0123     		movs	r3, #1
 1333 08dc 7B74     		strb	r3, [r7, #17]
 1334 08de 0CE0     		b	.L36
 1335              	.L37:
 168:PumpCom.c     ****             side.b.MepsanStore[MepRx - 1] = MepsanResponse[MepRx];
 1336              		.loc 1 168 0 discriminator 3
 1337 08e0 7B7C     		ldrb	r3, [r7, #17]	@ zero_extendqisi2
 1338 08e2 013B     		subs	r3, r3, #1
 1339 08e4 7A7C     		ldrb	r2, [r7, #17]	@ zero_extendqisi2
 1340 08e6 0D49     		ldr	r1, .L86+4
 1341 08e8 895C     		ldrb	r1, [r1, r2]	@ zero_extendqisi2
 1342 08ea 0B4A     		ldr	r2, .L86
 1343 08ec 1344     		add	r3, r3, r2
 1344 08ee 0A46     		mov	r2, r1
 1345 08f0 83F88621 		strb	r2, [r3, #390]
 167:PumpCom.c     ****         for(uint8 MepRx = 1; MepRx < size + 1; MepRx++){
 1346              		.loc 1 167 0 discriminator 3
 1347 08f4 7B7C     		ldrb	r3, [r7, #17]	@ zero_extendqisi2
 1348 08f6 0133     		adds	r3, r3, #1
 1349 08f8 7B74     		strb	r3, [r7, #17]
 1350              	.L36:
ARM GAS  C:\Users\Diego\AppData\Local\Temp\ccj1d66j.s 			page 28


 167:PumpCom.c     ****         for(uint8 MepRx = 1; MepRx < size + 1; MepRx++){
 1351              		.loc 1 167 0 is_stmt 0 discriminator 1
 1352 08fa 7A7C     		ldrb	r2, [r7, #17]	@ zero_extendqisi2
 1353 08fc 7B79     		ldrb	r3, [r7, #5]	@ zero_extendqisi2
 1354 08fe 0133     		adds	r3, r3, #1
 1355 0900 9A42     		cmp	r2, r3
 1356 0902 EDDB     		blt	.L37
 1357              	.LBE8:
 169:PumpCom.c     ****         }
 170:PumpCom.c     ****         if(side.b.MepsanStore[2] == 0x65){
 1358              		.loc 1 170 0 is_stmt 1
 1359 0904 044B     		ldr	r3, .L86
 1360 0906 93F88831 		ldrb	r3, [r3, #392]	@ zero_extendqisi2
 1361 090a 652B     		cmp	r3, #101
 1362 090c 40F09682 		bne	.L38
 1363              	.LBB9:
 171:PumpCom.c     ****             for(uint8 x = 5; x < (side.b.MepsanStore[3]-1) + 5; x++ ){
 1364              		.loc 1 171 0
 1365 0910 0523     		movs	r3, #5
 1366 0912 3B74     		strb	r3, [r7, #16]
 1367 0914 26E0     		b	.L39
 1368              	.L87:
 1369 0916 00BF     		.align	2
 1370              	.L86:
 1371 0918 00000000 		.word	side
 1372 091c 00000000 		.word	MepsanResponse
 1373              	.L40:
 172:PumpCom.c     ****                 side.b.totalsNozzle[((side.b.MepsanStore[4])&0x0F)-1][TotalRequestType][x-5] = side
 1374              		.loc 1 172 0 discriminator 3
 1375 0920 CD4B     		ldr	r3, .L88
 1376 0922 93F88A31 		ldrb	r3, [r3, #394]	@ zero_extendqisi2
 1377 0926 03F00F03 		and	r3, r3, #15
 1378 092a 591E     		subs	r1, r3, #1
 1379 092c CB4B     		ldr	r3, .L88+4
 1380 092e 1B78     		ldrb	r3, [r3]	@ zero_extendqisi2
 1381 0930 1D46     		mov	r5, r3
 1382 0932 3B7C     		ldrb	r3, [r7, #16]	@ zero_extendqisi2
 1383 0934 581F     		subs	r0, r3, #5
 1384 0936 3B7C     		ldrb	r3, [r7, #16]	@ zero_extendqisi2
 1385 0938 C74A     		ldr	r2, .L88
 1386 093a 1344     		add	r3, r3, r2
 1387 093c 93F88661 		ldrb	r6, [r3, #390]	@ zero_extendqisi2
 1388 0940 C54C     		ldr	r4, .L88
 1389 0942 2A46     		mov	r2, r5
 1390 0944 9200     		lsls	r2, r2, #2
 1391 0946 2A44     		add	r2, r2, r5
 1392 0948 0B46     		mov	r3, r1
 1393 094a 9B00     		lsls	r3, r3, #2
 1394 094c 0B44     		add	r3, r3, r1
 1395 094e 5B00     		lsls	r3, r3, #1
 1396 0950 1344     		add	r3, r3, r2
 1397 0952 2344     		add	r3, r3, r4
 1398 0954 0344     		add	r3, r3, r0
 1399 0956 03F59B73 		add	r3, r3, #310
 1400 095a 3246     		mov	r2, r6
 1401 095c 1A70     		strb	r2, [r3]
 171:PumpCom.c     ****             for(uint8 x = 5; x < (side.b.MepsanStore[3]-1) + 5; x++ ){
ARM GAS  C:\Users\Diego\AppData\Local\Temp\ccj1d66j.s 			page 29


 1402              		.loc 1 171 0 discriminator 3
 1403 095e 3B7C     		ldrb	r3, [r7, #16]	@ zero_extendqisi2
 1404 0960 0133     		adds	r3, r3, #1
 1405 0962 3B74     		strb	r3, [r7, #16]
 1406              	.L39:
 171:PumpCom.c     ****             for(uint8 x = 5; x < (side.b.MepsanStore[3]-1) + 5; x++ ){
 1407              		.loc 1 171 0 is_stmt 0 discriminator 1
 1408 0964 3A7C     		ldrb	r2, [r7, #16]	@ zero_extendqisi2
 1409 0966 BC4B     		ldr	r3, .L88
 1410 0968 93F88931 		ldrb	r3, [r3, #393]	@ zero_extendqisi2
 1411 096c 0433     		adds	r3, r3, #4
 1412 096e 9A42     		cmp	r2, r3
 1413 0970 D6DB     		blt	.L40
 1414              	.LBE9:
 173:PumpCom.c     ****             }
 174:PumpCom.c     ****             
 175:PumpCom.c     ****             side.b.ProcessedTotals[((side.b.MepsanStore[4])&0x0F)-1][TotalRequestType][0] = (side.b
 1415              		.loc 1 175 0 is_stmt 1
 1416 0972 B94B     		ldr	r3, .L88
 1417 0974 93F88A31 		ldrb	r3, [r3, #394]	@ zero_extendqisi2
 1418 0978 03F00F03 		and	r3, r3, #15
 1419 097c 591E     		subs	r1, r3, #1
 1420 097e B74B     		ldr	r3, .L88+4
 1421 0980 1B78     		ldrb	r3, [r3]	@ zero_extendqisi2
 1422 0982 1D46     		mov	r5, r3
 1423 0984 B44B     		ldr	r3, .L88
 1424 0986 93F88A31 		ldrb	r3, [r3, #394]	@ zero_extendqisi2
 1425 098a 03F00F03 		and	r3, r3, #15
 1426 098e 581E     		subs	r0, r3, #1
 1427 0990 B24B     		ldr	r3, .L88+4
 1428 0992 1B78     		ldrb	r3, [r3]	@ zero_extendqisi2
 1429 0994 B04C     		ldr	r4, .L88
 1430 0996 1A46     		mov	r2, r3
 1431 0998 9200     		lsls	r2, r2, #2
 1432 099a 1A44     		add	r2, r2, r3
 1433 099c 0346     		mov	r3, r0
 1434 099e 9B00     		lsls	r3, r3, #2
 1435 09a0 0344     		add	r3, r3, r0
 1436 09a2 5B00     		lsls	r3, r3, #1
 1437 09a4 1344     		add	r3, r3, r2
 1438 09a6 2344     		add	r3, r3, r4
 1439 09a8 03F59B73 		add	r3, r3, #310
 1440 09ac 1B78     		ldrb	r3, [r3]	@ zero_extendqisi2
 1441 09ae 1B09     		lsrs	r3, r3, #4
 1442 09b0 DBB2     		uxtb	r3, r3
 1443 09b2 3033     		adds	r3, r3, #48
 1444 09b4 DCB2     		uxtb	r4, r3
 1445 09b6 A848     		ldr	r0, .L88
 1446 09b8 2A46     		mov	r2, r5
 1447 09ba 9200     		lsls	r2, r2, #2
 1448 09bc 2A44     		add	r2, r2, r5
 1449 09be 5300     		lsls	r3, r2, #1
 1450 09c0 1A46     		mov	r2, r3
 1451 09c2 0B46     		mov	r3, r1
 1452 09c4 1B01     		lsls	r3, r3, #4
 1453 09c6 5B1A     		subs	r3, r3, r1
 1454 09c8 5B00     		lsls	r3, r3, #1
ARM GAS  C:\Users\Diego\AppData\Local\Temp\ccj1d66j.s 			page 30


 1455 09ca 1344     		add	r3, r3, r2
 1456 09cc 0344     		add	r3, r3, r0
 1457 09ce 03F5DC73 		add	r3, r3, #440
 1458 09d2 2246     		mov	r2, r4
 1459 09d4 1A70     		strb	r2, [r3]
 176:PumpCom.c     ****             side.b.ProcessedTotals[((side.b.MepsanStore[4])&0x0F)-1][TotalRequestType][1] = (side.b
 1460              		.loc 1 176 0
 1461 09d6 A04B     		ldr	r3, .L88
 1462 09d8 93F88A31 		ldrb	r3, [r3, #394]	@ zero_extendqisi2
 1463 09dc 03F00F03 		and	r3, r3, #15
 1464 09e0 591E     		subs	r1, r3, #1
 1465 09e2 9E4B     		ldr	r3, .L88+4
 1466 09e4 1B78     		ldrb	r3, [r3]	@ zero_extendqisi2
 1467 09e6 1D46     		mov	r5, r3
 1468 09e8 9B4B     		ldr	r3, .L88
 1469 09ea 93F88A31 		ldrb	r3, [r3, #394]	@ zero_extendqisi2
 1470 09ee 03F00F03 		and	r3, r3, #15
 1471 09f2 581E     		subs	r0, r3, #1
 1472 09f4 994B     		ldr	r3, .L88+4
 1473 09f6 1B78     		ldrb	r3, [r3]	@ zero_extendqisi2
 1474 09f8 974C     		ldr	r4, .L88
 1475 09fa 1A46     		mov	r2, r3
 1476 09fc 9200     		lsls	r2, r2, #2
 1477 09fe 1A44     		add	r2, r2, r3
 1478 0a00 0346     		mov	r3, r0
 1479 0a02 9B00     		lsls	r3, r3, #2
 1480 0a04 0344     		add	r3, r3, r0
 1481 0a06 5B00     		lsls	r3, r3, #1
 1482 0a08 1344     		add	r3, r3, r2
 1483 0a0a 2344     		add	r3, r3, r4
 1484 0a0c 03F59B73 		add	r3, r3, #310
 1485 0a10 1B78     		ldrb	r3, [r3]	@ zero_extendqisi2
 1486 0a12 03F00F03 		and	r3, r3, #15
 1487 0a16 DBB2     		uxtb	r3, r3
 1488 0a18 3033     		adds	r3, r3, #48
 1489 0a1a DCB2     		uxtb	r4, r3
 1490 0a1c 8E48     		ldr	r0, .L88
 1491 0a1e 2A46     		mov	r2, r5
 1492 0a20 9200     		lsls	r2, r2, #2
 1493 0a22 2A44     		add	r2, r2, r5
 1494 0a24 5300     		lsls	r3, r2, #1
 1495 0a26 1A46     		mov	r2, r3
 1496 0a28 0B46     		mov	r3, r1
 1497 0a2a 1B01     		lsls	r3, r3, #4
 1498 0a2c 5B1A     		subs	r3, r3, r1
 1499 0a2e 5B00     		lsls	r3, r3, #1
 1500 0a30 1344     		add	r3, r3, r2
 1501 0a32 0344     		add	r3, r3, r0
 1502 0a34 03F2B913 		addw	r3, r3, #441
 1503 0a38 2246     		mov	r2, r4
 1504 0a3a 1A70     		strb	r2, [r3]
 177:PumpCom.c     ****             side.b.ProcessedTotals[((side.b.MepsanStore[4])&0x0F)-1][TotalRequestType][2] = (side.b
 1505              		.loc 1 177 0
 1506 0a3c 864B     		ldr	r3, .L88
 1507 0a3e 93F88A31 		ldrb	r3, [r3, #394]	@ zero_extendqisi2
 1508 0a42 03F00F03 		and	r3, r3, #15
 1509 0a46 591E     		subs	r1, r3, #1
ARM GAS  C:\Users\Diego\AppData\Local\Temp\ccj1d66j.s 			page 31


 1510 0a48 844B     		ldr	r3, .L88+4
 1511 0a4a 1B78     		ldrb	r3, [r3]	@ zero_extendqisi2
 1512 0a4c 1D46     		mov	r5, r3
 1513 0a4e 824B     		ldr	r3, .L88
 1514 0a50 93F88A31 		ldrb	r3, [r3, #394]	@ zero_extendqisi2
 1515 0a54 03F00F03 		and	r3, r3, #15
 1516 0a58 581E     		subs	r0, r3, #1
 1517 0a5a 804B     		ldr	r3, .L88+4
 1518 0a5c 1B78     		ldrb	r3, [r3]	@ zero_extendqisi2
 1519 0a5e 7E4C     		ldr	r4, .L88
 1520 0a60 1A46     		mov	r2, r3
 1521 0a62 9200     		lsls	r2, r2, #2
 1522 0a64 1A44     		add	r2, r2, r3
 1523 0a66 0346     		mov	r3, r0
 1524 0a68 9B00     		lsls	r3, r3, #2
 1525 0a6a 0344     		add	r3, r3, r0
 1526 0a6c 5B00     		lsls	r3, r3, #1
 1527 0a6e 1344     		add	r3, r3, r2
 1528 0a70 2344     		add	r3, r3, r4
 1529 0a72 03F23713 		addw	r3, r3, #311
 1530 0a76 1B78     		ldrb	r3, [r3]	@ zero_extendqisi2
 1531 0a78 1B09     		lsrs	r3, r3, #4
 1532 0a7a DBB2     		uxtb	r3, r3
 1533 0a7c 3033     		adds	r3, r3, #48
 1534 0a7e DCB2     		uxtb	r4, r3
 1535 0a80 7548     		ldr	r0, .L88
 1536 0a82 2A46     		mov	r2, r5
 1537 0a84 9200     		lsls	r2, r2, #2
 1538 0a86 2A44     		add	r2, r2, r5
 1539 0a88 5300     		lsls	r3, r2, #1
 1540 0a8a 1A46     		mov	r2, r3
 1541 0a8c 0B46     		mov	r3, r1
 1542 0a8e 1B01     		lsls	r3, r3, #4
 1543 0a90 5B1A     		subs	r3, r3, r1
 1544 0a92 5B00     		lsls	r3, r3, #1
 1545 0a94 1344     		add	r3, r3, r2
 1546 0a96 0344     		add	r3, r3, r0
 1547 0a98 03F5DD73 		add	r3, r3, #442
 1548 0a9c 2246     		mov	r2, r4
 1549 0a9e 1A70     		strb	r2, [r3]
 178:PumpCom.c     ****             side.b.ProcessedTotals[((side.b.MepsanStore[4])&0x0F)-1][TotalRequestType][3] = (side.b
 1550              		.loc 1 178 0
 1551 0aa0 6D4B     		ldr	r3, .L88
 1552 0aa2 93F88A31 		ldrb	r3, [r3, #394]	@ zero_extendqisi2
 1553 0aa6 03F00F03 		and	r3, r3, #15
 1554 0aaa 591E     		subs	r1, r3, #1
 1555 0aac 6B4B     		ldr	r3, .L88+4
 1556 0aae 1B78     		ldrb	r3, [r3]	@ zero_extendqisi2
 1557 0ab0 1D46     		mov	r5, r3
 1558 0ab2 694B     		ldr	r3, .L88
 1559 0ab4 93F88A31 		ldrb	r3, [r3, #394]	@ zero_extendqisi2
 1560 0ab8 03F00F03 		and	r3, r3, #15
 1561 0abc 581E     		subs	r0, r3, #1
 1562 0abe 674B     		ldr	r3, .L88+4
 1563 0ac0 1B78     		ldrb	r3, [r3]	@ zero_extendqisi2
 1564 0ac2 654C     		ldr	r4, .L88
 1565 0ac4 1A46     		mov	r2, r3
ARM GAS  C:\Users\Diego\AppData\Local\Temp\ccj1d66j.s 			page 32


 1566 0ac6 9200     		lsls	r2, r2, #2
 1567 0ac8 1A44     		add	r2, r2, r3
 1568 0aca 0346     		mov	r3, r0
 1569 0acc 9B00     		lsls	r3, r3, #2
 1570 0ace 0344     		add	r3, r3, r0
 1571 0ad0 5B00     		lsls	r3, r3, #1
 1572 0ad2 1344     		add	r3, r3, r2
 1573 0ad4 2344     		add	r3, r3, r4
 1574 0ad6 03F23713 		addw	r3, r3, #311
 1575 0ada 1B78     		ldrb	r3, [r3]	@ zero_extendqisi2
 1576 0adc 03F00F03 		and	r3, r3, #15
 1577 0ae0 DBB2     		uxtb	r3, r3
 1578 0ae2 3033     		adds	r3, r3, #48
 1579 0ae4 DCB2     		uxtb	r4, r3
 1580 0ae6 5C48     		ldr	r0, .L88
 1581 0ae8 2A46     		mov	r2, r5
 1582 0aea 9200     		lsls	r2, r2, #2
 1583 0aec 2A44     		add	r2, r2, r5
 1584 0aee 5300     		lsls	r3, r2, #1
 1585 0af0 1A46     		mov	r2, r3
 1586 0af2 0B46     		mov	r3, r1
 1587 0af4 1B01     		lsls	r3, r3, #4
 1588 0af6 5B1A     		subs	r3, r3, r1
 1589 0af8 5B00     		lsls	r3, r3, #1
 1590 0afa 1344     		add	r3, r3, r2
 1591 0afc 0344     		add	r3, r3, r0
 1592 0afe 03F2BB13 		addw	r3, r3, #443
 1593 0b02 2246     		mov	r2, r4
 1594 0b04 1A70     		strb	r2, [r3]
 179:PumpCom.c     ****             side.b.ProcessedTotals[((side.b.MepsanStore[4])&0x0F)-1][TotalRequestType][4] = (side.b
 1595              		.loc 1 179 0
 1596 0b06 544B     		ldr	r3, .L88
 1597 0b08 93F88A31 		ldrb	r3, [r3, #394]	@ zero_extendqisi2
 1598 0b0c 03F00F03 		and	r3, r3, #15
 1599 0b10 591E     		subs	r1, r3, #1
 1600 0b12 524B     		ldr	r3, .L88+4
 1601 0b14 1B78     		ldrb	r3, [r3]	@ zero_extendqisi2
 1602 0b16 1D46     		mov	r5, r3
 1603 0b18 4F4B     		ldr	r3, .L88
 1604 0b1a 93F88A31 		ldrb	r3, [r3, #394]	@ zero_extendqisi2
 1605 0b1e 03F00F03 		and	r3, r3, #15
 1606 0b22 581E     		subs	r0, r3, #1
 1607 0b24 4D4B     		ldr	r3, .L88+4
 1608 0b26 1B78     		ldrb	r3, [r3]	@ zero_extendqisi2
 1609 0b28 4B4C     		ldr	r4, .L88
 1610 0b2a 1A46     		mov	r2, r3
 1611 0b2c 9200     		lsls	r2, r2, #2
 1612 0b2e 1A44     		add	r2, r2, r3
 1613 0b30 0346     		mov	r3, r0
 1614 0b32 9B00     		lsls	r3, r3, #2
 1615 0b34 0344     		add	r3, r3, r0
 1616 0b36 5B00     		lsls	r3, r3, #1
 1617 0b38 1344     		add	r3, r3, r2
 1618 0b3a 2344     		add	r3, r3, r4
 1619 0b3c 03F59C73 		add	r3, r3, #312
 1620 0b40 1B78     		ldrb	r3, [r3]	@ zero_extendqisi2
 1621 0b42 1B09     		lsrs	r3, r3, #4
ARM GAS  C:\Users\Diego\AppData\Local\Temp\ccj1d66j.s 			page 33


 1622 0b44 DBB2     		uxtb	r3, r3
 1623 0b46 3033     		adds	r3, r3, #48
 1624 0b48 DCB2     		uxtb	r4, r3
 1625 0b4a 4348     		ldr	r0, .L88
 1626 0b4c 2A46     		mov	r2, r5
 1627 0b4e 9200     		lsls	r2, r2, #2
 1628 0b50 2A44     		add	r2, r2, r5
 1629 0b52 5300     		lsls	r3, r2, #1
 1630 0b54 1A46     		mov	r2, r3
 1631 0b56 0B46     		mov	r3, r1
 1632 0b58 1B01     		lsls	r3, r3, #4
 1633 0b5a 5B1A     		subs	r3, r3, r1
 1634 0b5c 5B00     		lsls	r3, r3, #1
 1635 0b5e 1344     		add	r3, r3, r2
 1636 0b60 0344     		add	r3, r3, r0
 1637 0b62 03F5DE73 		add	r3, r3, #444
 1638 0b66 2246     		mov	r2, r4
 1639 0b68 1A70     		strb	r2, [r3]
 180:PumpCom.c     ****             side.b.ProcessedTotals[((side.b.MepsanStore[4])&0x0F)-1][TotalRequestType][5] = (side.b
 1640              		.loc 1 180 0
 1641 0b6a 3B4B     		ldr	r3, .L88
 1642 0b6c 93F88A31 		ldrb	r3, [r3, #394]	@ zero_extendqisi2
 1643 0b70 03F00F03 		and	r3, r3, #15
 1644 0b74 591E     		subs	r1, r3, #1
 1645 0b76 394B     		ldr	r3, .L88+4
 1646 0b78 1B78     		ldrb	r3, [r3]	@ zero_extendqisi2
 1647 0b7a 1D46     		mov	r5, r3
 1648 0b7c 364B     		ldr	r3, .L88
 1649 0b7e 93F88A31 		ldrb	r3, [r3, #394]	@ zero_extendqisi2
 1650 0b82 03F00F03 		and	r3, r3, #15
 1651 0b86 581E     		subs	r0, r3, #1
 1652 0b88 344B     		ldr	r3, .L88+4
 1653 0b8a 1B78     		ldrb	r3, [r3]	@ zero_extendqisi2
 1654 0b8c 324C     		ldr	r4, .L88
 1655 0b8e 1A46     		mov	r2, r3
 1656 0b90 9200     		lsls	r2, r2, #2
 1657 0b92 1A44     		add	r2, r2, r3
 1658 0b94 0346     		mov	r3, r0
 1659 0b96 9B00     		lsls	r3, r3, #2
 1660 0b98 0344     		add	r3, r3, r0
 1661 0b9a 5B00     		lsls	r3, r3, #1
 1662 0b9c 1344     		add	r3, r3, r2
 1663 0b9e 2344     		add	r3, r3, r4
 1664 0ba0 03F59C73 		add	r3, r3, #312
 1665 0ba4 1B78     		ldrb	r3, [r3]	@ zero_extendqisi2
 1666 0ba6 03F00F03 		and	r3, r3, #15
 1667 0baa DBB2     		uxtb	r3, r3
 1668 0bac 3033     		adds	r3, r3, #48
 1669 0bae DCB2     		uxtb	r4, r3
 1670 0bb0 2948     		ldr	r0, .L88
 1671 0bb2 2A46     		mov	r2, r5
 1672 0bb4 9200     		lsls	r2, r2, #2
 1673 0bb6 2A44     		add	r2, r2, r5
 1674 0bb8 5300     		lsls	r3, r2, #1
 1675 0bba 1A46     		mov	r2, r3
 1676 0bbc 0B46     		mov	r3, r1
 1677 0bbe 1B01     		lsls	r3, r3, #4
ARM GAS  C:\Users\Diego\AppData\Local\Temp\ccj1d66j.s 			page 34


 1678 0bc0 5B1A     		subs	r3, r3, r1
 1679 0bc2 5B00     		lsls	r3, r3, #1
 1680 0bc4 1344     		add	r3, r3, r2
 1681 0bc6 0344     		add	r3, r3, r0
 1682 0bc8 03F2BD13 		addw	r3, r3, #445
 1683 0bcc 2246     		mov	r2, r4
 1684 0bce 1A70     		strb	r2, [r3]
 181:PumpCom.c     ****             side.b.ProcessedTotals[((side.b.MepsanStore[4])&0x0F)-1][TotalRequestType][6] = (side.b
 1685              		.loc 1 181 0
 1686 0bd0 214B     		ldr	r3, .L88
 1687 0bd2 93F88A31 		ldrb	r3, [r3, #394]	@ zero_extendqisi2
 1688 0bd6 03F00F03 		and	r3, r3, #15
 1689 0bda 591E     		subs	r1, r3, #1
 1690 0bdc 1F4B     		ldr	r3, .L88+4
 1691 0bde 1B78     		ldrb	r3, [r3]	@ zero_extendqisi2
 1692 0be0 1D46     		mov	r5, r3
 1693 0be2 1D4B     		ldr	r3, .L88
 1694 0be4 93F88A31 		ldrb	r3, [r3, #394]	@ zero_extendqisi2
 1695 0be8 03F00F03 		and	r3, r3, #15
 1696 0bec 581E     		subs	r0, r3, #1
 1697 0bee 1B4B     		ldr	r3, .L88+4
 1698 0bf0 1B78     		ldrb	r3, [r3]	@ zero_extendqisi2
 1699 0bf2 194C     		ldr	r4, .L88
 1700 0bf4 1A46     		mov	r2, r3
 1701 0bf6 9200     		lsls	r2, r2, #2
 1702 0bf8 1A44     		add	r2, r2, r3
 1703 0bfa 0346     		mov	r3, r0
 1704 0bfc 9B00     		lsls	r3, r3, #2
 1705 0bfe 0344     		add	r3, r3, r0
 1706 0c00 5B00     		lsls	r3, r3, #1
 1707 0c02 1344     		add	r3, r3, r2
 1708 0c04 2344     		add	r3, r3, r4
 1709 0c06 03F23913 		addw	r3, r3, #313
 1710 0c0a 1B78     		ldrb	r3, [r3]	@ zero_extendqisi2
 1711 0c0c 1B09     		lsrs	r3, r3, #4
 1712 0c0e DBB2     		uxtb	r3, r3
 1713 0c10 3033     		adds	r3, r3, #48
 1714 0c12 DCB2     		uxtb	r4, r3
 1715 0c14 1048     		ldr	r0, .L88
 1716 0c16 2A46     		mov	r2, r5
 1717 0c18 9200     		lsls	r2, r2, #2
 1718 0c1a 2A44     		add	r2, r2, r5
 1719 0c1c 5300     		lsls	r3, r2, #1
 1720 0c1e 1A46     		mov	r2, r3
 1721 0c20 0B46     		mov	r3, r1
 1722 0c22 1B01     		lsls	r3, r3, #4
 1723 0c24 5B1A     		subs	r3, r3, r1
 1724 0c26 5B00     		lsls	r3, r3, #1
 1725 0c28 1344     		add	r3, r3, r2
 1726 0c2a 0344     		add	r3, r3, r0
 1727 0c2c 03F5DF73 		add	r3, r3, #446
 1728 0c30 2246     		mov	r2, r4
 1729 0c32 1A70     		strb	r2, [r3]
 182:PumpCom.c     ****             side.b.ProcessedTotals[((side.b.MepsanStore[4])&0x0F)-1][TotalRequestType][7] = (side.b
 1730              		.loc 1 182 0
 1731 0c34 084B     		ldr	r3, .L88
 1732 0c36 93F88A31 		ldrb	r3, [r3, #394]	@ zero_extendqisi2
ARM GAS  C:\Users\Diego\AppData\Local\Temp\ccj1d66j.s 			page 35


 1733 0c3a 03F00F03 		and	r3, r3, #15
 1734 0c3e 591E     		subs	r1, r3, #1
 1735 0c40 064B     		ldr	r3, .L88+4
 1736 0c42 1B78     		ldrb	r3, [r3]	@ zero_extendqisi2
 1737 0c44 1D46     		mov	r5, r3
 1738 0c46 044B     		ldr	r3, .L88
 1739 0c48 93F88A31 		ldrb	r3, [r3, #394]	@ zero_extendqisi2
 1740 0c4c 03F00F03 		and	r3, r3, #15
 1741 0c50 581E     		subs	r0, r3, #1
 1742 0c52 024B     		ldr	r3, .L88+4
 1743 0c54 1B78     		ldrb	r3, [r3]	@ zero_extendqisi2
 1744 0c56 03E0     		b	.L89
 1745              	.L90:
 1746              		.align	2
 1747              	.L88:
 1748 0c58 00000000 		.word	side
 1749 0c5c 00000000 		.word	TotalRequestType
 1750              	.L89:
 1751 0c60 C44C     		ldr	r4, .L91
 1752 0c62 1A46     		mov	r2, r3
 1753 0c64 9200     		lsls	r2, r2, #2
 1754 0c66 1A44     		add	r2, r2, r3
 1755 0c68 0346     		mov	r3, r0
 1756 0c6a 9B00     		lsls	r3, r3, #2
 1757 0c6c 0344     		add	r3, r3, r0
 1758 0c6e 5B00     		lsls	r3, r3, #1
 1759 0c70 1344     		add	r3, r3, r2
 1760 0c72 2344     		add	r3, r3, r4
 1761 0c74 03F23913 		addw	r3, r3, #313
 1762 0c78 1B78     		ldrb	r3, [r3]	@ zero_extendqisi2
 1763 0c7a 03F00F03 		and	r3, r3, #15
 1764 0c7e DBB2     		uxtb	r3, r3
 1765 0c80 3033     		adds	r3, r3, #48
 1766 0c82 DCB2     		uxtb	r4, r3
 1767 0c84 BB48     		ldr	r0, .L91
 1768 0c86 2A46     		mov	r2, r5
 1769 0c88 9200     		lsls	r2, r2, #2
 1770 0c8a 2A44     		add	r2, r2, r5
 1771 0c8c 5300     		lsls	r3, r2, #1
 1772 0c8e 1A46     		mov	r2, r3
 1773 0c90 0B46     		mov	r3, r1
 1774 0c92 1B01     		lsls	r3, r3, #4
 1775 0c94 5B1A     		subs	r3, r3, r1
 1776 0c96 5B00     		lsls	r3, r3, #1
 1777 0c98 1344     		add	r3, r3, r2
 1778 0c9a 0344     		add	r3, r3, r0
 1779 0c9c 03F2BF13 		addw	r3, r3, #447
 1780 0ca0 2246     		mov	r2, r4
 1781 0ca2 1A70     		strb	r2, [r3]
 183:PumpCom.c     ****             side.b.ProcessedTotals[((side.b.MepsanStore[4])&0x0F)-1][TotalRequestType][8] = (side.b
 1782              		.loc 1 183 0
 1783 0ca4 B34B     		ldr	r3, .L91
 1784 0ca6 93F88A31 		ldrb	r3, [r3, #394]	@ zero_extendqisi2
 1785 0caa 03F00F03 		and	r3, r3, #15
 1786 0cae 591E     		subs	r1, r3, #1
 1787 0cb0 B14B     		ldr	r3, .L91+4
 1788 0cb2 1B78     		ldrb	r3, [r3]	@ zero_extendqisi2
ARM GAS  C:\Users\Diego\AppData\Local\Temp\ccj1d66j.s 			page 36


 1789 0cb4 1D46     		mov	r5, r3
 1790 0cb6 AF4B     		ldr	r3, .L91
 1791 0cb8 93F88A31 		ldrb	r3, [r3, #394]	@ zero_extendqisi2
 1792 0cbc 03F00F03 		and	r3, r3, #15
 1793 0cc0 581E     		subs	r0, r3, #1
 1794 0cc2 AD4B     		ldr	r3, .L91+4
 1795 0cc4 1B78     		ldrb	r3, [r3]	@ zero_extendqisi2
 1796 0cc6 AB4C     		ldr	r4, .L91
 1797 0cc8 1A46     		mov	r2, r3
 1798 0cca 9200     		lsls	r2, r2, #2
 1799 0ccc 1A44     		add	r2, r2, r3
 1800 0cce 0346     		mov	r3, r0
 1801 0cd0 9B00     		lsls	r3, r3, #2
 1802 0cd2 0344     		add	r3, r3, r0
 1803 0cd4 5B00     		lsls	r3, r3, #1
 1804 0cd6 1344     		add	r3, r3, r2
 1805 0cd8 2344     		add	r3, r3, r4
 1806 0cda 03F59D73 		add	r3, r3, #314
 1807 0cde 1B78     		ldrb	r3, [r3]	@ zero_extendqisi2
 1808 0ce0 1B09     		lsrs	r3, r3, #4
 1809 0ce2 DBB2     		uxtb	r3, r3
 1810 0ce4 3033     		adds	r3, r3, #48
 1811 0ce6 DCB2     		uxtb	r4, r3
 1812 0ce8 A248     		ldr	r0, .L91
 1813 0cea 2A46     		mov	r2, r5
 1814 0cec 9200     		lsls	r2, r2, #2
 1815 0cee 2A44     		add	r2, r2, r5
 1816 0cf0 5300     		lsls	r3, r2, #1
 1817 0cf2 1A46     		mov	r2, r3
 1818 0cf4 0B46     		mov	r3, r1
 1819 0cf6 1B01     		lsls	r3, r3, #4
 1820 0cf8 5B1A     		subs	r3, r3, r1
 1821 0cfa 5B00     		lsls	r3, r3, #1
 1822 0cfc 1344     		add	r3, r3, r2
 1823 0cfe 0344     		add	r3, r3, r0
 1824 0d00 03F5E073 		add	r3, r3, #448
 1825 0d04 2246     		mov	r2, r4
 1826 0d06 1A70     		strb	r2, [r3]
 184:PumpCom.c     ****             side.b.ProcessedTotals[((side.b.MepsanStore[4])&0x0F)-1][TotalRequestType][9] = (side.b
 1827              		.loc 1 184 0
 1828 0d08 9A4B     		ldr	r3, .L91
 1829 0d0a 93F88A31 		ldrb	r3, [r3, #394]	@ zero_extendqisi2
 1830 0d0e 03F00F03 		and	r3, r3, #15
 1831 0d12 591E     		subs	r1, r3, #1
 1832 0d14 984B     		ldr	r3, .L91+4
 1833 0d16 1B78     		ldrb	r3, [r3]	@ zero_extendqisi2
 1834 0d18 1D46     		mov	r5, r3
 1835 0d1a 964B     		ldr	r3, .L91
 1836 0d1c 93F88A31 		ldrb	r3, [r3, #394]	@ zero_extendqisi2
 1837 0d20 03F00F03 		and	r3, r3, #15
 1838 0d24 581E     		subs	r0, r3, #1
 1839 0d26 944B     		ldr	r3, .L91+4
 1840 0d28 1B78     		ldrb	r3, [r3]	@ zero_extendqisi2
 1841 0d2a 924C     		ldr	r4, .L91
 1842 0d2c 1A46     		mov	r2, r3
 1843 0d2e 9200     		lsls	r2, r2, #2
 1844 0d30 1A44     		add	r2, r2, r3
ARM GAS  C:\Users\Diego\AppData\Local\Temp\ccj1d66j.s 			page 37


 1845 0d32 0346     		mov	r3, r0
 1846 0d34 9B00     		lsls	r3, r3, #2
 1847 0d36 0344     		add	r3, r3, r0
 1848 0d38 5B00     		lsls	r3, r3, #1
 1849 0d3a 1344     		add	r3, r3, r2
 1850 0d3c 2344     		add	r3, r3, r4
 1851 0d3e 03F59D73 		add	r3, r3, #314
 1852 0d42 1B78     		ldrb	r3, [r3]	@ zero_extendqisi2
 1853 0d44 03F00F03 		and	r3, r3, #15
 1854 0d48 DBB2     		uxtb	r3, r3
 1855 0d4a 3033     		adds	r3, r3, #48
 1856 0d4c DCB2     		uxtb	r4, r3
 1857 0d4e 8948     		ldr	r0, .L91
 1858 0d50 2A46     		mov	r2, r5
 1859 0d52 9200     		lsls	r2, r2, #2
 1860 0d54 2A44     		add	r2, r2, r5
 1861 0d56 5300     		lsls	r3, r2, #1
 1862 0d58 1A46     		mov	r2, r3
 1863 0d5a 0B46     		mov	r3, r1
 1864 0d5c 1B01     		lsls	r3, r3, #4
 1865 0d5e 5B1A     		subs	r3, r3, r1
 1866 0d60 5B00     		lsls	r3, r3, #1
 1867 0d62 1344     		add	r3, r3, r2
 1868 0d64 0344     		add	r3, r3, r0
 1869 0d66 03F2C113 		addw	r3, r3, #449
 1870 0d6a 2246     		mov	r2, r4
 1871 0d6c 1A70     		strb	r2, [r3]
 1872              	.LBB10:
 185:PumpCom.c     ****             for(int8 i = 0; i < 8; i++){
 1873              		.loc 1 185 0
 1874 0d6e 0023     		movs	r3, #0
 1875 0d70 FB73     		strb	r3, [r7, #15]
 1876 0d72 3CE0     		b	.L41
 1877              	.L44:
 186:PumpCom.c     ****                 if(side.b.ProcessedTotals[((side.b.MepsanStore[4])&0x0F)-1][TotalRequestType][i] !=
 1878              		.loc 1 186 0
 1879 0d74 7F4B     		ldr	r3, .L91
 1880 0d76 93F88A31 		ldrb	r3, [r3, #394]	@ zero_extendqisi2
 1881 0d7a 03F00F03 		and	r3, r3, #15
 1882 0d7e 591E     		subs	r1, r3, #1
 1883 0d80 7D4B     		ldr	r3, .L91+4
 1884 0d82 1B78     		ldrb	r3, [r3]	@ zero_extendqisi2
 1885 0d84 97F90F00 		ldrsb	r0, [r7, #15]
 1886 0d88 7A4C     		ldr	r4, .L91
 1887 0d8a 1A46     		mov	r2, r3
 1888 0d8c 9200     		lsls	r2, r2, #2
 1889 0d8e 1A44     		add	r2, r2, r3
 1890 0d90 5300     		lsls	r3, r2, #1
 1891 0d92 1A46     		mov	r2, r3
 1892 0d94 0B46     		mov	r3, r1
 1893 0d96 1B01     		lsls	r3, r3, #4
 1894 0d98 5B1A     		subs	r3, r3, r1
 1895 0d9a 5B00     		lsls	r3, r3, #1
 1896 0d9c 1344     		add	r3, r3, r2
 1897 0d9e 2344     		add	r3, r3, r4
 1898 0da0 0344     		add	r3, r3, r0
 1899 0da2 03F5DC73 		add	r3, r3, #440
ARM GAS  C:\Users\Diego\AppData\Local\Temp\ccj1d66j.s 			page 38


 1900 0da6 1B78     		ldrb	r3, [r3]	@ zero_extendqisi2
 1901 0da8 302B     		cmp	r3, #48
 1902 0daa 25D1     		bne	.L75
 187:PumpCom.c     ****                     break;
 188:PumpCom.c     ****                 side.b.ProcessedTotals[((side.b.MepsanStore[4])&0x0F)-1][TotalRequestType][i] = 0x0
 1903              		.loc 1 188 0 discriminator 2
 1904 0dac 714B     		ldr	r3, .L91
 1905 0dae 93F88A31 		ldrb	r3, [r3, #394]	@ zero_extendqisi2
 1906 0db2 03F00F03 		and	r3, r3, #15
 1907 0db6 591E     		subs	r1, r3, #1
 1908 0db8 6F4B     		ldr	r3, .L91+4
 1909 0dba 1B78     		ldrb	r3, [r3]	@ zero_extendqisi2
 1910 0dbc 97F90F00 		ldrsb	r0, [r7, #15]
 1911 0dc0 6C4C     		ldr	r4, .L91
 1912 0dc2 1A46     		mov	r2, r3
 1913 0dc4 9200     		lsls	r2, r2, #2
 1914 0dc6 1A44     		add	r2, r2, r3
 1915 0dc8 5300     		lsls	r3, r2, #1
 1916 0dca 1A46     		mov	r2, r3
 1917 0dcc 0B46     		mov	r3, r1
 1918 0dce 1B01     		lsls	r3, r3, #4
 1919 0dd0 5B1A     		subs	r3, r3, r1
 1920 0dd2 5B00     		lsls	r3, r3, #1
 1921 0dd4 1344     		add	r3, r3, r2
 1922 0dd6 2344     		add	r3, r3, r4
 1923 0dd8 0344     		add	r3, r3, r0
 1924 0dda 03F5DC73 		add	r3, r3, #440
 1925 0dde 0022     		movs	r2, #0
 1926 0de0 1A70     		strb	r2, [r3]
 185:PumpCom.c     ****                 if(side.b.ProcessedTotals[((side.b.MepsanStore[4])&0x0F)-1][TotalRequestType][i] !=
 1927              		.loc 1 185 0 discriminator 2
 1928 0de2 97F90F30 		ldrsb	r3, [r7, #15]
 1929 0de6 DBB2     		uxtb	r3, r3
 1930 0de8 0133     		adds	r3, r3, #1
 1931 0dea DBB2     		uxtb	r3, r3
 1932 0dec FB73     		strb	r3, [r7, #15]
 1933              	.L41:
 185:PumpCom.c     ****                 if(side.b.ProcessedTotals[((side.b.MepsanStore[4])&0x0F)-1][TotalRequestType][i] !=
 1934              		.loc 1 185 0 is_stmt 0 discriminator 1
 1935 0dee 97F90F30 		ldrsb	r3, [r7, #15]
 1936 0df2 072B     		cmp	r3, #7
 1937 0df4 BEDD     		ble	.L44
 1938 0df6 00E0     		b	.L43
 1939              	.L75:
 187:PumpCom.c     ****                     break;
 1940              		.loc 1 187 0 is_stmt 1
 1941 0df8 00BF     		nop
 1942              	.L43:
 1943              	.LBE10:
 189:PumpCom.c     ****             }
 190:PumpCom.c     ****             EnablePin_Write (1u);
 1944              		.loc 1 190 0
 1945 0dfa 0120     		movs	r0, #1
 1946 0dfc FFF7FEFF 		bl	EnablePin_Write
 191:PumpCom.c     ****             MEPSAN_PutChar((0x50|address));
 1947              		.loc 1 191 0
 1948 0e00 3B79     		ldrb	r3, [r7, #4]
ARM GAS  C:\Users\Diego\AppData\Local\Temp\ccj1d66j.s 			page 39


 1949 0e02 43F05003 		orr	r3, r3, #80
 1950 0e06 DBB2     		uxtb	r3, r3
 1951 0e08 1846     		mov	r0, r3
 1952 0e0a FFF7FEFF 		bl	MEPSAN_PutChar
 192:PumpCom.c     ****             MEPSAN_PutChar(0xC0|(side.b.MepsanStore[1]&0x0F));
 1953              		.loc 1 192 0
 1954 0e0e 594B     		ldr	r3, .L91
 1955 0e10 93F88731 		ldrb	r3, [r3, #391]	@ zero_extendqisi2
 1956 0e14 5BB2     		sxtb	r3, r3
 1957 0e16 03F00F03 		and	r3, r3, #15
 1958 0e1a 5BB2     		sxtb	r3, r3
 1959 0e1c 63F03F03 		orn	r3, r3, #63
 1960 0e20 5BB2     		sxtb	r3, r3
 1961 0e22 DBB2     		uxtb	r3, r3
 1962 0e24 1846     		mov	r0, r3
 1963 0e26 FFF7FEFF 		bl	MEPSAN_PutChar
 193:PumpCom.c     ****             MEPSAN_PutChar(0xFA); 
 1964              		.loc 1 193 0
 1965 0e2a FA20     		movs	r0, #250
 1966 0e2c FFF7FEFF 		bl	MEPSAN_PutChar
 194:PumpCom.c     ****             CyDelay(4);
 1967              		.loc 1 194 0
 1968 0e30 0420     		movs	r0, #4
 1969 0e32 FFF7FEFF 		bl	CyDelay
 195:PumpCom.c     ****             EnablePin_Write (0u);
 1970              		.loc 1 195 0
 1971 0e36 0020     		movs	r0, #0
 1972 0e38 FFF7FEFF 		bl	EnablePin_Write
 1973              	.L38:
 196:PumpCom.c     ****         }
 197:PumpCom.c     ****         if(side.b.MepsanStore[2] == 0x02){
 1974              		.loc 1 197 0
 1975 0e3c 4D4B     		ldr	r3, .L91
 1976 0e3e 93F88831 		ldrb	r3, [r3, #392]	@ zero_extendqisi2
 1977 0e42 022B     		cmp	r3, #2
 1978 0e44 40F01281 		bne	.L45
 1979              	.LBB11:
 198:PumpCom.c     ****             for(uint8 x = 4; x < 8; x++ ){
 1980              		.loc 1 198 0
 1981 0e48 0423     		movs	r3, #4
 1982 0e4a BB73     		strb	r3, [r7, #14]
 1983 0e4c 1BE0     		b	.L46
 1984              	.L47:
 199:PumpCom.c     ****                 side.b.volumeSale[x-4] = side.b.MepsanStore[x];
 1985              		.loc 1 199 0 discriminator 3
 1986 0e4e BB7B     		ldrb	r3, [r7, #14]	@ zero_extendqisi2
 1987 0e50 043B     		subs	r3, r3, #4
 1988 0e52 BA7B     		ldrb	r2, [r7, #14]	@ zero_extendqisi2
 1989 0e54 4749     		ldr	r1, .L91
 1990 0e56 0A44     		add	r2, r2, r1
 1991 0e58 92F88611 		ldrb	r1, [r2, #390]	@ zero_extendqisi2
 1992 0e5c 454A     		ldr	r2, .L91
 1993 0e5e 1344     		add	r3, r3, r2
 1994 0e60 0A46     		mov	r2, r1
 1995 0e62 83F86E21 		strb	r2, [r3, #366]
 200:PumpCom.c     ****                 side.b.moneySale[x-4] = side.b.MepsanStore[x+4];
 1996              		.loc 1 200 0 discriminator 3
ARM GAS  C:\Users\Diego\AppData\Local\Temp\ccj1d66j.s 			page 40


 1997 0e66 BB7B     		ldrb	r3, [r7, #14]	@ zero_extendqisi2
 1998 0e68 043B     		subs	r3, r3, #4
 1999 0e6a BA7B     		ldrb	r2, [r7, #14]	@ zero_extendqisi2
 2000 0e6c 0432     		adds	r2, r2, #4
 2001 0e6e 4149     		ldr	r1, .L91
 2002 0e70 0A44     		add	r2, r2, r1
 2003 0e72 92F88611 		ldrb	r1, [r2, #390]	@ zero_extendqisi2
 2004 0e76 3F4A     		ldr	r2, .L91
 2005 0e78 1344     		add	r3, r3, r2
 2006 0e7a 0A46     		mov	r2, r1
 2007 0e7c 83F86A21 		strb	r2, [r3, #362]
 198:PumpCom.c     ****             for(uint8 x = 4; x < 8; x++ ){
 2008              		.loc 1 198 0 discriminator 3
 2009 0e80 BB7B     		ldrb	r3, [r7, #14]	@ zero_extendqisi2
 2010 0e82 0133     		adds	r3, r3, #1
 2011 0e84 BB73     		strb	r3, [r7, #14]
 2012              	.L46:
 198:PumpCom.c     ****             for(uint8 x = 4; x < 8; x++ ){
 2013              		.loc 1 198 0 is_stmt 0 discriminator 1
 2014 0e86 BB7B     		ldrb	r3, [r7, #14]	@ zero_extendqisi2
 2015 0e88 072B     		cmp	r3, #7
 2016 0e8a E0D9     		bls	.L47
 2017              	.LBE11:
 201:PumpCom.c     ****             }
 202:PumpCom.c     ****             side.b.ProcessedvolumeSale[0] = (side.b.volumeSale[0]  >> 4) + 0x30;
 2018              		.loc 1 202 0 is_stmt 1
 2019 0e8c 394B     		ldr	r3, .L91
 2020 0e8e 93F86E31 		ldrb	r3, [r3, #366]	@ zero_extendqisi2
 2021 0e92 1B09     		lsrs	r3, r3, #4
 2022 0e94 DBB2     		uxtb	r3, r3
 2023 0e96 3033     		adds	r3, r3, #48
 2024 0e98 DAB2     		uxtb	r2, r3
 2025 0e9a 364B     		ldr	r3, .L91
 2026 0e9c 83F83822 		strb	r2, [r3, #568]
 203:PumpCom.c     ****             side.b.ProcessedvolumeSale[1] = (side.b.volumeSale[0]  & 0x0F) + 0x30;
 2027              		.loc 1 203 0
 2028 0ea0 344B     		ldr	r3, .L91
 2029 0ea2 93F86E31 		ldrb	r3, [r3, #366]	@ zero_extendqisi2
 2030 0ea6 03F00F03 		and	r3, r3, #15
 2031 0eaa DBB2     		uxtb	r3, r3
 2032 0eac 3033     		adds	r3, r3, #48
 2033 0eae DAB2     		uxtb	r2, r3
 2034 0eb0 304B     		ldr	r3, .L91
 2035 0eb2 83F83922 		strb	r2, [r3, #569]
 204:PumpCom.c     ****             side.b.ProcessedvolumeSale[2] = (side.b.volumeSale[1]  >> 4) + 0x30;
 2036              		.loc 1 204 0
 2037 0eb6 2F4B     		ldr	r3, .L91
 2038 0eb8 93F86F31 		ldrb	r3, [r3, #367]	@ zero_extendqisi2
 2039 0ebc 1B09     		lsrs	r3, r3, #4
 2040 0ebe DBB2     		uxtb	r3, r3
 2041 0ec0 3033     		adds	r3, r3, #48
 2042 0ec2 DAB2     		uxtb	r2, r3
 2043 0ec4 2B4B     		ldr	r3, .L91
 2044 0ec6 83F83A22 		strb	r2, [r3, #570]
 205:PumpCom.c     ****             side.b.ProcessedvolumeSale[3] = (side.b.volumeSale[1]  & 0x0F) + 0x30;
 2045              		.loc 1 205 0
 2046 0eca 2A4B     		ldr	r3, .L91
ARM GAS  C:\Users\Diego\AppData\Local\Temp\ccj1d66j.s 			page 41


 2047 0ecc 93F86F31 		ldrb	r3, [r3, #367]	@ zero_extendqisi2
 2048 0ed0 03F00F03 		and	r3, r3, #15
 2049 0ed4 DBB2     		uxtb	r3, r3
 2050 0ed6 3033     		adds	r3, r3, #48
 2051 0ed8 DAB2     		uxtb	r2, r3
 2052 0eda 264B     		ldr	r3, .L91
 2053 0edc 83F83B22 		strb	r2, [r3, #571]
 206:PumpCom.c     ****             side.b.ProcessedvolumeSale[4] = (side.b.volumeSale[2]  >> 4) + 0x30;
 2054              		.loc 1 206 0
 2055 0ee0 244B     		ldr	r3, .L91
 2056 0ee2 93F87031 		ldrb	r3, [r3, #368]	@ zero_extendqisi2
 2057 0ee6 1B09     		lsrs	r3, r3, #4
 2058 0ee8 DBB2     		uxtb	r3, r3
 2059 0eea 3033     		adds	r3, r3, #48
 2060 0eec DAB2     		uxtb	r2, r3
 2061 0eee 214B     		ldr	r3, .L91
 2062 0ef0 83F83C22 		strb	r2, [r3, #572]
 207:PumpCom.c     ****             side.b.ProcessedvolumeSale[5] = (side.b.volumeSale[2]  & 0x0F) + 0x30;
 2063              		.loc 1 207 0
 2064 0ef4 1F4B     		ldr	r3, .L91
 2065 0ef6 93F87031 		ldrb	r3, [r3, #368]	@ zero_extendqisi2
 2066 0efa 03F00F03 		and	r3, r3, #15
 2067 0efe DBB2     		uxtb	r3, r3
 2068 0f00 3033     		adds	r3, r3, #48
 2069 0f02 DAB2     		uxtb	r2, r3
 2070 0f04 1B4B     		ldr	r3, .L91
 2071 0f06 83F83D22 		strb	r2, [r3, #573]
 208:PumpCom.c     ****             side.b.ProcessedvolumeSale[6] = (side.b.volumeSale[3]  >> 4) + 0x30;
 2072              		.loc 1 208 0
 2073 0f0a 1A4B     		ldr	r3, .L91
 2074 0f0c 93F87131 		ldrb	r3, [r3, #369]	@ zero_extendqisi2
 2075 0f10 1B09     		lsrs	r3, r3, #4
 2076 0f12 DBB2     		uxtb	r3, r3
 2077 0f14 3033     		adds	r3, r3, #48
 2078 0f16 DAB2     		uxtb	r2, r3
 2079 0f18 164B     		ldr	r3, .L91
 2080 0f1a 83F83E22 		strb	r2, [r3, #574]
 209:PumpCom.c     ****             side.b.ProcessedvolumeSale[7] = (side.b.volumeSale[3]  & 0x0F) + 0x30;
 2081              		.loc 1 209 0
 2082 0f1e 154B     		ldr	r3, .L91
 2083 0f20 93F87131 		ldrb	r3, [r3, #369]	@ zero_extendqisi2
 2084 0f24 03F00F03 		and	r3, r3, #15
 2085 0f28 DBB2     		uxtb	r3, r3
 2086 0f2a 3033     		adds	r3, r3, #48
 2087 0f2c DAB2     		uxtb	r2, r3
 2088 0f2e 114B     		ldr	r3, .L91
 2089 0f30 83F83F22 		strb	r2, [r3, #575]
 2090              	.LBB12:
 210:PumpCom.c     ****             for(int8 i = 0; i < DecVol+1; i++){
 2091              		.loc 1 210 0
 2092 0f34 0023     		movs	r3, #0
 2093 0f36 7B73     		strb	r3, [r7, #13]
 2094 0f38 14E0     		b	.L48
 2095              	.L51:
 211:PumpCom.c     ****                 if(side.b.ProcessedvolumeSale[i] != 0x30 )
 2096              		.loc 1 211 0
 2097 0f3a 97F90D30 		ldrsb	r3, [r7, #13]
ARM GAS  C:\Users\Diego\AppData\Local\Temp\ccj1d66j.s 			page 42


 2098 0f3e 0D4A     		ldr	r2, .L91
 2099 0f40 1344     		add	r3, r3, r2
 2100 0f42 93F83832 		ldrb	r3, [r3, #568]	@ zero_extendqisi2
 2101 0f46 302B     		cmp	r3, #48
 2102 0f48 1AD1     		bne	.L76
 212:PumpCom.c     ****                     break;
 213:PumpCom.c     ****                 side.b.ProcessedvolumeSale[i] = 0x00;                
 2103              		.loc 1 213 0 discriminator 2
 2104 0f4a 97F90D30 		ldrsb	r3, [r7, #13]
 2105 0f4e 094A     		ldr	r2, .L91
 2106 0f50 1344     		add	r3, r3, r2
 2107 0f52 0022     		movs	r2, #0
 2108 0f54 83F83822 		strb	r2, [r3, #568]
 210:PumpCom.c     ****                 if(side.b.ProcessedvolumeSale[i] != 0x30 )
 2109              		.loc 1 210 0 discriminator 2
 2110 0f58 97F90D30 		ldrsb	r3, [r7, #13]
 2111 0f5c DBB2     		uxtb	r3, r3
 2112 0f5e 0133     		adds	r3, r3, #1
 2113 0f60 DBB2     		uxtb	r3, r3
 2114 0f62 7B73     		strb	r3, [r7, #13]
 2115              	.L48:
 210:PumpCom.c     ****                 if(side.b.ProcessedvolumeSale[i] != 0x30 )
 2116              		.loc 1 210 0 is_stmt 0 discriminator 1
 2117 0f64 97F90D20 		ldrsb	r2, [r7, #13]
 2118 0f68 044B     		ldr	r3, .L91+8
 2119 0f6a 1B78     		ldrb	r3, [r3]	@ zero_extendqisi2
 2120 0f6c 0133     		adds	r3, r3, #1
 2121 0f6e 9A42     		cmp	r2, r3
 2122 0f70 E3DB     		blt	.L51
 2123 0f72 06E0     		b	.L50
 2124              	.L92:
 2125              		.align	2
 2126              	.L91:
 2127 0f74 00000000 		.word	side
 2128 0f78 00000000 		.word	TotalRequestType
 2129 0f7c 00000000 		.word	DecVol
 2130              	.L76:
 212:PumpCom.c     ****                     break;
 2131              		.loc 1 212 0 is_stmt 1
 2132 0f80 00BF     		nop
 2133              	.L50:
 2134              	.LBE12:
 214:PumpCom.c     ****             }
 215:PumpCom.c     ****             side.b.ProcessedmoneySale[0] = (side.b.moneySale[0]  >> 4) + 0x30;
 2135              		.loc 1 215 0
 2136 0f82 9A4B     		ldr	r3, .L93
 2137 0f84 93F86A31 		ldrb	r3, [r3, #362]	@ zero_extendqisi2
 2138 0f88 1B09     		lsrs	r3, r3, #4
 2139 0f8a DBB2     		uxtb	r3, r3
 2140 0f8c 3033     		adds	r3, r3, #48
 2141 0f8e DAB2     		uxtb	r2, r3
 2142 0f90 964B     		ldr	r3, .L93
 2143 0f92 83F83022 		strb	r2, [r3, #560]
 216:PumpCom.c     ****             side.b.ProcessedmoneySale[1] = (side.b.moneySale[0]  & 0x0F) + 0x30;
 2144              		.loc 1 216 0
 2145 0f96 954B     		ldr	r3, .L93
 2146 0f98 93F86A31 		ldrb	r3, [r3, #362]	@ zero_extendqisi2
ARM GAS  C:\Users\Diego\AppData\Local\Temp\ccj1d66j.s 			page 43


 2147 0f9c 03F00F03 		and	r3, r3, #15
 2148 0fa0 DBB2     		uxtb	r3, r3
 2149 0fa2 3033     		adds	r3, r3, #48
 2150 0fa4 DAB2     		uxtb	r2, r3
 2151 0fa6 914B     		ldr	r3, .L93
 2152 0fa8 83F83122 		strb	r2, [r3, #561]
 217:PumpCom.c     ****             side.b.ProcessedmoneySale[2] = (side.b.moneySale[1]  >> 4) + 0x30;
 2153              		.loc 1 217 0
 2154 0fac 8F4B     		ldr	r3, .L93
 2155 0fae 93F86B31 		ldrb	r3, [r3, #363]	@ zero_extendqisi2
 2156 0fb2 1B09     		lsrs	r3, r3, #4
 2157 0fb4 DBB2     		uxtb	r3, r3
 2158 0fb6 3033     		adds	r3, r3, #48
 2159 0fb8 DAB2     		uxtb	r2, r3
 2160 0fba 8C4B     		ldr	r3, .L93
 2161 0fbc 83F83222 		strb	r2, [r3, #562]
 218:PumpCom.c     ****             side.b.ProcessedmoneySale[3] = (side.b.moneySale[1]  & 0x0F) + 0x30;
 2162              		.loc 1 218 0
 2163 0fc0 8A4B     		ldr	r3, .L93
 2164 0fc2 93F86B31 		ldrb	r3, [r3, #363]	@ zero_extendqisi2
 2165 0fc6 03F00F03 		and	r3, r3, #15
 2166 0fca DBB2     		uxtb	r3, r3
 2167 0fcc 3033     		adds	r3, r3, #48
 2168 0fce DAB2     		uxtb	r2, r3
 2169 0fd0 864B     		ldr	r3, .L93
 2170 0fd2 83F83322 		strb	r2, [r3, #563]
 219:PumpCom.c     ****             side.b.ProcessedmoneySale[4] = (side.b.moneySale[2]  >> 4) + 0x30;
 2171              		.loc 1 219 0
 2172 0fd6 854B     		ldr	r3, .L93
 2173 0fd8 93F86C31 		ldrb	r3, [r3, #364]	@ zero_extendqisi2
 2174 0fdc 1B09     		lsrs	r3, r3, #4
 2175 0fde DBB2     		uxtb	r3, r3
 2176 0fe0 3033     		adds	r3, r3, #48
 2177 0fe2 DAB2     		uxtb	r2, r3
 2178 0fe4 814B     		ldr	r3, .L93
 2179 0fe6 83F83422 		strb	r2, [r3, #564]
 220:PumpCom.c     ****             side.b.ProcessedmoneySale[5] = (side.b.moneySale[2]  & 0x0F) + 0x30;
 2180              		.loc 1 220 0
 2181 0fea 804B     		ldr	r3, .L93
 2182 0fec 93F86C31 		ldrb	r3, [r3, #364]	@ zero_extendqisi2
 2183 0ff0 03F00F03 		and	r3, r3, #15
 2184 0ff4 DBB2     		uxtb	r3, r3
 2185 0ff6 3033     		adds	r3, r3, #48
 2186 0ff8 DAB2     		uxtb	r2, r3
 2187 0ffa 7C4B     		ldr	r3, .L93
 2188 0ffc 83F83522 		strb	r2, [r3, #565]
 221:PumpCom.c     ****             side.b.ProcessedmoneySale[6] = (side.b.moneySale[3]  >> 4) + 0x30;
 2189              		.loc 1 221 0
 2190 1000 7A4B     		ldr	r3, .L93
 2191 1002 93F86D31 		ldrb	r3, [r3, #365]	@ zero_extendqisi2
 2192 1006 1B09     		lsrs	r3, r3, #4
 2193 1008 DBB2     		uxtb	r3, r3
 2194 100a 3033     		adds	r3, r3, #48
 2195 100c DAB2     		uxtb	r2, r3
 2196 100e 774B     		ldr	r3, .L93
 2197 1010 83F83622 		strb	r2, [r3, #566]
 222:PumpCom.c     ****             side.b.ProcessedmoneySale[7] = (side.b.moneySale[3]  & 0x0F) + 0x30;
ARM GAS  C:\Users\Diego\AppData\Local\Temp\ccj1d66j.s 			page 44


 2198              		.loc 1 222 0
 2199 1014 754B     		ldr	r3, .L93
 2200 1016 93F86D31 		ldrb	r3, [r3, #365]	@ zero_extendqisi2
 2201 101a 03F00F03 		and	r3, r3, #15
 2202 101e DBB2     		uxtb	r3, r3
 2203 1020 3033     		adds	r3, r3, #48
 2204 1022 DAB2     		uxtb	r2, r3
 2205 1024 714B     		ldr	r3, .L93
 2206 1026 83F83722 		strb	r2, [r3, #567]
 2207              	.LBB13:
 223:PumpCom.c     ****             for(int8 i = 0; i < 8; i++){
 2208              		.loc 1 223 0
 2209 102a 0023     		movs	r3, #0
 2210 102c 3B73     		strb	r3, [r7, #12]
 2211 102e 14E0     		b	.L52
 2212              	.L55:
 224:PumpCom.c     ****                 if(side.b.ProcessedmoneySale[i] != 0x30)
 2213              		.loc 1 224 0
 2214 1030 97F90C30 		ldrsb	r3, [r7, #12]
 2215 1034 6D4A     		ldr	r2, .L93
 2216 1036 1344     		add	r3, r3, r2
 2217 1038 93F83032 		ldrb	r3, [r3, #560]	@ zero_extendqisi2
 2218 103c 302B     		cmp	r3, #48
 2219 103e 11D1     		bne	.L77
 225:PumpCom.c     ****                     break;
 226:PumpCom.c     ****                 side.b.ProcessedmoneySale[i] = 0x00;                
 2220              		.loc 1 226 0 discriminator 2
 2221 1040 97F90C30 		ldrsb	r3, [r7, #12]
 2222 1044 694A     		ldr	r2, .L93
 2223 1046 1344     		add	r3, r3, r2
 2224 1048 0022     		movs	r2, #0
 2225 104a 83F83022 		strb	r2, [r3, #560]
 223:PumpCom.c     ****                 if(side.b.ProcessedmoneySale[i] != 0x30)
 2226              		.loc 1 223 0 discriminator 2
 2227 104e 97F90C30 		ldrsb	r3, [r7, #12]
 2228 1052 DBB2     		uxtb	r3, r3
 2229 1054 0133     		adds	r3, r3, #1
 2230 1056 DBB2     		uxtb	r3, r3
 2231 1058 3B73     		strb	r3, [r7, #12]
 2232              	.L52:
 223:PumpCom.c     ****                 if(side.b.ProcessedmoneySale[i] != 0x30)
 2233              		.loc 1 223 0 is_stmt 0 discriminator 1
 2234 105a 97F90C30 		ldrsb	r3, [r7, #12]
 2235 105e 072B     		cmp	r3, #7
 2236 1060 E6DD     		ble	.L55
 2237 1062 00E0     		b	.L54
 2238              	.L77:
 225:PumpCom.c     ****                     break;
 2239              		.loc 1 225 0 is_stmt 1
 2240 1064 00BF     		nop
 2241              	.L54:
 2242              	.LBE13:
 227:PumpCom.c     ****             }
 228:PumpCom.c     ****             EnablePin_Write (0u);
 2243              		.loc 1 228 0
 2244 1066 0020     		movs	r0, #0
 2245 1068 FFF7FEFF 		bl	EnablePin_Write
ARM GAS  C:\Users\Diego\AppData\Local\Temp\ccj1d66j.s 			page 45


 2246              	.L45:
 229:PumpCom.c     ****         }
 230:PumpCom.c     ****         if(side.b.MepsanStore[2] == 0x03 && side.b.MepsanStore[3] == 0x04 ){
 2247              		.loc 1 230 0
 2248 106c 5F4B     		ldr	r3, .L93
 2249 106e 93F88831 		ldrb	r3, [r3, #392]	@ zero_extendqisi2
 2250 1072 032B     		cmp	r3, #3
 2251 1074 40F09480 		bne	.L35
 2252              		.loc 1 230 0 is_stmt 0 discriminator 1
 2253 1078 5C4B     		ldr	r3, .L93
 2254 107a 93F88931 		ldrb	r3, [r3, #393]	@ zero_extendqisi2
 2255 107e 042B     		cmp	r3, #4
 2256 1080 40F08E80 		bne	.L35
 231:PumpCom.c     ****             side.b.MepRequest = MEPSAN_AUTHORIZE;
 2257              		.loc 1 231 0 is_stmt 1
 2258 1084 594B     		ldr	r3, .L93
 2259 1086 0622     		movs	r2, #6
 2260 1088 83F86022 		strb	r2, [r3, #608]
 232:PumpCom.c     ****             side.b.Nozzle = side.b.MepsanStore[7] & 0x0F;
 2261              		.loc 1 232 0
 2262 108c 574B     		ldr	r3, .L93
 2263 108e 93F88D31 		ldrb	r3, [r3, #397]	@ zero_extendqisi2
 2264 1092 03F00F03 		and	r3, r3, #15
 2265 1096 DAB2     		uxtb	r2, r3
 2266 1098 544B     		ldr	r3, .L93
 2267 109a 83F86122 		strb	r2, [r3, #609]
 233:PumpCom.c     ****             side.b.ProcessedPPU[side.b.Nozzle-1][5] = (side.b.MepsanStore[6] & 0x0F) + 0x30;       
 2268              		.loc 1 233 0
 2269 109e 534B     		ldr	r3, .L93
 2270 10a0 93F86132 		ldrb	r3, [r3, #609]	@ zero_extendqisi2
 2271 10a4 5A1E     		subs	r2, r3, #1
 2272 10a6 514B     		ldr	r3, .L93
 2273 10a8 93F88C31 		ldrb	r3, [r3, #396]	@ zero_extendqisi2
 2274 10ac 03F00F03 		and	r3, r3, #15
 2275 10b0 DBB2     		uxtb	r3, r3
 2276 10b2 3033     		adds	r3, r3, #48
 2277 10b4 D8B2     		uxtb	r0, r3
 2278 10b6 4D49     		ldr	r1, .L93
 2279 10b8 1346     		mov	r3, r2
 2280 10ba 5B00     		lsls	r3, r3, #1
 2281 10bc 1344     		add	r3, r3, r2
 2282 10be 5B00     		lsls	r3, r3, #1
 2283 10c0 0B44     		add	r3, r3, r1
 2284 10c2 03F24523 		addw	r3, r3, #581
 2285 10c6 0246     		mov	r2, r0
 2286 10c8 1A70     		strb	r2, [r3]
 234:PumpCom.c     ****             side.b.ProcessedPPU[side.b.Nozzle-1][4] = (side.b.MepsanStore[6] >> 4) + 0x30;
 2287              		.loc 1 234 0
 2288 10ca 484B     		ldr	r3, .L93
 2289 10cc 93F86132 		ldrb	r3, [r3, #609]	@ zero_extendqisi2
 2290 10d0 5A1E     		subs	r2, r3, #1
 2291 10d2 464B     		ldr	r3, .L93
 2292 10d4 93F88C31 		ldrb	r3, [r3, #396]	@ zero_extendqisi2
 2293 10d8 1B09     		lsrs	r3, r3, #4
 2294 10da DBB2     		uxtb	r3, r3
 2295 10dc 3033     		adds	r3, r3, #48
 2296 10de D8B2     		uxtb	r0, r3
ARM GAS  C:\Users\Diego\AppData\Local\Temp\ccj1d66j.s 			page 46


 2297 10e0 4249     		ldr	r1, .L93
 2298 10e2 1346     		mov	r3, r2
 2299 10e4 5B00     		lsls	r3, r3, #1
 2300 10e6 1344     		add	r3, r3, r2
 2301 10e8 5B00     		lsls	r3, r3, #1
 2302 10ea 0B44     		add	r3, r3, r1
 2303 10ec 03F51173 		add	r3, r3, #580
 2304 10f0 0246     		mov	r2, r0
 2305 10f2 1A70     		strb	r2, [r3]
 235:PumpCom.c     ****             side.b.ProcessedPPU[side.b.Nozzle-1][3] = (side.b.MepsanStore[5] & 0x0F) + 0x30;
 2306              		.loc 1 235 0
 2307 10f4 3D4B     		ldr	r3, .L93
 2308 10f6 93F86132 		ldrb	r3, [r3, #609]	@ zero_extendqisi2
 2309 10fa 5A1E     		subs	r2, r3, #1
 2310 10fc 3B4B     		ldr	r3, .L93
 2311 10fe 93F88B31 		ldrb	r3, [r3, #395]	@ zero_extendqisi2
 2312 1102 03F00F03 		and	r3, r3, #15
 2313 1106 DBB2     		uxtb	r3, r3
 2314 1108 3033     		adds	r3, r3, #48
 2315 110a D8B2     		uxtb	r0, r3
 2316 110c 3749     		ldr	r1, .L93
 2317 110e 1346     		mov	r3, r2
 2318 1110 5B00     		lsls	r3, r3, #1
 2319 1112 1344     		add	r3, r3, r2
 2320 1114 5B00     		lsls	r3, r3, #1
 2321 1116 0B44     		add	r3, r3, r1
 2322 1118 03F24323 		addw	r3, r3, #579
 2323 111c 0246     		mov	r2, r0
 2324 111e 1A70     		strb	r2, [r3]
 236:PumpCom.c     ****             side.b.ProcessedPPU[side.b.Nozzle-1][2] = (side.b.MepsanStore[5] >> 4) + 0x30;
 2325              		.loc 1 236 0
 2326 1120 324B     		ldr	r3, .L93
 2327 1122 93F86132 		ldrb	r3, [r3, #609]	@ zero_extendqisi2
 2328 1126 5A1E     		subs	r2, r3, #1
 2329 1128 304B     		ldr	r3, .L93
 2330 112a 93F88B31 		ldrb	r3, [r3, #395]	@ zero_extendqisi2
 2331 112e 1B09     		lsrs	r3, r3, #4
 2332 1130 DBB2     		uxtb	r3, r3
 2333 1132 3033     		adds	r3, r3, #48
 2334 1134 D8B2     		uxtb	r0, r3
 2335 1136 2D49     		ldr	r1, .L93
 2336 1138 1346     		mov	r3, r2
 2337 113a 5B00     		lsls	r3, r3, #1
 2338 113c 1344     		add	r3, r3, r2
 2339 113e 5B00     		lsls	r3, r3, #1
 2340 1140 0B44     		add	r3, r3, r1
 2341 1142 03F24223 		addw	r3, r3, #578
 2342 1146 0246     		mov	r2, r0
 2343 1148 1A70     		strb	r2, [r3]
 237:PumpCom.c     ****             side.b.ProcessedPPU[side.b.Nozzle-1][1] = (side.b.MepsanStore[4] & 0x0F) + 0x30;
 2344              		.loc 1 237 0
 2345 114a 284B     		ldr	r3, .L93
 2346 114c 93F86132 		ldrb	r3, [r3, #609]	@ zero_extendqisi2
 2347 1150 5A1E     		subs	r2, r3, #1
 2348 1152 264B     		ldr	r3, .L93
 2349 1154 93F88A31 		ldrb	r3, [r3, #394]	@ zero_extendqisi2
 2350 1158 03F00F03 		and	r3, r3, #15
ARM GAS  C:\Users\Diego\AppData\Local\Temp\ccj1d66j.s 			page 47


 2351 115c DBB2     		uxtb	r3, r3
 2352 115e 3033     		adds	r3, r3, #48
 2353 1160 D8B2     		uxtb	r0, r3
 2354 1162 2249     		ldr	r1, .L93
 2355 1164 1346     		mov	r3, r2
 2356 1166 5B00     		lsls	r3, r3, #1
 2357 1168 1344     		add	r3, r3, r2
 2358 116a 5B00     		lsls	r3, r3, #1
 2359 116c 0B44     		add	r3, r3, r1
 2360 116e 03F24123 		addw	r3, r3, #577
 2361 1172 0246     		mov	r2, r0
 2362 1174 1A70     		strb	r2, [r3]
 238:PumpCom.c     ****             side.b.ProcessedPPU[side.b.Nozzle-1][0] = (side.b.MepsanStore[4] >> 4) + 0x30;         
 2363              		.loc 1 238 0
 2364 1176 1D4B     		ldr	r3, .L93
 2365 1178 93F86132 		ldrb	r3, [r3, #609]	@ zero_extendqisi2
 2366 117c 5A1E     		subs	r2, r3, #1
 2367 117e 1B4B     		ldr	r3, .L93
 2368 1180 93F88A31 		ldrb	r3, [r3, #394]	@ zero_extendqisi2
 2369 1184 1B09     		lsrs	r3, r3, #4
 2370 1186 DBB2     		uxtb	r3, r3
 2371 1188 3033     		adds	r3, r3, #48
 2372 118a D8B2     		uxtb	r0, r3
 2373 118c 1749     		ldr	r1, .L93
 2374 118e 1346     		mov	r3, r2
 2375 1190 5B00     		lsls	r3, r3, #1
 2376 1192 1344     		add	r3, r3, r2
 2377 1194 5B00     		lsls	r3, r3, #1
 2378 1196 0B44     		add	r3, r3, r1
 2379 1198 03F51073 		add	r3, r3, #576
 2380 119c 0246     		mov	r2, r0
 2381 119e 1A70     		strb	r2, [r3]
 2382              	.L35:
 239:PumpCom.c     ****         }
 240:PumpCom.c     ****     }
 241:PumpCom.c     ****     if(address == side.c.dir){
 2383              		.loc 1 241 0
 2384 11a0 124B     		ldr	r3, .L93
 2385 11a2 93F86A32 		ldrb	r3, [r3, #618]	@ zero_extendqisi2
 2386 11a6 3A79     		ldrb	r2, [r7, #4]	@ zero_extendqisi2
 2387 11a8 9A42     		cmp	r2, r3
 2388 11aa 40F03E83 		bne	.L56
 2389              	.LBB14:
 242:PumpCom.c     ****         for(uint8 MepRx = 1; MepRx < size + 1; MepRx++){
 2390              		.loc 1 242 0
 2391 11ae 0123     		movs	r3, #1
 2392 11b0 FB72     		strb	r3, [r7, #11]
 2393 11b2 0CE0     		b	.L57
 2394              	.L58:
 243:PumpCom.c     ****             side.c.MepsanStore[MepRx - 1] = MepsanResponse[MepRx];
 2395              		.loc 1 243 0 discriminator 3
 2396 11b4 FB7A     		ldrb	r3, [r7, #11]	@ zero_extendqisi2
 2397 11b6 013B     		subs	r3, r3, #1
 2398 11b8 FA7A     		ldrb	r2, [r7, #11]	@ zero_extendqisi2
 2399 11ba 0D49     		ldr	r1, .L93+4
 2400 11bc 895C     		ldrb	r1, [r1, r2]	@ zero_extendqisi2
 2401 11be 0B4A     		ldr	r2, .L93
ARM GAS  C:\Users\Diego\AppData\Local\Temp\ccj1d66j.s 			page 48


 2402 11c0 1344     		add	r3, r3, r2
 2403 11c2 0A46     		mov	r2, r1
 2404 11c4 83F8BB22 		strb	r2, [r3, #699]
 242:PumpCom.c     ****         for(uint8 MepRx = 1; MepRx < size + 1; MepRx++){
 2405              		.loc 1 242 0 discriminator 3
 2406 11c8 FB7A     		ldrb	r3, [r7, #11]	@ zero_extendqisi2
 2407 11ca 0133     		adds	r3, r3, #1
 2408 11cc FB72     		strb	r3, [r7, #11]
 2409              	.L57:
 242:PumpCom.c     ****         for(uint8 MepRx = 1; MepRx < size + 1; MepRx++){
 2410              		.loc 1 242 0 is_stmt 0 discriminator 1
 2411 11ce FA7A     		ldrb	r2, [r7, #11]	@ zero_extendqisi2
 2412 11d0 7B79     		ldrb	r3, [r7, #5]	@ zero_extendqisi2
 2413 11d2 0133     		adds	r3, r3, #1
 2414 11d4 9A42     		cmp	r2, r3
 2415 11d6 EDDB     		blt	.L58
 2416              	.LBE14:
 244:PumpCom.c     ****         }
 245:PumpCom.c     ****         if(side.c.MepsanStore[2] == 0x65){
 2417              		.loc 1 245 0 is_stmt 1
 2418 11d8 044B     		ldr	r3, .L93
 2419 11da 93F8BD32 		ldrb	r3, [r3, #701]	@ zero_extendqisi2
 2420 11de 652B     		cmp	r3, #101
 2421 11e0 40F05082 		bne	.L59
 2422              	.LBB15:
 246:PumpCom.c     ****             for(uint8 x = 5; x < (side.c.MepsanStore[3]-1) + 5; x++ ){
 2423              		.loc 1 246 0
 2424 11e4 0523     		movs	r3, #5
 2425 11e6 BB72     		strb	r3, [r7, #10]
 2426 11e8 26E0     		b	.L60
 2427              	.L94:
 2428 11ea 00BF     		.align	2
 2429              	.L93:
 2430 11ec 00000000 		.word	side
 2431 11f0 00000000 		.word	MepsanResponse
 2432              	.L61:
 247:PumpCom.c     ****                 side.c.totalsNozzle[((side.c.MepsanStore[4])&0x0F)-1][TotalRequestType][x-5] = side
 2433              		.loc 1 247 0 discriminator 3
 2434 11f4 CD4B     		ldr	r3, .L95
 2435 11f6 93F8BF32 		ldrb	r3, [r3, #703]	@ zero_extendqisi2
 2436 11fa 03F00F03 		and	r3, r3, #15
 2437 11fe 591E     		subs	r1, r3, #1
 2438 1200 CB4B     		ldr	r3, .L95+4
 2439 1202 1B78     		ldrb	r3, [r3]	@ zero_extendqisi2
 2440 1204 1D46     		mov	r5, r3
 2441 1206 BB7A     		ldrb	r3, [r7, #10]	@ zero_extendqisi2
 2442 1208 581F     		subs	r0, r3, #5
 2443 120a BB7A     		ldrb	r3, [r7, #10]	@ zero_extendqisi2
 2444 120c C74A     		ldr	r2, .L95
 2445 120e 1344     		add	r3, r3, r2
 2446 1210 93F8BB62 		ldrb	r6, [r3, #699]	@ zero_extendqisi2
 2447 1214 C54C     		ldr	r4, .L95
 2448 1216 2A46     		mov	r2, r5
 2449 1218 9200     		lsls	r2, r2, #2
 2450 121a 2A44     		add	r2, r2, r5
 2451 121c 0B46     		mov	r3, r1
 2452 121e 9B00     		lsls	r3, r3, #2
ARM GAS  C:\Users\Diego\AppData\Local\Temp\ccj1d66j.s 			page 49


 2453 1220 0B44     		add	r3, r3, r1
 2454 1222 5B00     		lsls	r3, r3, #1
 2455 1224 1344     		add	r3, r3, r2
 2456 1226 2344     		add	r3, r3, r4
 2457 1228 0344     		add	r3, r3, r0
 2458 122a 03F26B23 		addw	r3, r3, #619
 2459 122e 3246     		mov	r2, r6
 2460 1230 1A70     		strb	r2, [r3]
 246:PumpCom.c     ****             for(uint8 x = 5; x < (side.c.MepsanStore[3]-1) + 5; x++ ){
 2461              		.loc 1 246 0 discriminator 3
 2462 1232 BB7A     		ldrb	r3, [r7, #10]	@ zero_extendqisi2
 2463 1234 0133     		adds	r3, r3, #1
 2464 1236 BB72     		strb	r3, [r7, #10]
 2465              	.L60:
 246:PumpCom.c     ****             for(uint8 x = 5; x < (side.c.MepsanStore[3]-1) + 5; x++ ){
 2466              		.loc 1 246 0 is_stmt 0 discriminator 1
 2467 1238 BA7A     		ldrb	r2, [r7, #10]	@ zero_extendqisi2
 2468 123a BC4B     		ldr	r3, .L95
 2469 123c 93F8BE32 		ldrb	r3, [r3, #702]	@ zero_extendqisi2
 2470 1240 0433     		adds	r3, r3, #4
 2471 1242 9A42     		cmp	r2, r3
 2472 1244 D6DB     		blt	.L61
 2473              	.LBE15:
 248:PumpCom.c     ****             }
 249:PumpCom.c     ****             
 250:PumpCom.c     ****             side.c.ProcessedTotals[((side.c.MepsanStore[4])&0x0F)-1][TotalRequestType][0] = (side.c
 2474              		.loc 1 250 0 is_stmt 1
 2475 1246 B94B     		ldr	r3, .L95
 2476 1248 93F8BF32 		ldrb	r3, [r3, #703]	@ zero_extendqisi2
 2477 124c 03F00F03 		and	r3, r3, #15
 2478 1250 591E     		subs	r1, r3, #1
 2479 1252 B74B     		ldr	r3, .L95+4
 2480 1254 1B78     		ldrb	r3, [r3]	@ zero_extendqisi2
 2481 1256 1D46     		mov	r5, r3
 2482 1258 B44B     		ldr	r3, .L95
 2483 125a 93F8BF32 		ldrb	r3, [r3, #703]	@ zero_extendqisi2
 2484 125e 03F00F03 		and	r3, r3, #15
 2485 1262 581E     		subs	r0, r3, #1
 2486 1264 B24B     		ldr	r3, .L95+4
 2487 1266 1B78     		ldrb	r3, [r3]	@ zero_extendqisi2
 2488 1268 B04C     		ldr	r4, .L95
 2489 126a 1A46     		mov	r2, r3
 2490 126c 9200     		lsls	r2, r2, #2
 2491 126e 1A44     		add	r2, r2, r3
 2492 1270 0346     		mov	r3, r0
 2493 1272 9B00     		lsls	r3, r3, #2
 2494 1274 0344     		add	r3, r3, r0
 2495 1276 5B00     		lsls	r3, r3, #1
 2496 1278 1344     		add	r3, r3, r2
 2497 127a 2344     		add	r3, r3, r4
 2498 127c 03F26B23 		addw	r3, r3, #619
 2499 1280 1B78     		ldrb	r3, [r3]	@ zero_extendqisi2
 2500 1282 1B09     		lsrs	r3, r3, #4
 2501 1284 DBB2     		uxtb	r3, r3
 2502 1286 3033     		adds	r3, r3, #48
 2503 1288 DCB2     		uxtb	r4, r3
 2504 128a A848     		ldr	r0, .L95
ARM GAS  C:\Users\Diego\AppData\Local\Temp\ccj1d66j.s 			page 50


 2505 128c 2A46     		mov	r2, r5
 2506 128e 9200     		lsls	r2, r2, #2
 2507 1290 2A44     		add	r2, r2, r5
 2508 1292 5300     		lsls	r3, r2, #1
 2509 1294 1A46     		mov	r2, r3
 2510 1296 0B46     		mov	r3, r1
 2511 1298 1B01     		lsls	r3, r3, #4
 2512 129a 5B1A     		subs	r3, r3, r1
 2513 129c 5B00     		lsls	r3, r3, #1
 2514 129e 1344     		add	r3, r3, r2
 2515 12a0 0344     		add	r3, r3, r0
 2516 12a2 03F2ED23 		addw	r3, r3, #749
 2517 12a6 2246     		mov	r2, r4
 2518 12a8 1A70     		strb	r2, [r3]
 251:PumpCom.c     ****             side.c.ProcessedTotals[((side.c.MepsanStore[4])&0x0F)-1][TotalRequestType][1] = (side.c
 2519              		.loc 1 251 0
 2520 12aa A04B     		ldr	r3, .L95
 2521 12ac 93F8BF32 		ldrb	r3, [r3, #703]	@ zero_extendqisi2
 2522 12b0 03F00F03 		and	r3, r3, #15
 2523 12b4 591E     		subs	r1, r3, #1
 2524 12b6 9E4B     		ldr	r3, .L95+4
 2525 12b8 1B78     		ldrb	r3, [r3]	@ zero_extendqisi2
 2526 12ba 1D46     		mov	r5, r3
 2527 12bc 9B4B     		ldr	r3, .L95
 2528 12be 93F8BF32 		ldrb	r3, [r3, #703]	@ zero_extendqisi2
 2529 12c2 03F00F03 		and	r3, r3, #15
 2530 12c6 581E     		subs	r0, r3, #1
 2531 12c8 994B     		ldr	r3, .L95+4
 2532 12ca 1B78     		ldrb	r3, [r3]	@ zero_extendqisi2
 2533 12cc 974C     		ldr	r4, .L95
 2534 12ce 1A46     		mov	r2, r3
 2535 12d0 9200     		lsls	r2, r2, #2
 2536 12d2 1A44     		add	r2, r2, r3
 2537 12d4 0346     		mov	r3, r0
 2538 12d6 9B00     		lsls	r3, r3, #2
 2539 12d8 0344     		add	r3, r3, r0
 2540 12da 5B00     		lsls	r3, r3, #1
 2541 12dc 1344     		add	r3, r3, r2
 2542 12de 2344     		add	r3, r3, r4
 2543 12e0 03F26B23 		addw	r3, r3, #619
 2544 12e4 1B78     		ldrb	r3, [r3]	@ zero_extendqisi2
 2545 12e6 03F00F03 		and	r3, r3, #15
 2546 12ea DBB2     		uxtb	r3, r3
 2547 12ec 3033     		adds	r3, r3, #48
 2548 12ee DCB2     		uxtb	r4, r3
 2549 12f0 8E48     		ldr	r0, .L95
 2550 12f2 2A46     		mov	r2, r5
 2551 12f4 9200     		lsls	r2, r2, #2
 2552 12f6 2A44     		add	r2, r2, r5
 2553 12f8 5300     		lsls	r3, r2, #1
 2554 12fa 1A46     		mov	r2, r3
 2555 12fc 0B46     		mov	r3, r1
 2556 12fe 1B01     		lsls	r3, r3, #4
 2557 1300 5B1A     		subs	r3, r3, r1
 2558 1302 5B00     		lsls	r3, r3, #1
 2559 1304 1344     		add	r3, r3, r2
 2560 1306 0344     		add	r3, r3, r0
ARM GAS  C:\Users\Diego\AppData\Local\Temp\ccj1d66j.s 			page 51


 2561 1308 03F2EE23 		addw	r3, r3, #750
 2562 130c 2246     		mov	r2, r4
 2563 130e 1A70     		strb	r2, [r3]
 252:PumpCom.c     ****             side.c.ProcessedTotals[((side.c.MepsanStore[4])&0x0F)-1][TotalRequestType][2] = (side.c
 2564              		.loc 1 252 0
 2565 1310 864B     		ldr	r3, .L95
 2566 1312 93F8BF32 		ldrb	r3, [r3, #703]	@ zero_extendqisi2
 2567 1316 03F00F03 		and	r3, r3, #15
 2568 131a 591E     		subs	r1, r3, #1
 2569 131c 844B     		ldr	r3, .L95+4
 2570 131e 1B78     		ldrb	r3, [r3]	@ zero_extendqisi2
 2571 1320 1D46     		mov	r5, r3
 2572 1322 824B     		ldr	r3, .L95
 2573 1324 93F8BF32 		ldrb	r3, [r3, #703]	@ zero_extendqisi2
 2574 1328 03F00F03 		and	r3, r3, #15
 2575 132c 581E     		subs	r0, r3, #1
 2576 132e 804B     		ldr	r3, .L95+4
 2577 1330 1B78     		ldrb	r3, [r3]	@ zero_extendqisi2
 2578 1332 7E4C     		ldr	r4, .L95
 2579 1334 1A46     		mov	r2, r3
 2580 1336 9200     		lsls	r2, r2, #2
 2581 1338 1A44     		add	r2, r2, r3
 2582 133a 0346     		mov	r3, r0
 2583 133c 9B00     		lsls	r3, r3, #2
 2584 133e 0344     		add	r3, r3, r0
 2585 1340 5B00     		lsls	r3, r3, #1
 2586 1342 1344     		add	r3, r3, r2
 2587 1344 2344     		add	r3, r3, r4
 2588 1346 03F51B73 		add	r3, r3, #620
 2589 134a 1B78     		ldrb	r3, [r3]	@ zero_extendqisi2
 2590 134c 1B09     		lsrs	r3, r3, #4
 2591 134e DBB2     		uxtb	r3, r3
 2592 1350 3033     		adds	r3, r3, #48
 2593 1352 DCB2     		uxtb	r4, r3
 2594 1354 7548     		ldr	r0, .L95
 2595 1356 2A46     		mov	r2, r5
 2596 1358 9200     		lsls	r2, r2, #2
 2597 135a 2A44     		add	r2, r2, r5
 2598 135c 5300     		lsls	r3, r2, #1
 2599 135e 1A46     		mov	r2, r3
 2600 1360 0B46     		mov	r3, r1
 2601 1362 1B01     		lsls	r3, r3, #4
 2602 1364 5B1A     		subs	r3, r3, r1
 2603 1366 5B00     		lsls	r3, r3, #1
 2604 1368 1344     		add	r3, r3, r2
 2605 136a 0344     		add	r3, r3, r0
 2606 136c 03F2EF23 		addw	r3, r3, #751
 2607 1370 2246     		mov	r2, r4
 2608 1372 1A70     		strb	r2, [r3]
 253:PumpCom.c     ****             side.c.ProcessedTotals[((side.c.MepsanStore[4])&0x0F)-1][TotalRequestType][3] = (side.c
 2609              		.loc 1 253 0
 2610 1374 6D4B     		ldr	r3, .L95
 2611 1376 93F8BF32 		ldrb	r3, [r3, #703]	@ zero_extendqisi2
 2612 137a 03F00F03 		and	r3, r3, #15
 2613 137e 591E     		subs	r1, r3, #1
 2614 1380 6B4B     		ldr	r3, .L95+4
 2615 1382 1B78     		ldrb	r3, [r3]	@ zero_extendqisi2
ARM GAS  C:\Users\Diego\AppData\Local\Temp\ccj1d66j.s 			page 52


 2616 1384 1D46     		mov	r5, r3
 2617 1386 694B     		ldr	r3, .L95
 2618 1388 93F8BF32 		ldrb	r3, [r3, #703]	@ zero_extendqisi2
 2619 138c 03F00F03 		and	r3, r3, #15
 2620 1390 581E     		subs	r0, r3, #1
 2621 1392 674B     		ldr	r3, .L95+4
 2622 1394 1B78     		ldrb	r3, [r3]	@ zero_extendqisi2
 2623 1396 654C     		ldr	r4, .L95
 2624 1398 1A46     		mov	r2, r3
 2625 139a 9200     		lsls	r2, r2, #2
 2626 139c 1A44     		add	r2, r2, r3
 2627 139e 0346     		mov	r3, r0
 2628 13a0 9B00     		lsls	r3, r3, #2
 2629 13a2 0344     		add	r3, r3, r0
 2630 13a4 5B00     		lsls	r3, r3, #1
 2631 13a6 1344     		add	r3, r3, r2
 2632 13a8 2344     		add	r3, r3, r4
 2633 13aa 03F51B73 		add	r3, r3, #620
 2634 13ae 1B78     		ldrb	r3, [r3]	@ zero_extendqisi2
 2635 13b0 03F00F03 		and	r3, r3, #15
 2636 13b4 DBB2     		uxtb	r3, r3
 2637 13b6 3033     		adds	r3, r3, #48
 2638 13b8 DCB2     		uxtb	r4, r3
 2639 13ba 5C48     		ldr	r0, .L95
 2640 13bc 2A46     		mov	r2, r5
 2641 13be 9200     		lsls	r2, r2, #2
 2642 13c0 2A44     		add	r2, r2, r5
 2643 13c2 5300     		lsls	r3, r2, #1
 2644 13c4 1A46     		mov	r2, r3
 2645 13c6 0B46     		mov	r3, r1
 2646 13c8 1B01     		lsls	r3, r3, #4
 2647 13ca 5B1A     		subs	r3, r3, r1
 2648 13cc 5B00     		lsls	r3, r3, #1
 2649 13ce 1344     		add	r3, r3, r2
 2650 13d0 0344     		add	r3, r3, r0
 2651 13d2 03F53C73 		add	r3, r3, #752
 2652 13d6 2246     		mov	r2, r4
 2653 13d8 1A70     		strb	r2, [r3]
 254:PumpCom.c     ****             side.c.ProcessedTotals[((side.c.MepsanStore[4])&0x0F)-1][TotalRequestType][4] = (side.c
 2654              		.loc 1 254 0
 2655 13da 544B     		ldr	r3, .L95
 2656 13dc 93F8BF32 		ldrb	r3, [r3, #703]	@ zero_extendqisi2
 2657 13e0 03F00F03 		and	r3, r3, #15
 2658 13e4 591E     		subs	r1, r3, #1
 2659 13e6 524B     		ldr	r3, .L95+4
 2660 13e8 1B78     		ldrb	r3, [r3]	@ zero_extendqisi2
 2661 13ea 1D46     		mov	r5, r3
 2662 13ec 4F4B     		ldr	r3, .L95
 2663 13ee 93F8BF32 		ldrb	r3, [r3, #703]	@ zero_extendqisi2
 2664 13f2 03F00F03 		and	r3, r3, #15
 2665 13f6 581E     		subs	r0, r3, #1
 2666 13f8 4D4B     		ldr	r3, .L95+4
 2667 13fa 1B78     		ldrb	r3, [r3]	@ zero_extendqisi2
 2668 13fc 4B4C     		ldr	r4, .L95
 2669 13fe 1A46     		mov	r2, r3
 2670 1400 9200     		lsls	r2, r2, #2
 2671 1402 1A44     		add	r2, r2, r3
ARM GAS  C:\Users\Diego\AppData\Local\Temp\ccj1d66j.s 			page 53


 2672 1404 0346     		mov	r3, r0
 2673 1406 9B00     		lsls	r3, r3, #2
 2674 1408 0344     		add	r3, r3, r0
 2675 140a 5B00     		lsls	r3, r3, #1
 2676 140c 1344     		add	r3, r3, r2
 2677 140e 2344     		add	r3, r3, r4
 2678 1410 03F26D23 		addw	r3, r3, #621
 2679 1414 1B78     		ldrb	r3, [r3]	@ zero_extendqisi2
 2680 1416 1B09     		lsrs	r3, r3, #4
 2681 1418 DBB2     		uxtb	r3, r3
 2682 141a 3033     		adds	r3, r3, #48
 2683 141c DCB2     		uxtb	r4, r3
 2684 141e 4348     		ldr	r0, .L95
 2685 1420 2A46     		mov	r2, r5
 2686 1422 9200     		lsls	r2, r2, #2
 2687 1424 2A44     		add	r2, r2, r5
 2688 1426 5300     		lsls	r3, r2, #1
 2689 1428 1A46     		mov	r2, r3
 2690 142a 0B46     		mov	r3, r1
 2691 142c 1B01     		lsls	r3, r3, #4
 2692 142e 5B1A     		subs	r3, r3, r1
 2693 1430 5B00     		lsls	r3, r3, #1
 2694 1432 1344     		add	r3, r3, r2
 2695 1434 0344     		add	r3, r3, r0
 2696 1436 03F2F123 		addw	r3, r3, #753
 2697 143a 2246     		mov	r2, r4
 2698 143c 1A70     		strb	r2, [r3]
 255:PumpCom.c     ****             side.c.ProcessedTotals[((side.c.MepsanStore[4])&0x0F)-1][TotalRequestType][5] = (side.c
 2699              		.loc 1 255 0
 2700 143e 3B4B     		ldr	r3, .L95
 2701 1440 93F8BF32 		ldrb	r3, [r3, #703]	@ zero_extendqisi2
 2702 1444 03F00F03 		and	r3, r3, #15
 2703 1448 591E     		subs	r1, r3, #1
 2704 144a 394B     		ldr	r3, .L95+4
 2705 144c 1B78     		ldrb	r3, [r3]	@ zero_extendqisi2
 2706 144e 1D46     		mov	r5, r3
 2707 1450 364B     		ldr	r3, .L95
 2708 1452 93F8BF32 		ldrb	r3, [r3, #703]	@ zero_extendqisi2
 2709 1456 03F00F03 		and	r3, r3, #15
 2710 145a 581E     		subs	r0, r3, #1
 2711 145c 344B     		ldr	r3, .L95+4
 2712 145e 1B78     		ldrb	r3, [r3]	@ zero_extendqisi2
 2713 1460 324C     		ldr	r4, .L95
 2714 1462 1A46     		mov	r2, r3
 2715 1464 9200     		lsls	r2, r2, #2
 2716 1466 1A44     		add	r2, r2, r3
 2717 1468 0346     		mov	r3, r0
 2718 146a 9B00     		lsls	r3, r3, #2
 2719 146c 0344     		add	r3, r3, r0
 2720 146e 5B00     		lsls	r3, r3, #1
 2721 1470 1344     		add	r3, r3, r2
 2722 1472 2344     		add	r3, r3, r4
 2723 1474 03F26D23 		addw	r3, r3, #621
 2724 1478 1B78     		ldrb	r3, [r3]	@ zero_extendqisi2
 2725 147a 03F00F03 		and	r3, r3, #15
 2726 147e DBB2     		uxtb	r3, r3
 2727 1480 3033     		adds	r3, r3, #48
ARM GAS  C:\Users\Diego\AppData\Local\Temp\ccj1d66j.s 			page 54


 2728 1482 DCB2     		uxtb	r4, r3
 2729 1484 2948     		ldr	r0, .L95
 2730 1486 2A46     		mov	r2, r5
 2731 1488 9200     		lsls	r2, r2, #2
 2732 148a 2A44     		add	r2, r2, r5
 2733 148c 5300     		lsls	r3, r2, #1
 2734 148e 1A46     		mov	r2, r3
 2735 1490 0B46     		mov	r3, r1
 2736 1492 1B01     		lsls	r3, r3, #4
 2737 1494 5B1A     		subs	r3, r3, r1
 2738 1496 5B00     		lsls	r3, r3, #1
 2739 1498 1344     		add	r3, r3, r2
 2740 149a 0344     		add	r3, r3, r0
 2741 149c 03F2F223 		addw	r3, r3, #754
 2742 14a0 2246     		mov	r2, r4
 2743 14a2 1A70     		strb	r2, [r3]
 256:PumpCom.c     ****             side.c.ProcessedTotals[((side.c.MepsanStore[4])&0x0F)-1][TotalRequestType][6] = (side.c
 2744              		.loc 1 256 0
 2745 14a4 214B     		ldr	r3, .L95
 2746 14a6 93F8BF32 		ldrb	r3, [r3, #703]	@ zero_extendqisi2
 2747 14aa 03F00F03 		and	r3, r3, #15
 2748 14ae 591E     		subs	r1, r3, #1
 2749 14b0 1F4B     		ldr	r3, .L95+4
 2750 14b2 1B78     		ldrb	r3, [r3]	@ zero_extendqisi2
 2751 14b4 1D46     		mov	r5, r3
 2752 14b6 1D4B     		ldr	r3, .L95
 2753 14b8 93F8BF32 		ldrb	r3, [r3, #703]	@ zero_extendqisi2
 2754 14bc 03F00F03 		and	r3, r3, #15
 2755 14c0 581E     		subs	r0, r3, #1
 2756 14c2 1B4B     		ldr	r3, .L95+4
 2757 14c4 1B78     		ldrb	r3, [r3]	@ zero_extendqisi2
 2758 14c6 194C     		ldr	r4, .L95
 2759 14c8 1A46     		mov	r2, r3
 2760 14ca 9200     		lsls	r2, r2, #2
 2761 14cc 1A44     		add	r2, r2, r3
 2762 14ce 0346     		mov	r3, r0
 2763 14d0 9B00     		lsls	r3, r3, #2
 2764 14d2 0344     		add	r3, r3, r0
 2765 14d4 5B00     		lsls	r3, r3, #1
 2766 14d6 1344     		add	r3, r3, r2
 2767 14d8 2344     		add	r3, r3, r4
 2768 14da 03F26E23 		addw	r3, r3, #622
 2769 14de 1B78     		ldrb	r3, [r3]	@ zero_extendqisi2
 2770 14e0 1B09     		lsrs	r3, r3, #4
 2771 14e2 DBB2     		uxtb	r3, r3
 2772 14e4 3033     		adds	r3, r3, #48
 2773 14e6 DCB2     		uxtb	r4, r3
 2774 14e8 1048     		ldr	r0, .L95
 2775 14ea 2A46     		mov	r2, r5
 2776 14ec 9200     		lsls	r2, r2, #2
 2777 14ee 2A44     		add	r2, r2, r5
 2778 14f0 5300     		lsls	r3, r2, #1
 2779 14f2 1A46     		mov	r2, r3
 2780 14f4 0B46     		mov	r3, r1
 2781 14f6 1B01     		lsls	r3, r3, #4
 2782 14f8 5B1A     		subs	r3, r3, r1
 2783 14fa 5B00     		lsls	r3, r3, #1
ARM GAS  C:\Users\Diego\AppData\Local\Temp\ccj1d66j.s 			page 55


 2784 14fc 1344     		add	r3, r3, r2
 2785 14fe 0344     		add	r3, r3, r0
 2786 1500 03F2F323 		addw	r3, r3, #755
 2787 1504 2246     		mov	r2, r4
 2788 1506 1A70     		strb	r2, [r3]
 257:PumpCom.c     ****             side.c.ProcessedTotals[((side.c.MepsanStore[4])&0x0F)-1][TotalRequestType][7] = (side.c
 2789              		.loc 1 257 0
 2790 1508 084B     		ldr	r3, .L95
 2791 150a 93F8BF32 		ldrb	r3, [r3, #703]	@ zero_extendqisi2
 2792 150e 03F00F03 		and	r3, r3, #15
 2793 1512 591E     		subs	r1, r3, #1
 2794 1514 064B     		ldr	r3, .L95+4
 2795 1516 1B78     		ldrb	r3, [r3]	@ zero_extendqisi2
 2796 1518 1D46     		mov	r5, r3
 2797 151a 044B     		ldr	r3, .L95
 2798 151c 93F8BF32 		ldrb	r3, [r3, #703]	@ zero_extendqisi2
 2799 1520 03F00F03 		and	r3, r3, #15
 2800 1524 581E     		subs	r0, r3, #1
 2801 1526 024B     		ldr	r3, .L95+4
 2802 1528 1B78     		ldrb	r3, [r3]	@ zero_extendqisi2
 2803 152a 03E0     		b	.L96
 2804              	.L97:
 2805              		.align	2
 2806              	.L95:
 2807 152c 00000000 		.word	side
 2808 1530 00000000 		.word	TotalRequestType
 2809              	.L96:
 2810 1534 C24C     		ldr	r4, .L98
 2811 1536 1A46     		mov	r2, r3
 2812 1538 9200     		lsls	r2, r2, #2
 2813 153a 1A44     		add	r2, r2, r3
 2814 153c 0346     		mov	r3, r0
 2815 153e 9B00     		lsls	r3, r3, #2
 2816 1540 0344     		add	r3, r3, r0
 2817 1542 5B00     		lsls	r3, r3, #1
 2818 1544 1344     		add	r3, r3, r2
 2819 1546 2344     		add	r3, r3, r4
 2820 1548 03F26E23 		addw	r3, r3, #622
 2821 154c 1B78     		ldrb	r3, [r3]	@ zero_extendqisi2
 2822 154e 03F00F03 		and	r3, r3, #15
 2823 1552 DBB2     		uxtb	r3, r3
 2824 1554 3033     		adds	r3, r3, #48
 2825 1556 DCB2     		uxtb	r4, r3
 2826 1558 B948     		ldr	r0, .L98
 2827 155a 2A46     		mov	r2, r5
 2828 155c 9200     		lsls	r2, r2, #2
 2829 155e 2A44     		add	r2, r2, r5
 2830 1560 5300     		lsls	r3, r2, #1
 2831 1562 1A46     		mov	r2, r3
 2832 1564 0B46     		mov	r3, r1
 2833 1566 1B01     		lsls	r3, r3, #4
 2834 1568 5B1A     		subs	r3, r3, r1
 2835 156a 5B00     		lsls	r3, r3, #1
 2836 156c 1344     		add	r3, r3, r2
 2837 156e 0344     		add	r3, r3, r0
 2838 1570 03F53D73 		add	r3, r3, #756
 2839 1574 2246     		mov	r2, r4
ARM GAS  C:\Users\Diego\AppData\Local\Temp\ccj1d66j.s 			page 56


 2840 1576 1A70     		strb	r2, [r3]
 258:PumpCom.c     ****             side.c.ProcessedTotals[((side.c.MepsanStore[4])&0x0F)-1][TotalRequestType][8] = (side.c
 2841              		.loc 1 258 0
 2842 1578 B14B     		ldr	r3, .L98
 2843 157a 93F8BF32 		ldrb	r3, [r3, #703]	@ zero_extendqisi2
 2844 157e 03F00F03 		and	r3, r3, #15
 2845 1582 591E     		subs	r1, r3, #1
 2846 1584 AF4B     		ldr	r3, .L98+4
 2847 1586 1B78     		ldrb	r3, [r3]	@ zero_extendqisi2
 2848 1588 1D46     		mov	r5, r3
 2849 158a AD4B     		ldr	r3, .L98
 2850 158c 93F8BF32 		ldrb	r3, [r3, #703]	@ zero_extendqisi2
 2851 1590 03F00F03 		and	r3, r3, #15
 2852 1594 581E     		subs	r0, r3, #1
 2853 1596 AB4B     		ldr	r3, .L98+4
 2854 1598 1B78     		ldrb	r3, [r3]	@ zero_extendqisi2
 2855 159a A94C     		ldr	r4, .L98
 2856 159c 1A46     		mov	r2, r3
 2857 159e 9200     		lsls	r2, r2, #2
 2858 15a0 1A44     		add	r2, r2, r3
 2859 15a2 0346     		mov	r3, r0
 2860 15a4 9B00     		lsls	r3, r3, #2
 2861 15a6 0344     		add	r3, r3, r0
 2862 15a8 5B00     		lsls	r3, r3, #1
 2863 15aa 1344     		add	r3, r3, r2
 2864 15ac 2344     		add	r3, r3, r4
 2865 15ae 03F26F23 		addw	r3, r3, #623
 2866 15b2 1B78     		ldrb	r3, [r3]	@ zero_extendqisi2
 2867 15b4 1B09     		lsrs	r3, r3, #4
 2868 15b6 DBB2     		uxtb	r3, r3
 2869 15b8 3033     		adds	r3, r3, #48
 2870 15ba DCB2     		uxtb	r4, r3
 2871 15bc A048     		ldr	r0, .L98
 2872 15be 2A46     		mov	r2, r5
 2873 15c0 9200     		lsls	r2, r2, #2
 2874 15c2 2A44     		add	r2, r2, r5
 2875 15c4 5300     		lsls	r3, r2, #1
 2876 15c6 1A46     		mov	r2, r3
 2877 15c8 0B46     		mov	r3, r1
 2878 15ca 1B01     		lsls	r3, r3, #4
 2879 15cc 5B1A     		subs	r3, r3, r1
 2880 15ce 5B00     		lsls	r3, r3, #1
 2881 15d0 1344     		add	r3, r3, r2
 2882 15d2 0344     		add	r3, r3, r0
 2883 15d4 03F2F523 		addw	r3, r3, #757
 2884 15d8 2246     		mov	r2, r4
 2885 15da 1A70     		strb	r2, [r3]
 259:PumpCom.c     ****             side.c.ProcessedTotals[((side.c.MepsanStore[4])&0x0F)-1][TotalRequestType][9] = (side.c
 2886              		.loc 1 259 0
 2887 15dc 984B     		ldr	r3, .L98
 2888 15de 93F8BF32 		ldrb	r3, [r3, #703]	@ zero_extendqisi2
 2889 15e2 03F00F03 		and	r3, r3, #15
 2890 15e6 591E     		subs	r1, r3, #1
 2891 15e8 964B     		ldr	r3, .L98+4
 2892 15ea 1B78     		ldrb	r3, [r3]	@ zero_extendqisi2
 2893 15ec 1D46     		mov	r5, r3
 2894 15ee 944B     		ldr	r3, .L98
ARM GAS  C:\Users\Diego\AppData\Local\Temp\ccj1d66j.s 			page 57


 2895 15f0 93F8BF32 		ldrb	r3, [r3, #703]	@ zero_extendqisi2
 2896 15f4 03F00F03 		and	r3, r3, #15
 2897 15f8 581E     		subs	r0, r3, #1
 2898 15fa 924B     		ldr	r3, .L98+4
 2899 15fc 1B78     		ldrb	r3, [r3]	@ zero_extendqisi2
 2900 15fe 904C     		ldr	r4, .L98
 2901 1600 1A46     		mov	r2, r3
 2902 1602 9200     		lsls	r2, r2, #2
 2903 1604 1A44     		add	r2, r2, r3
 2904 1606 0346     		mov	r3, r0
 2905 1608 9B00     		lsls	r3, r3, #2
 2906 160a 0344     		add	r3, r3, r0
 2907 160c 5B00     		lsls	r3, r3, #1
 2908 160e 1344     		add	r3, r3, r2
 2909 1610 2344     		add	r3, r3, r4
 2910 1612 03F26F23 		addw	r3, r3, #623
 2911 1616 1B78     		ldrb	r3, [r3]	@ zero_extendqisi2
 2912 1618 03F00F03 		and	r3, r3, #15
 2913 161c DBB2     		uxtb	r3, r3
 2914 161e 3033     		adds	r3, r3, #48
 2915 1620 DCB2     		uxtb	r4, r3
 2916 1622 8748     		ldr	r0, .L98
 2917 1624 2A46     		mov	r2, r5
 2918 1626 9200     		lsls	r2, r2, #2
 2919 1628 2A44     		add	r2, r2, r5
 2920 162a 5300     		lsls	r3, r2, #1
 2921 162c 1A46     		mov	r2, r3
 2922 162e 0B46     		mov	r3, r1
 2923 1630 1B01     		lsls	r3, r3, #4
 2924 1632 5B1A     		subs	r3, r3, r1
 2925 1634 5B00     		lsls	r3, r3, #1
 2926 1636 1344     		add	r3, r3, r2
 2927 1638 0344     		add	r3, r3, r0
 2928 163a 03F2F623 		addw	r3, r3, #758
 2929 163e 2246     		mov	r2, r4
 2930 1640 1A70     		strb	r2, [r3]
 260:PumpCom.c     ****             
 261:PumpCom.c     ****             EnablePin_Write (1u);
 2931              		.loc 1 261 0
 2932 1642 0120     		movs	r0, #1
 2933 1644 FFF7FEFF 		bl	EnablePin_Write
 262:PumpCom.c     ****             MEPSAN_PutChar((0x50|address));
 2934              		.loc 1 262 0
 2935 1648 3B79     		ldrb	r3, [r7, #4]
 2936 164a 43F05003 		orr	r3, r3, #80
 2937 164e DBB2     		uxtb	r3, r3
 2938 1650 1846     		mov	r0, r3
 2939 1652 FFF7FEFF 		bl	MEPSAN_PutChar
 263:PumpCom.c     ****             MEPSAN_PutChar(0xC0|(side.c.MepsanStore[1]&0x0F));
 2940              		.loc 1 263 0
 2941 1656 7A4B     		ldr	r3, .L98
 2942 1658 93F8BC32 		ldrb	r3, [r3, #700]	@ zero_extendqisi2
 2943 165c 5BB2     		sxtb	r3, r3
 2944 165e 03F00F03 		and	r3, r3, #15
 2945 1662 5BB2     		sxtb	r3, r3
 2946 1664 63F03F03 		orn	r3, r3, #63
 2947 1668 5BB2     		sxtb	r3, r3
ARM GAS  C:\Users\Diego\AppData\Local\Temp\ccj1d66j.s 			page 58


 2948 166a DBB2     		uxtb	r3, r3
 2949 166c 1846     		mov	r0, r3
 2950 166e FFF7FEFF 		bl	MEPSAN_PutChar
 264:PumpCom.c     ****             MEPSAN_PutChar(0xFA); 
 2951              		.loc 1 264 0
 2952 1672 FA20     		movs	r0, #250
 2953 1674 FFF7FEFF 		bl	MEPSAN_PutChar
 265:PumpCom.c     ****             CyDelay(4);
 2954              		.loc 1 265 0
 2955 1678 0420     		movs	r0, #4
 2956 167a FFF7FEFF 		bl	CyDelay
 266:PumpCom.c     ****             EnablePin_Write (0u);
 2957              		.loc 1 266 0
 2958 167e 0020     		movs	r0, #0
 2959 1680 FFF7FEFF 		bl	EnablePin_Write
 2960              	.L59:
 267:PumpCom.c     ****         }
 268:PumpCom.c     ****         if(side.c.MepsanStore[2] == 0x02){
 2961              		.loc 1 268 0
 2962 1684 6E4B     		ldr	r3, .L98
 2963 1686 93F8BD32 		ldrb	r3, [r3, #701]	@ zero_extendqisi2
 2964 168a 022B     		cmp	r3, #2
 2965 168c 40F0CD80 		bne	.L56
 2966              	.LBB16:
 269:PumpCom.c     ****             for(uint8 x = 4; x < 8; x++ ){
 2967              		.loc 1 269 0
 2968 1690 0423     		movs	r3, #4
 2969 1692 7B72     		strb	r3, [r7, #9]
 2970 1694 1BE0     		b	.L62
 2971              	.L63:
 270:PumpCom.c     ****                 side.c.volumeSale[x-4] = side.c.MepsanStore[x];
 2972              		.loc 1 270 0 discriminator 3
 2973 1696 7B7A     		ldrb	r3, [r7, #9]	@ zero_extendqisi2
 2974 1698 043B     		subs	r3, r3, #4
 2975 169a 7A7A     		ldrb	r2, [r7, #9]	@ zero_extendqisi2
 2976 169c 6849     		ldr	r1, .L98
 2977 169e 0A44     		add	r2, r2, r1
 2978 16a0 92F8BB12 		ldrb	r1, [r2, #699]	@ zero_extendqisi2
 2979 16a4 664A     		ldr	r2, .L98
 2980 16a6 1344     		add	r3, r3, r2
 2981 16a8 0A46     		mov	r2, r1
 2982 16aa 83F8A322 		strb	r2, [r3, #675]
 271:PumpCom.c     ****                 side.c.moneySale[x-4] = side.c.MepsanStore[x+4];
 2983              		.loc 1 271 0 discriminator 3
 2984 16ae 7B7A     		ldrb	r3, [r7, #9]	@ zero_extendqisi2
 2985 16b0 043B     		subs	r3, r3, #4
 2986 16b2 7A7A     		ldrb	r2, [r7, #9]	@ zero_extendqisi2
 2987 16b4 0432     		adds	r2, r2, #4
 2988 16b6 6249     		ldr	r1, .L98
 2989 16b8 0A44     		add	r2, r2, r1
 2990 16ba 92F8BB12 		ldrb	r1, [r2, #699]	@ zero_extendqisi2
 2991 16be 604A     		ldr	r2, .L98
 2992 16c0 1344     		add	r3, r3, r2
 2993 16c2 0A46     		mov	r2, r1
 2994 16c4 83F89F22 		strb	r2, [r3, #671]
 269:PumpCom.c     ****             for(uint8 x = 4; x < 8; x++ ){
 2995              		.loc 1 269 0 discriminator 3
ARM GAS  C:\Users\Diego\AppData\Local\Temp\ccj1d66j.s 			page 59


 2996 16c8 7B7A     		ldrb	r3, [r7, #9]	@ zero_extendqisi2
 2997 16ca 0133     		adds	r3, r3, #1
 2998 16cc 7B72     		strb	r3, [r7, #9]
 2999              	.L62:
 269:PumpCom.c     ****             for(uint8 x = 4; x < 8; x++ ){
 3000              		.loc 1 269 0 is_stmt 0 discriminator 1
 3001 16ce 7B7A     		ldrb	r3, [r7, #9]	@ zero_extendqisi2
 3002 16d0 072B     		cmp	r3, #7
 3003 16d2 E0D9     		bls	.L63
 3004              	.LBE16:
 272:PumpCom.c     ****             }
 273:PumpCom.c     ****             side.c.ProcessedvolumeSale[0] = (side.c.volumeSale[0]  >> 4) + 0x30;
 3005              		.loc 1 273 0 is_stmt 1
 3006 16d4 5A4B     		ldr	r3, .L98
 3007 16d6 93F8A332 		ldrb	r3, [r3, #675]	@ zero_extendqisi2
 3008 16da 1B09     		lsrs	r3, r3, #4
 3009 16dc DBB2     		uxtb	r3, r3
 3010 16de 3033     		adds	r3, r3, #48
 3011 16e0 DAB2     		uxtb	r2, r3
 3012 16e2 574B     		ldr	r3, .L98
 3013 16e4 83F86D23 		strb	r2, [r3, #877]
 274:PumpCom.c     ****             side.c.ProcessedvolumeSale[1] = (side.c.volumeSale[0]  & 0x0F) + 0x30;
 3014              		.loc 1 274 0
 3015 16e8 554B     		ldr	r3, .L98
 3016 16ea 93F8A332 		ldrb	r3, [r3, #675]	@ zero_extendqisi2
 3017 16ee 03F00F03 		and	r3, r3, #15
 3018 16f2 DBB2     		uxtb	r3, r3
 3019 16f4 3033     		adds	r3, r3, #48
 3020 16f6 DAB2     		uxtb	r2, r3
 3021 16f8 514B     		ldr	r3, .L98
 3022 16fa 83F86E23 		strb	r2, [r3, #878]
 275:PumpCom.c     ****             side.c.ProcessedvolumeSale[2] = (side.c.volumeSale[1]  >> 4) + 0x30;
 3023              		.loc 1 275 0
 3024 16fe 504B     		ldr	r3, .L98
 3025 1700 93F8A432 		ldrb	r3, [r3, #676]	@ zero_extendqisi2
 3026 1704 1B09     		lsrs	r3, r3, #4
 3027 1706 DBB2     		uxtb	r3, r3
 3028 1708 3033     		adds	r3, r3, #48
 3029 170a DAB2     		uxtb	r2, r3
 3030 170c 4C4B     		ldr	r3, .L98
 3031 170e 83F86F23 		strb	r2, [r3, #879]
 276:PumpCom.c     ****             side.c.ProcessedvolumeSale[3] = (side.c.volumeSale[1]  & 0x0F) + 0x30;
 3032              		.loc 1 276 0
 3033 1712 4B4B     		ldr	r3, .L98
 3034 1714 93F8A432 		ldrb	r3, [r3, #676]	@ zero_extendqisi2
 3035 1718 03F00F03 		and	r3, r3, #15
 3036 171c DBB2     		uxtb	r3, r3
 3037 171e 3033     		adds	r3, r3, #48
 3038 1720 DAB2     		uxtb	r2, r3
 3039 1722 474B     		ldr	r3, .L98
 3040 1724 83F87023 		strb	r2, [r3, #880]
 277:PumpCom.c     ****             side.c.ProcessedvolumeSale[4] = (side.c.volumeSale[2]  >> 4) + 0x30;
 3041              		.loc 1 277 0
 3042 1728 454B     		ldr	r3, .L98
 3043 172a 93F8A532 		ldrb	r3, [r3, #677]	@ zero_extendqisi2
 3044 172e 1B09     		lsrs	r3, r3, #4
 3045 1730 DBB2     		uxtb	r3, r3
ARM GAS  C:\Users\Diego\AppData\Local\Temp\ccj1d66j.s 			page 60


 3046 1732 3033     		adds	r3, r3, #48
 3047 1734 DAB2     		uxtb	r2, r3
 3048 1736 424B     		ldr	r3, .L98
 3049 1738 83F87123 		strb	r2, [r3, #881]
 278:PumpCom.c     ****             side.c.ProcessedvolumeSale[5] = (side.c.volumeSale[2]  & 0x0F) + 0x30;
 3050              		.loc 1 278 0
 3051 173c 404B     		ldr	r3, .L98
 3052 173e 93F8A532 		ldrb	r3, [r3, #677]	@ zero_extendqisi2
 3053 1742 03F00F03 		and	r3, r3, #15
 3054 1746 DBB2     		uxtb	r3, r3
 3055 1748 3033     		adds	r3, r3, #48
 3056 174a DAB2     		uxtb	r2, r3
 3057 174c 3C4B     		ldr	r3, .L98
 3058 174e 83F87223 		strb	r2, [r3, #882]
 279:PumpCom.c     ****             side.c.ProcessedvolumeSale[6] = (side.c.volumeSale[3]  >> 4) + 0x30;
 3059              		.loc 1 279 0
 3060 1752 3B4B     		ldr	r3, .L98
 3061 1754 93F8A632 		ldrb	r3, [r3, #678]	@ zero_extendqisi2
 3062 1758 1B09     		lsrs	r3, r3, #4
 3063 175a DBB2     		uxtb	r3, r3
 3064 175c 3033     		adds	r3, r3, #48
 3065 175e DAB2     		uxtb	r2, r3
 3066 1760 374B     		ldr	r3, .L98
 3067 1762 83F87323 		strb	r2, [r3, #883]
 280:PumpCom.c     ****             side.c.ProcessedvolumeSale[7] = (side.c.volumeSale[3]  & 0x0F) + 0x30;
 3068              		.loc 1 280 0
 3069 1766 364B     		ldr	r3, .L98
 3070 1768 93F8A632 		ldrb	r3, [r3, #678]	@ zero_extendqisi2
 3071 176c 03F00F03 		and	r3, r3, #15
 3072 1770 DBB2     		uxtb	r3, r3
 3073 1772 3033     		adds	r3, r3, #48
 3074 1774 DAB2     		uxtb	r2, r3
 3075 1776 324B     		ldr	r3, .L98
 3076 1778 83F87423 		strb	r2, [r3, #884]
 281:PumpCom.c     ****             
 282:PumpCom.c     ****             side.c.ProcessedmoneySale[0] = (side.c.moneySale[0]  >> 4) + 0x30;
 3077              		.loc 1 282 0
 3078 177c 304B     		ldr	r3, .L98
 3079 177e 93F89F32 		ldrb	r3, [r3, #671]	@ zero_extendqisi2
 3080 1782 1B09     		lsrs	r3, r3, #4
 3081 1784 DBB2     		uxtb	r3, r3
 3082 1786 3033     		adds	r3, r3, #48
 3083 1788 DAB2     		uxtb	r2, r3
 3084 178a 2D4B     		ldr	r3, .L98
 3085 178c 83F86523 		strb	r2, [r3, #869]
 283:PumpCom.c     ****             side.c.ProcessedmoneySale[1] = (side.c.moneySale[0]  & 0x0F) + 0x30;
 3086              		.loc 1 283 0
 3087 1790 2B4B     		ldr	r3, .L98
 3088 1792 93F89F32 		ldrb	r3, [r3, #671]	@ zero_extendqisi2
 3089 1796 03F00F03 		and	r3, r3, #15
 3090 179a DBB2     		uxtb	r3, r3
 3091 179c 3033     		adds	r3, r3, #48
 3092 179e DAB2     		uxtb	r2, r3
 3093 17a0 274B     		ldr	r3, .L98
 3094 17a2 83F86623 		strb	r2, [r3, #870]
 284:PumpCom.c     ****             side.c.ProcessedmoneySale[2] = (side.c.moneySale[1]  >> 4) + 0x30;
 3095              		.loc 1 284 0
ARM GAS  C:\Users\Diego\AppData\Local\Temp\ccj1d66j.s 			page 61


 3096 17a6 264B     		ldr	r3, .L98
 3097 17a8 93F8A032 		ldrb	r3, [r3, #672]	@ zero_extendqisi2
 3098 17ac 1B09     		lsrs	r3, r3, #4
 3099 17ae DBB2     		uxtb	r3, r3
 3100 17b0 3033     		adds	r3, r3, #48
 3101 17b2 DAB2     		uxtb	r2, r3
 3102 17b4 224B     		ldr	r3, .L98
 3103 17b6 83F86723 		strb	r2, [r3, #871]
 285:PumpCom.c     ****             side.c.ProcessedmoneySale[3] = (side.c.moneySale[1]  & 0x0F) + 0x30;
 3104              		.loc 1 285 0
 3105 17ba 214B     		ldr	r3, .L98
 3106 17bc 93F8A032 		ldrb	r3, [r3, #672]	@ zero_extendqisi2
 3107 17c0 03F00F03 		and	r3, r3, #15
 3108 17c4 DBB2     		uxtb	r3, r3
 3109 17c6 3033     		adds	r3, r3, #48
 3110 17c8 DAB2     		uxtb	r2, r3
 3111 17ca 1D4B     		ldr	r3, .L98
 3112 17cc 83F86823 		strb	r2, [r3, #872]
 286:PumpCom.c     ****             side.c.ProcessedmoneySale[4] = (side.c.moneySale[2]  >> 4) + 0x30;
 3113              		.loc 1 286 0
 3114 17d0 1B4B     		ldr	r3, .L98
 3115 17d2 93F8A132 		ldrb	r3, [r3, #673]	@ zero_extendqisi2
 3116 17d6 1B09     		lsrs	r3, r3, #4
 3117 17d8 DBB2     		uxtb	r3, r3
 3118 17da 3033     		adds	r3, r3, #48
 3119 17dc DAB2     		uxtb	r2, r3
 3120 17de 184B     		ldr	r3, .L98
 3121 17e0 83F86923 		strb	r2, [r3, #873]
 287:PumpCom.c     ****             side.c.ProcessedmoneySale[5] = (side.c.moneySale[2]  & 0x0F) + 0x30;
 3122              		.loc 1 287 0
 3123 17e4 164B     		ldr	r3, .L98
 3124 17e6 93F8A132 		ldrb	r3, [r3, #673]	@ zero_extendqisi2
 3125 17ea 03F00F03 		and	r3, r3, #15
 3126 17ee DBB2     		uxtb	r3, r3
 3127 17f0 3033     		adds	r3, r3, #48
 3128 17f2 DAB2     		uxtb	r2, r3
 3129 17f4 124B     		ldr	r3, .L98
 3130 17f6 83F86A23 		strb	r2, [r3, #874]
 288:PumpCom.c     ****             side.c.ProcessedmoneySale[6] = (side.c.moneySale[3]  >> 4) + 0x30;
 3131              		.loc 1 288 0
 3132 17fa 114B     		ldr	r3, .L98
 3133 17fc 93F8A232 		ldrb	r3, [r3, #674]	@ zero_extendqisi2
 3134 1800 1B09     		lsrs	r3, r3, #4
 3135 1802 DBB2     		uxtb	r3, r3
 3136 1804 3033     		adds	r3, r3, #48
 3137 1806 DAB2     		uxtb	r2, r3
 3138 1808 0D4B     		ldr	r3, .L98
 3139 180a 83F86B23 		strb	r2, [r3, #875]
 289:PumpCom.c     ****             side.c.ProcessedmoneySale[7] = (side.c.moneySale[3]  & 0x0F) + 0x30;
 3140              		.loc 1 289 0
 3141 180e 0C4B     		ldr	r3, .L98
 3142 1810 93F8A232 		ldrb	r3, [r3, #674]	@ zero_extendqisi2
 3143 1814 03F00F03 		and	r3, r3, #15
 3144 1818 DBB2     		uxtb	r3, r3
 3145 181a 3033     		adds	r3, r3, #48
 3146 181c DAB2     		uxtb	r2, r3
 3147 181e 084B     		ldr	r3, .L98
ARM GAS  C:\Users\Diego\AppData\Local\Temp\ccj1d66j.s 			page 62


 3148 1820 83F86C23 		strb	r2, [r3, #876]
 290:PumpCom.c     ****             
 291:PumpCom.c     ****             EnablePin_Write (0u);
 3149              		.loc 1 291 0
 3150 1824 0020     		movs	r0, #0
 3151 1826 FFF7FEFF 		bl	EnablePin_Write
 3152              	.L56:
 292:PumpCom.c     ****         }
 293:PumpCom.c     ****     }
 294:PumpCom.c     ****     if(address == side.d.dir){
 3153              		.loc 1 294 0
 3154 182a 054B     		ldr	r3, .L98
 3155 182c 93F89F33 		ldrb	r3, [r3, #927]	@ zero_extendqisi2
 3156 1830 3A79     		ldrb	r2, [r7, #4]	@ zero_extendqisi2
 3157 1832 9A42     		cmp	r2, r3
 3158 1834 40F04383 		bne	.L78
 3159              	.LBB17:
 295:PumpCom.c     ****         for(uint8 MepRx = 1; MepRx < size + 1; MepRx++){
 3160              		.loc 1 295 0
 3161 1838 0123     		movs	r3, #1
 3162 183a 3B72     		strb	r3, [r7, #8]
 3163 183c 11E0     		b	.L65
 3164              	.L99:
 3165 183e 00BF     		.align	2
 3166              	.L98:
 3167 1840 00000000 		.word	side
 3168 1844 00000000 		.word	TotalRequestType
 3169              	.L66:
 296:PumpCom.c     ****             side.d.MepsanStore[MepRx - 1] = MepsanResponse[MepRx];
 3170              		.loc 1 296 0 discriminator 3
 3171 1848 3B7A     		ldrb	r3, [r7, #8]	@ zero_extendqisi2
 3172 184a 013B     		subs	r3, r3, #1
 3173 184c 3A7A     		ldrb	r2, [r7, #8]	@ zero_extendqisi2
 3174 184e 0C49     		ldr	r1, .L100
 3175 1850 895C     		ldrb	r1, [r1, r2]	@ zero_extendqisi2
 3176 1852 0C4A     		ldr	r2, .L100+4
 3177 1854 1344     		add	r3, r3, r2
 3178 1856 0A46     		mov	r2, r1
 3179 1858 83F8F023 		strb	r2, [r3, #1008]
 295:PumpCom.c     ****         for(uint8 MepRx = 1; MepRx < size + 1; MepRx++){
 3180              		.loc 1 295 0 discriminator 3
 3181 185c 3B7A     		ldrb	r3, [r7, #8]	@ zero_extendqisi2
 3182 185e 0133     		adds	r3, r3, #1
 3183 1860 3B72     		strb	r3, [r7, #8]
 3184              	.L65:
 295:PumpCom.c     ****         for(uint8 MepRx = 1; MepRx < size + 1; MepRx++){
 3185              		.loc 1 295 0 is_stmt 0 discriminator 1
 3186 1862 3A7A     		ldrb	r2, [r7, #8]	@ zero_extendqisi2
 3187 1864 7B79     		ldrb	r3, [r7, #5]	@ zero_extendqisi2
 3188 1866 0133     		adds	r3, r3, #1
 3189 1868 9A42     		cmp	r2, r3
 3190 186a EDDB     		blt	.L66
 3191              	.LBE17:
 297:PumpCom.c     ****         }
 298:PumpCom.c     ****         if(side.d.MepsanStore[2] == 0x65){
 3192              		.loc 1 298 0 is_stmt 1
 3193 186c 054B     		ldr	r3, .L100+4
ARM GAS  C:\Users\Diego\AppData\Local\Temp\ccj1d66j.s 			page 63


 3194 186e 93F8F233 		ldrb	r3, [r3, #1010]	@ zero_extendqisi2
 3195 1872 652B     		cmp	r3, #101
 3196 1874 40F05082 		bne	.L67
 3197              	.LBB18:
 299:PumpCom.c     ****             for(uint8 x = 5; x < (side.d.MepsanStore[3]-1) + 5; x++ ){
 3198              		.loc 1 299 0
 3199 1878 0523     		movs	r3, #5
 3200 187a FB71     		strb	r3, [r7, #7]
 3201 187c 26E0     		b	.L68
 3202              	.L101:
 3203 187e 00BF     		.align	2
 3204              	.L100:
 3205 1880 00000000 		.word	MepsanResponse
 3206 1884 00000000 		.word	side
 3207              	.L69:
 300:PumpCom.c     ****                 side.d.totalsNozzle[((side.d.MepsanStore[4])&0x0F)-1][TotalRequestType][x-5] = side
 3208              		.loc 1 300 0 discriminator 3
 3209 1888 CD4B     		ldr	r3, .L102
 3210 188a 93F8F433 		ldrb	r3, [r3, #1012]	@ zero_extendqisi2
 3211 188e 03F00F03 		and	r3, r3, #15
 3212 1892 591E     		subs	r1, r3, #1
 3213 1894 CB4B     		ldr	r3, .L102+4
 3214 1896 1B78     		ldrb	r3, [r3]	@ zero_extendqisi2
 3215 1898 1D46     		mov	r5, r3
 3216 189a FB79     		ldrb	r3, [r7, #7]	@ zero_extendqisi2
 3217 189c 581F     		subs	r0, r3, #5
 3218 189e FB79     		ldrb	r3, [r7, #7]	@ zero_extendqisi2
 3219 18a0 C74A     		ldr	r2, .L102
 3220 18a2 1344     		add	r3, r3, r2
 3221 18a4 93F8F063 		ldrb	r6, [r3, #1008]	@ zero_extendqisi2
 3222 18a8 C54C     		ldr	r4, .L102
 3223 18aa 2A46     		mov	r2, r5
 3224 18ac 9200     		lsls	r2, r2, #2
 3225 18ae 2A44     		add	r2, r2, r5
 3226 18b0 0B46     		mov	r3, r1
 3227 18b2 9B00     		lsls	r3, r3, #2
 3228 18b4 0B44     		add	r3, r3, r1
 3229 18b6 5B00     		lsls	r3, r3, #1
 3230 18b8 1344     		add	r3, r3, r2
 3231 18ba 2344     		add	r3, r3, r4
 3232 18bc 0344     		add	r3, r3, r0
 3233 18be 03F56873 		add	r3, r3, #928
 3234 18c2 3246     		mov	r2, r6
 3235 18c4 1A70     		strb	r2, [r3]
 299:PumpCom.c     ****             for(uint8 x = 5; x < (side.d.MepsanStore[3]-1) + 5; x++ ){
 3236              		.loc 1 299 0 discriminator 3
 3237 18c6 FB79     		ldrb	r3, [r7, #7]	@ zero_extendqisi2
 3238 18c8 0133     		adds	r3, r3, #1
 3239 18ca FB71     		strb	r3, [r7, #7]
 3240              	.L68:
 299:PumpCom.c     ****             for(uint8 x = 5; x < (side.d.MepsanStore[3]-1) + 5; x++ ){
 3241              		.loc 1 299 0 is_stmt 0 discriminator 1
 3242 18cc FA79     		ldrb	r2, [r7, #7]	@ zero_extendqisi2
 3243 18ce BC4B     		ldr	r3, .L102
 3244 18d0 93F8F333 		ldrb	r3, [r3, #1011]	@ zero_extendqisi2
 3245 18d4 0433     		adds	r3, r3, #4
 3246 18d6 9A42     		cmp	r2, r3
ARM GAS  C:\Users\Diego\AppData\Local\Temp\ccj1d66j.s 			page 64


 3247 18d8 D6DB     		blt	.L69
 3248              	.LBE18:
 301:PumpCom.c     ****             }
 302:PumpCom.c     ****             
 303:PumpCom.c     ****             side.d.ProcessedTotals[((side.d.MepsanStore[4])&0x0F)-1][TotalRequestType][0] = (side.d
 3249              		.loc 1 303 0 is_stmt 1
 3250 18da B94B     		ldr	r3, .L102
 3251 18dc 93F8F433 		ldrb	r3, [r3, #1012]	@ zero_extendqisi2
 3252 18e0 03F00F03 		and	r3, r3, #15
 3253 18e4 591E     		subs	r1, r3, #1
 3254 18e6 B74B     		ldr	r3, .L102+4
 3255 18e8 1B78     		ldrb	r3, [r3]	@ zero_extendqisi2
 3256 18ea 1D46     		mov	r5, r3
 3257 18ec B44B     		ldr	r3, .L102
 3258 18ee 93F8F433 		ldrb	r3, [r3, #1012]	@ zero_extendqisi2
 3259 18f2 03F00F03 		and	r3, r3, #15
 3260 18f6 581E     		subs	r0, r3, #1
 3261 18f8 B24B     		ldr	r3, .L102+4
 3262 18fa 1B78     		ldrb	r3, [r3]	@ zero_extendqisi2
 3263 18fc B04C     		ldr	r4, .L102
 3264 18fe 1A46     		mov	r2, r3
 3265 1900 9200     		lsls	r2, r2, #2
 3266 1902 1A44     		add	r2, r2, r3
 3267 1904 0346     		mov	r3, r0
 3268 1906 9B00     		lsls	r3, r3, #2
 3269 1908 0344     		add	r3, r3, r0
 3270 190a 5B00     		lsls	r3, r3, #1
 3271 190c 1344     		add	r3, r3, r2
 3272 190e 2344     		add	r3, r3, r4
 3273 1910 03F56873 		add	r3, r3, #928
 3274 1914 1B78     		ldrb	r3, [r3]	@ zero_extendqisi2
 3275 1916 1B09     		lsrs	r3, r3, #4
 3276 1918 DBB2     		uxtb	r3, r3
 3277 191a 3033     		adds	r3, r3, #48
 3278 191c DCB2     		uxtb	r4, r3
 3279 191e A848     		ldr	r0, .L102
 3280 1920 2A46     		mov	r2, r5
 3281 1922 9200     		lsls	r2, r2, #2
 3282 1924 2A44     		add	r2, r2, r5
 3283 1926 5300     		lsls	r3, r2, #1
 3284 1928 1A46     		mov	r2, r3
 3285 192a 0B46     		mov	r3, r1
 3286 192c 1B01     		lsls	r3, r3, #4
 3287 192e 5B1A     		subs	r3, r3, r1
 3288 1930 5B00     		lsls	r3, r3, #1
 3289 1932 1344     		add	r3, r3, r2
 3290 1934 0344     		add	r3, r3, r0
 3291 1936 03F22243 		addw	r3, r3, #1058
 3292 193a 2246     		mov	r2, r4
 3293 193c 1A70     		strb	r2, [r3]
 304:PumpCom.c     ****             side.d.ProcessedTotals[((side.d.MepsanStore[4])&0x0F)-1][TotalRequestType][1] = (side.d
 3294              		.loc 1 304 0
 3295 193e A04B     		ldr	r3, .L102
 3296 1940 93F8F433 		ldrb	r3, [r3, #1012]	@ zero_extendqisi2
 3297 1944 03F00F03 		and	r3, r3, #15
 3298 1948 591E     		subs	r1, r3, #1
 3299 194a 9E4B     		ldr	r3, .L102+4
ARM GAS  C:\Users\Diego\AppData\Local\Temp\ccj1d66j.s 			page 65


 3300 194c 1B78     		ldrb	r3, [r3]	@ zero_extendqisi2
 3301 194e 1D46     		mov	r5, r3
 3302 1950 9B4B     		ldr	r3, .L102
 3303 1952 93F8F433 		ldrb	r3, [r3, #1012]	@ zero_extendqisi2
 3304 1956 03F00F03 		and	r3, r3, #15
 3305 195a 581E     		subs	r0, r3, #1
 3306 195c 994B     		ldr	r3, .L102+4
 3307 195e 1B78     		ldrb	r3, [r3]	@ zero_extendqisi2
 3308 1960 974C     		ldr	r4, .L102
 3309 1962 1A46     		mov	r2, r3
 3310 1964 9200     		lsls	r2, r2, #2
 3311 1966 1A44     		add	r2, r2, r3
 3312 1968 0346     		mov	r3, r0
 3313 196a 9B00     		lsls	r3, r3, #2
 3314 196c 0344     		add	r3, r3, r0
 3315 196e 5B00     		lsls	r3, r3, #1
 3316 1970 1344     		add	r3, r3, r2
 3317 1972 2344     		add	r3, r3, r4
 3318 1974 03F56873 		add	r3, r3, #928
 3319 1978 1B78     		ldrb	r3, [r3]	@ zero_extendqisi2
 3320 197a 03F00F03 		and	r3, r3, #15
 3321 197e DBB2     		uxtb	r3, r3
 3322 1980 3033     		adds	r3, r3, #48
 3323 1982 DCB2     		uxtb	r4, r3
 3324 1984 8E48     		ldr	r0, .L102
 3325 1986 2A46     		mov	r2, r5
 3326 1988 9200     		lsls	r2, r2, #2
 3327 198a 2A44     		add	r2, r2, r5
 3328 198c 5300     		lsls	r3, r2, #1
 3329 198e 1A46     		mov	r2, r3
 3330 1990 0B46     		mov	r3, r1
 3331 1992 1B01     		lsls	r3, r3, #4
 3332 1994 5B1A     		subs	r3, r3, r1
 3333 1996 5B00     		lsls	r3, r3, #1
 3334 1998 1344     		add	r3, r3, r2
 3335 199a 0344     		add	r3, r3, r0
 3336 199c 03F22343 		addw	r3, r3, #1059
 3337 19a0 2246     		mov	r2, r4
 3338 19a2 1A70     		strb	r2, [r3]
 305:PumpCom.c     ****             side.d.ProcessedTotals[((side.d.MepsanStore[4])&0x0F)-1][TotalRequestType][2] = (side.d
 3339              		.loc 1 305 0
 3340 19a4 864B     		ldr	r3, .L102
 3341 19a6 93F8F433 		ldrb	r3, [r3, #1012]	@ zero_extendqisi2
 3342 19aa 03F00F03 		and	r3, r3, #15
 3343 19ae 591E     		subs	r1, r3, #1
 3344 19b0 844B     		ldr	r3, .L102+4
 3345 19b2 1B78     		ldrb	r3, [r3]	@ zero_extendqisi2
 3346 19b4 1D46     		mov	r5, r3
 3347 19b6 824B     		ldr	r3, .L102
 3348 19b8 93F8F433 		ldrb	r3, [r3, #1012]	@ zero_extendqisi2
 3349 19bc 03F00F03 		and	r3, r3, #15
 3350 19c0 581E     		subs	r0, r3, #1
 3351 19c2 804B     		ldr	r3, .L102+4
 3352 19c4 1B78     		ldrb	r3, [r3]	@ zero_extendqisi2
 3353 19c6 7E4C     		ldr	r4, .L102
 3354 19c8 1A46     		mov	r2, r3
 3355 19ca 9200     		lsls	r2, r2, #2
ARM GAS  C:\Users\Diego\AppData\Local\Temp\ccj1d66j.s 			page 66


 3356 19cc 1A44     		add	r2, r2, r3
 3357 19ce 0346     		mov	r3, r0
 3358 19d0 9B00     		lsls	r3, r3, #2
 3359 19d2 0344     		add	r3, r3, r0
 3360 19d4 5B00     		lsls	r3, r3, #1
 3361 19d6 1344     		add	r3, r3, r2
 3362 19d8 2344     		add	r3, r3, r4
 3363 19da 03F2A133 		addw	r3, r3, #929
 3364 19de 1B78     		ldrb	r3, [r3]	@ zero_extendqisi2
 3365 19e0 1B09     		lsrs	r3, r3, #4
 3366 19e2 DBB2     		uxtb	r3, r3
 3367 19e4 3033     		adds	r3, r3, #48
 3368 19e6 DCB2     		uxtb	r4, r3
 3369 19e8 7548     		ldr	r0, .L102
 3370 19ea 2A46     		mov	r2, r5
 3371 19ec 9200     		lsls	r2, r2, #2
 3372 19ee 2A44     		add	r2, r2, r5
 3373 19f0 5300     		lsls	r3, r2, #1
 3374 19f2 1A46     		mov	r2, r3
 3375 19f4 0B46     		mov	r3, r1
 3376 19f6 1B01     		lsls	r3, r3, #4
 3377 19f8 5B1A     		subs	r3, r3, r1
 3378 19fa 5B00     		lsls	r3, r3, #1
 3379 19fc 1344     		add	r3, r3, r2
 3380 19fe 0344     		add	r3, r3, r0
 3381 1a00 03F22443 		addw	r3, r3, #1060
 3382 1a04 2246     		mov	r2, r4
 3383 1a06 1A70     		strb	r2, [r3]
 306:PumpCom.c     ****             side.d.ProcessedTotals[((side.d.MepsanStore[4])&0x0F)-1][TotalRequestType][3] = (side.d
 3384              		.loc 1 306 0
 3385 1a08 6D4B     		ldr	r3, .L102
 3386 1a0a 93F8F433 		ldrb	r3, [r3, #1012]	@ zero_extendqisi2
 3387 1a0e 03F00F03 		and	r3, r3, #15
 3388 1a12 591E     		subs	r1, r3, #1
 3389 1a14 6B4B     		ldr	r3, .L102+4
 3390 1a16 1B78     		ldrb	r3, [r3]	@ zero_extendqisi2
 3391 1a18 1D46     		mov	r5, r3
 3392 1a1a 694B     		ldr	r3, .L102
 3393 1a1c 93F8F433 		ldrb	r3, [r3, #1012]	@ zero_extendqisi2
 3394 1a20 03F00F03 		and	r3, r3, #15
 3395 1a24 581E     		subs	r0, r3, #1
 3396 1a26 674B     		ldr	r3, .L102+4
 3397 1a28 1B78     		ldrb	r3, [r3]	@ zero_extendqisi2
 3398 1a2a 654C     		ldr	r4, .L102
 3399 1a2c 1A46     		mov	r2, r3
 3400 1a2e 9200     		lsls	r2, r2, #2
 3401 1a30 1A44     		add	r2, r2, r3
 3402 1a32 0346     		mov	r3, r0
 3403 1a34 9B00     		lsls	r3, r3, #2
 3404 1a36 0344     		add	r3, r3, r0
 3405 1a38 5B00     		lsls	r3, r3, #1
 3406 1a3a 1344     		add	r3, r3, r2
 3407 1a3c 2344     		add	r3, r3, r4
 3408 1a3e 03F2A133 		addw	r3, r3, #929
 3409 1a42 1B78     		ldrb	r3, [r3]	@ zero_extendqisi2
 3410 1a44 03F00F03 		and	r3, r3, #15
 3411 1a48 DBB2     		uxtb	r3, r3
ARM GAS  C:\Users\Diego\AppData\Local\Temp\ccj1d66j.s 			page 67


 3412 1a4a 3033     		adds	r3, r3, #48
 3413 1a4c DCB2     		uxtb	r4, r3
 3414 1a4e 5C48     		ldr	r0, .L102
 3415 1a50 2A46     		mov	r2, r5
 3416 1a52 9200     		lsls	r2, r2, #2
 3417 1a54 2A44     		add	r2, r2, r5
 3418 1a56 5300     		lsls	r3, r2, #1
 3419 1a58 1A46     		mov	r2, r3
 3420 1a5a 0B46     		mov	r3, r1
 3421 1a5c 1B01     		lsls	r3, r3, #4
 3422 1a5e 5B1A     		subs	r3, r3, r1
 3423 1a60 5B00     		lsls	r3, r3, #1
 3424 1a62 1344     		add	r3, r3, r2
 3425 1a64 0344     		add	r3, r3, r0
 3426 1a66 03F22543 		addw	r3, r3, #1061
 3427 1a6a 2246     		mov	r2, r4
 3428 1a6c 1A70     		strb	r2, [r3]
 307:PumpCom.c     ****             side.d.ProcessedTotals[((side.d.MepsanStore[4])&0x0F)-1][TotalRequestType][4] = (side.d
 3429              		.loc 1 307 0
 3430 1a6e 544B     		ldr	r3, .L102
 3431 1a70 93F8F433 		ldrb	r3, [r3, #1012]	@ zero_extendqisi2
 3432 1a74 03F00F03 		and	r3, r3, #15
 3433 1a78 591E     		subs	r1, r3, #1
 3434 1a7a 524B     		ldr	r3, .L102+4
 3435 1a7c 1B78     		ldrb	r3, [r3]	@ zero_extendqisi2
 3436 1a7e 1D46     		mov	r5, r3
 3437 1a80 4F4B     		ldr	r3, .L102
 3438 1a82 93F8F433 		ldrb	r3, [r3, #1012]	@ zero_extendqisi2
 3439 1a86 03F00F03 		and	r3, r3, #15
 3440 1a8a 581E     		subs	r0, r3, #1
 3441 1a8c 4D4B     		ldr	r3, .L102+4
 3442 1a8e 1B78     		ldrb	r3, [r3]	@ zero_extendqisi2
 3443 1a90 4B4C     		ldr	r4, .L102
 3444 1a92 1A46     		mov	r2, r3
 3445 1a94 9200     		lsls	r2, r2, #2
 3446 1a96 1A44     		add	r2, r2, r3
 3447 1a98 0346     		mov	r3, r0
 3448 1a9a 9B00     		lsls	r3, r3, #2
 3449 1a9c 0344     		add	r3, r3, r0
 3450 1a9e 5B00     		lsls	r3, r3, #1
 3451 1aa0 1344     		add	r3, r3, r2
 3452 1aa2 2344     		add	r3, r3, r4
 3453 1aa4 03F2A233 		addw	r3, r3, #930
 3454 1aa8 1B78     		ldrb	r3, [r3]	@ zero_extendqisi2
 3455 1aaa 1B09     		lsrs	r3, r3, #4
 3456 1aac DBB2     		uxtb	r3, r3
 3457 1aae 3033     		adds	r3, r3, #48
 3458 1ab0 DCB2     		uxtb	r4, r3
 3459 1ab2 4348     		ldr	r0, .L102
 3460 1ab4 2A46     		mov	r2, r5
 3461 1ab6 9200     		lsls	r2, r2, #2
 3462 1ab8 2A44     		add	r2, r2, r5
 3463 1aba 5300     		lsls	r3, r2, #1
 3464 1abc 1A46     		mov	r2, r3
 3465 1abe 0B46     		mov	r3, r1
 3466 1ac0 1B01     		lsls	r3, r3, #4
 3467 1ac2 5B1A     		subs	r3, r3, r1
ARM GAS  C:\Users\Diego\AppData\Local\Temp\ccj1d66j.s 			page 68


 3468 1ac4 5B00     		lsls	r3, r3, #1
 3469 1ac6 1344     		add	r3, r3, r2
 3470 1ac8 0344     		add	r3, r3, r0
 3471 1aca 03F22643 		addw	r3, r3, #1062
 3472 1ace 2246     		mov	r2, r4
 3473 1ad0 1A70     		strb	r2, [r3]
 308:PumpCom.c     ****             side.d.ProcessedTotals[((side.d.MepsanStore[4])&0x0F)-1][TotalRequestType][5] = (side.d
 3474              		.loc 1 308 0
 3475 1ad2 3B4B     		ldr	r3, .L102
 3476 1ad4 93F8F433 		ldrb	r3, [r3, #1012]	@ zero_extendqisi2
 3477 1ad8 03F00F03 		and	r3, r3, #15
 3478 1adc 591E     		subs	r1, r3, #1
 3479 1ade 394B     		ldr	r3, .L102+4
 3480 1ae0 1B78     		ldrb	r3, [r3]	@ zero_extendqisi2
 3481 1ae2 1D46     		mov	r5, r3
 3482 1ae4 364B     		ldr	r3, .L102
 3483 1ae6 93F8F433 		ldrb	r3, [r3, #1012]	@ zero_extendqisi2
 3484 1aea 03F00F03 		and	r3, r3, #15
 3485 1aee 581E     		subs	r0, r3, #1
 3486 1af0 344B     		ldr	r3, .L102+4
 3487 1af2 1B78     		ldrb	r3, [r3]	@ zero_extendqisi2
 3488 1af4 324C     		ldr	r4, .L102
 3489 1af6 1A46     		mov	r2, r3
 3490 1af8 9200     		lsls	r2, r2, #2
 3491 1afa 1A44     		add	r2, r2, r3
 3492 1afc 0346     		mov	r3, r0
 3493 1afe 9B00     		lsls	r3, r3, #2
 3494 1b00 0344     		add	r3, r3, r0
 3495 1b02 5B00     		lsls	r3, r3, #1
 3496 1b04 1344     		add	r3, r3, r2
 3497 1b06 2344     		add	r3, r3, r4
 3498 1b08 03F2A233 		addw	r3, r3, #930
 3499 1b0c 1B78     		ldrb	r3, [r3]	@ zero_extendqisi2
 3500 1b0e 03F00F03 		and	r3, r3, #15
 3501 1b12 DBB2     		uxtb	r3, r3
 3502 1b14 3033     		adds	r3, r3, #48
 3503 1b16 DCB2     		uxtb	r4, r3
 3504 1b18 2948     		ldr	r0, .L102
 3505 1b1a 2A46     		mov	r2, r5
 3506 1b1c 9200     		lsls	r2, r2, #2
 3507 1b1e 2A44     		add	r2, r2, r5
 3508 1b20 5300     		lsls	r3, r2, #1
 3509 1b22 1A46     		mov	r2, r3
 3510 1b24 0B46     		mov	r3, r1
 3511 1b26 1B01     		lsls	r3, r3, #4
 3512 1b28 5B1A     		subs	r3, r3, r1
 3513 1b2a 5B00     		lsls	r3, r3, #1
 3514 1b2c 1344     		add	r3, r3, r2
 3515 1b2e 0344     		add	r3, r3, r0
 3516 1b30 03F22743 		addw	r3, r3, #1063
 3517 1b34 2246     		mov	r2, r4
 3518 1b36 1A70     		strb	r2, [r3]
 309:PumpCom.c     ****             side.d.ProcessedTotals[((side.d.MepsanStore[4])&0x0F)-1][TotalRequestType][6] = (side.d
 3519              		.loc 1 309 0
 3520 1b38 214B     		ldr	r3, .L102
 3521 1b3a 93F8F433 		ldrb	r3, [r3, #1012]	@ zero_extendqisi2
 3522 1b3e 03F00F03 		and	r3, r3, #15
ARM GAS  C:\Users\Diego\AppData\Local\Temp\ccj1d66j.s 			page 69


 3523 1b42 591E     		subs	r1, r3, #1
 3524 1b44 1F4B     		ldr	r3, .L102+4
 3525 1b46 1B78     		ldrb	r3, [r3]	@ zero_extendqisi2
 3526 1b48 1D46     		mov	r5, r3
 3527 1b4a 1D4B     		ldr	r3, .L102
 3528 1b4c 93F8F433 		ldrb	r3, [r3, #1012]	@ zero_extendqisi2
 3529 1b50 03F00F03 		and	r3, r3, #15
 3530 1b54 581E     		subs	r0, r3, #1
 3531 1b56 1B4B     		ldr	r3, .L102+4
 3532 1b58 1B78     		ldrb	r3, [r3]	@ zero_extendqisi2
 3533 1b5a 194C     		ldr	r4, .L102
 3534 1b5c 1A46     		mov	r2, r3
 3535 1b5e 9200     		lsls	r2, r2, #2
 3536 1b60 1A44     		add	r2, r2, r3
 3537 1b62 0346     		mov	r3, r0
 3538 1b64 9B00     		lsls	r3, r3, #2
 3539 1b66 0344     		add	r3, r3, r0
 3540 1b68 5B00     		lsls	r3, r3, #1
 3541 1b6a 1344     		add	r3, r3, r2
 3542 1b6c 2344     		add	r3, r3, r4
 3543 1b6e 03F2A333 		addw	r3, r3, #931
 3544 1b72 1B78     		ldrb	r3, [r3]	@ zero_extendqisi2
 3545 1b74 1B09     		lsrs	r3, r3, #4
 3546 1b76 DBB2     		uxtb	r3, r3
 3547 1b78 3033     		adds	r3, r3, #48
 3548 1b7a DCB2     		uxtb	r4, r3
 3549 1b7c 1048     		ldr	r0, .L102
 3550 1b7e 2A46     		mov	r2, r5
 3551 1b80 9200     		lsls	r2, r2, #2
 3552 1b82 2A44     		add	r2, r2, r5
 3553 1b84 5300     		lsls	r3, r2, #1
 3554 1b86 1A46     		mov	r2, r3
 3555 1b88 0B46     		mov	r3, r1
 3556 1b8a 1B01     		lsls	r3, r3, #4
 3557 1b8c 5B1A     		subs	r3, r3, r1
 3558 1b8e 5B00     		lsls	r3, r3, #1
 3559 1b90 1344     		add	r3, r3, r2
 3560 1b92 0344     		add	r3, r3, r0
 3561 1b94 03F58563 		add	r3, r3, #1064
 3562 1b98 2246     		mov	r2, r4
 3563 1b9a 1A70     		strb	r2, [r3]
 310:PumpCom.c     ****             side.d.ProcessedTotals[((side.d.MepsanStore[4])&0x0F)-1][TotalRequestType][7] = (side.d
 3564              		.loc 1 310 0
 3565 1b9c 084B     		ldr	r3, .L102
 3566 1b9e 93F8F433 		ldrb	r3, [r3, #1012]	@ zero_extendqisi2
 3567 1ba2 03F00F03 		and	r3, r3, #15
 3568 1ba6 591E     		subs	r1, r3, #1
 3569 1ba8 064B     		ldr	r3, .L102+4
 3570 1baa 1B78     		ldrb	r3, [r3]	@ zero_extendqisi2
 3571 1bac 1D46     		mov	r5, r3
 3572 1bae 044B     		ldr	r3, .L102
 3573 1bb0 93F8F433 		ldrb	r3, [r3, #1012]	@ zero_extendqisi2
 3574 1bb4 03F00F03 		and	r3, r3, #15
 3575 1bb8 581E     		subs	r0, r3, #1
 3576 1bba 024B     		ldr	r3, .L102+4
 3577 1bbc 1B78     		ldrb	r3, [r3]	@ zero_extendqisi2
 3578 1bbe 03E0     		b	.L103
ARM GAS  C:\Users\Diego\AppData\Local\Temp\ccj1d66j.s 			page 70


 3579              	.L104:
 3580              		.align	2
 3581              	.L102:
 3582 1bc0 00000000 		.word	side
 3583 1bc4 00000000 		.word	TotalRequestType
 3584              	.L103:
 3585 1bc8 BF4C     		ldr	r4, .L105
 3586 1bca 1A46     		mov	r2, r3
 3587 1bcc 9200     		lsls	r2, r2, #2
 3588 1bce 1A44     		add	r2, r2, r3
 3589 1bd0 0346     		mov	r3, r0
 3590 1bd2 9B00     		lsls	r3, r3, #2
 3591 1bd4 0344     		add	r3, r3, r0
 3592 1bd6 5B00     		lsls	r3, r3, #1
 3593 1bd8 1344     		add	r3, r3, r2
 3594 1bda 2344     		add	r3, r3, r4
 3595 1bdc 03F2A333 		addw	r3, r3, #931
 3596 1be0 1B78     		ldrb	r3, [r3]	@ zero_extendqisi2
 3597 1be2 03F00F03 		and	r3, r3, #15
 3598 1be6 DBB2     		uxtb	r3, r3
 3599 1be8 3033     		adds	r3, r3, #48
 3600 1bea DCB2     		uxtb	r4, r3
 3601 1bec B648     		ldr	r0, .L105
 3602 1bee 2A46     		mov	r2, r5
 3603 1bf0 9200     		lsls	r2, r2, #2
 3604 1bf2 2A44     		add	r2, r2, r5
 3605 1bf4 5300     		lsls	r3, r2, #1
 3606 1bf6 1A46     		mov	r2, r3
 3607 1bf8 0B46     		mov	r3, r1
 3608 1bfa 1B01     		lsls	r3, r3, #4
 3609 1bfc 5B1A     		subs	r3, r3, r1
 3610 1bfe 5B00     		lsls	r3, r3, #1
 3611 1c00 1344     		add	r3, r3, r2
 3612 1c02 0344     		add	r3, r3, r0
 3613 1c04 03F22943 		addw	r3, r3, #1065
 3614 1c08 2246     		mov	r2, r4
 3615 1c0a 1A70     		strb	r2, [r3]
 311:PumpCom.c     ****             side.d.ProcessedTotals[((side.d.MepsanStore[4])&0x0F)-1][TotalRequestType][8] = (side.d
 3616              		.loc 1 311 0
 3617 1c0c AE4B     		ldr	r3, .L105
 3618 1c0e 93F8F433 		ldrb	r3, [r3, #1012]	@ zero_extendqisi2
 3619 1c12 03F00F03 		and	r3, r3, #15
 3620 1c16 591E     		subs	r1, r3, #1
 3621 1c18 AC4B     		ldr	r3, .L105+4
 3622 1c1a 1B78     		ldrb	r3, [r3]	@ zero_extendqisi2
 3623 1c1c 1D46     		mov	r5, r3
 3624 1c1e AA4B     		ldr	r3, .L105
 3625 1c20 93F8F433 		ldrb	r3, [r3, #1012]	@ zero_extendqisi2
 3626 1c24 03F00F03 		and	r3, r3, #15
 3627 1c28 581E     		subs	r0, r3, #1
 3628 1c2a A84B     		ldr	r3, .L105+4
 3629 1c2c 1B78     		ldrb	r3, [r3]	@ zero_extendqisi2
 3630 1c2e A64C     		ldr	r4, .L105
 3631 1c30 1A46     		mov	r2, r3
 3632 1c32 9200     		lsls	r2, r2, #2
 3633 1c34 1A44     		add	r2, r2, r3
 3634 1c36 0346     		mov	r3, r0
ARM GAS  C:\Users\Diego\AppData\Local\Temp\ccj1d66j.s 			page 71


 3635 1c38 9B00     		lsls	r3, r3, #2
 3636 1c3a 0344     		add	r3, r3, r0
 3637 1c3c 5B00     		lsls	r3, r3, #1
 3638 1c3e 1344     		add	r3, r3, r2
 3639 1c40 2344     		add	r3, r3, r4
 3640 1c42 03F56973 		add	r3, r3, #932
 3641 1c46 1B78     		ldrb	r3, [r3]	@ zero_extendqisi2
 3642 1c48 1B09     		lsrs	r3, r3, #4
 3643 1c4a DBB2     		uxtb	r3, r3
 3644 1c4c 3033     		adds	r3, r3, #48
 3645 1c4e DCB2     		uxtb	r4, r3
 3646 1c50 9D48     		ldr	r0, .L105
 3647 1c52 2A46     		mov	r2, r5
 3648 1c54 9200     		lsls	r2, r2, #2
 3649 1c56 2A44     		add	r2, r2, r5
 3650 1c58 5300     		lsls	r3, r2, #1
 3651 1c5a 1A46     		mov	r2, r3
 3652 1c5c 0B46     		mov	r3, r1
 3653 1c5e 1B01     		lsls	r3, r3, #4
 3654 1c60 5B1A     		subs	r3, r3, r1
 3655 1c62 5B00     		lsls	r3, r3, #1
 3656 1c64 1344     		add	r3, r3, r2
 3657 1c66 0344     		add	r3, r3, r0
 3658 1c68 03F22A43 		addw	r3, r3, #1066
 3659 1c6c 2246     		mov	r2, r4
 3660 1c6e 1A70     		strb	r2, [r3]
 312:PumpCom.c     ****             side.d.ProcessedTotals[((side.d.MepsanStore[4])&0x0F)-1][TotalRequestType][9] = (side.d
 3661              		.loc 1 312 0
 3662 1c70 954B     		ldr	r3, .L105
 3663 1c72 93F8F433 		ldrb	r3, [r3, #1012]	@ zero_extendqisi2
 3664 1c76 03F00F03 		and	r3, r3, #15
 3665 1c7a 591E     		subs	r1, r3, #1
 3666 1c7c 934B     		ldr	r3, .L105+4
 3667 1c7e 1B78     		ldrb	r3, [r3]	@ zero_extendqisi2
 3668 1c80 1D46     		mov	r5, r3
 3669 1c82 914B     		ldr	r3, .L105
 3670 1c84 93F8F433 		ldrb	r3, [r3, #1012]	@ zero_extendqisi2
 3671 1c88 03F00F03 		and	r3, r3, #15
 3672 1c8c 581E     		subs	r0, r3, #1
 3673 1c8e 8F4B     		ldr	r3, .L105+4
 3674 1c90 1B78     		ldrb	r3, [r3]	@ zero_extendqisi2
 3675 1c92 8D4C     		ldr	r4, .L105
 3676 1c94 1A46     		mov	r2, r3
 3677 1c96 9200     		lsls	r2, r2, #2
 3678 1c98 1A44     		add	r2, r2, r3
 3679 1c9a 0346     		mov	r3, r0
 3680 1c9c 9B00     		lsls	r3, r3, #2
 3681 1c9e 0344     		add	r3, r3, r0
 3682 1ca0 5B00     		lsls	r3, r3, #1
 3683 1ca2 1344     		add	r3, r3, r2
 3684 1ca4 2344     		add	r3, r3, r4
 3685 1ca6 03F56973 		add	r3, r3, #932
 3686 1caa 1B78     		ldrb	r3, [r3]	@ zero_extendqisi2
 3687 1cac 03F00F03 		and	r3, r3, #15
 3688 1cb0 DBB2     		uxtb	r3, r3
 3689 1cb2 3033     		adds	r3, r3, #48
 3690 1cb4 DCB2     		uxtb	r4, r3
ARM GAS  C:\Users\Diego\AppData\Local\Temp\ccj1d66j.s 			page 72


 3691 1cb6 8448     		ldr	r0, .L105
 3692 1cb8 2A46     		mov	r2, r5
 3693 1cba 9200     		lsls	r2, r2, #2
 3694 1cbc 2A44     		add	r2, r2, r5
 3695 1cbe 5300     		lsls	r3, r2, #1
 3696 1cc0 1A46     		mov	r2, r3
 3697 1cc2 0B46     		mov	r3, r1
 3698 1cc4 1B01     		lsls	r3, r3, #4
 3699 1cc6 5B1A     		subs	r3, r3, r1
 3700 1cc8 5B00     		lsls	r3, r3, #1
 3701 1cca 1344     		add	r3, r3, r2
 3702 1ccc 0344     		add	r3, r3, r0
 3703 1cce 03F22B43 		addw	r3, r3, #1067
 3704 1cd2 2246     		mov	r2, r4
 3705 1cd4 1A70     		strb	r2, [r3]
 313:PumpCom.c     ****             
 314:PumpCom.c     ****             EnablePin_Write (1u);
 3706              		.loc 1 314 0
 3707 1cd6 0120     		movs	r0, #1
 3708 1cd8 FFF7FEFF 		bl	EnablePin_Write
 315:PumpCom.c     ****             MEPSAN_PutChar((0x50|address));
 3709              		.loc 1 315 0
 3710 1cdc 3B79     		ldrb	r3, [r7, #4]
 3711 1cde 43F05003 		orr	r3, r3, #80
 3712 1ce2 DBB2     		uxtb	r3, r3
 3713 1ce4 1846     		mov	r0, r3
 3714 1ce6 FFF7FEFF 		bl	MEPSAN_PutChar
 316:PumpCom.c     ****             MEPSAN_PutChar(0xC0|(side.d.MepsanStore[1]&0x0F));
 3715              		.loc 1 316 0
 3716 1cea 774B     		ldr	r3, .L105
 3717 1cec 93F8F133 		ldrb	r3, [r3, #1009]	@ zero_extendqisi2
 3718 1cf0 5BB2     		sxtb	r3, r3
 3719 1cf2 03F00F03 		and	r3, r3, #15
 3720 1cf6 5BB2     		sxtb	r3, r3
 3721 1cf8 63F03F03 		orn	r3, r3, #63
 3722 1cfc 5BB2     		sxtb	r3, r3
 3723 1cfe DBB2     		uxtb	r3, r3
 3724 1d00 1846     		mov	r0, r3
 3725 1d02 FFF7FEFF 		bl	MEPSAN_PutChar
 317:PumpCom.c     ****             MEPSAN_PutChar(0xFA); 
 3726              		.loc 1 317 0
 3727 1d06 FA20     		movs	r0, #250
 3728 1d08 FFF7FEFF 		bl	MEPSAN_PutChar
 318:PumpCom.c     ****             CyDelay(4);
 3729              		.loc 1 318 0
 3730 1d0c 0420     		movs	r0, #4
 3731 1d0e FFF7FEFF 		bl	CyDelay
 319:PumpCom.c     ****             EnablePin_Write (0u);
 3732              		.loc 1 319 0
 3733 1d12 0020     		movs	r0, #0
 3734 1d14 FFF7FEFF 		bl	EnablePin_Write
 3735              	.L67:
 320:PumpCom.c     ****         }
 321:PumpCom.c     ****         if(side.d.MepsanStore[2] == 0x02){
 3736              		.loc 1 321 0
 3737 1d18 6B4B     		ldr	r3, .L105
 3738 1d1a 93F8F233 		ldrb	r3, [r3, #1010]	@ zero_extendqisi2
ARM GAS  C:\Users\Diego\AppData\Local\Temp\ccj1d66j.s 			page 73


 3739 1d1e 022B     		cmp	r3, #2
 3740 1d20 40F0CD80 		bne	.L78
 3741              	.LBB19:
 322:PumpCom.c     ****             for(uint8 x = 4; x < 8; x++ ){
 3742              		.loc 1 322 0
 3743 1d24 0423     		movs	r3, #4
 3744 1d26 BB71     		strb	r3, [r7, #6]
 3745 1d28 1BE0     		b	.L70
 3746              	.L71:
 323:PumpCom.c     ****                 side.d.volumeSale[x-4] = side.d.MepsanStore[x];
 3747              		.loc 1 323 0 discriminator 3
 3748 1d2a BB79     		ldrb	r3, [r7, #6]	@ zero_extendqisi2
 3749 1d2c 043B     		subs	r3, r3, #4
 3750 1d2e BA79     		ldrb	r2, [r7, #6]	@ zero_extendqisi2
 3751 1d30 6549     		ldr	r1, .L105
 3752 1d32 0A44     		add	r2, r2, r1
 3753 1d34 92F8F013 		ldrb	r1, [r2, #1008]	@ zero_extendqisi2
 3754 1d38 634A     		ldr	r2, .L105
 3755 1d3a 1344     		add	r3, r3, r2
 3756 1d3c 0A46     		mov	r2, r1
 3757 1d3e 83F8D823 		strb	r2, [r3, #984]
 324:PumpCom.c     ****                 side.d.moneySale[x-4] = side.d.MepsanStore[x+4];
 3758              		.loc 1 324 0 discriminator 3
 3759 1d42 BB79     		ldrb	r3, [r7, #6]	@ zero_extendqisi2
 3760 1d44 043B     		subs	r3, r3, #4
 3761 1d46 BA79     		ldrb	r2, [r7, #6]	@ zero_extendqisi2
 3762 1d48 0432     		adds	r2, r2, #4
 3763 1d4a 5F49     		ldr	r1, .L105
 3764 1d4c 0A44     		add	r2, r2, r1
 3765 1d4e 92F8F013 		ldrb	r1, [r2, #1008]	@ zero_extendqisi2
 3766 1d52 5D4A     		ldr	r2, .L105
 3767 1d54 1344     		add	r3, r3, r2
 3768 1d56 0A46     		mov	r2, r1
 3769 1d58 83F8D423 		strb	r2, [r3, #980]
 322:PumpCom.c     ****             for(uint8 x = 4; x < 8; x++ ){
 3770              		.loc 1 322 0 discriminator 3
 3771 1d5c BB79     		ldrb	r3, [r7, #6]	@ zero_extendqisi2
 3772 1d5e 0133     		adds	r3, r3, #1
 3773 1d60 BB71     		strb	r3, [r7, #6]
 3774              	.L70:
 322:PumpCom.c     ****             for(uint8 x = 4; x < 8; x++ ){
 3775              		.loc 1 322 0 is_stmt 0 discriminator 1
 3776 1d62 BB79     		ldrb	r3, [r7, #6]	@ zero_extendqisi2
 3777 1d64 072B     		cmp	r3, #7
 3778 1d66 E0D9     		bls	.L71
 3779              	.LBE19:
 325:PumpCom.c     ****             }
 326:PumpCom.c     ****             side.d.ProcessedvolumeSale[0] = (side.d.volumeSale[0]  >> 4) + 0x30;
 3780              		.loc 1 326 0 is_stmt 1
 3781 1d68 574B     		ldr	r3, .L105
 3782 1d6a 93F8D833 		ldrb	r3, [r3, #984]	@ zero_extendqisi2
 3783 1d6e 1B09     		lsrs	r3, r3, #4
 3784 1d70 DBB2     		uxtb	r3, r3
 3785 1d72 3033     		adds	r3, r3, #48
 3786 1d74 DAB2     		uxtb	r2, r3
 3787 1d76 544B     		ldr	r3, .L105
 3788 1d78 83F8A224 		strb	r2, [r3, #1186]
ARM GAS  C:\Users\Diego\AppData\Local\Temp\ccj1d66j.s 			page 74


 327:PumpCom.c     ****             side.d.ProcessedvolumeSale[1] = (side.d.volumeSale[0]  & 0x0F) + 0x30;
 3789              		.loc 1 327 0
 3790 1d7c 524B     		ldr	r3, .L105
 3791 1d7e 93F8D833 		ldrb	r3, [r3, #984]	@ zero_extendqisi2
 3792 1d82 03F00F03 		and	r3, r3, #15
 3793 1d86 DBB2     		uxtb	r3, r3
 3794 1d88 3033     		adds	r3, r3, #48
 3795 1d8a DAB2     		uxtb	r2, r3
 3796 1d8c 4E4B     		ldr	r3, .L105
 3797 1d8e 83F8A324 		strb	r2, [r3, #1187]
 328:PumpCom.c     ****             side.d.ProcessedvolumeSale[2] = (side.d.volumeSale[1]  >> 4) + 0x30;
 3798              		.loc 1 328 0
 3799 1d92 4D4B     		ldr	r3, .L105
 3800 1d94 93F8D933 		ldrb	r3, [r3, #985]	@ zero_extendqisi2
 3801 1d98 1B09     		lsrs	r3, r3, #4
 3802 1d9a DBB2     		uxtb	r3, r3
 3803 1d9c 3033     		adds	r3, r3, #48
 3804 1d9e DAB2     		uxtb	r2, r3
 3805 1da0 494B     		ldr	r3, .L105
 3806 1da2 83F8A424 		strb	r2, [r3, #1188]
 329:PumpCom.c     ****             side.d.ProcessedvolumeSale[3] = (side.d.volumeSale[1]  & 0x0F) + 0x30;
 3807              		.loc 1 329 0
 3808 1da6 484B     		ldr	r3, .L105
 3809 1da8 93F8D933 		ldrb	r3, [r3, #985]	@ zero_extendqisi2
 3810 1dac 03F00F03 		and	r3, r3, #15
 3811 1db0 DBB2     		uxtb	r3, r3
 3812 1db2 3033     		adds	r3, r3, #48
 3813 1db4 DAB2     		uxtb	r2, r3
 3814 1db6 444B     		ldr	r3, .L105
 3815 1db8 83F8A524 		strb	r2, [r3, #1189]
 330:PumpCom.c     ****             side.d.ProcessedvolumeSale[4] = (side.d.volumeSale[2]  >> 4) + 0x30;
 3816              		.loc 1 330 0
 3817 1dbc 424B     		ldr	r3, .L105
 3818 1dbe 93F8DA33 		ldrb	r3, [r3, #986]	@ zero_extendqisi2
 3819 1dc2 1B09     		lsrs	r3, r3, #4
 3820 1dc4 DBB2     		uxtb	r3, r3
 3821 1dc6 3033     		adds	r3, r3, #48
 3822 1dc8 DAB2     		uxtb	r2, r3
 3823 1dca 3F4B     		ldr	r3, .L105
 3824 1dcc 83F8A624 		strb	r2, [r3, #1190]
 331:PumpCom.c     ****             side.d.ProcessedvolumeSale[5] = (side.d.volumeSale[2]  & 0x0F) + 0x30;
 3825              		.loc 1 331 0
 3826 1dd0 3D4B     		ldr	r3, .L105
 3827 1dd2 93F8DA33 		ldrb	r3, [r3, #986]	@ zero_extendqisi2
 3828 1dd6 03F00F03 		and	r3, r3, #15
 3829 1dda DBB2     		uxtb	r3, r3
 3830 1ddc 3033     		adds	r3, r3, #48
 3831 1dde DAB2     		uxtb	r2, r3
 3832 1de0 394B     		ldr	r3, .L105
 3833 1de2 83F8A724 		strb	r2, [r3, #1191]
 332:PumpCom.c     ****             side.d.ProcessedvolumeSale[6] = (side.d.volumeSale[3]  >> 4) + 0x30;
 3834              		.loc 1 332 0
 3835 1de6 384B     		ldr	r3, .L105
 3836 1de8 93F8DB33 		ldrb	r3, [r3, #987]	@ zero_extendqisi2
 3837 1dec 1B09     		lsrs	r3, r3, #4
 3838 1dee DBB2     		uxtb	r3, r3
 3839 1df0 3033     		adds	r3, r3, #48
ARM GAS  C:\Users\Diego\AppData\Local\Temp\ccj1d66j.s 			page 75


 3840 1df2 DAB2     		uxtb	r2, r3
 3841 1df4 344B     		ldr	r3, .L105
 3842 1df6 83F8A824 		strb	r2, [r3, #1192]
 333:PumpCom.c     ****             side.d.ProcessedvolumeSale[7] = (side.d.volumeSale[3]  & 0x0F) + 0x30;
 3843              		.loc 1 333 0
 3844 1dfa 334B     		ldr	r3, .L105
 3845 1dfc 93F8DB33 		ldrb	r3, [r3, #987]	@ zero_extendqisi2
 3846 1e00 03F00F03 		and	r3, r3, #15
 3847 1e04 DBB2     		uxtb	r3, r3
 3848 1e06 3033     		adds	r3, r3, #48
 3849 1e08 DAB2     		uxtb	r2, r3
 3850 1e0a 2F4B     		ldr	r3, .L105
 3851 1e0c 83F8A924 		strb	r2, [r3, #1193]
 334:PumpCom.c     ****             
 335:PumpCom.c     ****             side.d.ProcessedmoneySale[0] = (side.d.moneySale[0]  >> 4) + 0x30;
 3852              		.loc 1 335 0
 3853 1e10 2D4B     		ldr	r3, .L105
 3854 1e12 93F8D433 		ldrb	r3, [r3, #980]	@ zero_extendqisi2
 3855 1e16 1B09     		lsrs	r3, r3, #4
 3856 1e18 DBB2     		uxtb	r3, r3
 3857 1e1a 3033     		adds	r3, r3, #48
 3858 1e1c DAB2     		uxtb	r2, r3
 3859 1e1e 2A4B     		ldr	r3, .L105
 3860 1e20 83F89A24 		strb	r2, [r3, #1178]
 336:PumpCom.c     ****             side.d.ProcessedmoneySale[1] = (side.d.moneySale[0]  & 0x0F) + 0x30;
 3861              		.loc 1 336 0
 3862 1e24 284B     		ldr	r3, .L105
 3863 1e26 93F8D433 		ldrb	r3, [r3, #980]	@ zero_extendqisi2
 3864 1e2a 03F00F03 		and	r3, r3, #15
 3865 1e2e DBB2     		uxtb	r3, r3
 3866 1e30 3033     		adds	r3, r3, #48
 3867 1e32 DAB2     		uxtb	r2, r3
 3868 1e34 244B     		ldr	r3, .L105
 3869 1e36 83F89B24 		strb	r2, [r3, #1179]
 337:PumpCom.c     ****             side.d.ProcessedmoneySale[2] = (side.d.moneySale[1]  >> 4) + 0x30;
 3870              		.loc 1 337 0
 3871 1e3a 234B     		ldr	r3, .L105
 3872 1e3c 93F8D533 		ldrb	r3, [r3, #981]	@ zero_extendqisi2
 3873 1e40 1B09     		lsrs	r3, r3, #4
 3874 1e42 DBB2     		uxtb	r3, r3
 3875 1e44 3033     		adds	r3, r3, #48
 3876 1e46 DAB2     		uxtb	r2, r3
 3877 1e48 1F4B     		ldr	r3, .L105
 3878 1e4a 83F89C24 		strb	r2, [r3, #1180]
 338:PumpCom.c     ****             side.d.ProcessedmoneySale[3] = (side.d.moneySale[1]  & 0x0F) + 0x30;
 3879              		.loc 1 338 0
 3880 1e4e 1E4B     		ldr	r3, .L105
 3881 1e50 93F8D533 		ldrb	r3, [r3, #981]	@ zero_extendqisi2
 3882 1e54 03F00F03 		and	r3, r3, #15
 3883 1e58 DBB2     		uxtb	r3, r3
 3884 1e5a 3033     		adds	r3, r3, #48
 3885 1e5c DAB2     		uxtb	r2, r3
 3886 1e5e 1A4B     		ldr	r3, .L105
 3887 1e60 83F89D24 		strb	r2, [r3, #1181]
 339:PumpCom.c     ****             side.d.ProcessedmoneySale[4] = (side.d.moneySale[2]  >> 4) + 0x30;
 3888              		.loc 1 339 0
 3889 1e64 184B     		ldr	r3, .L105
ARM GAS  C:\Users\Diego\AppData\Local\Temp\ccj1d66j.s 			page 76


 3890 1e66 93F8D633 		ldrb	r3, [r3, #982]	@ zero_extendqisi2
 3891 1e6a 1B09     		lsrs	r3, r3, #4
 3892 1e6c DBB2     		uxtb	r3, r3
 3893 1e6e 3033     		adds	r3, r3, #48
 3894 1e70 DAB2     		uxtb	r2, r3
 3895 1e72 154B     		ldr	r3, .L105
 3896 1e74 83F89E24 		strb	r2, [r3, #1182]
 340:PumpCom.c     ****             side.d.ProcessedmoneySale[5] = (side.d.moneySale[2]  & 0x0F) + 0x30;
 3897              		.loc 1 340 0
 3898 1e78 134B     		ldr	r3, .L105
 3899 1e7a 93F8D633 		ldrb	r3, [r3, #982]	@ zero_extendqisi2
 3900 1e7e 03F00F03 		and	r3, r3, #15
 3901 1e82 DBB2     		uxtb	r3, r3
 3902 1e84 3033     		adds	r3, r3, #48
 3903 1e86 DAB2     		uxtb	r2, r3
 3904 1e88 0F4B     		ldr	r3, .L105
 3905 1e8a 83F89F24 		strb	r2, [r3, #1183]
 341:PumpCom.c     ****             side.d.ProcessedmoneySale[6] = (side.d.moneySale[3]  >> 4) + 0x30;
 3906              		.loc 1 341 0
 3907 1e8e 0E4B     		ldr	r3, .L105
 3908 1e90 93F8D733 		ldrb	r3, [r3, #983]	@ zero_extendqisi2
 3909 1e94 1B09     		lsrs	r3, r3, #4
 3910 1e96 DBB2     		uxtb	r3, r3
 3911 1e98 3033     		adds	r3, r3, #48
 3912 1e9a DAB2     		uxtb	r2, r3
 3913 1e9c 0A4B     		ldr	r3, .L105
 3914 1e9e 83F8A024 		strb	r2, [r3, #1184]
 342:PumpCom.c     ****             side.d.ProcessedmoneySale[7] = (side.d.moneySale[3]  & 0x0F) + 0x30;
 3915              		.loc 1 342 0
 3916 1ea2 094B     		ldr	r3, .L105
 3917 1ea4 93F8D733 		ldrb	r3, [r3, #983]	@ zero_extendqisi2
 3918 1ea8 03F00F03 		and	r3, r3, #15
 3919 1eac DBB2     		uxtb	r3, r3
 3920 1eae 3033     		adds	r3, r3, #48
 3921 1eb0 DAB2     		uxtb	r2, r3
 3922 1eb2 054B     		ldr	r3, .L105
 3923 1eb4 83F8A124 		strb	r2, [r3, #1185]
 343:PumpCom.c     ****             
 344:PumpCom.c     ****             EnablePin_Write (0u);
 3924              		.loc 1 344 0
 3925 1eb8 0020     		movs	r0, #0
 3926 1eba FFF7FEFF 		bl	EnablePin_Write
 3927              	.L78:
 345:PumpCom.c     ****         }
 346:PumpCom.c     ****     } 
 347:PumpCom.c     **** }
 3928              		.loc 1 347 0
 3929 1ebe 00BF     		nop
 3930 1ec0 1C37     		adds	r7, r7, #28
 3931              		.cfi_def_cfa_offset 20
 3932 1ec2 BD46     		mov	sp, r7
 3933              		.cfi_def_cfa_register 13
 3934              		@ sp needed
 3935 1ec4 F0BD     		pop	{r4, r5, r6, r7, pc}
 3936              	.L106:
 3937 1ec6 00BF     		.align	2
 3938              	.L105:
ARM GAS  C:\Users\Diego\AppData\Local\Temp\ccj1d66j.s 			page 77


 3939 1ec8 00000000 		.word	side
 3940 1ecc 00000000 		.word	TotalRequestType
 3941              		.cfi_endproc
 3942              	.LFE64:
 3943              		.size	GetResponse, .-GetResponse
 3944              		.section	.text.GetAddress,"ax",%progbits
 3945              		.align	2
 3946              		.global	GetAddress
 3947              		.thumb
 3948              		.thumb_func
 3949              		.type	GetAddress, %function
 3950              	GetAddress:
 3951              	.LFB65:
 348:PumpCom.c     **** 
 349:PumpCom.c     **** /*******************************************************************************
 350:PumpCom.c     **** * Function Name: GetAddress
 351:PumpCom.c     **** ********************************************************************************
 352:PumpCom.c     **** *
 353:PumpCom.c     **** *
 354:PumpCom.c     **** *******************************************************************************/
 355:PumpCom.c     **** uint8 GetAddress (uint8 pos){     
 3952              		.loc 1 355 0
 3953              		.cfi_startproc
 3954              		@ args = 0, pretend = 0, frame = 16
 3955              		@ frame_needed = 1, uses_anonymous_args = 0
 3956 0000 90B5     		push	{r4, r7, lr}
 3957              		.cfi_def_cfa_offset 12
 3958              		.cfi_offset 4, -12
 3959              		.cfi_offset 7, -8
 3960              		.cfi_offset 14, -4
 3961 0002 85B0     		sub	sp, sp, #20
 3962              		.cfi_def_cfa_offset 32
 3963 0004 00AF     		add	r7, sp, #0
 3964              		.cfi_def_cfa_register 7
 3965 0006 0346     		mov	r3, r0
 3966 0008 FB71     		strb	r3, [r7, #7]
 356:PumpCom.c     ****     side.a.dir = 0xFF;
 3967              		.loc 1 356 0
 3968 000a 274B     		ldr	r3, .L112
 3969 000c FF22     		movs	r2, #255
 3970 000e 1A70     		strb	r2, [r3]
 357:PumpCom.c     ****     side.b.dir = 0xFF;
 3971              		.loc 1 357 0
 3972 0010 254B     		ldr	r3, .L112
 3973 0012 FF22     		movs	r2, #255
 3974 0014 83F83521 		strb	r2, [r3, #309]
 358:PumpCom.c     ****     side.c.dir = 0xFF;
 3975              		.loc 1 358 0
 3976 0018 234B     		ldr	r3, .L112
 3977 001a FF22     		movs	r2, #255
 3978 001c 83F86A22 		strb	r2, [r3, #618]
 359:PumpCom.c     ****     side.d.dir = 0xFF;
 3979              		.loc 1 359 0
 3980 0020 214B     		ldr	r3, .L112
 3981 0022 FF22     		movs	r2, #255
 3982 0024 83F89F23 		strb	r2, [r3, #927]
 360:PumpCom.c     ****     uint8 size;
ARM GAS  C:\Users\Diego\AppData\Local\Temp\ccj1d66j.s 			page 78


 361:PumpCom.c     ****     EnablePin_Write (1u);
 3983              		.loc 1 361 0
 3984 0028 0120     		movs	r0, #1
 3985 002a FFF7FEFF 		bl	EnablePin_Write
 362:PumpCom.c     ****     MEPSAN_PutChar((0x50|pos));
 3986              		.loc 1 362 0
 3987 002e FB79     		ldrb	r3, [r7, #7]
 3988 0030 43F05003 		orr	r3, r3, #80
 3989 0034 DBB2     		uxtb	r3, r3
 3990 0036 1846     		mov	r0, r3
 3991 0038 FFF7FEFF 		bl	MEPSAN_PutChar
 363:PumpCom.c     ****     MEPSAN_PutChar(0x20);
 3992              		.loc 1 363 0
 3993 003c 2020     		movs	r0, #32
 3994 003e FFF7FEFF 		bl	MEPSAN_PutChar
 364:PumpCom.c     ****     MEPSAN_PutChar(0xFA); 
 3995              		.loc 1 364 0
 3996 0042 FA20     		movs	r0, #250
 3997 0044 FFF7FEFF 		bl	MEPSAN_PutChar
 365:PumpCom.c     ****     CyDelay(4);
 3998              		.loc 1 365 0
 3999 0048 0420     		movs	r0, #4
 4000 004a FFF7FEFF 		bl	CyDelay
 366:PumpCom.c     ****     EnablePin_Write (0u);
 4001              		.loc 1 366 0
 4002 004e 0020     		movs	r0, #0
 4003 0050 FFF7FEFF 		bl	EnablePin_Write
 367:PumpCom.c     ****     size = MEPSAN_GetRxBufferSize();
 4004              		.loc 1 367 0
 4005 0054 FFF7FEFF 		bl	MEPSAN_GetRxBufferSize
 4006 0058 0346     		mov	r3, r0
 4007 005a BB73     		strb	r3, [r7, #14]
 4008              	.LBB20:
 368:PumpCom.c     ****     for(uint8 MepRx = 0; MepRx < size; MepRx++){
 4009              		.loc 1 368 0
 4010 005c 0023     		movs	r3, #0
 4011 005e FB73     		strb	r3, [r7, #15]
 4012 0060 09E0     		b	.L108
 4013              	.L109:
 369:PumpCom.c     ****        MepsanResponse[MepRx] = MEPSAN_ReadRxData();        
 4014              		.loc 1 369 0 discriminator 3
 4015 0062 FC7B     		ldrb	r4, [r7, #15]	@ zero_extendqisi2
 4016 0064 FFF7FEFF 		bl	MEPSAN_ReadRxData
 4017 0068 0346     		mov	r3, r0
 4018 006a 1A46     		mov	r2, r3
 4019 006c 0F4B     		ldr	r3, .L112+4
 4020 006e 1A55     		strb	r2, [r3, r4]
 368:PumpCom.c     ****     for(uint8 MepRx = 0; MepRx < size; MepRx++){
 4021              		.loc 1 368 0 discriminator 3
 4022 0070 FB7B     		ldrb	r3, [r7, #15]	@ zero_extendqisi2
 4023 0072 0133     		adds	r3, r3, #1
 4024 0074 FB73     		strb	r3, [r7, #15]
 4025              	.L108:
 368:PumpCom.c     ****     for(uint8 MepRx = 0; MepRx < size; MepRx++){
 4026              		.loc 1 368 0 is_stmt 0 discriminator 1
 4027 0076 FA7B     		ldrb	r2, [r7, #15]	@ zero_extendqisi2
 4028 0078 BB7B     		ldrb	r3, [r7, #14]	@ zero_extendqisi2
ARM GAS  C:\Users\Diego\AppData\Local\Temp\ccj1d66j.s 			page 79


 4029 007a 9A42     		cmp	r2, r3
 4030 007c F1D3     		bcc	.L109
 4031              	.LBE20:
 370:PumpCom.c     ****     }
 371:PumpCom.c     ****     MEPSAN_ClearRxBuffer(); 
 4032              		.loc 1 371 0 is_stmt 1
 4033 007e FFF7FEFF 		bl	MEPSAN_ClearRxBuffer
 372:PumpCom.c     ****     CyDelay(300); 
 4034              		.loc 1 372 0
 4035 0082 4FF49670 		mov	r0, #300
 4036 0086 FFF7FEFF 		bl	CyDelay
 373:PumpCom.c     ****     if(size>=1){              
 4037              		.loc 1 373 0
 4038 008a BB7B     		ldrb	r3, [r7, #14]	@ zero_extendqisi2
 4039 008c 002B     		cmp	r3, #0
 4040 008e 05D0     		beq	.L110
 374:PumpCom.c     ****         return MepsanResponse[0] & 0x0F;
 4041              		.loc 1 374 0
 4042 0090 064B     		ldr	r3, .L112+4
 4043 0092 1B78     		ldrb	r3, [r3]	@ zero_extendqisi2
 4044 0094 03F00F03 		and	r3, r3, #15
 4045 0098 DBB2     		uxtb	r3, r3
 4046 009a 00E0     		b	.L111
 4047              	.L110:
 375:PumpCom.c     ****         
 376:PumpCom.c     ****     }else{
 377:PumpCom.c     ****        return 0xFF;
 4048              		.loc 1 377 0
 4049 009c FF23     		movs	r3, #255
 4050              	.L111:
 378:PumpCom.c     ****     }
 379:PumpCom.c     **** }
 4051              		.loc 1 379 0
 4052 009e 1846     		mov	r0, r3
 4053 00a0 1437     		adds	r7, r7, #20
 4054              		.cfi_def_cfa_offset 12
 4055 00a2 BD46     		mov	sp, r7
 4056              		.cfi_def_cfa_register 13
 4057              		@ sp needed
 4058 00a4 90BD     		pop	{r4, r7, pc}
 4059              	.L113:
 4060 00a6 00BF     		.align	2
 4061              	.L112:
 4062 00a8 00000000 		.word	side
 4063 00ac 00000000 		.word	MepsanResponse
 4064              		.cfi_endproc
 4065              	.LFE65:
 4066              		.size	GetAddress, .-GetAddress
 4067              		.section	.text.Authorize,"ax",%progbits
 4068              		.align	2
 4069              		.global	Authorize
 4070              		.thumb
 4071              		.thumb_func
 4072              		.type	Authorize, %function
 4073              	Authorize:
 4074              	.LFB66:
 380:PumpCom.c     **** 
ARM GAS  C:\Users\Diego\AppData\Local\Temp\ccj1d66j.s 			page 80


 381:PumpCom.c     **** 
 382:PumpCom.c     **** /*******************************************************************************
 383:PumpCom.c     **** * Function Name: Authorize
 384:PumpCom.c     **** ********************************************************************************
 385:PumpCom.c     **** *
 386:PumpCom.c     **** *
 387:PumpCom.c     **** *******************************************************************************/
 388:PumpCom.c     **** uint8 Authorize(uint8 address){
 4075              		.loc 1 388 0
 4076              		.cfi_startproc
 4077              		@ args = 0, pretend = 0, frame = 16
 4078              		@ frame_needed = 1, uses_anonymous_args = 0
 4079 0000 80B5     		push	{r7, lr}
 4080              		.cfi_def_cfa_offset 8
 4081              		.cfi_offset 7, -8
 4082              		.cfi_offset 14, -4
 4083 0002 84B0     		sub	sp, sp, #16
 4084              		.cfi_def_cfa_offset 24
 4085 0004 00AF     		add	r7, sp, #0
 4086              		.cfi_def_cfa_register 7
 4087 0006 0346     		mov	r3, r0
 4088 0008 FB71     		strb	r3, [r7, #7]
 4089              	.LBB21:
 389:PumpCom.c     ****     uint8 size, status;    
 390:PumpCom.c     ****     for(uint8 x = 0; x < 50; x ++){
 4090              		.loc 1 390 0
 4091 000a 0023     		movs	r3, #0
 4092 000c FB73     		strb	r3, [r7, #15]
 4093 000e 06E0     		b	.L115
 4094              	.L116:
 391:PumpCom.c     ****         MepsanSendTo[x] = 0x00;
 4095              		.loc 1 391 0 discriminator 3
 4096 0010 FB7B     		ldrb	r3, [r7, #15]	@ zero_extendqisi2
 4097 0012 2E4A     		ldr	r2, .L120
 4098 0014 0021     		movs	r1, #0
 4099 0016 D154     		strb	r1, [r2, r3]
 390:PumpCom.c     ****         MepsanSendTo[x] = 0x00;
 4100              		.loc 1 390 0 discriminator 3
 4101 0018 FB7B     		ldrb	r3, [r7, #15]	@ zero_extendqisi2
 4102 001a 0133     		adds	r3, r3, #1
 4103 001c FB73     		strb	r3, [r7, #15]
 4104              	.L115:
 390:PumpCom.c     ****         MepsanSendTo[x] = 0x00;
 4105              		.loc 1 390 0 is_stmt 0 discriminator 1
 4106 001e FB7B     		ldrb	r3, [r7, #15]	@ zero_extendqisi2
 4107 0020 312B     		cmp	r3, #49
 4108 0022 F5D9     		bls	.L116
 4109              	.LBE21:
 392:PumpCom.c     ****     }
 393:PumpCom.c     ****     EnablePin_Write (1u);
 4110              		.loc 1 393 0 is_stmt 1
 4111 0024 0120     		movs	r0, #1
 4112 0026 FFF7FEFF 		bl	EnablePin_Write
 394:PumpCom.c     ****     MepsanSendTo[0] = (0x50|address);
 4113              		.loc 1 394 0
 4114 002a FB79     		ldrb	r3, [r7, #7]
 4115 002c 43F05003 		orr	r3, r3, #80
ARM GAS  C:\Users\Diego\AppData\Local\Temp\ccj1d66j.s 			page 81


 4116 0030 DAB2     		uxtb	r2, r3
 4117 0032 264B     		ldr	r3, .L120
 4118 0034 1A70     		strb	r2, [r3]
 395:PumpCom.c     ****     MepsanSendTo[1] = (0x30);
 4119              		.loc 1 395 0
 4120 0036 254B     		ldr	r3, .L120
 4121 0038 3022     		movs	r2, #48
 4122 003a 5A70     		strb	r2, [r3, #1]
 396:PumpCom.c     ****     MepsanSendTo[2] = (0x01);
 4123              		.loc 1 396 0
 4124 003c 234B     		ldr	r3, .L120
 4125 003e 0122     		movs	r2, #1
 4126 0040 9A70     		strb	r2, [r3, #2]
 397:PumpCom.c     ****     MepsanSendTo[3] = (0x01);
 4127              		.loc 1 397 0
 4128 0042 224B     		ldr	r3, .L120
 4129 0044 0122     		movs	r2, #1
 4130 0046 DA70     		strb	r2, [r3, #3]
 398:PumpCom.c     ****     MepsanSendTo[4] = (MEPSAN_AUTHORIZE);
 4131              		.loc 1 398 0
 4132 0048 204B     		ldr	r3, .L120
 4133 004a 0622     		movs	r2, #6
 4134 004c 1A71     		strb	r2, [r3, #4]
 399:PumpCom.c     ****     CRC    = gen_crc16(MepsanSendTo,5);
 4135              		.loc 1 399 0
 4136 004e 0521     		movs	r1, #5
 4137 0050 1E48     		ldr	r0, .L120
 4138 0052 FFF7FEFF 		bl	gen_crc16
 4139 0056 0346     		mov	r3, r0
 4140 0058 1A46     		mov	r2, r3
 4141 005a 1D4B     		ldr	r3, .L120+4
 4142 005c 1A80     		strh	r2, [r3]	@ movhi
 400:PumpCom.c     ****     crc_hi = (CRC & 0xFF00) >> 8;
 4143              		.loc 1 400 0
 4144 005e 1C4B     		ldr	r3, .L120+4
 4145 0060 1B88     		ldrh	r3, [r3]
 4146 0062 1B0A     		lsrs	r3, r3, #8
 4147 0064 9BB2     		uxth	r3, r3
 4148 0066 DAB2     		uxtb	r2, r3
 4149 0068 1A4B     		ldr	r3, .L120+8
 4150 006a 1A70     		strb	r2, [r3]
 401:PumpCom.c     ****     crc_lo = (CRC & 0x00FF) ;
 4151              		.loc 1 401 0
 4152 006c 184B     		ldr	r3, .L120+4
 4153 006e 1B88     		ldrh	r3, [r3]
 4154 0070 DAB2     		uxtb	r2, r3
 4155 0072 194B     		ldr	r3, .L120+12
 4156 0074 1A70     		strb	r2, [r3]
 402:PumpCom.c     ****     MepsanSendTo[5] = crc_lo;
 4157              		.loc 1 402 0
 4158 0076 184B     		ldr	r3, .L120+12
 4159 0078 1A78     		ldrb	r2, [r3]	@ zero_extendqisi2
 4160 007a 144B     		ldr	r3, .L120
 4161 007c 5A71     		strb	r2, [r3, #5]
 403:PumpCom.c     ****     MepsanSendTo[6] = crc_hi;
 4162              		.loc 1 403 0
 4163 007e 154B     		ldr	r3, .L120+8
ARM GAS  C:\Users\Diego\AppData\Local\Temp\ccj1d66j.s 			page 82


 4164 0080 1A78     		ldrb	r2, [r3]	@ zero_extendqisi2
 4165 0082 124B     		ldr	r3, .L120
 4166 0084 9A71     		strb	r2, [r3, #6]
 404:PumpCom.c     ****     MepsanSendTo[7] = 0x03;
 4167              		.loc 1 404 0
 4168 0086 114B     		ldr	r3, .L120
 4169 0088 0322     		movs	r2, #3
 4170 008a DA71     		strb	r2, [r3, #7]
 405:PumpCom.c     ****     MepsanSendTo[8] = 0xFA;
 4171              		.loc 1 405 0
 4172 008c 0F4B     		ldr	r3, .L120
 4173 008e FA22     		movs	r2, #250
 4174 0090 1A72     		strb	r2, [r3, #8]
 4175              	.LBB22:
 406:PumpCom.c     ****     for(uint8 x = 0; x <= 9; x++){    
 4176              		.loc 1 406 0
 4177 0092 0023     		movs	r3, #0
 4178 0094 BB73     		strb	r3, [r7, #14]
 4179 0096 08E0     		b	.L117
 4180              	.L118:
 407:PumpCom.c     ****         MEPSAN_PutChar(MepsanSendTo[x]);
 4181              		.loc 1 407 0 discriminator 3
 4182 0098 BB7B     		ldrb	r3, [r7, #14]	@ zero_extendqisi2
 4183 009a 0C4A     		ldr	r2, .L120
 4184 009c D35C     		ldrb	r3, [r2, r3]	@ zero_extendqisi2
 4185 009e 1846     		mov	r0, r3
 4186 00a0 FFF7FEFF 		bl	MEPSAN_PutChar
 406:PumpCom.c     ****     for(uint8 x = 0; x <= 9; x++){    
 4187              		.loc 1 406 0 discriminator 3
 4188 00a4 BB7B     		ldrb	r3, [r7, #14]	@ zero_extendqisi2
 4189 00a6 0133     		adds	r3, r3, #1
 4190 00a8 BB73     		strb	r3, [r7, #14]
 4191              	.L117:
 406:PumpCom.c     ****     for(uint8 x = 0; x <= 9; x++){    
 4192              		.loc 1 406 0 is_stmt 0 discriminator 1
 4193 00aa BB7B     		ldrb	r3, [r7, #14]	@ zero_extendqisi2
 4194 00ac 092B     		cmp	r3, #9
 4195 00ae F3D9     		bls	.L118
 4196              	.LBE22:
 408:PumpCom.c     ****     }
 409:PumpCom.c     ****     CyDelay(4);
 4197              		.loc 1 409 0 is_stmt 1
 4198 00b0 0420     		movs	r0, #4
 4199 00b2 FFF7FEFF 		bl	CyDelay
 410:PumpCom.c     ****     EnablePin_Write (0u);
 4200              		.loc 1 410 0
 4201 00b6 0020     		movs	r0, #0
 4202 00b8 FFF7FEFF 		bl	EnablePin_Write
 411:PumpCom.c     ****     CyDelay(200);
 4203              		.loc 1 411 0
 4204 00bc C820     		movs	r0, #200
 4205 00be FFF7FEFF 		bl	CyDelay
 412:PumpCom.c     ****     return status;
 4206              		.loc 1 412 0
 4207 00c2 7B7B     		ldrb	r3, [r7, #13]	@ zero_extendqisi2
 413:PumpCom.c     **** }
 4208              		.loc 1 413 0
ARM GAS  C:\Users\Diego\AppData\Local\Temp\ccj1d66j.s 			page 83


 4209 00c4 1846     		mov	r0, r3
 4210 00c6 1037     		adds	r7, r7, #16
 4211              		.cfi_def_cfa_offset 8
 4212 00c8 BD46     		mov	sp, r7
 4213              		.cfi_def_cfa_register 13
 4214              		@ sp needed
 4215 00ca 80BD     		pop	{r7, pc}
 4216              	.L121:
 4217              		.align	2
 4218              	.L120:
 4219 00cc 00000000 		.word	MepsanSendTo
 4220 00d0 00000000 		.word	CRC
 4221 00d4 00000000 		.word	crc_hi
 4222 00d8 00000000 		.word	crc_lo
 4223              		.cfi_endproc
 4224              	.LFE66:
 4225              		.size	Authorize, .-Authorize
 4226              		.section	.text.ReturnStatus,"ax",%progbits
 4227              		.align	2
 4228              		.global	ReturnStatus
 4229              		.thumb
 4230              		.thumb_func
 4231              		.type	ReturnStatus, %function
 4232              	ReturnStatus:
 4233              	.LFB67:
 414:PumpCom.c     **** 
 415:PumpCom.c     **** /*******************************************************************************
 416:PumpCom.c     **** * Function Name: ReturnStatus
 417:PumpCom.c     **** ********************************************************************************
 418:PumpCom.c     **** *
 419:PumpCom.c     **** *
 420:PumpCom.c     **** *******************************************************************************/
 421:PumpCom.c     **** uint8 ReturnStatus(uint8 address){
 4234              		.loc 1 421 0
 4235              		.cfi_startproc
 4236              		@ args = 0, pretend = 0, frame = 16
 4237              		@ frame_needed = 1, uses_anonymous_args = 0
 4238 0000 90B5     		push	{r4, r7, lr}
 4239              		.cfi_def_cfa_offset 12
 4240              		.cfi_offset 4, -12
 4241              		.cfi_offset 7, -8
 4242              		.cfi_offset 14, -4
 4243 0002 85B0     		sub	sp, sp, #20
 4244              		.cfi_def_cfa_offset 32
 4245 0004 00AF     		add	r7, sp, #0
 4246              		.cfi_def_cfa_register 7
 4247 0006 0346     		mov	r3, r0
 4248 0008 FB71     		strb	r3, [r7, #7]
 4249              	.LBB23:
 422:PumpCom.c     ****     uint8 size, status;    
 423:PumpCom.c     ****     for(uint8 x = 0; x < 50; x ++){
 4250              		.loc 1 423 0
 4251 000a 0023     		movs	r3, #0
 4252 000c FB73     		strb	r3, [r7, #15]
 4253 000e 06E0     		b	.L123
 4254              	.L124:
 424:PumpCom.c     ****         MepsanSendTo[x] = 0x00;
ARM GAS  C:\Users\Diego\AppData\Local\Temp\ccj1d66j.s 			page 84


 4255              		.loc 1 424 0 discriminator 3
 4256 0010 FB7B     		ldrb	r3, [r7, #15]	@ zero_extendqisi2
 4257 0012 3B4A     		ldr	r2, .L130
 4258 0014 0021     		movs	r1, #0
 4259 0016 D154     		strb	r1, [r2, r3]
 423:PumpCom.c     ****         MepsanSendTo[x] = 0x00;
 4260              		.loc 1 423 0 discriminator 3
 4261 0018 FB7B     		ldrb	r3, [r7, #15]	@ zero_extendqisi2
 4262 001a 0133     		adds	r3, r3, #1
 4263 001c FB73     		strb	r3, [r7, #15]
 4264              	.L123:
 423:PumpCom.c     ****         MepsanSendTo[x] = 0x00;
 4265              		.loc 1 423 0 is_stmt 0 discriminator 1
 4266 001e FB7B     		ldrb	r3, [r7, #15]	@ zero_extendqisi2
 4267 0020 312B     		cmp	r3, #49
 4268 0022 F5D9     		bls	.L124
 4269              	.LBE23:
 425:PumpCom.c     ****     }
 426:PumpCom.c     ****     EnablePin_Write (1u);
 4270              		.loc 1 426 0 is_stmt 1
 4271 0024 0120     		movs	r0, #1
 4272 0026 FFF7FEFF 		bl	EnablePin_Write
 427:PumpCom.c     ****     MepsanSendTo[0] = (0x50|address);
 4273              		.loc 1 427 0
 4274 002a FB79     		ldrb	r3, [r7, #7]
 4275 002c 43F05003 		orr	r3, r3, #80
 4276 0030 DAB2     		uxtb	r2, r3
 4277 0032 334B     		ldr	r3, .L130
 4278 0034 1A70     		strb	r2, [r3]
 428:PumpCom.c     ****     MepsanSendTo[1] = (0x30);
 4279              		.loc 1 428 0
 4280 0036 324B     		ldr	r3, .L130
 4281 0038 3022     		movs	r2, #48
 4282 003a 5A70     		strb	r2, [r3, #1]
 429:PumpCom.c     ****     MepsanSendTo[2] = (address + 1);
 4283              		.loc 1 429 0
 4284 003c FB79     		ldrb	r3, [r7, #7]
 4285 003e 0133     		adds	r3, r3, #1
 4286 0040 DAB2     		uxtb	r2, r3
 4287 0042 2F4B     		ldr	r3, .L130
 4288 0044 9A70     		strb	r2, [r3, #2]
 430:PumpCom.c     ****     MepsanSendTo[3] = (0x01);
 4289              		.loc 1 430 0
 4290 0046 2E4B     		ldr	r3, .L130
 4291 0048 0122     		movs	r2, #1
 4292 004a DA70     		strb	r2, [r3, #3]
 431:PumpCom.c     ****     MepsanSendTo[4] = (MEPSAN_STATE);
 4293              		.loc 1 431 0
 4294 004c 2C4B     		ldr	r3, .L130
 4295 004e 0022     		movs	r2, #0
 4296 0050 1A71     		strb	r2, [r3, #4]
 432:PumpCom.c     ****     CRC    = gen_crc16(MepsanSendTo,5);
 4297              		.loc 1 432 0
 4298 0052 0521     		movs	r1, #5
 4299 0054 2A48     		ldr	r0, .L130
 4300 0056 FFF7FEFF 		bl	gen_crc16
 4301 005a 0346     		mov	r3, r0
ARM GAS  C:\Users\Diego\AppData\Local\Temp\ccj1d66j.s 			page 85


 4302 005c 1A46     		mov	r2, r3
 4303 005e 294B     		ldr	r3, .L130+4
 4304 0060 1A80     		strh	r2, [r3]	@ movhi
 433:PumpCom.c     ****     crc_hi = (CRC & 0xFF00) >> 8;
 4305              		.loc 1 433 0
 4306 0062 284B     		ldr	r3, .L130+4
 4307 0064 1B88     		ldrh	r3, [r3]
 4308 0066 1B0A     		lsrs	r3, r3, #8
 4309 0068 9BB2     		uxth	r3, r3
 4310 006a DAB2     		uxtb	r2, r3
 4311 006c 264B     		ldr	r3, .L130+8
 4312 006e 1A70     		strb	r2, [r3]
 434:PumpCom.c     ****     crc_lo = (CRC & 0x00FF) ;
 4313              		.loc 1 434 0
 4314 0070 244B     		ldr	r3, .L130+4
 4315 0072 1B88     		ldrh	r3, [r3]
 4316 0074 DAB2     		uxtb	r2, r3
 4317 0076 254B     		ldr	r3, .L130+12
 4318 0078 1A70     		strb	r2, [r3]
 435:PumpCom.c     ****     MepsanSendTo[5] = crc_lo;
 4319              		.loc 1 435 0
 4320 007a 244B     		ldr	r3, .L130+12
 4321 007c 1A78     		ldrb	r2, [r3]	@ zero_extendqisi2
 4322 007e 204B     		ldr	r3, .L130
 4323 0080 5A71     		strb	r2, [r3, #5]
 436:PumpCom.c     ****     MepsanSendTo[6] = crc_hi;
 4324              		.loc 1 436 0
 4325 0082 214B     		ldr	r3, .L130+8
 4326 0084 1A78     		ldrb	r2, [r3]	@ zero_extendqisi2
 4327 0086 1E4B     		ldr	r3, .L130
 4328 0088 9A71     		strb	r2, [r3, #6]
 437:PumpCom.c     ****     MepsanSendTo[7] = 0x03;
 4329              		.loc 1 437 0
 4330 008a 1D4B     		ldr	r3, .L130
 4331 008c 0322     		movs	r2, #3
 4332 008e DA71     		strb	r2, [r3, #7]
 438:PumpCom.c     ****     MepsanSendTo[8] = 0xFA;
 4333              		.loc 1 438 0
 4334 0090 1B4B     		ldr	r3, .L130
 4335 0092 FA22     		movs	r2, #250
 4336 0094 1A72     		strb	r2, [r3, #8]
 4337              	.LBB24:
 439:PumpCom.c     ****     for(uint8 x = 0; x <= 9; x++){    
 4338              		.loc 1 439 0
 4339 0096 0023     		movs	r3, #0
 4340 0098 BB73     		strb	r3, [r7, #14]
 4341 009a 08E0     		b	.L125
 4342              	.L126:
 440:PumpCom.c     ****         MEPSAN_PutChar(MepsanSendTo[x]);
 4343              		.loc 1 440 0 discriminator 3
 4344 009c BB7B     		ldrb	r3, [r7, #14]	@ zero_extendqisi2
 4345 009e 184A     		ldr	r2, .L130
 4346 00a0 D35C     		ldrb	r3, [r2, r3]	@ zero_extendqisi2
 4347 00a2 1846     		mov	r0, r3
 4348 00a4 FFF7FEFF 		bl	MEPSAN_PutChar
 439:PumpCom.c     ****     for(uint8 x = 0; x <= 9; x++){    
 4349              		.loc 1 439 0 discriminator 3
ARM GAS  C:\Users\Diego\AppData\Local\Temp\ccj1d66j.s 			page 86


 4350 00a8 BB7B     		ldrb	r3, [r7, #14]	@ zero_extendqisi2
 4351 00aa 0133     		adds	r3, r3, #1
 4352 00ac BB73     		strb	r3, [r7, #14]
 4353              	.L125:
 439:PumpCom.c     ****     for(uint8 x = 0; x <= 9; x++){    
 4354              		.loc 1 439 0 is_stmt 0 discriminator 1
 4355 00ae BB7B     		ldrb	r3, [r7, #14]	@ zero_extendqisi2
 4356 00b0 092B     		cmp	r3, #9
 4357 00b2 F3D9     		bls	.L126
 4358              	.LBE24:
 441:PumpCom.c     ****     }
 442:PumpCom.c     ****     CyDelay(4);
 4359              		.loc 1 442 0 is_stmt 1
 4360 00b4 0420     		movs	r0, #4
 4361 00b6 FFF7FEFF 		bl	CyDelay
 443:PumpCom.c     ****     EnablePin_Write (0u);
 4362              		.loc 1 443 0
 4363 00ba 0020     		movs	r0, #0
 4364 00bc FFF7FEFF 		bl	EnablePin_Write
 444:PumpCom.c     ****     size = MEPSAN_GetRxBufferSize();
 4365              		.loc 1 444 0
 4366 00c0 FFF7FEFF 		bl	MEPSAN_GetRxBufferSize
 4367 00c4 0346     		mov	r3, r0
 4368 00c6 3B73     		strb	r3, [r7, #12]
 4369              	.LBB25:
 445:PumpCom.c     ****     for(uint8 MepRx = 0; MepRx < size; MepRx++){
 4370              		.loc 1 445 0
 4371 00c8 0023     		movs	r3, #0
 4372 00ca 7B73     		strb	r3, [r7, #13]
 4373 00cc 09E0     		b	.L127
 4374              	.L128:
 446:PumpCom.c     ****         MepsanResponse[MepRx] = MEPSAN_ReadRxData();
 4375              		.loc 1 446 0 discriminator 3
 4376 00ce 7C7B     		ldrb	r4, [r7, #13]	@ zero_extendqisi2
 4377 00d0 FFF7FEFF 		bl	MEPSAN_ReadRxData
 4378 00d4 0346     		mov	r3, r0
 4379 00d6 1A46     		mov	r2, r3
 4380 00d8 0D4B     		ldr	r3, .L130+16
 4381 00da 1A55     		strb	r2, [r3, r4]
 445:PumpCom.c     ****     for(uint8 MepRx = 0; MepRx < size; MepRx++){
 4382              		.loc 1 445 0 discriminator 3
 4383 00dc 7B7B     		ldrb	r3, [r7, #13]	@ zero_extendqisi2
 4384 00de 0133     		adds	r3, r3, #1
 4385 00e0 7B73     		strb	r3, [r7, #13]
 4386              	.L127:
 445:PumpCom.c     ****     for(uint8 MepRx = 0; MepRx < size; MepRx++){
 4387              		.loc 1 445 0 is_stmt 0 discriminator 1
 4388 00e2 7A7B     		ldrb	r2, [r7, #13]	@ zero_extendqisi2
 4389 00e4 3B7B     		ldrb	r3, [r7, #12]	@ zero_extendqisi2
 4390 00e6 9A42     		cmp	r2, r3
 4391 00e8 F1D3     		bcc	.L128
 4392              	.LBE25:
 447:PumpCom.c     ****     }       
 448:PumpCom.c     ****     MEPSAN_ClearRxBuffer();
 4393              		.loc 1 448 0 is_stmt 1
 4394 00ea FFF7FEFF 		bl	MEPSAN_ClearRxBuffer
 449:PumpCom.c     ****     CyDelay(300); 
ARM GAS  C:\Users\Diego\AppData\Local\Temp\ccj1d66j.s 			page 87


 4395              		.loc 1 449 0
 4396 00ee 4FF49670 		mov	r0, #300
 4397 00f2 FFF7FEFF 		bl	CyDelay
 450:PumpCom.c     ****     return status;
 4398              		.loc 1 450 0
 4399 00f6 FB7A     		ldrb	r3, [r7, #11]	@ zero_extendqisi2
 451:PumpCom.c     **** }
 4400              		.loc 1 451 0
 4401 00f8 1846     		mov	r0, r3
 4402 00fa 1437     		adds	r7, r7, #20
 4403              		.cfi_def_cfa_offset 12
 4404 00fc BD46     		mov	sp, r7
 4405              		.cfi_def_cfa_register 13
 4406              		@ sp needed
 4407 00fe 90BD     		pop	{r4, r7, pc}
 4408              	.L131:
 4409              		.align	2
 4410              	.L130:
 4411 0100 00000000 		.word	MepsanSendTo
 4412 0104 00000000 		.word	CRC
 4413 0108 00000000 		.word	crc_hi
 4414 010c 00000000 		.word	crc_lo
 4415 0110 00000000 		.word	MepsanResponse
 4416              		.cfi_endproc
 4417              	.LFE67:
 4418              		.size	ReturnStatus, .-ReturnStatus
 4419              		.section	.text.PumpState,"ax",%progbits
 4420              		.align	2
 4421              		.global	PumpState
 4422              		.thumb
 4423              		.thumb_func
 4424              		.type	PumpState, %function
 4425              	PumpState:
 4426              	.LFB68:
 452:PumpCom.c     **** 
 453:PumpCom.c     **** /*******************************************************************************
 454:PumpCom.c     **** * Function Name: PumpState
 455:PumpCom.c     **** ********************************************************************************
 456:PumpCom.c     **** *
 457:PumpCom.c     **** *
 458:PumpCom.c     **** *******************************************************************************/
 459:PumpCom.c     **** 
 460:PumpCom.c     **** uint8 PumpState(uint8 address)
 461:PumpCom.c     **** { 
 4427              		.loc 1 461 0
 4428              		.cfi_startproc
 4429              		@ args = 0, pretend = 0, frame = 16
 4430              		@ frame_needed = 1, uses_anonymous_args = 0
 4431 0000 90B5     		push	{r4, r7, lr}
 4432              		.cfi_def_cfa_offset 12
 4433              		.cfi_offset 4, -12
 4434              		.cfi_offset 7, -8
 4435              		.cfi_offset 14, -4
 4436 0002 85B0     		sub	sp, sp, #20
 4437              		.cfi_def_cfa_offset 32
 4438 0004 00AF     		add	r7, sp, #0
 4439              		.cfi_def_cfa_register 7
ARM GAS  C:\Users\Diego\AppData\Local\Temp\ccj1d66j.s 			page 88


 4440 0006 0346     		mov	r3, r0
 4441 0008 FB71     		strb	r3, [r7, #7]
 4442              	.LBB26:
 462:PumpCom.c     ****     for(uint8 x = 0; x < 50; x ++){
 4443              		.loc 1 462 0
 4444 000a 0023     		movs	r3, #0
 4445 000c FB73     		strb	r3, [r7, #15]
 4446 000e 06E0     		b	.L133
 4447              	.L134:
 463:PumpCom.c     ****         MepsanResponse[x] = 0x00;
 4448              		.loc 1 463 0 discriminator 3
 4449 0010 FB7B     		ldrb	r3, [r7, #15]	@ zero_extendqisi2
 4450 0012 5A4A     		ldr	r2, .L152
 4451 0014 0021     		movs	r1, #0
 4452 0016 D154     		strb	r1, [r2, r3]
 462:PumpCom.c     ****     for(uint8 x = 0; x < 50; x ++){
 4453              		.loc 1 462 0 discriminator 3
 4454 0018 FB7B     		ldrb	r3, [r7, #15]	@ zero_extendqisi2
 4455 001a 0133     		adds	r3, r3, #1
 4456 001c FB73     		strb	r3, [r7, #15]
 4457              	.L133:
 462:PumpCom.c     ****     for(uint8 x = 0; x < 50; x ++){
 4458              		.loc 1 462 0 is_stmt 0 discriminator 1
 4459 001e FB7B     		ldrb	r3, [r7, #15]	@ zero_extendqisi2
 4460 0020 312B     		cmp	r3, #49
 4461 0022 F5D9     		bls	.L134
 4462              	.LBE26:
 464:PumpCom.c     ****     }
 465:PumpCom.c     ****     uint8 size;
 466:PumpCom.c     ****     EnablePin_Write (1u);
 4463              		.loc 1 466 0 is_stmt 1
 4464 0024 0120     		movs	r0, #1
 4465 0026 FFF7FEFF 		bl	EnablePin_Write
 467:PumpCom.c     ****     MEPSAN_PutChar((0x50|address));
 4466              		.loc 1 467 0
 4467 002a FB79     		ldrb	r3, [r7, #7]
 4468 002c 43F05003 		orr	r3, r3, #80
 4469 0030 DBB2     		uxtb	r3, r3
 4470 0032 1846     		mov	r0, r3
 4471 0034 FFF7FEFF 		bl	MEPSAN_PutChar
 468:PumpCom.c     ****     MEPSAN_PutChar(0x20);
 4472              		.loc 1 468 0
 4473 0038 2020     		movs	r0, #32
 4474 003a FFF7FEFF 		bl	MEPSAN_PutChar
 469:PumpCom.c     ****     MEPSAN_PutChar(0xFA); 
 4475              		.loc 1 469 0
 4476 003e FA20     		movs	r0, #250
 4477 0040 FFF7FEFF 		bl	MEPSAN_PutChar
 470:PumpCom.c     ****     CyDelay(3);
 4478              		.loc 1 470 0
 4479 0044 0320     		movs	r0, #3
 4480 0046 FFF7FEFF 		bl	CyDelay
 471:PumpCom.c     ****     EnablePin_Write (0u);
 4481              		.loc 1 471 0
 4482 004a 0020     		movs	r0, #0
 4483 004c FFF7FEFF 		bl	EnablePin_Write
 472:PumpCom.c     ****     size = MEPSAN_GetRxBufferSize();       
ARM GAS  C:\Users\Diego\AppData\Local\Temp\ccj1d66j.s 			page 89


 4484              		.loc 1 472 0
 4485 0050 FFF7FEFF 		bl	MEPSAN_GetRxBufferSize
 4486 0054 0346     		mov	r3, r0
 4487 0056 7B72     		strb	r3, [r7, #9]
 4488              	.LBB27:
 473:PumpCom.c     ****     for(uint8 MepRx = 1; MepRx < size + 1; MepRx++){
 4489              		.loc 1 473 0
 4490 0058 0123     		movs	r3, #1
 4491 005a BB73     		strb	r3, [r7, #14]
 4492 005c 09E0     		b	.L135
 4493              	.L136:
 474:PumpCom.c     ****         MepsanResponse[MepRx] = MEPSAN_ReadRxData();
 4494              		.loc 1 474 0 discriminator 3
 4495 005e BC7B     		ldrb	r4, [r7, #14]	@ zero_extendqisi2
 4496 0060 FFF7FEFF 		bl	MEPSAN_ReadRxData
 4497 0064 0346     		mov	r3, r0
 4498 0066 1A46     		mov	r2, r3
 4499 0068 444B     		ldr	r3, .L152
 4500 006a 1A55     		strb	r2, [r3, r4]
 473:PumpCom.c     ****     for(uint8 MepRx = 1; MepRx < size + 1; MepRx++){
 4501              		.loc 1 473 0 discriminator 3
 4502 006c BB7B     		ldrb	r3, [r7, #14]	@ zero_extendqisi2
 4503 006e 0133     		adds	r3, r3, #1
 4504 0070 BB73     		strb	r3, [r7, #14]
 4505              	.L135:
 473:PumpCom.c     ****     for(uint8 MepRx = 1; MepRx < size + 1; MepRx++){
 4506              		.loc 1 473 0 is_stmt 0 discriminator 1
 4507 0072 BA7B     		ldrb	r2, [r7, #14]	@ zero_extendqisi2
 4508 0074 7B7A     		ldrb	r3, [r7, #9]	@ zero_extendqisi2
 4509 0076 0133     		adds	r3, r3, #1
 4510 0078 9A42     		cmp	r2, r3
 4511 007a F0DB     		blt	.L136
 4512              	.LBE27:
 475:PumpCom.c     ****     } 
 476:PumpCom.c     ****     MepsanResponse[0] = size;
 4513              		.loc 1 476 0 is_stmt 1
 4514 007c 3F4A     		ldr	r2, .L152
 4515 007e 7B7A     		ldrb	r3, [r7, #9]
 4516 0080 1370     		strb	r3, [r2]
 477:PumpCom.c     ****     MEPSAN_ClearRxBuffer();
 4517              		.loc 1 477 0
 4518 0082 FFF7FEFF 		bl	MEPSAN_ClearRxBuffer
 478:PumpCom.c     ****     if(size > 3){
 4519              		.loc 1 478 0
 4520 0086 7B7A     		ldrb	r3, [r7, #9]	@ zero_extendqisi2
 4521 0088 032B     		cmp	r3, #3
 4522 008a 05D9     		bls	.L137
 479:PumpCom.c     ****         GetResponse();
 4523              		.loc 1 479 0
 4524 008c FFF7FEFF 		bl	GetResponse
 480:PumpCom.c     ****         CyDelay(100);
 4525              		.loc 1 480 0
 4526 0090 6420     		movs	r0, #100
 4527 0092 FFF7FEFF 		bl	CyDelay
 4528 0096 65E0     		b	.L138
 4529              	.L137:
 481:PumpCom.c     ****     }else{
ARM GAS  C:\Users\Diego\AppData\Local\Temp\ccj1d66j.s 			page 90


 482:PumpCom.c     ****         CyDelay(100); 
 4530              		.loc 1 482 0
 4531 0098 6420     		movs	r0, #100
 4532 009a FFF7FEFF 		bl	CyDelay
 483:PumpCom.c     ****         if(address == side.a.dir){
 4533              		.loc 1 483 0
 4534 009e 384B     		ldr	r3, .L152+4
 4535 00a0 1B78     		ldrb	r3, [r3]	@ zero_extendqisi2
 4536 00a2 FA79     		ldrb	r2, [r7, #7]	@ zero_extendqisi2
 4537 00a4 9A42     		cmp	r2, r3
 4538 00a6 12D1     		bne	.L139
 4539              	.LBB28:
 484:PumpCom.c     ****             for(uint8 MepRx = 0; MepRx < size; MepRx++){
 4540              		.loc 1 484 0
 4541 00a8 0023     		movs	r3, #0
 4542 00aa 7B73     		strb	r3, [r7, #13]
 4543 00ac 0BE0     		b	.L140
 4544              	.L141:
 485:PumpCom.c     ****                 side.a.MepsanStore[MepRx] = MepsanResponse[MepRx];
 4545              		.loc 1 485 0 discriminator 3
 4546 00ae 7B7B     		ldrb	r3, [r7, #13]	@ zero_extendqisi2
 4547 00b0 7A7B     		ldrb	r2, [r7, #13]	@ zero_extendqisi2
 4548 00b2 3249     		ldr	r1, .L152
 4549 00b4 895C     		ldrb	r1, [r1, r2]	@ zero_extendqisi2
 4550 00b6 324A     		ldr	r2, .L152+4
 4551 00b8 1344     		add	r3, r3, r2
 4552 00ba 0A46     		mov	r2, r1
 4553 00bc 83F85120 		strb	r2, [r3, #81]
 484:PumpCom.c     ****             for(uint8 MepRx = 0; MepRx < size; MepRx++){
 4554              		.loc 1 484 0 discriminator 3
 4555 00c0 7B7B     		ldrb	r3, [r7, #13]	@ zero_extendqisi2
 4556 00c2 0133     		adds	r3, r3, #1
 4557 00c4 7B73     		strb	r3, [r7, #13]
 4558              	.L140:
 484:PumpCom.c     ****             for(uint8 MepRx = 0; MepRx < size; MepRx++){
 4559              		.loc 1 484 0 is_stmt 0 discriminator 1
 4560 00c6 7A7B     		ldrb	r2, [r7, #13]	@ zero_extendqisi2
 4561 00c8 7B7A     		ldrb	r3, [r7, #9]	@ zero_extendqisi2
 4562 00ca 9A42     		cmp	r2, r3
 4563 00cc EFD3     		bcc	.L141
 4564              	.L139:
 4565              	.LBE28:
 486:PumpCom.c     ****             }        
 487:PumpCom.c     ****         }
 488:PumpCom.c     ****         if(address == side.b.dir){
 4566              		.loc 1 488 0 is_stmt 1
 4567 00ce 2C4B     		ldr	r3, .L152+4
 4568 00d0 93F83531 		ldrb	r3, [r3, #309]	@ zero_extendqisi2
 4569 00d4 FA79     		ldrb	r2, [r7, #7]	@ zero_extendqisi2
 4570 00d6 9A42     		cmp	r2, r3
 4571 00d8 12D1     		bne	.L142
 4572              	.LBB29:
 489:PumpCom.c     ****             for(uint8 MepRx = 0; MepRx < size; MepRx++){
 4573              		.loc 1 489 0
 4574 00da 0023     		movs	r3, #0
 4575 00dc 3B73     		strb	r3, [r7, #12]
 4576 00de 0BE0     		b	.L143
ARM GAS  C:\Users\Diego\AppData\Local\Temp\ccj1d66j.s 			page 91


 4577              	.L144:
 490:PumpCom.c     ****                 side.b.MepsanStore[MepRx] = MepsanResponse[MepRx];
 4578              		.loc 1 490 0 discriminator 3
 4579 00e0 3B7B     		ldrb	r3, [r7, #12]	@ zero_extendqisi2
 4580 00e2 3A7B     		ldrb	r2, [r7, #12]	@ zero_extendqisi2
 4581 00e4 2549     		ldr	r1, .L152
 4582 00e6 895C     		ldrb	r1, [r1, r2]	@ zero_extendqisi2
 4583 00e8 254A     		ldr	r2, .L152+4
 4584 00ea 1344     		add	r3, r3, r2
 4585 00ec 0A46     		mov	r2, r1
 4586 00ee 83F88621 		strb	r2, [r3, #390]
 489:PumpCom.c     ****             for(uint8 MepRx = 0; MepRx < size; MepRx++){
 4587              		.loc 1 489 0 discriminator 3
 4588 00f2 3B7B     		ldrb	r3, [r7, #12]	@ zero_extendqisi2
 4589 00f4 0133     		adds	r3, r3, #1
 4590 00f6 3B73     		strb	r3, [r7, #12]
 4591              	.L143:
 489:PumpCom.c     ****             for(uint8 MepRx = 0; MepRx < size; MepRx++){
 4592              		.loc 1 489 0 is_stmt 0 discriminator 1
 4593 00f8 3A7B     		ldrb	r2, [r7, #12]	@ zero_extendqisi2
 4594 00fa 7B7A     		ldrb	r3, [r7, #9]	@ zero_extendqisi2
 4595 00fc 9A42     		cmp	r2, r3
 4596 00fe EFD3     		bcc	.L144
 4597              	.L142:
 4598              	.LBE29:
 491:PumpCom.c     ****             }
 492:PumpCom.c     ****         }
 493:PumpCom.c     ****         if(address == side.c.dir){
 4599              		.loc 1 493 0 is_stmt 1
 4600 0100 1F4B     		ldr	r3, .L152+4
 4601 0102 93F86A32 		ldrb	r3, [r3, #618]	@ zero_extendqisi2
 4602 0106 FA79     		ldrb	r2, [r7, #7]	@ zero_extendqisi2
 4603 0108 9A42     		cmp	r2, r3
 4604 010a 12D1     		bne	.L145
 4605              	.LBB30:
 494:PumpCom.c     ****             for(uint8 MepRx = 0; MepRx < size; MepRx++){
 4606              		.loc 1 494 0
 4607 010c 0023     		movs	r3, #0
 4608 010e FB72     		strb	r3, [r7, #11]
 4609 0110 0BE0     		b	.L146
 4610              	.L147:
 495:PumpCom.c     ****                 side.c.MepsanStore[MepRx] = MepsanResponse[MepRx];
 4611              		.loc 1 495 0 discriminator 3
 4612 0112 FB7A     		ldrb	r3, [r7, #11]	@ zero_extendqisi2
 4613 0114 FA7A     		ldrb	r2, [r7, #11]	@ zero_extendqisi2
 4614 0116 1949     		ldr	r1, .L152
 4615 0118 895C     		ldrb	r1, [r1, r2]	@ zero_extendqisi2
 4616 011a 194A     		ldr	r2, .L152+4
 4617 011c 1344     		add	r3, r3, r2
 4618 011e 0A46     		mov	r2, r1
 4619 0120 83F8BB22 		strb	r2, [r3, #699]
 494:PumpCom.c     ****             for(uint8 MepRx = 0; MepRx < size; MepRx++){
 4620              		.loc 1 494 0 discriminator 3
 4621 0124 FB7A     		ldrb	r3, [r7, #11]	@ zero_extendqisi2
 4622 0126 0133     		adds	r3, r3, #1
 4623 0128 FB72     		strb	r3, [r7, #11]
 4624              	.L146:
ARM GAS  C:\Users\Diego\AppData\Local\Temp\ccj1d66j.s 			page 92


 494:PumpCom.c     ****             for(uint8 MepRx = 0; MepRx < size; MepRx++){
 4625              		.loc 1 494 0 is_stmt 0 discriminator 1
 4626 012a FA7A     		ldrb	r2, [r7, #11]	@ zero_extendqisi2
 4627 012c 7B7A     		ldrb	r3, [r7, #9]	@ zero_extendqisi2
 4628 012e 9A42     		cmp	r2, r3
 4629 0130 EFD3     		bcc	.L147
 4630              	.L145:
 4631              	.LBE30:
 496:PumpCom.c     ****             }
 497:PumpCom.c     ****         }
 498:PumpCom.c     ****         if(address == side.d.dir){
 4632              		.loc 1 498 0 is_stmt 1
 4633 0132 134B     		ldr	r3, .L152+4
 4634 0134 93F89F33 		ldrb	r3, [r3, #927]	@ zero_extendqisi2
 4635 0138 FA79     		ldrb	r2, [r7, #7]	@ zero_extendqisi2
 4636 013a 9A42     		cmp	r2, r3
 4637 013c 12D1     		bne	.L138
 4638              	.LBB31:
 499:PumpCom.c     ****             for(uint8 MepRx = 0; MepRx < size; MepRx++){
 4639              		.loc 1 499 0
 4640 013e 0023     		movs	r3, #0
 4641 0140 BB72     		strb	r3, [r7, #10]
 4642 0142 0BE0     		b	.L148
 4643              	.L149:
 500:PumpCom.c     ****                 side.d.MepsanStore[MepRx] = MepsanResponse[MepRx];
 4644              		.loc 1 500 0 discriminator 3
 4645 0144 BB7A     		ldrb	r3, [r7, #10]	@ zero_extendqisi2
 4646 0146 BA7A     		ldrb	r2, [r7, #10]	@ zero_extendqisi2
 4647 0148 0C49     		ldr	r1, .L152
 4648 014a 895C     		ldrb	r1, [r1, r2]	@ zero_extendqisi2
 4649 014c 0C4A     		ldr	r2, .L152+4
 4650 014e 1344     		add	r3, r3, r2
 4651 0150 0A46     		mov	r2, r1
 4652 0152 83F8F023 		strb	r2, [r3, #1008]
 499:PumpCom.c     ****             for(uint8 MepRx = 0; MepRx < size; MepRx++){
 4653              		.loc 1 499 0 discriminator 3
 4654 0156 BB7A     		ldrb	r3, [r7, #10]	@ zero_extendqisi2
 4655 0158 0133     		adds	r3, r3, #1
 4656 015a BB72     		strb	r3, [r7, #10]
 4657              	.L148:
 499:PumpCom.c     ****             for(uint8 MepRx = 0; MepRx < size; MepRx++){
 4658              		.loc 1 499 0 is_stmt 0 discriminator 1
 4659 015c BA7A     		ldrb	r2, [r7, #10]	@ zero_extendqisi2
 4660 015e 7B7A     		ldrb	r3, [r7, #9]	@ zero_extendqisi2
 4661 0160 9A42     		cmp	r2, r3
 4662 0162 EFD3     		bcc	.L149
 4663              	.L138:
 4664              	.LBE31:
 501:PumpCom.c     ****             }
 502:PumpCom.c     ****         } 
 503:PumpCom.c     ****     }
 504:PumpCom.c     ****     if(size>=1){              
 4665              		.loc 1 504 0 is_stmt 1
 4666 0164 7B7A     		ldrb	r3, [r7, #9]	@ zero_extendqisi2
 4667 0166 002B     		cmp	r3, #0
 4668 0168 02D0     		beq	.L150
 505:PumpCom.c     ****         return MepsanResponse[1];
ARM GAS  C:\Users\Diego\AppData\Local\Temp\ccj1d66j.s 			page 93


 4669              		.loc 1 505 0
 4670 016a 044B     		ldr	r3, .L152
 4671 016c 5B78     		ldrb	r3, [r3, #1]	@ zero_extendqisi2
 4672 016e 00E0     		b	.L151
 4673              	.L150:
 506:PumpCom.c     ****     }
 507:PumpCom.c     ****     else{
 508:PumpCom.c     ****        return 0;
 4674              		.loc 1 508 0
 4675 0170 0023     		movs	r3, #0
 4676              	.L151:
 509:PumpCom.c     ****     }
 510:PumpCom.c     ****     
 511:PumpCom.c     **** }
 4677              		.loc 1 511 0
 4678 0172 1846     		mov	r0, r3
 4679 0174 1437     		adds	r7, r7, #20
 4680              		.cfi_def_cfa_offset 12
 4681 0176 BD46     		mov	sp, r7
 4682              		.cfi_def_cfa_register 13
 4683              		@ sp needed
 4684 0178 90BD     		pop	{r4, r7, pc}
 4685              	.L153:
 4686 017a 00BF     		.align	2
 4687              	.L152:
 4688 017c 00000000 		.word	MepsanResponse
 4689 0180 00000000 		.word	side
 4690              		.cfi_endproc
 4691              	.LFE68:
 4692              		.size	PumpState, .-PumpState
 4693              		.section	.text.PriceUpdate,"ax",%progbits
 4694              		.align	2
 4695              		.global	PriceUpdate
 4696              		.thumb
 4697              		.thumb_func
 4698              		.type	PriceUpdate, %function
 4699              	PriceUpdate:
 4700              	.LFB69:
 512:PumpCom.c     **** 
 513:PumpCom.c     **** 
 514:PumpCom.c     **** /*******************************************************************************
 515:PumpCom.c     **** * Function Name: PriceUpdate
 516:PumpCom.c     **** ********************************************************************************
 517:PumpCom.c     **** *
 518:PumpCom.c     **** *
 519:PumpCom.c     **** *******************************************************************************/
 520:PumpCom.c     **** 
 521:PumpCom.c     **** uint8 PriceUpdate(uint8 address, uint8 *price)
 522:PumpCom.c     **** { 
 4701              		.loc 1 522 0
 4702              		.cfi_startproc
 4703              		@ args = 0, pretend = 0, frame = 16
 4704              		@ frame_needed = 1, uses_anonymous_args = 0
 4705 0000 90B5     		push	{r4, r7, lr}
 4706              		.cfi_def_cfa_offset 12
 4707              		.cfi_offset 4, -12
 4708              		.cfi_offset 7, -8
ARM GAS  C:\Users\Diego\AppData\Local\Temp\ccj1d66j.s 			page 94


 4709              		.cfi_offset 14, -4
 4710 0002 85B0     		sub	sp, sp, #20
 4711              		.cfi_def_cfa_offset 32
 4712 0004 00AF     		add	r7, sp, #0
 4713              		.cfi_def_cfa_register 7
 4714 0006 0346     		mov	r3, r0
 4715 0008 3960     		str	r1, [r7]
 4716 000a FB71     		strb	r3, [r7, #7]
 523:PumpCom.c     ****     uint8 size;
 524:PumpCom.c     ****     EnablePin_Write (1u);
 4717              		.loc 1 524 0
 4718 000c 0120     		movs	r0, #1
 4719 000e FFF7FEFF 		bl	EnablePin_Write
 525:PumpCom.c     ****     MepsanSendTo[0] = (0x50|address);
 4720              		.loc 1 525 0
 4721 0012 FB79     		ldrb	r3, [r7, #7]
 4722 0014 43F05003 		orr	r3, r3, #80
 4723 0018 DAB2     		uxtb	r2, r3
 4724 001a 394B     		ldr	r3, .L161
 4725 001c 1A70     		strb	r2, [r3]
 526:PumpCom.c     ****     MepsanSendTo[1] = (0x30);
 4726              		.loc 1 526 0
 4727 001e 384B     		ldr	r3, .L161
 4728 0020 3022     		movs	r2, #48
 4729 0022 5A70     		strb	r2, [r3, #1]
 527:PumpCom.c     ****     MepsanSendTo[2] = (0x05); //Price change transaction
 4730              		.loc 1 527 0
 4731 0024 364B     		ldr	r3, .L161
 4732 0026 0522     		movs	r2, #5
 4733 0028 9A70     		strb	r2, [r3, #2]
 528:PumpCom.c     ****     MepsanSendTo[3] = (0x03); //Data bytes in transaction
 4734              		.loc 1 528 0
 4735 002a 354B     		ldr	r3, .L161
 4736 002c 0322     		movs	r2, #3
 4737 002e DA70     		strb	r2, [r3, #3]
 529:PumpCom.c     ****     MepsanSendTo[4] = (price[0]);
 4738              		.loc 1 529 0
 4739 0030 3B68     		ldr	r3, [r7]
 4740 0032 1A78     		ldrb	r2, [r3]	@ zero_extendqisi2
 4741 0034 324B     		ldr	r3, .L161
 4742 0036 1A71     		strb	r2, [r3, #4]
 530:PumpCom.c     ****     MepsanSendTo[5] = (price[1]);
 4743              		.loc 1 530 0
 4744 0038 3B68     		ldr	r3, [r7]
 4745 003a 5A78     		ldrb	r2, [r3, #1]	@ zero_extendqisi2
 4746 003c 304B     		ldr	r3, .L161
 4747 003e 5A71     		strb	r2, [r3, #5]
 531:PumpCom.c     ****     MepsanSendTo[6] = (price[2]);
 4748              		.loc 1 531 0
 4749 0040 3B68     		ldr	r3, [r7]
 4750 0042 9A78     		ldrb	r2, [r3, #2]	@ zero_extendqisi2
 4751 0044 2E4B     		ldr	r3, .L161
 4752 0046 9A71     		strb	r2, [r3, #6]
 532:PumpCom.c     ****     CRC    = gen_crc16(MepsanSendTo,7);
 4753              		.loc 1 532 0
 4754 0048 0721     		movs	r1, #7
 4755 004a 2D48     		ldr	r0, .L161
ARM GAS  C:\Users\Diego\AppData\Local\Temp\ccj1d66j.s 			page 95


 4756 004c FFF7FEFF 		bl	gen_crc16
 4757 0050 0346     		mov	r3, r0
 4758 0052 1A46     		mov	r2, r3
 4759 0054 2B4B     		ldr	r3, .L161+4
 4760 0056 1A80     		strh	r2, [r3]	@ movhi
 533:PumpCom.c     ****     crc_hi = (CRC & 0xFF00) >> 8;
 4761              		.loc 1 533 0
 4762 0058 2A4B     		ldr	r3, .L161+4
 4763 005a 1B88     		ldrh	r3, [r3]
 4764 005c 1B0A     		lsrs	r3, r3, #8
 4765 005e 9BB2     		uxth	r3, r3
 4766 0060 DAB2     		uxtb	r2, r3
 4767 0062 294B     		ldr	r3, .L161+8
 4768 0064 1A70     		strb	r2, [r3]
 534:PumpCom.c     ****     crc_lo = (CRC & 0x00FF) ;
 4769              		.loc 1 534 0
 4770 0066 274B     		ldr	r3, .L161+4
 4771 0068 1B88     		ldrh	r3, [r3]
 4772 006a DAB2     		uxtb	r2, r3
 4773 006c 274B     		ldr	r3, .L161+12
 4774 006e 1A70     		strb	r2, [r3]
 535:PumpCom.c     ****     MepsanSendTo[7] = crc_lo;
 4775              		.loc 1 535 0
 4776 0070 264B     		ldr	r3, .L161+12
 4777 0072 1A78     		ldrb	r2, [r3]	@ zero_extendqisi2
 4778 0074 224B     		ldr	r3, .L161
 4779 0076 DA71     		strb	r2, [r3, #7]
 536:PumpCom.c     ****     MepsanSendTo[8] = crc_hi;
 4780              		.loc 1 536 0
 4781 0078 234B     		ldr	r3, .L161+8
 4782 007a 1A78     		ldrb	r2, [r3]	@ zero_extendqisi2
 4783 007c 204B     		ldr	r3, .L161
 4784 007e 1A72     		strb	r2, [r3, #8]
 537:PumpCom.c     ****     MepsanSendTo[9] = 0x03;
 4785              		.loc 1 537 0
 4786 0080 1F4B     		ldr	r3, .L161
 4787 0082 0322     		movs	r2, #3
 4788 0084 5A72     		strb	r2, [r3, #9]
 538:PumpCom.c     ****     MepsanSendTo[10] = 0xFA; 
 4789              		.loc 1 538 0
 4790 0086 1E4B     		ldr	r3, .L161
 4791 0088 FA22     		movs	r2, #250
 4792 008a 9A72     		strb	r2, [r3, #10]
 4793              	.LBB32:
 539:PumpCom.c     ****     for(uint8 x = 0; x <= 11; x++){    
 4794              		.loc 1 539 0
 4795 008c 0023     		movs	r3, #0
 4796 008e FB73     		strb	r3, [r7, #15]
 4797 0090 08E0     		b	.L155
 4798              	.L156:
 540:PumpCom.c     ****         MEPSAN_PutChar(MepsanSendTo[x]);
 4799              		.loc 1 540 0 discriminator 3
 4800 0092 FB7B     		ldrb	r3, [r7, #15]	@ zero_extendqisi2
 4801 0094 1A4A     		ldr	r2, .L161
 4802 0096 D35C     		ldrb	r3, [r2, r3]	@ zero_extendqisi2
 4803 0098 1846     		mov	r0, r3
 4804 009a FFF7FEFF 		bl	MEPSAN_PutChar
ARM GAS  C:\Users\Diego\AppData\Local\Temp\ccj1d66j.s 			page 96


 539:PumpCom.c     ****     for(uint8 x = 0; x <= 11; x++){    
 4805              		.loc 1 539 0 discriminator 3
 4806 009e FB7B     		ldrb	r3, [r7, #15]	@ zero_extendqisi2
 4807 00a0 0133     		adds	r3, r3, #1
 4808 00a2 FB73     		strb	r3, [r7, #15]
 4809              	.L155:
 539:PumpCom.c     ****     for(uint8 x = 0; x <= 11; x++){    
 4810              		.loc 1 539 0 is_stmt 0 discriminator 1
 4811 00a4 FB7B     		ldrb	r3, [r7, #15]	@ zero_extendqisi2
 4812 00a6 0B2B     		cmp	r3, #11
 4813 00a8 F3D9     		bls	.L156
 4814              	.LBE32:
 541:PumpCom.c     ****     }
 542:PumpCom.c     ****     CyDelay(4);
 4815              		.loc 1 542 0 is_stmt 1
 4816 00aa 0420     		movs	r0, #4
 4817 00ac FFF7FEFF 		bl	CyDelay
 543:PumpCom.c     ****     EnablePin_Write (0u);
 4818              		.loc 1 543 0
 4819 00b0 0020     		movs	r0, #0
 4820 00b2 FFF7FEFF 		bl	EnablePin_Write
 544:PumpCom.c     ****     size = MEPSAN_GetRxBufferSize();
 4821              		.loc 1 544 0
 4822 00b6 FFF7FEFF 		bl	MEPSAN_GetRxBufferSize
 4823 00ba 0346     		mov	r3, r0
 4824 00bc 7B73     		strb	r3, [r7, #13]
 4825              	.LBB33:
 545:PumpCom.c     ****     for(uint8 MepRx = 0; MepRx < size; MepRx++){
 4826              		.loc 1 545 0
 4827 00be 0023     		movs	r3, #0
 4828 00c0 BB73     		strb	r3, [r7, #14]
 4829 00c2 09E0     		b	.L157
 4830              	.L158:
 546:PumpCom.c     ****         MepsanResponse[MepRx] = MEPSAN_ReadRxData();   
 4831              		.loc 1 546 0 discriminator 3
 4832 00c4 BC7B     		ldrb	r4, [r7, #14]	@ zero_extendqisi2
 4833 00c6 FFF7FEFF 		bl	MEPSAN_ReadRxData
 4834 00ca 0346     		mov	r3, r0
 4835 00cc 1A46     		mov	r2, r3
 4836 00ce 104B     		ldr	r3, .L161+16
 4837 00d0 1A55     		strb	r2, [r3, r4]
 545:PumpCom.c     ****     for(uint8 MepRx = 0; MepRx < size; MepRx++){
 4838              		.loc 1 545 0 discriminator 3
 4839 00d2 BB7B     		ldrb	r3, [r7, #14]	@ zero_extendqisi2
 4840 00d4 0133     		adds	r3, r3, #1
 4841 00d6 BB73     		strb	r3, [r7, #14]
 4842              	.L157:
 545:PumpCom.c     ****     for(uint8 MepRx = 0; MepRx < size; MepRx++){
 4843              		.loc 1 545 0 is_stmt 0 discriminator 1
 4844 00d8 BA7B     		ldrb	r2, [r7, #14]	@ zero_extendqisi2
 4845 00da 7B7B     		ldrb	r3, [r7, #13]	@ zero_extendqisi2
 4846 00dc 9A42     		cmp	r2, r3
 4847 00de F1D3     		bcc	.L158
 4848              	.LBE33:
 547:PumpCom.c     ****     }
 548:PumpCom.c     ****     MEPSAN_ClearRxBuffer();
 4849              		.loc 1 548 0 is_stmt 1
ARM GAS  C:\Users\Diego\AppData\Local\Temp\ccj1d66j.s 			page 97


 4850 00e0 FFF7FEFF 		bl	MEPSAN_ClearRxBuffer
 549:PumpCom.c     ****     CyDelay(100); 
 4851              		.loc 1 549 0
 4852 00e4 6420     		movs	r0, #100
 4853 00e6 FFF7FEFF 		bl	CyDelay
 550:PumpCom.c     ****     
 551:PumpCom.c     ****     if(size>=1){
 4854              		.loc 1 551 0
 4855 00ea 7B7B     		ldrb	r3, [r7, #13]	@ zero_extendqisi2
 4856 00ec 002B     		cmp	r3, #0
 4857 00ee 02D0     		beq	.L159
 552:PumpCom.c     ****         return  MepsanResponse[1];
 4858              		.loc 1 552 0
 4859 00f0 074B     		ldr	r3, .L161+16
 4860 00f2 5B78     		ldrb	r3, [r3, #1]	@ zero_extendqisi2
 4861 00f4 00E0     		b	.L160
 4862              	.L159:
 553:PumpCom.c     ****     }
 554:PumpCom.c     ****     else{
 555:PumpCom.c     ****        return 0;
 4863              		.loc 1 555 0
 4864 00f6 0023     		movs	r3, #0
 4865              	.L160:
 556:PumpCom.c     ****     }    
 557:PumpCom.c     **** }
 4866              		.loc 1 557 0
 4867 00f8 1846     		mov	r0, r3
 4868 00fa 1437     		adds	r7, r7, #20
 4869              		.cfi_def_cfa_offset 12
 4870 00fc BD46     		mov	sp, r7
 4871              		.cfi_def_cfa_register 13
 4872              		@ sp needed
 4873 00fe 90BD     		pop	{r4, r7, pc}
 4874              	.L162:
 4875              		.align	2
 4876              	.L161:
 4877 0100 00000000 		.word	MepsanSendTo
 4878 0104 00000000 		.word	CRC
 4879 0108 00000000 		.word	crc_hi
 4880 010c 00000000 		.word	crc_lo
 4881 0110 00000000 		.word	MepsanResponse
 4882              		.cfi_endproc
 4883              	.LFE69:
 4884              		.size	PriceUpdate, .-PriceUpdate
 4885              		.section	.text.TotalRequest,"ax",%progbits
 4886              		.align	2
 4887              		.global	TotalRequest
 4888              		.thumb
 4889              		.thumb_func
 4890              		.type	TotalRequest, %function
 4891              	TotalRequest:
 4892              	.LFB70:
 558:PumpCom.c     **** 
 559:PumpCom.c     **** /*******************************************************************************
 560:PumpCom.c     **** * Function Name: TotalRequest
 561:PumpCom.c     **** ********************************************************************************
 562:PumpCom.c     **** *
ARM GAS  C:\Users\Diego\AppData\Local\Temp\ccj1d66j.s 			page 98


 563:PumpCom.c     **** *
 564:PumpCom.c     **** *******************************************************************************/
 565:PumpCom.c     **** 
 566:PumpCom.c     **** void TotalRequest(uint8 address, uint8 type, uint8 nozzle)
 567:PumpCom.c     **** { 
 4893              		.loc 1 567 0
 4894              		.cfi_startproc
 4895              		@ args = 0, pretend = 0, frame = 16
 4896              		@ frame_needed = 1, uses_anonymous_args = 0
 4897 0000 90B5     		push	{r4, r7, lr}
 4898              		.cfi_def_cfa_offset 12
 4899              		.cfi_offset 4, -12
 4900              		.cfi_offset 7, -8
 4901              		.cfi_offset 14, -4
 4902 0002 85B0     		sub	sp, sp, #20
 4903              		.cfi_def_cfa_offset 32
 4904 0004 00AF     		add	r7, sp, #0
 4905              		.cfi_def_cfa_register 7
 4906 0006 0346     		mov	r3, r0
 4907 0008 FB71     		strb	r3, [r7, #7]
 4908 000a 0B46     		mov	r3, r1
 4909 000c BB71     		strb	r3, [r7, #6]
 4910 000e 1346     		mov	r3, r2
 4911 0010 7B71     		strb	r3, [r7, #5]
 568:PumpCom.c     ****     uint8 size;
 569:PumpCom.c     ****     uint8 request;
 570:PumpCom.c     ****     request = ((type<<4)&0xF0)|(nozzle);
 4912              		.loc 1 570 0
 4913 0012 BB79     		ldrb	r3, [r7, #6]	@ zero_extendqisi2
 4914 0014 1B01     		lsls	r3, r3, #4
 4915 0016 5AB2     		sxtb	r2, r3
 4916 0018 97F90530 		ldrsb	r3, [r7, #5]
 4917 001c 1343     		orrs	r3, r3, r2
 4918 001e 5BB2     		sxtb	r3, r3
 4919 0020 7B73     		strb	r3, [r7, #13]
 571:PumpCom.c     ****     EnablePin_Write (1u);
 4920              		.loc 1 571 0
 4921 0022 0120     		movs	r0, #1
 4922 0024 FFF7FEFF 		bl	EnablePin_Write
 572:PumpCom.c     ****     MepsanSendTo[0] = (0x50|address);
 4923              		.loc 1 572 0
 4924 0028 FB79     		ldrb	r3, [r7, #7]
 4925 002a 43F05003 		orr	r3, r3, #80
 4926 002e DAB2     		uxtb	r2, r3
 4927 0030 314B     		ldr	r3, .L168
 4928 0032 1A70     		strb	r2, [r3]
 573:PumpCom.c     ****     MepsanSendTo[1] = (0x30);
 4929              		.loc 1 573 0
 4930 0034 304B     		ldr	r3, .L168
 4931 0036 3022     		movs	r2, #48
 4932 0038 5A70     		strb	r2, [r3, #1]
 574:PumpCom.c     ****     MepsanSendTo[2] = (0x65);
 4933              		.loc 1 574 0
 4934 003a 2F4B     		ldr	r3, .L168
 4935 003c 6522     		movs	r2, #101
 4936 003e 9A70     		strb	r2, [r3, #2]
 575:PumpCom.c     ****     MepsanSendTo[3] = (0x01); //Data bytes in transaction
ARM GAS  C:\Users\Diego\AppData\Local\Temp\ccj1d66j.s 			page 99


 4937              		.loc 1 575 0
 4938 0040 2D4B     		ldr	r3, .L168
 4939 0042 0122     		movs	r2, #1
 4940 0044 DA70     		strb	r2, [r3, #3]
 576:PumpCom.c     ****     MepsanSendTo[4] = (request);
 4941              		.loc 1 576 0
 4942 0046 2C4A     		ldr	r2, .L168
 4943 0048 7B7B     		ldrb	r3, [r7, #13]
 4944 004a 1371     		strb	r3, [r2, #4]
 577:PumpCom.c     ****     CRC    = gen_crc16(MepsanSendTo,5);
 4945              		.loc 1 577 0
 4946 004c 0521     		movs	r1, #5
 4947 004e 2A48     		ldr	r0, .L168
 4948 0050 FFF7FEFF 		bl	gen_crc16
 4949 0054 0346     		mov	r3, r0
 4950 0056 1A46     		mov	r2, r3
 4951 0058 284B     		ldr	r3, .L168+4
 4952 005a 1A80     		strh	r2, [r3]	@ movhi
 578:PumpCom.c     ****     crc_hi = (CRC & 0xFF00) >> 8;
 4953              		.loc 1 578 0
 4954 005c 274B     		ldr	r3, .L168+4
 4955 005e 1B88     		ldrh	r3, [r3]
 4956 0060 1B0A     		lsrs	r3, r3, #8
 4957 0062 9BB2     		uxth	r3, r3
 4958 0064 DAB2     		uxtb	r2, r3
 4959 0066 264B     		ldr	r3, .L168+8
 4960 0068 1A70     		strb	r2, [r3]
 579:PumpCom.c     ****     crc_lo = (CRC & 0x00FF) ;
 4961              		.loc 1 579 0
 4962 006a 244B     		ldr	r3, .L168+4
 4963 006c 1B88     		ldrh	r3, [r3]
 4964 006e DAB2     		uxtb	r2, r3
 4965 0070 244B     		ldr	r3, .L168+12
 4966 0072 1A70     		strb	r2, [r3]
 580:PumpCom.c     ****     MepsanSendTo[5] = crc_lo;
 4967              		.loc 1 580 0
 4968 0074 234B     		ldr	r3, .L168+12
 4969 0076 1A78     		ldrb	r2, [r3]	@ zero_extendqisi2
 4970 0078 1F4B     		ldr	r3, .L168
 4971 007a 5A71     		strb	r2, [r3, #5]
 581:PumpCom.c     ****     MepsanSendTo[6] = crc_hi;
 4972              		.loc 1 581 0
 4973 007c 204B     		ldr	r3, .L168+8
 4974 007e 1A78     		ldrb	r2, [r3]	@ zero_extendqisi2
 4975 0080 1D4B     		ldr	r3, .L168
 4976 0082 9A71     		strb	r2, [r3, #6]
 582:PumpCom.c     ****     MepsanSendTo[7] = 0x03;
 4977              		.loc 1 582 0
 4978 0084 1C4B     		ldr	r3, .L168
 4979 0086 0322     		movs	r2, #3
 4980 0088 DA71     		strb	r2, [r3, #7]
 583:PumpCom.c     ****     MepsanSendTo[8] = 0xFA; 
 4981              		.loc 1 583 0
 4982 008a 1B4B     		ldr	r3, .L168
 4983 008c FA22     		movs	r2, #250
 4984 008e 1A72     		strb	r2, [r3, #8]
 4985              	.LBB34:
ARM GAS  C:\Users\Diego\AppData\Local\Temp\ccj1d66j.s 			page 100


 584:PumpCom.c     ****     for(uint8 x = 0; x <= 9; x++){    
 4986              		.loc 1 584 0
 4987 0090 0023     		movs	r3, #0
 4988 0092 FB73     		strb	r3, [r7, #15]
 4989 0094 08E0     		b	.L164
 4990              	.L165:
 585:PumpCom.c     ****         MEPSAN_PutChar(MepsanSendTo[x]);
 4991              		.loc 1 585 0 discriminator 3
 4992 0096 FB7B     		ldrb	r3, [r7, #15]	@ zero_extendqisi2
 4993 0098 174A     		ldr	r2, .L168
 4994 009a D35C     		ldrb	r3, [r2, r3]	@ zero_extendqisi2
 4995 009c 1846     		mov	r0, r3
 4996 009e FFF7FEFF 		bl	MEPSAN_PutChar
 584:PumpCom.c     ****     for(uint8 x = 0; x <= 9; x++){    
 4997              		.loc 1 584 0 discriminator 3
 4998 00a2 FB7B     		ldrb	r3, [r7, #15]	@ zero_extendqisi2
 4999 00a4 0133     		adds	r3, r3, #1
 5000 00a6 FB73     		strb	r3, [r7, #15]
 5001              	.L164:
 584:PumpCom.c     ****     for(uint8 x = 0; x <= 9; x++){    
 5002              		.loc 1 584 0 is_stmt 0 discriminator 1
 5003 00a8 FB7B     		ldrb	r3, [r7, #15]	@ zero_extendqisi2
 5004 00aa 092B     		cmp	r3, #9
 5005 00ac F3D9     		bls	.L165
 5006              	.LBE34:
 586:PumpCom.c     ****     }
 587:PumpCom.c     ****     CyDelay(4);
 5007              		.loc 1 587 0 is_stmt 1
 5008 00ae 0420     		movs	r0, #4
 5009 00b0 FFF7FEFF 		bl	CyDelay
 588:PumpCom.c     ****     EnablePin_Write (0u);  
 5010              		.loc 1 588 0
 5011 00b4 0020     		movs	r0, #0
 5012 00b6 FFF7FEFF 		bl	EnablePin_Write
 589:PumpCom.c     ****     size = MEPSAN_GetRxBufferSize();
 5013              		.loc 1 589 0
 5014 00ba FFF7FEFF 		bl	MEPSAN_GetRxBufferSize
 5015 00be 0346     		mov	r3, r0
 5016 00c0 3B73     		strb	r3, [r7, #12]
 5017              	.LBB35:
 590:PumpCom.c     ****     for(uint8 MepRx = 0; MepRx < size; MepRx++){
 5018              		.loc 1 590 0
 5019 00c2 0023     		movs	r3, #0
 5020 00c4 BB73     		strb	r3, [r7, #14]
 5021 00c6 09E0     		b	.L166
 5022              	.L167:
 591:PumpCom.c     ****         MepsanResponse[MepRx] = MEPSAN_ReadRxData();
 5023              		.loc 1 591 0 discriminator 3
 5024 00c8 BC7B     		ldrb	r4, [r7, #14]	@ zero_extendqisi2
 5025 00ca FFF7FEFF 		bl	MEPSAN_ReadRxData
 5026 00ce 0346     		mov	r3, r0
 5027 00d0 1A46     		mov	r2, r3
 5028 00d2 0D4B     		ldr	r3, .L168+16
 5029 00d4 1A55     		strb	r2, [r3, r4]
 590:PumpCom.c     ****     for(uint8 MepRx = 0; MepRx < size; MepRx++){
 5030              		.loc 1 590 0 discriminator 3
 5031 00d6 BB7B     		ldrb	r3, [r7, #14]	@ zero_extendqisi2
ARM GAS  C:\Users\Diego\AppData\Local\Temp\ccj1d66j.s 			page 101


 5032 00d8 0133     		adds	r3, r3, #1
 5033 00da BB73     		strb	r3, [r7, #14]
 5034              	.L166:
 590:PumpCom.c     ****     for(uint8 MepRx = 0; MepRx < size; MepRx++){
 5035              		.loc 1 590 0 is_stmt 0 discriminator 1
 5036 00dc BA7B     		ldrb	r2, [r7, #14]	@ zero_extendqisi2
 5037 00de 3B7B     		ldrb	r3, [r7, #12]	@ zero_extendqisi2
 5038 00e0 9A42     		cmp	r2, r3
 5039 00e2 F1D3     		bcc	.L167
 5040              	.LBE35:
 592:PumpCom.c     ****     }       
 593:PumpCom.c     ****     MEPSAN_ClearRxBuffer();
 5041              		.loc 1 593 0 is_stmt 1
 5042 00e4 FFF7FEFF 		bl	MEPSAN_ClearRxBuffer
 594:PumpCom.c     ****     CyDelay(100); 
 5043              		.loc 1 594 0
 5044 00e8 6420     		movs	r0, #100
 5045 00ea FFF7FEFF 		bl	CyDelay
 595:PumpCom.c     **** }
 5046              		.loc 1 595 0
 5047 00ee 00BF     		nop
 5048 00f0 1437     		adds	r7, r7, #20
 5049              		.cfi_def_cfa_offset 12
 5050 00f2 BD46     		mov	sp, r7
 5051              		.cfi_def_cfa_register 13
 5052              		@ sp needed
 5053 00f4 90BD     		pop	{r4, r7, pc}
 5054              	.L169:
 5055 00f6 00BF     		.align	2
 5056              	.L168:
 5057 00f8 00000000 		.word	MepsanSendTo
 5058 00fc 00000000 		.word	CRC
 5059 0100 00000000 		.word	crc_hi
 5060 0104 00000000 		.word	crc_lo
 5061 0108 00000000 		.word	MepsanResponse
 5062              		.cfi_endproc
 5063              	.LFE70:
 5064              		.size	TotalRequest, .-TotalRequest
 5065              		.section	.text.GetTotal,"ax",%progbits
 5066              		.align	2
 5067              		.global	GetTotal
 5068              		.thumb
 5069              		.thumb_func
 5070              		.type	GetTotal, %function
 5071              	GetTotal:
 5072              	.LFB71:
 596:PumpCom.c     **** 
 597:PumpCom.c     **** /*******************************************************************************
 598:PumpCom.c     **** * Function Name: GetTotal
 599:PumpCom.c     **** ********************************************************************************
 600:PumpCom.c     **** *
 601:PumpCom.c     **** *
 602:PumpCom.c     **** *******************************************************************************/
 603:PumpCom.c     **** 
 604:PumpCom.c     **** void GetTotal(void){
 5073              		.loc 1 604 0
 5074              		.cfi_startproc
ARM GAS  C:\Users\Diego\AppData\Local\Temp\ccj1d66j.s 			page 102


 5075              		@ args = 0, pretend = 0, frame = 0
 5076              		@ frame_needed = 1, uses_anonymous_args = 0
 5077              		@ link register save eliminated.
 5078 0000 80B4     		push	{r7}
 5079              		.cfi_def_cfa_offset 4
 5080              		.cfi_offset 7, -4
 5081 0002 00AF     		add	r7, sp, #0
 5082              		.cfi_def_cfa_register 7
 605:PumpCom.c     **** //    for(uint8 x = 4; x < MepsanResponse[3] + 4; x++ ){
 606:PumpCom.c     **** //    }
 607:PumpCom.c     **** }
 5083              		.loc 1 607 0
 5084 0004 00BF     		nop
 5085 0006 BD46     		mov	sp, r7
 5086              		.cfi_def_cfa_register 13
 5087              		@ sp needed
 5088 0008 80BC     		pop	{r7}
 5089              		.cfi_restore 7
 5090              		.cfi_def_cfa_offset 0
 5091 000a 7047     		bx	lr
 5092              		.cfi_endproc
 5093              	.LFE71:
 5094              		.size	GetTotal, .-GetTotal
 5095              		.section	.text.GetACK,"ax",%progbits
 5096              		.align	2
 5097              		.global	GetACK
 5098              		.thumb
 5099              		.thumb_func
 5100              		.type	GetACK, %function
 5101              	GetACK:
 5102              	.LFB72:
 608:PumpCom.c     **** /*******************************************************************************
 609:PumpCom.c     **** * Function Name: GetTotal
 610:PumpCom.c     **** ********************************************************************************
 611:PumpCom.c     **** *
 612:PumpCom.c     **** *
 613:PumpCom.c     **** *******************************************************************************/
 614:PumpCom.c     **** 
 615:PumpCom.c     **** void GetACK(){
 5103              		.loc 1 615 0
 5104              		.cfi_startproc
 5105              		@ args = 0, pretend = 0, frame = 8
 5106              		@ frame_needed = 1, uses_anonymous_args = 0
 5107 0000 90B5     		push	{r4, r7, lr}
 5108              		.cfi_def_cfa_offset 12
 5109              		.cfi_offset 4, -12
 5110              		.cfi_offset 7, -8
 5111              		.cfi_offset 14, -4
 5112 0002 83B0     		sub	sp, sp, #12
 5113              		.cfi_def_cfa_offset 24
 5114 0004 00AF     		add	r7, sp, #0
 5115              		.cfi_def_cfa_register 7
 616:PumpCom.c     ****     uint8 size;
 617:PumpCom.c     ****     size = MEPSAN_GetRxBufferSize();        
 5116              		.loc 1 617 0
 5117 0006 FFF7FEFF 		bl	MEPSAN_GetRxBufferSize
 5118 000a 0346     		mov	r3, r0
ARM GAS  C:\Users\Diego\AppData\Local\Temp\ccj1d66j.s 			page 103


 5119 000c BB71     		strb	r3, [r7, #6]
 5120              	.LBB36:
 618:PumpCom.c     ****     for(uint8 MepRx = 0; MepRx < size; MepRx++){
 5121              		.loc 1 618 0
 5122 000e 0023     		movs	r3, #0
 5123 0010 FB71     		strb	r3, [r7, #7]
 5124 0012 09E0     		b	.L172
 5125              	.L173:
 619:PumpCom.c     ****         MepsanResponse[MepRx] = MEPSAN_ReadRxData();        
 5126              		.loc 1 619 0 discriminator 3
 5127 0014 FC79     		ldrb	r4, [r7, #7]	@ zero_extendqisi2
 5128 0016 FFF7FEFF 		bl	MEPSAN_ReadRxData
 5129 001a 0346     		mov	r3, r0
 5130 001c 1A46     		mov	r2, r3
 5131 001e 074B     		ldr	r3, .L174
 5132 0020 1A55     		strb	r2, [r3, r4]
 618:PumpCom.c     ****     for(uint8 MepRx = 0; MepRx < size; MepRx++){
 5133              		.loc 1 618 0 discriminator 3
 5134 0022 FB79     		ldrb	r3, [r7, #7]	@ zero_extendqisi2
 5135 0024 0133     		adds	r3, r3, #1
 5136 0026 FB71     		strb	r3, [r7, #7]
 5137              	.L172:
 618:PumpCom.c     ****     for(uint8 MepRx = 0; MepRx < size; MepRx++){
 5138              		.loc 1 618 0 is_stmt 0 discriminator 1
 5139 0028 FA79     		ldrb	r2, [r7, #7]	@ zero_extendqisi2
 5140 002a BB79     		ldrb	r3, [r7, #6]	@ zero_extendqisi2
 5141 002c 9A42     		cmp	r2, r3
 5142 002e F1D3     		bcc	.L173
 5143              	.LBE36:
 620:PumpCom.c     ****     }    
 621:PumpCom.c     ****     MEPSAN_ClearRxBuffer();
 5144              		.loc 1 621 0 is_stmt 1
 5145 0030 FFF7FEFF 		bl	MEPSAN_ClearRxBuffer
 622:PumpCom.c     **** }
 5146              		.loc 1 622 0
 5147 0034 00BF     		nop
 5148 0036 0C37     		adds	r7, r7, #12
 5149              		.cfi_def_cfa_offset 12
 5150 0038 BD46     		mov	sp, r7
 5151              		.cfi_def_cfa_register 13
 5152              		@ sp needed
 5153 003a 90BD     		pop	{r4, r7, pc}
 5154              	.L175:
 5155              		.align	2
 5156              	.L174:
 5157 003c 00000000 		.word	MepsanResponse
 5158              		.cfi_endproc
 5159              	.LFE72:
 5160              		.size	GetACK, .-GetACK
 5161              		.text
 5162              	.Letext0:
 5163              		.file 2 "c:\\program files (x86)\\cypress\\psoc creator\\4.2\\psoc creator\\import\\gnu\\arm\\5.4.
 5164              		.file 3 "c:\\program files (x86)\\cypress\\psoc creator\\4.2\\psoc creator\\import\\gnu\\arm\\5.4.
 5165              		.file 4 "Generated_Source\\PSoC5/cytypes.h"
 5166              		.file 5 "./GVar.h"
 5167              		.file 6 "Generated_Source\\PSoC5/core_cm3.h"
 5168              		.section	.debug_info,"",%progbits
ARM GAS  C:\Users\Diego\AppData\Local\Temp\ccj1d66j.s 			page 104


 5169              	.Ldebug_info0:
 5170 0000 090B0000 		.4byte	0xb09
 5171 0004 0400     		.2byte	0x4
 5172 0006 00000000 		.4byte	.Ldebug_abbrev0
 5173 000a 04       		.byte	0x4
 5174 000b 01       		.uleb128 0x1
 5175 000c 93000000 		.4byte	.LASF86
 5176 0010 0C       		.byte	0xc
 5177 0011 22040000 		.4byte	.LASF87
 5178 0015 95020000 		.4byte	.LASF88
 5179 0019 00000000 		.4byte	.Ldebug_ranges0+0
 5180 001d 00000000 		.4byte	0
 5181 0021 00000000 		.4byte	.Ldebug_line0
 5182 0025 02       		.uleb128 0x2
 5183 0026 01       		.byte	0x1
 5184 0027 06       		.byte	0x6
 5185 0028 82010000 		.4byte	.LASF0
 5186 002c 03       		.uleb128 0x3
 5187 002d F9010000 		.4byte	.LASF3
 5188 0031 02       		.byte	0x2
 5189 0032 1D       		.byte	0x1d
 5190 0033 37000000 		.4byte	0x37
 5191 0037 02       		.uleb128 0x2
 5192 0038 01       		.byte	0x1
 5193 0039 08       		.byte	0x8
 5194 003a 49020000 		.4byte	.LASF1
 5195 003e 02       		.uleb128 0x2
 5196 003f 02       		.byte	0x2
 5197 0040 05       		.byte	0x5
 5198 0041 59000000 		.4byte	.LASF2
 5199 0045 03       		.uleb128 0x3
 5200 0046 3C010000 		.4byte	.LASF4
 5201 004a 02       		.byte	0x2
 5202 004b 2B       		.byte	0x2b
 5203 004c 50000000 		.4byte	0x50
 5204 0050 02       		.uleb128 0x2
 5205 0051 02       		.byte	0x2
 5206 0052 07       		.byte	0x7
 5207 0053 13030000 		.4byte	.LASF5
 5208 0057 03       		.uleb128 0x3
 5209 0058 DE030000 		.4byte	.LASF6
 5210 005c 02       		.byte	0x2
 5211 005d 3F       		.byte	0x3f
 5212 005e 62000000 		.4byte	0x62
 5213 0062 02       		.uleb128 0x2
 5214 0063 04       		.byte	0x4
 5215 0064 05       		.byte	0x5
 5216 0065 C2010000 		.4byte	.LASF7
 5217 0069 02       		.uleb128 0x2
 5218 006a 04       		.byte	0x4
 5219 006b 07       		.byte	0x7
 5220 006c A4030000 		.4byte	.LASF8
 5221 0070 02       		.uleb128 0x2
 5222 0071 08       		.byte	0x8
 5223 0072 05       		.byte	0x5
 5224 0073 A0010000 		.4byte	.LASF9
 5225 0077 02       		.uleb128 0x2
ARM GAS  C:\Users\Diego\AppData\Local\Temp\ccj1d66j.s 			page 105


 5226 0078 08       		.byte	0x8
 5227 0079 07       		.byte	0x7
 5228 007a 79020000 		.4byte	.LASF10
 5229 007e 04       		.uleb128 0x4
 5230 007f 04       		.byte	0x4
 5231 0080 05       		.byte	0x5
 5232 0081 696E7400 		.ascii	"int\000"
 5233 0085 02       		.uleb128 0x2
 5234 0086 04       		.byte	0x4
 5235 0087 07       		.byte	0x7
 5236 0088 C9020000 		.4byte	.LASF11
 5237 008c 03       		.uleb128 0x3
 5238 008d 5F010000 		.4byte	.LASF12
 5239 0091 03       		.byte	0x3
 5240 0092 18       		.byte	0x18
 5241 0093 2C000000 		.4byte	0x2c
 5242 0097 03       		.uleb128 0x3
 5243 0098 38030000 		.4byte	.LASF13
 5244 009c 03       		.byte	0x3
 5245 009d 24       		.byte	0x24
 5246 009e 45000000 		.4byte	0x45
 5247 00a2 03       		.uleb128 0x3
 5248 00a3 4B030000 		.4byte	.LASF14
 5249 00a7 03       		.byte	0x3
 5250 00a8 2C       		.byte	0x2c
 5251 00a9 57000000 		.4byte	0x57
 5252 00ad 05       		.uleb128 0x5
 5253 00ae 67010000 		.4byte	.LASF15
 5254 00b2 04       		.byte	0x4
 5255 00b3 E401     		.2byte	0x1e4
 5256 00b5 37000000 		.4byte	0x37
 5257 00b9 05       		.uleb128 0x5
 5258 00ba 51010000 		.4byte	.LASF16
 5259 00be 04       		.byte	0x4
 5260 00bf E501     		.2byte	0x1e5
 5261 00c1 50000000 		.4byte	0x50
 5262 00c5 05       		.uleb128 0x5
 5263 00c6 AE010000 		.4byte	.LASF17
 5264 00ca 04       		.byte	0x4
 5265 00cb E701     		.2byte	0x1e7
 5266 00cd 25000000 		.4byte	0x25
 5267 00d1 02       		.uleb128 0x2
 5268 00d2 04       		.byte	0x4
 5269 00d3 04       		.byte	0x4
 5270 00d4 9A010000 		.4byte	.LASF18
 5271 00d8 02       		.uleb128 0x2
 5272 00d9 08       		.byte	0x8
 5273 00da 04       		.byte	0x4
 5274 00db 2C040000 		.4byte	.LASF19
 5275 00df 05       		.uleb128 0x5
 5276 00e0 8D000000 		.4byte	.LASF20
 5277 00e4 04       		.byte	0x4
 5278 00e5 F501     		.2byte	0x1f5
 5279 00e7 EB000000 		.4byte	0xeb
 5280 00eb 02       		.uleb128 0x2
 5281 00ec 01       		.byte	0x1
 5282 00ed 08       		.byte	0x8
ARM GAS  C:\Users\Diego\AppData\Local\Temp\ccj1d66j.s 			page 106


 5283 00ee 33030000 		.4byte	.LASF21
 5284 00f2 02       		.uleb128 0x2
 5285 00f3 08       		.byte	0x8
 5286 00f4 04       		.byte	0x4
 5287 00f5 31020000 		.4byte	.LASF22
 5288 00f9 02       		.uleb128 0x2
 5289 00fa 04       		.byte	0x4
 5290 00fb 07       		.byte	0x7
 5291 00fc 63000000 		.4byte	.LASF23
 5292 0100 06       		.uleb128 0x6
 5293 0101 0D000000 		.4byte	.LASF40
 5294 0105 3501     		.2byte	0x135
 5295 0107 05       		.byte	0x5
 5296 0108 23       		.byte	0x23
 5297 0109 EC010000 		.4byte	0x1ec
 5298 010d 07       		.uleb128 0x7
 5299 010e 64697200 		.ascii	"dir\000"
 5300 0112 05       		.byte	0x5
 5301 0113 24       		.byte	0x24
 5302 0114 AD000000 		.4byte	0xad
 5303 0118 00       		.byte	0
 5304 0119 08       		.uleb128 0x8
 5305 011a 8A030000 		.4byte	.LASF24
 5306 011e 05       		.byte	0x5
 5307 011f 25       		.byte	0x25
 5308 0120 EC010000 		.4byte	0x1ec
 5309 0124 01       		.byte	0x1
 5310 0125 08       		.uleb128 0x8
 5311 0126 6F020000 		.4byte	.LASF25
 5312 012a 05       		.byte	0x5
 5313 012b 26       		.byte	0x26
 5314 012c 08020000 		.4byte	0x208
 5315 0130 29       		.byte	0x29
 5316 0131 08       		.uleb128 0x8
 5317 0132 DE020000 		.4byte	.LASF26
 5318 0136 05       		.byte	0x5
 5319 0137 27       		.byte	0x27
 5320 0138 1E020000 		.4byte	0x21e
 5321 013c 35       		.byte	0x35
 5322 013d 08       		.uleb128 0x8
 5323 013e EE010000 		.4byte	.LASF27
 5324 0142 05       		.byte	0x5
 5325 0143 28       		.byte	0x28
 5326 0144 1E020000 		.4byte	0x21e
 5327 0148 39       		.byte	0x39
 5328 0149 08       		.uleb128 0x8
 5329 014a D6020000 		.4byte	.LASF28
 5330 014e 05       		.byte	0x5
 5331 014f 29       		.byte	0x29
 5332 0150 2E020000 		.4byte	0x22e
 5333 0154 3D       		.byte	0x3d
 5334 0155 08       		.uleb128 0x8
 5335 0156 07030000 		.4byte	.LASF29
 5336 015a 05       		.byte	0x5
 5337 015b 2A       		.byte	0x2a
 5338 015c AD000000 		.4byte	0xad
 5339 0160 4B       		.byte	0x4b
ARM GAS  C:\Users\Diego\AppData\Local\Temp\ccj1d66j.s 			page 107


 5340 0161 08       		.uleb128 0x8
 5341 0162 B3010000 		.4byte	.LASF30
 5342 0166 05       		.byte	0x5
 5343 0167 2B       		.byte	0x2b
 5344 0168 3E020000 		.4byte	0x23e
 5345 016c 4C       		.byte	0x4c
 5346 016d 08       		.uleb128 0x8
 5347 016e F9030000 		.4byte	.LASF31
 5348 0172 05       		.byte	0x5
 5349 0173 2C       		.byte	0x2c
 5350 0174 4E020000 		.4byte	0x24e
 5351 0178 51       		.byte	0x51
 5352 0179 08       		.uleb128 0x8
 5353 017a 14020000 		.4byte	.LASF32
 5354 017e 05       		.byte	0x5
 5355 017f 2D       		.byte	0x2d
 5356 0180 5E020000 		.4byte	0x25e
 5357 0184 83       		.byte	0x83
 5358 0185 08       		.uleb128 0x8
 5359 0186 05040000 		.4byte	.LASF33
 5360 018a 05       		.byte	0x5
 5361 018b 2E       		.byte	0x2e
 5362 018c 7A020000 		.4byte	0x27a
 5363 0190 FB       		.byte	0xfb
 5364 0191 09       		.uleb128 0x9
 5365 0192 CB010000 		.4byte	.LASF34
 5366 0196 05       		.byte	0x5
 5367 0197 2F       		.byte	0x2f
 5368 0198 7A020000 		.4byte	0x27a
 5369 019c 0301     		.2byte	0x103
 5370 019e 09       		.uleb128 0x9
 5371 019f 97030000 		.4byte	.LASF35
 5372 01a3 05       		.byte	0x5
 5373 01a4 30       		.byte	0x30
 5374 01a5 8A020000 		.4byte	0x28a
 5375 01a9 0B01     		.2byte	0x10b
 5376 01ab 09       		.uleb128 0x9
 5377 01ac 6D040000 		.4byte	.LASF36
 5378 01b0 05       		.byte	0x5
 5379 01b1 31       		.byte	0x31
 5380 01b2 7A020000 		.4byte	0x27a
 5381 01b6 2301     		.2byte	0x123
 5382 01b8 09       		.uleb128 0x9
 5383 01b9 57020000 		.4byte	.LASF37
 5384 01bd 05       		.byte	0x5
 5385 01be 32       		.byte	0x32
 5386 01bf AD000000 		.4byte	0xad
 5387 01c3 2B01     		.2byte	0x12b
 5388 01c5 09       		.uleb128 0x9
 5389 01c6 58040000 		.4byte	.LASF38
 5390 01ca 05       		.byte	0x5
 5391 01cb 33       		.byte	0x33
 5392 01cc AD000000 		.4byte	0xad
 5393 01d0 2C01     		.2byte	0x12c
 5394 01d2 0A       		.uleb128 0xa
 5395 01d3 6B6D00   		.ascii	"km\000"
 5396 01d6 05       		.byte	0x5
ARM GAS  C:\Users\Diego\AppData\Local\Temp\ccj1d66j.s 			page 108


 5397 01d7 34       		.byte	0x34
 5398 01d8 A0020000 		.4byte	0x2a0
 5399 01dc 2D01     		.2byte	0x12d
 5400 01de 09       		.uleb128 0x9
 5401 01df 7D010000 		.4byte	.LASF39
 5402 01e3 05       		.byte	0x5
 5403 01e4 35       		.byte	0x35
 5404 01e5 AD000000 		.4byte	0xad
 5405 01e9 3401     		.2byte	0x134
 5406 01eb 00       		.byte	0
 5407 01ec 0B       		.uleb128 0xb
 5408 01ed AD000000 		.4byte	0xad
 5409 01f1 08020000 		.4byte	0x208
 5410 01f5 0C       		.uleb128 0xc
 5411 01f6 F9000000 		.4byte	0xf9
 5412 01fa 03       		.byte	0x3
 5413 01fb 0C       		.uleb128 0xc
 5414 01fc F9000000 		.4byte	0xf9
 5415 0200 01       		.byte	0x1
 5416 0201 0C       		.uleb128 0xc
 5417 0202 F9000000 		.4byte	0xf9
 5418 0206 04       		.byte	0x4
 5419 0207 00       		.byte	0
 5420 0208 0B       		.uleb128 0xb
 5421 0209 AD000000 		.4byte	0xad
 5422 020d 1E020000 		.4byte	0x21e
 5423 0211 0C       		.uleb128 0xc
 5424 0212 F9000000 		.4byte	0xf9
 5425 0216 03       		.byte	0x3
 5426 0217 0C       		.uleb128 0xc
 5427 0218 F9000000 		.4byte	0xf9
 5428 021c 02       		.byte	0x2
 5429 021d 00       		.byte	0
 5430 021e 0B       		.uleb128 0xb
 5431 021f AD000000 		.4byte	0xad
 5432 0223 2E020000 		.4byte	0x22e
 5433 0227 0C       		.uleb128 0xc
 5434 0228 F9000000 		.4byte	0xf9
 5435 022c 03       		.byte	0x3
 5436 022d 00       		.byte	0
 5437 022e 0B       		.uleb128 0xb
 5438 022f AD000000 		.4byte	0xad
 5439 0233 3E020000 		.4byte	0x23e
 5440 0237 0C       		.uleb128 0xc
 5441 0238 F9000000 		.4byte	0xf9
 5442 023c 0D       		.byte	0xd
 5443 023d 00       		.byte	0
 5444 023e 0B       		.uleb128 0xb
 5445 023f AD000000 		.4byte	0xad
 5446 0243 4E020000 		.4byte	0x24e
 5447 0247 0C       		.uleb128 0xc
 5448 0248 F9000000 		.4byte	0xf9
 5449 024c 04       		.byte	0x4
 5450 024d 00       		.byte	0
 5451 024e 0B       		.uleb128 0xb
 5452 024f AD000000 		.4byte	0xad
 5453 0253 5E020000 		.4byte	0x25e
ARM GAS  C:\Users\Diego\AppData\Local\Temp\ccj1d66j.s 			page 109


 5454 0257 0C       		.uleb128 0xc
 5455 0258 F9000000 		.4byte	0xf9
 5456 025c 31       		.byte	0x31
 5457 025d 00       		.byte	0
 5458 025e 0B       		.uleb128 0xb
 5459 025f DF000000 		.4byte	0xdf
 5460 0263 7A020000 		.4byte	0x27a
 5461 0267 0C       		.uleb128 0xc
 5462 0268 F9000000 		.4byte	0xf9
 5463 026c 03       		.byte	0x3
 5464 026d 0C       		.uleb128 0xc
 5465 026e F9000000 		.4byte	0xf9
 5466 0272 02       		.byte	0x2
 5467 0273 0C       		.uleb128 0xc
 5468 0274 F9000000 		.4byte	0xf9
 5469 0278 09       		.byte	0x9
 5470 0279 00       		.byte	0
 5471 027a 0B       		.uleb128 0xb
 5472 027b AD000000 		.4byte	0xad
 5473 027f 8A020000 		.4byte	0x28a
 5474 0283 0C       		.uleb128 0xc
 5475 0284 F9000000 		.4byte	0xf9
 5476 0288 07       		.byte	0x7
 5477 0289 00       		.byte	0
 5478 028a 0B       		.uleb128 0xb
 5479 028b AD000000 		.4byte	0xad
 5480 028f A0020000 		.4byte	0x2a0
 5481 0293 0C       		.uleb128 0xc
 5482 0294 F9000000 		.4byte	0xf9
 5483 0298 03       		.byte	0x3
 5484 0299 0C       		.uleb128 0xc
 5485 029a F9000000 		.4byte	0xf9
 5486 029e 05       		.byte	0x5
 5487 029f 00       		.byte	0
 5488 02a0 0B       		.uleb128 0xb
 5489 02a1 AD000000 		.4byte	0xad
 5490 02a5 B0020000 		.4byte	0x2b0
 5491 02a9 0C       		.uleb128 0xc
 5492 02aa F9000000 		.4byte	0xf9
 5493 02ae 06       		.byte	0x6
 5494 02af 00       		.byte	0
 5495 02b0 06       		.uleb128 0x6
 5496 02b1 53030000 		.4byte	.LASF41
 5497 02b5 D404     		.2byte	0x4d4
 5498 02b7 05       		.byte	0x5
 5499 02b8 38       		.byte	0x38
 5500 02b9 E9020000 		.4byte	0x2e9
 5501 02bd 07       		.uleb128 0x7
 5502 02be 6100     		.ascii	"a\000"
 5503 02c0 05       		.byte	0x5
 5504 02c1 39       		.byte	0x39
 5505 02c2 00010000 		.4byte	0x100
 5506 02c6 00       		.byte	0
 5507 02c7 0A       		.uleb128 0xa
 5508 02c8 6200     		.ascii	"b\000"
 5509 02ca 05       		.byte	0x5
 5510 02cb 3A       		.byte	0x3a
ARM GAS  C:\Users\Diego\AppData\Local\Temp\ccj1d66j.s 			page 110


 5511 02cc 00010000 		.4byte	0x100
 5512 02d0 3501     		.2byte	0x135
 5513 02d2 0A       		.uleb128 0xa
 5514 02d3 6300     		.ascii	"c\000"
 5515 02d5 05       		.byte	0x5
 5516 02d6 3B       		.byte	0x3b
 5517 02d7 00010000 		.4byte	0x100
 5518 02db 6A02     		.2byte	0x26a
 5519 02dd 0A       		.uleb128 0xa
 5520 02de 6400     		.ascii	"d\000"
 5521 02e0 05       		.byte	0x5
 5522 02e1 3C       		.byte	0x3c
 5523 02e2 00010000 		.4byte	0x100
 5524 02e6 9F03     		.2byte	0x39f
 5525 02e8 00       		.byte	0
 5526 02e9 0D       		.uleb128 0xd
 5527 02ea 1D000000 		.4byte	.LASF89
 5528 02ee 01       		.byte	0x1
 5529 02ef 37000000 		.4byte	0x37
 5530 02f3 05       		.byte	0x5
 5531 02f4 41       		.byte	0x41
 5532 02f5 0C030000 		.4byte	0x30c
 5533 02f9 0E       		.uleb128 0xe
 5534 02fa 4B040000 		.4byte	.LASF42
 5535 02fe 00       		.byte	0
 5536 02ff 0E       		.uleb128 0xe
 5537 0300 03020000 		.4byte	.LASF43
 5538 0304 06       		.byte	0x6
 5539 0305 0E       		.uleb128 0xe
 5540 0306 3F000000 		.4byte	.LASF44
 5541 030a 04       		.byte	0x4
 5542 030b 00       		.byte	0
 5543 030c 0F       		.uleb128 0xf
 5544 030d 41030000 		.4byte	.LASF51
 5545 0311 01       		.byte	0x1
 5546 0312 1A       		.byte	0x1a
 5547 0313 97000000 		.4byte	0x97
 5548 0317 00000000 		.4byte	.LFB63
 5549 031b FA000000 		.4byte	.LFE63-.LFB63
 5550 031f 01       		.uleb128 0x1
 5551 0320 9C       		.byte	0x9c
 5552 0321 92030000 		.4byte	0x392
 5553 0325 10       		.uleb128 0x10
 5554 0326 61030000 		.4byte	.LASF45
 5555 032a 01       		.byte	0x1
 5556 032b 1A       		.byte	0x1a
 5557 032c 92030000 		.4byte	0x392
 5558 0330 02       		.uleb128 0x2
 5559 0331 91       		.byte	0x91
 5560 0332 5C       		.sleb128 -36
 5561 0333 10       		.uleb128 0x10
 5562 0334 D9030000 		.4byte	.LASF46
 5563 0338 01       		.byte	0x1
 5564 0339 1A       		.byte	0x1a
 5565 033a 97000000 		.4byte	0x97
 5566 033e 02       		.uleb128 0x2
 5567 033f 91       		.byte	0x91
ARM GAS  C:\Users\Diego\AppData\Local\Temp\ccj1d66j.s 			page 111


 5568 0340 5A       		.sleb128 -38
 5569 0341 11       		.uleb128 0x11
 5570 0342 6F757400 		.ascii	"out\000"
 5571 0346 01       		.byte	0x1
 5572 0347 1C       		.byte	0x1c
 5573 0348 97000000 		.4byte	0x97
 5574 034c 02       		.uleb128 0x2
 5575 034d 91       		.byte	0x91
 5576 034e 76       		.sleb128 -10
 5577 034f 12       		.uleb128 0x12
 5578 0350 FD020000 		.4byte	.LASF47
 5579 0354 01       		.byte	0x1
 5580 0355 1D       		.byte	0x1d
 5581 0356 7E000000 		.4byte	0x7e
 5582 035a 02       		.uleb128 0x2
 5583 035b 91       		.byte	0x91
 5584 035c 70       		.sleb128 -16
 5585 035d 12       		.uleb128 0x12
 5586 035e 50000000 		.4byte	.LASF48
 5587 0362 01       		.byte	0x1
 5588 0363 1D       		.byte	0x1d
 5589 0364 7E000000 		.4byte	0x7e
 5590 0368 02       		.uleb128 0x2
 5591 0369 91       		.byte	0x91
 5592 036a 60       		.sleb128 -32
 5593 036b 11       		.uleb128 0x11
 5594 036c 6900     		.ascii	"i\000"
 5595 036e 01       		.byte	0x1
 5596 036f 3B       		.byte	0x3b
 5597 0370 7E000000 		.4byte	0x7e
 5598 0374 02       		.uleb128 0x2
 5599 0375 91       		.byte	0x91
 5600 0376 6C       		.sleb128 -20
 5601 0377 11       		.uleb128 0x11
 5602 0378 63726300 		.ascii	"crc\000"
 5603 037c 01       		.byte	0x1
 5604 037d 44       		.byte	0x44
 5605 037e 97000000 		.4byte	0x97
 5606 0382 02       		.uleb128 0x2
 5607 0383 91       		.byte	0x91
 5608 0384 6A       		.sleb128 -22
 5609 0385 11       		.uleb128 0x11
 5610 0386 6A00     		.ascii	"j\000"
 5611 0388 01       		.byte	0x1
 5612 0389 46       		.byte	0x46
 5613 038a 7E000000 		.4byte	0x7e
 5614 038e 02       		.uleb128 0x2
 5615 038f 91       		.byte	0x91
 5616 0390 64       		.sleb128 -28
 5617 0391 00       		.byte	0
 5618 0392 13       		.uleb128 0x13
 5619 0393 04       		.byte	0x4
 5620 0394 98030000 		.4byte	0x398
 5621 0398 14       		.uleb128 0x14
 5622 0399 8C000000 		.4byte	0x8c
 5623 039d 15       		.uleb128 0x15
 5624 039e 81000000 		.4byte	.LASF59
ARM GAS  C:\Users\Diego\AppData\Local\Temp\ccj1d66j.s 			page 112


 5625 03a2 01       		.byte	0x1
 5626 03a3 54       		.byte	0x54
 5627 03a4 00000000 		.4byte	.LFB64
 5628 03a8 D01E0000 		.4byte	.LFE64-.LFB64
 5629 03ac 01       		.uleb128 0x1
 5630 03ad 9C       		.byte	0x9c
 5631 03ae AB050000 		.4byte	0x5ab
 5632 03b2 12       		.uleb128 0x12
 5633 03b3 D9030000 		.4byte	.LASF46
 5634 03b7 01       		.byte	0x1
 5635 03b8 55       		.byte	0x55
 5636 03b9 AD000000 		.4byte	0xad
 5637 03bd 02       		.uleb128 0x2
 5638 03be 91       		.byte	0x91
 5639 03bf 55       		.sleb128 -43
 5640 03c0 12       		.uleb128 0x12
 5641 03c1 DF010000 		.4byte	.LASF49
 5642 03c5 01       		.byte	0x1
 5643 03c6 55       		.byte	0x55
 5644 03c7 AD000000 		.4byte	0xad
 5645 03cb 02       		.uleb128 0x2
 5646 03cc 91       		.byte	0x91
 5647 03cd 54       		.sleb128 -44
 5648 03ce 16       		.uleb128 0x16
 5649 03cf 2A000000 		.4byte	.LBB2
 5650 03d3 2A000000 		.4byte	.LBE2-.LBB2
 5651 03d7 EA030000 		.4byte	0x3ea
 5652 03db 12       		.uleb128 0x12
 5653 03dc 2D030000 		.4byte	.LASF50
 5654 03e0 01       		.byte	0x1
 5655 03e1 5B       		.byte	0x5b
 5656 03e2 AD000000 		.4byte	0xad
 5657 03e6 02       		.uleb128 0x2
 5658 03e7 91       		.byte	0x91
 5659 03e8 67       		.sleb128 -25
 5660 03e9 00       		.byte	0
 5661 03ea 16       		.uleb128 0x16
 5662 03eb 60000000 		.4byte	.LBB3
 5663 03ef 60000000 		.4byte	.LBE3-.LBB3
 5664 03f3 04040000 		.4byte	0x404
 5665 03f7 11       		.uleb128 0x11
 5666 03f8 7800     		.ascii	"x\000"
 5667 03fa 01       		.byte	0x1
 5668 03fb 5F       		.byte	0x5f
 5669 03fc AD000000 		.4byte	0xad
 5670 0400 02       		.uleb128 0x2
 5671 0401 91       		.byte	0x91
 5672 0402 66       		.sleb128 -26
 5673 0403 00       		.byte	0
 5674 0404 16       		.uleb128 0x16
 5675 0405 94040000 		.4byte	.LBB4
 5676 0409 88000000 		.4byte	.LBE4-.LBB4
 5677 040d 1E040000 		.4byte	0x41e
 5678 0411 11       		.uleb128 0x11
 5679 0412 6900     		.ascii	"i\000"
 5680 0414 01       		.byte	0x1
 5681 0415 6C       		.byte	0x6c
ARM GAS  C:\Users\Diego\AppData\Local\Temp\ccj1d66j.s 			page 113


 5682 0416 C5000000 		.4byte	0xc5
 5683 041a 02       		.uleb128 0x2
 5684 041b 91       		.byte	0x91
 5685 041c 65       		.sleb128 -27
 5686 041d 00       		.byte	0
 5687 041e 16       		.uleb128 0x16
 5688 041f 6A050000 		.4byte	.LBB5
 5689 0423 44000000 		.4byte	.LBE5-.LBB5
 5690 0427 38040000 		.4byte	0x438
 5691 042b 11       		.uleb128 0x11
 5692 042c 7800     		.ascii	"x\000"
 5693 042e 01       		.byte	0x1
 5694 042f 79       		.byte	0x79
 5695 0430 AD000000 		.4byte	0xad
 5696 0434 02       		.uleb128 0x2
 5697 0435 91       		.byte	0x91
 5698 0436 64       		.sleb128 -28
 5699 0437 00       		.byte	0
 5700 0438 16       		.uleb128 0x16
 5701 0439 56060000 		.4byte	.LBB6
 5702 043d 50000000 		.4byte	.LBE6-.LBB6
 5703 0441 52040000 		.4byte	0x452
 5704 0445 11       		.uleb128 0x11
 5705 0446 6900     		.ascii	"i\000"
 5706 0448 01       		.byte	0x1
 5707 0449 85       		.byte	0x85
 5708 044a C5000000 		.4byte	0xc5
 5709 044e 02       		.uleb128 0x2
 5710 044f 91       		.byte	0x91
 5711 0450 63       		.sleb128 -29
 5712 0451 00       		.byte	0
 5713 0452 16       		.uleb128 0x16
 5714 0453 4E070000 		.4byte	.LBB7
 5715 0457 3C000000 		.4byte	.LBE7-.LBB7
 5716 045b 6C040000 		.4byte	0x46c
 5717 045f 11       		.uleb128 0x11
 5718 0460 6900     		.ascii	"i\000"
 5719 0462 01       		.byte	0x1
 5720 0463 93       		.byte	0x93
 5721 0464 C5000000 		.4byte	0xc5
 5722 0468 02       		.uleb128 0x2
 5723 0469 91       		.byte	0x91
 5724 046a 62       		.sleb128 -30
 5725 046b 00       		.byte	0
 5726 046c 16       		.uleb128 0x16
 5727 046d DA080000 		.4byte	.LBB8
 5728 0471 2A000000 		.4byte	.LBE8-.LBB8
 5729 0475 88040000 		.4byte	0x488
 5730 0479 12       		.uleb128 0x12
 5731 047a 2D030000 		.4byte	.LASF50
 5732 047e 01       		.byte	0x1
 5733 047f A7       		.byte	0xa7
 5734 0480 AD000000 		.4byte	0xad
 5735 0484 02       		.uleb128 0x2
 5736 0485 91       		.byte	0x91
 5737 0486 61       		.sleb128 -31
 5738 0487 00       		.byte	0
ARM GAS  C:\Users\Diego\AppData\Local\Temp\ccj1d66j.s 			page 114


 5739 0488 16       		.uleb128 0x16
 5740 0489 10090000 		.4byte	.LBB9
 5741 048d 62000000 		.4byte	.LBE9-.LBB9
 5742 0491 A2040000 		.4byte	0x4a2
 5743 0495 11       		.uleb128 0x11
 5744 0496 7800     		.ascii	"x\000"
 5745 0498 01       		.byte	0x1
 5746 0499 AB       		.byte	0xab
 5747 049a AD000000 		.4byte	0xad
 5748 049e 02       		.uleb128 0x2
 5749 049f 91       		.byte	0x91
 5750 04a0 60       		.sleb128 -32
 5751 04a1 00       		.byte	0
 5752 04a2 16       		.uleb128 0x16
 5753 04a3 6E0D0000 		.4byte	.LBB10
 5754 04a7 8C000000 		.4byte	.LBE10-.LBB10
 5755 04ab BC040000 		.4byte	0x4bc
 5756 04af 11       		.uleb128 0x11
 5757 04b0 6900     		.ascii	"i\000"
 5758 04b2 01       		.byte	0x1
 5759 04b3 B9       		.byte	0xb9
 5760 04b4 C5000000 		.4byte	0xc5
 5761 04b8 02       		.uleb128 0x2
 5762 04b9 91       		.byte	0x91
 5763 04ba 5F       		.sleb128 -33
 5764 04bb 00       		.byte	0
 5765 04bc 16       		.uleb128 0x16
 5766 04bd 480E0000 		.4byte	.LBB11
 5767 04c1 44000000 		.4byte	.LBE11-.LBB11
 5768 04c5 D6040000 		.4byte	0x4d6
 5769 04c9 11       		.uleb128 0x11
 5770 04ca 7800     		.ascii	"x\000"
 5771 04cc 01       		.byte	0x1
 5772 04cd C6       		.byte	0xc6
 5773 04ce AD000000 		.4byte	0xad
 5774 04d2 02       		.uleb128 0x2
 5775 04d3 91       		.byte	0x91
 5776 04d4 5E       		.sleb128 -34
 5777 04d5 00       		.byte	0
 5778 04d6 16       		.uleb128 0x16
 5779 04d7 340F0000 		.4byte	.LBB12
 5780 04db 4E000000 		.4byte	.LBE12-.LBB12
 5781 04df F0040000 		.4byte	0x4f0
 5782 04e3 11       		.uleb128 0x11
 5783 04e4 6900     		.ascii	"i\000"
 5784 04e6 01       		.byte	0x1
 5785 04e7 D2       		.byte	0xd2
 5786 04e8 C5000000 		.4byte	0xc5
 5787 04ec 02       		.uleb128 0x2
 5788 04ed 91       		.byte	0x91
 5789 04ee 5D       		.sleb128 -35
 5790 04ef 00       		.byte	0
 5791 04f0 16       		.uleb128 0x16
 5792 04f1 2A100000 		.4byte	.LBB13
 5793 04f5 3C000000 		.4byte	.LBE13-.LBB13
 5794 04f9 0A050000 		.4byte	0x50a
 5795 04fd 11       		.uleb128 0x11
ARM GAS  C:\Users\Diego\AppData\Local\Temp\ccj1d66j.s 			page 115


 5796 04fe 6900     		.ascii	"i\000"
 5797 0500 01       		.byte	0x1
 5798 0501 DF       		.byte	0xdf
 5799 0502 C5000000 		.4byte	0xc5
 5800 0506 02       		.uleb128 0x2
 5801 0507 91       		.byte	0x91
 5802 0508 5C       		.sleb128 -36
 5803 0509 00       		.byte	0
 5804 050a 16       		.uleb128 0x16
 5805 050b AE110000 		.4byte	.LBB14
 5806 050f 2A000000 		.4byte	.LBE14-.LBB14
 5807 0513 26050000 		.4byte	0x526
 5808 0517 12       		.uleb128 0x12
 5809 0518 2D030000 		.4byte	.LASF50
 5810 051c 01       		.byte	0x1
 5811 051d F2       		.byte	0xf2
 5812 051e AD000000 		.4byte	0xad
 5813 0522 02       		.uleb128 0x2
 5814 0523 91       		.byte	0x91
 5815 0524 5B       		.sleb128 -37
 5816 0525 00       		.byte	0
 5817 0526 16       		.uleb128 0x16
 5818 0527 E4110000 		.4byte	.LBB15
 5819 052b 62000000 		.4byte	.LBE15-.LBB15
 5820 052f 40050000 		.4byte	0x540
 5821 0533 11       		.uleb128 0x11
 5822 0534 7800     		.ascii	"x\000"
 5823 0536 01       		.byte	0x1
 5824 0537 F6       		.byte	0xf6
 5825 0538 AD000000 		.4byte	0xad
 5826 053c 02       		.uleb128 0x2
 5827 053d 91       		.byte	0x91
 5828 053e 5A       		.sleb128 -38
 5829 053f 00       		.byte	0
 5830 0540 16       		.uleb128 0x16
 5831 0541 90160000 		.4byte	.LBB16
 5832 0545 44000000 		.4byte	.LBE16-.LBB16
 5833 0549 5B050000 		.4byte	0x55b
 5834 054d 17       		.uleb128 0x17
 5835 054e 7800     		.ascii	"x\000"
 5836 0550 01       		.byte	0x1
 5837 0551 0D01     		.2byte	0x10d
 5838 0553 AD000000 		.4byte	0xad
 5839 0557 02       		.uleb128 0x2
 5840 0558 91       		.byte	0x91
 5841 0559 59       		.sleb128 -39
 5842 055a 00       		.byte	0
 5843 055b 16       		.uleb128 0x16
 5844 055c 38180000 		.4byte	.LBB17
 5845 0560 34000000 		.4byte	.LBE17-.LBB17
 5846 0564 78050000 		.4byte	0x578
 5847 0568 18       		.uleb128 0x18
 5848 0569 2D030000 		.4byte	.LASF50
 5849 056d 01       		.byte	0x1
 5850 056e 2701     		.2byte	0x127
 5851 0570 AD000000 		.4byte	0xad
 5852 0574 02       		.uleb128 0x2
ARM GAS  C:\Users\Diego\AppData\Local\Temp\ccj1d66j.s 			page 116


 5853 0575 91       		.byte	0x91
 5854 0576 58       		.sleb128 -40
 5855 0577 00       		.byte	0
 5856 0578 16       		.uleb128 0x16
 5857 0579 78180000 		.4byte	.LBB18
 5858 057d 62000000 		.4byte	.LBE18-.LBB18
 5859 0581 93050000 		.4byte	0x593
 5860 0585 17       		.uleb128 0x17
 5861 0586 7800     		.ascii	"x\000"
 5862 0588 01       		.byte	0x1
 5863 0589 2B01     		.2byte	0x12b
 5864 058b AD000000 		.4byte	0xad
 5865 058f 02       		.uleb128 0x2
 5866 0590 91       		.byte	0x91
 5867 0591 57       		.sleb128 -41
 5868 0592 00       		.byte	0
 5869 0593 19       		.uleb128 0x19
 5870 0594 241D0000 		.4byte	.LBB19
 5871 0598 44000000 		.4byte	.LBE19-.LBB19
 5872 059c 17       		.uleb128 0x17
 5873 059d 7800     		.ascii	"x\000"
 5874 059f 01       		.byte	0x1
 5875 05a0 4201     		.2byte	0x142
 5876 05a2 AD000000 		.4byte	0xad
 5877 05a6 02       		.uleb128 0x2
 5878 05a7 91       		.byte	0x91
 5879 05a8 56       		.sleb128 -42
 5880 05a9 00       		.byte	0
 5881 05aa 00       		.byte	0
 5882 05ab 1A       		.uleb128 0x1a
 5883 05ac 33040000 		.4byte	.LASF52
 5884 05b0 01       		.byte	0x1
 5885 05b1 6301     		.2byte	0x163
 5886 05b3 AD000000 		.4byte	0xad
 5887 05b7 00000000 		.4byte	.LFB65
 5888 05bb B0000000 		.4byte	.LFE65-.LFB65
 5889 05bf 01       		.uleb128 0x1
 5890 05c0 9C       		.byte	0x9c
 5891 05c1 FD050000 		.4byte	0x5fd
 5892 05c5 1B       		.uleb128 0x1b
 5893 05c6 706F7300 		.ascii	"pos\000"
 5894 05ca 01       		.byte	0x1
 5895 05cb 6301     		.2byte	0x163
 5896 05cd AD000000 		.4byte	0xad
 5897 05d1 02       		.uleb128 0x2
 5898 05d2 91       		.byte	0x91
 5899 05d3 67       		.sleb128 -25
 5900 05d4 18       		.uleb128 0x18
 5901 05d5 D9030000 		.4byte	.LASF46
 5902 05d9 01       		.byte	0x1
 5903 05da 6801     		.2byte	0x168
 5904 05dc AD000000 		.4byte	0xad
 5905 05e0 02       		.uleb128 0x2
 5906 05e1 91       		.byte	0x91
 5907 05e2 6E       		.sleb128 -18
 5908 05e3 19       		.uleb128 0x19
 5909 05e4 5C000000 		.4byte	.LBB20
ARM GAS  C:\Users\Diego\AppData\Local\Temp\ccj1d66j.s 			page 117


 5910 05e8 22000000 		.4byte	.LBE20-.LBB20
 5911 05ec 18       		.uleb128 0x18
 5912 05ed 2D030000 		.4byte	.LASF50
 5913 05f1 01       		.byte	0x1
 5914 05f2 7001     		.2byte	0x170
 5915 05f4 AD000000 		.4byte	0xad
 5916 05f8 02       		.uleb128 0x2
 5917 05f9 91       		.byte	0x91
 5918 05fa 6F       		.sleb128 -17
 5919 05fb 00       		.byte	0
 5920 05fc 00       		.byte	0
 5921 05fd 1A       		.uleb128 0x1a
 5922 05fe 32010000 		.4byte	.LASF53
 5923 0602 01       		.byte	0x1
 5924 0603 8401     		.2byte	0x184
 5925 0605 AD000000 		.4byte	0xad
 5926 0609 00000000 		.4byte	.LFB66
 5927 060d DC000000 		.4byte	.LFE66-.LFB66
 5928 0611 01       		.uleb128 0x1
 5929 0612 9C       		.byte	0x9c
 5930 0613 74060000 		.4byte	0x674
 5931 0617 1C       		.uleb128 0x1c
 5932 0618 DF010000 		.4byte	.LASF49
 5933 061c 01       		.byte	0x1
 5934 061d 8401     		.2byte	0x184
 5935 061f AD000000 		.4byte	0xad
 5936 0623 02       		.uleb128 0x2
 5937 0624 91       		.byte	0x91
 5938 0625 6F       		.sleb128 -17
 5939 0626 1D       		.uleb128 0x1d
 5940 0627 D9030000 		.4byte	.LASF46
 5941 062b 01       		.byte	0x1
 5942 062c 8501     		.2byte	0x185
 5943 062e AD000000 		.4byte	0xad
 5944 0632 18       		.uleb128 0x18
 5945 0633 26030000 		.4byte	.LASF54
 5946 0637 01       		.byte	0x1
 5947 0638 8501     		.2byte	0x185
 5948 063a AD000000 		.4byte	0xad
 5949 063e 02       		.uleb128 0x2
 5950 063f 91       		.byte	0x91
 5951 0640 75       		.sleb128 -11
 5952 0641 16       		.uleb128 0x16
 5953 0642 0A000000 		.4byte	.LBB21
 5954 0646 1A000000 		.4byte	.LBE21-.LBB21
 5955 064a 5C060000 		.4byte	0x65c
 5956 064e 17       		.uleb128 0x17
 5957 064f 7800     		.ascii	"x\000"
 5958 0651 01       		.byte	0x1
 5959 0652 8601     		.2byte	0x186
 5960 0654 AD000000 		.4byte	0xad
 5961 0658 02       		.uleb128 0x2
 5962 0659 91       		.byte	0x91
 5963 065a 77       		.sleb128 -9
 5964 065b 00       		.byte	0
 5965 065c 19       		.uleb128 0x19
 5966 065d 92000000 		.4byte	.LBB22
ARM GAS  C:\Users\Diego\AppData\Local\Temp\ccj1d66j.s 			page 118


 5967 0661 1E000000 		.4byte	.LBE22-.LBB22
 5968 0665 17       		.uleb128 0x17
 5969 0666 7800     		.ascii	"x\000"
 5970 0668 01       		.byte	0x1
 5971 0669 9601     		.2byte	0x196
 5972 066b AD000000 		.4byte	0xad
 5973 066f 02       		.uleb128 0x2
 5974 0670 91       		.byte	0x91
 5975 0671 76       		.sleb128 -10
 5976 0672 00       		.byte	0
 5977 0673 00       		.byte	0
 5978 0674 1A       		.uleb128 0x1a
 5979 0675 00000000 		.4byte	.LASF55
 5980 0679 01       		.byte	0x1
 5981 067a A501     		.2byte	0x1a5
 5982 067c AD000000 		.4byte	0xad
 5983 0680 00000000 		.4byte	.LFB67
 5984 0684 14010000 		.4byte	.LFE67-.LFB67
 5985 0688 01       		.uleb128 0x1
 5986 0689 9C       		.byte	0x9c
 5987 068a 0B070000 		.4byte	0x70b
 5988 068e 1C       		.uleb128 0x1c
 5989 068f DF010000 		.4byte	.LASF49
 5990 0693 01       		.byte	0x1
 5991 0694 A501     		.2byte	0x1a5
 5992 0696 AD000000 		.4byte	0xad
 5993 069a 02       		.uleb128 0x2
 5994 069b 91       		.byte	0x91
 5995 069c 67       		.sleb128 -25
 5996 069d 18       		.uleb128 0x18
 5997 069e D9030000 		.4byte	.LASF46
 5998 06a2 01       		.byte	0x1
 5999 06a3 A601     		.2byte	0x1a6
 6000 06a5 AD000000 		.4byte	0xad
 6001 06a9 02       		.uleb128 0x2
 6002 06aa 91       		.byte	0x91
 6003 06ab 6C       		.sleb128 -20
 6004 06ac 18       		.uleb128 0x18
 6005 06ad 26030000 		.4byte	.LASF54
 6006 06b1 01       		.byte	0x1
 6007 06b2 A601     		.2byte	0x1a6
 6008 06b4 AD000000 		.4byte	0xad
 6009 06b8 02       		.uleb128 0x2
 6010 06b9 91       		.byte	0x91
 6011 06ba 6B       		.sleb128 -21
 6012 06bb 16       		.uleb128 0x16
 6013 06bc 0A000000 		.4byte	.LBB23
 6014 06c0 1A000000 		.4byte	.LBE23-.LBB23
 6015 06c4 D6060000 		.4byte	0x6d6
 6016 06c8 17       		.uleb128 0x17
 6017 06c9 7800     		.ascii	"x\000"
 6018 06cb 01       		.byte	0x1
 6019 06cc A701     		.2byte	0x1a7
 6020 06ce AD000000 		.4byte	0xad
 6021 06d2 02       		.uleb128 0x2
 6022 06d3 91       		.byte	0x91
 6023 06d4 6F       		.sleb128 -17
ARM GAS  C:\Users\Diego\AppData\Local\Temp\ccj1d66j.s 			page 119


 6024 06d5 00       		.byte	0
 6025 06d6 16       		.uleb128 0x16
 6026 06d7 96000000 		.4byte	.LBB24
 6027 06db 1E000000 		.4byte	.LBE24-.LBB24
 6028 06df F1060000 		.4byte	0x6f1
 6029 06e3 17       		.uleb128 0x17
 6030 06e4 7800     		.ascii	"x\000"
 6031 06e6 01       		.byte	0x1
 6032 06e7 B701     		.2byte	0x1b7
 6033 06e9 AD000000 		.4byte	0xad
 6034 06ed 02       		.uleb128 0x2
 6035 06ee 91       		.byte	0x91
 6036 06ef 6E       		.sleb128 -18
 6037 06f0 00       		.byte	0
 6038 06f1 19       		.uleb128 0x19
 6039 06f2 C8000000 		.4byte	.LBB25
 6040 06f6 22000000 		.4byte	.LBE25-.LBB25
 6041 06fa 18       		.uleb128 0x18
 6042 06fb 2D030000 		.4byte	.LASF50
 6043 06ff 01       		.byte	0x1
 6044 0700 BD01     		.2byte	0x1bd
 6045 0702 AD000000 		.4byte	0xad
 6046 0706 02       		.uleb128 0x2
 6047 0707 91       		.byte	0x91
 6048 0708 6D       		.sleb128 -19
 6049 0709 00       		.byte	0
 6050 070a 00       		.byte	0
 6051 070b 1A       		.uleb128 0x1a
 6052 070c 18040000 		.4byte	.LASF56
 6053 0710 01       		.byte	0x1
 6054 0711 CC01     		.2byte	0x1cc
 6055 0713 AD000000 		.4byte	0xad
 6056 0717 00000000 		.4byte	.LFB68
 6057 071b 84010000 		.4byte	.LFE68-.LFB68
 6058 071f 01       		.uleb128 0x1
 6059 0720 9C       		.byte	0x9c
 6060 0721 EC070000 		.4byte	0x7ec
 6061 0725 1C       		.uleb128 0x1c
 6062 0726 DF010000 		.4byte	.LASF49
 6063 072a 01       		.byte	0x1
 6064 072b CC01     		.2byte	0x1cc
 6065 072d AD000000 		.4byte	0xad
 6066 0731 02       		.uleb128 0x2
 6067 0732 91       		.byte	0x91
 6068 0733 67       		.sleb128 -25
 6069 0734 18       		.uleb128 0x18
 6070 0735 D9030000 		.4byte	.LASF46
 6071 0739 01       		.byte	0x1
 6072 073a D101     		.2byte	0x1d1
 6073 073c AD000000 		.4byte	0xad
 6074 0740 02       		.uleb128 0x2
 6075 0741 91       		.byte	0x91
 6076 0742 69       		.sleb128 -23
 6077 0743 16       		.uleb128 0x16
 6078 0744 0A000000 		.4byte	.LBB26
 6079 0748 1A000000 		.4byte	.LBE26-.LBB26
 6080 074c 5E070000 		.4byte	0x75e
ARM GAS  C:\Users\Diego\AppData\Local\Temp\ccj1d66j.s 			page 120


 6081 0750 17       		.uleb128 0x17
 6082 0751 7800     		.ascii	"x\000"
 6083 0753 01       		.byte	0x1
 6084 0754 CE01     		.2byte	0x1ce
 6085 0756 AD000000 		.4byte	0xad
 6086 075a 02       		.uleb128 0x2
 6087 075b 91       		.byte	0x91
 6088 075c 6F       		.sleb128 -17
 6089 075d 00       		.byte	0
 6090 075e 16       		.uleb128 0x16
 6091 075f 58000000 		.4byte	.LBB27
 6092 0763 24000000 		.4byte	.LBE27-.LBB27
 6093 0767 7B070000 		.4byte	0x77b
 6094 076b 18       		.uleb128 0x18
 6095 076c 2D030000 		.4byte	.LASF50
 6096 0770 01       		.byte	0x1
 6097 0771 D901     		.2byte	0x1d9
 6098 0773 AD000000 		.4byte	0xad
 6099 0777 02       		.uleb128 0x2
 6100 0778 91       		.byte	0x91
 6101 0779 6E       		.sleb128 -18
 6102 077a 00       		.byte	0
 6103 077b 16       		.uleb128 0x16
 6104 077c A8000000 		.4byte	.LBB28
 6105 0780 26000000 		.4byte	.LBE28-.LBB28
 6106 0784 98070000 		.4byte	0x798
 6107 0788 18       		.uleb128 0x18
 6108 0789 2D030000 		.4byte	.LASF50
 6109 078d 01       		.byte	0x1
 6110 078e E401     		.2byte	0x1e4
 6111 0790 AD000000 		.4byte	0xad
 6112 0794 02       		.uleb128 0x2
 6113 0795 91       		.byte	0x91
 6114 0796 6D       		.sleb128 -19
 6115 0797 00       		.byte	0
 6116 0798 16       		.uleb128 0x16
 6117 0799 DA000000 		.4byte	.LBB29
 6118 079d 26000000 		.4byte	.LBE29-.LBB29
 6119 07a1 B5070000 		.4byte	0x7b5
 6120 07a5 18       		.uleb128 0x18
 6121 07a6 2D030000 		.4byte	.LASF50
 6122 07aa 01       		.byte	0x1
 6123 07ab E901     		.2byte	0x1e9
 6124 07ad AD000000 		.4byte	0xad
 6125 07b1 02       		.uleb128 0x2
 6126 07b2 91       		.byte	0x91
 6127 07b3 6C       		.sleb128 -20
 6128 07b4 00       		.byte	0
 6129 07b5 16       		.uleb128 0x16
 6130 07b6 0C010000 		.4byte	.LBB30
 6131 07ba 26000000 		.4byte	.LBE30-.LBB30
 6132 07be D2070000 		.4byte	0x7d2
 6133 07c2 18       		.uleb128 0x18
 6134 07c3 2D030000 		.4byte	.LASF50
 6135 07c7 01       		.byte	0x1
 6136 07c8 EE01     		.2byte	0x1ee
 6137 07ca AD000000 		.4byte	0xad
ARM GAS  C:\Users\Diego\AppData\Local\Temp\ccj1d66j.s 			page 121


 6138 07ce 02       		.uleb128 0x2
 6139 07cf 91       		.byte	0x91
 6140 07d0 6B       		.sleb128 -21
 6141 07d1 00       		.byte	0
 6142 07d2 19       		.uleb128 0x19
 6143 07d3 3E010000 		.4byte	.LBB31
 6144 07d7 26000000 		.4byte	.LBE31-.LBB31
 6145 07db 18       		.uleb128 0x18
 6146 07dc 2D030000 		.4byte	.LASF50
 6147 07e0 01       		.byte	0x1
 6148 07e1 F301     		.2byte	0x1f3
 6149 07e3 AD000000 		.4byte	0xad
 6150 07e7 02       		.uleb128 0x2
 6151 07e8 91       		.byte	0x91
 6152 07e9 6A       		.sleb128 -22
 6153 07ea 00       		.byte	0
 6154 07eb 00       		.byte	0
 6155 07ec 1A       		.uleb128 0x1a
 6156 07ed 2C000000 		.4byte	.LASF57
 6157 07f1 01       		.byte	0x1
 6158 07f2 0902     		.2byte	0x209
 6159 07f4 AD000000 		.4byte	0xad
 6160 07f8 00000000 		.4byte	.LFB69
 6161 07fc 14010000 		.4byte	.LFE69-.LFB69
 6162 0800 01       		.uleb128 0x1
 6163 0801 9C       		.byte	0x9c
 6164 0802 68080000 		.4byte	0x868
 6165 0806 1C       		.uleb128 0x1c
 6166 0807 DF010000 		.4byte	.LASF49
 6167 080b 01       		.byte	0x1
 6168 080c 0902     		.2byte	0x209
 6169 080e AD000000 		.4byte	0xad
 6170 0812 02       		.uleb128 0x2
 6171 0813 91       		.byte	0x91
 6172 0814 67       		.sleb128 -25
 6173 0815 1C       		.uleb128 0x1c
 6174 0816 7B000000 		.4byte	.LASF58
 6175 081a 01       		.byte	0x1
 6176 081b 0902     		.2byte	0x209
 6177 081d 68080000 		.4byte	0x868
 6178 0821 02       		.uleb128 0x2
 6179 0822 91       		.byte	0x91
 6180 0823 60       		.sleb128 -32
 6181 0824 18       		.uleb128 0x18
 6182 0825 D9030000 		.4byte	.LASF46
 6183 0829 01       		.byte	0x1
 6184 082a 0B02     		.2byte	0x20b
 6185 082c AD000000 		.4byte	0xad
 6186 0830 02       		.uleb128 0x2
 6187 0831 91       		.byte	0x91
 6188 0832 6D       		.sleb128 -19
 6189 0833 16       		.uleb128 0x16
 6190 0834 8C000000 		.4byte	.LBB32
 6191 0838 1E000000 		.4byte	.LBE32-.LBB32
 6192 083c 4E080000 		.4byte	0x84e
 6193 0840 17       		.uleb128 0x17
 6194 0841 7800     		.ascii	"x\000"
ARM GAS  C:\Users\Diego\AppData\Local\Temp\ccj1d66j.s 			page 122


 6195 0843 01       		.byte	0x1
 6196 0844 1B02     		.2byte	0x21b
 6197 0846 AD000000 		.4byte	0xad
 6198 084a 02       		.uleb128 0x2
 6199 084b 91       		.byte	0x91
 6200 084c 6F       		.sleb128 -17
 6201 084d 00       		.byte	0
 6202 084e 19       		.uleb128 0x19
 6203 084f BE000000 		.4byte	.LBB33
 6204 0853 22000000 		.4byte	.LBE33-.LBB33
 6205 0857 18       		.uleb128 0x18
 6206 0858 2D030000 		.4byte	.LASF50
 6207 085c 01       		.byte	0x1
 6208 085d 2102     		.2byte	0x221
 6209 085f AD000000 		.4byte	0xad
 6210 0863 02       		.uleb128 0x2
 6211 0864 91       		.byte	0x91
 6212 0865 6E       		.sleb128 -18
 6213 0866 00       		.byte	0
 6214 0867 00       		.byte	0
 6215 0868 13       		.uleb128 0x13
 6216 0869 04       		.byte	0x4
 6217 086a AD000000 		.4byte	0xad
 6218 086e 1E       		.uleb128 0x1e
 6219 086f 7D030000 		.4byte	.LASF60
 6220 0873 01       		.byte	0x1
 6221 0874 3602     		.2byte	0x236
 6222 0876 00000000 		.4byte	.LFB70
 6223 087a 0C010000 		.4byte	.LFE70-.LFB70
 6224 087e 01       		.uleb128 0x1
 6225 087f 9C       		.byte	0x9c
 6226 0880 04090000 		.4byte	0x904
 6227 0884 1C       		.uleb128 0x1c
 6228 0885 DF010000 		.4byte	.LASF49
 6229 0889 01       		.byte	0x1
 6230 088a 3602     		.2byte	0x236
 6231 088c AD000000 		.4byte	0xad
 6232 0890 02       		.uleb128 0x2
 6233 0891 91       		.byte	0x91
 6234 0892 67       		.sleb128 -25
 6235 0893 1C       		.uleb128 0x1c
 6236 0894 90020000 		.4byte	.LASF61
 6237 0898 01       		.byte	0x1
 6238 0899 3602     		.2byte	0x236
 6239 089b AD000000 		.4byte	0xad
 6240 089f 02       		.uleb128 0x2
 6241 08a0 91       		.byte	0x91
 6242 08a1 66       		.sleb128 -26
 6243 08a2 1C       		.uleb128 0x1c
 6244 08a3 58010000 		.4byte	.LASF62
 6245 08a7 01       		.byte	0x1
 6246 08a8 3602     		.2byte	0x236
 6247 08aa AD000000 		.4byte	0xad
 6248 08ae 02       		.uleb128 0x2
 6249 08af 91       		.byte	0x91
 6250 08b0 65       		.sleb128 -27
 6251 08b1 18       		.uleb128 0x18
ARM GAS  C:\Users\Diego\AppData\Local\Temp\ccj1d66j.s 			page 123


 6252 08b2 D9030000 		.4byte	.LASF46
 6253 08b6 01       		.byte	0x1
 6254 08b7 3802     		.2byte	0x238
 6255 08b9 AD000000 		.4byte	0xad
 6256 08bd 02       		.uleb128 0x2
 6257 08be 91       		.byte	0x91
 6258 08bf 6C       		.sleb128 -20
 6259 08c0 18       		.uleb128 0x18
 6260 08c1 F5020000 		.4byte	.LASF63
 6261 08c5 01       		.byte	0x1
 6262 08c6 3902     		.2byte	0x239
 6263 08c8 AD000000 		.4byte	0xad
 6264 08cc 02       		.uleb128 0x2
 6265 08cd 91       		.byte	0x91
 6266 08ce 6D       		.sleb128 -19
 6267 08cf 16       		.uleb128 0x16
 6268 08d0 90000000 		.4byte	.LBB34
 6269 08d4 1E000000 		.4byte	.LBE34-.LBB34
 6270 08d8 EA080000 		.4byte	0x8ea
 6271 08dc 17       		.uleb128 0x17
 6272 08dd 7800     		.ascii	"x\000"
 6273 08df 01       		.byte	0x1
 6274 08e0 4802     		.2byte	0x248
 6275 08e2 AD000000 		.4byte	0xad
 6276 08e6 02       		.uleb128 0x2
 6277 08e7 91       		.byte	0x91
 6278 08e8 6F       		.sleb128 -17
 6279 08e9 00       		.byte	0
 6280 08ea 19       		.uleb128 0x19
 6281 08eb C2000000 		.4byte	.LBB35
 6282 08ef 22000000 		.4byte	.LBE35-.LBB35
 6283 08f3 18       		.uleb128 0x18
 6284 08f4 2D030000 		.4byte	.LASF50
 6285 08f8 01       		.byte	0x1
 6286 08f9 4E02     		.2byte	0x24e
 6287 08fb AD000000 		.4byte	0xad
 6288 08ff 02       		.uleb128 0x2
 6289 0900 91       		.byte	0x91
 6290 0901 6E       		.sleb128 -18
 6291 0902 00       		.byte	0
 6292 0903 00       		.byte	0
 6293 0904 1F       		.uleb128 0x1f
 6294 0905 58030000 		.4byte	.LASF90
 6295 0909 01       		.byte	0x1
 6296 090a 5C02     		.2byte	0x25c
 6297 090c 00000000 		.4byte	.LFB71
 6298 0910 0C000000 		.4byte	.LFE71-.LFB71
 6299 0914 01       		.uleb128 0x1
 6300 0915 9C       		.byte	0x9c
 6301 0916 20       		.uleb128 0x20
 6302 0917 66040000 		.4byte	.LASF91
 6303 091b 01       		.byte	0x1
 6304 091c 6702     		.2byte	0x267
 6305 091e 00000000 		.4byte	.LFB72
 6306 0922 40000000 		.4byte	.LFE72-.LFB72
 6307 0926 01       		.uleb128 0x1
 6308 0927 9C       		.byte	0x9c
ARM GAS  C:\Users\Diego\AppData\Local\Temp\ccj1d66j.s 			page 124


 6309 0928 55090000 		.4byte	0x955
 6310 092c 18       		.uleb128 0x18
 6311 092d D9030000 		.4byte	.LASF46
 6312 0931 01       		.byte	0x1
 6313 0932 6802     		.2byte	0x268
 6314 0934 AD000000 		.4byte	0xad
 6315 0938 02       		.uleb128 0x2
 6316 0939 91       		.byte	0x91
 6317 093a 6E       		.sleb128 -18
 6318 093b 19       		.uleb128 0x19
 6319 093c 0E000000 		.4byte	.LBB36
 6320 0940 22000000 		.4byte	.LBE36-.LBB36
 6321 0944 18       		.uleb128 0x18
 6322 0945 2D030000 		.4byte	.LASF50
 6323 0949 01       		.byte	0x1
 6324 094a 6A02     		.2byte	0x26a
 6325 094c AD000000 		.4byte	0xad
 6326 0950 02       		.uleb128 0x2
 6327 0951 91       		.byte	0x91
 6328 0952 6F       		.sleb128 -17
 6329 0953 00       		.byte	0
 6330 0954 00       		.byte	0
 6331 0955 21       		.uleb128 0x21
 6332 0956 CC030000 		.4byte	.LASF64
 6333 095a 06       		.byte	0x6
 6334 095b 1207     		.2byte	0x712
 6335 095d 61090000 		.4byte	0x961
 6336 0961 22       		.uleb128 0x22
 6337 0962 A2000000 		.4byte	0xa2
 6338 0966 23       		.uleb128 0x23
 6339 0967 8E010000 		.4byte	.LASF65
 6340 096b 05       		.byte	0x5
 6341 096c 10       		.byte	0x10
 6342 096d B9000000 		.4byte	0xb9
 6343 0971 05       		.uleb128 0x5
 6344 0972 03       		.byte	0x3
 6345 0973 00000000 		.4byte	PollCounter
 6346 0977 23       		.uleb128 0x23
 6347 0978 E8020000 		.4byte	.LASF66
 6348 097c 05       		.byte	0x5
 6349 097d 11       		.byte	0x11
 6350 097e AD000000 		.4byte	0xad
 6351 0982 05       		.uleb128 0x5
 6352 0983 03       		.byte	0x3
 6353 0984 00000000 		.4byte	CurrentState
 6354 0988 23       		.uleb128 0x23
 6355 0989 3E040000 		.4byte	.LASF67
 6356 098d 05       		.byte	0x5
 6357 098e 12       		.byte	0x12
 6358 098f AD000000 		.4byte	0xad
 6359 0993 05       		.uleb128 0x5
 6360 0994 03       		.byte	0x3
 6361 0995 00000000 		.4byte	Receipt
 6362 0999 0B       		.uleb128 0xb
 6363 099a AD000000 		.4byte	0xad
 6364 099e A9090000 		.4byte	0x9a9
 6365 09a2 0C       		.uleb128 0xc
ARM GAS  C:\Users\Diego\AppData\Local\Temp\ccj1d66j.s 			page 125


 6366 09a3 F9000000 		.4byte	0xf9
 6367 09a7 05       		.byte	0x5
 6368 09a8 00       		.byte	0
 6369 09a9 23       		.uleb128 0x23
 6370 09aa 71030000 		.4byte	.LASF68
 6371 09ae 05       		.byte	0x5
 6372 09af 13       		.byte	0x13
 6373 09b0 99090000 		.4byte	0x999
 6374 09b4 05       		.uleb128 0x5
 6375 09b5 03       		.byte	0x3
 6376 09b6 00000000 		.4byte	sale_number
 6377 09ba 23       		.uleb128 0x23
 6378 09bb 21010000 		.4byte	.LASF69
 6379 09bf 05       		.byte	0x5
 6380 09c0 14       		.byte	0x14
 6381 09c1 99090000 		.4byte	0x999
 6382 09c5 05       		.uleb128 0x5
 6383 09c6 03       		.byte	0x3
 6384 09c7 00000000 		.4byte	sale_number_copy
 6385 09cb 23       		.uleb128 0x23
 6386 09cc 6C000000 		.4byte	.LASF70
 6387 09d0 05       		.byte	0x5
 6388 09d1 15       		.byte	0x15
 6389 09d2 AD000000 		.4byte	0xad
 6390 09d6 05       		.uleb128 0x5
 6391 09d7 03       		.byte	0x3
 6392 09d8 00000000 		.4byte	int_salenumber
 6393 09dc 23       		.uleb128 0x23
 6394 09dd 62020000 		.4byte	.LASF71
 6395 09e1 05       		.byte	0x5
 6396 09e2 16       		.byte	0x16
 6397 09e3 99090000 		.4byte	0x999
 6398 09e7 05       		.uleb128 0x5
 6399 09e8 03       		.byte	0x3
 6400 09e9 00000000 		.4byte	shift_number
 6401 09ed 23       		.uleb128 0x23
 6402 09ee 6D010000 		.4byte	.LASF72
 6403 09f2 05       		.byte	0x5
 6404 09f3 17       		.byte	0x17
 6405 09f4 AD000000 		.4byte	0xad
 6406 09f8 05       		.uleb128 0x5
 6407 09f9 03       		.byte	0x3
 6408 09fa 00000000 		.4byte	int_shiftnumber
 6409 09fe 23       		.uleb128 0x23
 6410 09ff BA010000 		.4byte	.LASF73
 6411 0a03 05       		.byte	0x5
 6412 0a04 18       		.byte	0x18
 6413 0a05 AD000000 		.4byte	0xad
 6414 0a09 05       		.uleb128 0x5
 6415 0a0a 03       		.byte	0x3
 6416 0a0b 00000000 		.4byte	LCDhose
 6417 0a0f 23       		.uleb128 0x23
 6418 0a10 46040000 		.4byte	.LASF74
 6419 0a14 05       		.byte	0x5
 6420 0a15 3F       		.byte	0x3f
 6421 0a16 B0020000 		.4byte	0x2b0
 6422 0a1a 05       		.uleb128 0x5
ARM GAS  C:\Users\Diego\AppData\Local\Temp\ccj1d66j.s 			page 126


 6423 0a1b 03       		.byte	0x3
 6424 0a1c 00000000 		.4byte	side
 6425 0a20 23       		.uleb128 0x23
 6426 0a21 BD030000 		.4byte	.LASF75
 6427 0a25 05       		.byte	0x5
 6428 0a26 48       		.byte	0x48
 6429 0a27 4E020000 		.4byte	0x24e
 6430 0a2b 05       		.uleb128 0x5
 6431 0a2c 03       		.byte	0x3
 6432 0a2d 00000000 		.4byte	MepsanResponse
 6433 0a31 23       		.uleb128 0x23
 6434 0a32 24020000 		.4byte	.LASF76
 6435 0a36 05       		.byte	0x5
 6436 0a37 49       		.byte	0x49
 6437 0a38 4E020000 		.4byte	0x24e
 6438 0a3c 05       		.uleb128 0x5
 6439 0a3d 03       		.byte	0x3
 6440 0a3e 00000000 		.4byte	MepsanSendTo
 6441 0a42 0B       		.uleb128 0xb
 6442 0a43 AD000000 		.4byte	0xad
 6443 0a47 520A0000 		.4byte	0xa52
 6444 0a4b 0C       		.uleb128 0xc
 6445 0a4c F9000000 		.4byte	0xf9
 6446 0a50 0E       		.byte	0xe
 6447 0a51 00       		.byte	0
 6448 0a52 23       		.uleb128 0x23
 6449 0a53 3D020000 		.4byte	.LASF77
 6450 0a57 05       		.byte	0x5
 6451 0a58 4A       		.byte	0x4a
 6452 0a59 420A0000 		.4byte	0xa42
 6453 0a5d 05       		.uleb128 0x5
 6454 0a5e 03       		.byte	0x3
 6455 0a5f 00000000 		.4byte	PumpAddress
 6456 0a63 23       		.uleb128 0x23
 6457 0a64 66030000 		.4byte	.LASF78
 6458 0a68 05       		.byte	0x5
 6459 0a69 4B       		.byte	0x4b
 6460 0a6a 4E020000 		.4byte	0x24e
 6461 0a6e 05       		.uleb128 0x5
 6462 0a6f 03       		.byte	0x3
 6463 0a70 00000000 		.4byte	GBResponse
 6464 0a74 24       		.uleb128 0x24
 6465 0a75 43524300 		.ascii	"CRC\000"
 6466 0a79 05       		.byte	0x5
 6467 0a7a 4C       		.byte	0x4c
 6468 0a7b B9000000 		.4byte	0xb9
 6469 0a7f 05       		.uleb128 0x5
 6470 0a80 03       		.byte	0x3
 6471 0a81 00000000 		.4byte	CRC
 6472 0a85 23       		.uleb128 0x23
 6473 0a86 38000000 		.4byte	.LASF79
 6474 0a8a 05       		.byte	0x5
 6475 0a8b 4D       		.byte	0x4d
 6476 0a8c AD000000 		.4byte	0xad
 6477 0a90 05       		.uleb128 0x5
 6478 0a91 03       		.byte	0x3
 6479 0a92 00000000 		.4byte	crc_lo
ARM GAS  C:\Users\Diego\AppData\Local\Temp\ccj1d66j.s 			page 127


 6480 0a96 23       		.uleb128 0x23
 6481 0a97 5F040000 		.4byte	.LASF80
 6482 0a9b 05       		.byte	0x5
 6483 0a9c 4D       		.byte	0x4d
 6484 0a9d AD000000 		.4byte	0xad
 6485 0aa1 05       		.uleb128 0x5
 6486 0aa2 03       		.byte	0x3
 6487 0aa3 00000000 		.4byte	crc_hi
 6488 0aa7 23       		.uleb128 0x23
 6489 0aa8 47010000 		.4byte	.LASF81
 6490 0aac 05       		.byte	0x5
 6491 0aad 4E       		.byte	0x4e
 6492 0aae AD000000 		.4byte	0xad
 6493 0ab2 05       		.uleb128 0x5
 6494 0ab3 03       		.byte	0x3
 6495 0ab4 00000000 		.4byte	Positions
 6496 0ab8 23       		.uleb128 0x23
 6497 0ab9 E8030000 		.4byte	.LASF82
 6498 0abd 05       		.byte	0x5
 6499 0abe 4F       		.byte	0x4f
 6500 0abf AD000000 		.4byte	0xad
 6501 0ac3 05       		.uleb128 0x5
 6502 0ac4 03       		.byte	0x3
 6503 0ac5 00000000 		.4byte	TotalRequestType
 6504 0ac9 23       		.uleb128 0x23
 6505 0aca 16000000 		.4byte	.LASF83
 6506 0ace 05       		.byte	0x5
 6507 0acf 50       		.byte	0x50
 6508 0ad0 AD000000 		.4byte	0xad
 6509 0ad4 05       		.uleb128 0x5
 6510 0ad5 03       		.byte	0x3
 6511 0ad6 00000000 		.4byte	DecVol
 6512 0ada 0B       		.uleb128 0xb
 6513 0adb AD000000 		.4byte	0xad
 6514 0adf EA0A0000 		.4byte	0xaea
 6515 0ae3 0C       		.uleb128 0xc
 6516 0ae4 F9000000 		.4byte	0xf9
 6517 0ae8 13       		.byte	0x13
 6518 0ae9 00       		.byte	0
 6519 0aea 23       		.uleb128 0x23
 6520 0aeb B6030000 		.4byte	.LASF84
 6521 0aef 05       		.byte	0x5
 6522 0af0 59       		.byte	0x59
 6523 0af1 DA0A0000 		.4byte	0xada
 6524 0af5 05       		.uleb128 0x5
 6525 0af6 03       		.byte	0x3
 6526 0af7 00000000 		.4byte	touch1
 6527 0afb 23       		.uleb128 0x23
 6528 0afc E7010000 		.4byte	.LASF85
 6529 0b00 05       		.byte	0x5
 6530 0b01 62       		.byte	0x62
 6531 0b02 AD000000 		.4byte	0xad
 6532 0b06 05       		.uleb128 0x5
 6533 0b07 03       		.byte	0x3
 6534 0b08 00000000 		.4byte	dirGbr
 6535 0b0c 00       		.byte	0
 6536              		.section	.debug_abbrev,"",%progbits
ARM GAS  C:\Users\Diego\AppData\Local\Temp\ccj1d66j.s 			page 128


 6537              	.Ldebug_abbrev0:
 6538 0000 01       		.uleb128 0x1
 6539 0001 11       		.uleb128 0x11
 6540 0002 01       		.byte	0x1
 6541 0003 25       		.uleb128 0x25
 6542 0004 0E       		.uleb128 0xe
 6543 0005 13       		.uleb128 0x13
 6544 0006 0B       		.uleb128 0xb
 6545 0007 03       		.uleb128 0x3
 6546 0008 0E       		.uleb128 0xe
 6547 0009 1B       		.uleb128 0x1b
 6548 000a 0E       		.uleb128 0xe
 6549 000b 55       		.uleb128 0x55
 6550 000c 17       		.uleb128 0x17
 6551 000d 11       		.uleb128 0x11
 6552 000e 01       		.uleb128 0x1
 6553 000f 10       		.uleb128 0x10
 6554 0010 17       		.uleb128 0x17
 6555 0011 00       		.byte	0
 6556 0012 00       		.byte	0
 6557 0013 02       		.uleb128 0x2
 6558 0014 24       		.uleb128 0x24
 6559 0015 00       		.byte	0
 6560 0016 0B       		.uleb128 0xb
 6561 0017 0B       		.uleb128 0xb
 6562 0018 3E       		.uleb128 0x3e
 6563 0019 0B       		.uleb128 0xb
 6564 001a 03       		.uleb128 0x3
 6565 001b 0E       		.uleb128 0xe
 6566 001c 00       		.byte	0
 6567 001d 00       		.byte	0
 6568 001e 03       		.uleb128 0x3
 6569 001f 16       		.uleb128 0x16
 6570 0020 00       		.byte	0
 6571 0021 03       		.uleb128 0x3
 6572 0022 0E       		.uleb128 0xe
 6573 0023 3A       		.uleb128 0x3a
 6574 0024 0B       		.uleb128 0xb
 6575 0025 3B       		.uleb128 0x3b
 6576 0026 0B       		.uleb128 0xb
 6577 0027 49       		.uleb128 0x49
 6578 0028 13       		.uleb128 0x13
 6579 0029 00       		.byte	0
 6580 002a 00       		.byte	0
 6581 002b 04       		.uleb128 0x4
 6582 002c 24       		.uleb128 0x24
 6583 002d 00       		.byte	0
 6584 002e 0B       		.uleb128 0xb
 6585 002f 0B       		.uleb128 0xb
 6586 0030 3E       		.uleb128 0x3e
 6587 0031 0B       		.uleb128 0xb
 6588 0032 03       		.uleb128 0x3
 6589 0033 08       		.uleb128 0x8
 6590 0034 00       		.byte	0
 6591 0035 00       		.byte	0
 6592 0036 05       		.uleb128 0x5
 6593 0037 16       		.uleb128 0x16
ARM GAS  C:\Users\Diego\AppData\Local\Temp\ccj1d66j.s 			page 129


 6594 0038 00       		.byte	0
 6595 0039 03       		.uleb128 0x3
 6596 003a 0E       		.uleb128 0xe
 6597 003b 3A       		.uleb128 0x3a
 6598 003c 0B       		.uleb128 0xb
 6599 003d 3B       		.uleb128 0x3b
 6600 003e 05       		.uleb128 0x5
 6601 003f 49       		.uleb128 0x49
 6602 0040 13       		.uleb128 0x13
 6603 0041 00       		.byte	0
 6604 0042 00       		.byte	0
 6605 0043 06       		.uleb128 0x6
 6606 0044 13       		.uleb128 0x13
 6607 0045 01       		.byte	0x1
 6608 0046 03       		.uleb128 0x3
 6609 0047 0E       		.uleb128 0xe
 6610 0048 0B       		.uleb128 0xb
 6611 0049 05       		.uleb128 0x5
 6612 004a 3A       		.uleb128 0x3a
 6613 004b 0B       		.uleb128 0xb
 6614 004c 3B       		.uleb128 0x3b
 6615 004d 0B       		.uleb128 0xb
 6616 004e 01       		.uleb128 0x1
 6617 004f 13       		.uleb128 0x13
 6618 0050 00       		.byte	0
 6619 0051 00       		.byte	0
 6620 0052 07       		.uleb128 0x7
 6621 0053 0D       		.uleb128 0xd
 6622 0054 00       		.byte	0
 6623 0055 03       		.uleb128 0x3
 6624 0056 08       		.uleb128 0x8
 6625 0057 3A       		.uleb128 0x3a
 6626 0058 0B       		.uleb128 0xb
 6627 0059 3B       		.uleb128 0x3b
 6628 005a 0B       		.uleb128 0xb
 6629 005b 49       		.uleb128 0x49
 6630 005c 13       		.uleb128 0x13
 6631 005d 38       		.uleb128 0x38
 6632 005e 0B       		.uleb128 0xb
 6633 005f 00       		.byte	0
 6634 0060 00       		.byte	0
 6635 0061 08       		.uleb128 0x8
 6636 0062 0D       		.uleb128 0xd
 6637 0063 00       		.byte	0
 6638 0064 03       		.uleb128 0x3
 6639 0065 0E       		.uleb128 0xe
 6640 0066 3A       		.uleb128 0x3a
 6641 0067 0B       		.uleb128 0xb
 6642 0068 3B       		.uleb128 0x3b
 6643 0069 0B       		.uleb128 0xb
 6644 006a 49       		.uleb128 0x49
 6645 006b 13       		.uleb128 0x13
 6646 006c 38       		.uleb128 0x38
 6647 006d 0B       		.uleb128 0xb
 6648 006e 00       		.byte	0
 6649 006f 00       		.byte	0
 6650 0070 09       		.uleb128 0x9
ARM GAS  C:\Users\Diego\AppData\Local\Temp\ccj1d66j.s 			page 130


 6651 0071 0D       		.uleb128 0xd
 6652 0072 00       		.byte	0
 6653 0073 03       		.uleb128 0x3
 6654 0074 0E       		.uleb128 0xe
 6655 0075 3A       		.uleb128 0x3a
 6656 0076 0B       		.uleb128 0xb
 6657 0077 3B       		.uleb128 0x3b
 6658 0078 0B       		.uleb128 0xb
 6659 0079 49       		.uleb128 0x49
 6660 007a 13       		.uleb128 0x13
 6661 007b 38       		.uleb128 0x38
 6662 007c 05       		.uleb128 0x5
 6663 007d 00       		.byte	0
 6664 007e 00       		.byte	0
 6665 007f 0A       		.uleb128 0xa
 6666 0080 0D       		.uleb128 0xd
 6667 0081 00       		.byte	0
 6668 0082 03       		.uleb128 0x3
 6669 0083 08       		.uleb128 0x8
 6670 0084 3A       		.uleb128 0x3a
 6671 0085 0B       		.uleb128 0xb
 6672 0086 3B       		.uleb128 0x3b
 6673 0087 0B       		.uleb128 0xb
 6674 0088 49       		.uleb128 0x49
 6675 0089 13       		.uleb128 0x13
 6676 008a 38       		.uleb128 0x38
 6677 008b 05       		.uleb128 0x5
 6678 008c 00       		.byte	0
 6679 008d 00       		.byte	0
 6680 008e 0B       		.uleb128 0xb
 6681 008f 01       		.uleb128 0x1
 6682 0090 01       		.byte	0x1
 6683 0091 49       		.uleb128 0x49
 6684 0092 13       		.uleb128 0x13
 6685 0093 01       		.uleb128 0x1
 6686 0094 13       		.uleb128 0x13
 6687 0095 00       		.byte	0
 6688 0096 00       		.byte	0
 6689 0097 0C       		.uleb128 0xc
 6690 0098 21       		.uleb128 0x21
 6691 0099 00       		.byte	0
 6692 009a 49       		.uleb128 0x49
 6693 009b 13       		.uleb128 0x13
 6694 009c 2F       		.uleb128 0x2f
 6695 009d 0B       		.uleb128 0xb
 6696 009e 00       		.byte	0
 6697 009f 00       		.byte	0
 6698 00a0 0D       		.uleb128 0xd
 6699 00a1 04       		.uleb128 0x4
 6700 00a2 01       		.byte	0x1
 6701 00a3 03       		.uleb128 0x3
 6702 00a4 0E       		.uleb128 0xe
 6703 00a5 0B       		.uleb128 0xb
 6704 00a6 0B       		.uleb128 0xb
 6705 00a7 49       		.uleb128 0x49
 6706 00a8 13       		.uleb128 0x13
 6707 00a9 3A       		.uleb128 0x3a
ARM GAS  C:\Users\Diego\AppData\Local\Temp\ccj1d66j.s 			page 131


 6708 00aa 0B       		.uleb128 0xb
 6709 00ab 3B       		.uleb128 0x3b
 6710 00ac 0B       		.uleb128 0xb
 6711 00ad 01       		.uleb128 0x1
 6712 00ae 13       		.uleb128 0x13
 6713 00af 00       		.byte	0
 6714 00b0 00       		.byte	0
 6715 00b1 0E       		.uleb128 0xe
 6716 00b2 28       		.uleb128 0x28
 6717 00b3 00       		.byte	0
 6718 00b4 03       		.uleb128 0x3
 6719 00b5 0E       		.uleb128 0xe
 6720 00b6 1C       		.uleb128 0x1c
 6721 00b7 0B       		.uleb128 0xb
 6722 00b8 00       		.byte	0
 6723 00b9 00       		.byte	0
 6724 00ba 0F       		.uleb128 0xf
 6725 00bb 2E       		.uleb128 0x2e
 6726 00bc 01       		.byte	0x1
 6727 00bd 3F       		.uleb128 0x3f
 6728 00be 19       		.uleb128 0x19
 6729 00bf 03       		.uleb128 0x3
 6730 00c0 0E       		.uleb128 0xe
 6731 00c1 3A       		.uleb128 0x3a
 6732 00c2 0B       		.uleb128 0xb
 6733 00c3 3B       		.uleb128 0x3b
 6734 00c4 0B       		.uleb128 0xb
 6735 00c5 27       		.uleb128 0x27
 6736 00c6 19       		.uleb128 0x19
 6737 00c7 49       		.uleb128 0x49
 6738 00c8 13       		.uleb128 0x13
 6739 00c9 11       		.uleb128 0x11
 6740 00ca 01       		.uleb128 0x1
 6741 00cb 12       		.uleb128 0x12
 6742 00cc 06       		.uleb128 0x6
 6743 00cd 40       		.uleb128 0x40
 6744 00ce 18       		.uleb128 0x18
 6745 00cf 9742     		.uleb128 0x2117
 6746 00d1 19       		.uleb128 0x19
 6747 00d2 01       		.uleb128 0x1
 6748 00d3 13       		.uleb128 0x13
 6749 00d4 00       		.byte	0
 6750 00d5 00       		.byte	0
 6751 00d6 10       		.uleb128 0x10
 6752 00d7 05       		.uleb128 0x5
 6753 00d8 00       		.byte	0
 6754 00d9 03       		.uleb128 0x3
 6755 00da 0E       		.uleb128 0xe
 6756 00db 3A       		.uleb128 0x3a
 6757 00dc 0B       		.uleb128 0xb
 6758 00dd 3B       		.uleb128 0x3b
 6759 00de 0B       		.uleb128 0xb
 6760 00df 49       		.uleb128 0x49
 6761 00e0 13       		.uleb128 0x13
 6762 00e1 02       		.uleb128 0x2
 6763 00e2 18       		.uleb128 0x18
 6764 00e3 00       		.byte	0
ARM GAS  C:\Users\Diego\AppData\Local\Temp\ccj1d66j.s 			page 132


 6765 00e4 00       		.byte	0
 6766 00e5 11       		.uleb128 0x11
 6767 00e6 34       		.uleb128 0x34
 6768 00e7 00       		.byte	0
 6769 00e8 03       		.uleb128 0x3
 6770 00e9 08       		.uleb128 0x8
 6771 00ea 3A       		.uleb128 0x3a
 6772 00eb 0B       		.uleb128 0xb
 6773 00ec 3B       		.uleb128 0x3b
 6774 00ed 0B       		.uleb128 0xb
 6775 00ee 49       		.uleb128 0x49
 6776 00ef 13       		.uleb128 0x13
 6777 00f0 02       		.uleb128 0x2
 6778 00f1 18       		.uleb128 0x18
 6779 00f2 00       		.byte	0
 6780 00f3 00       		.byte	0
 6781 00f4 12       		.uleb128 0x12
 6782 00f5 34       		.uleb128 0x34
 6783 00f6 00       		.byte	0
 6784 00f7 03       		.uleb128 0x3
 6785 00f8 0E       		.uleb128 0xe
 6786 00f9 3A       		.uleb128 0x3a
 6787 00fa 0B       		.uleb128 0xb
 6788 00fb 3B       		.uleb128 0x3b
 6789 00fc 0B       		.uleb128 0xb
 6790 00fd 49       		.uleb128 0x49
 6791 00fe 13       		.uleb128 0x13
 6792 00ff 02       		.uleb128 0x2
 6793 0100 18       		.uleb128 0x18
 6794 0101 00       		.byte	0
 6795 0102 00       		.byte	0
 6796 0103 13       		.uleb128 0x13
 6797 0104 0F       		.uleb128 0xf
 6798 0105 00       		.byte	0
 6799 0106 0B       		.uleb128 0xb
 6800 0107 0B       		.uleb128 0xb
 6801 0108 49       		.uleb128 0x49
 6802 0109 13       		.uleb128 0x13
 6803 010a 00       		.byte	0
 6804 010b 00       		.byte	0
 6805 010c 14       		.uleb128 0x14
 6806 010d 26       		.uleb128 0x26
 6807 010e 00       		.byte	0
 6808 010f 49       		.uleb128 0x49
 6809 0110 13       		.uleb128 0x13
 6810 0111 00       		.byte	0
 6811 0112 00       		.byte	0
 6812 0113 15       		.uleb128 0x15
 6813 0114 2E       		.uleb128 0x2e
 6814 0115 01       		.byte	0x1
 6815 0116 3F       		.uleb128 0x3f
 6816 0117 19       		.uleb128 0x19
 6817 0118 03       		.uleb128 0x3
 6818 0119 0E       		.uleb128 0xe
 6819 011a 3A       		.uleb128 0x3a
 6820 011b 0B       		.uleb128 0xb
 6821 011c 3B       		.uleb128 0x3b
ARM GAS  C:\Users\Diego\AppData\Local\Temp\ccj1d66j.s 			page 133


 6822 011d 0B       		.uleb128 0xb
 6823 011e 27       		.uleb128 0x27
 6824 011f 19       		.uleb128 0x19
 6825 0120 11       		.uleb128 0x11
 6826 0121 01       		.uleb128 0x1
 6827 0122 12       		.uleb128 0x12
 6828 0123 06       		.uleb128 0x6
 6829 0124 40       		.uleb128 0x40
 6830 0125 18       		.uleb128 0x18
 6831 0126 9642     		.uleb128 0x2116
 6832 0128 19       		.uleb128 0x19
 6833 0129 01       		.uleb128 0x1
 6834 012a 13       		.uleb128 0x13
 6835 012b 00       		.byte	0
 6836 012c 00       		.byte	0
 6837 012d 16       		.uleb128 0x16
 6838 012e 0B       		.uleb128 0xb
 6839 012f 01       		.byte	0x1
 6840 0130 11       		.uleb128 0x11
 6841 0131 01       		.uleb128 0x1
 6842 0132 12       		.uleb128 0x12
 6843 0133 06       		.uleb128 0x6
 6844 0134 01       		.uleb128 0x1
 6845 0135 13       		.uleb128 0x13
 6846 0136 00       		.byte	0
 6847 0137 00       		.byte	0
 6848 0138 17       		.uleb128 0x17
 6849 0139 34       		.uleb128 0x34
 6850 013a 00       		.byte	0
 6851 013b 03       		.uleb128 0x3
 6852 013c 08       		.uleb128 0x8
 6853 013d 3A       		.uleb128 0x3a
 6854 013e 0B       		.uleb128 0xb
 6855 013f 3B       		.uleb128 0x3b
 6856 0140 05       		.uleb128 0x5
 6857 0141 49       		.uleb128 0x49
 6858 0142 13       		.uleb128 0x13
 6859 0143 02       		.uleb128 0x2
 6860 0144 18       		.uleb128 0x18
 6861 0145 00       		.byte	0
 6862 0146 00       		.byte	0
 6863 0147 18       		.uleb128 0x18
 6864 0148 34       		.uleb128 0x34
 6865 0149 00       		.byte	0
 6866 014a 03       		.uleb128 0x3
 6867 014b 0E       		.uleb128 0xe
 6868 014c 3A       		.uleb128 0x3a
 6869 014d 0B       		.uleb128 0xb
 6870 014e 3B       		.uleb128 0x3b
 6871 014f 05       		.uleb128 0x5
 6872 0150 49       		.uleb128 0x49
 6873 0151 13       		.uleb128 0x13
 6874 0152 02       		.uleb128 0x2
 6875 0153 18       		.uleb128 0x18
 6876 0154 00       		.byte	0
 6877 0155 00       		.byte	0
 6878 0156 19       		.uleb128 0x19
ARM GAS  C:\Users\Diego\AppData\Local\Temp\ccj1d66j.s 			page 134


 6879 0157 0B       		.uleb128 0xb
 6880 0158 01       		.byte	0x1
 6881 0159 11       		.uleb128 0x11
 6882 015a 01       		.uleb128 0x1
 6883 015b 12       		.uleb128 0x12
 6884 015c 06       		.uleb128 0x6
 6885 015d 00       		.byte	0
 6886 015e 00       		.byte	0
 6887 015f 1A       		.uleb128 0x1a
 6888 0160 2E       		.uleb128 0x2e
 6889 0161 01       		.byte	0x1
 6890 0162 3F       		.uleb128 0x3f
 6891 0163 19       		.uleb128 0x19
 6892 0164 03       		.uleb128 0x3
 6893 0165 0E       		.uleb128 0xe
 6894 0166 3A       		.uleb128 0x3a
 6895 0167 0B       		.uleb128 0xb
 6896 0168 3B       		.uleb128 0x3b
 6897 0169 05       		.uleb128 0x5
 6898 016a 27       		.uleb128 0x27
 6899 016b 19       		.uleb128 0x19
 6900 016c 49       		.uleb128 0x49
 6901 016d 13       		.uleb128 0x13
 6902 016e 11       		.uleb128 0x11
 6903 016f 01       		.uleb128 0x1
 6904 0170 12       		.uleb128 0x12
 6905 0171 06       		.uleb128 0x6
 6906 0172 40       		.uleb128 0x40
 6907 0173 18       		.uleb128 0x18
 6908 0174 9642     		.uleb128 0x2116
 6909 0176 19       		.uleb128 0x19
 6910 0177 01       		.uleb128 0x1
 6911 0178 13       		.uleb128 0x13
 6912 0179 00       		.byte	0
 6913 017a 00       		.byte	0
 6914 017b 1B       		.uleb128 0x1b
 6915 017c 05       		.uleb128 0x5
 6916 017d 00       		.byte	0
 6917 017e 03       		.uleb128 0x3
 6918 017f 08       		.uleb128 0x8
 6919 0180 3A       		.uleb128 0x3a
 6920 0181 0B       		.uleb128 0xb
 6921 0182 3B       		.uleb128 0x3b
 6922 0183 05       		.uleb128 0x5
 6923 0184 49       		.uleb128 0x49
 6924 0185 13       		.uleb128 0x13
 6925 0186 02       		.uleb128 0x2
 6926 0187 18       		.uleb128 0x18
 6927 0188 00       		.byte	0
 6928 0189 00       		.byte	0
 6929 018a 1C       		.uleb128 0x1c
 6930 018b 05       		.uleb128 0x5
 6931 018c 00       		.byte	0
 6932 018d 03       		.uleb128 0x3
 6933 018e 0E       		.uleb128 0xe
 6934 018f 3A       		.uleb128 0x3a
 6935 0190 0B       		.uleb128 0xb
ARM GAS  C:\Users\Diego\AppData\Local\Temp\ccj1d66j.s 			page 135


 6936 0191 3B       		.uleb128 0x3b
 6937 0192 05       		.uleb128 0x5
 6938 0193 49       		.uleb128 0x49
 6939 0194 13       		.uleb128 0x13
 6940 0195 02       		.uleb128 0x2
 6941 0196 18       		.uleb128 0x18
 6942 0197 00       		.byte	0
 6943 0198 00       		.byte	0
 6944 0199 1D       		.uleb128 0x1d
 6945 019a 34       		.uleb128 0x34
 6946 019b 00       		.byte	0
 6947 019c 03       		.uleb128 0x3
 6948 019d 0E       		.uleb128 0xe
 6949 019e 3A       		.uleb128 0x3a
 6950 019f 0B       		.uleb128 0xb
 6951 01a0 3B       		.uleb128 0x3b
 6952 01a1 05       		.uleb128 0x5
 6953 01a2 49       		.uleb128 0x49
 6954 01a3 13       		.uleb128 0x13
 6955 01a4 00       		.byte	0
 6956 01a5 00       		.byte	0
 6957 01a6 1E       		.uleb128 0x1e
 6958 01a7 2E       		.uleb128 0x2e
 6959 01a8 01       		.byte	0x1
 6960 01a9 3F       		.uleb128 0x3f
 6961 01aa 19       		.uleb128 0x19
 6962 01ab 03       		.uleb128 0x3
 6963 01ac 0E       		.uleb128 0xe
 6964 01ad 3A       		.uleb128 0x3a
 6965 01ae 0B       		.uleb128 0xb
 6966 01af 3B       		.uleb128 0x3b
 6967 01b0 05       		.uleb128 0x5
 6968 01b1 27       		.uleb128 0x27
 6969 01b2 19       		.uleb128 0x19
 6970 01b3 11       		.uleb128 0x11
 6971 01b4 01       		.uleb128 0x1
 6972 01b5 12       		.uleb128 0x12
 6973 01b6 06       		.uleb128 0x6
 6974 01b7 40       		.uleb128 0x40
 6975 01b8 18       		.uleb128 0x18
 6976 01b9 9642     		.uleb128 0x2116
 6977 01bb 19       		.uleb128 0x19
 6978 01bc 01       		.uleb128 0x1
 6979 01bd 13       		.uleb128 0x13
 6980 01be 00       		.byte	0
 6981 01bf 00       		.byte	0
 6982 01c0 1F       		.uleb128 0x1f
 6983 01c1 2E       		.uleb128 0x2e
 6984 01c2 00       		.byte	0
 6985 01c3 3F       		.uleb128 0x3f
 6986 01c4 19       		.uleb128 0x19
 6987 01c5 03       		.uleb128 0x3
 6988 01c6 0E       		.uleb128 0xe
 6989 01c7 3A       		.uleb128 0x3a
 6990 01c8 0B       		.uleb128 0xb
 6991 01c9 3B       		.uleb128 0x3b
 6992 01ca 05       		.uleb128 0x5
ARM GAS  C:\Users\Diego\AppData\Local\Temp\ccj1d66j.s 			page 136


 6993 01cb 27       		.uleb128 0x27
 6994 01cc 19       		.uleb128 0x19
 6995 01cd 11       		.uleb128 0x11
 6996 01ce 01       		.uleb128 0x1
 6997 01cf 12       		.uleb128 0x12
 6998 01d0 06       		.uleb128 0x6
 6999 01d1 40       		.uleb128 0x40
 7000 01d2 18       		.uleb128 0x18
 7001 01d3 9742     		.uleb128 0x2117
 7002 01d5 19       		.uleb128 0x19
 7003 01d6 00       		.byte	0
 7004 01d7 00       		.byte	0
 7005 01d8 20       		.uleb128 0x20
 7006 01d9 2E       		.uleb128 0x2e
 7007 01da 01       		.byte	0x1
 7008 01db 3F       		.uleb128 0x3f
 7009 01dc 19       		.uleb128 0x19
 7010 01dd 03       		.uleb128 0x3
 7011 01de 0E       		.uleb128 0xe
 7012 01df 3A       		.uleb128 0x3a
 7013 01e0 0B       		.uleb128 0xb
 7014 01e1 3B       		.uleb128 0x3b
 7015 01e2 05       		.uleb128 0x5
 7016 01e3 11       		.uleb128 0x11
 7017 01e4 01       		.uleb128 0x1
 7018 01e5 12       		.uleb128 0x12
 7019 01e6 06       		.uleb128 0x6
 7020 01e7 40       		.uleb128 0x40
 7021 01e8 18       		.uleb128 0x18
 7022 01e9 9642     		.uleb128 0x2116
 7023 01eb 19       		.uleb128 0x19
 7024 01ec 01       		.uleb128 0x1
 7025 01ed 13       		.uleb128 0x13
 7026 01ee 00       		.byte	0
 7027 01ef 00       		.byte	0
 7028 01f0 21       		.uleb128 0x21
 7029 01f1 34       		.uleb128 0x34
 7030 01f2 00       		.byte	0
 7031 01f3 03       		.uleb128 0x3
 7032 01f4 0E       		.uleb128 0xe
 7033 01f5 3A       		.uleb128 0x3a
 7034 01f6 0B       		.uleb128 0xb
 7035 01f7 3B       		.uleb128 0x3b
 7036 01f8 05       		.uleb128 0x5
 7037 01f9 49       		.uleb128 0x49
 7038 01fa 13       		.uleb128 0x13
 7039 01fb 3F       		.uleb128 0x3f
 7040 01fc 19       		.uleb128 0x19
 7041 01fd 3C       		.uleb128 0x3c
 7042 01fe 19       		.uleb128 0x19
 7043 01ff 00       		.byte	0
 7044 0200 00       		.byte	0
 7045 0201 22       		.uleb128 0x22
 7046 0202 35       		.uleb128 0x35
 7047 0203 00       		.byte	0
 7048 0204 49       		.uleb128 0x49
 7049 0205 13       		.uleb128 0x13
ARM GAS  C:\Users\Diego\AppData\Local\Temp\ccj1d66j.s 			page 137


 7050 0206 00       		.byte	0
 7051 0207 00       		.byte	0
 7052 0208 23       		.uleb128 0x23
 7053 0209 34       		.uleb128 0x34
 7054 020a 00       		.byte	0
 7055 020b 03       		.uleb128 0x3
 7056 020c 0E       		.uleb128 0xe
 7057 020d 3A       		.uleb128 0x3a
 7058 020e 0B       		.uleb128 0xb
 7059 020f 3B       		.uleb128 0x3b
 7060 0210 0B       		.uleb128 0xb
 7061 0211 49       		.uleb128 0x49
 7062 0212 13       		.uleb128 0x13
 7063 0213 3F       		.uleb128 0x3f
 7064 0214 19       		.uleb128 0x19
 7065 0215 02       		.uleb128 0x2
 7066 0216 18       		.uleb128 0x18
 7067 0217 00       		.byte	0
 7068 0218 00       		.byte	0
 7069 0219 24       		.uleb128 0x24
 7070 021a 34       		.uleb128 0x34
 7071 021b 00       		.byte	0
 7072 021c 03       		.uleb128 0x3
 7073 021d 08       		.uleb128 0x8
 7074 021e 3A       		.uleb128 0x3a
 7075 021f 0B       		.uleb128 0xb
 7076 0220 3B       		.uleb128 0x3b
 7077 0221 0B       		.uleb128 0xb
 7078 0222 49       		.uleb128 0x49
 7079 0223 13       		.uleb128 0x13
 7080 0224 3F       		.uleb128 0x3f
 7081 0225 19       		.uleb128 0x19
 7082 0226 02       		.uleb128 0x2
 7083 0227 18       		.uleb128 0x18
 7084 0228 00       		.byte	0
 7085 0229 00       		.byte	0
 7086 022a 00       		.byte	0
 7087              		.section	.debug_aranges,"",%progbits
 7088 0000 64000000 		.4byte	0x64
 7089 0004 0200     		.2byte	0x2
 7090 0006 00000000 		.4byte	.Ldebug_info0
 7091 000a 04       		.byte	0x4
 7092 000b 00       		.byte	0
 7093 000c 0000     		.2byte	0
 7094 000e 0000     		.2byte	0
 7095 0010 00000000 		.4byte	.LFB63
 7096 0014 FA000000 		.4byte	.LFE63-.LFB63
 7097 0018 00000000 		.4byte	.LFB64
 7098 001c D01E0000 		.4byte	.LFE64-.LFB64
 7099 0020 00000000 		.4byte	.LFB65
 7100 0024 B0000000 		.4byte	.LFE65-.LFB65
 7101 0028 00000000 		.4byte	.LFB66
 7102 002c DC000000 		.4byte	.LFE66-.LFB66
 7103 0030 00000000 		.4byte	.LFB67
 7104 0034 14010000 		.4byte	.LFE67-.LFB67
 7105 0038 00000000 		.4byte	.LFB68
 7106 003c 84010000 		.4byte	.LFE68-.LFB68
ARM GAS  C:\Users\Diego\AppData\Local\Temp\ccj1d66j.s 			page 138


 7107 0040 00000000 		.4byte	.LFB69
 7108 0044 14010000 		.4byte	.LFE69-.LFB69
 7109 0048 00000000 		.4byte	.LFB70
 7110 004c 0C010000 		.4byte	.LFE70-.LFB70
 7111 0050 00000000 		.4byte	.LFB71
 7112 0054 0C000000 		.4byte	.LFE71-.LFB71
 7113 0058 00000000 		.4byte	.LFB72
 7114 005c 40000000 		.4byte	.LFE72-.LFB72
 7115 0060 00000000 		.4byte	0
 7116 0064 00000000 		.4byte	0
 7117              		.section	.debug_ranges,"",%progbits
 7118              	.Ldebug_ranges0:
 7119 0000 00000000 		.4byte	.LFB63
 7120 0004 FA000000 		.4byte	.LFE63
 7121 0008 00000000 		.4byte	.LFB64
 7122 000c D01E0000 		.4byte	.LFE64
 7123 0010 00000000 		.4byte	.LFB65
 7124 0014 B0000000 		.4byte	.LFE65
 7125 0018 00000000 		.4byte	.LFB66
 7126 001c DC000000 		.4byte	.LFE66
 7127 0020 00000000 		.4byte	.LFB67
 7128 0024 14010000 		.4byte	.LFE67
 7129 0028 00000000 		.4byte	.LFB68
 7130 002c 84010000 		.4byte	.LFE68
 7131 0030 00000000 		.4byte	.LFB69
 7132 0034 14010000 		.4byte	.LFE69
 7133 0038 00000000 		.4byte	.LFB70
 7134 003c 0C010000 		.4byte	.LFE70
 7135 0040 00000000 		.4byte	.LFB71
 7136 0044 0C000000 		.4byte	.LFE71
 7137 0048 00000000 		.4byte	.LFB72
 7138 004c 40000000 		.4byte	.LFE72
 7139 0050 00000000 		.4byte	0
 7140 0054 00000000 		.4byte	0
 7141              		.section	.debug_line,"",%progbits
 7142              	.Ldebug_line0:
 7143 0000 65060000 		.section	.debug_str,"MS",%progbits,1
 7143      02005B01 
 7143      00000201 
 7143      FB0E0D00 
 7143      01010101 
 7144              	.LASF55:
 7145 0000 52657475 		.ascii	"ReturnStatus\000"
 7145      726E5374 
 7145      61747573 
 7145      00
 7146              	.LASF40:
 7147 000d 706F7369 		.ascii	"position\000"
 7147      74696F6E 
 7147      00
 7148              	.LASF83:
 7149 0016 44656356 		.ascii	"DecVol\000"
 7149      6F6C00
 7150              	.LASF89:
 7151 001d 4D455053 		.ascii	"MEPSAN_REQUEST\000"
 7151      414E5F52 
 7151      45515545 
ARM GAS  C:\Users\Diego\AppData\Local\Temp\ccj1d66j.s 			page 139


 7151      535400
 7152              	.LASF57:
 7153 002c 50726963 		.ascii	"PriceUpdate\000"
 7153      65557064 
 7153      61746500 
 7154              	.LASF79:
 7155 0038 6372635F 		.ascii	"crc_lo\000"
 7155      6C6F00
 7156              	.LASF44:
 7157 003f 4D455053 		.ascii	"MEPSAN_R_FILLING\000"
 7157      414E5F52 
 7157      5F46494C 
 7157      4C494E47 
 7157      00
 7158              	.LASF48:
 7159 0050 6269745F 		.ascii	"bit_flag\000"
 7159      666C6167 
 7159      00
 7160              	.LASF2:
 7161 0059 73686F72 		.ascii	"short int\000"
 7161      7420696E 
 7161      7400
 7162              	.LASF23:
 7163 0063 73697A65 		.ascii	"sizetype\000"
 7163      74797065 
 7163      00
 7164              	.LASF70:
 7165 006c 696E745F 		.ascii	"int_salenumber\000"
 7165      73616C65 
 7165      6E756D62 
 7165      657200
 7166              	.LASF58:
 7167 007b 70726963 		.ascii	"price\000"
 7167      6500
 7168              	.LASF59:
 7169 0081 47657452 		.ascii	"GetResponse\000"
 7169      6573706F 
 7169      6E736500 
 7170              	.LASF20:
 7171 008d 63686172 		.ascii	"char8\000"
 7171      3800
 7172              	.LASF86:
 7173 0093 474E5520 		.ascii	"GNU C11 5.4.1 20160609 (release) [ARM/embedded-5-br"
 7173      43313120 
 7173      352E342E 
 7173      31203230 
 7173      31363036 
 7174 00c6 616E6368 		.ascii	"anch revision 237715] -mcpu=cortex-m3 -mthumb -g -O"
 7174      20726576 
 7174      6973696F 
 7174      6E203233 
 7174      37373135 
 7175 00f9 30202D66 		.ascii	"0 -ffunction-sections -ffat-lto-objects\000"
 7175      66756E63 
 7175      74696F6E 
 7175      2D736563 
 7175      74696F6E 
ARM GAS  C:\Users\Diego\AppData\Local\Temp\ccj1d66j.s 			page 140


 7176              	.LASF69:
 7177 0121 73616C65 		.ascii	"sale_number_copy\000"
 7177      5F6E756D 
 7177      6265725F 
 7177      636F7079 
 7177      00
 7178              	.LASF53:
 7179 0132 41757468 		.ascii	"Authorize\000"
 7179      6F72697A 
 7179      6500
 7180              	.LASF4:
 7181 013c 5F5F7569 		.ascii	"__uint16_t\000"
 7181      6E743136 
 7181      5F7400
 7182              	.LASF81:
 7183 0147 506F7369 		.ascii	"Positions\000"
 7183      74696F6E 
 7183      7300
 7184              	.LASF16:
 7185 0151 75696E74 		.ascii	"uint16\000"
 7185      313600
 7186              	.LASF62:
 7187 0158 6E6F7A7A 		.ascii	"nozzle\000"
 7187      6C6500
 7188              	.LASF12:
 7189 015f 75696E74 		.ascii	"uint8_t\000"
 7189      385F7400 
 7190              	.LASF15:
 7191 0167 75696E74 		.ascii	"uint8\000"
 7191      3800
 7192              	.LASF72:
 7193 016d 696E745F 		.ascii	"int_shiftnumber\000"
 7193      73686966 
 7193      746E756D 
 7193      62657200 
 7194              	.LASF39:
 7195 017d 436F7079 		.ascii	"Copy\000"
 7195      00
 7196              	.LASF0:
 7197 0182 7369676E 		.ascii	"signed char\000"
 7197      65642063 
 7197      68617200 
 7198              	.LASF65:
 7199 018e 506F6C6C 		.ascii	"PollCounter\000"
 7199      436F756E 
 7199      74657200 
 7200              	.LASF18:
 7201 019a 666C6F61 		.ascii	"float\000"
 7201      7400
 7202              	.LASF9:
 7203 01a0 6C6F6E67 		.ascii	"long long int\000"
 7203      206C6F6E 
 7203      6720696E 
 7203      7400
 7204              	.LASF17:
 7205 01ae 696E7438 		.ascii	"int8\000"
 7205      00
ARM GAS  C:\Users\Diego\AppData\Local\Temp\ccj1d66j.s 			page 141


 7206              	.LASF30:
 7207 01b3 73746174 		.ascii	"states\000"
 7207      657300
 7208              	.LASF73:
 7209 01ba 4C434468 		.ascii	"LCDhose\000"
 7209      6F736500 
 7210              	.LASF7:
 7211 01c2 6C6F6E67 		.ascii	"long int\000"
 7211      20696E74 
 7211      00
 7212              	.LASF34:
 7213 01cb 50726F63 		.ascii	"ProcessedvolumeSale\000"
 7213      65737365 
 7213      64766F6C 
 7213      756D6553 
 7213      616C6500 
 7214              	.LASF49:
 7215 01df 61646472 		.ascii	"address\000"
 7215      65737300 
 7216              	.LASF85:
 7217 01e7 64697247 		.ascii	"dirGbr\000"
 7217      627200
 7218              	.LASF27:
 7219 01ee 766F6C75 		.ascii	"volumeSale\000"
 7219      6D655361 
 7219      6C6500
 7220              	.LASF3:
 7221 01f9 5F5F7569 		.ascii	"__uint8_t\000"
 7221      6E74385F 
 7221      7400
 7222              	.LASF43:
 7223 0203 4D455053 		.ascii	"MEPSAN_AUTHORIZE\000"
 7223      414E5F41 
 7223      5554484F 
 7223      52495A45 
 7223      00
 7224              	.LASF32:
 7225 0214 50726F63 		.ascii	"ProcessedTotals\000"
 7225      65737365 
 7225      64546F74 
 7225      616C7300 
 7226              	.LASF76:
 7227 0224 4D657073 		.ascii	"MepsanSendTo\000"
 7227      616E5365 
 7227      6E64546F 
 7227      00
 7228              	.LASF22:
 7229 0231 6C6F6E67 		.ascii	"long double\000"
 7229      20646F75 
 7229      626C6500 
 7230              	.LASF77:
 7231 023d 50756D70 		.ascii	"PumpAddress\000"
 7231      41646472 
 7231      65737300 
 7232              	.LASF1:
 7233 0249 756E7369 		.ascii	"unsigned char\000"
 7233      676E6564 
ARM GAS  C:\Users\Diego\AppData\Local\Temp\ccj1d66j.s 			page 142


 7233      20636861 
 7233      7200
 7234              	.LASF37:
 7235 0257 4D657052 		.ascii	"MepRequest\000"
 7235      65717565 
 7235      737400
 7236              	.LASF71:
 7237 0262 73686966 		.ascii	"shift_number\000"
 7237      745F6E75 
 7237      6D626572 
 7237      00
 7238              	.LASF25:
 7239 026f 7070754E 		.ascii	"ppuNozzle\000"
 7239      6F7A7A6C 
 7239      6500
 7240              	.LASF10:
 7241 0279 6C6F6E67 		.ascii	"long long unsigned int\000"
 7241      206C6F6E 
 7241      6720756E 
 7241      7369676E 
 7241      65642069 
 7242              	.LASF61:
 7243 0290 74797065 		.ascii	"type\000"
 7243      00
 7244              	.LASF88:
 7245 0295 433A5C55 		.ascii	"C:\\Users\\Diego\\Documents\\GitHub\\Mepsan\\Mepsan"
 7245      73657273 
 7245      5C446965 
 7245      676F5C44 
 7245      6F63756D 
 7246 02c2 2E637964 		.ascii	".cydsn\000"
 7246      736E00
 7247              	.LASF11:
 7248 02c9 756E7369 		.ascii	"unsigned int\000"
 7248      676E6564 
 7248      20696E74 
 7248      00
 7249              	.LASF28:
 7250 02d6 70707553 		.ascii	"ppuSale\000"
 7250      616C6500 
 7251              	.LASF26:
 7252 02de 6D6F6E65 		.ascii	"moneySale\000"
 7252      7953616C 
 7252      6500
 7253              	.LASF66:
 7254 02e8 43757272 		.ascii	"CurrentState\000"
 7254      656E7453 
 7254      74617465 
 7254      00
 7255              	.LASF63:
 7256 02f5 72657175 		.ascii	"request\000"
 7256      65737400 
 7257              	.LASF47:
 7258 02fd 62697473 		.ascii	"bits_read\000"
 7258      5F726561 
 7258      6400
 7259              	.LASF29:
ARM GAS  C:\Users\Diego\AppData\Local\Temp\ccj1d66j.s 			page 143


 7260 0307 70726F64 		.ascii	"productSale\000"
 7260      75637453 
 7260      616C6500 
 7261              	.LASF5:
 7262 0313 73686F72 		.ascii	"short unsigned int\000"
 7262      7420756E 
 7262      7369676E 
 7262      65642069 
 7262      6E7400
 7263              	.LASF54:
 7264 0326 73746174 		.ascii	"status\000"
 7264      757300
 7265              	.LASF50:
 7266 032d 4D657052 		.ascii	"MepRx\000"
 7266      7800
 7267              	.LASF21:
 7268 0333 63686172 		.ascii	"char\000"
 7268      00
 7269              	.LASF13:
 7270 0338 75696E74 		.ascii	"uint16_t\000"
 7270      31365F74 
 7270      00
 7271              	.LASF51:
 7272 0341 67656E5F 		.ascii	"gen_crc16\000"
 7272      63726331 
 7272      3600
 7273              	.LASF14:
 7274 034b 696E7433 		.ascii	"int32_t\000"
 7274      325F7400 
 7275              	.LASF41:
 7276 0353 70756D70 		.ascii	"pump\000"
 7276      00
 7277              	.LASF90:
 7278 0358 47657454 		.ascii	"GetTotal\000"
 7278      6F74616C 
 7278      00
 7279              	.LASF45:
 7280 0361 64617461 		.ascii	"data\000"
 7280      00
 7281              	.LASF78:
 7282 0366 47425265 		.ascii	"GBResponse\000"
 7282      73706F6E 
 7282      736500
 7283              	.LASF68:
 7284 0371 73616C65 		.ascii	"sale_number\000"
 7284      5F6E756D 
 7284      62657200 
 7285              	.LASF60:
 7286 037d 546F7461 		.ascii	"TotalRequest\000"
 7286      6C526571 
 7286      75657374 
 7286      00
 7287              	.LASF24:
 7288 038a 746F7461 		.ascii	"totalsNozzle\000"
 7288      6C734E6F 
 7288      7A7A6C65 
 7288      00
ARM GAS  C:\Users\Diego\AppData\Local\Temp\ccj1d66j.s 			page 144


 7289              	.LASF35:
 7290 0397 50726F63 		.ascii	"ProcessedPPU\000"
 7290      65737365 
 7290      64505055 
 7290      00
 7291              	.LASF8:
 7292 03a4 6C6F6E67 		.ascii	"long unsigned int\000"
 7292      20756E73 
 7292      69676E65 
 7292      6420696E 
 7292      7400
 7293              	.LASF84:
 7294 03b6 746F7563 		.ascii	"touch1\000"
 7294      683100
 7295              	.LASF75:
 7296 03bd 4D657073 		.ascii	"MepsanResponse\000"
 7296      616E5265 
 7296      73706F6E 
 7296      736500
 7297              	.LASF64:
 7298 03cc 49544D5F 		.ascii	"ITM_RxBuffer\000"
 7298      52784275 
 7298      66666572 
 7298      00
 7299              	.LASF46:
 7300 03d9 73697A65 		.ascii	"size\000"
 7300      00
 7301              	.LASF6:
 7302 03de 5F5F696E 		.ascii	"__int32_t\000"
 7302      7433325F 
 7302      7400
 7303              	.LASF82:
 7304 03e8 546F7461 		.ascii	"TotalRequestType\000"
 7304      6C526571 
 7304      75657374 
 7304      54797065 
 7304      00
 7305              	.LASF31:
 7306 03f9 4D657073 		.ascii	"MepsanStore\000"
 7306      616E5374 
 7306      6F726500 
 7307              	.LASF33:
 7308 0405 50726F63 		.ascii	"ProcessedmoneySale\000"
 7308      65737365 
 7308      646D6F6E 
 7308      65795361 
 7308      6C6500
 7309              	.LASF56:
 7310 0418 50756D70 		.ascii	"PumpState\000"
 7310      53746174 
 7310      6500
 7311              	.LASF87:
 7312 0422 50756D70 		.ascii	"PumpCom.c\000"
 7312      436F6D2E 
 7312      6300
 7313              	.LASF19:
 7314 042c 646F7562 		.ascii	"double\000"
ARM GAS  C:\Users\Diego\AppData\Local\Temp\ccj1d66j.s 			page 145


 7314      6C6500
 7315              	.LASF52:
 7316 0433 47657441 		.ascii	"GetAddress\000"
 7316      64647265 
 7316      737300
 7317              	.LASF67:
 7318 043e 52656365 		.ascii	"Receipt\000"
 7318      69707400 
 7319              	.LASF74:
 7320 0446 73696465 		.ascii	"side\000"
 7320      00
 7321              	.LASF42:
 7322 044b 4D455053 		.ascii	"MEPSAN_STATE\000"
 7322      414E5F53 
 7322      54415445 
 7322      00
 7323              	.LASF38:
 7324 0458 4E6F7A7A 		.ascii	"Nozzle\000"
 7324      6C6500
 7325              	.LASF80:
 7326 045f 6372635F 		.ascii	"crc_hi\000"
 7326      686900
 7327              	.LASF91:
 7328 0466 47657441 		.ascii	"GetACK\000"
 7328      434B00
 7329              	.LASF36:
 7330 046d 6D736E5F 		.ascii	"msn_plate\000"
 7330      706C6174 
 7330      6500
 7331              		.ident	"GCC: (GNU Tools for ARM Embedded Processors) 5.4.1 20160609 (release) [ARM/embedded-5-bran
