ARM GAS  C:\Users\Lenovo\AppData\Local\Temp\ccIrCspy.s 			page 1


   1              		.syntax unified
   2              		.cpu cortex-m3
   3              		.fpu softvfp
   4              		.eabi_attribute 20, 1
   5              		.eabi_attribute 21, 1
   6              		.eabi_attribute 23, 3
   7              		.eabi_attribute 24, 1
   8              		.eabi_attribute 25, 1
   9              		.eabi_attribute 26, 1
  10              		.eabi_attribute 30, 6
  11              		.eabi_attribute 34, 1
  12              		.eabi_attribute 18, 4
  13              		.thumb
  14              		.syntax unified
  15              		.file	"PumpCom.c"
  16              		.text
  17              	.Ltext0:
  18              		.cfi_sections	.debug_frame
  19              		.comm	PollCounter,2,2
  20              		.comm	CurrentState,1,1
  21              		.comm	side,1244,4
  22              		.comm	MepsanResponse,50,4
  23              		.comm	MepsanSendTo,50,4
  24              		.comm	PumpAddress,15,4
  25              		.comm	CRC,2,2
  26              		.comm	crc_lo,1,1
  27              		.comm	crc_hi,1,1
  28              		.comm	Positions,1,1
  29              		.comm	dirGbr,1,1
  30              		.section	.text.gen_crc16,"ax",%progbits
  31              		.align	2
  32              		.global	gen_crc16
  33              		.thumb
  34              		.thumb_func
  35              		.type	gen_crc16, %function
  36              	gen_crc16:
  37              	.LFB63:
  38              		.file 1 "PumpCom.c"
   1:PumpCom.c     **** /**
   2:PumpCom.c     ****  * @file PumpCom.c
   3:PumpCom.c     ****  * @author Kugel Electronics
   4:PumpCom.c     ****  * @date 10/04/2018
   5:PumpCom.c     ****  * @brief Comunicación con el dispensador.
   6:PumpCom.c     ****  *
   7:PumpCom.c     ****  * Here typically goes a more extensive explanation of what the header
   8:PumpCom.c     ****  * defines. Doxygens tags are words preceeded by either a backslash @\
   9:PumpCom.c     ****  * or by an at symbol @@.
  10:PumpCom.c     ****  * @see http://www.stack.nl/~dimitri/doxygen/docblocks.html
  11:PumpCom.c     ****  * @see http://www.stack.nl/~dimitri/doxygen/commands.html
  12:PumpCom.c     ****  */
  13:PumpCom.c     **** 
  14:PumpCom.c     **** /* [] END OF FILE */
  15:PumpCom.c     **** 
  16:PumpCom.c     **** #include <GVar.h>
  17:PumpCom.c     **** 
  18:PumpCom.c     **** #define CRC16 0x8005
  19:PumpCom.c     **** 
ARM GAS  C:\Users\Lenovo\AppData\Local\Temp\ccIrCspy.s 			page 2


  20:PumpCom.c     **** uint16_t gen_crc16(const uint8_t *data, uint16_t size)
  21:PumpCom.c     **** {
  39              		.loc 1 21 0
  40              		.cfi_startproc
  41              		@ args = 0, pretend = 0, frame = 32
  42              		@ frame_needed = 1, uses_anonymous_args = 0
  43              		@ link register save eliminated.
  44 0000 80B4     		push	{r7}
  45              		.cfi_def_cfa_offset 4
  46              		.cfi_offset 7, -4
  47 0002 89B0     		sub	sp, sp, #36
  48              		.cfi_def_cfa_offset 40
  49 0004 00AF     		add	r7, sp, #0
  50              		.cfi_def_cfa_register 7
  51 0006 7860     		str	r0, [r7, #4]
  52 0008 0B46     		mov	r3, r1
  53 000a 7B80     		strh	r3, [r7, #2]	@ movhi
  22:PumpCom.c     ****     uint16_t out = 0;
  54              		.loc 1 22 0
  55 000c 0023     		movs	r3, #0
  56 000e FB83     		strh	r3, [r7, #30]	@ movhi
  23:PumpCom.c     ****     int bits_read = 0, bit_flag;
  57              		.loc 1 23 0
  58 0010 0023     		movs	r3, #0
  59 0012 BB61     		str	r3, [r7, #24]
  24:PumpCom.c     **** 
  25:PumpCom.c     ****     /* Sanity check: */
  26:PumpCom.c     ****     if(data == NULL)
  60              		.loc 1 26 0
  61 0014 7B68     		ldr	r3, [r7, #4]
  62 0016 002B     		cmp	r3, #0
  63 0018 2FD1     		bne	.L4
  27:PumpCom.c     ****         return 0;
  64              		.loc 1 27 0
  65 001a 0023     		movs	r3, #0
  66 001c 68E0     		b	.L3
  67              	.L6:
  28:PumpCom.c     **** 
  29:PumpCom.c     ****     while(size > 0)
  30:PumpCom.c     ****     {
  31:PumpCom.c     ****         bit_flag = out >> 15;
  68              		.loc 1 31 0
  69 001e FB8B     		ldrh	r3, [r7, #30]
  70 0020 DB0B     		lsrs	r3, r3, #15
  71 0022 9BB2     		uxth	r3, r3
  72 0024 BB60     		str	r3, [r7, #8]
  32:PumpCom.c     **** 
  33:PumpCom.c     ****         /* Get next bit: */
  34:PumpCom.c     ****         out <<= 1;
  73              		.loc 1 34 0
  74 0026 FB8B     		ldrh	r3, [r7, #30]	@ movhi
  75 0028 5B00     		lsls	r3, r3, #1
  76 002a FB83     		strh	r3, [r7, #30]	@ movhi
  35:PumpCom.c     ****         out |= (*data >> bits_read) & 1; // item a) work from the least significant bits
  77              		.loc 1 35 0
  78 002c 7B68     		ldr	r3, [r7, #4]
  79 002e 1B78     		ldrb	r3, [r3]	@ zero_extendqisi2
ARM GAS  C:\Users\Lenovo\AppData\Local\Temp\ccIrCspy.s 			page 3


  80 0030 1A46     		mov	r2, r3
  81 0032 BB69     		ldr	r3, [r7, #24]
  82 0034 42FA03F3 		asr	r3, r2, r3
  83 0038 1BB2     		sxth	r3, r3
  84 003a 03F00103 		and	r3, r3, #1
  85 003e 1AB2     		sxth	r2, r3
  86 0040 B7F91E30 		ldrsh	r3, [r7, #30]
  87 0044 1343     		orrs	r3, r3, r2
  88 0046 1BB2     		sxth	r3, r3
  89 0048 FB83     		strh	r3, [r7, #30]	@ movhi
  36:PumpCom.c     **** 
  37:PumpCom.c     ****         /* Increment bit counter: */
  38:PumpCom.c     ****         bits_read++;
  90              		.loc 1 38 0
  91 004a BB69     		ldr	r3, [r7, #24]
  92 004c 0133     		adds	r3, r3, #1
  93 004e BB61     		str	r3, [r7, #24]
  39:PumpCom.c     ****         if(bits_read > 7)
  94              		.loc 1 39 0
  95 0050 BB69     		ldr	r3, [r7, #24]
  96 0052 072B     		cmp	r3, #7
  97 0054 07DD     		ble	.L5
  40:PumpCom.c     ****         {
  41:PumpCom.c     ****             bits_read = 0;
  98              		.loc 1 41 0
  99 0056 0023     		movs	r3, #0
 100 0058 BB61     		str	r3, [r7, #24]
  42:PumpCom.c     ****             data++;
 101              		.loc 1 42 0
 102 005a 7B68     		ldr	r3, [r7, #4]
 103 005c 0133     		adds	r3, r3, #1
 104 005e 7B60     		str	r3, [r7, #4]
  43:PumpCom.c     ****             size--;
 105              		.loc 1 43 0
 106 0060 7B88     		ldrh	r3, [r7, #2]
 107 0062 013B     		subs	r3, r3, #1
 108 0064 7B80     		strh	r3, [r7, #2]	@ movhi
 109              	.L5:
  44:PumpCom.c     ****         }
  45:PumpCom.c     **** 
  46:PumpCom.c     ****         /* Cycle check: */
  47:PumpCom.c     ****         if(bit_flag)
 110              		.loc 1 47 0
 111 0066 BB68     		ldr	r3, [r7, #8]
 112 0068 002B     		cmp	r3, #0
 113 006a 06D0     		beq	.L4
  48:PumpCom.c     ****             out ^= CRC16;
 114              		.loc 1 48 0
 115 006c FB8B     		ldrh	r3, [r7, #30]	@ movhi
 116 006e 83F4FF43 		eor	r3, r3, #32640
 117 0072 83F07A03 		eor	r3, r3, #122
 118 0076 DB43     		mvns	r3, r3
 119 0078 FB83     		strh	r3, [r7, #30]	@ movhi
 120              	.L4:
  29:PumpCom.c     ****     {
 121              		.loc 1 29 0
 122 007a 7B88     		ldrh	r3, [r7, #2]
ARM GAS  C:\Users\Lenovo\AppData\Local\Temp\ccIrCspy.s 			page 4


 123 007c 002B     		cmp	r3, #0
 124 007e CED1     		bne	.L6
  49:PumpCom.c     **** 
  50:PumpCom.c     ****     }
  51:PumpCom.c     **** 
  52:PumpCom.c     ****     // item b) "push out" the last 16 bits
  53:PumpCom.c     ****     int i;
  54:PumpCom.c     ****     for (i = 0; i < 16; ++i) {
 125              		.loc 1 54 0
 126 0080 0023     		movs	r3, #0
 127 0082 7B61     		str	r3, [r7, #20]
 128 0084 13E0     		b	.L7
 129              	.L9:
  55:PumpCom.c     ****         bit_flag = out >> 15;
 130              		.loc 1 55 0
 131 0086 FB8B     		ldrh	r3, [r7, #30]
 132 0088 DB0B     		lsrs	r3, r3, #15
 133 008a 9BB2     		uxth	r3, r3
 134 008c BB60     		str	r3, [r7, #8]
  56:PumpCom.c     ****         out <<= 1;
 135              		.loc 1 56 0
 136 008e FB8B     		ldrh	r3, [r7, #30]	@ movhi
 137 0090 5B00     		lsls	r3, r3, #1
 138 0092 FB83     		strh	r3, [r7, #30]	@ movhi
  57:PumpCom.c     ****         if(bit_flag)
 139              		.loc 1 57 0
 140 0094 BB68     		ldr	r3, [r7, #8]
 141 0096 002B     		cmp	r3, #0
 142 0098 06D0     		beq	.L8
  58:PumpCom.c     ****             out ^= CRC16;
 143              		.loc 1 58 0
 144 009a FB8B     		ldrh	r3, [r7, #30]	@ movhi
 145 009c 83F4FF43 		eor	r3, r3, #32640
 146 00a0 83F07A03 		eor	r3, r3, #122
 147 00a4 DB43     		mvns	r3, r3
 148 00a6 FB83     		strh	r3, [r7, #30]	@ movhi
 149              	.L8:
  54:PumpCom.c     ****         bit_flag = out >> 15;
 150              		.loc 1 54 0 discriminator 2
 151 00a8 7B69     		ldr	r3, [r7, #20]
 152 00aa 0133     		adds	r3, r3, #1
 153 00ac 7B61     		str	r3, [r7, #20]
 154              	.L7:
  54:PumpCom.c     ****         bit_flag = out >> 15;
 155              		.loc 1 54 0 is_stmt 0 discriminator 1
 156 00ae 7B69     		ldr	r3, [r7, #20]
 157 00b0 0F2B     		cmp	r3, #15
 158 00b2 E8DD     		ble	.L9
  59:PumpCom.c     ****     }
  60:PumpCom.c     **** 
  61:PumpCom.c     ****     // item c) reverse the bits
  62:PumpCom.c     ****     uint16_t crc = 0;
 159              		.loc 1 62 0 is_stmt 1
 160 00b4 0023     		movs	r3, #0
 161 00b6 7B82     		strh	r3, [r7, #18]	@ movhi
  63:PumpCom.c     ****     i = 0x8000;
 162              		.loc 1 63 0
ARM GAS  C:\Users\Lenovo\AppData\Local\Temp\ccIrCspy.s 			page 5


 163 00b8 4FF40043 		mov	r3, #32768
 164 00bc 7B61     		str	r3, [r7, #20]
  64:PumpCom.c     ****     int j = 0x0001;
 165              		.loc 1 64 0
 166 00be 0123     		movs	r3, #1
 167 00c0 FB60     		str	r3, [r7, #12]
  65:PumpCom.c     ****     for (; i != 0; i >>=1, j <<= 1) {
 168              		.loc 1 65 0
 169 00c2 11E0     		b	.L10
 170              	.L12:
  66:PumpCom.c     ****         if (i & out) crc |= j;
 171              		.loc 1 66 0
 172 00c4 FA8B     		ldrh	r2, [r7, #30]
 173 00c6 7B69     		ldr	r3, [r7, #20]
 174 00c8 1340     		ands	r3, r3, r2
 175 00ca 002B     		cmp	r3, #0
 176 00cc 06D0     		beq	.L11
 177              		.loc 1 66 0 is_stmt 0 discriminator 1
 178 00ce FB68     		ldr	r3, [r7, #12]
 179 00d0 1AB2     		sxth	r2, r3
 180 00d2 B7F91230 		ldrsh	r3, [r7, #18]
 181 00d6 1343     		orrs	r3, r3, r2
 182 00d8 1BB2     		sxth	r3, r3
 183 00da 7B82     		strh	r3, [r7, #18]	@ movhi
 184              	.L11:
  65:PumpCom.c     ****     for (; i != 0; i >>=1, j <<= 1) {
 185              		.loc 1 65 0 is_stmt 1
 186 00dc 7B69     		ldr	r3, [r7, #20]
 187 00de 5B10     		asrs	r3, r3, #1
 188 00e0 7B61     		str	r3, [r7, #20]
 189 00e2 FB68     		ldr	r3, [r7, #12]
 190 00e4 5B00     		lsls	r3, r3, #1
 191 00e6 FB60     		str	r3, [r7, #12]
 192              	.L10:
  65:PumpCom.c     ****     for (; i != 0; i >>=1, j <<= 1) {
 193              		.loc 1 65 0 is_stmt 0 discriminator 1
 194 00e8 7B69     		ldr	r3, [r7, #20]
 195 00ea 002B     		cmp	r3, #0
 196 00ec EAD1     		bne	.L12
  67:PumpCom.c     ****     }
  68:PumpCom.c     **** 
  69:PumpCom.c     ****     return crc;
 197              		.loc 1 69 0 is_stmt 1
 198 00ee 7B8A     		ldrh	r3, [r7, #18]
 199              	.L3:
  70:PumpCom.c     **** }
 200              		.loc 1 70 0
 201 00f0 1846     		mov	r0, r3
 202 00f2 2437     		adds	r7, r7, #36
 203              		.cfi_def_cfa_offset 4
 204 00f4 BD46     		mov	sp, r7
 205              		.cfi_def_cfa_register 13
 206              		@ sp needed
 207 00f6 80BC     		pop	{r7}
 208              		.cfi_restore 7
 209              		.cfi_def_cfa_offset 0
 210 00f8 7047     		bx	lr
ARM GAS  C:\Users\Lenovo\AppData\Local\Temp\ccIrCspy.s 			page 6


 211              		.cfi_endproc
 212              	.LFE63:
 213              		.size	gen_crc16, .-gen_crc16
 214 00fa 00BF     		.section	.text.GetAddress,"ax",%progbits
 215              		.align	2
 216              		.global	GetAddress
 217              		.thumb
 218              		.thumb_func
 219              		.type	GetAddress, %function
 220              	GetAddress:
 221              	.LFB64:
  71:PumpCom.c     **** 
  72:PumpCom.c     **** 
  73:PumpCom.c     **** /*******************************************************************************
  74:PumpCom.c     **** * Function Name: GetAddress
  75:PumpCom.c     **** ********************************************************************************
  76:PumpCom.c     **** *
  77:PumpCom.c     **** *
  78:PumpCom.c     **** *******************************************************************************/
  79:PumpCom.c     **** uint8 GetAddress (uint8 pos){     
 222              		.loc 1 79 0
 223              		.cfi_startproc
 224              		@ args = 0, pretend = 0, frame = 16
 225              		@ frame_needed = 1, uses_anonymous_args = 0
 226 0000 90B5     		push	{r4, r7, lr}
 227              		.cfi_def_cfa_offset 12
 228              		.cfi_offset 4, -12
 229              		.cfi_offset 7, -8
 230              		.cfi_offset 14, -4
 231 0002 85B0     		sub	sp, sp, #20
 232              		.cfi_def_cfa_offset 32
 233 0004 00AF     		add	r7, sp, #0
 234              		.cfi_def_cfa_register 7
 235 0006 0346     		mov	r3, r0
 236 0008 FB71     		strb	r3, [r7, #7]
  80:PumpCom.c     ****     side.a.dir = 0xFF;
 237              		.loc 1 80 0
 238 000a 274B     		ldr	r3, .L18
 239 000c FF22     		movs	r2, #255
 240 000e 1A70     		strb	r2, [r3]
  81:PumpCom.c     ****     side.b.dir = 0xFF;
 241              		.loc 1 81 0
 242 0010 254B     		ldr	r3, .L18
 243 0012 FF22     		movs	r2, #255
 244 0014 83F83721 		strb	r2, [r3, #311]
  82:PumpCom.c     ****     side.c.dir = 0xFF;
 245              		.loc 1 82 0
 246 0018 234B     		ldr	r3, .L18
 247 001a FF22     		movs	r2, #255
 248 001c 83F86E22 		strb	r2, [r3, #622]
  83:PumpCom.c     ****     side.d.dir = 0xFF;
 249              		.loc 1 83 0
 250 0020 214B     		ldr	r3, .L18
 251 0022 FF22     		movs	r2, #255
 252 0024 83F8A523 		strb	r2, [r3, #933]
  84:PumpCom.c     ****     uint8 size;
  85:PumpCom.c     ****     EnablePin_Write (1u);
ARM GAS  C:\Users\Lenovo\AppData\Local\Temp\ccIrCspy.s 			page 7


 253              		.loc 1 85 0
 254 0028 0120     		movs	r0, #1
 255 002a FFF7FEFF 		bl	EnablePin_Write
  86:PumpCom.c     ****     UART_1_PutChar((0x50|pos));
 256              		.loc 1 86 0
 257 002e FB79     		ldrb	r3, [r7, #7]
 258 0030 43F05003 		orr	r3, r3, #80
 259 0034 DBB2     		uxtb	r3, r3
 260 0036 1846     		mov	r0, r3
 261 0038 FFF7FEFF 		bl	UART_1_PutChar
  87:PumpCom.c     ****     UART_1_PutChar(0x20);
 262              		.loc 1 87 0
 263 003c 2020     		movs	r0, #32
 264 003e FFF7FEFF 		bl	UART_1_PutChar
  88:PumpCom.c     ****     UART_1_PutChar(0xFA); 
 265              		.loc 1 88 0
 266 0042 FA20     		movs	r0, #250
 267 0044 FFF7FEFF 		bl	UART_1_PutChar
  89:PumpCom.c     ****     CyDelay(4);
 268              		.loc 1 89 0
 269 0048 0420     		movs	r0, #4
 270 004a FFF7FEFF 		bl	CyDelay
  90:PumpCom.c     ****     EnablePin_Write (0u);
 271              		.loc 1 90 0
 272 004e 0020     		movs	r0, #0
 273 0050 FFF7FEFF 		bl	EnablePin_Write
  91:PumpCom.c     ****     size = UART_1_GetRxBufferSize();
 274              		.loc 1 91 0
 275 0054 FFF7FEFF 		bl	UART_1_GetRxBufferSize
 276 0058 0346     		mov	r3, r0
 277 005a BB73     		strb	r3, [r7, #14]
 278              	.LBB2:
  92:PumpCom.c     ****     for(uint8 MepRx = 0; MepRx < size; MepRx++){
 279              		.loc 1 92 0
 280 005c 0023     		movs	r3, #0
 281 005e FB73     		strb	r3, [r7, #15]
 282 0060 09E0     		b	.L14
 283              	.L15:
  93:PumpCom.c     ****        MepsanResponse[MepRx] = UART_1_ReadRxData();        
 284              		.loc 1 93 0 discriminator 3
 285 0062 FC7B     		ldrb	r4, [r7, #15]	@ zero_extendqisi2
 286 0064 FFF7FEFF 		bl	UART_1_ReadRxData
 287 0068 0346     		mov	r3, r0
 288 006a 1A46     		mov	r2, r3
 289 006c 0F4B     		ldr	r3, .L18+4
 290 006e 1A55     		strb	r2, [r3, r4]
  92:PumpCom.c     ****     for(uint8 MepRx = 0; MepRx < size; MepRx++){
 291              		.loc 1 92 0 discriminator 3
 292 0070 FB7B     		ldrb	r3, [r7, #15]	@ zero_extendqisi2
 293 0072 0133     		adds	r3, r3, #1
 294 0074 FB73     		strb	r3, [r7, #15]
 295              	.L14:
  92:PumpCom.c     ****     for(uint8 MepRx = 0; MepRx < size; MepRx++){
 296              		.loc 1 92 0 is_stmt 0 discriminator 1
 297 0076 FA7B     		ldrb	r2, [r7, #15]	@ zero_extendqisi2
 298 0078 BB7B     		ldrb	r3, [r7, #14]	@ zero_extendqisi2
 299 007a 9A42     		cmp	r2, r3
ARM GAS  C:\Users\Lenovo\AppData\Local\Temp\ccIrCspy.s 			page 8


 300 007c F1D3     		bcc	.L15
 301              	.LBE2:
  94:PumpCom.c     ****     }
  95:PumpCom.c     ****     UART_1_ClearRxBuffer(); 
 302              		.loc 1 95 0 is_stmt 1
 303 007e FFF7FEFF 		bl	UART_1_ClearRxBuffer
  96:PumpCom.c     ****     CyDelay(300); 
 304              		.loc 1 96 0
 305 0082 4FF49670 		mov	r0, #300
 306 0086 FFF7FEFF 		bl	CyDelay
  97:PumpCom.c     ****     if(size>=1){              
 307              		.loc 1 97 0
 308 008a BB7B     		ldrb	r3, [r7, #14]	@ zero_extendqisi2
 309 008c 002B     		cmp	r3, #0
 310 008e 05D0     		beq	.L16
  98:PumpCom.c     ****         return MepsanResponse[0] & 0x0F;
 311              		.loc 1 98 0
 312 0090 064B     		ldr	r3, .L18+4
 313 0092 1B78     		ldrb	r3, [r3]	@ zero_extendqisi2
 314 0094 03F00F03 		and	r3, r3, #15
 315 0098 DBB2     		uxtb	r3, r3
 316 009a 00E0     		b	.L17
 317              	.L16:
  99:PumpCom.c     ****         
 100:PumpCom.c     ****     }else{
 101:PumpCom.c     ****        return 0xFF;
 318              		.loc 1 101 0
 319 009c FF23     		movs	r3, #255
 320              	.L17:
 102:PumpCom.c     ****     }
 103:PumpCom.c     **** }
 321              		.loc 1 103 0
 322 009e 1846     		mov	r0, r3
 323 00a0 1437     		adds	r7, r7, #20
 324              		.cfi_def_cfa_offset 12
 325 00a2 BD46     		mov	sp, r7
 326              		.cfi_def_cfa_register 13
 327              		@ sp needed
 328 00a4 90BD     		pop	{r4, r7, pc}
 329              	.L19:
 330 00a6 00BF     		.align	2
 331              	.L18:
 332 00a8 00000000 		.word	side
 333 00ac 00000000 		.word	MepsanResponse
 334              		.cfi_endproc
 335              	.LFE64:
 336              		.size	GetAddress, .-GetAddress
 337              		.section	.text.Authorize,"ax",%progbits
 338              		.align	2
 339              		.global	Authorize
 340              		.thumb
 341              		.thumb_func
 342              		.type	Authorize, %function
 343              	Authorize:
 344              	.LFB65:
 104:PumpCom.c     **** 
 105:PumpCom.c     **** 
ARM GAS  C:\Users\Lenovo\AppData\Local\Temp\ccIrCspy.s 			page 9


 106:PumpCom.c     **** /*******************************************************************************
 107:PumpCom.c     **** * Function Name: ReturnStatus
 108:PumpCom.c     **** ********************************************************************************
 109:PumpCom.c     **** *
 110:PumpCom.c     **** *
 111:PumpCom.c     **** *******************************************************************************/
 112:PumpCom.c     **** uint8 Authorize(uint8 address){
 345              		.loc 1 112 0
 346              		.cfi_startproc
 347              		@ args = 0, pretend = 0, frame = 16
 348              		@ frame_needed = 1, uses_anonymous_args = 0
 349 0000 80B5     		push	{r7, lr}
 350              		.cfi_def_cfa_offset 8
 351              		.cfi_offset 7, -8
 352              		.cfi_offset 14, -4
 353 0002 84B0     		sub	sp, sp, #16
 354              		.cfi_def_cfa_offset 24
 355 0004 00AF     		add	r7, sp, #0
 356              		.cfi_def_cfa_register 7
 357 0006 0346     		mov	r3, r0
 358 0008 FB71     		strb	r3, [r7, #7]
 359              	.LBB3:
 113:PumpCom.c     ****     uint8 size, status;    
 114:PumpCom.c     ****     for(uint8 x = 0; x < 50; x ++){
 360              		.loc 1 114 0
 361 000a 0023     		movs	r3, #0
 362 000c FB73     		strb	r3, [r7, #15]
 363 000e 06E0     		b	.L21
 364              	.L22:
 115:PumpCom.c     ****         MepsanSendTo[x] = 0x00;
 365              		.loc 1 115 0 discriminator 3
 366 0010 FB7B     		ldrb	r3, [r7, #15]	@ zero_extendqisi2
 367 0012 2E4A     		ldr	r2, .L26
 368 0014 0021     		movs	r1, #0
 369 0016 D154     		strb	r1, [r2, r3]
 114:PumpCom.c     ****         MepsanSendTo[x] = 0x00;
 370              		.loc 1 114 0 discriminator 3
 371 0018 FB7B     		ldrb	r3, [r7, #15]	@ zero_extendqisi2
 372 001a 0133     		adds	r3, r3, #1
 373 001c FB73     		strb	r3, [r7, #15]
 374              	.L21:
 114:PumpCom.c     ****         MepsanSendTo[x] = 0x00;
 375              		.loc 1 114 0 is_stmt 0 discriminator 1
 376 001e FB7B     		ldrb	r3, [r7, #15]	@ zero_extendqisi2
 377 0020 312B     		cmp	r3, #49
 378 0022 F5D9     		bls	.L22
 379              	.LBE3:
 116:PumpCom.c     ****     }
 117:PumpCom.c     ****     EnablePin_Write (1u);
 380              		.loc 1 117 0 is_stmt 1
 381 0024 0120     		movs	r0, #1
 382 0026 FFF7FEFF 		bl	EnablePin_Write
 118:PumpCom.c     ****     MepsanSendTo[0] = (0x50|address);
 383              		.loc 1 118 0
 384 002a FB79     		ldrb	r3, [r7, #7]
 385 002c 43F05003 		orr	r3, r3, #80
 386 0030 DAB2     		uxtb	r2, r3
ARM GAS  C:\Users\Lenovo\AppData\Local\Temp\ccIrCspy.s 			page 10


 387 0032 264B     		ldr	r3, .L26
 388 0034 1A70     		strb	r2, [r3]
 119:PumpCom.c     ****     MepsanSendTo[1] = (0x30);
 389              		.loc 1 119 0
 390 0036 254B     		ldr	r3, .L26
 391 0038 3022     		movs	r2, #48
 392 003a 5A70     		strb	r2, [r3, #1]
 120:PumpCom.c     ****     MepsanSendTo[2] = (0x01);
 393              		.loc 1 120 0
 394 003c 234B     		ldr	r3, .L26
 395 003e 0122     		movs	r2, #1
 396 0040 9A70     		strb	r2, [r3, #2]
 121:PumpCom.c     ****     MepsanSendTo[3] = (0x01);
 397              		.loc 1 121 0
 398 0042 224B     		ldr	r3, .L26
 399 0044 0122     		movs	r2, #1
 400 0046 DA70     		strb	r2, [r3, #3]
 122:PumpCom.c     ****     MepsanSendTo[4] = (MEPSAN_AUTHORIZE);
 401              		.loc 1 122 0
 402 0048 204B     		ldr	r3, .L26
 403 004a 0622     		movs	r2, #6
 404 004c 1A71     		strb	r2, [r3, #4]
 123:PumpCom.c     ****     CRC    = gen_crc16(MepsanSendTo,5);
 405              		.loc 1 123 0
 406 004e 0521     		movs	r1, #5
 407 0050 1E48     		ldr	r0, .L26
 408 0052 FFF7FEFF 		bl	gen_crc16
 409 0056 0346     		mov	r3, r0
 410 0058 1A46     		mov	r2, r3
 411 005a 1D4B     		ldr	r3, .L26+4
 412 005c 1A80     		strh	r2, [r3]	@ movhi
 124:PumpCom.c     ****     crc_hi = (CRC & 0xFF00) >> 8;
 413              		.loc 1 124 0
 414 005e 1C4B     		ldr	r3, .L26+4
 415 0060 1B88     		ldrh	r3, [r3]
 416 0062 1B0A     		lsrs	r3, r3, #8
 417 0064 9BB2     		uxth	r3, r3
 418 0066 DAB2     		uxtb	r2, r3
 419 0068 1A4B     		ldr	r3, .L26+8
 420 006a 1A70     		strb	r2, [r3]
 125:PumpCom.c     ****     crc_lo = (CRC & 0x00FF) ;
 421              		.loc 1 125 0
 422 006c 184B     		ldr	r3, .L26+4
 423 006e 1B88     		ldrh	r3, [r3]
 424 0070 DAB2     		uxtb	r2, r3
 425 0072 194B     		ldr	r3, .L26+12
 426 0074 1A70     		strb	r2, [r3]
 126:PumpCom.c     ****     MepsanSendTo[5] = crc_lo;
 427              		.loc 1 126 0
 428 0076 184B     		ldr	r3, .L26+12
 429 0078 1A78     		ldrb	r2, [r3]	@ zero_extendqisi2
 430 007a 144B     		ldr	r3, .L26
 431 007c 5A71     		strb	r2, [r3, #5]
 127:PumpCom.c     ****     MepsanSendTo[6] = crc_hi;
 432              		.loc 1 127 0
 433 007e 154B     		ldr	r3, .L26+8
 434 0080 1A78     		ldrb	r2, [r3]	@ zero_extendqisi2
ARM GAS  C:\Users\Lenovo\AppData\Local\Temp\ccIrCspy.s 			page 11


 435 0082 124B     		ldr	r3, .L26
 436 0084 9A71     		strb	r2, [r3, #6]
 128:PumpCom.c     ****     MepsanSendTo[7] = 0x03;
 437              		.loc 1 128 0
 438 0086 114B     		ldr	r3, .L26
 439 0088 0322     		movs	r2, #3
 440 008a DA71     		strb	r2, [r3, #7]
 129:PumpCom.c     ****     MepsanSendTo[8] = 0xFA;
 441              		.loc 1 129 0
 442 008c 0F4B     		ldr	r3, .L26
 443 008e FA22     		movs	r2, #250
 444 0090 1A72     		strb	r2, [r3, #8]
 445              	.LBB4:
 130:PumpCom.c     ****     for(uint8 x = 0; x <= 9; x++){    
 446              		.loc 1 130 0
 447 0092 0023     		movs	r3, #0
 448 0094 BB73     		strb	r3, [r7, #14]
 449 0096 08E0     		b	.L23
 450              	.L24:
 131:PumpCom.c     ****         UART_1_PutChar(MepsanSendTo[x]);
 451              		.loc 1 131 0 discriminator 3
 452 0098 BB7B     		ldrb	r3, [r7, #14]	@ zero_extendqisi2
 453 009a 0C4A     		ldr	r2, .L26
 454 009c D35C     		ldrb	r3, [r2, r3]	@ zero_extendqisi2
 455 009e 1846     		mov	r0, r3
 456 00a0 FFF7FEFF 		bl	UART_1_PutChar
 130:PumpCom.c     ****     for(uint8 x = 0; x <= 9; x++){    
 457              		.loc 1 130 0 discriminator 3
 458 00a4 BB7B     		ldrb	r3, [r7, #14]	@ zero_extendqisi2
 459 00a6 0133     		adds	r3, r3, #1
 460 00a8 BB73     		strb	r3, [r7, #14]
 461              	.L23:
 130:PumpCom.c     ****     for(uint8 x = 0; x <= 9; x++){    
 462              		.loc 1 130 0 is_stmt 0 discriminator 1
 463 00aa BB7B     		ldrb	r3, [r7, #14]	@ zero_extendqisi2
 464 00ac 092B     		cmp	r3, #9
 465 00ae F3D9     		bls	.L24
 466              	.LBE4:
 132:PumpCom.c     ****     }
 133:PumpCom.c     ****     CyDelay(4);
 467              		.loc 1 133 0 is_stmt 1
 468 00b0 0420     		movs	r0, #4
 469 00b2 FFF7FEFF 		bl	CyDelay
 134:PumpCom.c     ****     EnablePin_Write (0u);
 470              		.loc 1 134 0
 471 00b6 0020     		movs	r0, #0
 472 00b8 FFF7FEFF 		bl	EnablePin_Write
 135:PumpCom.c     ****     CyDelay(200);
 473              		.loc 1 135 0
 474 00bc C820     		movs	r0, #200
 475 00be FFF7FEFF 		bl	CyDelay
 136:PumpCom.c     ****     return status;
 476              		.loc 1 136 0
 477 00c2 7B7B     		ldrb	r3, [r7, #13]	@ zero_extendqisi2
 137:PumpCom.c     **** }
 478              		.loc 1 137 0
 479 00c4 1846     		mov	r0, r3
ARM GAS  C:\Users\Lenovo\AppData\Local\Temp\ccIrCspy.s 			page 12


 480 00c6 1037     		adds	r7, r7, #16
 481              		.cfi_def_cfa_offset 8
 482 00c8 BD46     		mov	sp, r7
 483              		.cfi_def_cfa_register 13
 484              		@ sp needed
 485 00ca 80BD     		pop	{r7, pc}
 486              	.L27:
 487              		.align	2
 488              	.L26:
 489 00cc 00000000 		.word	MepsanSendTo
 490 00d0 00000000 		.word	CRC
 491 00d4 00000000 		.word	crc_hi
 492 00d8 00000000 		.word	crc_lo
 493              		.cfi_endproc
 494              	.LFE65:
 495              		.size	Authorize, .-Authorize
 496              		.section	.text.ReturnStatus,"ax",%progbits
 497              		.align	2
 498              		.global	ReturnStatus
 499              		.thumb
 500              		.thumb_func
 501              		.type	ReturnStatus, %function
 502              	ReturnStatus:
 503              	.LFB66:
 138:PumpCom.c     **** 
 139:PumpCom.c     **** /*******************************************************************************
 140:PumpCom.c     **** * Function Name: ReturnStatus
 141:PumpCom.c     **** ********************************************************************************
 142:PumpCom.c     **** *
 143:PumpCom.c     **** *
 144:PumpCom.c     **** *******************************************************************************/
 145:PumpCom.c     **** uint8 ReturnStatus(uint8 address){
 504              		.loc 1 145 0
 505              		.cfi_startproc
 506              		@ args = 0, pretend = 0, frame = 16
 507              		@ frame_needed = 1, uses_anonymous_args = 0
 508 0000 90B5     		push	{r4, r7, lr}
 509              		.cfi_def_cfa_offset 12
 510              		.cfi_offset 4, -12
 511              		.cfi_offset 7, -8
 512              		.cfi_offset 14, -4
 513 0002 85B0     		sub	sp, sp, #20
 514              		.cfi_def_cfa_offset 32
 515 0004 00AF     		add	r7, sp, #0
 516              		.cfi_def_cfa_register 7
 517 0006 0346     		mov	r3, r0
 518 0008 FB71     		strb	r3, [r7, #7]
 519              	.LBB5:
 146:PumpCom.c     ****     uint8 size, status;    
 147:PumpCom.c     ****     for(uint8 x = 0; x < 50; x ++){
 520              		.loc 1 147 0
 521 000a 0023     		movs	r3, #0
 522 000c FB73     		strb	r3, [r7, #15]
 523 000e 06E0     		b	.L29
 524              	.L30:
 148:PumpCom.c     ****         MepsanSendTo[x] = 0x00;
 525              		.loc 1 148 0 discriminator 3
ARM GAS  C:\Users\Lenovo\AppData\Local\Temp\ccIrCspy.s 			page 13


 526 0010 FB7B     		ldrb	r3, [r7, #15]	@ zero_extendqisi2
 527 0012 3A4A     		ldr	r2, .L36
 528 0014 0021     		movs	r1, #0
 529 0016 D154     		strb	r1, [r2, r3]
 147:PumpCom.c     ****         MepsanSendTo[x] = 0x00;
 530              		.loc 1 147 0 discriminator 3
 531 0018 FB7B     		ldrb	r3, [r7, #15]	@ zero_extendqisi2
 532 001a 0133     		adds	r3, r3, #1
 533 001c FB73     		strb	r3, [r7, #15]
 534              	.L29:
 147:PumpCom.c     ****         MepsanSendTo[x] = 0x00;
 535              		.loc 1 147 0 is_stmt 0 discriminator 1
 536 001e FB7B     		ldrb	r3, [r7, #15]	@ zero_extendqisi2
 537 0020 312B     		cmp	r3, #49
 538 0022 F5D9     		bls	.L30
 539              	.LBE5:
 149:PumpCom.c     ****     }
 150:PumpCom.c     ****     EnablePin_Write (1u);
 540              		.loc 1 150 0 is_stmt 1
 541 0024 0120     		movs	r0, #1
 542 0026 FFF7FEFF 		bl	EnablePin_Write
 151:PumpCom.c     ****     MepsanSendTo[0] = (0x50|address);
 543              		.loc 1 151 0
 544 002a FB79     		ldrb	r3, [r7, #7]
 545 002c 43F05003 		orr	r3, r3, #80
 546 0030 DAB2     		uxtb	r2, r3
 547 0032 324B     		ldr	r3, .L36
 548 0034 1A70     		strb	r2, [r3]
 152:PumpCom.c     ****     MepsanSendTo[1] = (0x30);
 549              		.loc 1 152 0
 550 0036 314B     		ldr	r3, .L36
 551 0038 3022     		movs	r2, #48
 552 003a 5A70     		strb	r2, [r3, #1]
 153:PumpCom.c     ****     MepsanSendTo[2] = (0x01);
 553              		.loc 1 153 0
 554 003c 2F4B     		ldr	r3, .L36
 555 003e 0122     		movs	r2, #1
 556 0040 9A70     		strb	r2, [r3, #2]
 154:PumpCom.c     ****     MepsanSendTo[3] = (0x01);
 557              		.loc 1 154 0
 558 0042 2E4B     		ldr	r3, .L36
 559 0044 0122     		movs	r2, #1
 560 0046 DA70     		strb	r2, [r3, #3]
 155:PumpCom.c     ****     MepsanSendTo[4] = (MEPSAN_STATE);
 561              		.loc 1 155 0
 562 0048 2C4B     		ldr	r3, .L36
 563 004a 0022     		movs	r2, #0
 564 004c 1A71     		strb	r2, [r3, #4]
 156:PumpCom.c     ****     CRC    = gen_crc16(MepsanSendTo,5);
 565              		.loc 1 156 0
 566 004e 0521     		movs	r1, #5
 567 0050 2A48     		ldr	r0, .L36
 568 0052 FFF7FEFF 		bl	gen_crc16
 569 0056 0346     		mov	r3, r0
 570 0058 1A46     		mov	r2, r3
 571 005a 294B     		ldr	r3, .L36+4
 572 005c 1A80     		strh	r2, [r3]	@ movhi
ARM GAS  C:\Users\Lenovo\AppData\Local\Temp\ccIrCspy.s 			page 14


 157:PumpCom.c     ****     crc_hi = (CRC & 0xFF00) >> 8;
 573              		.loc 1 157 0
 574 005e 284B     		ldr	r3, .L36+4
 575 0060 1B88     		ldrh	r3, [r3]
 576 0062 1B0A     		lsrs	r3, r3, #8
 577 0064 9BB2     		uxth	r3, r3
 578 0066 DAB2     		uxtb	r2, r3
 579 0068 264B     		ldr	r3, .L36+8
 580 006a 1A70     		strb	r2, [r3]
 158:PumpCom.c     ****     crc_lo = (CRC & 0x00FF) ;
 581              		.loc 1 158 0
 582 006c 244B     		ldr	r3, .L36+4
 583 006e 1B88     		ldrh	r3, [r3]
 584 0070 DAB2     		uxtb	r2, r3
 585 0072 254B     		ldr	r3, .L36+12
 586 0074 1A70     		strb	r2, [r3]
 159:PumpCom.c     ****     MepsanSendTo[5] = crc_lo;
 587              		.loc 1 159 0
 588 0076 244B     		ldr	r3, .L36+12
 589 0078 1A78     		ldrb	r2, [r3]	@ zero_extendqisi2
 590 007a 204B     		ldr	r3, .L36
 591 007c 5A71     		strb	r2, [r3, #5]
 160:PumpCom.c     ****     MepsanSendTo[6] = crc_hi;
 592              		.loc 1 160 0
 593 007e 214B     		ldr	r3, .L36+8
 594 0080 1A78     		ldrb	r2, [r3]	@ zero_extendqisi2
 595 0082 1E4B     		ldr	r3, .L36
 596 0084 9A71     		strb	r2, [r3, #6]
 161:PumpCom.c     ****     MepsanSendTo[7] = 0x03;
 597              		.loc 1 161 0
 598 0086 1D4B     		ldr	r3, .L36
 599 0088 0322     		movs	r2, #3
 600 008a DA71     		strb	r2, [r3, #7]
 162:PumpCom.c     ****     MepsanSendTo[8] = 0xFA;
 601              		.loc 1 162 0
 602 008c 1B4B     		ldr	r3, .L36
 603 008e FA22     		movs	r2, #250
 604 0090 1A72     		strb	r2, [r3, #8]
 605              	.LBB6:
 163:PumpCom.c     ****     for(uint8 x = 0; x <= 9; x++){    
 606              		.loc 1 163 0
 607 0092 0023     		movs	r3, #0
 608 0094 BB73     		strb	r3, [r7, #14]
 609 0096 08E0     		b	.L31
 610              	.L32:
 164:PumpCom.c     ****         UART_1_PutChar(MepsanSendTo[x]);
 611              		.loc 1 164 0 discriminator 3
 612 0098 BB7B     		ldrb	r3, [r7, #14]	@ zero_extendqisi2
 613 009a 184A     		ldr	r2, .L36
 614 009c D35C     		ldrb	r3, [r2, r3]	@ zero_extendqisi2
 615 009e 1846     		mov	r0, r3
 616 00a0 FFF7FEFF 		bl	UART_1_PutChar
 163:PumpCom.c     ****     for(uint8 x = 0; x <= 9; x++){    
 617              		.loc 1 163 0 discriminator 3
 618 00a4 BB7B     		ldrb	r3, [r7, #14]	@ zero_extendqisi2
 619 00a6 0133     		adds	r3, r3, #1
 620 00a8 BB73     		strb	r3, [r7, #14]
ARM GAS  C:\Users\Lenovo\AppData\Local\Temp\ccIrCspy.s 			page 15


 621              	.L31:
 163:PumpCom.c     ****     for(uint8 x = 0; x <= 9; x++){    
 622              		.loc 1 163 0 is_stmt 0 discriminator 1
 623 00aa BB7B     		ldrb	r3, [r7, #14]	@ zero_extendqisi2
 624 00ac 092B     		cmp	r3, #9
 625 00ae F3D9     		bls	.L32
 626              	.LBE6:
 165:PumpCom.c     ****     }
 166:PumpCom.c     ****     CyDelay(4);
 627              		.loc 1 166 0 is_stmt 1
 628 00b0 0420     		movs	r0, #4
 629 00b2 FFF7FEFF 		bl	CyDelay
 167:PumpCom.c     ****     EnablePin_Write (0u);
 630              		.loc 1 167 0
 631 00b6 0020     		movs	r0, #0
 632 00b8 FFF7FEFF 		bl	EnablePin_Write
 168:PumpCom.c     ****      size = UART_1_GetRxBufferSize();
 633              		.loc 1 168 0
 634 00bc FFF7FEFF 		bl	UART_1_GetRxBufferSize
 635 00c0 0346     		mov	r3, r0
 636 00c2 3B73     		strb	r3, [r7, #12]
 637              	.LBB7:
 169:PumpCom.c     ****     for(uint8 MepRx = 0; MepRx < size; MepRx++){
 638              		.loc 1 169 0
 639 00c4 0023     		movs	r3, #0
 640 00c6 7B73     		strb	r3, [r7, #13]
 641 00c8 09E0     		b	.L33
 642              	.L34:
 170:PumpCom.c     ****         MepsanResponse[MepRx] = UART_1_ReadRxData();
 643              		.loc 1 170 0 discriminator 3
 644 00ca 7C7B     		ldrb	r4, [r7, #13]	@ zero_extendqisi2
 645 00cc FFF7FEFF 		bl	UART_1_ReadRxData
 646 00d0 0346     		mov	r3, r0
 647 00d2 1A46     		mov	r2, r3
 648 00d4 0D4B     		ldr	r3, .L36+16
 649 00d6 1A55     		strb	r2, [r3, r4]
 169:PumpCom.c     ****     for(uint8 MepRx = 0; MepRx < size; MepRx++){
 650              		.loc 1 169 0 discriminator 3
 651 00d8 7B7B     		ldrb	r3, [r7, #13]	@ zero_extendqisi2
 652 00da 0133     		adds	r3, r3, #1
 653 00dc 7B73     		strb	r3, [r7, #13]
 654              	.L33:
 169:PumpCom.c     ****     for(uint8 MepRx = 0; MepRx < size; MepRx++){
 655              		.loc 1 169 0 is_stmt 0 discriminator 1
 656 00de 7A7B     		ldrb	r2, [r7, #13]	@ zero_extendqisi2
 657 00e0 3B7B     		ldrb	r3, [r7, #12]	@ zero_extendqisi2
 658 00e2 9A42     		cmp	r2, r3
 659 00e4 F1D3     		bcc	.L34
 660              	.LBE7:
 171:PumpCom.c     ****     }       
 172:PumpCom.c     ****     UART_1_ClearRxBuffer();
 661              		.loc 1 172 0 is_stmt 1
 662 00e6 FFF7FEFF 		bl	UART_1_ClearRxBuffer
 173:PumpCom.c     ****     CyDelay(300); 
 663              		.loc 1 173 0
 664 00ea 4FF49670 		mov	r0, #300
 665 00ee FFF7FEFF 		bl	CyDelay
ARM GAS  C:\Users\Lenovo\AppData\Local\Temp\ccIrCspy.s 			page 16


 174:PumpCom.c     ****     return status;
 666              		.loc 1 174 0
 667 00f2 FB7A     		ldrb	r3, [r7, #11]	@ zero_extendqisi2
 175:PumpCom.c     **** }
 668              		.loc 1 175 0
 669 00f4 1846     		mov	r0, r3
 670 00f6 1437     		adds	r7, r7, #20
 671              		.cfi_def_cfa_offset 12
 672 00f8 BD46     		mov	sp, r7
 673              		.cfi_def_cfa_register 13
 674              		@ sp needed
 675 00fa 90BD     		pop	{r4, r7, pc}
 676              	.L37:
 677              		.align	2
 678              	.L36:
 679 00fc 00000000 		.word	MepsanSendTo
 680 0100 00000000 		.word	CRC
 681 0104 00000000 		.word	crc_hi
 682 0108 00000000 		.word	crc_lo
 683 010c 00000000 		.word	MepsanResponse
 684              		.cfi_endproc
 685              	.LFE66:
 686              		.size	ReturnStatus, .-ReturnStatus
 687              		.section	.text.PumpState,"ax",%progbits
 688              		.align	2
 689              		.global	PumpState
 690              		.thumb
 691              		.thumb_func
 692              		.type	PumpState, %function
 693              	PumpState:
 694              	.LFB67:
 176:PumpCom.c     **** 
 177:PumpCom.c     **** /*******************************************************************************
 178:PumpCom.c     **** * Function Name: PumpState
 179:PumpCom.c     **** ********************************************************************************
 180:PumpCom.c     **** *
 181:PumpCom.c     **** *
 182:PumpCom.c     **** *******************************************************************************/
 183:PumpCom.c     **** 
 184:PumpCom.c     **** uint8 PumpState(uint8 address)
 185:PumpCom.c     **** { 
 695              		.loc 1 185 0
 696              		.cfi_startproc
 697              		@ args = 0, pretend = 0, frame = 16
 698              		@ frame_needed = 1, uses_anonymous_args = 0
 699 0000 90B5     		push	{r4, r7, lr}
 700              		.cfi_def_cfa_offset 12
 701              		.cfi_offset 4, -12
 702              		.cfi_offset 7, -8
 703              		.cfi_offset 14, -4
 704 0002 85B0     		sub	sp, sp, #20
 705              		.cfi_def_cfa_offset 32
 706 0004 00AF     		add	r7, sp, #0
 707              		.cfi_def_cfa_register 7
 708 0006 0346     		mov	r3, r0
 709 0008 FB71     		strb	r3, [r7, #7]
 710              	.LBB8:
ARM GAS  C:\Users\Lenovo\AppData\Local\Temp\ccIrCspy.s 			page 17


 186:PumpCom.c     ****     for(uint8 x = 0; x < 50; x ++){
 711              		.loc 1 186 0
 712 000a 0023     		movs	r3, #0
 713 000c FB73     		strb	r3, [r7, #15]
 714 000e 06E0     		b	.L39
 715              	.L40:
 187:PumpCom.c     ****         MepsanResponse[x] = 0x00;
 716              		.loc 1 187 0 discriminator 3
 717 0010 FB7B     		ldrb	r3, [r7, #15]	@ zero_extendqisi2
 718 0012 544A     		ldr	r2, .L57
 719 0014 0021     		movs	r1, #0
 720 0016 D154     		strb	r1, [r2, r3]
 186:PumpCom.c     ****     for(uint8 x = 0; x < 50; x ++){
 721              		.loc 1 186 0 discriminator 3
 722 0018 FB7B     		ldrb	r3, [r7, #15]	@ zero_extendqisi2
 723 001a 0133     		adds	r3, r3, #1
 724 001c FB73     		strb	r3, [r7, #15]
 725              	.L39:
 186:PumpCom.c     ****     for(uint8 x = 0; x < 50; x ++){
 726              		.loc 1 186 0 is_stmt 0 discriminator 1
 727 001e FB7B     		ldrb	r3, [r7, #15]	@ zero_extendqisi2
 728 0020 312B     		cmp	r3, #49
 729 0022 F5D9     		bls	.L40
 730              	.LBE8:
 188:PumpCom.c     ****     }
 189:PumpCom.c     ****     uint8 size;
 190:PumpCom.c     ****     EnablePin_Write (1u);
 731              		.loc 1 190 0 is_stmt 1
 732 0024 0120     		movs	r0, #1
 733 0026 FFF7FEFF 		bl	EnablePin_Write
 191:PumpCom.c     ****     UART_1_PutChar((0x50|address));
 734              		.loc 1 191 0
 735 002a FB79     		ldrb	r3, [r7, #7]
 736 002c 43F05003 		orr	r3, r3, #80
 737 0030 DBB2     		uxtb	r3, r3
 738 0032 1846     		mov	r0, r3
 739 0034 FFF7FEFF 		bl	UART_1_PutChar
 192:PumpCom.c     ****     UART_1_PutChar(0x20);
 740              		.loc 1 192 0
 741 0038 2020     		movs	r0, #32
 742 003a FFF7FEFF 		bl	UART_1_PutChar
 193:PumpCom.c     ****     UART_1_PutChar(0xFA); 
 743              		.loc 1 193 0
 744 003e FA20     		movs	r0, #250
 745 0040 FFF7FEFF 		bl	UART_1_PutChar
 194:PumpCom.c     ****     CyDelay(4);
 746              		.loc 1 194 0
 747 0044 0420     		movs	r0, #4
 748 0046 FFF7FEFF 		bl	CyDelay
 195:PumpCom.c     ****     EnablePin_Write (0u);
 749              		.loc 1 195 0
 750 004a 0020     		movs	r0, #0
 751 004c FFF7FEFF 		bl	EnablePin_Write
 196:PumpCom.c     ****     size = UART_1_GetRxBufferSize();
 752              		.loc 1 196 0
 753 0050 FFF7FEFF 		bl	UART_1_GetRxBufferSize
 754 0054 0346     		mov	r3, r0
ARM GAS  C:\Users\Lenovo\AppData\Local\Temp\ccIrCspy.s 			page 18


 755 0056 7B72     		strb	r3, [r7, #9]
 756              	.LBB9:
 197:PumpCom.c     ****     for(uint8 MepRx = 0; MepRx < size; MepRx++){
 757              		.loc 1 197 0
 758 0058 0023     		movs	r3, #0
 759 005a BB73     		strb	r3, [r7, #14]
 760 005c 09E0     		b	.L41
 761              	.L42:
 198:PumpCom.c     ****         MepsanResponse[MepRx] = UART_1_ReadRxData();
 762              		.loc 1 198 0 discriminator 3
 763 005e BC7B     		ldrb	r4, [r7, #14]	@ zero_extendqisi2
 764 0060 FFF7FEFF 		bl	UART_1_ReadRxData
 765 0064 0346     		mov	r3, r0
 766 0066 1A46     		mov	r2, r3
 767 0068 3E4B     		ldr	r3, .L57
 768 006a 1A55     		strb	r2, [r3, r4]
 197:PumpCom.c     ****     for(uint8 MepRx = 0; MepRx < size; MepRx++){
 769              		.loc 1 197 0 discriminator 3
 770 006c BB7B     		ldrb	r3, [r7, #14]	@ zero_extendqisi2
 771 006e 0133     		adds	r3, r3, #1
 772 0070 BB73     		strb	r3, [r7, #14]
 773              	.L41:
 197:PumpCom.c     ****     for(uint8 MepRx = 0; MepRx < size; MepRx++){
 774              		.loc 1 197 0 is_stmt 0 discriminator 1
 775 0072 BA7B     		ldrb	r2, [r7, #14]	@ zero_extendqisi2
 776 0074 7B7A     		ldrb	r3, [r7, #9]	@ zero_extendqisi2
 777 0076 9A42     		cmp	r2, r3
 778 0078 F1D3     		bcc	.L42
 779              	.LBE9:
 199:PumpCom.c     ****     }
 200:PumpCom.c     ****        
 201:PumpCom.c     ****     UART_1_ClearRxBuffer();
 780              		.loc 1 201 0 is_stmt 1
 781 007a FFF7FEFF 		bl	UART_1_ClearRxBuffer
 202:PumpCom.c     ****     CyDelay(300); 
 782              		.loc 1 202 0
 783 007e 4FF49670 		mov	r0, #300
 784 0082 FFF7FEFF 		bl	CyDelay
 203:PumpCom.c     ****     if(address == side.a.dir){
 785              		.loc 1 203 0
 786 0086 384B     		ldr	r3, .L57+4
 787 0088 1B78     		ldrb	r3, [r3]	@ zero_extendqisi2
 788 008a FA79     		ldrb	r2, [r7, #7]	@ zero_extendqisi2
 789 008c 9A42     		cmp	r2, r3
 790 008e 12D1     		bne	.L43
 791              	.LBB10:
 204:PumpCom.c     ****         for(uint8 MepRx = 0; MepRx < size; MepRx++){
 792              		.loc 1 204 0
 793 0090 0023     		movs	r3, #0
 794 0092 7B73     		strb	r3, [r7, #13]
 795 0094 0BE0     		b	.L44
 796              	.L45:
 205:PumpCom.c     ****             side.a.MepsanStore[MepRx] = MepsanResponse[MepRx];
 797              		.loc 1 205 0 discriminator 3
 798 0096 7B7B     		ldrb	r3, [r7, #13]	@ zero_extendqisi2
 799 0098 7A7B     		ldrb	r2, [r7, #13]	@ zero_extendqisi2
 800 009a 3249     		ldr	r1, .L57
ARM GAS  C:\Users\Lenovo\AppData\Local\Temp\ccIrCspy.s 			page 19


 801 009c 895C     		ldrb	r1, [r1, r2]	@ zero_extendqisi2
 802 009e 324A     		ldr	r2, .L57+4
 803 00a0 1344     		add	r3, r3, r2
 804 00a2 0A46     		mov	r2, r1
 805 00a4 83F80521 		strb	r2, [r3, #261]
 204:PumpCom.c     ****         for(uint8 MepRx = 0; MepRx < size; MepRx++){
 806              		.loc 1 204 0 discriminator 3
 807 00a8 7B7B     		ldrb	r3, [r7, #13]	@ zero_extendqisi2
 808 00aa 0133     		adds	r3, r3, #1
 809 00ac 7B73     		strb	r3, [r7, #13]
 810              	.L44:
 204:PumpCom.c     ****         for(uint8 MepRx = 0; MepRx < size; MepRx++){
 811              		.loc 1 204 0 is_stmt 0 discriminator 1
 812 00ae 7A7B     		ldrb	r2, [r7, #13]	@ zero_extendqisi2
 813 00b0 7B7A     		ldrb	r3, [r7, #9]	@ zero_extendqisi2
 814 00b2 9A42     		cmp	r2, r3
 815 00b4 EFD3     		bcc	.L45
 816              	.L43:
 817              	.LBE10:
 206:PumpCom.c     ****         }
 207:PumpCom.c     ****     }
 208:PumpCom.c     ****     if(address == side.b.dir){
 818              		.loc 1 208 0 is_stmt 1
 819 00b6 2C4B     		ldr	r3, .L57+4
 820 00b8 93F83731 		ldrb	r3, [r3, #311]	@ zero_extendqisi2
 821 00bc FA79     		ldrb	r2, [r7, #7]	@ zero_extendqisi2
 822 00be 9A42     		cmp	r2, r3
 823 00c0 12D1     		bne	.L46
 824              	.LBB11:
 209:PumpCom.c     ****         for(uint8 MepRx = 0; MepRx < size; MepRx++){
 825              		.loc 1 209 0
 826 00c2 0023     		movs	r3, #0
 827 00c4 3B73     		strb	r3, [r7, #12]
 828 00c6 0BE0     		b	.L47
 829              	.L48:
 210:PumpCom.c     ****             side.b.MepsanStore[MepRx] = MepsanResponse[MepRx];
 830              		.loc 1 210 0 discriminator 3
 831 00c8 3B7B     		ldrb	r3, [r7, #12]	@ zero_extendqisi2
 832 00ca 3A7B     		ldrb	r2, [r7, #12]	@ zero_extendqisi2
 833 00cc 2549     		ldr	r1, .L57
 834 00ce 895C     		ldrb	r1, [r1, r2]	@ zero_extendqisi2
 835 00d0 254A     		ldr	r2, .L57+4
 836 00d2 1344     		add	r3, r3, r2
 837 00d4 0A46     		mov	r2, r1
 838 00d6 83F83C22 		strb	r2, [r3, #572]
 209:PumpCom.c     ****         for(uint8 MepRx = 0; MepRx < size; MepRx++){
 839              		.loc 1 209 0 discriminator 3
 840 00da 3B7B     		ldrb	r3, [r7, #12]	@ zero_extendqisi2
 841 00dc 0133     		adds	r3, r3, #1
 842 00de 3B73     		strb	r3, [r7, #12]
 843              	.L47:
 209:PumpCom.c     ****         for(uint8 MepRx = 0; MepRx < size; MepRx++){
 844              		.loc 1 209 0 is_stmt 0 discriminator 1
 845 00e0 3A7B     		ldrb	r2, [r7, #12]	@ zero_extendqisi2
 846 00e2 7B7A     		ldrb	r3, [r7, #9]	@ zero_extendqisi2
 847 00e4 9A42     		cmp	r2, r3
 848 00e6 EFD3     		bcc	.L48
ARM GAS  C:\Users\Lenovo\AppData\Local\Temp\ccIrCspy.s 			page 20


 849              	.L46:
 850              	.LBE11:
 211:PumpCom.c     ****         }
 212:PumpCom.c     ****     }
 213:PumpCom.c     ****     if(address == side.c.dir){
 851              		.loc 1 213 0 is_stmt 1
 852 00e8 1F4B     		ldr	r3, .L57+4
 853 00ea 93F86E32 		ldrb	r3, [r3, #622]	@ zero_extendqisi2
 854 00ee FA79     		ldrb	r2, [r7, #7]	@ zero_extendqisi2
 855 00f0 9A42     		cmp	r2, r3
 856 00f2 12D1     		bne	.L49
 857              	.LBB12:
 214:PumpCom.c     ****         for(uint8 MepRx = 0; MepRx < size; MepRx++){
 858              		.loc 1 214 0
 859 00f4 0023     		movs	r3, #0
 860 00f6 FB72     		strb	r3, [r7, #11]
 861 00f8 0BE0     		b	.L50
 862              	.L51:
 215:PumpCom.c     ****             side.c.MepsanStore[MepRx] = MepsanResponse[MepRx];
 863              		.loc 1 215 0 discriminator 3
 864 00fa FB7A     		ldrb	r3, [r7, #11]	@ zero_extendqisi2
 865 00fc FA7A     		ldrb	r2, [r7, #11]	@ zero_extendqisi2
 866 00fe 1949     		ldr	r1, .L57
 867 0100 895C     		ldrb	r1, [r1, r2]	@ zero_extendqisi2
 868 0102 194A     		ldr	r2, .L57+4
 869 0104 1344     		add	r3, r3, r2
 870 0106 0A46     		mov	r2, r1
 871 0108 83F87323 		strb	r2, [r3, #883]
 214:PumpCom.c     ****         for(uint8 MepRx = 0; MepRx < size; MepRx++){
 872              		.loc 1 214 0 discriminator 3
 873 010c FB7A     		ldrb	r3, [r7, #11]	@ zero_extendqisi2
 874 010e 0133     		adds	r3, r3, #1
 875 0110 FB72     		strb	r3, [r7, #11]
 876              	.L50:
 214:PumpCom.c     ****         for(uint8 MepRx = 0; MepRx < size; MepRx++){
 877              		.loc 1 214 0 is_stmt 0 discriminator 1
 878 0112 FA7A     		ldrb	r2, [r7, #11]	@ zero_extendqisi2
 879 0114 7B7A     		ldrb	r3, [r7, #9]	@ zero_extendqisi2
 880 0116 9A42     		cmp	r2, r3
 881 0118 EFD3     		bcc	.L51
 882              	.L49:
 883              	.LBE12:
 216:PumpCom.c     ****         }
 217:PumpCom.c     ****     }
 218:PumpCom.c     ****     if(address == side.d.dir){
 884              		.loc 1 218 0 is_stmt 1
 885 011a 134B     		ldr	r3, .L57+4
 886 011c 93F8A533 		ldrb	r3, [r3, #933]	@ zero_extendqisi2
 887 0120 FA79     		ldrb	r2, [r7, #7]	@ zero_extendqisi2
 888 0122 9A42     		cmp	r2, r3
 889 0124 12D1     		bne	.L52
 890              	.LBB13:
 219:PumpCom.c     ****         for(uint8 MepRx = 0; MepRx < size; MepRx++){
 891              		.loc 1 219 0
 892 0126 0023     		movs	r3, #0
 893 0128 BB72     		strb	r3, [r7, #10]
 894 012a 0BE0     		b	.L53
ARM GAS  C:\Users\Lenovo\AppData\Local\Temp\ccIrCspy.s 			page 21


 895              	.L54:
 220:PumpCom.c     ****             side.d.MepsanStore[MepRx] = MepsanResponse[MepRx];
 896              		.loc 1 220 0 discriminator 3
 897 012c BB7A     		ldrb	r3, [r7, #10]	@ zero_extendqisi2
 898 012e BA7A     		ldrb	r2, [r7, #10]	@ zero_extendqisi2
 899 0130 0C49     		ldr	r1, .L57
 900 0132 895C     		ldrb	r1, [r1, r2]	@ zero_extendqisi2
 901 0134 0C4A     		ldr	r2, .L57+4
 902 0136 1344     		add	r3, r3, r2
 903 0138 0A46     		mov	r2, r1
 904 013a 83F8AA24 		strb	r2, [r3, #1194]
 219:PumpCom.c     ****         for(uint8 MepRx = 0; MepRx < size; MepRx++){
 905              		.loc 1 219 0 discriminator 3
 906 013e BB7A     		ldrb	r3, [r7, #10]	@ zero_extendqisi2
 907 0140 0133     		adds	r3, r3, #1
 908 0142 BB72     		strb	r3, [r7, #10]
 909              	.L53:
 219:PumpCom.c     ****         for(uint8 MepRx = 0; MepRx < size; MepRx++){
 910              		.loc 1 219 0 is_stmt 0 discriminator 1
 911 0144 BA7A     		ldrb	r2, [r7, #10]	@ zero_extendqisi2
 912 0146 7B7A     		ldrb	r3, [r7, #9]	@ zero_extendqisi2
 913 0148 9A42     		cmp	r2, r3
 914 014a EFD3     		bcc	.L54
 915              	.L52:
 916              	.LBE13:
 221:PumpCom.c     ****         }
 222:PumpCom.c     ****     } 
 223:PumpCom.c     ****     if(size>=1){              
 917              		.loc 1 223 0 is_stmt 1
 918 014c 7B7A     		ldrb	r3, [r7, #9]	@ zero_extendqisi2
 919 014e 002B     		cmp	r3, #0
 920 0150 02D0     		beq	.L55
 224:PumpCom.c     ****         return MepsanResponse[1];
 921              		.loc 1 224 0
 922 0152 044B     		ldr	r3, .L57
 923 0154 5B78     		ldrb	r3, [r3, #1]	@ zero_extendqisi2
 924 0156 00E0     		b	.L56
 925              	.L55:
 225:PumpCom.c     ****     }
 226:PumpCom.c     ****     else{
 227:PumpCom.c     ****        return 0;
 926              		.loc 1 227 0
 927 0158 0023     		movs	r3, #0
 928              	.L56:
 228:PumpCom.c     ****     }
 229:PumpCom.c     ****     
 230:PumpCom.c     **** }
 929              		.loc 1 230 0
 930 015a 1846     		mov	r0, r3
 931 015c 1437     		adds	r7, r7, #20
 932              		.cfi_def_cfa_offset 12
 933 015e BD46     		mov	sp, r7
 934              		.cfi_def_cfa_register 13
 935              		@ sp needed
 936 0160 90BD     		pop	{r4, r7, pc}
 937              	.L58:
 938 0162 00BF     		.align	2
ARM GAS  C:\Users\Lenovo\AppData\Local\Temp\ccIrCspy.s 			page 22


 939              	.L57:
 940 0164 00000000 		.word	MepsanResponse
 941 0168 00000000 		.word	side
 942              		.cfi_endproc
 943              	.LFE67:
 944              		.size	PumpState, .-PumpState
 945              		.section	.text.PriceUpdate,"ax",%progbits
 946              		.align	2
 947              		.global	PriceUpdate
 948              		.thumb
 949              		.thumb_func
 950              		.type	PriceUpdate, %function
 951              	PriceUpdate:
 952              	.LFB68:
 231:PumpCom.c     **** 
 232:PumpCom.c     **** 
 233:PumpCom.c     **** /*******************************************************************************
 234:PumpCom.c     **** * Function Name: PriceUpdate
 235:PumpCom.c     **** ********************************************************************************
 236:PumpCom.c     **** *
 237:PumpCom.c     **** *
 238:PumpCom.c     **** *******************************************************************************/
 239:PumpCom.c     **** 
 240:PumpCom.c     **** uint8 PriceUpdate(uint8 address, uint8 *price)
 241:PumpCom.c     **** { 
 953              		.loc 1 241 0
 954              		.cfi_startproc
 955              		@ args = 0, pretend = 0, frame = 16
 956              		@ frame_needed = 1, uses_anonymous_args = 0
 957 0000 90B5     		push	{r4, r7, lr}
 958              		.cfi_def_cfa_offset 12
 959              		.cfi_offset 4, -12
 960              		.cfi_offset 7, -8
 961              		.cfi_offset 14, -4
 962 0002 85B0     		sub	sp, sp, #20
 963              		.cfi_def_cfa_offset 32
 964 0004 00AF     		add	r7, sp, #0
 965              		.cfi_def_cfa_register 7
 966 0006 0346     		mov	r3, r0
 967 0008 3960     		str	r1, [r7]
 968 000a FB71     		strb	r3, [r7, #7]
 242:PumpCom.c     ****     uint8 size;
 243:PumpCom.c     ****     EnablePin_Write (1u);
 969              		.loc 1 243 0
 970 000c 0120     		movs	r0, #1
 971 000e FFF7FEFF 		bl	EnablePin_Write
 244:PumpCom.c     ****     MepsanSendTo[0] = (0x50|address);
 972              		.loc 1 244 0
 973 0012 FB79     		ldrb	r3, [r7, #7]
 974 0014 43F05003 		orr	r3, r3, #80
 975 0018 DAB2     		uxtb	r2, r3
 976 001a 3A4B     		ldr	r3, .L66
 977 001c 1A70     		strb	r2, [r3]
 245:PumpCom.c     ****     MepsanSendTo[1] = (0x30);
 978              		.loc 1 245 0
 979 001e 394B     		ldr	r3, .L66
 980 0020 3022     		movs	r2, #48
ARM GAS  C:\Users\Lenovo\AppData\Local\Temp\ccIrCspy.s 			page 23


 981 0022 5A70     		strb	r2, [r3, #1]
 246:PumpCom.c     ****     MepsanSendTo[2] = (0x05);
 982              		.loc 1 246 0
 983 0024 374B     		ldr	r3, .L66
 984 0026 0522     		movs	r2, #5
 985 0028 9A70     		strb	r2, [r3, #2]
 247:PumpCom.c     ****     MepsanSendTo[3] = (0x03); //Data bytes in transaction
 986              		.loc 1 247 0
 987 002a 364B     		ldr	r3, .L66
 988 002c 0322     		movs	r2, #3
 989 002e DA70     		strb	r2, [r3, #3]
 248:PumpCom.c     ****     MepsanSendTo[4] = (price[0]);
 990              		.loc 1 248 0
 991 0030 3B68     		ldr	r3, [r7]
 992 0032 1A78     		ldrb	r2, [r3]	@ zero_extendqisi2
 993 0034 334B     		ldr	r3, .L66
 994 0036 1A71     		strb	r2, [r3, #4]
 249:PumpCom.c     ****     MepsanSendTo[5] = (price[1]);
 995              		.loc 1 249 0
 996 0038 3B68     		ldr	r3, [r7]
 997 003a 5A78     		ldrb	r2, [r3, #1]	@ zero_extendqisi2
 998 003c 314B     		ldr	r3, .L66
 999 003e 5A71     		strb	r2, [r3, #5]
 250:PumpCom.c     ****     MepsanSendTo[6] = (price[2]);
 1000              		.loc 1 250 0
 1001 0040 3B68     		ldr	r3, [r7]
 1002 0042 9A78     		ldrb	r2, [r3, #2]	@ zero_extendqisi2
 1003 0044 2F4B     		ldr	r3, .L66
 1004 0046 9A71     		strb	r2, [r3, #6]
 251:PumpCom.c     ****     CRC    = gen_crc16(MepsanSendTo,7);
 1005              		.loc 1 251 0
 1006 0048 0721     		movs	r1, #7
 1007 004a 2E48     		ldr	r0, .L66
 1008 004c FFF7FEFF 		bl	gen_crc16
 1009 0050 0346     		mov	r3, r0
 1010 0052 1A46     		mov	r2, r3
 1011 0054 2C4B     		ldr	r3, .L66+4
 1012 0056 1A80     		strh	r2, [r3]	@ movhi
 252:PumpCom.c     ****     crc_hi = (CRC & 0xFF00) >> 8;
 1013              		.loc 1 252 0
 1014 0058 2B4B     		ldr	r3, .L66+4
 1015 005a 1B88     		ldrh	r3, [r3]
 1016 005c 1B0A     		lsrs	r3, r3, #8
 1017 005e 9BB2     		uxth	r3, r3
 1018 0060 DAB2     		uxtb	r2, r3
 1019 0062 2A4B     		ldr	r3, .L66+8
 1020 0064 1A70     		strb	r2, [r3]
 253:PumpCom.c     ****     crc_lo = (CRC & 0x00FF) ;
 1021              		.loc 1 253 0
 1022 0066 284B     		ldr	r3, .L66+4
 1023 0068 1B88     		ldrh	r3, [r3]
 1024 006a DAB2     		uxtb	r2, r3
 1025 006c 284B     		ldr	r3, .L66+12
 1026 006e 1A70     		strb	r2, [r3]
 254:PumpCom.c     ****     MepsanSendTo[7] = crc_lo;
 1027              		.loc 1 254 0
 1028 0070 274B     		ldr	r3, .L66+12
ARM GAS  C:\Users\Lenovo\AppData\Local\Temp\ccIrCspy.s 			page 24


 1029 0072 1A78     		ldrb	r2, [r3]	@ zero_extendqisi2
 1030 0074 234B     		ldr	r3, .L66
 1031 0076 DA71     		strb	r2, [r3, #7]
 255:PumpCom.c     ****     MepsanSendTo[8] = crc_hi;
 1032              		.loc 1 255 0
 1033 0078 244B     		ldr	r3, .L66+8
 1034 007a 1A78     		ldrb	r2, [r3]	@ zero_extendqisi2
 1035 007c 214B     		ldr	r3, .L66
 1036 007e 1A72     		strb	r2, [r3, #8]
 256:PumpCom.c     ****     MepsanSendTo[9] = 0x03;
 1037              		.loc 1 256 0
 1038 0080 204B     		ldr	r3, .L66
 1039 0082 0322     		movs	r2, #3
 1040 0084 5A72     		strb	r2, [r3, #9]
 257:PumpCom.c     ****     MepsanSendTo[10] = 0xFA; 
 1041              		.loc 1 257 0
 1042 0086 1F4B     		ldr	r3, .L66
 1043 0088 FA22     		movs	r2, #250
 1044 008a 9A72     		strb	r2, [r3, #10]
 1045              	.LBB14:
 258:PumpCom.c     ****     for(uint8 x = 0; x <= 11; x++){    
 1046              		.loc 1 258 0
 1047 008c 0023     		movs	r3, #0
 1048 008e FB73     		strb	r3, [r7, #15]
 1049 0090 08E0     		b	.L60
 1050              	.L61:
 259:PumpCom.c     ****         UART_1_PutChar(MepsanSendTo[x]);
 1051              		.loc 1 259 0 discriminator 3
 1052 0092 FB7B     		ldrb	r3, [r7, #15]	@ zero_extendqisi2
 1053 0094 1B4A     		ldr	r2, .L66
 1054 0096 D35C     		ldrb	r3, [r2, r3]	@ zero_extendqisi2
 1055 0098 1846     		mov	r0, r3
 1056 009a FFF7FEFF 		bl	UART_1_PutChar
 258:PumpCom.c     ****     for(uint8 x = 0; x <= 11; x++){    
 1057              		.loc 1 258 0 discriminator 3
 1058 009e FB7B     		ldrb	r3, [r7, #15]	@ zero_extendqisi2
 1059 00a0 0133     		adds	r3, r3, #1
 1060 00a2 FB73     		strb	r3, [r7, #15]
 1061              	.L60:
 258:PumpCom.c     ****     for(uint8 x = 0; x <= 11; x++){    
 1062              		.loc 1 258 0 is_stmt 0 discriminator 1
 1063 00a4 FB7B     		ldrb	r3, [r7, #15]	@ zero_extendqisi2
 1064 00a6 0B2B     		cmp	r3, #11
 1065 00a8 F3D9     		bls	.L61
 1066              	.LBE14:
 260:PumpCom.c     ****     }
 261:PumpCom.c     ****     CyDelay(4);
 1067              		.loc 1 261 0 is_stmt 1
 1068 00aa 0420     		movs	r0, #4
 1069 00ac FFF7FEFF 		bl	CyDelay
 262:PumpCom.c     ****     EnablePin_Write (0u);
 1070              		.loc 1 262 0
 1071 00b0 0020     		movs	r0, #0
 1072 00b2 FFF7FEFF 		bl	EnablePin_Write
 263:PumpCom.c     ****     size = UART_1_GetRxBufferSize();
 1073              		.loc 1 263 0
 1074 00b6 FFF7FEFF 		bl	UART_1_GetRxBufferSize
ARM GAS  C:\Users\Lenovo\AppData\Local\Temp\ccIrCspy.s 			page 25


 1075 00ba 0346     		mov	r3, r0
 1076 00bc 7B73     		strb	r3, [r7, #13]
 1077              	.LBB15:
 264:PumpCom.c     ****     for(uint8 MepRx = 0; MepRx < size; MepRx++){
 1078              		.loc 1 264 0
 1079 00be 0023     		movs	r3, #0
 1080 00c0 BB73     		strb	r3, [r7, #14]
 1081 00c2 09E0     		b	.L62
 1082              	.L63:
 265:PumpCom.c     ****         MepsanResponse[MepRx] = UART_1_ReadRxData();   
 1083              		.loc 1 265 0 discriminator 3
 1084 00c4 BC7B     		ldrb	r4, [r7, #14]	@ zero_extendqisi2
 1085 00c6 FFF7FEFF 		bl	UART_1_ReadRxData
 1086 00ca 0346     		mov	r3, r0
 1087 00cc 1A46     		mov	r2, r3
 1088 00ce 114B     		ldr	r3, .L66+16
 1089 00d0 1A55     		strb	r2, [r3, r4]
 264:PumpCom.c     ****     for(uint8 MepRx = 0; MepRx < size; MepRx++){
 1090              		.loc 1 264 0 discriminator 3
 1091 00d2 BB7B     		ldrb	r3, [r7, #14]	@ zero_extendqisi2
 1092 00d4 0133     		adds	r3, r3, #1
 1093 00d6 BB73     		strb	r3, [r7, #14]
 1094              	.L62:
 264:PumpCom.c     ****     for(uint8 MepRx = 0; MepRx < size; MepRx++){
 1095              		.loc 1 264 0 is_stmt 0 discriminator 1
 1096 00d8 BA7B     		ldrb	r2, [r7, #14]	@ zero_extendqisi2
 1097 00da 7B7B     		ldrb	r3, [r7, #13]	@ zero_extendqisi2
 1098 00dc 9A42     		cmp	r2, r3
 1099 00de F1D3     		bcc	.L63
 1100              	.LBE15:
 266:PumpCom.c     ****     }
 267:PumpCom.c     ****     UART_1_ClearRxBuffer();
 1101              		.loc 1 267 0 is_stmt 1
 1102 00e0 FFF7FEFF 		bl	UART_1_ClearRxBuffer
 268:PumpCom.c     ****     CyDelay(500);    
 1103              		.loc 1 268 0
 1104 00e4 4FF4FA70 		mov	r0, #500
 1105 00e8 FFF7FEFF 		bl	CyDelay
 269:PumpCom.c     ****     if(size>=1){
 1106              		.loc 1 269 0
 1107 00ec 7B7B     		ldrb	r3, [r7, #13]	@ zero_extendqisi2
 1108 00ee 002B     		cmp	r3, #0
 1109 00f0 02D0     		beq	.L64
 270:PumpCom.c     ****         return  MepsanResponse[1];
 1110              		.loc 1 270 0
 1111 00f2 084B     		ldr	r3, .L66+16
 1112 00f4 5B78     		ldrb	r3, [r3, #1]	@ zero_extendqisi2
 1113 00f6 00E0     		b	.L65
 1114              	.L64:
 271:PumpCom.c     ****     }
 272:PumpCom.c     ****     else{
 273:PumpCom.c     ****        return 0;
 1115              		.loc 1 273 0
 1116 00f8 0023     		movs	r3, #0
 1117              	.L65:
 274:PumpCom.c     ****     }    
 275:PumpCom.c     **** }
ARM GAS  C:\Users\Lenovo\AppData\Local\Temp\ccIrCspy.s 			page 26


 1118              		.loc 1 275 0
 1119 00fa 1846     		mov	r0, r3
 1120 00fc 1437     		adds	r7, r7, #20
 1121              		.cfi_def_cfa_offset 12
 1122 00fe BD46     		mov	sp, r7
 1123              		.cfi_def_cfa_register 13
 1124              		@ sp needed
 1125 0100 90BD     		pop	{r4, r7, pc}
 1126              	.L67:
 1127 0102 00BF     		.align	2
 1128              	.L66:
 1129 0104 00000000 		.word	MepsanSendTo
 1130 0108 00000000 		.word	CRC
 1131 010c 00000000 		.word	crc_hi
 1132 0110 00000000 		.word	crc_lo
 1133 0114 00000000 		.word	MepsanResponse
 1134              		.cfi_endproc
 1135              	.LFE68:
 1136              		.size	PriceUpdate, .-PriceUpdate
 1137              		.section	.text.TotalRequest,"ax",%progbits
 1138              		.align	2
 1139              		.global	TotalRequest
 1140              		.thumb
 1141              		.thumb_func
 1142              		.type	TotalRequest, %function
 1143              	TotalRequest:
 1144              	.LFB69:
 276:PumpCom.c     **** 
 277:PumpCom.c     **** /*******************************************************************************
 278:PumpCom.c     **** * Function Name: TotalRequest
 279:PumpCom.c     **** ********************************************************************************
 280:PumpCom.c     **** *
 281:PumpCom.c     **** *
 282:PumpCom.c     **** *******************************************************************************/
 283:PumpCom.c     **** 
 284:PumpCom.c     **** void TotalRequest(uint8 address, uint8 type, uint8 nozzle)
 285:PumpCom.c     **** { 
 1145              		.loc 1 285 0
 1146              		.cfi_startproc
 1147              		@ args = 0, pretend = 0, frame = 16
 1148              		@ frame_needed = 1, uses_anonymous_args = 0
 1149 0000 80B5     		push	{r7, lr}
 1150              		.cfi_def_cfa_offset 8
 1151              		.cfi_offset 7, -8
 1152              		.cfi_offset 14, -4
 1153 0002 84B0     		sub	sp, sp, #16
 1154              		.cfi_def_cfa_offset 24
 1155 0004 00AF     		add	r7, sp, #0
 1156              		.cfi_def_cfa_register 7
 1157 0006 0346     		mov	r3, r0
 1158 0008 FB71     		strb	r3, [r7, #7]
 1159 000a 0B46     		mov	r3, r1
 1160 000c BB71     		strb	r3, [r7, #6]
 1161 000e 1346     		mov	r3, r2
 1162 0010 7B71     		strb	r3, [r7, #5]
 286:PumpCom.c     ****     uint8 size;
 287:PumpCom.c     ****     uint8 request;
ARM GAS  C:\Users\Lenovo\AppData\Local\Temp\ccIrCspy.s 			page 27


 288:PumpCom.c     ****     request = ((type<<4)&0xF0)|(nozzle);
 1163              		.loc 1 288 0
 1164 0012 BB79     		ldrb	r3, [r7, #6]	@ zero_extendqisi2
 1165 0014 1B01     		lsls	r3, r3, #4
 1166 0016 5AB2     		sxtb	r2, r3
 1167 0018 97F90530 		ldrsb	r3, [r7, #5]
 1168 001c 1343     		orrs	r3, r3, r2
 1169 001e 5BB2     		sxtb	r3, r3
 1170 0020 BB73     		strb	r3, [r7, #14]
 289:PumpCom.c     ****     EnablePin_Write (1u);
 1171              		.loc 1 289 0
 1172 0022 0120     		movs	r0, #1
 1173 0024 FFF7FEFF 		bl	EnablePin_Write
 290:PumpCom.c     ****     MepsanSendTo[0] = (0x50|address);
 1174              		.loc 1 290 0
 1175 0028 FB79     		ldrb	r3, [r7, #7]
 1176 002a 43F05003 		orr	r3, r3, #80
 1177 002e DAB2     		uxtb	r2, r3
 1178 0030 264B     		ldr	r3, .L71
 1179 0032 1A70     		strb	r2, [r3]
 291:PumpCom.c     ****     MepsanSendTo[1] = (0x30);
 1180              		.loc 1 291 0
 1181 0034 254B     		ldr	r3, .L71
 1182 0036 3022     		movs	r2, #48
 1183 0038 5A70     		strb	r2, [r3, #1]
 292:PumpCom.c     ****     MepsanSendTo[2] = (0x65);
 1184              		.loc 1 292 0
 1185 003a 244B     		ldr	r3, .L71
 1186 003c 6522     		movs	r2, #101
 1187 003e 9A70     		strb	r2, [r3, #2]
 293:PumpCom.c     ****     MepsanSendTo[3] = (0x01); //Data bytes in transaction
 1188              		.loc 1 293 0
 1189 0040 224B     		ldr	r3, .L71
 1190 0042 0122     		movs	r2, #1
 1191 0044 DA70     		strb	r2, [r3, #3]
 294:PumpCom.c     ****     MepsanSendTo[4] = (request);
 1192              		.loc 1 294 0
 1193 0046 214A     		ldr	r2, .L71
 1194 0048 BB7B     		ldrb	r3, [r7, #14]
 1195 004a 1371     		strb	r3, [r2, #4]
 295:PumpCom.c     ****     CRC    = gen_crc16(MepsanSendTo,5);
 1196              		.loc 1 295 0
 1197 004c 0521     		movs	r1, #5
 1198 004e 1F48     		ldr	r0, .L71
 1199 0050 FFF7FEFF 		bl	gen_crc16
 1200 0054 0346     		mov	r3, r0
 1201 0056 1A46     		mov	r2, r3
 1202 0058 1D4B     		ldr	r3, .L71+4
 1203 005a 1A80     		strh	r2, [r3]	@ movhi
 296:PumpCom.c     ****     crc_hi = (CRC & 0xFF00) >> 8;
 1204              		.loc 1 296 0
 1205 005c 1C4B     		ldr	r3, .L71+4
 1206 005e 1B88     		ldrh	r3, [r3]
 1207 0060 1B0A     		lsrs	r3, r3, #8
 1208 0062 9BB2     		uxth	r3, r3
 1209 0064 DAB2     		uxtb	r2, r3
 1210 0066 1B4B     		ldr	r3, .L71+8
ARM GAS  C:\Users\Lenovo\AppData\Local\Temp\ccIrCspy.s 			page 28


 1211 0068 1A70     		strb	r2, [r3]
 297:PumpCom.c     ****     crc_lo = (CRC & 0x00FF) ;
 1212              		.loc 1 297 0
 1213 006a 194B     		ldr	r3, .L71+4
 1214 006c 1B88     		ldrh	r3, [r3]
 1215 006e DAB2     		uxtb	r2, r3
 1216 0070 194B     		ldr	r3, .L71+12
 1217 0072 1A70     		strb	r2, [r3]
 298:PumpCom.c     ****     MepsanSendTo[5] = crc_lo;
 1218              		.loc 1 298 0
 1219 0074 184B     		ldr	r3, .L71+12
 1220 0076 1A78     		ldrb	r2, [r3]	@ zero_extendqisi2
 1221 0078 144B     		ldr	r3, .L71
 1222 007a 5A71     		strb	r2, [r3, #5]
 299:PumpCom.c     ****     MepsanSendTo[6] = crc_hi;
 1223              		.loc 1 299 0
 1224 007c 154B     		ldr	r3, .L71+8
 1225 007e 1A78     		ldrb	r2, [r3]	@ zero_extendqisi2
 1226 0080 124B     		ldr	r3, .L71
 1227 0082 9A71     		strb	r2, [r3, #6]
 300:PumpCom.c     ****     MepsanSendTo[7] = 0x03;
 1228              		.loc 1 300 0
 1229 0084 114B     		ldr	r3, .L71
 1230 0086 0322     		movs	r2, #3
 1231 0088 DA71     		strb	r2, [r3, #7]
 301:PumpCom.c     ****     MepsanSendTo[8] = 0xFA; 
 1232              		.loc 1 301 0
 1233 008a 104B     		ldr	r3, .L71
 1234 008c FA22     		movs	r2, #250
 1235 008e 1A72     		strb	r2, [r3, #8]
 1236              	.LBB16:
 302:PumpCom.c     ****     for(uint8 x = 0; x <= 9; x++){    
 1237              		.loc 1 302 0
 1238 0090 0023     		movs	r3, #0
 1239 0092 FB73     		strb	r3, [r7, #15]
 1240 0094 08E0     		b	.L69
 1241              	.L70:
 303:PumpCom.c     ****         UART_1_PutChar(MepsanSendTo[x]);
 1242              		.loc 1 303 0 discriminator 3
 1243 0096 FB7B     		ldrb	r3, [r7, #15]	@ zero_extendqisi2
 1244 0098 0C4A     		ldr	r2, .L71
 1245 009a D35C     		ldrb	r3, [r2, r3]	@ zero_extendqisi2
 1246 009c 1846     		mov	r0, r3
 1247 009e FFF7FEFF 		bl	UART_1_PutChar
 302:PumpCom.c     ****     for(uint8 x = 0; x <= 9; x++){    
 1248              		.loc 1 302 0 discriminator 3
 1249 00a2 FB7B     		ldrb	r3, [r7, #15]	@ zero_extendqisi2
 1250 00a4 0133     		adds	r3, r3, #1
 1251 00a6 FB73     		strb	r3, [r7, #15]
 1252              	.L69:
 302:PumpCom.c     ****     for(uint8 x = 0; x <= 9; x++){    
 1253              		.loc 1 302 0 is_stmt 0 discriminator 1
 1254 00a8 FB7B     		ldrb	r3, [r7, #15]	@ zero_extendqisi2
 1255 00aa 092B     		cmp	r3, #9
 1256 00ac F3D9     		bls	.L70
 1257              	.LBE16:
 304:PumpCom.c     ****     }
ARM GAS  C:\Users\Lenovo\AppData\Local\Temp\ccIrCspy.s 			page 29


 305:PumpCom.c     ****     CyDelay(4);
 1258              		.loc 1 305 0 is_stmt 1
 1259 00ae 0420     		movs	r0, #4
 1260 00b0 FFF7FEFF 		bl	CyDelay
 306:PumpCom.c     ****     EnablePin_Write (0u);  
 1261              		.loc 1 306 0
 1262 00b4 0020     		movs	r0, #0
 1263 00b6 FFF7FEFF 		bl	EnablePin_Write
 307:PumpCom.c     ****     PumpState(address);
 1264              		.loc 1 307 0
 1265 00ba FB79     		ldrb	r3, [r7, #7]	@ zero_extendqisi2
 1266 00bc 1846     		mov	r0, r3
 1267 00be FFF7FEFF 		bl	PumpState
 308:PumpCom.c     **** }
 1268              		.loc 1 308 0
 1269 00c2 00BF     		nop
 1270 00c4 1037     		adds	r7, r7, #16
 1271              		.cfi_def_cfa_offset 8
 1272 00c6 BD46     		mov	sp, r7
 1273              		.cfi_def_cfa_register 13
 1274              		@ sp needed
 1275 00c8 80BD     		pop	{r7, pc}
 1276              	.L72:
 1277 00ca 00BF     		.align	2
 1278              	.L71:
 1279 00cc 00000000 		.word	MepsanSendTo
 1280 00d0 00000000 		.word	CRC
 1281 00d4 00000000 		.word	crc_hi
 1282 00d8 00000000 		.word	crc_lo
 1283              		.cfi_endproc
 1284              	.LFE69:
 1285              		.size	TotalRequest, .-TotalRequest
 1286              		.section	.text.GetTotal,"ax",%progbits
 1287              		.align	2
 1288              		.global	GetTotal
 1289              		.thumb
 1290              		.thumb_func
 1291              		.type	GetTotal, %function
 1292              	GetTotal:
 1293              	.LFB70:
 309:PumpCom.c     **** 
 310:PumpCom.c     **** /*******************************************************************************
 311:PumpCom.c     **** * Function Name: GetTotal
 312:PumpCom.c     **** ********************************************************************************
 313:PumpCom.c     **** *
 314:PumpCom.c     **** *
 315:PumpCom.c     **** *******************************************************************************/
 316:PumpCom.c     **** 
 317:PumpCom.c     **** void GetTotal(void){
 1294              		.loc 1 317 0
 1295              		.cfi_startproc
 1296              		@ args = 0, pretend = 0, frame = 0
 1297              		@ frame_needed = 1, uses_anonymous_args = 0
 1298              		@ link register save eliminated.
 1299 0000 80B4     		push	{r7}
 1300              		.cfi_def_cfa_offset 4
 1301              		.cfi_offset 7, -4
ARM GAS  C:\Users\Lenovo\AppData\Local\Temp\ccIrCspy.s 			page 30


 1302 0002 00AF     		add	r7, sp, #0
 1303              		.cfi_def_cfa_register 7
 318:PumpCom.c     **** //    for(uint8 x = 4; x < MepsanResponse[3] + 4; x++ ){
 319:PumpCom.c     **** //    }
 320:PumpCom.c     **** }
 1304              		.loc 1 320 0
 1305 0004 00BF     		nop
 1306 0006 BD46     		mov	sp, r7
 1307              		.cfi_def_cfa_register 13
 1308              		@ sp needed
 1309 0008 80BC     		pop	{r7}
 1310              		.cfi_restore 7
 1311              		.cfi_def_cfa_offset 0
 1312 000a 7047     		bx	lr
 1313              		.cfi_endproc
 1314              	.LFE70:
 1315              		.size	GetTotal, .-GetTotal
 1316              		.section	.text.GetACK,"ax",%progbits
 1317              		.align	2
 1318              		.global	GetACK
 1319              		.thumb
 1320              		.thumb_func
 1321              		.type	GetACK, %function
 1322              	GetACK:
 1323              	.LFB71:
 321:PumpCom.c     **** /*******************************************************************************
 322:PumpCom.c     **** * Function Name: GetTotal
 323:PumpCom.c     **** ********************************************************************************
 324:PumpCom.c     **** *
 325:PumpCom.c     **** *
 326:PumpCom.c     **** *******************************************************************************/
 327:PumpCom.c     **** 
 328:PumpCom.c     **** void GetACK(){
 1324              		.loc 1 328 0
 1325              		.cfi_startproc
 1326              		@ args = 0, pretend = 0, frame = 8
 1327              		@ frame_needed = 1, uses_anonymous_args = 0
 1328 0000 90B5     		push	{r4, r7, lr}
 1329              		.cfi_def_cfa_offset 12
 1330              		.cfi_offset 4, -12
 1331              		.cfi_offset 7, -8
 1332              		.cfi_offset 14, -4
 1333 0002 83B0     		sub	sp, sp, #12
 1334              		.cfi_def_cfa_offset 24
 1335 0004 00AF     		add	r7, sp, #0
 1336              		.cfi_def_cfa_register 7
 329:PumpCom.c     ****     uint8 size;
 330:PumpCom.c     ****     size = UART_1_GetRxBufferSize();        
 1337              		.loc 1 330 0
 1338 0006 FFF7FEFF 		bl	UART_1_GetRxBufferSize
 1339 000a 0346     		mov	r3, r0
 1340 000c BB71     		strb	r3, [r7, #6]
 1341              	.LBB17:
 331:PumpCom.c     ****     for(uint8 MepRx = 0; MepRx < size; MepRx++){
 1342              		.loc 1 331 0
 1343 000e 0023     		movs	r3, #0
 1344 0010 FB71     		strb	r3, [r7, #7]
ARM GAS  C:\Users\Lenovo\AppData\Local\Temp\ccIrCspy.s 			page 31


 1345 0012 09E0     		b	.L75
 1346              	.L76:
 332:PumpCom.c     ****         MepsanResponse[MepRx] = UART_1_ReadRxData();        
 1347              		.loc 1 332 0 discriminator 3
 1348 0014 FC79     		ldrb	r4, [r7, #7]	@ zero_extendqisi2
 1349 0016 FFF7FEFF 		bl	UART_1_ReadRxData
 1350 001a 0346     		mov	r3, r0
 1351 001c 1A46     		mov	r2, r3
 1352 001e 074B     		ldr	r3, .L77
 1353 0020 1A55     		strb	r2, [r3, r4]
 331:PumpCom.c     ****     for(uint8 MepRx = 0; MepRx < size; MepRx++){
 1354              		.loc 1 331 0 discriminator 3
 1355 0022 FB79     		ldrb	r3, [r7, #7]	@ zero_extendqisi2
 1356 0024 0133     		adds	r3, r3, #1
 1357 0026 FB71     		strb	r3, [r7, #7]
 1358              	.L75:
 331:PumpCom.c     ****     for(uint8 MepRx = 0; MepRx < size; MepRx++){
 1359              		.loc 1 331 0 is_stmt 0 discriminator 1
 1360 0028 FA79     		ldrb	r2, [r7, #7]	@ zero_extendqisi2
 1361 002a BB79     		ldrb	r3, [r7, #6]	@ zero_extendqisi2
 1362 002c 9A42     		cmp	r2, r3
 1363 002e F1D3     		bcc	.L76
 1364              	.LBE17:
 333:PumpCom.c     ****     }    
 334:PumpCom.c     ****     UART_1_ClearRxBuffer();
 1365              		.loc 1 334 0 is_stmt 1
 1366 0030 FFF7FEFF 		bl	UART_1_ClearRxBuffer
 335:PumpCom.c     **** }
 1367              		.loc 1 335 0
 1368 0034 00BF     		nop
 1369 0036 0C37     		adds	r7, r7, #12
 1370              		.cfi_def_cfa_offset 12
 1371 0038 BD46     		mov	sp, r7
 1372              		.cfi_def_cfa_register 13
 1373              		@ sp needed
 1374 003a 90BD     		pop	{r4, r7, pc}
 1375              	.L78:
 1376              		.align	2
 1377              	.L77:
 1378 003c 00000000 		.word	MepsanResponse
 1379              		.cfi_endproc
 1380              	.LFE71:
 1381              		.size	GetACK, .-GetACK
 1382              		.section	.text.ProccessResponse,"ax",%progbits
 1383              		.align	2
 1384              		.global	ProccessResponse
 1385              		.thumb
 1386              		.thumb_func
 1387              		.type	ProccessResponse, %function
 1388              	ProccessResponse:
 1389              	.LFB72:
 336:PumpCom.c     **** 
 337:PumpCom.c     **** void ProccessResponse(uint8 address){
 1390              		.loc 1 337 0
 1391              		.cfi_startproc
 1392              		@ args = 0, pretend = 0, frame = 16
 1393              		@ frame_needed = 1, uses_anonymous_args = 0
ARM GAS  C:\Users\Lenovo\AppData\Local\Temp\ccIrCspy.s 			page 32


 1394 0000 90B5     		push	{r4, r7, lr}
 1395              		.cfi_def_cfa_offset 12
 1396              		.cfi_offset 4, -12
 1397              		.cfi_offset 7, -8
 1398              		.cfi_offset 14, -4
 1399 0002 85B0     		sub	sp, sp, #20
 1400              		.cfi_def_cfa_offset 32
 1401 0004 00AF     		add	r7, sp, #0
 1402              		.cfi_def_cfa_register 7
 1403 0006 0346     		mov	r3, r0
 1404 0008 FB71     		strb	r3, [r7, #7]
 1405              	.LBB18:
 338:PumpCom.c     ****     uint8 ValidateA,ValidateB;            
 339:PumpCom.c     ****     for(uint8 MepRx = 0; MepRx < 20; MepRx++){        
 1406              		.loc 1 339 0
 1407 000a 0023     		movs	r3, #0
 1408 000c FB73     		strb	r3, [r7, #15]
 1409 000e 11E0     		b	.L80
 1410              	.L81:
 340:PumpCom.c     ****         MepsanResponse[MepRx] = UART_1_ReadRxData(); 
 1411              		.loc 1 340 0 discriminator 3
 1412 0010 FC7B     		ldrb	r4, [r7, #15]	@ zero_extendqisi2
 1413 0012 FFF7FEFF 		bl	UART_1_ReadRxData
 1414 0016 0346     		mov	r3, r0
 1415 0018 1A46     		mov	r2, r3
 1416 001a 154B     		ldr	r3, .L85
 1417 001c 1A55     		strb	r2, [r3, r4]
 341:PumpCom.c     ****         ValidateA = (MepsanResponse[1]|0xF0);
 1418              		.loc 1 341 0 discriminator 3
 1419 001e 144B     		ldr	r3, .L85
 1420 0020 5B78     		ldrb	r3, [r3, #1]	@ zero_extendqisi2
 1421 0022 63F00F03 		orn	r3, r3, #15
 1422 0026 BB73     		strb	r3, [r7, #14]
 342:PumpCom.c     ****         ValidateB =  MepsanResponse[2];        
 1423              		.loc 1 342 0 discriminator 3
 1424 0028 114B     		ldr	r3, .L85
 1425 002a 9B78     		ldrb	r3, [r3, #2]
 1426 002c 7B73     		strb	r3, [r7, #13]
 339:PumpCom.c     ****         MepsanResponse[MepRx] = UART_1_ReadRxData(); 
 1427              		.loc 1 339 0 discriminator 3
 1428 002e FB7B     		ldrb	r3, [r7, #15]	@ zero_extendqisi2
 1429 0030 0133     		adds	r3, r3, #1
 1430 0032 FB73     		strb	r3, [r7, #15]
 1431              	.L80:
 339:PumpCom.c     ****         MepsanResponse[MepRx] = UART_1_ReadRxData(); 
 1432              		.loc 1 339 0 is_stmt 0 discriminator 1
 1433 0034 FB7B     		ldrb	r3, [r7, #15]	@ zero_extendqisi2
 1434 0036 132B     		cmp	r3, #19
 1435 0038 EAD9     		bls	.L81
 1436              	.LBE18:
 343:PumpCom.c     ****     } 
 344:PumpCom.c     ****     ValidateA = (MepsanResponse[1]|0xF0);
 1437              		.loc 1 344 0 is_stmt 1
 1438 003a 0D4B     		ldr	r3, .L85
 1439 003c 5B78     		ldrb	r3, [r3, #1]	@ zero_extendqisi2
 1440 003e 63F00F03 		orn	r3, r3, #15
 1441 0042 BB73     		strb	r3, [r7, #14]
ARM GAS  C:\Users\Lenovo\AppData\Local\Temp\ccIrCspy.s 			page 33


 345:PumpCom.c     ****     ValidateB =  MepsanResponse[2];
 1442              		.loc 1 345 0
 1443 0044 0A4B     		ldr	r3, .L85
 1444 0046 9B78     		ldrb	r3, [r3, #2]
 1445 0048 7B73     		strb	r3, [r7, #13]
 346:PumpCom.c     ****     UART_1_ClearRxBuffer();        
 1446              		.loc 1 346 0
 1447 004a FFF7FEFF 		bl	UART_1_ClearRxBuffer
 347:PumpCom.c     ****     if(ValidateA == 0xC0 && ValidateB != 0x65){
 1448              		.loc 1 347 0
 1449 004e BB7B     		ldrb	r3, [r7, #14]	@ zero_extendqisi2
 1450 0050 C02B     		cmp	r3, #192
 1451 0052 04D1     		bne	.L82
 1452              		.loc 1 347 0 is_stmt 0 discriminator 1
 1453 0054 7B7B     		ldrb	r3, [r7, #13]	@ zero_extendqisi2
 1454 0056 652B     		cmp	r3, #101
 1455 0058 01D0     		beq	.L82
 348:PumpCom.c     ****         GetACK();
 1456              		.loc 1 348 0 is_stmt 1
 1457 005a FFF7FEFF 		bl	GetACK
 1458              	.L82:
 349:PumpCom.c     ****     }
 350:PumpCom.c     ****     if(ValidateB == 0x65){
 1459              		.loc 1 350 0
 1460 005e 7B7B     		ldrb	r3, [r7, #13]	@ zero_extendqisi2
 1461 0060 652B     		cmp	r3, #101
 1462 0062 01D1     		bne	.L84
 351:PumpCom.c     ****         GetTotal();
 1463              		.loc 1 351 0
 1464 0064 FFF7FEFF 		bl	GetTotal
 1465              	.L84:
 352:PumpCom.c     ****     }
 353:PumpCom.c     ****     
 354:PumpCom.c     **** }
 1466              		.loc 1 354 0
 1467 0068 00BF     		nop
 1468 006a 1437     		adds	r7, r7, #20
 1469              		.cfi_def_cfa_offset 12
 1470 006c BD46     		mov	sp, r7
 1471              		.cfi_def_cfa_register 13
 1472              		@ sp needed
 1473 006e 90BD     		pop	{r4, r7, pc}
 1474              	.L86:
 1475              		.align	2
 1476              	.L85:
 1477 0070 00000000 		.word	MepsanResponse
 1478              		.cfi_endproc
 1479              	.LFE72:
 1480              		.size	ProccessResponse, .-ProccessResponse
 1481              		.text
 1482              	.Letext0:
 1483              		.file 2 "c:\\program files (x86)\\cypress\\psoc creator\\4.2\\psoc creator\\import\\gnu\\arm\\5.4.
 1484              		.file 3 "c:\\program files (x86)\\cypress\\psoc creator\\4.2\\psoc creator\\import\\gnu\\arm\\5.4.
 1485              		.file 4 "Generated_Source\\PSoC5/cytypes.h"
 1486              		.file 5 "./GVar.h"
 1487              		.file 6 "Generated_Source\\PSoC5/core_cm3.h"
 1488              		.section	.debug_info,"",%progbits
ARM GAS  C:\Users\Lenovo\AppData\Local\Temp\ccIrCspy.s 			page 34


 1489              	.Ldebug_info0:
 1490 0000 55070000 		.4byte	0x755
 1491 0004 0400     		.2byte	0x4
 1492 0006 00000000 		.4byte	.Ldebug_abbrev0
 1493 000a 04       		.byte	0x4
 1494 000b 01       		.uleb128 0x1
 1495 000c 7B000000 		.4byte	.LASF67
 1496 0010 0C       		.byte	0xc
 1497 0011 24030000 		.4byte	.LASF68
 1498 0015 5B030000 		.4byte	.LASF69
 1499 0019 00000000 		.4byte	.Ldebug_ranges0+0
 1500 001d 00000000 		.4byte	0
 1501 0021 00000000 		.4byte	.Ldebug_line0
 1502 0025 02       		.uleb128 0x2
 1503 0026 01       		.byte	0x1
 1504 0027 06       		.byte	0x6
 1505 0028 44010000 		.4byte	.LASF0
 1506 002c 03       		.uleb128 0x3
 1507 002d 9B010000 		.4byte	.LASF3
 1508 0031 02       		.byte	0x2
 1509 0032 1D       		.byte	0x1d
 1510 0033 37000000 		.4byte	0x37
 1511 0037 02       		.uleb128 0x2
 1512 0038 01       		.byte	0x1
 1513 0039 08       		.byte	0x8
 1514 003a DB010000 		.4byte	.LASF1
 1515 003e 02       		.uleb128 0x2
 1516 003f 02       		.byte	0x2
 1517 0040 05       		.byte	0x5
 1518 0041 56000000 		.4byte	.LASF2
 1519 0045 03       		.uleb128 0x3
 1520 0046 13010000 		.4byte	.LASF4
 1521 004a 02       		.byte	0x2
 1522 004b 2B       		.byte	0x2b
 1523 004c 50000000 		.4byte	0x50
 1524 0050 02       		.uleb128 0x2
 1525 0051 02       		.byte	0x2
 1526 0052 07       		.byte	0x7
 1527 0053 4F020000 		.4byte	.LASF5
 1528 0057 03       		.uleb128 0x3
 1529 0058 FA020000 		.4byte	.LASF6
 1530 005c 02       		.byte	0x2
 1531 005d 3F       		.byte	0x3f
 1532 005e 62000000 		.4byte	0x62
 1533 0062 02       		.uleb128 0x2
 1534 0063 04       		.byte	0x4
 1535 0064 05       		.byte	0x5
 1536 0065 78010000 		.4byte	.LASF7
 1537 0069 02       		.uleb128 0x2
 1538 006a 04       		.byte	0x4
 1539 006b 07       		.byte	0x7
 1540 006c AF020000 		.4byte	.LASF8
 1541 0070 02       		.uleb128 0x2
 1542 0071 08       		.byte	0x8
 1543 0072 05       		.byte	0x5
 1544 0073 56010000 		.4byte	.LASF9
 1545 0077 02       		.uleb128 0x2
ARM GAS  C:\Users\Lenovo\AppData\Local\Temp\ccIrCspy.s 			page 35


 1546 0078 08       		.byte	0x8
 1547 0079 07       		.byte	0x7
 1548 007a F3010000 		.4byte	.LASF10
 1549 007e 04       		.uleb128 0x4
 1550 007f 04       		.byte	0x4
 1551 0080 05       		.byte	0x5
 1552 0081 696E7400 		.ascii	"int\000"
 1553 0085 02       		.uleb128 0x2
 1554 0086 04       		.byte	0x4
 1555 0087 07       		.byte	0x7
 1556 0088 0F020000 		.4byte	.LASF11
 1557 008c 03       		.uleb128 0x3
 1558 008d 36010000 		.4byte	.LASF12
 1559 0091 03       		.byte	0x3
 1560 0092 18       		.byte	0x18
 1561 0093 2C000000 		.4byte	0x2c
 1562 0097 03       		.uleb128 0x3
 1563 0098 74020000 		.4byte	.LASF13
 1564 009c 03       		.byte	0x3
 1565 009d 24       		.byte	0x24
 1566 009e 45000000 		.4byte	0x45
 1567 00a2 03       		.uleb128 0x3
 1568 00a3 87020000 		.4byte	.LASF14
 1569 00a7 03       		.byte	0x3
 1570 00a8 2C       		.byte	0x2c
 1571 00a9 57000000 		.4byte	0x57
 1572 00ad 05       		.uleb128 0x5
 1573 00ae 3E010000 		.4byte	.LASF15
 1574 00b2 04       		.byte	0x4
 1575 00b3 E401     		.2byte	0x1e4
 1576 00b5 37000000 		.4byte	0x37
 1577 00b9 05       		.uleb128 0x5
 1578 00ba 28010000 		.4byte	.LASF16
 1579 00be 04       		.byte	0x4
 1580 00bf E501     		.2byte	0x1e5
 1581 00c1 50000000 		.4byte	0x50
 1582 00c5 02       		.uleb128 0x2
 1583 00c6 04       		.byte	0x4
 1584 00c7 04       		.byte	0x4
 1585 00c8 50010000 		.4byte	.LASF17
 1586 00cc 02       		.uleb128 0x2
 1587 00cd 08       		.byte	0x8
 1588 00ce 04       		.byte	0x4
 1589 00cf C1020000 		.4byte	.LASF18
 1590 00d3 02       		.uleb128 0x2
 1591 00d4 01       		.byte	0x1
 1592 00d5 08       		.byte	0x8
 1593 00d6 6F020000 		.4byte	.LASF19
 1594 00da 02       		.uleb128 0x2
 1595 00db 08       		.byte	0x8
 1596 00dc 04       		.byte	0x4
 1597 00dd C3010000 		.4byte	.LASF20
 1598 00e1 02       		.uleb128 0x2
 1599 00e2 04       		.byte	0x4
 1600 00e3 07       		.byte	0x7
 1601 00e4 60000000 		.4byte	.LASF21
 1602 00e8 06       		.uleb128 0x6
ARM GAS  C:\Users\Lenovo\AppData\Local\Temp\ccIrCspy.s 			page 36


 1603 00e9 2E030000 		.4byte	.LASF30
 1604 00ed 3701     		.2byte	0x137
 1605 00ef 05       		.byte	0x5
 1606 00f0 1B       		.byte	0x1b
 1607 00f1 64010000 		.4byte	0x164
 1608 00f5 07       		.uleb128 0x7
 1609 00f6 64697200 		.ascii	"dir\000"
 1610 00fa 05       		.byte	0x5
 1611 00fb 1C       		.byte	0x1c
 1612 00fc AD000000 		.4byte	0xad
 1613 0100 00       		.byte	0
 1614 0101 08       		.uleb128 0x8
 1615 0102 A2020000 		.4byte	.LASF22
 1616 0106 05       		.byte	0x5
 1617 0107 1D       		.byte	0x1d
 1618 0108 64010000 		.4byte	0x164
 1619 010c 01       		.byte	0x1
 1620 010d 08       		.uleb128 0x8
 1621 010e E9010000 		.4byte	.LASF23
 1622 0112 05       		.byte	0x5
 1623 0113 1E       		.byte	0x1e
 1624 0114 80010000 		.4byte	0x180
 1625 0118 B5       		.byte	0xb5
 1626 0119 08       		.uleb128 0x8
 1627 011a 24020000 		.4byte	.LASF24
 1628 011e 05       		.byte	0x5
 1629 011f 1F       		.byte	0x1f
 1630 0120 96010000 		.4byte	0x196
 1631 0124 D5       		.byte	0xd5
 1632 0125 08       		.uleb128 0x8
 1633 0126 90010000 		.4byte	.LASF25
 1634 012a 05       		.byte	0x5
 1635 012b 20       		.byte	0x20
 1636 012c 96010000 		.4byte	0x196
 1637 0130 E3       		.byte	0xe3
 1638 0131 08       		.uleb128 0x8
 1639 0132 1C020000 		.4byte	.LASF26
 1640 0136 05       		.byte	0x5
 1641 0137 21       		.byte	0x21
 1642 0138 96010000 		.4byte	0x196
 1643 013c F1       		.byte	0xf1
 1644 013d 08       		.uleb128 0x8
 1645 013e 43020000 		.4byte	.LASF27
 1646 0142 05       		.byte	0x5
 1647 0143 22       		.byte	0x22
 1648 0144 AD000000 		.4byte	0xad
 1649 0148 FF       		.byte	0xff
 1650 0149 09       		.uleb128 0x9
 1651 014a 64010000 		.4byte	.LASF28
 1652 014e 05       		.byte	0x5
 1653 014f 23       		.byte	0x23
 1654 0150 A6010000 		.4byte	0x1a6
 1655 0154 0001     		.2byte	0x100
 1656 0156 09       		.uleb128 0x9
 1657 0157 0E030000 		.4byte	.LASF29
 1658 015b 05       		.byte	0x5
 1659 015c 24       		.byte	0x24
ARM GAS  C:\Users\Lenovo\AppData\Local\Temp\ccIrCspy.s 			page 37


 1660 015d B6010000 		.4byte	0x1b6
 1661 0161 0501     		.2byte	0x105
 1662 0163 00       		.byte	0
 1663 0164 0A       		.uleb128 0xa
 1664 0165 AD000000 		.4byte	0xad
 1665 0169 80010000 		.4byte	0x180
 1666 016d 0B       		.uleb128 0xb
 1667 016e E1000000 		.4byte	0xe1
 1668 0172 03       		.byte	0x3
 1669 0173 0B       		.uleb128 0xb
 1670 0174 E1000000 		.4byte	0xe1
 1671 0178 02       		.byte	0x2
 1672 0179 0B       		.uleb128 0xb
 1673 017a E1000000 		.4byte	0xe1
 1674 017e 0E       		.byte	0xe
 1675 017f 00       		.byte	0
 1676 0180 0A       		.uleb128 0xa
 1677 0181 AD000000 		.4byte	0xad
 1678 0185 96010000 		.4byte	0x196
 1679 0189 0B       		.uleb128 0xb
 1680 018a E1000000 		.4byte	0xe1
 1681 018e 03       		.byte	0x3
 1682 018f 0B       		.uleb128 0xb
 1683 0190 E1000000 		.4byte	0xe1
 1684 0194 07       		.byte	0x7
 1685 0195 00       		.byte	0
 1686 0196 0A       		.uleb128 0xa
 1687 0197 AD000000 		.4byte	0xad
 1688 019b A6010000 		.4byte	0x1a6
 1689 019f 0B       		.uleb128 0xb
 1690 01a0 E1000000 		.4byte	0xe1
 1691 01a4 0D       		.byte	0xd
 1692 01a5 00       		.byte	0
 1693 01a6 0A       		.uleb128 0xa
 1694 01a7 AD000000 		.4byte	0xad
 1695 01ab B6010000 		.4byte	0x1b6
 1696 01af 0B       		.uleb128 0xb
 1697 01b0 E1000000 		.4byte	0xe1
 1698 01b4 04       		.byte	0x4
 1699 01b5 00       		.byte	0
 1700 01b6 0A       		.uleb128 0xa
 1701 01b7 AD000000 		.4byte	0xad
 1702 01bb C6010000 		.4byte	0x1c6
 1703 01bf 0B       		.uleb128 0xb
 1704 01c0 E1000000 		.4byte	0xe1
 1705 01c4 31       		.byte	0x31
 1706 01c5 00       		.byte	0
 1707 01c6 06       		.uleb128 0x6
 1708 01c7 8F020000 		.4byte	.LASF31
 1709 01cb DC04     		.2byte	0x4dc
 1710 01cd 05       		.byte	0x5
 1711 01ce 28       		.byte	0x28
 1712 01cf FF010000 		.4byte	0x1ff
 1713 01d3 07       		.uleb128 0x7
 1714 01d4 6100     		.ascii	"a\000"
 1715 01d6 05       		.byte	0x5
 1716 01d7 29       		.byte	0x29
ARM GAS  C:\Users\Lenovo\AppData\Local\Temp\ccIrCspy.s 			page 38


 1717 01d8 E8000000 		.4byte	0xe8
 1718 01dc 00       		.byte	0
 1719 01dd 0C       		.uleb128 0xc
 1720 01de 6200     		.ascii	"b\000"
 1721 01e0 05       		.byte	0x5
 1722 01e1 2A       		.byte	0x2a
 1723 01e2 E8000000 		.4byte	0xe8
 1724 01e6 3701     		.2byte	0x137
 1725 01e8 0C       		.uleb128 0xc
 1726 01e9 6300     		.ascii	"c\000"
 1727 01eb 05       		.byte	0x5
 1728 01ec 2B       		.byte	0x2b
 1729 01ed E8000000 		.4byte	0xe8
 1730 01f1 6E02     		.2byte	0x26e
 1731 01f3 0C       		.uleb128 0xc
 1732 01f4 6400     		.ascii	"d\000"
 1733 01f6 05       		.byte	0x5
 1734 01f7 2C       		.byte	0x2c
 1735 01f8 E8000000 		.4byte	0xe8
 1736 01fc A503     		.2byte	0x3a5
 1737 01fe 00       		.byte	0
 1738 01ff 0D       		.uleb128 0xd
 1739 0200 1A000000 		.4byte	.LASF70
 1740 0204 01       		.byte	0x1
 1741 0205 37000000 		.4byte	0x37
 1742 0209 05       		.byte	0x5
 1743 020a 31       		.byte	0x31
 1744 020b 22020000 		.4byte	0x222
 1745 020f 0E       		.uleb128 0xe
 1746 0210 00000000 		.4byte	.LASF32
 1747 0214 00       		.byte	0
 1748 0215 0E       		.uleb128 0xe
 1749 0216 A5010000 		.4byte	.LASF33
 1750 021a 06       		.byte	0x6
 1751 021b 0E       		.uleb128 0xe
 1752 021c 3C000000 		.4byte	.LASF34
 1753 0220 04       		.byte	0x4
 1754 0221 00       		.byte	0
 1755 0222 0F       		.uleb128 0xf
 1756 0223 7D020000 		.4byte	.LASF39
 1757 0227 01       		.byte	0x1
 1758 0228 14       		.byte	0x14
 1759 0229 97000000 		.4byte	0x97
 1760 022d 00000000 		.4byte	.LFB63
 1761 0231 FA000000 		.4byte	.LFE63-.LFB63
 1762 0235 01       		.uleb128 0x1
 1763 0236 9C       		.byte	0x9c
 1764 0237 A8020000 		.4byte	0x2a8
 1765 023b 10       		.uleb128 0x10
 1766 023c 9D020000 		.4byte	.LASF35
 1767 0240 01       		.byte	0x1
 1768 0241 14       		.byte	0x14
 1769 0242 A8020000 		.4byte	0x2a8
 1770 0246 02       		.uleb128 0x2
 1771 0247 91       		.byte	0x91
 1772 0248 5C       		.sleb128 -36
 1773 0249 10       		.uleb128 0x10
ARM GAS  C:\Users\Lenovo\AppData\Local\Temp\ccIrCspy.s 			page 39


 1774 024a E4020000 		.4byte	.LASF36
 1775 024e 01       		.byte	0x1
 1776 024f 14       		.byte	0x14
 1777 0250 97000000 		.4byte	0x97
 1778 0254 02       		.uleb128 0x2
 1779 0255 91       		.byte	0x91
 1780 0256 5A       		.sleb128 -38
 1781 0257 11       		.uleb128 0x11
 1782 0258 6F757400 		.ascii	"out\000"
 1783 025c 01       		.byte	0x1
 1784 025d 16       		.byte	0x16
 1785 025e 97000000 		.4byte	0x97
 1786 0262 02       		.uleb128 0x2
 1787 0263 91       		.byte	0x91
 1788 0264 76       		.sleb128 -10
 1789 0265 12       		.uleb128 0x12
 1790 0266 04030000 		.4byte	.LASF37
 1791 026a 01       		.byte	0x1
 1792 026b 17       		.byte	0x17
 1793 026c 7E000000 		.4byte	0x7e
 1794 0270 02       		.uleb128 0x2
 1795 0271 91       		.byte	0x91
 1796 0272 70       		.sleb128 -16
 1797 0273 12       		.uleb128 0x12
 1798 0274 4D000000 		.4byte	.LASF38
 1799 0278 01       		.byte	0x1
 1800 0279 17       		.byte	0x17
 1801 027a 7E000000 		.4byte	0x7e
 1802 027e 02       		.uleb128 0x2
 1803 027f 91       		.byte	0x91
 1804 0280 60       		.sleb128 -32
 1805 0281 11       		.uleb128 0x11
 1806 0282 6900     		.ascii	"i\000"
 1807 0284 01       		.byte	0x1
 1808 0285 35       		.byte	0x35
 1809 0286 7E000000 		.4byte	0x7e
 1810 028a 02       		.uleb128 0x2
 1811 028b 91       		.byte	0x91
 1812 028c 6C       		.sleb128 -20
 1813 028d 11       		.uleb128 0x11
 1814 028e 63726300 		.ascii	"crc\000"
 1815 0292 01       		.byte	0x1
 1816 0293 3E       		.byte	0x3e
 1817 0294 97000000 		.4byte	0x97
 1818 0298 02       		.uleb128 0x2
 1819 0299 91       		.byte	0x91
 1820 029a 6A       		.sleb128 -22
 1821 029b 11       		.uleb128 0x11
 1822 029c 6A00     		.ascii	"j\000"
 1823 029e 01       		.byte	0x1
 1824 029f 40       		.byte	0x40
 1825 02a0 7E000000 		.4byte	0x7e
 1826 02a4 02       		.uleb128 0x2
 1827 02a5 91       		.byte	0x91
 1828 02a6 64       		.sleb128 -28
 1829 02a7 00       		.byte	0
 1830 02a8 13       		.uleb128 0x13
ARM GAS  C:\Users\Lenovo\AppData\Local\Temp\ccIrCspy.s 			page 40


 1831 02a9 04       		.byte	0x4
 1832 02aa AE020000 		.4byte	0x2ae
 1833 02ae 14       		.uleb128 0x14
 1834 02af 8C000000 		.4byte	0x8c
 1835 02b3 15       		.uleb128 0x15
 1836 02b4 37030000 		.4byte	.LASF40
 1837 02b8 01       		.byte	0x1
 1838 02b9 4F       		.byte	0x4f
 1839 02ba AD000000 		.4byte	0xad
 1840 02be 00000000 		.4byte	.LFB64
 1841 02c2 B0000000 		.4byte	.LFE64-.LFB64
 1842 02c6 01       		.uleb128 0x1
 1843 02c7 9C       		.byte	0x9c
 1844 02c8 01030000 		.4byte	0x301
 1845 02cc 16       		.uleb128 0x16
 1846 02cd 706F7300 		.ascii	"pos\000"
 1847 02d1 01       		.byte	0x1
 1848 02d2 4F       		.byte	0x4f
 1849 02d3 AD000000 		.4byte	0xad
 1850 02d7 02       		.uleb128 0x2
 1851 02d8 91       		.byte	0x91
 1852 02d9 67       		.sleb128 -25
 1853 02da 12       		.uleb128 0x12
 1854 02db E4020000 		.4byte	.LASF36
 1855 02df 01       		.byte	0x1
 1856 02e0 54       		.byte	0x54
 1857 02e1 AD000000 		.4byte	0xad
 1858 02e5 02       		.uleb128 0x2
 1859 02e6 91       		.byte	0x91
 1860 02e7 6E       		.sleb128 -18
 1861 02e8 17       		.uleb128 0x17
 1862 02e9 5C000000 		.4byte	.LBB2
 1863 02ed 22000000 		.4byte	.LBE2-.LBB2
 1864 02f1 12       		.uleb128 0x12
 1865 02f2 69020000 		.4byte	.LASF41
 1866 02f6 01       		.byte	0x1
 1867 02f7 5C       		.byte	0x5c
 1868 02f8 AD000000 		.4byte	0xad
 1869 02fc 02       		.uleb128 0x2
 1870 02fd 91       		.byte	0x91
 1871 02fe 6F       		.sleb128 -17
 1872 02ff 00       		.byte	0
 1873 0300 00       		.byte	0
 1874 0301 15       		.uleb128 0x15
 1875 0302 09010000 		.4byte	.LASF42
 1876 0306 01       		.byte	0x1
 1877 0307 70       		.byte	0x70
 1878 0308 AD000000 		.4byte	0xad
 1879 030c 00000000 		.4byte	.LFB65
 1880 0310 DC000000 		.4byte	.LFE65-.LFB65
 1881 0314 01       		.uleb128 0x1
 1882 0315 9C       		.byte	0x9c
 1883 0316 72030000 		.4byte	0x372
 1884 031a 10       		.uleb128 0x10
 1885 031b 81010000 		.4byte	.LASF43
 1886 031f 01       		.byte	0x1
 1887 0320 70       		.byte	0x70
ARM GAS  C:\Users\Lenovo\AppData\Local\Temp\ccIrCspy.s 			page 41


 1888 0321 AD000000 		.4byte	0xad
 1889 0325 02       		.uleb128 0x2
 1890 0326 91       		.byte	0x91
 1891 0327 6F       		.sleb128 -17
 1892 0328 18       		.uleb128 0x18
 1893 0329 E4020000 		.4byte	.LASF36
 1894 032d 01       		.byte	0x1
 1895 032e 71       		.byte	0x71
 1896 032f AD000000 		.4byte	0xad
 1897 0333 12       		.uleb128 0x12
 1898 0334 62020000 		.4byte	.LASF44
 1899 0338 01       		.byte	0x1
 1900 0339 71       		.byte	0x71
 1901 033a AD000000 		.4byte	0xad
 1902 033e 02       		.uleb128 0x2
 1903 033f 91       		.byte	0x91
 1904 0340 75       		.sleb128 -11
 1905 0341 19       		.uleb128 0x19
 1906 0342 0A000000 		.4byte	.LBB3
 1907 0346 1A000000 		.4byte	.LBE3-.LBB3
 1908 034a 5B030000 		.4byte	0x35b
 1909 034e 11       		.uleb128 0x11
 1910 034f 7800     		.ascii	"x\000"
 1911 0351 01       		.byte	0x1
 1912 0352 72       		.byte	0x72
 1913 0353 AD000000 		.4byte	0xad
 1914 0357 02       		.uleb128 0x2
 1915 0358 91       		.byte	0x91
 1916 0359 77       		.sleb128 -9
 1917 035a 00       		.byte	0
 1918 035b 17       		.uleb128 0x17
 1919 035c 92000000 		.4byte	.LBB4
 1920 0360 1E000000 		.4byte	.LBE4-.LBB4
 1921 0364 11       		.uleb128 0x11
 1922 0365 7800     		.ascii	"x\000"
 1923 0367 01       		.byte	0x1
 1924 0368 82       		.byte	0x82
 1925 0369 AD000000 		.4byte	0xad
 1926 036d 02       		.uleb128 0x2
 1927 036e 91       		.byte	0x91
 1928 036f 76       		.sleb128 -10
 1929 0370 00       		.byte	0
 1930 0371 00       		.byte	0
 1931 0372 15       		.uleb128 0x15
 1932 0373 0D000000 		.4byte	.LASF45
 1933 0377 01       		.byte	0x1
 1934 0378 91       		.byte	0x91
 1935 0379 AD000000 		.4byte	0xad
 1936 037d 00000000 		.4byte	.LFB66
 1937 0381 10010000 		.4byte	.LFE66-.LFB66
 1938 0385 01       		.uleb128 0x1
 1939 0386 9C       		.byte	0x9c
 1940 0387 02040000 		.4byte	0x402
 1941 038b 10       		.uleb128 0x10
 1942 038c 81010000 		.4byte	.LASF43
 1943 0390 01       		.byte	0x1
 1944 0391 91       		.byte	0x91
ARM GAS  C:\Users\Lenovo\AppData\Local\Temp\ccIrCspy.s 			page 42


 1945 0392 AD000000 		.4byte	0xad
 1946 0396 02       		.uleb128 0x2
 1947 0397 91       		.byte	0x91
 1948 0398 67       		.sleb128 -25
 1949 0399 12       		.uleb128 0x12
 1950 039a E4020000 		.4byte	.LASF36
 1951 039e 01       		.byte	0x1
 1952 039f 92       		.byte	0x92
 1953 03a0 AD000000 		.4byte	0xad
 1954 03a4 02       		.uleb128 0x2
 1955 03a5 91       		.byte	0x91
 1956 03a6 6C       		.sleb128 -20
 1957 03a7 12       		.uleb128 0x12
 1958 03a8 62020000 		.4byte	.LASF44
 1959 03ac 01       		.byte	0x1
 1960 03ad 92       		.byte	0x92
 1961 03ae AD000000 		.4byte	0xad
 1962 03b2 02       		.uleb128 0x2
 1963 03b3 91       		.byte	0x91
 1964 03b4 6B       		.sleb128 -21
 1965 03b5 19       		.uleb128 0x19
 1966 03b6 0A000000 		.4byte	.LBB5
 1967 03ba 1A000000 		.4byte	.LBE5-.LBB5
 1968 03be CF030000 		.4byte	0x3cf
 1969 03c2 11       		.uleb128 0x11
 1970 03c3 7800     		.ascii	"x\000"
 1971 03c5 01       		.byte	0x1
 1972 03c6 93       		.byte	0x93
 1973 03c7 AD000000 		.4byte	0xad
 1974 03cb 02       		.uleb128 0x2
 1975 03cc 91       		.byte	0x91
 1976 03cd 6F       		.sleb128 -17
 1977 03ce 00       		.byte	0
 1978 03cf 19       		.uleb128 0x19
 1979 03d0 92000000 		.4byte	.LBB6
 1980 03d4 1E000000 		.4byte	.LBE6-.LBB6
 1981 03d8 E9030000 		.4byte	0x3e9
 1982 03dc 11       		.uleb128 0x11
 1983 03dd 7800     		.ascii	"x\000"
 1984 03df 01       		.byte	0x1
 1985 03e0 A3       		.byte	0xa3
 1986 03e1 AD000000 		.4byte	0xad
 1987 03e5 02       		.uleb128 0x2
 1988 03e6 91       		.byte	0x91
 1989 03e7 6E       		.sleb128 -18
 1990 03e8 00       		.byte	0
 1991 03e9 17       		.uleb128 0x17
 1992 03ea C4000000 		.4byte	.LBB7
 1993 03ee 22000000 		.4byte	.LBE7-.LBB7
 1994 03f2 12       		.uleb128 0x12
 1995 03f3 69020000 		.4byte	.LASF41
 1996 03f7 01       		.byte	0x1
 1997 03f8 A9       		.byte	0xa9
 1998 03f9 AD000000 		.4byte	0xad
 1999 03fd 02       		.uleb128 0x2
 2000 03fe 91       		.byte	0x91
 2001 03ff 6D       		.sleb128 -19
ARM GAS  C:\Users\Lenovo\AppData\Local\Temp\ccIrCspy.s 			page 43


 2002 0400 00       		.byte	0
 2003 0401 00       		.byte	0
 2004 0402 15       		.uleb128 0x15
 2005 0403 1A030000 		.4byte	.LASF46
 2006 0407 01       		.byte	0x1
 2007 0408 B8       		.byte	0xb8
 2008 0409 AD000000 		.4byte	0xad
 2009 040d 00000000 		.4byte	.LFB67
 2010 0411 6C010000 		.4byte	.LFE67-.LFB67
 2011 0415 01       		.uleb128 0x1
 2012 0416 9C       		.byte	0x9c
 2013 0417 DA040000 		.4byte	0x4da
 2014 041b 10       		.uleb128 0x10
 2015 041c 81010000 		.4byte	.LASF43
 2016 0420 01       		.byte	0x1
 2017 0421 B8       		.byte	0xb8
 2018 0422 AD000000 		.4byte	0xad
 2019 0426 02       		.uleb128 0x2
 2020 0427 91       		.byte	0x91
 2021 0428 67       		.sleb128 -25
 2022 0429 12       		.uleb128 0x12
 2023 042a E4020000 		.4byte	.LASF36
 2024 042e 01       		.byte	0x1
 2025 042f BD       		.byte	0xbd
 2026 0430 AD000000 		.4byte	0xad
 2027 0434 02       		.uleb128 0x2
 2028 0435 91       		.byte	0x91
 2029 0436 69       		.sleb128 -23
 2030 0437 19       		.uleb128 0x19
 2031 0438 0A000000 		.4byte	.LBB8
 2032 043c 1A000000 		.4byte	.LBE8-.LBB8
 2033 0440 51040000 		.4byte	0x451
 2034 0444 11       		.uleb128 0x11
 2035 0445 7800     		.ascii	"x\000"
 2036 0447 01       		.byte	0x1
 2037 0448 BA       		.byte	0xba
 2038 0449 AD000000 		.4byte	0xad
 2039 044d 02       		.uleb128 0x2
 2040 044e 91       		.byte	0x91
 2041 044f 6F       		.sleb128 -17
 2042 0450 00       		.byte	0
 2043 0451 19       		.uleb128 0x19
 2044 0452 58000000 		.4byte	.LBB9
 2045 0456 22000000 		.4byte	.LBE9-.LBB9
 2046 045a 6D040000 		.4byte	0x46d
 2047 045e 12       		.uleb128 0x12
 2048 045f 69020000 		.4byte	.LASF41
 2049 0463 01       		.byte	0x1
 2050 0464 C5       		.byte	0xc5
 2051 0465 AD000000 		.4byte	0xad
 2052 0469 02       		.uleb128 0x2
 2053 046a 91       		.byte	0x91
 2054 046b 6E       		.sleb128 -18
 2055 046c 00       		.byte	0
 2056 046d 19       		.uleb128 0x19
 2057 046e 90000000 		.4byte	.LBB10
 2058 0472 26000000 		.4byte	.LBE10-.LBB10
ARM GAS  C:\Users\Lenovo\AppData\Local\Temp\ccIrCspy.s 			page 44


 2059 0476 89040000 		.4byte	0x489
 2060 047a 12       		.uleb128 0x12
 2061 047b 69020000 		.4byte	.LASF41
 2062 047f 01       		.byte	0x1
 2063 0480 CC       		.byte	0xcc
 2064 0481 AD000000 		.4byte	0xad
 2065 0485 02       		.uleb128 0x2
 2066 0486 91       		.byte	0x91
 2067 0487 6D       		.sleb128 -19
 2068 0488 00       		.byte	0
 2069 0489 19       		.uleb128 0x19
 2070 048a C2000000 		.4byte	.LBB11
 2071 048e 26000000 		.4byte	.LBE11-.LBB11
 2072 0492 A5040000 		.4byte	0x4a5
 2073 0496 12       		.uleb128 0x12
 2074 0497 69020000 		.4byte	.LASF41
 2075 049b 01       		.byte	0x1
 2076 049c D1       		.byte	0xd1
 2077 049d AD000000 		.4byte	0xad
 2078 04a1 02       		.uleb128 0x2
 2079 04a2 91       		.byte	0x91
 2080 04a3 6C       		.sleb128 -20
 2081 04a4 00       		.byte	0
 2082 04a5 19       		.uleb128 0x19
 2083 04a6 F4000000 		.4byte	.LBB12
 2084 04aa 26000000 		.4byte	.LBE12-.LBB12
 2085 04ae C1040000 		.4byte	0x4c1
 2086 04b2 12       		.uleb128 0x12
 2087 04b3 69020000 		.4byte	.LASF41
 2088 04b7 01       		.byte	0x1
 2089 04b8 D6       		.byte	0xd6
 2090 04b9 AD000000 		.4byte	0xad
 2091 04bd 02       		.uleb128 0x2
 2092 04be 91       		.byte	0x91
 2093 04bf 6B       		.sleb128 -21
 2094 04c0 00       		.byte	0
 2095 04c1 17       		.uleb128 0x17
 2096 04c2 26010000 		.4byte	.LBB13
 2097 04c6 26000000 		.4byte	.LBE13-.LBB13
 2098 04ca 12       		.uleb128 0x12
 2099 04cb 69020000 		.4byte	.LASF41
 2100 04cf 01       		.byte	0x1
 2101 04d0 DB       		.byte	0xdb
 2102 04d1 AD000000 		.4byte	0xad
 2103 04d5 02       		.uleb128 0x2
 2104 04d6 91       		.byte	0x91
 2105 04d7 6A       		.sleb128 -22
 2106 04d8 00       		.byte	0
 2107 04d9 00       		.byte	0
 2108 04da 15       		.uleb128 0x15
 2109 04db 29000000 		.4byte	.LASF47
 2110 04df 01       		.byte	0x1
 2111 04e0 F0       		.byte	0xf0
 2112 04e1 AD000000 		.4byte	0xad
 2113 04e5 00000000 		.4byte	.LFB68
 2114 04e9 18010000 		.4byte	.LFE68-.LFB68
 2115 04ed 01       		.uleb128 0x1
ARM GAS  C:\Users\Lenovo\AppData\Local\Temp\ccIrCspy.s 			page 45


 2116 04ee 9C       		.byte	0x9c
 2117 04ef 52050000 		.4byte	0x552
 2118 04f3 10       		.uleb128 0x10
 2119 04f4 81010000 		.4byte	.LASF43
 2120 04f8 01       		.byte	0x1
 2121 04f9 F0       		.byte	0xf0
 2122 04fa AD000000 		.4byte	0xad
 2123 04fe 02       		.uleb128 0x2
 2124 04ff 91       		.byte	0x91
 2125 0500 67       		.sleb128 -25
 2126 0501 10       		.uleb128 0x10
 2127 0502 75000000 		.4byte	.LASF48
 2128 0506 01       		.byte	0x1
 2129 0507 F0       		.byte	0xf0
 2130 0508 52050000 		.4byte	0x552
 2131 050c 02       		.uleb128 0x2
 2132 050d 91       		.byte	0x91
 2133 050e 60       		.sleb128 -32
 2134 050f 12       		.uleb128 0x12
 2135 0510 E4020000 		.4byte	.LASF36
 2136 0514 01       		.byte	0x1
 2137 0515 F2       		.byte	0xf2
 2138 0516 AD000000 		.4byte	0xad
 2139 051a 02       		.uleb128 0x2
 2140 051b 91       		.byte	0x91
 2141 051c 6D       		.sleb128 -19
 2142 051d 19       		.uleb128 0x19
 2143 051e 8C000000 		.4byte	.LBB14
 2144 0522 1E000000 		.4byte	.LBE14-.LBB14
 2145 0526 38050000 		.4byte	0x538
 2146 052a 1A       		.uleb128 0x1a
 2147 052b 7800     		.ascii	"x\000"
 2148 052d 01       		.byte	0x1
 2149 052e 0201     		.2byte	0x102
 2150 0530 AD000000 		.4byte	0xad
 2151 0534 02       		.uleb128 0x2
 2152 0535 91       		.byte	0x91
 2153 0536 6F       		.sleb128 -17
 2154 0537 00       		.byte	0
 2155 0538 17       		.uleb128 0x17
 2156 0539 BE000000 		.4byte	.LBB15
 2157 053d 22000000 		.4byte	.LBE15-.LBB15
 2158 0541 1B       		.uleb128 0x1b
 2159 0542 69020000 		.4byte	.LASF41
 2160 0546 01       		.byte	0x1
 2161 0547 0801     		.2byte	0x108
 2162 0549 AD000000 		.4byte	0xad
 2163 054d 02       		.uleb128 0x2
 2164 054e 91       		.byte	0x91
 2165 054f 6E       		.sleb128 -18
 2166 0550 00       		.byte	0
 2167 0551 00       		.byte	0
 2168 0552 13       		.uleb128 0x13
 2169 0553 04       		.byte	0x4
 2170 0554 AD000000 		.4byte	0xad
 2171 0558 1C       		.uleb128 0x1c
 2172 0559 6B010000 		.4byte	.LASF52
ARM GAS  C:\Users\Lenovo\AppData\Local\Temp\ccIrCspy.s 			page 46


 2173 055d 01       		.byte	0x1
 2174 055e 1C01     		.2byte	0x11c
 2175 0560 00000000 		.4byte	.LFB69
 2176 0564 DC000000 		.4byte	.LFE69-.LFB69
 2177 0568 01       		.uleb128 0x1
 2178 0569 9C       		.byte	0x9c
 2179 056a CE050000 		.4byte	0x5ce
 2180 056e 1D       		.uleb128 0x1d
 2181 056f 81010000 		.4byte	.LASF43
 2182 0573 01       		.byte	0x1
 2183 0574 1C01     		.2byte	0x11c
 2184 0576 AD000000 		.4byte	0xad
 2185 057a 02       		.uleb128 0x2
 2186 057b 91       		.byte	0x91
 2187 057c 6F       		.sleb128 -17
 2188 057d 1D       		.uleb128 0x1d
 2189 057e 0A020000 		.4byte	.LASF49
 2190 0582 01       		.byte	0x1
 2191 0583 1C01     		.2byte	0x11c
 2192 0585 AD000000 		.4byte	0xad
 2193 0589 02       		.uleb128 0x2
 2194 058a 91       		.byte	0x91
 2195 058b 6E       		.sleb128 -18
 2196 058c 1D       		.uleb128 0x1d
 2197 058d 2F010000 		.4byte	.LASF50
 2198 0591 01       		.byte	0x1
 2199 0592 1C01     		.2byte	0x11c
 2200 0594 AD000000 		.4byte	0xad
 2201 0598 02       		.uleb128 0x2
 2202 0599 91       		.byte	0x91
 2203 059a 6D       		.sleb128 -19
 2204 059b 1E       		.uleb128 0x1e
 2205 059c E4020000 		.4byte	.LASF36
 2206 05a0 01       		.byte	0x1
 2207 05a1 1E01     		.2byte	0x11e
 2208 05a3 AD000000 		.4byte	0xad
 2209 05a7 1B       		.uleb128 0x1b
 2210 05a8 3B020000 		.4byte	.LASF51
 2211 05ac 01       		.byte	0x1
 2212 05ad 1F01     		.2byte	0x11f
 2213 05af AD000000 		.4byte	0xad
 2214 05b3 02       		.uleb128 0x2
 2215 05b4 91       		.byte	0x91
 2216 05b5 76       		.sleb128 -10
 2217 05b6 17       		.uleb128 0x17
 2218 05b7 90000000 		.4byte	.LBB16
 2219 05bb 1E000000 		.4byte	.LBE16-.LBB16
 2220 05bf 1A       		.uleb128 0x1a
 2221 05c0 7800     		.ascii	"x\000"
 2222 05c2 01       		.byte	0x1
 2223 05c3 2E01     		.2byte	0x12e
 2224 05c5 AD000000 		.4byte	0xad
 2225 05c9 02       		.uleb128 0x2
 2226 05ca 91       		.byte	0x91
 2227 05cb 77       		.sleb128 -9
 2228 05cc 00       		.byte	0
 2229 05cd 00       		.byte	0
ARM GAS  C:\Users\Lenovo\AppData\Local\Temp\ccIrCspy.s 			page 47


 2230 05ce 1F       		.uleb128 0x1f
 2231 05cf 94020000 		.4byte	.LASF71
 2232 05d3 01       		.byte	0x1
 2233 05d4 3D01     		.2byte	0x13d
 2234 05d6 00000000 		.4byte	.LFB70
 2235 05da 0C000000 		.4byte	.LFE70-.LFB70
 2236 05de 01       		.uleb128 0x1
 2237 05df 9C       		.byte	0x9c
 2238 05e0 20       		.uleb128 0x20
 2239 05e1 97030000 		.4byte	.LASF72
 2240 05e5 01       		.byte	0x1
 2241 05e6 4801     		.2byte	0x148
 2242 05e8 00000000 		.4byte	.LFB71
 2243 05ec 40000000 		.4byte	.LFE71-.LFB71
 2244 05f0 01       		.uleb128 0x1
 2245 05f1 9C       		.byte	0x9c
 2246 05f2 1F060000 		.4byte	0x61f
 2247 05f6 1B       		.uleb128 0x1b
 2248 05f7 E4020000 		.4byte	.LASF36
 2249 05fb 01       		.byte	0x1
 2250 05fc 4901     		.2byte	0x149
 2251 05fe AD000000 		.4byte	0xad
 2252 0602 02       		.uleb128 0x2
 2253 0603 91       		.byte	0x91
 2254 0604 6E       		.sleb128 -18
 2255 0605 17       		.uleb128 0x17
 2256 0606 0E000000 		.4byte	.LBB17
 2257 060a 22000000 		.4byte	.LBE17-.LBB17
 2258 060e 1B       		.uleb128 0x1b
 2259 060f 69020000 		.4byte	.LASF41
 2260 0613 01       		.byte	0x1
 2261 0614 4B01     		.2byte	0x14b
 2262 0616 AD000000 		.4byte	0xad
 2263 061a 02       		.uleb128 0x2
 2264 061b 91       		.byte	0x91
 2265 061c 6F       		.sleb128 -17
 2266 061d 00       		.byte	0
 2267 061e 00       		.byte	0
 2268 061f 1C       		.uleb128 0x1c
 2269 0620 E9020000 		.4byte	.LASF53
 2270 0624 01       		.byte	0x1
 2271 0625 5101     		.2byte	0x151
 2272 0627 00000000 		.4byte	.LFB72
 2273 062b 74000000 		.4byte	.LFE72-.LFB72
 2274 062f 01       		.uleb128 0x1
 2275 0630 9C       		.byte	0x9c
 2276 0631 7C060000 		.4byte	0x67c
 2277 0635 1D       		.uleb128 0x1d
 2278 0636 81010000 		.4byte	.LASF43
 2279 063a 01       		.byte	0x1
 2280 063b 5101     		.2byte	0x151
 2281 063d AD000000 		.4byte	0xad
 2282 0641 02       		.uleb128 0x2
 2283 0642 91       		.byte	0x91
 2284 0643 67       		.sleb128 -25
 2285 0644 1B       		.uleb128 0x1b
 2286 0645 47030000 		.4byte	.LASF54
ARM GAS  C:\Users\Lenovo\AppData\Local\Temp\ccIrCspy.s 			page 48


 2287 0649 01       		.byte	0x1
 2288 064a 5201     		.2byte	0x152
 2289 064c AD000000 		.4byte	0xad
 2290 0650 02       		.uleb128 0x2
 2291 0651 91       		.byte	0x91
 2292 0652 6E       		.sleb128 -18
 2293 0653 1B       		.uleb128 0x1b
 2294 0654 51030000 		.4byte	.LASF55
 2295 0658 01       		.byte	0x1
 2296 0659 5201     		.2byte	0x152
 2297 065b AD000000 		.4byte	0xad
 2298 065f 02       		.uleb128 0x2
 2299 0660 91       		.byte	0x91
 2300 0661 6D       		.sleb128 -19
 2301 0662 17       		.uleb128 0x17
 2302 0663 0A000000 		.4byte	.LBB18
 2303 0667 30000000 		.4byte	.LBE18-.LBB18
 2304 066b 1B       		.uleb128 0x1b
 2305 066c 69020000 		.4byte	.LASF41
 2306 0670 01       		.byte	0x1
 2307 0671 5301     		.2byte	0x153
 2308 0673 AD000000 		.4byte	0xad
 2309 0677 02       		.uleb128 0x2
 2310 0678 91       		.byte	0x91
 2311 0679 6F       		.sleb128 -17
 2312 067a 00       		.byte	0
 2313 067b 00       		.byte	0
 2314 067c 21       		.uleb128 0x21
 2315 067d D7020000 		.4byte	.LASF56
 2316 0681 06       		.byte	0x6
 2317 0682 1207     		.2byte	0x712
 2318 0684 88060000 		.4byte	0x688
 2319 0688 22       		.uleb128 0x22
 2320 0689 A2000000 		.4byte	0xa2
 2321 068d 23       		.uleb128 0x23
 2322 068e 69000000 		.4byte	.LASF57
 2323 0692 05       		.byte	0x5
 2324 0693 10       		.byte	0x10
 2325 0694 B9000000 		.4byte	0xb9
 2326 0698 05       		.uleb128 0x5
 2327 0699 03       		.byte	0x3
 2328 069a 00000000 		.4byte	PollCounter
 2329 069e 23       		.uleb128 0x23
 2330 069f 2E020000 		.4byte	.LASF58
 2331 06a3 05       		.byte	0x5
 2332 06a4 11       		.byte	0x11
 2333 06a5 AD000000 		.4byte	0xad
 2334 06a9 05       		.uleb128 0x5
 2335 06aa 03       		.byte	0x3
 2336 06ab 00000000 		.4byte	CurrentState
 2337 06af 23       		.uleb128 0x23
 2338 06b0 42030000 		.4byte	.LASF59
 2339 06b4 05       		.byte	0x5
 2340 06b5 2F       		.byte	0x2f
 2341 06b6 C6010000 		.4byte	0x1c6
 2342 06ba 05       		.uleb128 0x5
 2343 06bb 03       		.byte	0x3
ARM GAS  C:\Users\Lenovo\AppData\Local\Temp\ccIrCspy.s 			page 49


 2344 06bc 00000000 		.4byte	side
 2345 06c0 23       		.uleb128 0x23
 2346 06c1 C8020000 		.4byte	.LASF60
 2347 06c5 05       		.byte	0x5
 2348 06c6 38       		.byte	0x38
 2349 06c7 B6010000 		.4byte	0x1b6
 2350 06cb 05       		.uleb128 0x5
 2351 06cc 03       		.byte	0x3
 2352 06cd 00000000 		.4byte	MepsanResponse
 2353 06d1 23       		.uleb128 0x23
 2354 06d2 B6010000 		.4byte	.LASF61
 2355 06d6 05       		.byte	0x5
 2356 06d7 39       		.byte	0x39
 2357 06d8 B6010000 		.4byte	0x1b6
 2358 06dc 05       		.uleb128 0x5
 2359 06dd 03       		.byte	0x3
 2360 06de 00000000 		.4byte	MepsanSendTo
 2361 06e2 0A       		.uleb128 0xa
 2362 06e3 AD000000 		.4byte	0xad
 2363 06e7 F2060000 		.4byte	0x6f2
 2364 06eb 0B       		.uleb128 0xb
 2365 06ec E1000000 		.4byte	0xe1
 2366 06f0 0E       		.byte	0xe
 2367 06f1 00       		.byte	0
 2368 06f2 23       		.uleb128 0x23
 2369 06f3 CF010000 		.4byte	.LASF62
 2370 06f7 05       		.byte	0x5
 2371 06f8 3A       		.byte	0x3a
 2372 06f9 E2060000 		.4byte	0x6e2
 2373 06fd 05       		.uleb128 0x5
 2374 06fe 03       		.byte	0x3
 2375 06ff 00000000 		.4byte	PumpAddress
 2376 0703 24       		.uleb128 0x24
 2377 0704 43524300 		.ascii	"CRC\000"
 2378 0708 05       		.byte	0x5
 2379 0709 3B       		.byte	0x3b
 2380 070a B9000000 		.4byte	0xb9
 2381 070e 05       		.uleb128 0x5
 2382 070f 03       		.byte	0x3
 2383 0710 00000000 		.4byte	CRC
 2384 0714 23       		.uleb128 0x23
 2385 0715 35000000 		.4byte	.LASF63
 2386 0719 05       		.byte	0x5
 2387 071a 3C       		.byte	0x3c
 2388 071b AD000000 		.4byte	0xad
 2389 071f 05       		.uleb128 0x5
 2390 0720 03       		.byte	0x3
 2391 0721 00000000 		.4byte	crc_lo
 2392 0725 23       		.uleb128 0x23
 2393 0726 90030000 		.4byte	.LASF64
 2394 072a 05       		.byte	0x5
 2395 072b 3C       		.byte	0x3c
 2396 072c AD000000 		.4byte	0xad
 2397 0730 05       		.uleb128 0x5
 2398 0731 03       		.byte	0x3
 2399 0732 00000000 		.4byte	crc_hi
 2400 0736 23       		.uleb128 0x23
ARM GAS  C:\Users\Lenovo\AppData\Local\Temp\ccIrCspy.s 			page 50


 2401 0737 1E010000 		.4byte	.LASF65
 2402 073b 05       		.byte	0x5
 2403 073c 3D       		.byte	0x3d
 2404 073d AD000000 		.4byte	0xad
 2405 0741 05       		.uleb128 0x5
 2406 0742 03       		.byte	0x3
 2407 0743 00000000 		.4byte	Positions
 2408 0747 23       		.uleb128 0x23
 2409 0748 89010000 		.4byte	.LASF66
 2410 074c 05       		.byte	0x5
 2411 074d 47       		.byte	0x47
 2412 074e AD000000 		.4byte	0xad
 2413 0752 05       		.uleb128 0x5
 2414 0753 03       		.byte	0x3
 2415 0754 00000000 		.4byte	dirGbr
 2416 0758 00       		.byte	0
 2417              		.section	.debug_abbrev,"",%progbits
 2418              	.Ldebug_abbrev0:
 2419 0000 01       		.uleb128 0x1
 2420 0001 11       		.uleb128 0x11
 2421 0002 01       		.byte	0x1
 2422 0003 25       		.uleb128 0x25
 2423 0004 0E       		.uleb128 0xe
 2424 0005 13       		.uleb128 0x13
 2425 0006 0B       		.uleb128 0xb
 2426 0007 03       		.uleb128 0x3
 2427 0008 0E       		.uleb128 0xe
 2428 0009 1B       		.uleb128 0x1b
 2429 000a 0E       		.uleb128 0xe
 2430 000b 55       		.uleb128 0x55
 2431 000c 17       		.uleb128 0x17
 2432 000d 11       		.uleb128 0x11
 2433 000e 01       		.uleb128 0x1
 2434 000f 10       		.uleb128 0x10
 2435 0010 17       		.uleb128 0x17
 2436 0011 00       		.byte	0
 2437 0012 00       		.byte	0
 2438 0013 02       		.uleb128 0x2
 2439 0014 24       		.uleb128 0x24
 2440 0015 00       		.byte	0
 2441 0016 0B       		.uleb128 0xb
 2442 0017 0B       		.uleb128 0xb
 2443 0018 3E       		.uleb128 0x3e
 2444 0019 0B       		.uleb128 0xb
 2445 001a 03       		.uleb128 0x3
 2446 001b 0E       		.uleb128 0xe
 2447 001c 00       		.byte	0
 2448 001d 00       		.byte	0
 2449 001e 03       		.uleb128 0x3
 2450 001f 16       		.uleb128 0x16
 2451 0020 00       		.byte	0
 2452 0021 03       		.uleb128 0x3
 2453 0022 0E       		.uleb128 0xe
 2454 0023 3A       		.uleb128 0x3a
 2455 0024 0B       		.uleb128 0xb
 2456 0025 3B       		.uleb128 0x3b
 2457 0026 0B       		.uleb128 0xb
ARM GAS  C:\Users\Lenovo\AppData\Local\Temp\ccIrCspy.s 			page 51


 2458 0027 49       		.uleb128 0x49
 2459 0028 13       		.uleb128 0x13
 2460 0029 00       		.byte	0
 2461 002a 00       		.byte	0
 2462 002b 04       		.uleb128 0x4
 2463 002c 24       		.uleb128 0x24
 2464 002d 00       		.byte	0
 2465 002e 0B       		.uleb128 0xb
 2466 002f 0B       		.uleb128 0xb
 2467 0030 3E       		.uleb128 0x3e
 2468 0031 0B       		.uleb128 0xb
 2469 0032 03       		.uleb128 0x3
 2470 0033 08       		.uleb128 0x8
 2471 0034 00       		.byte	0
 2472 0035 00       		.byte	0
 2473 0036 05       		.uleb128 0x5
 2474 0037 16       		.uleb128 0x16
 2475 0038 00       		.byte	0
 2476 0039 03       		.uleb128 0x3
 2477 003a 0E       		.uleb128 0xe
 2478 003b 3A       		.uleb128 0x3a
 2479 003c 0B       		.uleb128 0xb
 2480 003d 3B       		.uleb128 0x3b
 2481 003e 05       		.uleb128 0x5
 2482 003f 49       		.uleb128 0x49
 2483 0040 13       		.uleb128 0x13
 2484 0041 00       		.byte	0
 2485 0042 00       		.byte	0
 2486 0043 06       		.uleb128 0x6
 2487 0044 13       		.uleb128 0x13
 2488 0045 01       		.byte	0x1
 2489 0046 03       		.uleb128 0x3
 2490 0047 0E       		.uleb128 0xe
 2491 0048 0B       		.uleb128 0xb
 2492 0049 05       		.uleb128 0x5
 2493 004a 3A       		.uleb128 0x3a
 2494 004b 0B       		.uleb128 0xb
 2495 004c 3B       		.uleb128 0x3b
 2496 004d 0B       		.uleb128 0xb
 2497 004e 01       		.uleb128 0x1
 2498 004f 13       		.uleb128 0x13
 2499 0050 00       		.byte	0
 2500 0051 00       		.byte	0
 2501 0052 07       		.uleb128 0x7
 2502 0053 0D       		.uleb128 0xd
 2503 0054 00       		.byte	0
 2504 0055 03       		.uleb128 0x3
 2505 0056 08       		.uleb128 0x8
 2506 0057 3A       		.uleb128 0x3a
 2507 0058 0B       		.uleb128 0xb
 2508 0059 3B       		.uleb128 0x3b
 2509 005a 0B       		.uleb128 0xb
 2510 005b 49       		.uleb128 0x49
 2511 005c 13       		.uleb128 0x13
 2512 005d 38       		.uleb128 0x38
 2513 005e 0B       		.uleb128 0xb
 2514 005f 00       		.byte	0
ARM GAS  C:\Users\Lenovo\AppData\Local\Temp\ccIrCspy.s 			page 52


 2515 0060 00       		.byte	0
 2516 0061 08       		.uleb128 0x8
 2517 0062 0D       		.uleb128 0xd
 2518 0063 00       		.byte	0
 2519 0064 03       		.uleb128 0x3
 2520 0065 0E       		.uleb128 0xe
 2521 0066 3A       		.uleb128 0x3a
 2522 0067 0B       		.uleb128 0xb
 2523 0068 3B       		.uleb128 0x3b
 2524 0069 0B       		.uleb128 0xb
 2525 006a 49       		.uleb128 0x49
 2526 006b 13       		.uleb128 0x13
 2527 006c 38       		.uleb128 0x38
 2528 006d 0B       		.uleb128 0xb
 2529 006e 00       		.byte	0
 2530 006f 00       		.byte	0
 2531 0070 09       		.uleb128 0x9
 2532 0071 0D       		.uleb128 0xd
 2533 0072 00       		.byte	0
 2534 0073 03       		.uleb128 0x3
 2535 0074 0E       		.uleb128 0xe
 2536 0075 3A       		.uleb128 0x3a
 2537 0076 0B       		.uleb128 0xb
 2538 0077 3B       		.uleb128 0x3b
 2539 0078 0B       		.uleb128 0xb
 2540 0079 49       		.uleb128 0x49
 2541 007a 13       		.uleb128 0x13
 2542 007b 38       		.uleb128 0x38
 2543 007c 05       		.uleb128 0x5
 2544 007d 00       		.byte	0
 2545 007e 00       		.byte	0
 2546 007f 0A       		.uleb128 0xa
 2547 0080 01       		.uleb128 0x1
 2548 0081 01       		.byte	0x1
 2549 0082 49       		.uleb128 0x49
 2550 0083 13       		.uleb128 0x13
 2551 0084 01       		.uleb128 0x1
 2552 0085 13       		.uleb128 0x13
 2553 0086 00       		.byte	0
 2554 0087 00       		.byte	0
 2555 0088 0B       		.uleb128 0xb
 2556 0089 21       		.uleb128 0x21
 2557 008a 00       		.byte	0
 2558 008b 49       		.uleb128 0x49
 2559 008c 13       		.uleb128 0x13
 2560 008d 2F       		.uleb128 0x2f
 2561 008e 0B       		.uleb128 0xb
 2562 008f 00       		.byte	0
 2563 0090 00       		.byte	0
 2564 0091 0C       		.uleb128 0xc
 2565 0092 0D       		.uleb128 0xd
 2566 0093 00       		.byte	0
 2567 0094 03       		.uleb128 0x3
 2568 0095 08       		.uleb128 0x8
 2569 0096 3A       		.uleb128 0x3a
 2570 0097 0B       		.uleb128 0xb
 2571 0098 3B       		.uleb128 0x3b
ARM GAS  C:\Users\Lenovo\AppData\Local\Temp\ccIrCspy.s 			page 53


 2572 0099 0B       		.uleb128 0xb
 2573 009a 49       		.uleb128 0x49
 2574 009b 13       		.uleb128 0x13
 2575 009c 38       		.uleb128 0x38
 2576 009d 05       		.uleb128 0x5
 2577 009e 00       		.byte	0
 2578 009f 00       		.byte	0
 2579 00a0 0D       		.uleb128 0xd
 2580 00a1 04       		.uleb128 0x4
 2581 00a2 01       		.byte	0x1
 2582 00a3 03       		.uleb128 0x3
 2583 00a4 0E       		.uleb128 0xe
 2584 00a5 0B       		.uleb128 0xb
 2585 00a6 0B       		.uleb128 0xb
 2586 00a7 49       		.uleb128 0x49
 2587 00a8 13       		.uleb128 0x13
 2588 00a9 3A       		.uleb128 0x3a
 2589 00aa 0B       		.uleb128 0xb
 2590 00ab 3B       		.uleb128 0x3b
 2591 00ac 0B       		.uleb128 0xb
 2592 00ad 01       		.uleb128 0x1
 2593 00ae 13       		.uleb128 0x13
 2594 00af 00       		.byte	0
 2595 00b0 00       		.byte	0
 2596 00b1 0E       		.uleb128 0xe
 2597 00b2 28       		.uleb128 0x28
 2598 00b3 00       		.byte	0
 2599 00b4 03       		.uleb128 0x3
 2600 00b5 0E       		.uleb128 0xe
 2601 00b6 1C       		.uleb128 0x1c
 2602 00b7 0B       		.uleb128 0xb
 2603 00b8 00       		.byte	0
 2604 00b9 00       		.byte	0
 2605 00ba 0F       		.uleb128 0xf
 2606 00bb 2E       		.uleb128 0x2e
 2607 00bc 01       		.byte	0x1
 2608 00bd 3F       		.uleb128 0x3f
 2609 00be 19       		.uleb128 0x19
 2610 00bf 03       		.uleb128 0x3
 2611 00c0 0E       		.uleb128 0xe
 2612 00c1 3A       		.uleb128 0x3a
 2613 00c2 0B       		.uleb128 0xb
 2614 00c3 3B       		.uleb128 0x3b
 2615 00c4 0B       		.uleb128 0xb
 2616 00c5 27       		.uleb128 0x27
 2617 00c6 19       		.uleb128 0x19
 2618 00c7 49       		.uleb128 0x49
 2619 00c8 13       		.uleb128 0x13
 2620 00c9 11       		.uleb128 0x11
 2621 00ca 01       		.uleb128 0x1
 2622 00cb 12       		.uleb128 0x12
 2623 00cc 06       		.uleb128 0x6
 2624 00cd 40       		.uleb128 0x40
 2625 00ce 18       		.uleb128 0x18
 2626 00cf 9742     		.uleb128 0x2117
 2627 00d1 19       		.uleb128 0x19
 2628 00d2 01       		.uleb128 0x1
ARM GAS  C:\Users\Lenovo\AppData\Local\Temp\ccIrCspy.s 			page 54


 2629 00d3 13       		.uleb128 0x13
 2630 00d4 00       		.byte	0
 2631 00d5 00       		.byte	0
 2632 00d6 10       		.uleb128 0x10
 2633 00d7 05       		.uleb128 0x5
 2634 00d8 00       		.byte	0
 2635 00d9 03       		.uleb128 0x3
 2636 00da 0E       		.uleb128 0xe
 2637 00db 3A       		.uleb128 0x3a
 2638 00dc 0B       		.uleb128 0xb
 2639 00dd 3B       		.uleb128 0x3b
 2640 00de 0B       		.uleb128 0xb
 2641 00df 49       		.uleb128 0x49
 2642 00e0 13       		.uleb128 0x13
 2643 00e1 02       		.uleb128 0x2
 2644 00e2 18       		.uleb128 0x18
 2645 00e3 00       		.byte	0
 2646 00e4 00       		.byte	0
 2647 00e5 11       		.uleb128 0x11
 2648 00e6 34       		.uleb128 0x34
 2649 00e7 00       		.byte	0
 2650 00e8 03       		.uleb128 0x3
 2651 00e9 08       		.uleb128 0x8
 2652 00ea 3A       		.uleb128 0x3a
 2653 00eb 0B       		.uleb128 0xb
 2654 00ec 3B       		.uleb128 0x3b
 2655 00ed 0B       		.uleb128 0xb
 2656 00ee 49       		.uleb128 0x49
 2657 00ef 13       		.uleb128 0x13
 2658 00f0 02       		.uleb128 0x2
 2659 00f1 18       		.uleb128 0x18
 2660 00f2 00       		.byte	0
 2661 00f3 00       		.byte	0
 2662 00f4 12       		.uleb128 0x12
 2663 00f5 34       		.uleb128 0x34
 2664 00f6 00       		.byte	0
 2665 00f7 03       		.uleb128 0x3
 2666 00f8 0E       		.uleb128 0xe
 2667 00f9 3A       		.uleb128 0x3a
 2668 00fa 0B       		.uleb128 0xb
 2669 00fb 3B       		.uleb128 0x3b
 2670 00fc 0B       		.uleb128 0xb
 2671 00fd 49       		.uleb128 0x49
 2672 00fe 13       		.uleb128 0x13
 2673 00ff 02       		.uleb128 0x2
 2674 0100 18       		.uleb128 0x18
 2675 0101 00       		.byte	0
 2676 0102 00       		.byte	0
 2677 0103 13       		.uleb128 0x13
 2678 0104 0F       		.uleb128 0xf
 2679 0105 00       		.byte	0
 2680 0106 0B       		.uleb128 0xb
 2681 0107 0B       		.uleb128 0xb
 2682 0108 49       		.uleb128 0x49
 2683 0109 13       		.uleb128 0x13
 2684 010a 00       		.byte	0
 2685 010b 00       		.byte	0
ARM GAS  C:\Users\Lenovo\AppData\Local\Temp\ccIrCspy.s 			page 55


 2686 010c 14       		.uleb128 0x14
 2687 010d 26       		.uleb128 0x26
 2688 010e 00       		.byte	0
 2689 010f 49       		.uleb128 0x49
 2690 0110 13       		.uleb128 0x13
 2691 0111 00       		.byte	0
 2692 0112 00       		.byte	0
 2693 0113 15       		.uleb128 0x15
 2694 0114 2E       		.uleb128 0x2e
 2695 0115 01       		.byte	0x1
 2696 0116 3F       		.uleb128 0x3f
 2697 0117 19       		.uleb128 0x19
 2698 0118 03       		.uleb128 0x3
 2699 0119 0E       		.uleb128 0xe
 2700 011a 3A       		.uleb128 0x3a
 2701 011b 0B       		.uleb128 0xb
 2702 011c 3B       		.uleb128 0x3b
 2703 011d 0B       		.uleb128 0xb
 2704 011e 27       		.uleb128 0x27
 2705 011f 19       		.uleb128 0x19
 2706 0120 49       		.uleb128 0x49
 2707 0121 13       		.uleb128 0x13
 2708 0122 11       		.uleb128 0x11
 2709 0123 01       		.uleb128 0x1
 2710 0124 12       		.uleb128 0x12
 2711 0125 06       		.uleb128 0x6
 2712 0126 40       		.uleb128 0x40
 2713 0127 18       		.uleb128 0x18
 2714 0128 9642     		.uleb128 0x2116
 2715 012a 19       		.uleb128 0x19
 2716 012b 01       		.uleb128 0x1
 2717 012c 13       		.uleb128 0x13
 2718 012d 00       		.byte	0
 2719 012e 00       		.byte	0
 2720 012f 16       		.uleb128 0x16
 2721 0130 05       		.uleb128 0x5
 2722 0131 00       		.byte	0
 2723 0132 03       		.uleb128 0x3
 2724 0133 08       		.uleb128 0x8
 2725 0134 3A       		.uleb128 0x3a
 2726 0135 0B       		.uleb128 0xb
 2727 0136 3B       		.uleb128 0x3b
 2728 0137 0B       		.uleb128 0xb
 2729 0138 49       		.uleb128 0x49
 2730 0139 13       		.uleb128 0x13
 2731 013a 02       		.uleb128 0x2
 2732 013b 18       		.uleb128 0x18
 2733 013c 00       		.byte	0
 2734 013d 00       		.byte	0
 2735 013e 17       		.uleb128 0x17
 2736 013f 0B       		.uleb128 0xb
 2737 0140 01       		.byte	0x1
 2738 0141 11       		.uleb128 0x11
 2739 0142 01       		.uleb128 0x1
 2740 0143 12       		.uleb128 0x12
 2741 0144 06       		.uleb128 0x6
 2742 0145 00       		.byte	0
ARM GAS  C:\Users\Lenovo\AppData\Local\Temp\ccIrCspy.s 			page 56


 2743 0146 00       		.byte	0
 2744 0147 18       		.uleb128 0x18
 2745 0148 34       		.uleb128 0x34
 2746 0149 00       		.byte	0
 2747 014a 03       		.uleb128 0x3
 2748 014b 0E       		.uleb128 0xe
 2749 014c 3A       		.uleb128 0x3a
 2750 014d 0B       		.uleb128 0xb
 2751 014e 3B       		.uleb128 0x3b
 2752 014f 0B       		.uleb128 0xb
 2753 0150 49       		.uleb128 0x49
 2754 0151 13       		.uleb128 0x13
 2755 0152 00       		.byte	0
 2756 0153 00       		.byte	0
 2757 0154 19       		.uleb128 0x19
 2758 0155 0B       		.uleb128 0xb
 2759 0156 01       		.byte	0x1
 2760 0157 11       		.uleb128 0x11
 2761 0158 01       		.uleb128 0x1
 2762 0159 12       		.uleb128 0x12
 2763 015a 06       		.uleb128 0x6
 2764 015b 01       		.uleb128 0x1
 2765 015c 13       		.uleb128 0x13
 2766 015d 00       		.byte	0
 2767 015e 00       		.byte	0
 2768 015f 1A       		.uleb128 0x1a
 2769 0160 34       		.uleb128 0x34
 2770 0161 00       		.byte	0
 2771 0162 03       		.uleb128 0x3
 2772 0163 08       		.uleb128 0x8
 2773 0164 3A       		.uleb128 0x3a
 2774 0165 0B       		.uleb128 0xb
 2775 0166 3B       		.uleb128 0x3b
 2776 0167 05       		.uleb128 0x5
 2777 0168 49       		.uleb128 0x49
 2778 0169 13       		.uleb128 0x13
 2779 016a 02       		.uleb128 0x2
 2780 016b 18       		.uleb128 0x18
 2781 016c 00       		.byte	0
 2782 016d 00       		.byte	0
 2783 016e 1B       		.uleb128 0x1b
 2784 016f 34       		.uleb128 0x34
 2785 0170 00       		.byte	0
 2786 0171 03       		.uleb128 0x3
 2787 0172 0E       		.uleb128 0xe
 2788 0173 3A       		.uleb128 0x3a
 2789 0174 0B       		.uleb128 0xb
 2790 0175 3B       		.uleb128 0x3b
 2791 0176 05       		.uleb128 0x5
 2792 0177 49       		.uleb128 0x49
 2793 0178 13       		.uleb128 0x13
 2794 0179 02       		.uleb128 0x2
 2795 017a 18       		.uleb128 0x18
 2796 017b 00       		.byte	0
 2797 017c 00       		.byte	0
 2798 017d 1C       		.uleb128 0x1c
 2799 017e 2E       		.uleb128 0x2e
ARM GAS  C:\Users\Lenovo\AppData\Local\Temp\ccIrCspy.s 			page 57


 2800 017f 01       		.byte	0x1
 2801 0180 3F       		.uleb128 0x3f
 2802 0181 19       		.uleb128 0x19
 2803 0182 03       		.uleb128 0x3
 2804 0183 0E       		.uleb128 0xe
 2805 0184 3A       		.uleb128 0x3a
 2806 0185 0B       		.uleb128 0xb
 2807 0186 3B       		.uleb128 0x3b
 2808 0187 05       		.uleb128 0x5
 2809 0188 27       		.uleb128 0x27
 2810 0189 19       		.uleb128 0x19
 2811 018a 11       		.uleb128 0x11
 2812 018b 01       		.uleb128 0x1
 2813 018c 12       		.uleb128 0x12
 2814 018d 06       		.uleb128 0x6
 2815 018e 40       		.uleb128 0x40
 2816 018f 18       		.uleb128 0x18
 2817 0190 9642     		.uleb128 0x2116
 2818 0192 19       		.uleb128 0x19
 2819 0193 01       		.uleb128 0x1
 2820 0194 13       		.uleb128 0x13
 2821 0195 00       		.byte	0
 2822 0196 00       		.byte	0
 2823 0197 1D       		.uleb128 0x1d
 2824 0198 05       		.uleb128 0x5
 2825 0199 00       		.byte	0
 2826 019a 03       		.uleb128 0x3
 2827 019b 0E       		.uleb128 0xe
 2828 019c 3A       		.uleb128 0x3a
 2829 019d 0B       		.uleb128 0xb
 2830 019e 3B       		.uleb128 0x3b
 2831 019f 05       		.uleb128 0x5
 2832 01a0 49       		.uleb128 0x49
 2833 01a1 13       		.uleb128 0x13
 2834 01a2 02       		.uleb128 0x2
 2835 01a3 18       		.uleb128 0x18
 2836 01a4 00       		.byte	0
 2837 01a5 00       		.byte	0
 2838 01a6 1E       		.uleb128 0x1e
 2839 01a7 34       		.uleb128 0x34
 2840 01a8 00       		.byte	0
 2841 01a9 03       		.uleb128 0x3
 2842 01aa 0E       		.uleb128 0xe
 2843 01ab 3A       		.uleb128 0x3a
 2844 01ac 0B       		.uleb128 0xb
 2845 01ad 3B       		.uleb128 0x3b
 2846 01ae 05       		.uleb128 0x5
 2847 01af 49       		.uleb128 0x49
 2848 01b0 13       		.uleb128 0x13
 2849 01b1 00       		.byte	0
 2850 01b2 00       		.byte	0
 2851 01b3 1F       		.uleb128 0x1f
 2852 01b4 2E       		.uleb128 0x2e
 2853 01b5 00       		.byte	0
 2854 01b6 3F       		.uleb128 0x3f
 2855 01b7 19       		.uleb128 0x19
 2856 01b8 03       		.uleb128 0x3
ARM GAS  C:\Users\Lenovo\AppData\Local\Temp\ccIrCspy.s 			page 58


 2857 01b9 0E       		.uleb128 0xe
 2858 01ba 3A       		.uleb128 0x3a
 2859 01bb 0B       		.uleb128 0xb
 2860 01bc 3B       		.uleb128 0x3b
 2861 01bd 05       		.uleb128 0x5
 2862 01be 27       		.uleb128 0x27
 2863 01bf 19       		.uleb128 0x19
 2864 01c0 11       		.uleb128 0x11
 2865 01c1 01       		.uleb128 0x1
 2866 01c2 12       		.uleb128 0x12
 2867 01c3 06       		.uleb128 0x6
 2868 01c4 40       		.uleb128 0x40
 2869 01c5 18       		.uleb128 0x18
 2870 01c6 9742     		.uleb128 0x2117
 2871 01c8 19       		.uleb128 0x19
 2872 01c9 00       		.byte	0
 2873 01ca 00       		.byte	0
 2874 01cb 20       		.uleb128 0x20
 2875 01cc 2E       		.uleb128 0x2e
 2876 01cd 01       		.byte	0x1
 2877 01ce 3F       		.uleb128 0x3f
 2878 01cf 19       		.uleb128 0x19
 2879 01d0 03       		.uleb128 0x3
 2880 01d1 0E       		.uleb128 0xe
 2881 01d2 3A       		.uleb128 0x3a
 2882 01d3 0B       		.uleb128 0xb
 2883 01d4 3B       		.uleb128 0x3b
 2884 01d5 05       		.uleb128 0x5
 2885 01d6 11       		.uleb128 0x11
 2886 01d7 01       		.uleb128 0x1
 2887 01d8 12       		.uleb128 0x12
 2888 01d9 06       		.uleb128 0x6
 2889 01da 40       		.uleb128 0x40
 2890 01db 18       		.uleb128 0x18
 2891 01dc 9642     		.uleb128 0x2116
 2892 01de 19       		.uleb128 0x19
 2893 01df 01       		.uleb128 0x1
 2894 01e0 13       		.uleb128 0x13
 2895 01e1 00       		.byte	0
 2896 01e2 00       		.byte	0
 2897 01e3 21       		.uleb128 0x21
 2898 01e4 34       		.uleb128 0x34
 2899 01e5 00       		.byte	0
 2900 01e6 03       		.uleb128 0x3
 2901 01e7 0E       		.uleb128 0xe
 2902 01e8 3A       		.uleb128 0x3a
 2903 01e9 0B       		.uleb128 0xb
 2904 01ea 3B       		.uleb128 0x3b
 2905 01eb 05       		.uleb128 0x5
 2906 01ec 49       		.uleb128 0x49
 2907 01ed 13       		.uleb128 0x13
 2908 01ee 3F       		.uleb128 0x3f
 2909 01ef 19       		.uleb128 0x19
 2910 01f0 3C       		.uleb128 0x3c
 2911 01f1 19       		.uleb128 0x19
 2912 01f2 00       		.byte	0
 2913 01f3 00       		.byte	0
ARM GAS  C:\Users\Lenovo\AppData\Local\Temp\ccIrCspy.s 			page 59


 2914 01f4 22       		.uleb128 0x22
 2915 01f5 35       		.uleb128 0x35
 2916 01f6 00       		.byte	0
 2917 01f7 49       		.uleb128 0x49
 2918 01f8 13       		.uleb128 0x13
 2919 01f9 00       		.byte	0
 2920 01fa 00       		.byte	0
 2921 01fb 23       		.uleb128 0x23
 2922 01fc 34       		.uleb128 0x34
 2923 01fd 00       		.byte	0
 2924 01fe 03       		.uleb128 0x3
 2925 01ff 0E       		.uleb128 0xe
 2926 0200 3A       		.uleb128 0x3a
 2927 0201 0B       		.uleb128 0xb
 2928 0202 3B       		.uleb128 0x3b
 2929 0203 0B       		.uleb128 0xb
 2930 0204 49       		.uleb128 0x49
 2931 0205 13       		.uleb128 0x13
 2932 0206 3F       		.uleb128 0x3f
 2933 0207 19       		.uleb128 0x19
 2934 0208 02       		.uleb128 0x2
 2935 0209 18       		.uleb128 0x18
 2936 020a 00       		.byte	0
 2937 020b 00       		.byte	0
 2938 020c 24       		.uleb128 0x24
 2939 020d 34       		.uleb128 0x34
 2940 020e 00       		.byte	0
 2941 020f 03       		.uleb128 0x3
 2942 0210 08       		.uleb128 0x8
 2943 0211 3A       		.uleb128 0x3a
 2944 0212 0B       		.uleb128 0xb
 2945 0213 3B       		.uleb128 0x3b
 2946 0214 0B       		.uleb128 0xb
 2947 0215 49       		.uleb128 0x49
 2948 0216 13       		.uleb128 0x13
 2949 0217 3F       		.uleb128 0x3f
 2950 0218 19       		.uleb128 0x19
 2951 0219 02       		.uleb128 0x2
 2952 021a 18       		.uleb128 0x18
 2953 021b 00       		.byte	0
 2954 021c 00       		.byte	0
 2955 021d 00       		.byte	0
 2956              		.section	.debug_aranges,"",%progbits
 2957 0000 64000000 		.4byte	0x64
 2958 0004 0200     		.2byte	0x2
 2959 0006 00000000 		.4byte	.Ldebug_info0
 2960 000a 04       		.byte	0x4
 2961 000b 00       		.byte	0
 2962 000c 0000     		.2byte	0
 2963 000e 0000     		.2byte	0
 2964 0010 00000000 		.4byte	.LFB63
 2965 0014 FA000000 		.4byte	.LFE63-.LFB63
 2966 0018 00000000 		.4byte	.LFB64
 2967 001c B0000000 		.4byte	.LFE64-.LFB64
 2968 0020 00000000 		.4byte	.LFB65
 2969 0024 DC000000 		.4byte	.LFE65-.LFB65
 2970 0028 00000000 		.4byte	.LFB66
ARM GAS  C:\Users\Lenovo\AppData\Local\Temp\ccIrCspy.s 			page 60


 2971 002c 10010000 		.4byte	.LFE66-.LFB66
 2972 0030 00000000 		.4byte	.LFB67
 2973 0034 6C010000 		.4byte	.LFE67-.LFB67
 2974 0038 00000000 		.4byte	.LFB68
 2975 003c 18010000 		.4byte	.LFE68-.LFB68
 2976 0040 00000000 		.4byte	.LFB69
 2977 0044 DC000000 		.4byte	.LFE69-.LFB69
 2978 0048 00000000 		.4byte	.LFB70
 2979 004c 0C000000 		.4byte	.LFE70-.LFB70
 2980 0050 00000000 		.4byte	.LFB71
 2981 0054 40000000 		.4byte	.LFE71-.LFB71
 2982 0058 00000000 		.4byte	.LFB72
 2983 005c 74000000 		.4byte	.LFE72-.LFB72
 2984 0060 00000000 		.4byte	0
 2985 0064 00000000 		.4byte	0
 2986              		.section	.debug_ranges,"",%progbits
 2987              	.Ldebug_ranges0:
 2988 0000 00000000 		.4byte	.LFB63
 2989 0004 FA000000 		.4byte	.LFE63
 2990 0008 00000000 		.4byte	.LFB64
 2991 000c B0000000 		.4byte	.LFE64
 2992 0010 00000000 		.4byte	.LFB65
 2993 0014 DC000000 		.4byte	.LFE65
 2994 0018 00000000 		.4byte	.LFB66
 2995 001c 10010000 		.4byte	.LFE66
 2996 0020 00000000 		.4byte	.LFB67
 2997 0024 6C010000 		.4byte	.LFE67
 2998 0028 00000000 		.4byte	.LFB68
 2999 002c 18010000 		.4byte	.LFE68
 3000 0030 00000000 		.4byte	.LFB69
 3001 0034 DC000000 		.4byte	.LFE69
 3002 0038 00000000 		.4byte	.LFB70
 3003 003c 0C000000 		.4byte	.LFE70
 3004 0040 00000000 		.4byte	.LFB71
 3005 0044 40000000 		.4byte	.LFE71
 3006 0048 00000000 		.4byte	.LFB72
 3007 004c 74000000 		.4byte	.LFE72
 3008 0050 00000000 		.4byte	0
 3009 0054 00000000 		.4byte	0
 3010              		.section	.debug_line,"",%progbits
 3011              	.Ldebug_line0:
 3012 0000 FB030000 		.section	.debug_str,"MS",%progbits,1
 3012      02005B01 
 3012      00000201 
 3012      FB0E0D00 
 3012      01010101 
 3013              	.LASF32:
 3014 0000 4D455053 		.ascii	"MEPSAN_STATE\000"
 3014      414E5F53 
 3014      54415445 
 3014      00
 3015              	.LASF45:
 3016 000d 52657475 		.ascii	"ReturnStatus\000"
 3016      726E5374 
 3016      61747573 
 3016      00
 3017              	.LASF70:
ARM GAS  C:\Users\Lenovo\AppData\Local\Temp\ccIrCspy.s 			page 61


 3018 001a 4D455053 		.ascii	"MEPSAN_REQUEST\000"
 3018      414E5F52 
 3018      45515545 
 3018      535400
 3019              	.LASF47:
 3020 0029 50726963 		.ascii	"PriceUpdate\000"
 3020      65557064 
 3020      61746500 
 3021              	.LASF63:
 3022 0035 6372635F 		.ascii	"crc_lo\000"
 3022      6C6F00
 3023              	.LASF34:
 3024 003c 4D455053 		.ascii	"MEPSAN_R_FILLING\000"
 3024      414E5F52 
 3024      5F46494C 
 3024      4C494E47 
 3024      00
 3025              	.LASF38:
 3026 004d 6269745F 		.ascii	"bit_flag\000"
 3026      666C6167 
 3026      00
 3027              	.LASF2:
 3028 0056 73686F72 		.ascii	"short int\000"
 3028      7420696E 
 3028      7400
 3029              	.LASF21:
 3030 0060 73697A65 		.ascii	"sizetype\000"
 3030      74797065 
 3030      00
 3031              	.LASF57:
 3032 0069 506F6C6C 		.ascii	"PollCounter\000"
 3032      436F756E 
 3032      74657200 
 3033              	.LASF48:
 3034 0075 70726963 		.ascii	"price\000"
 3034      6500
 3035              	.LASF67:
 3036 007b 474E5520 		.ascii	"GNU C11 5.4.1 20160609 (release) [ARM/embedded-5-br"
 3036      43313120 
 3036      352E342E 
 3036      31203230 
 3036      31363036 
 3037 00ae 616E6368 		.ascii	"anch revision 237715] -mcpu=cortex-m3 -mthumb -g -O"
 3037      20726576 
 3037      6973696F 
 3037      6E203233 
 3037      37373135 
 3038 00e1 30202D66 		.ascii	"0 -ffunction-sections -ffat-lto-objects\000"
 3038      66756E63 
 3038      74696F6E 
 3038      2D736563 
 3038      74696F6E 
 3039              	.LASF42:
 3040 0109 41757468 		.ascii	"Authorize\000"
 3040      6F72697A 
 3040      6500
 3041              	.LASF4:
ARM GAS  C:\Users\Lenovo\AppData\Local\Temp\ccIrCspy.s 			page 62


 3042 0113 5F5F7569 		.ascii	"__uint16_t\000"
 3042      6E743136 
 3042      5F7400
 3043              	.LASF65:
 3044 011e 506F7369 		.ascii	"Positions\000"
 3044      74696F6E 
 3044      7300
 3045              	.LASF16:
 3046 0128 75696E74 		.ascii	"uint16\000"
 3046      313600
 3047              	.LASF50:
 3048 012f 6E6F7A7A 		.ascii	"nozzle\000"
 3048      6C6500
 3049              	.LASF12:
 3050 0136 75696E74 		.ascii	"uint8_t\000"
 3050      385F7400 
 3051              	.LASF15:
 3052 013e 75696E74 		.ascii	"uint8\000"
 3052      3800
 3053              	.LASF0:
 3054 0144 7369676E 		.ascii	"signed char\000"
 3054      65642063 
 3054      68617200 
 3055              	.LASF17:
 3056 0150 666C6F61 		.ascii	"float\000"
 3056      7400
 3057              	.LASF9:
 3058 0156 6C6F6E67 		.ascii	"long long int\000"
 3058      206C6F6E 
 3058      6720696E 
 3058      7400
 3059              	.LASF28:
 3060 0164 73746174 		.ascii	"states\000"
 3060      657300
 3061              	.LASF52:
 3062 016b 546F7461 		.ascii	"TotalRequest\000"
 3062      6C526571 
 3062      75657374 
 3062      00
 3063              	.LASF7:
 3064 0178 6C6F6E67 		.ascii	"long int\000"
 3064      20696E74 
 3064      00
 3065              	.LASF43:
 3066 0181 61646472 		.ascii	"address\000"
 3066      65737300 
 3067              	.LASF66:
 3068 0189 64697247 		.ascii	"dirGbr\000"
 3068      627200
 3069              	.LASF25:
 3070 0190 766F6C75 		.ascii	"volumeSale\000"
 3070      6D655361 
 3070      6C6500
 3071              	.LASF3:
 3072 019b 5F5F7569 		.ascii	"__uint8_t\000"
 3072      6E74385F 
 3072      7400
ARM GAS  C:\Users\Lenovo\AppData\Local\Temp\ccIrCspy.s 			page 63


 3073              	.LASF33:
 3074 01a5 4D455053 		.ascii	"MEPSAN_AUTHORIZE\000"
 3074      414E5F41 
 3074      5554484F 
 3074      52495A45 
 3074      00
 3075              	.LASF61:
 3076 01b6 4D657073 		.ascii	"MepsanSendTo\000"
 3076      616E5365 
 3076      6E64546F 
 3076      00
 3077              	.LASF20:
 3078 01c3 6C6F6E67 		.ascii	"long double\000"
 3078      20646F75 
 3078      626C6500 
 3079              	.LASF62:
 3080 01cf 50756D70 		.ascii	"PumpAddress\000"
 3080      41646472 
 3080      65737300 
 3081              	.LASF1:
 3082 01db 756E7369 		.ascii	"unsigned char\000"
 3082      676E6564 
 3082      20636861 
 3082      7200
 3083              	.LASF23:
 3084 01e9 7070754E 		.ascii	"ppuNozzle\000"
 3084      6F7A7A6C 
 3084      6500
 3085              	.LASF10:
 3086 01f3 6C6F6E67 		.ascii	"long long unsigned int\000"
 3086      206C6F6E 
 3086      6720756E 
 3086      7369676E 
 3086      65642069 
 3087              	.LASF49:
 3088 020a 74797065 		.ascii	"type\000"
 3088      00
 3089              	.LASF11:
 3090 020f 756E7369 		.ascii	"unsigned int\000"
 3090      676E6564 
 3090      20696E74 
 3090      00
 3091              	.LASF26:
 3092 021c 70707553 		.ascii	"ppuSale\000"
 3092      616C6500 
 3093              	.LASF24:
 3094 0224 6D6F6E65 		.ascii	"moneySale\000"
 3094      7953616C 
 3094      6500
 3095              	.LASF58:
 3096 022e 43757272 		.ascii	"CurrentState\000"
 3096      656E7453 
 3096      74617465 
 3096      00
 3097              	.LASF51:
 3098 023b 72657175 		.ascii	"request\000"
 3098      65737400 
ARM GAS  C:\Users\Lenovo\AppData\Local\Temp\ccIrCspy.s 			page 64


 3099              	.LASF27:
 3100 0243 70726F64 		.ascii	"productSale\000"
 3100      75637453 
 3100      616C6500 
 3101              	.LASF5:
 3102 024f 73686F72 		.ascii	"short unsigned int\000"
 3102      7420756E 
 3102      7369676E 
 3102      65642069 
 3102      6E7400
 3103              	.LASF44:
 3104 0262 73746174 		.ascii	"status\000"
 3104      757300
 3105              	.LASF41:
 3106 0269 4D657052 		.ascii	"MepRx\000"
 3106      7800
 3107              	.LASF19:
 3108 026f 63686172 		.ascii	"char\000"
 3108      00
 3109              	.LASF13:
 3110 0274 75696E74 		.ascii	"uint16_t\000"
 3110      31365F74 
 3110      00
 3111              	.LASF39:
 3112 027d 67656E5F 		.ascii	"gen_crc16\000"
 3112      63726331 
 3112      3600
 3113              	.LASF14:
 3114 0287 696E7433 		.ascii	"int32_t\000"
 3114      325F7400 
 3115              	.LASF31:
 3116 028f 70756D70 		.ascii	"pump\000"
 3116      00
 3117              	.LASF71:
 3118 0294 47657454 		.ascii	"GetTotal\000"
 3118      6F74616C 
 3118      00
 3119              	.LASF35:
 3120 029d 64617461 		.ascii	"data\000"
 3120      00
 3121              	.LASF22:
 3122 02a2 746F7461 		.ascii	"totalsNozzle\000"
 3122      6C734E6F 
 3122      7A7A6C65 
 3122      00
 3123              	.LASF8:
 3124 02af 6C6F6E67 		.ascii	"long unsigned int\000"
 3124      20756E73 
 3124      69676E65 
 3124      6420696E 
 3124      7400
 3125              	.LASF18:
 3126 02c1 646F7562 		.ascii	"double\000"
 3126      6C6500
 3127              	.LASF60:
 3128 02c8 4D657073 		.ascii	"MepsanResponse\000"
 3128      616E5265 
ARM GAS  C:\Users\Lenovo\AppData\Local\Temp\ccIrCspy.s 			page 65


 3128      73706F6E 
 3128      736500
 3129              	.LASF56:
 3130 02d7 49544D5F 		.ascii	"ITM_RxBuffer\000"
 3130      52784275 
 3130      66666572 
 3130      00
 3131              	.LASF36:
 3132 02e4 73697A65 		.ascii	"size\000"
 3132      00
 3133              	.LASF53:
 3134 02e9 50726F63 		.ascii	"ProccessResponse\000"
 3134      63657373 
 3134      52657370 
 3134      6F6E7365 
 3134      00
 3135              	.LASF6:
 3136 02fa 5F5F696E 		.ascii	"__int32_t\000"
 3136      7433325F 
 3136      7400
 3137              	.LASF37:
 3138 0304 62697473 		.ascii	"bits_read\000"
 3138      5F726561 
 3138      6400
 3139              	.LASF29:
 3140 030e 4D657073 		.ascii	"MepsanStore\000"
 3140      616E5374 
 3140      6F726500 
 3141              	.LASF46:
 3142 031a 50756D70 		.ascii	"PumpState\000"
 3142      53746174 
 3142      6500
 3143              	.LASF68:
 3144 0324 50756D70 		.ascii	"PumpCom.c\000"
 3144      436F6D2E 
 3144      6300
 3145              	.LASF30:
 3146 032e 706F7369 		.ascii	"position\000"
 3146      74696F6E 
 3146      00
 3147              	.LASF40:
 3148 0337 47657441 		.ascii	"GetAddress\000"
 3148      64647265 
 3148      737300
 3149              	.LASF59:
 3150 0342 73696465 		.ascii	"side\000"
 3150      00
 3151              	.LASF54:
 3152 0347 56616C69 		.ascii	"ValidateA\000"
 3152      64617465 
 3152      4100
 3153              	.LASF55:
 3154 0351 56616C69 		.ascii	"ValidateB\000"
 3154      64617465 
 3154      4200
 3155              	.LASF69:
 3156 035b 433A5C55 		.ascii	"C:\\Users\\Lenovo\\Documents\\GitHub\\Mepsan\\Mepsa"
ARM GAS  C:\Users\Lenovo\AppData\Local\Temp\ccIrCspy.s 			page 66


 3156      73657273 
 3156      5C4C656E 
 3156      6F766F5C 
 3156      446F6375 
 3157 0388 6E2E6379 		.ascii	"n.cydsn\000"
 3157      64736E00 
 3158              	.LASF64:
 3159 0390 6372635F 		.ascii	"crc_hi\000"
 3159      686900
 3160              	.LASF72:
 3161 0397 47657441 		.ascii	"GetACK\000"
 3161      434B00
 3162              		.ident	"GCC: (GNU Tools for ARM Embedded Processors) 5.4.1 20160609 (release) [ARM/embedded-5-bran
