ARM GAS  C:\Users\Lenovo\AppData\Local\Temp\ccIrCspy.s 			page 1


   1              		.syntax unified
   2              		.cpu cortex-m3
   3              		.fpu softvfp
   4              		.eabi_attribute 20, 1
   5              		.eabi_attribute 21, 1
   6              		.eabi_attribute 23, 3
   7              		.eabi_attribute 24, 1
   8              		.eabi_attribute 25, 1
   9              		.eabi_attribute 26, 1
  10              		.eabi_attribute 30, 6
  11              		.eabi_attribute 34, 1
  12              		.eabi_attribute 18, 4
  13              		.thumb
  14              		.syntax unified
  15              		.file	"PumpCom.c"
  16              		.text
  17              	.Ltext0:
  18              		.cfi_sections	.debug_frame
  19              		.comm	PollCounter,2,2
  20              		.comm	CurrentState,1,1
  21              		.comm	side,1244,4
  22              		.comm	MepsanResponse,50,4
  23              		.comm	MepsanSendTo,50,4
  24              		.comm	PumpAddress,15,4
  25              		.comm	CRC,2,2
  26              		.comm	crc_lo,1,1
  27              		.comm	crc_hi,1,1
  28              		.comm	Positions,1,1
  29              		.comm	dirGbr,1,1
  30              		.section	.text.gen_crc16,"ax",%progbits
  31              		.align	2
  32              		.global	gen_crc16
  33              		.thumb
  34              		.thumb_func
  35              		.type	gen_crc16, %function
  36              	gen_crc16:
  37              	.LFB63:
  38              		.file 1 "PumpCom.c"
   1:PumpCom.c     **** /**
   2:PumpCom.c     ****  * @file PumpCom.c
   3:PumpCom.c     ****  * @author Kugel Electronics
   4:PumpCom.c     ****  * @date 10/04/2018
   5:PumpCom.c     ****  * @brief Comunicación con el dispensador.
   6:PumpCom.c     ****  *
   7:PumpCom.c     ****  * Here typically goes a more extensive explanation of what the header
   8:PumpCom.c     ****  * defines. Doxygens tags are words preceeded by either a backslash @\
   9:PumpCom.c     ****  * or by an at symbol @@.
  10:PumpCom.c     ****  * @see http://www.stack.nl/~dimitri/doxygen/docblocks.html
  11:PumpCom.c     ****  * @see http://www.stack.nl/~dimitri/doxygen/commands.html
  12:PumpCom.c     ****  */
  13:PumpCom.c     **** 
  14:PumpCom.c     **** /* [] END OF FILE */
  15:PumpCom.c     **** 
  16:PumpCom.c     **** #include <GVar.h>
  17:PumpCom.c     **** 
  18:PumpCom.c     **** #define CRC16 0x8005
  19:PumpCom.c     **** 
ARM GAS  C:\Users\Lenovo\AppData\Local\Temp\ccIrCspy.s 			page 2


  20:PumpCom.c     **** uint16_t gen_crc16(const uint8_t *data, uint16_t size)
  21:PumpCom.c     **** {
  39              		.loc 1 21 0
  40              		.cfi_startproc
  41              		@ args = 0, pretend = 0, frame = 32
  42              		@ frame_needed = 1, uses_anonymous_args = 0
  43              		@ link register save eliminated.
  44 0000 80B4     		push	{r7}
  45              		.cfi_def_cfa_offset 4
  46              		.cfi_offset 7, -4
  47 0002 89B0     		sub	sp, sp, #36
  48              		.cfi_def_cfa_offset 40
  49 0004 00AF     		add	r7, sp, #0
  50              		.cfi_def_cfa_register 7
  51 0006 7860     		str	r0, [r7, #4]
  52 0008 0B46     		mov	r3, r1
  53 000a 7B80     		strh	r3, [r7, #2]	@ movhi
  22:PumpCom.c     ****     uint16_t out = 0;
  54              		.loc 1 22 0
  55 000c 0023     		movs	r3, #0
  56 000e FB83     		strh	r3, [r7, #30]	@ movhi
  23:PumpCom.c     ****     int bits_read = 0, bit_flag;
  57              		.loc 1 23 0
  58 0010 0023     		movs	r3, #0
  59 0012 BB61     		str	r3, [r7, #24]
  24:PumpCom.c     **** 
  25:PumpCom.c     ****     /* Sanity check: */
  26:PumpCom.c     ****     if(data == NULL)
  60              		.loc 1 26 0
  61 0014 7B68     		ldr	r3, [r7, #4]
  62 0016 002B     		cmp	r3, #0
  63 0018 2FD1     		bne	.L4
  27:PumpCom.c     ****         return 0;
  64              		.loc 1 27 0
  65 001a 0023     		movs	r3, #0
  66 001c 68E0     		b	.L3
  67              	.L6:
  28:PumpCom.c     **** 
  29:PumpCom.c     ****     while(size > 0)
  30:PumpCom.c     ****     {
  31:PumpCom.c     ****         bit_flag = out >> 15;
  68              		.loc 1 31 0
  69 001e FB8B     		ldrh	r3, [r7, #30]
  70 0020 DB0B     		lsrs	r3, r3, #15
  71 0022 9BB2     		uxth	r3, r3
  72 0024 BB60     		str	r3, [r7, #8]
  32:PumpCom.c     **** 
  33:PumpCom.c     ****         /* Get next bit: */
  34:PumpCom.c     ****         out <<= 1;
  73              		.loc 1 34 0
  74 0026 FB8B     		ldrh	r3, [r7, #30]	@ movhi
  75 0028 5B00     		lsls	r3, r3, #1
  76 002a FB83     		strh	r3, [r7, #30]	@ movhi
  35:PumpCom.c     ****         out |= (*data >> bits_read) & 1; // item a) work from the least significant bits
  77              		.loc 1 35 0
  78 002c 7B68     		ldr	r3, [r7, #4]
  79 002e 1B78     		ldrb	r3, [r3]	@ zero_extendqisi2
ARM GAS  C:\Users\Lenovo\AppData\Local\Temp\ccIrCspy.s 			page 3


  80 0030 1A46     		mov	r2, r3
  81 0032 BB69     		ldr	r3, [r7, #24]
  82 0034 42FA03F3 		asr	r3, r2, r3
  83 0038 1BB2     		sxth	r3, r3
  84 003a 03F00103 		and	r3, r3, #1
  85 003e 1AB2     		sxth	r2, r3
  86 0040 B7F91E30 		ldrsh	r3, [r7, #30]
  87 0044 1343     		orrs	r3, r3, r2
  88 0046 1BB2     		sxth	r3, r3
  89 0048 FB83     		strh	r3, [r7, #30]	@ movhi
  36:PumpCom.c     **** 
  37:PumpCom.c     ****         /* Increment bit counter: */
  38:PumpCom.c     ****         bits_read++;
  90              		.loc 1 38 0
  91 004a BB69     		ldr	r3, [r7, #24]
  92 004c 0133     		adds	r3, r3, #1
  93 004e BB61     		str	r3, [r7, #24]
  39:PumpCom.c     ****         if(bits_read > 7)
  94              		.loc 1 39 0
  95 0050 BB69     		ldr	r3, [r7, #24]
  96 0052 072B     		cmp	r3, #7
  97 0054 07DD     		ble	.L5
  40:PumpCom.c     ****         {
  41:PumpCom.c     ****             bits_read = 0;
  98              		.loc 1 41 0
  99 0056 0023     		movs	r3, #0
 100 0058 BB61     		str	r3, [r7, #24]
  42:PumpCom.c     ****             data++;
 101              		.loc 1 42 0
 102 005a 7B68     		ldr	r3, [r7, #4]
 103 005c 0133     		adds	r3, r3, #1
 104 005e 7B60     		str	r3, [r7, #4]
  43:PumpCom.c     ****             size--;
 105              		.loc 1 43 0
 106 0060 7B88     		ldrh	r3, [r7, #2]
 107 0062 013B     		subs	r3, r3, #1
 108 0064 7B80     		strh	r3, [r7, #2]	@ movhi
 109              	.L5:
  44:PumpCom.c     ****         }
  45:PumpCom.c     **** 
  46:PumpCom.c     ****         /* Cycle check: */
  47:PumpCom.c     ****         if(bit_flag)
 110              		.loc 1 47 0
 111 0066 BB68     		ldr	r3, [r7, #8]
 112 0068 002B     		cmp	r3, #0
 113 006a 06D0     		beq	.L4
  48:PumpCom.c     ****             out ^= CRC16;
 114              		.loc 1 48 0
 115 006c FB8B     		ldrh	r3, [r7, #30]	@ movhi
 116 006e 83F4FF43 		eor	r3, r3, #32640
 117 0072 83F07A03 		eor	r3, r3, #122
 118 0076 DB43     		mvns	r3, r3
 119 0078 FB83     		strh	r3, [r7, #30]	@ movhi
 120              	.L4:
  29:PumpCom.c     ****     {
 121              		.loc 1 29 0
 122 007a 7B88     		ldrh	r3, [r7, #2]
ARM GAS  C:\Users\Lenovo\AppData\Local\Temp\ccIrCspy.s 			page 4


 123 007c 002B     		cmp	r3, #0
 124 007e CED1     		bne	.L6
  49:PumpCom.c     **** 
  50:PumpCom.c     ****     }
  51:PumpCom.c     **** 
  52:PumpCom.c     ****     // item b) "push out" the last 16 bits
  53:PumpCom.c     ****     int i;
  54:PumpCom.c     ****     for (i = 0; i < 16; ++i) {
 125              		.loc 1 54 0
 126 0080 0023     		movs	r3, #0
 127 0082 7B61     		str	r3, [r7, #20]
 128 0084 13E0     		b	.L7
 129              	.L9:
  55:PumpCom.c     ****         bit_flag = out >> 15;
 130              		.loc 1 55 0
 131 0086 FB8B     		ldrh	r3, [r7, #30]
 132 0088 DB0B     		lsrs	r3, r3, #15
 133 008a 9BB2     		uxth	r3, r3
 134 008c BB60     		str	r3, [r7, #8]
  56:PumpCom.c     ****         out <<= 1;
 135              		.loc 1 56 0
 136 008e FB8B     		ldrh	r3, [r7, #30]	@ movhi
 137 0090 5B00     		lsls	r3, r3, #1
 138 0092 FB83     		strh	r3, [r7, #30]	@ movhi
  57:PumpCom.c     ****         if(bit_flag)
 139              		.loc 1 57 0
 140 0094 BB68     		ldr	r3, [r7, #8]
 141 0096 002B     		cmp	r3, #0
 142 0098 06D0     		beq	.L8
  58:PumpCom.c     ****             out ^= CRC16;
 143              		.loc 1 58 0
 144 009a FB8B     		ldrh	r3, [r7, #30]	@ movhi
 145 009c 83F4FF43 		eor	r3, r3, #32640
 146 00a0 83F07A03 		eor	r3, r3, #122
 147 00a4 DB43     		mvns	r3, r3
 148 00a6 FB83     		strh	r3, [r7, #30]	@ movhi
 149              	.L8:
  54:PumpCom.c     ****         bit_flag = out >> 15;
 150              		.loc 1 54 0 discriminator 2
 151 00a8 7B69     		ldr	r3, [r7, #20]
 152 00aa 0133     		adds	r3, r3, #1
 153 00ac 7B61     		str	r3, [r7, #20]
 154              	.L7:
  54:PumpCom.c     ****         bit_flag = out >> 15;
 155              		.loc 1 54 0 is_stmt 0 discriminator 1
 156 00ae 7B69     		ldr	r3, [r7, #20]
 157 00b0 0F2B     		cmp	r3, #15
 158 00b2 E8DD     		ble	.L9
  59:PumpCom.c     ****     }
  60:PumpCom.c     **** 
  61:PumpCom.c     ****     // item c) reverse the bits
  62:PumpCom.c     ****     uint16_t crc = 0;
 159              		.loc 1 62 0 is_stmt 1
 160 00b4 0023     		movs	r3, #0
 161 00b6 7B82     		strh	r3, [r7, #18]	@ movhi
  63:PumpCom.c     ****     i = 0x8000;
 162              		.loc 1 63 0
ARM GAS  C:\Users\Lenovo\AppData\Local\Temp\ccIrCspy.s 			page 5


 163 00b8 4FF40043 		mov	r3, #32768
 164 00bc 7B61     		str	r3, [r7, #20]
  64:PumpCom.c     ****     int j = 0x0001;
 165              		.loc 1 64 0
 166 00be 0123     		movs	r3, #1
 167 00c0 FB60     		str	r3, [r7, #12]
  65:PumpCom.c     ****     for (; i != 0; i >>=1, j <<= 1) {
 168              		.loc 1 65 0
 169 00c2 11E0     		b	.L10
 170              	.L12:
  66:PumpCom.c     ****         if (i & out) crc |= j;
 171              		.loc 1 66 0
 172 00c4 FA8B     		ldrh	r2, [r7, #30]
 173 00c6 7B69     		ldr	r3, [r7, #20]
 174 00c8 1340     		ands	r3, r3, r2
 175 00ca 002B     		cmp	r3, #0
 176 00cc 06D0     		beq	.L11
 177              		.loc 1 66 0 is_stmt 0 discriminator 1
 178 00ce FB68     		ldr	r3, [r7, #12]
 179 00d0 1AB2     		sxth	r2, r3
 180 00d2 B7F91230 		ldrsh	r3, [r7, #18]
 181 00d6 1343     		orrs	r3, r3, r2
 182 00d8 1BB2     		sxth	r3, r3
 183 00da 7B82     		strh	r3, [r7, #18]	@ movhi
 184              	.L11:
  65:PumpCom.c     ****     for (; i != 0; i >>=1, j <<= 1) {
 185              		.loc 1 65 0 is_stmt 1
 186 00dc 7B69     		ldr	r3, [r7, #20]
 187 00de 5B10     		asrs	r3, r3, #1
 188 00e0 7B61     		str	r3, [r7, #20]
 189 00e2 FB68     		ldr	r3, [r7, #12]
 190 00e4 5B00     		lsls	r3, r3, #1
 191 00e6 FB60     		str	r3, [r7, #12]
 192              	.L10:
  65:PumpCom.c     ****     for (; i != 0; i >>=1, j <<= 1) {
 193              		.loc 1 65 0 is_stmt 0 discriminator 1
 194 00e8 7B69     		ldr	r3, [r7, #20]
 195 00ea 002B     		cmp	r3, #0
 196 00ec EAD1     		bne	.L12
  67:PumpCom.c     ****     }
  68:PumpCom.c     **** 
  69:PumpCom.c     ****     return crc;
 197              		.loc 1 69 0 is_stmt 1
 198 00ee 7B8A     		ldrh	r3, [r7, #18]
 199              	.L3:
  70:PumpCom.c     **** }
 200              		.loc 1 70 0
 201 00f0 1846     		mov	r0, r3
 202 00f2 2437     		adds	r7, r7, #36
 203              		.cfi_def_cfa_offset 4
 204 00f4 BD46     		mov	sp, r7
 205              		.cfi_def_cfa_register 13
 206              		@ sp needed
 207 00f6 80BC     		pop	{r7}
 208              		.cfi_restore 7
 209              		.cfi_def_cfa_offset 0
 210 00f8 7047     		bx	lr
ARM GAS  C:\Users\Lenovo\AppData\Local\Temp\ccIrCspy.s 			page 6


 211              		.cfi_endproc
 212              	.LFE63:
 213              		.size	gen_crc16, .-gen_crc16
 214 00fa 00BF     		.section	.text.GetAddress,"ax",%progbits
 215              		.align	2
 216              		.global	GetAddress
 217              		.thumb
 218              		.thumb_func
 219              		.type	GetAddress, %function
 220              	GetAddress:
 221              	.LFB64:
  71:PumpCom.c     **** 
  72:PumpCom.c     **** 
  73:PumpCom.c     **** /*******************************************************************************
  74:PumpCom.c     **** * Function Name: GetAddress
  75:PumpCom.c     **** ********************************************************************************
  76:PumpCom.c     **** *
  77:PumpCom.c     **** *
  78:PumpCom.c     **** *******************************************************************************/
  79:PumpCom.c     **** uint8 GetAddress (uint8 pos){     
 222              		.loc 1 79 0
 223              		.cfi_startproc
 224              		@ args = 0, pretend = 0, frame = 16
 225              		@ frame_needed = 1, uses_anonymous_args = 0
 226 0000 90B5     		push	{r4, r7, lr}
 227              		.cfi_def_cfa_offset 12
 228              		.cfi_offset 4, -12
 229              		.cfi_offset 7, -8
 230              		.cfi_offset 14, -4
 231 0002 85B0     		sub	sp, sp, #20
 232              		.cfi_def_cfa_offset 32
 233 0004 00AF     		add	r7, sp, #0
 234              		.cfi_def_cfa_register 7
 235 0006 0346     		mov	r3, r0
 236 0008 FB71     		strb	r3, [r7, #7]
  80:PumpCom.c     ****     side.a.dir = 0xFF;
 237              		.loc 1 80 0
 238 000a 274B     		ldr	r3, .L18
 239 000c FF22     		movs	r2, #255
 240 000e 1A70     		strb	r2, [r3]
  81:PumpCom.c     ****     side.b.dir = 0xFF;
 241              		.loc 1 81 0
 242 0010 254B     		ldr	r3, .L18
 243 0012 FF22     		movs	r2, #255
 244 0014 83F83721 		strb	r2, [r3, #311]
  82:PumpCom.c     ****     side.c.dir = 0xFF;
 245              		.loc 1 82 0
 246 0018 234B     		ldr	r3, .L18
 247 001a FF22     		movs	r2, #255
 248 001c 83F86E22 		strb	r2, [r3, #622]
  83:PumpCom.c     ****     side.d.dir = 0xFF;
 249              		.loc 1 83 0
 250 0020 214B     		ldr	r3, .L18
 251 0022 FF22     		movs	r2, #255
 252 0024 83F8A523 		strb	r2, [r3, #933]
  84:PumpCom.c     ****     uint8 size;
  85:PumpCom.c     ****     EnablePin_Write (1u);
ARM GAS  C:\Users\Lenovo\AppData\Local\Temp\ccIrCspy.s 			page 7


 253              		.loc 1 85 0
 254 0028 0120     		movs	r0, #1
 255 002a FFF7FEFF 		bl	EnablePin_Write
  86:PumpCom.c     ****     UART_1_PutChar((0x50|pos));
 256              		.loc 1 86 0
 257 002e FB79     		ldrb	r3, [r7, #7]
 258 0030 43F05003 		orr	r3, r3, #80
 259 0034 DBB2     		uxtb	r3, r3
 260 0036 1846     		mov	r0, r3
 261 0038 FFF7FEFF 		bl	UART_1_PutChar
  87:PumpCom.c     ****     UART_1_PutChar(0x20);
 262              		.loc 1 87 0
 263 003c 2020     		movs	r0, #32
 264 003e FFF7FEFF 		bl	UART_1_PutChar
  88:PumpCom.c     ****     UART_1_PutChar(0xFA); 
 265              		.loc 1 88 0
 266 0042 FA20     		movs	r0, #250
 267 0044 FFF7FEFF 		bl	UART_1_PutChar
  89:PumpCom.c     ****     CyDelay(4);
 268              		.loc 1 89 0
 269 0048 0420     		movs	r0, #4
 270 004a FFF7FEFF 		bl	CyDelay
  90:PumpCom.c     ****     EnablePin_Write (0u);
 271              		.loc 1 90 0
 272 004e 0020     		movs	r0, #0
 273 0050 FFF7FEFF 		bl	EnablePin_Write
  91:PumpCom.c     ****     size = UART_1_GetRxBufferSize();
 274              		.loc 1 91 0
 275 0054 FFF7FEFF 		bl	UART_1_GetRxBufferSize
 276 0058 0346     		mov	r3, r0
 277 005a BB73     		strb	r3, [r7, #14]
 278              	.LBB2:
  92:PumpCom.c     ****     for(uint8 MepRx = 0; MepRx < size; MepRx++){
 279              		.loc 1 92 0
 280 005c 0023     		movs	r3, #0
 281 005e FB73     		strb	r3, [r7, #15]
 282 0060 09E0     		b	.L14
 283              	.L15:
  93:PumpCom.c     ****        MepsanResponse[MepRx] = UART_1_ReadRxData();        
 284              		.loc 1 93 0 discriminator 3
 285 0062 FC7B     		ldrb	r4, [r7, #15]	@ zero_extendqisi2
 286 0064 FFF7FEFF 		bl	UART_1_ReadRxData
 287 0068 0346     		mov	r3, r0
 288 006a 1A46     		mov	r2, r3
 289 006c 0F4B     		ldr	r3, .L18+4
 290 006e 1A55     		strb	r2, [r3, r4]
  92:PumpCom.c     ****     for(uint8 MepRx = 0; MepRx < size; MepRx++){
 291              		.loc 1 92 0 discriminator 3
 292 0070 FB7B     		ldrb	r3, [r7, #15]	@ zero_extendqisi2
 293 0072 0133     		adds	r3, r3, #1
 294 0074 FB73     		strb	r3, [r7, #15]
 295              	.L14:
  92:PumpCom.c     ****     for(uint8 MepRx = 0; MepRx < size; MepRx++){
 296              		.loc 1 92 0 is_stmt 0 discriminator 1
 297 0076 FA7B     		ldrb	r2, [r7, #15]	@ zero_extendqisi2
 298 0078 BB7B     		ldrb	r3, [r7, #14]	@ zero_extendqisi2
 299 007a 9A42     		cmp	r2, r3
ARM GAS  C:\Users\Lenovo\AppData\Local\Temp\ccIrCspy.s 			page 8


 300 007c F1D3     		bcc	.L15
 301              	.LBE2:
  94:PumpCom.c     ****     }
  95:PumpCom.c     ****     UART_1_ClearRxBuffer(); 
 302              		.loc 1 95 0 is_stmt 1
 303 007e FFF7FEFF 		bl	UART_1_ClearRxBuffer
  96:PumpCom.c     ****     CyDelay(300); 
 304              		.loc 1 96 0
 305 0082 4FF49670 		mov	r0, #300
 306 0086 FFF7FEFF 		bl	CyDelay
  97:PumpCom.c     ****     if(size>=1){              
 307              		.loc 1 97 0
 308 008a BB7B     		ldrb	r3, [r7, #14]	@ zero_extendqisi2
 309 008c 002B     		cmp	r3, #0
 310 008e 05D0     		beq	.L16
  98:PumpCom.c     ****         return MepsanResponse[0] & 0x0F;
 311              		.loc 1 98 0
 312 0090 064B     		ldr	r3, .L18+4
 313 0092 1B78     		ldrb	r3, [r3]	@ zero_extendqisi2
 314 0094 03F00F03 		and	r3, r3, #15
 315 0098 DBB2     		uxtb	r3, r3
 316 009a 00E0     		b	.L17
 317              	.L16:
  99:PumpCom.c     ****         
 100:PumpCom.c     ****     }else{
 101:PumpCom.c     ****        return 0xFF;
 318              		.loc 1 101 0
 319 009c FF23     		movs	r3, #255
 320              	.L17:
 102:PumpCom.c     ****     }
 103:PumpCom.c     **** }
 321              		.loc 1 103 0
 322 009e 1846     		mov	r0, r3
 323 00a0 1437     		adds	r7, r7, #20
 324              		.cfi_def_cfa_offset 12
 325 00a2 BD46     		mov	sp, r7
 326              		.cfi_def_cfa_register 13
 327              		@ sp needed
 328 00a4 90BD     		pop	{r4, r7, pc}
 329              	.L19:
 330 00a6 00BF     		.align	2
 331              	.L18:
 332 00a8 00000000 		.word	side
 333 00ac 00000000 		.word	MepsanResponse
 334              		.cfi_endproc
 335              	.LFE64:
 336              		.size	GetAddress, .-GetAddress
 337              		.section	.text.Authorize,"ax",%progbits
 338              		.align	2
 339              		.global	Authorize
 340              		.thumb
 341              		.thumb_func
 342              		.type	Authorize, %function
 343              	Authorize:
 344              	.LFB65:
 104:PumpCom.c     **** 
 105:PumpCom.c     **** 
ARM GAS  C:\Users\Lenovo\AppData\Local\Temp\ccIrCspy.s 			page 9


 106:PumpCom.c     **** /*******************************************************************************
 107:PumpCom.c     **** * Function Name: ReturnStatus
 108:PumpCom.c     **** ********************************************************************************
 109:PumpCom.c     **** *
 110:PumpCom.c     **** *
 111:PumpCom.c     **** *******************************************************************************/
 112:PumpCom.c     **** uint8 Authorize(uint8 address){
 345              		.loc 1 112 0
 346              		.cfi_startproc
 347              		@ args = 0, pretend = 0, frame = 16
 348              		@ frame_needed = 1, uses_anonymous_args = 0
 349 0000 80B5     		push	{r7, lr}
 350              		.cfi_def_cfa_offset 8
 351              		.cfi_offset 7, -8
 352              		.cfi_offset 14, -4
 353 0002 84B0     		sub	sp, sp, #16
 354              		.cfi_def_cfa_offset 24
 355 0004 00AF     		add	r7, sp, #0
 356              		.cfi_def_cfa_register 7
 357 0006 0346     		mov	r3, r0
 358 0008 FB71     		strb	r3, [r7, #7]
 359              	.LBB3:
 113:PumpCom.c     ****     uint8 size, status;    
 114:PumpCom.c     ****     for(uint8 x = 0; x < 50; x ++){
 360              		.loc 1 114 0
 361 000a 0023     		movs	r3, #0
 362 000c FB73     		strb	r3, [r7, #15]
 363 000e 06E0     		b	.L21
 364              	.L22:
 115:PumpCom.c     ****         MepsanSendTo[x] = 0x00;
 365              		.loc 1 115 0 discriminator 3
 366 0010 FB7B     		ldrb	r3, [r7, #15]	@ zero_extendqisi2
 367 0012 2E4A     		ldr	r2, .L26
 368 0014 0021     		movs	r1, #0
 369 0016 D154     		strb	r1, [r2, r3]
 114:PumpCom.c     ****         MepsanSendTo[x] = 0x00;
 370              		.loc 1 114 0 discriminator 3
 371 0018 FB7B     		ldrb	r3, [r7, #15]	@ zero_extendqisi2
 372 001a 0133     		adds	r3, r3, #1
 373 001c FB73     		strb	r3, [r7, #15]
 374              	.L21:
 114:PumpCom.c     ****         MepsanSendTo[x] = 0x00;
 375              		.loc 1 114 0 is_stmt 0 discriminator 1
 376 001e FB7B     		ldrb	r3, [r7, #15]	@ zero_extendqisi2
 377 0020 312B     		cmp	r3, #49
 378 0022 F5D9     		bls	.L22
 379              	.LBE3:
 116:PumpCom.c     ****     }
 117:PumpCom.c     ****     EnablePin_Write (1u);
 380              		.loc 1 117 0 is_stmt 1
 381 0024 0120     		movs	r0, #1
 382 0026 FFF7FEFF 		bl	EnablePin_Write
 118:PumpCom.c     ****     MepsanSendTo[0] = (0x50|address);
 383              		.loc 1 118 0
 384 002a FB79     		ldrb	r3, [r7, #7]
 385 002c 43F05003 		orr	r3, r3, #80
 386 0030 DAB2     		uxtb	r2, r3
ARM GAS  C:\Users\Lenovo\AppData\Local\Temp\ccIrCspy.s 			page 10


 387 0032 264B     		ldr	r3, .L26
 388 0034 1A70     		strb	r2, [r3]
 119:PumpCom.c     ****     MepsanSendTo[1] = (0x30);
 389              		.loc 1 119 0
 390 0036 254B     		ldr	r3, .L26
 391 0038 3022     		movs	r2, #48
 392 003a 5A70     		strb	r2, [r3, #1]
 120:PumpCom.c     ****     MepsanSendTo[2] = (0x01);
 393              		.loc 1 120 0
 394 003c 234B     		ldr	r3, .L26
 395 003e 0122     		movs	r2, #1
 396 0040 9A70     		strb	r2, [r3, #2]
 121:PumpCom.c     ****     MepsanSendTo[3] = (0x01);
 397              		.loc 1 121 0
 398 0042 224B     		ldr	r3, .L26
 399 0044 0122     		movs	r2, #1
 400 0046 DA70     		strb	r2, [r3, #3]
 122:PumpCom.c     ****     MepsanSendTo[4] = (MEPSAN_AUTHORIZE);
 401              		.loc 1 122 0
 402 0048 204B     		ldr	r3, .L26
 403 004a 0622     		movs	r2, #6
 404 004c 1A71     		strb	r2, [r3, #4]
 123:PumpCom.c     ****     CRC    = gen_crc16(MepsanSendTo,5);
 405              		.loc 1 123 0
 406 004e 0521     		movs	r1, #5
 407 0050 1E48     		ldr	r0, .L26
 408 0052 FFF7FEFF 		bl	gen_crc16
 409 0056 0346     		mov	r3, r0
 410 0058 1A46     		mov	r2, r3
 411 005a 1D4B     		ldr	r3, .L26+4
 412 005c 1A80     		strh	r2, [r3]	@ movhi
 124:PumpCom.c     ****     crc_hi = (CRC & 0xFF00) >> 8;
 413              		.loc 1 124 0
 414 005e 1C4B     		ldr	r3, .L26+4
 415 0060 1B88     		ldrh	r3, [r3]
 416 0062 1B0A     		lsrs	r3, r3, #8
 417 0064 9BB2     		uxth	r3, r3
 418 0066 DAB2     		uxtb	r2, r3
 419 0068 1A4B     		ldr	r3, .L26+8
 420 006a 1A70     		strb	r2, [r3]
 125:PumpCom.c     ****     crc_lo = (CRC & 0x00FF) ;
 421              		.loc 1 125 0
 422 006c 184B     		ldr	r3, .L26+4
 423 006e 1B88     		ldrh	r3, [r3]
 424 0070 DAB2     		uxtb	r2, r3
 425 0072 194B     		ldr	r3, .L26+12
 426 0074 1A70     		strb	r2, [r3]
 126:PumpCom.c     ****     MepsanSendTo[5] = crc_lo;
 427              		.loc 1 126 0
 428 0076 184B     		ldr	r3, .L26+12
 429 0078 1A78     		ldrb	r2, [r3]	@ zero_extendqisi2
 430 007a 144B     		ldr	r3, .L26
 431 007c 5A71     		strb	r2, [r3, #5]
 127:PumpCom.c     ****     MepsanSendTo[6] = crc_hi;
 432              		.loc 1 127 0
 433 007e 154B     		ldr	r3, .L26+8
 434 0080 1A78     		ldrb	r2, [r3]	@ zero_extendqisi2
ARM GAS  C:\Users\Lenovo\AppData\Local\Temp\ccIrCspy.s 			page 11


 435 0082 124B     		ldr	r3, .L26
 436 0084 9A71     		strb	r2, [r3, #6]
 128:PumpCom.c     ****     MepsanSendTo[7] = 0x03;
 437              		.loc 1 128 0
 438 0086 114B     		ldr	r3, .L26
 439 0088 0322     		movs	r2, #3
 440 008a DA71     		strb	r2, [r3, #7]
 129:PumpCom.c     ****     MepsanSendTo[8] = 0xFA;
 441              		.loc 1 129 0
 442 008c 0F4B     		ldr	r3, .L26
 443 008e FA22     		movs	r2, #250
 444 0090 1A72     		strb	r2, [r3, #8]
 445              	.LBB4:
 130:PumpCom.c     ****     for(uint8 x = 0; x <= 9; x++){    
 446              		.loc 1 130 0
 447 0092 0023     		movs	r3, #0
 448 0094 BB73     		strb	r3, [r7, #14]
 449 0096 08E0     		b	.L23
 450              	.L24:
 131:PumpCom.c     ****         UART_1_PutChar(MepsanSendTo[x]);
 451              		.loc 1 131 0 discriminator 3
 452 0098 BB7B     		ldrb	r3, [r7, #14]	@ zero_extendqisi2
 453 009a 0C4A     		ldr	r2, .L26
 454 009c D35C     		ldrb	r3, [r2, r3]	@ zero_extendqisi2
 455 009e 1846     		mov	r0, r3
 456 00a0 FFF7FEFF 		bl	UART_1_PutChar
 130:PumpCom.c     ****     for(uint8 x = 0; x <= 9; x++){    
 457              		.loc 1 130 0 discriminator 3
 458 00a4 BB7B     		ldrb	r3, [r7, #14]	@ zero_extendqisi2
 459 00a6 0133     		adds	r3, r3, #1
 460 00a8 BB73     		strb	r3, [r7, #14]
 461              	.L23:
 130:PumpCom.c     ****     for(uint8 x = 0; x <= 9; x++){    
 462              		.loc 1 130 0 is_stmt 0 discriminator 1
 463 00aa BB7B     		ldrb	r3, [r7, #14]	@ zero_extendqisi2
 464 00ac 092B     		cmp	r3, #9
 465 00ae F3D9     		bls	.L24
 466              	.LBE4:
 132:PumpCom.c     ****     }
 133:PumpCom.c     ****     CyDelay(4);
 467              		.loc 1 133 0 is_stmt 1
 468 00b0 0420     		movs	r0, #4
 469 00b2 FFF7FEFF 		bl	CyDelay
 134:PumpCom.c     ****     EnablePin_Write (0u);
 470              		.loc 1 134 0
 471 00b6 0020     		movs	r0, #0
 472 00b8 FFF7FEFF 		bl	EnablePin_Write
 135:PumpCom.c     ****     CyDelay(200);
 473              		.loc 1 135 0
 474 00bc C820     		movs	r0, #200
 475 00be FFF7FEFF 		bl	CyDelay
 136:PumpCom.c     ****     return status;
 476              		.loc 1 136 0
 477 00c2 7B7B     		ldrb	r3, [r7, #13]	@ zero_extendqisi2
 137:PumpCom.c     **** }
 478              		.loc 1 137 0
 479 00c4 1846     		mov	r0, r3
ARM GAS  C:\Users\Lenovo\AppData\Local\Temp\ccIrCspy.s 			page 12


 480 00c6 1037     		adds	r7, r7, #16
 481              		.cfi_def_cfa_offset 8
 482 00c8 BD46     		mov	sp, r7
 483              		.cfi_def_cfa_register 13
 484              		@ sp needed
 485 00ca 80BD     		pop	{r7, pc}
 486              	.L27:
 487              		.align	2
 488              	.L26:
 489 00cc 00000000 		.word	MepsanSendTo
 490 00d0 00000000 		.word	CRC
 491 00d4 00000000 		.word	crc_hi
 492 00d8 00000000 		.word	crc_lo
 493              		.cfi_endproc
 494              	.LFE65:
 495              		.size	Authorize, .-Authorize
 496              		.section	.text.ReturnStatus,"ax",%progbits
 497              		.align	2
 498              		.global	ReturnStatus
 499              		.thumb
 500              		.thumb_func
 501              		.type	ReturnStatus, %function
 502              	ReturnStatus:
 503              	.LFB66:
 138:PumpCom.c     **** 
 139:PumpCom.c     **** /*******************************************************************************
 140:PumpCom.c     **** * Function Name: ReturnStatus
 141:PumpCom.c     **** ********************************************************************************
 142:PumpCom.c     **** *
 143:PumpCom.c     **** *
 144:PumpCom.c     **** *******************************************************************************/
 145:PumpCom.c     **** uint8 ReturnStatus(uint8 address){
 504              		.loc 1 145 0
 505              		.cfi_startproc
 506              		@ args = 0, pretend = 0, frame = 16
 507              		@ frame_needed = 1, uses_anonymous_args = 0
 508 0000 90B5     		push	{r4, r7, lr}
 509              		.cfi_def_cfa_offset 12
 510              		.cfi_offset 4, -12
 511              		.cfi_offset 7, -8
 512              		.cfi_offset 14, -4
 513 0002 85B0     		sub	sp, sp, #20
 514              		.cfi_def_cfa_offset 32
 515 0004 00AF     		add	r7, sp, #0
 516              		.cfi_def_cfa_register 7
 517 0006 0346     		mov	r3, r0
 518 0008 FB71     		strb	r3, [r7, #7]
 519              	.LBB5:
 146:PumpCom.c     ****     uint8 size, status;    
 147:PumpCom.c     ****     for(uint8 x = 0; x < 50; x ++){
 520              		.loc 1 147 0
 521 000a 0023     		movs	r3, #0
 522 000c FB73     		strb	r3, [r7, #15]
 523 000e 06E0     		b	.L29
 524              	.L30:
 148:PumpCom.c     ****         MepsanSendTo[x] = 0x00;
 525              		.loc 1 148 0 discriminator 3
ARM GAS  C:\Users\Lenovo\AppData\Local\Temp\ccIrCspy.s 			page 13


 526 0010 FB7B     		ldrb	r3, [r7, #15]	@ zero_extendqisi2
 527 0012 3A4A     		ldr	r2, .L36
 528 0014 0021     		movs	r1, #0
 529 0016 D154     		strb	r1, [r2, r3]
 147:PumpCom.c     ****         MepsanSendTo[x] = 0x00;
 530              		.loc 1 147 0 discriminator 3
 531 0018 FB7B     		ldrb	r3, [r7, #15]	@ zero_extendqisi2
 532 001a 0133     		adds	r3, r3, #1
 533 001c FB73     		strb	r3, [r7, #15]
 534              	.L29:
 147:PumpCom.c     ****         MepsanSendTo[x] = 0x00;
 535              		.loc 1 147 0 is_stmt 0 discriminator 1
 536 001e FB7B     		ldrb	r3, [r7, #15]	@ zero_extendqisi2
 537 0020 312B     		cmp	r3, #49
 538 0022 F5D9     		bls	.L30
 539              	.LBE5:
 149:PumpCom.c     ****     }
 150:PumpCom.c     ****     EnablePin_Write (1u);
 540              		.loc 1 150 0 is_stmt 1
 541 0024 0120     		movs	r0, #1
 542 0026 FFF7FEFF 		bl	EnablePin_Write
 151:PumpCom.c     ****     MepsanSendTo[0] = (0x50|address);
 543              		.loc 1 151 0
 544 002a FB79     		ldrb	r3, [r7, #7]
 545 002c 43F05003 		orr	r3, r3, #80
 546 0030 DAB2     		uxtb	r2, r3
 547 0032 324B     		ldr	r3, .L36
 548 0034 1A70     		strb	r2, [r3]
 152:PumpCom.c     ****     MepsanSendTo[1] = (0x30);
 549              		.loc 1 152 0
 550 0036 314B     		ldr	r3, .L36
 551 0038 3022     		movs	r2, #48
 552 003a 5A70     		strb	r2, [r3, #1]
 153:PumpCom.c     ****     MepsanSendTo[2] = (0x01);
 553              		.loc 1 153 0
 554 003c 2F4B     		ldr	r3, .L36
 555 003e 0122     		movs	r2, #1
 556 0040 9A70     		strb	r2, [r3, #2]
 154:PumpCom.c     ****     MepsanSendTo[3] = (0x01);
 557              		.loc 1 154 0
 558 0042 2E4B     		ldr	r3, .L36
 559 0044 0122     		movs	r2, #1
 560 0046 DA70     		strb	r2, [r3, #3]
 155:PumpCom.c     ****     MepsanSendTo[4] = (MEPSAN_STATE);
 561              		.loc 1 155 0
 562 0048 2C4B     		ldr	r3, .L36
 563 004a 0022     		movs	r2, #0
 564 004c 1A71     		strb	r2, [r3, #4]
 156:PumpCom.c     ****     CRC    = gen_crc16(MepsanSendTo,5);
 565              		.loc 1 156 0
 566 004e 0521     		movs	r1, #5
 567 0050 2A48     		ldr	r0, .L36
 568 0052 FFF7FEFF 		bl	gen_crc16
 569 0056 0346     		mov	r3, r0
 570 0058 1A46     		mov	r2, r3
 571 005a 294B     		ldr	r3, .L36+4
 572 005c 1A80     		strh	r2, [r3]	@ movhi
ARM GAS  C:\Users\Lenovo\AppData\Local\Temp\ccIrCspy.s 			page 14


 157:PumpCom.c     ****     crc_hi = (CRC & 0xFF00) >> 8;
 573              		.loc 1 157 0
 574 005e 284B     		ldr	r3, .L36+4
 575 0060 1B88     		ldrh	r3, [r3]
 576 0062 1B0A     		lsrs	r3, r3, #8
 577 0064 9BB2     		uxth	r3, r3
 578 0066 DAB2     		uxtb	r2, r3
 579 0068 264B     		ldr	r3, .L36+8
 580 006a 1A70     		strb	r2, [r3]
 158:PumpCom.c     ****     crc_lo = (CRC & 0x00FF) ;
 581              		.loc 1 158 0
 582 006c 244B     		ldr	r3, .L36+4
 583 006e 1B88     		ldrh	r3, [r3]
 584 0070 DAB2     		uxtb	r2, r3
 585 0072 254B     		ldr	r3, .L36+12
 586 0074 1A70     		strb	r2, [r3]
 159:PumpCom.c     ****     MepsanSendTo[5] = crc_lo;
 587              		.loc 1 159 0
 588 0076 244B     		ldr	r3, .L36+12
 589 0078 1A78     		ldrb	r2, [r3]	@ zero_extendqisi2
 590 007a 204B     		ldr	r3, .L36
 591 007c 5A71     		strb	r2, [r3, #5]
 160:PumpCom.c     ****     MepsanSendTo[6] = crc_hi;
 592              		.loc 1 160 0
 593 007e 214B     		ldr	r3, .L36+8
 594 0080 1A78     		ldrb	r2, [r3]	@ zero_extendqisi2
 595 0082 1E4B     		ldr	r3, .L36
 596 0084 9A71     		strb	r2, [r3, #6]
 161:PumpCom.c     ****     MepsanSendTo[7] = 0x03;
 597              		.loc 1 161 0
 598 0086 1D4B     		ldr	r3, .L36
 599 0088 0322     		movs	r2, #3
 600 008a DA71     		strb	r2, [r3, #7]
 162:PumpCom.c     ****     MepsanSendTo[8] = 0xFA;
 601              		.loc 1 162 0
 602 008c 1B4B     		ldr	r3, .L36
 603 008e FA22     		movs	r2, #250
 604 0090 1A72     		strb	r2, [r3, #8]
 605              	.LBB6:
 163:PumpCom.c     ****     for(uint8 x = 0; x <= 9; x++){    
 606              		.loc 1 163 0
 607 0092 0023     		movs	r3, #0
 608 0094 BB73     		strb	r3, [r7, #14]
 609 0096 08E0     		b	.L31
 610              	.L32:
 164:PumpCom.c     ****         UART_1_PutChar(MepsanSendTo[x]);
 611              		.loc 1 164 0 discriminator 3
 612 0098 BB7B     		ldrb	r3, [r7, #14]	@ zero_extendqisi2
 613 009a 184A     		ldr	r2, .L36
 614 009c D35C     		ldrb	r3, [r2, r3]	@ zero_extendqisi2
 615 009e 1846     		mov	r0, r3
 616 00a0 FFF7FEFF 		bl	UART_1_PutChar
 163:PumpCom.c     ****     for(uint8 x = 0; x <= 9; x++){    
 617              		.loc 1 163 0 discriminator 3
 618 00a4 BB7B     		ldrb	r3, [r7, #14]	@ zero_extendqisi2
 619 00a6 0133     		adds	r3, r3, #1
 620 00a8 BB73     		strb	r3, [r7, #14]
ARM GAS  C:\Users\Lenovo\AppData\Local\Temp\ccIrCspy.s 			page 15


 621              	.L31:
 163:PumpCom.c     ****     for(uint8 x = 0; x <= 9; x++){    
 622              		.loc 1 163 0 is_stmt 0 discriminator 1
 623 00aa BB7B     		ldrb	r3, [r7, #14]	@ zero_extendqisi2
 624 00ac 092B     		cmp	r3, #9
 625 00ae F3D9     		bls	.L32
 626              	.LBE6:
 165:PumpCom.c     ****     }
 166:PumpCom.c     ****     CyDelay(4);
 627              		.loc 1 166 0 is_stmt 1
 628 00b0 0420     		movs	r0, #4
 629 00b2 FFF7FEFF 		bl	CyDelay
 167:PumpCom.c     ****     EnablePin_Write (0u);
 630              		.loc 1 167 0
 631 00b6 0020     		movs	r0, #0
 632 00b8 FFF7FEFF 		bl	EnablePin_Write
 168:PumpCom.c     ****      size = UART_1_GetRxBufferSize();
 633              		.loc 1 168 0
 634 00bc FFF7FEFF 		bl	UART_1_GetRxBufferSize
 635 00c0 0346     		mov	r3, r0
 636 00c2 3B73     		strb	r3, [r7, #12]
 637              	.LBB7:
 169:PumpCom.c     ****     for(uint8 MepRx = 0; MepRx < size; MepRx++){
 638              		.loc 1 169 0
 639 00c4 0023     		movs	r3, #0
 640 00c6 7B73     		strb	r3, [r7, #13]
 641 00c8 09E0     		b	.L33
 642              	.L34:
 170:PumpCom.c     ****         MepsanResponse[MepRx] = UART_1_ReadRxData();
 643              		.loc 1 170 0 discriminator 3
 644 00ca 7C7B     		ldrb	r4, [r7, #13]	@ zero_extendqisi2
 645 00cc FFF7FEFF 		bl	UART_1_ReadRxData
 646 00d0 0346     		mov	r3, r0
 647 00d2 1A46     		mov	r2, r3
 648 00d4 0D4B     		ldr	r3, .L36+16
 649 00d6 1A55     		strb	r2, [r3, r4]
 169:PumpCom.c     ****     for(uint8 MepRx = 0; MepRx < size; MepRx++){
 650              		.loc 1 169 0 discriminator 3
 651 00d8 7B7B     		ldrb	r3, [r7, #13]	@ zero_extendqisi2
 652 00da 0133     		adds	r3, r3, #1
 653 00dc 7B73     		strb	r3, [r7, #13]
 654              	.L33:
 169:PumpCom.c     ****     for(uint8 MepRx = 0; MepRx < size; MepRx++){
 655              		.loc 1 169 0 is_stmt 0 discriminator 1
 656 00de 7A7B     		ldrb	r2, [r7, #13]	@ zero_extendqisi2
 657 00e0 3B7B     		ldrb	r3, [r7, #12]	@ zero_extendqisi2
 658 00e2 9A42     		cmp	r2, r3
 659 00e4 F1D3     		bcc	.L34
 660              	.LBE7:
 171:PumpCom.c     ****     }       
 172:PumpCom.c     ****     UART_1_ClearRxBuffer();
 661              		.loc 1 172 0 is_stmt 1
 662 00e6 FFF7FEFF 		bl	UART_1_ClearRxBuffer
 173:PumpCom.c     ****     CyDelay(300); 
 663              		.loc 1 173 0
 664 00ea 4FF49670 		mov	r0, #300
 665 00ee FFF7FEFF 		bl	CyDelay
ARM GAS  C:\Users\Lenovo\AppData\Local\Temp\ccIrCspy.s 			page 16


 174:PumpCom.c     ****     return status;
 666              		.loc 1 174 0
 667 00f2 FB7A     		ldrb	r3, [r7, #11]	@ zero_extendqisi2
 175:PumpCom.c     **** }
 668              		.loc 1 175 0
 669 00f4 1846     		mov	r0, r3
 670 00f6 1437     		adds	r7, r7, #20
 671              		.cfi_def_cfa_offset 12
 672 00f8 BD46     		mov	sp, r7
 673              		.cfi_def_cfa_register 13
 674              		@ sp needed
 675 00fa 90BD     		pop	{r4, r7, pc}
 676              	.L37:
 677              		.align	2
 678              	.L36:
 679 00fc 00000000 		.word	MepsanSendTo
 680 0100 00000000 		.word	CRC
 681 0104 00000000 		.word	crc_hi
 682 0108 00000000 		.word	crc_lo
 683 010c 00000000 		.word	MepsanResponse
 684              		.cfi_endproc
 685              	.LFE66:
 686              		.size	ReturnStatus, .-ReturnStatus
 687              		.section	.text.PumpState,"ax",%progbits
 688              		.align	2
 689              		.global	PumpState
 690              		.thumb
 691              		.thumb_func
 692              		.type	PumpState, %function
 693              	PumpState:
 694              	.LFB67:
 176:PumpCom.c     **** 
 177:PumpCom.c     **** /*******************************************************************************
 178:PumpCom.c     **** * Function Name: PumpState
 179:PumpCom.c     **** ********************************************************************************
 180:PumpCom.c     **** *
 181:PumpCom.c     **** *
 182:PumpCom.c     **** *******************************************************************************/
 183:PumpCom.c     **** 
 184:PumpCom.c     **** uint8 PumpState(uint8 address)
 185:PumpCom.c     **** { 
 695              		.loc 1 185 0
 696              		.cfi_startproc
 697              		@ args = 0, pretend = 0, frame = 16
 698              		@ frame_needed = 1, uses_anonymous_args = 0
 699 0000 90B5     		push	{r4, r7, lr}
 700              		.cfi_def_cfa_offset 12
 701              		.cfi_offset 4, -12
 702              		.cfi_offset 7, -8
 703              		.cfi_offset 14, -4
 704 0002 85B0     		sub	sp, sp, #20
 705              		.cfi_def_cfa_offset 32
 706 0004 00AF     		add	r7, sp, #0
 707              		.cfi_def_cfa_register 7
 708 0006 0346     		mov	r3, r0
 709 0008 FB71     		strb	r3, [r7, #7]
 710              	.LBB8:
ARM GAS  C:\Users\Lenovo\AppData\Local\Temp\ccIrCspy.s 			page 17


 186:PumpCom.c     ****     for(uint8 x = 0; x < 50; x ++){
 711              		.loc 1 186 0
 712 000a 0023     		movs	r3, #0
 713 000c FB73     		strb	r3, [r7, #15]
 714 000e 06E0     		b	.L39
 715              	.L40:
 187:PumpCom.c     ****         MepsanResponse[x] = 0x00;
 716              		.loc 1 187 0 discriminator 3
 717 0010 FB7B     		ldrb	r3, [r7, #15]	@ zero_extendqisi2
 718 0012 544A     		ldr	r2, .L57
 719 0014 0021     		movs	r1, #0
 720 0016 D154     		strb	r1, [r2, r3]
 186:PumpCom.c     ****     for(uint8 x = 0; x < 50; x ++){
 721              		.loc 1 186 0 discriminator 3
 722 0018 FB7B     		ldrb	r3, [r7, #15]	@ zero_extendqisi2
 723 001a 0133     		adds	r3, r3, #1
 724 001c FB73     		strb	r3, [r7, #15]
 725              	.L39:
 186:PumpCom.c     ****     for(uint8 x = 0; x < 50; x ++){
 726              		.loc 1 186 0 is_stmt 0 discriminator 1
 727 001e FB7B     		ldrb	r3, [r7, #15]	@ zero_extendqisi2
 728 0020 312B     		cmp	r3, #49
 729 0022 F5D9     		bls	.L40
 730              	.LBE8:
 188:PumpCom.c     ****     }
 189:PumpCom.c     ****     uint8 size;
 190:PumpCom.c     ****     EnablePin_Write (1u);
 731              		.loc 1 190 0 is_stmt 1
 732 0024 0120     		movs	r0, #1
 733 0026 FFF7FEFF 		bl	EnablePin_Write
 191:PumpCom.c     ****     UART_1_PutChar((0x50|address));
 734              		.loc 1 191 0
 735 002a FB79     		ldrb	r3, [r7, #7]
 736 002c 43F05003 		orr	r3, r3, #80
 737 0030 DBB2     		uxtb	r3, r3
 738 0032 1846     		mov	r0, r3
 739 0034 FFF7FEFF 		bl	UART_1_PutChar
 192:PumpCom.c     ****     UART_1_PutChar(0x20);
 740              		.loc 1 192 0
 741 0038 2020     		movs	r0, #32
 742 003a FFF7FEFF 		bl	UART_1_PutChar
 193:PumpCom.c     ****     UART_1_PutChar(0xFA); 
 743              		.loc 1 193 0
 744 003e FA20     		movs	r0, #250
 745 0040 FFF7FEFF 		bl	UART_1_PutChar
 194:PumpCom.c     ****     CyDelay(4);
 746              		.loc 1 194 0
 747 0044 0420     		movs	r0, #4
 748 0046 FFF7FEFF 		bl	CyDelay
 195:PumpCom.c     ****     EnablePin_Write (0u);
 749              		.loc 1 195 0
 750 004a 0020     		movs	r0, #0
 751 004c FFF7FEFF 		bl	EnablePin_Write
 196:PumpCom.c     ****     size = UART_1_GetRxBufferSize();
 752              		.loc 1 196 0
 753 0050 FFF7FEFF 		bl	UART_1_GetRxBufferSize
 754 0054 0346     		mov	r3, r0
ARM GAS  C:\Users\Lenovo\AppData\Local\Temp\ccIrCspy.s 			page 18


 755 0056 7B72     		strb	r3, [r7, #9]
 756              	.LBB9:
 197:PumpCom.c     ****     for(uint8 MepRx = 0; MepRx < size; MepRx++){
 757              		.loc 1 197 0
 758 0058 0023     		movs	r3, #0
 759 005a BB73     		strb	r3, [r7, #14]
 760 005c 09E0     		b	.L41
 761              	.L42:
 198:PumpCom.c     ****         MepsanResponse[MepRx] = UART_1_ReadRxData();
 762              		.loc 1 198 0 discriminator 3
 763 005e BC7B     		ldrb	r4, [r7, #14]	@ zero_extendqisi2
 764 0060 FFF7FEFF 		bl	UART_1_ReadRxData
 765 0064 0346     		mov	r3, r0
 766 0066 1A46     		mov	r2, r3
 767 0068 3E4B     		ldr	r3, .L57
 768 006a 1A55     		strb	r2, [r3, r4]
 197:PumpCom.c     ****     for(uint8 MepRx = 0; MepRx < size; MepRx++){
 769              		.loc 1 197 0 discriminator 3
 770 006c BB7B     		ldrb	r3, [r7, #14]	@ zero_extendqisi2
 771 006e 0133     		adds	r3, r3, #1
 772 0070 BB73     		strb	r3, [r7, #14]
 773              	.L41:
 197:PumpCom.c     ****     for(uint8 MepRx = 0; MepRx < size; MepRx++){
 774              		.loc 1 197 0 is_stmt 0 discriminator 1
 775 0072 BA7B     		ldrb	r2, [r7, #14]	@ zero_extendqisi2
 776 0074 7B7A     		ldrb	r3, [r7, #9]	@ zero_extendqisi2
 777 0076 9A42     		cmp	r2, r3
 778 0078 F1D3     		bcc	.L42
 779              	.LBE9:
 199:PumpCom.c     ****     }
 200:PumpCom.c     ****        
 201:PumpCom.c     ****     UART_1_ClearRxBuffer();
 780              		.loc 1 201 0 is_stmt 1
 781 007a FFF7FEFF 		bl	UART_1_ClearRxBuffer
 202:PumpCom.c     ****     CyDelay(300); 
 782              		.loc 1 202 0
 783 007e 4FF49670 		mov	r0, #300
 784 0082 FFF7FEFF 		bl	CyDelay
 203:PumpCom.c     ****     if(address == side.a.dir){
 785              		.loc 1 203 0
 786 0086 384B     		ldr	r3, .L57+4
 787 0088 1B78     		ldrb	r3, [r3]	@ zero_extendqisi2
 788 008a FA79     		ldrb	r2, [r7, #7]	@ zero_extendqisi2
 789 008c 9A42     		cmp	r2, r3
 790 008e 12D1     		bne	.L43
 791              	.LBB10:
 204:PumpCom.c     ****         for(uint8 MepRx = 0; MepRx < size; MepRx++){
 792              		.loc 1 204 0
 793 0090 0023     		movs	r3, #0
 794 0092 7B73     		strb	r3, [r7, #13]
 795 0094 0BE0     		b	.L44
 796              	.L45:
 205:PumpCom.c     ****             side.a.MepsanStore[MepRx] = MepsanResponse[MepRx];
 797              		.loc 1 205 0 discriminator 3
 798 0096 7B7B     		ldrb	r3, [r7, #13]	@ zero_extendqisi2
 799 0098 7A7B     		ldrb	r2, [r7, #13]	@ zero_extendqisi2
 800 009a 3249     		ldr	r1, .L57
ARM GAS  C:\Users\Lenovo\AppData\Local\Temp\ccIrCspy.s 			page 19


 801 009c 895C     		ldrb	r1, [r1, r2]	@ zero_extendqisi2
 802 009e 324A     		ldr	r2, .L57+4
 803 00a0 1344     		add	r3, r3, r2
 804 00a2 0A46     		mov	r2, r1
 805 00a4 83F80521 		strb	r2, [r3, #261]
 204:PumpCom.c     ****         for(uint8 MepRx = 0; MepRx < size; MepRx++){
 806              		.loc 1 204 0 discriminator 3
 807 00a8 7B7B     		ldrb	r3, [r7, #13]	@ zero_extendqisi2
 808 00aa 0133     		adds	r3, r3, #1
 809 00ac 7B73     		strb	r3, [r7, #13]
 810              	.L44:
 204:PumpCom.c     ****         for(uint8 MepRx = 0; MepRx < size; MepRx++){
 811              		.loc 1 204 0 is_stmt 0 discriminator 1
 812 00ae 7A7B     		ldrb	r2, [r7, #13]	@ zero_extendqisi2
 813 00b0 7B7A     		ldrb	r3, [r7, #9]	@ zero_extendqisi2
 814 00b2 9A42     		cmp	r2, r3
 815 00b4 EFD3     		bcc	.L45
 816              	.L43:
 817              	.LBE10:
 206:PumpCom.c     ****         }
 207:PumpCom.c     ****     }
 208:PumpCom.c     ****     if(address == side.b.dir){
 818              		.loc 1 208 0 is_stmt 1
 819 00b6 2C4B     		ldr	r3, .L57+4
 820 00b8 93F83731 		ldrb	r3, [r3, #311]	@ zero_extendqisi2
 821 00bc FA79     		ldrb	r2, [r7, #7]	@ zero_extendqisi2
 822 00be 9A42     		cmp	r2, r3
 823 00c0 12D1     		bne	.L46
 824              	.LBB11:
 209:PumpCom.c     ****         for(uint8 MepRx = 0; MepRx < size; MepRx++){
 825              		.loc 1 209 0
 826 00c2 0023     		movs	r3, #0
 827 00c4 3B73     		strb	r3, [r7, #12]
 828 00c6 0BE0     		b	.L47
 829              	.L48:
 210:PumpCom.c     ****             side.b.MepsanStore[MepRx] = MepsanResponse[MepRx];
 830              		.loc 1 210 0 discriminator 3
 831 00c8 3B7B     		ldrb	r3, [r7, #12]	@ zero_extendqisi2
 832 00ca 3A7B     		ldrb	r2, [r7, #12]	@ zero_extendqisi2
 833 00cc 2549     		ldr	r1, .L57
 834 00ce 895C     		ldrb	r1, [r1, r2]	@ zero_extendqisi2
 835 00d0 254A     		ldr	r2, .L57+4
 836 00d2 1344     		add	r3, r3, r2
 837 00d4 0A46     		mov	r2, r1
 838 00d6 83F83C22 		strb	r2, [r3, #572]
 209:PumpCom.c     ****         for(uint8 MepRx = 0; MepRx < size; MepRx++){
 839              		.loc 1 209 0 discriminator 3
 840 00da 3B7B     		ldrb	r3, [r7, #12]	@ zero_extendqisi2
 841 00dc 0133     		adds	r3, r3, #1
 842 00de 3B73     		strb	r3, [r7, #12]
 843              	.L47:
 209:PumpCom.c     ****         for(uint8 MepRx = 0; MepRx < size; MepRx++){
 844              		.loc 1 209 0 is_stmt 0 discriminator 1
 845 00e0 3A7B     		ldrb	r2, [r7, #12]	@ zero_extendqisi2
 846 00e2 7B7A     		ldrb	r3, [r7, #9]	@ zero_extendqisi2
 847 00e4 9A42     		cmp	r2, r3
 848 00e6 EFD3     		bcc	.L48
ARM GAS  C:\Users\Lenovo\AppData\Local\Temp\ccIrCspy.s 			page 20


 849              	.L46:
 850              	.LBE11:
 211:PumpCom.c     ****         }
 212:PumpCom.c     ****     }
 213:PumpCom.c     ****     if(address == side.c.dir){
 851              		.loc 1 213 0 is_stmt 1
 852 00e8 1F4B     		ldr	r3, .L57+4
 853 00ea 93F86E32 		ldrb	r3, [r3, #622]	@ zero_extendqisi2
 854 00ee FA79     		ldrb	r2, [r7, #7]	@ zero_extendqisi2
 855 00f0 9A42     		cmp	r2, r3
 856 00f2 12D1     		bne	.L49
 857              	.LBB12:
 214:PumpCom.c     ****         for(uint8 MepRx = 0; MepRx < size; MepRx++){
 858              		.loc 1 214 0
 859 00f4 0023     		movs	r3, #0
 860 00f6 FB72     		strb	r3, [r7, #11]
 861 00f8 0BE0     		b	.L50
 862              	.L51:
 215:PumpCom.c     ****             side.c.MepsanStore[MepRx] = MepsanResponse[MepRx];
 863              		.loc 1 215 0 discriminator 3
 864 00fa FB7A     		ldrb	r3, [r7, #11]	@ zero_extendqisi2
 865 00fc FA7A     		ldrb	r2, [r7, #11]	@ zero_extendqisi2
 866 00fe 1949     		ldr	r1, .L57
 867 0100 895C     		ldrb	r1, [r1, r2]	@ zero_extendqisi2
 868 0102 194A     		ldr	r2, .L57+4
 869 0104 1344     		add	r3, r3, r2
 870 0106 0A46     		mov	r2, r1
 871 0108 83F87323 		strb	r2, [r3, #883]
 214:PumpCom.c     ****         for(uint8 MepRx = 0; MepRx < size; MepRx++){
 872              		.loc 1 214 0 discriminator 3
 873 010c FB7A     		ldrb	r3, [r7, #11]	@ zero_extendqisi2
 874 010e 0133     		adds	r3, r3, #1
 875 0110 FB72     		strb	r3, [r7, #11]
 876              	.L50:
 214:PumpCom.c     ****         for(uint8 MepRx = 0; MepRx < size; MepRx++){
 877              		.loc 1 214 0 is_stmt 0 discriminator 1
 878 0112 FA7A     		ldrb	r2, [r7, #11]	@ zero_extendqisi2
 879 0114 7B7A     		ldrb	r3, [r7, #9]	@ zero_extendqisi2
 880 0116 9A42     		cmp	r2, r3
 881 0118 EFD3     		bcc	.L51
 882              	.L49:
 883              	.LBE12:
 216:PumpCom.c     ****         }
 217:PumpCom.c     ****     }
 218:PumpCom.c     ****     if(address == side.d.dir){
 884              		.loc 1 218 0 is_stmt 1
 885 011a 134B     		ldr	r3, .L57+4
 886 011c 93F8A533 		ldrb	r3, [r3, #933]	@ zero_extendqisi2
 887 0120 FA79     		ldrb	r2, [r7, #7]	@ zero_extendqisi2
 888 0122 9A42     		cmp	r2, r3
 889 0124 12D1     		bne	.L52
 890              	.LBB13:
 219:PumpCom.c     ****         for(uint8 MepRx = 0; MepRx < size; MepRx++){
 891              		.loc 1 219 0
 892 0126 0023     		movs	r3, #0
 893 0128 BB72     		strb	r3, [r7, #10]
 894 012a 0BE0     		b	.L53
ARM GAS  C:\Users\Lenovo\AppData\Local\Temp\ccIrCspy.s 			page 21


 895              	.L54:
 220:PumpCom.c     ****             side.d.MepsanStore[MepRx] = MepsanResponse[MepRx];
 896              		.loc 1 220 0 discriminator 3
 897 012c BB7A     		ldrb	r3, [r7, #10]	@ zero_extendqisi2
 898 012e BA7A     		ldrb	r2, [r7, #10]	@ zero_extendqisi2
 899 0130 0C49     		ldr	r1, .L57
 900 0132 895C     		ldrb	r1, [r1, r2]	@ zero_extendqisi2
 901 0134 0C4A     		ldr	r2, .L57+4
 902 0136 1344     		add	r3, r3, r2
 903 0138 0A46     		mov	r2, r1
 904 013a 83F8AA24 		strb	r2, [r3, #1194]
 219:PumpCom.c     ****         for(uint8 MepRx = 0; MepRx < size; MepRx++){
 905              		.loc 1 219 0 discriminator 3
 906 013e BB7A     		ldrb	r3, [r7, #10]	@ zero_extendqisi2
 907 0140 0133     		adds	r3, r3, #1
 908 0142 BB72     		strb	r3, [r7, #10]
 909              	.L53:
 219:PumpCom.c     ****         for(uint8 MepRx = 0; MepRx < size; MepRx++){
 910              		.loc 1 219 0 is_stmt 0 discriminator 1
 911 0144 BA7A     		ldrb	r2, [r7, #10]	@ zero_extendqisi2
 912 0146 7B7A     		ldrb	r3, [r7, #9]	@ zero_extendqisi2
 913 0148 9A42     		cmp	r2, r3
 914 014a EFD3     		bcc	.L54
 915              	.L52:
 916              	.LBE13:
 221:PumpCom.c     ****         }
 222:PumpCom.c     ****     } 
 223:PumpCom.c     ****     if(size>=1){              
 917              		.loc 1 223 0 is_stmt 1
 918 014c 7B7A     		ldrb	r3, [r7, #9]	@ zero_extendqisi2
 919 014e 002B     		cmp	r3, #0
 920 0150 02D0     		beq	.L55
 224:PumpCom.c     ****         return MepsanResponse[1];
 921              		.loc 1 224 0
 922 0152 044B     		ldr	r3, .L57
 923 0154 5B78     		ldrb	r3, [r3, #1]	@ zero_extendqisi2
 924 0156 00E0     		b	.L56
 925              	.L55:
 225:PumpCom.c     ****     }
 226:PumpCom.c     ****     else{
 227:PumpCom.c     ****        return 0;
 926              		.loc 1 227 0
 927 0158 0023     		movs	r3, #0
 928              	.L56:
 228:PumpCom.c     ****     }
 229:PumpCom.c     ****     
 230:PumpCom.c     **** }
 929              		.loc 1 230 0
 930 015a 1846     		mov	r0, r3
 931 015c 1437     		adds	r7, r7, #20
 932              		.cfi_def_cfa_offset 12
 933 015e BD46     		mov	sp, r7
 934              		.cfi_def_cfa_register 13
 935              		@ sp needed
 936 0160 90BD     		pop	{r4, r7, pc}
 937              	.L58:
 938 0162 00BF     		.align	2
ARM GAS  C:\Users\Lenovo\AppData\Local\Temp\ccIrCspy.s 			page 22


 939              	.L57:
 940 0164 00000000 		.word	MepsanResponse
 941 0168 00000000 		.word	side
 942              		.cfi_endproc
 943              	.LFE67:
 944              		.size	PumpState, .-PumpState
 945              		.section	.text.PriceUpdate,"ax",%progbits
 946              		.align	2
 947              		.global	PriceUpdate
 948              		.thumb
 949              		.thumb_func
 950              		.type	PriceUpdate, %function
 951              	PriceUpdate:
 952              	.LFB68:
 231:PumpCom.c     **** 
 232:PumpCom.c     **** 
 233:PumpCom.c     **** /*******************************************************************************
 234:PumpCom.c     **** * Function Name: PriceUpdate
 235:PumpCom.c     **** ********************************************************************************
 236:PumpCom.c     **** *
 237:PumpCom.c     **** *
 238:PumpCom.c     **** *******************************************************************************/
 239:PumpCom.c     **** 
 240:PumpCom.c     **** uint8 PriceUpdate(uint8 address, uint8 *price)
 241:PumpCom.c     **** { 
 953              		.loc 1 241 0
 954              		.cfi_startproc
 955              		@ args = 0, pretend = 0, frame = 16
 956              		@ frame_needed = 1, uses_anonymous_args = 0
 957 0000 90B5     		push	{r4, r7, lr}
 958              		.cfi_def_cfa_offset 12
 959              		.cfi_offset 4, -12
 960              		.cfi_offset 7, -8
 961              		.cfi_offset 14, -4
 962 0002 85B0     		sub	sp, sp, #20
 963              		.cfi_def_cfa_offset 32
 964 0004 00AF     		add	r7, sp, #0
 965              		.cfi_def_cfa_register 7
 966 0006 0346     		mov	r3, r0
 967 0008 3960     		str	r1, [r7]
 968 000a FB71     		strb	r3, [r7, #7]
 242:PumpCom.c     ****     uint8 size;
 243:PumpCom.c     ****     EnablePin_Write (1u);
 969              		.loc 1 243 0
 970 000c 0120     		movs	r0, #1
 971 000e FFF7FEFF 		bl	EnablePin_Write
 244:PumpCom.c     ****     MepsanSendTo[0] = (0x50|address);
 972              		.loc 1 244 0
 973 0012 FB79     		ldrb	r3, [r7, #7]
 974 0014 43F05003 		orr	r3, r3, #80
 975 0018 DAB2     		uxtb	r2, r3
 976 001a 3A4B     		ldr	r3, .L66
 977 001c 1A70     		strb	r2, [r3]
 245:PumpCom.c     ****     MepsanSendTo[1] = (0x30);
 978              		.loc 1 245 0
 979 001e 394B     		ldr	r3, .L66
 980 0020 3022     		movs	r2, #48
ARM GAS  C:\Users\Lenovo\AppData\Local\Temp\ccIrCspy.s 			page 23


 981 0022 5A70     		strb	r2, [r3, #1]
 246:PumpCom.c     ****     MepsanSendTo[2] = (0x05);
 982              		.loc 1 246 0
 983 0024 374B     		ldr	r3, .L66
 984 0026 0522     		movs	r2, #5
 985 0028 9A70     		strb	r2, [r3, #2]
 247:PumpCom.c     ****     MepsanSendTo[3] = (0x03); //Data bytes in transaction
 986              		.loc 1 247 0
 987 002a 364B     		ldr	r3, .L66
 988 002c 0322     		movs	r2, #3
 989 002e DA70     		strb	r2, [r3, #3]
 248:PumpCom.c     ****     MepsanSendTo[4] = (price[0]);
 990              		.loc 1 248 0
 991 0030 3B68     		ldr	r3, [r7]
 992 0032 1A78     		ldrb	r2, [r3]	@ zero_extendqisi2
 993 0034 334B     		ldr	r3, .L66
 994 0036 1A71     		strb	r2, [r3, #4]
 249:PumpCom.c     ****     MepsanSendTo[5] = (price[1]);
 995              		.loc 1 249 0
 996 0038 3B68     		ldr	r3, [r7]
 997 003a 5A78     		ldrb	r2, [r3, #1]	@ zero_extendqisi2
 998 003c 314B     		ldr	r3, .L66
 999 003e 5A71     		strb	r2, [r3, #5]
 250:PumpCom.c     ****     MepsanSendTo[6] = (price[2]);
 1000              		.loc 1 250 0
 1001 0040 3B68     		ldr	r3, [r7]
 1002 0042 9A78     		ldrb	r2, [r3, #2]	@ zero_extendqisi2
 1003 0044 2F4B     		ldr	r3, .L66
 1004 0046 9A71     		strb	r2, [r3, #6]
 251:PumpCom.c     ****     CRC    = gen_crc16(MepsanSendTo,7);
 1005              		.loc 1 251 0
 1006 0048 0721     		movs	r1, #7
 1007 004a 2E48     		ldr	r0, .L66
 1008 004c FFF7FEFF 		bl	gen_crc16
 1009 0050 0346     		mov	r3, r0
 1010 0052 1A46     		mov	r2, r3
 1011 0054 2C4B     		ldr	r3, .L66+4
 1012 0056 1A80     		strh	r2, [r3]	@ movhi
 252:PumpCom.c     ****     crc_hi = (CRC & 0xFF00) >> 8;
 1013              		.loc 1 252 0
 1014 0058 2B4B     		ldr	r3, .L66+4
 1015 005a 1B88     		ldrh	r3, [r3]
 1016 005c 1B0A     		lsrs	r3, r3, #8
 1017 005e 9BB2     		uxth	r3, r3
 1018 0060 DAB2     		uxtb	r2, r3
 1019 0062 2A4B     		ldr	r3, .L66+8
 1020 0064 1A70     		strb	r2, [r3]
 253:PumpCom.c     ****     crc_lo = (CRC & 0x00FF) ;
 1021              		.loc 1 253 0
 1022 0066 284B     		ldr	r3, .L66+4
 1023 0068 1B88     		ldrh	r3, [r3]
 1024 006a DAB2     		uxtb	r2, r3
 1025 006c 284B     		ldr	r3, .L66+12
 1026 006e 1A70     		strb	r2, [r3]
 254:PumpCom.c     ****     MepsanSendTo[7] = crc_lo;
 1027              		.loc 1 254 0
 1028 0070 274B     		ldr	r3, .L66+12
ARM GAS  C:\Users\Lenovo\AppData\Local\Temp\ccIrCspy.s 			page 24


 1029 0072 1A78     		ldrb	r2, [r3]	@ zero_extendqisi2
 1030 0074 234B     		ldr	r3, .L66
 1031 0076 DA71     		strb	r2, [r3, #7]
 255:PumpCom.c     ****     MepsanSendTo[8] = crc_hi;
 1032              		.loc 1 255 0
 1033 0078 244B     		ldr	r3, .L66+8
 1034 007a 1A78     		ldrb	r2, [r3]	@ zero_extendqisi2
 1035 007c 214B     		ldr	r3, .L66
 1036 007e 1A72     		strb	r2, [r3, #8]
 256:PumpCom.c     ****     MepsanSendTo[9] = 0x03;
 1037              		.loc 1 256 0
 1038 0080 204B     		ldr	r3, .L66
 1039 0082 0322     		movs	r2, #3
 1040 0084 5A72     		strb	r2, [r3, #9]
 257:PumpCom.c     ****     MepsanSendTo[10] = 0xFA; 
 1041              		.loc 1 257 0
 1042 0086 1F4B     		ldr	r3, .L66
 1043 0088 FA22     		movs	r2, #250
 1044 008a 9A72     		strb	r2, [r3, #10]
 1045              	.LBB14:
 258:PumpCom.c     ****     for(uint8 x = 0; x <= 11; x++){    
 1046              		.loc 1 258 0
 1047 008c 0023     		movs	r3, #0
 1048 008e FB73     		strb	r3, [r7, #15]
 1049 0090 08E0     		b	.L60
 1050              	.L61:
 259:PumpCom.c     ****         UART_1_PutChar(MepsanSendTo[x]);
 1051              		.loc 1 259 0 discriminator 3
 1052 0092 FB7B     		ldrb	r3, [r7, #15]	@ zero_extendqisi2
 1053 0094 1B4A     		ldr	r2, .L66
 1054 0096 D35C     		ldrb	r3, [r2, r3]	@ zero_extendqisi2
 1055 0098 1846     		mov	r0, r3
 1056 009a FFF7FEFF 		bl	UART_1_PutChar
 258:PumpCom.c     ****     for(uint8 x = 0; x <= 11; x++){    
 1057              		.loc 1 258 0 discriminator 3
 1058 009e FB7B     		ldrb	r3, [r7, #15]	@ zero_extendqisi2
 1059 00a0 0133     		adds	r3, r3, #1
 1060 00a2 FB73     		strb	r3, [r7, #15]
 1061              	.L60:
 258:PumpCom.c     ****     for(uint8 x = 0; x <= 11; x++){    
 1062              		.loc 1 258 0 is_stmt 0 discriminator 1
 1063 00a4 FB7B     		ldrb	r3, [r7, #15]	@ zero_extendqisi2
 1064 00a6 0B2B     		cmp	r3, #11
 1065 00a8 F3D9     		bls	.L61
 1066              	.LBE14:
 260:PumpCom.c     ****     }
 261:PumpCom.c     ****     CyDelay(4);
 1067              		.loc 1 261 0 is_stmt 1
 1068 00aa 0420     		movs	r0, #4
 1069 00ac FFF7FEFF 		bl	CyDelay
 262:PumpCom.c     ****     EnablePin_Write (0u);
 1070              		.loc 1 262 0
 1071 00b0 0020     		movs	r0, #0
 1072 00b2 FFF7FEFF 		bl	EnablePin_Write
 263:PumpCom.c     ****     size = UART_1_GetRxBufferSize();
 1073              		.loc 1 263 0
 1074 00b6 FFF7FEFF 		bl	UART_1_GetRxBufferSize
ARM GAS  C:\Users\Lenovo\AppData\Local\Temp\ccIrCspy.s 			page 25


 1075 00ba 0346     		mov	r3, r0
 1076 00bc 7B73     		strb	r3, [r7, #13]
 1077              	.LBB15:
 264:PumpCom.c     ****     for(uint8 MepRx = 0; MepRx < size; MepRx++){
 1078              		.loc 1 264 0
 1079 00be 0023     		movs	r3, #0
 1080 00c0 BB73     		strb	r3, [r7, #14]
 1081 00c2 09E0     		b	.L62
 1082              	.L63:
 265:PumpCom.c     ****         MepsanResponse[MepRx] = UART_1_ReadRxData();   
 1083              		.loc 1 265 0 discriminator 3
 1084 00c4 BC7B     		ldrb	r4, [r7, #14]	@ zero_extendqisi2
 1085 00c6 FFF7FEFF 		bl	UART_1_ReadRxData
 1086 00ca 0346     		mov	r3, r0
 1087 00cc 1A46     		mov	r2, r3
 1088 00ce 114B     		ldr	r3, .L66+16
 1089 00d0 1A55     		strb	r2, [r3, r4]
 264:PumpCom.c     ****     for(uint8 MepRx = 0; MepRx < size; MepRx++){
 1090              		.loc 1 264 0 discriminator 3
 1091 00d2 BB7B     		ldrb	r3, [r7, #14]	@ zero_extendqisi2
 1092 00d4 0133     		adds	r3, r3, #1
 1093 00d6 BB73     		strb	r3, [r7, #14]
 1094              	.L62:
 264:PumpCom.c     ****     for(uint8 MepRx = 0; MepRx < size; MepRx++){
 1095              		.loc 1 264 0 is_stmt 0 discriminator 1
 1096 00d8 BA7B     		ldrb	r2, [r7, #14]	@ zero_extendqisi2
 1097 00da 7B7B     		ldrb	r3, [r7, #13]	@ zero_extendqisi2
 1098 00dc 9A42     		cmp	r2, r3
 1099 00de F1D3     		bcc	.L63
 1100              	.LBE15:
 266:PumpCom.c     ****     }
 267:PumpCom.c     ****     UART_1_ClearRxBuffer();
 1101              		.loc 1 267 0 is_stmt 1
 1102 00e0 FFF7FEFF 		bl	UART_1_ClearRxBuffer
 268:PumpCom.c     ****     CyDelay(500);    
 1103              		.loc 1 268 0
 1104 00e4 4FF4FA70 		mov	r0, #500
 1105 00e8 FFF7FEFF 		bl	CyDelay
 269:PumpCom.c     ****     if(size>=1){
 1106              		.loc 1 269 0
 1107 00ec 7B7B     		ldrb	r3, [r7, #13]	@ zero_extendqisi2
 1108 00ee 002B     		cmp	r3, #0
 1109 00f0 02D0     		beq	.L64
 270:PumpCom.c     ****         return  MepsanResponse[1];
 1110              		.loc 1 270 0
 1111 00f2 084B     		ldr	r3, .L66+16
 1112 00f4 5B78     		ldrb	r3, [r3, #1]	@ zero_extendqisi2
 1113 00f6 00E0     		b	.L65
 1114              	.L64:
 271:PumpCom.c     ****     }
 272:PumpCom.c     ****     else{
 273:PumpCom.c     ****        return 0;
 1115              		.loc 1 273 0
 1116 00f8 0023     		movs	r3, #0
 1117              	.L65:
 274:PumpCom.c     ****     }    
 275:PumpCom.c     **** }
ARM GAS  C:\Users\Lenovo\AppData\Local\Temp\ccIrCspy.s 			page 26


 1118              		.loc 1 275 0
 1119 00fa 1846     		mov	r0, r3
 1120 00fc 1437     		adds	r7, r7, #20
 1121              		.cfi_def_cfa_offset 12
 1122 00fe BD46     		mov	sp, r7
 1123              		.cfi_def_cfa_register 13
 1124              		@ sp needed
 1125 0100 90BD     		pop	{r4, r7, pc}
 1126              	.L67:
 1127 0102 00BF     		.align	2
 1128              	.L66:
 1129 0104 00000000 		.word	MepsanSendTo
 1130 0108 00000000 		.word	CRC
 1131 010c 00000000 		.word	crc_hi
 1132 0110 00000000 		.word	crc_lo
 1133 0114 00000000 		.word	MepsanResponse
 1134              		.cfi_endproc
 1135              	.LFE68:
 1136              		.size	PriceUpdate, .-PriceUpdate
 1137              		.section	.text.TotalRequest,"ax",%progbits
 1138              		.align	2
 1139              		.global	TotalRequest
 1140              		.thumb
 1141              		.thumb_func
 1142              		.type	TotalRequest, %function
 1143              	TotalRequest:
 1144              	.LFB69:
 276:PumpCom.c     **** 
 277:PumpCom.c     **** /*******************************************************************************
 278:PumpCom.c     **** * Function Name: TotalRequest
 279:PumpCom.c     **** ********************************************************************************
 280:PumpCom.c     **** *
 281:PumpCom.c     **** *
 282:PumpCom.c     **** *******************************************************************************/
 283:PumpCom.c     **** 
 284:PumpCom.c     **** void TotalRequest(uint8 address, uint8 type, uint8 nozzle)
 285:PumpCom.c     **** { 
 1145              		.loc 1 285 0
 1146              		.cfi_startproc
 1147              		@ args = 0, pretend = 0, frame = 16
 1148              		@ frame_needed = 1, uses_anonymous_args = 0
 1149 0000 80B5     		push	{r7, lr}
 1150              		.cfi_def_cfa_offset 8
 1151              		.cfi_offset 7, -8
 1152              		.cfi_offset 14, -4
 1153 0002 84B0     		sub	sp, sp, #16
 1154              		.cfi_def_cfa_offset 24
 1155 0004 00AF     		add	r7, sp, #0
 1156              		.cfi_def_cfa_register 7
 1157 0006 0346     		mov	r3, r0
 1158 0008 FB71     		strb	r3, [r7, #7]
 1159 000a 0B46     		mov	r3, r1
 1160 000c BB71     		strb	r3, [r7, #6]
 1161 000e 1346     		mov	r3, r2
 1162 0010 7B71     		strb	r3, [r7, #5]
 286:PumpCom.c     ****     uint8 size;
 287:PumpCom.c     ****     uint8 request;
ARM GAS  C:\Users\Lenovo\AppData\Local\Temp\ccIrCspy.s 			page 27


 288:PumpCom.c     ****     request = ((type<<4)&0xF0)|(nozzle);
 1163              		.loc 1 288 0
 1164 0012 BB79     		ldrb	r3, [r7, #6]	@ zero_extendqisi2
 1165 0014 1B01     		lsls	r3, r3, #4
 1166 0016 5AB2     		sxtb	r2, r3
 1167 0018 97F90530 		ldrsb	r3, [r7, #5]
 1168 001c 1343     		orrs	r3, r3, r2
 1169 001e 5BB2     		sxtb	r3, r3
 1170 0020 BB73     		strb	r3, [r7, #14]
 289:PumpCom.c     ****     EnablePin_Write (1u);
 1171              		.loc 1 289 0
 1172 0022 0120     		movs	r0, #1
 1173 0024 FFF7FEFF 		bl	EnablePin_Write
 290:PumpCom.c     ****     MepsanSendTo[0] = (0x50|address);
 1174              		.loc 1 290 0
 1175 0028 FB79     		ldrb	r3, [r7, #7]
 1176 002a 43F05003 		orr	r3, r3, #80
 1177 002e DAB2     		uxtb	r2, r3
 1178 0030 264B     		ldr	r3, .L71
 1179 0032 1A70     		strb	r2, [r3]
 291:PumpCom.c     ****     MepsanSendTo[1] = (0x30);
 1180              		.loc 1 291 0
 1181 0034 254B     		ldr	r3, .L71
 1182 0036 3022     		movs	r2, #48
 1183 0038 5A70     		strb	r2, [r3, #1]
 292:PumpCom.c     ****     MepsanSendTo[2] = (0x65);
 1184              		.loc 1 292 0
 1185 003a 244B     		ldr	r3, .L71
 1186 003c 6522     		movs	r2, #101
 1187 003e 9A70     		strb	r2, [r3, #2]
 293:PumpCom.c     ****     MepsanSendTo[3] = (0x01); //Data bytes in transaction
 1188              		.loc 1 293 0
 1189 0040 224B     		ldr	r3, .L71
 1190 0042 0122     		movs	r2, #1
 1191 0044 DA70     		strb	r2, [r3, #3]
 294:PumpCom.c     ****     MepsanSendTo[4] = (request);
 1192              		.loc 1 294 0
 1193 0046 214A     		ldr	r2, .L71
 1194 0048 BB7B     		ldrb	r3, [r7, #14]
 1195 004a 1371     		strb	r3, [r2, #4]
 295:PumpCom.c     ****     CRC    = gen_crc16(MepsanSendTo,5);
 1196              		.loc 1 295 0
 1197 004c 0521     		movs	r1, #5
 1198 004e 1F48     		ldr	r0, .L71
 1199 0050 FFF7FEFF 		bl	gen_crc16
 1200 0054 0346     		mov	r3, r0
 1201 0056 1A46     		mov	r2, r3
 1202 0058 1D4B     		ldr	r3, .L71+4
 1203 005a 1A80     		strh	r2, [r3]	@ movhi
 296:PumpCom.c     ****     crc_hi = (CRC & 0xFF00) >> 8;
 1204              		.loc 1 296 0
 1205 005c 1C4B     		ldr	r3, .L71+4
 1206 005e 1B88     		ldrh	r3, [r3]
 1207 0060 1B0A     		lsrs	r3, r3, #8
 1208 0062 9BB2     		uxth	r3, r3
 1209 0064 DAB2     		uxtb	r2, r3
 1210 0066 1B4B     		ldr	r3, .L71+8
ARM GAS  C:\Users\Lenovo\AppData\Local\Temp\ccIrCspy.s 			page 28


 1211 0068 1A70     		strb	r2, [r3]
 297:PumpCom.c     ****     crc_lo = (CRC & 0x00FF) ;
 1212              		.loc 1 297 0
 1213 006a 194B     		ldr	r3, .L71+4
 1214 006c 1B88     		ldrh	r3, [r3]
 1215 006e DAB2     		uxtb	r2, r3
 1216 0070 194B     		ldr	r3, .L71+12
 1217 0072 1A70     		strb	r2, [r3]
 298:PumpCom.c     ****     MepsanSendTo[5] = crc_lo;
 1218              		.loc 1 298 0
 1219 0074 184B     		ldr	r3, .L71+12
 1220 0076 1A78     		ldrb	r2, [r3]	@ zero_extendqisi2
 1221 0078 144B     		ldr	r3, .L71
 1222 007a 5A71     		strb	r2, [r3, #5]
 299:PumpCom.c     ****     MepsanSendTo[6] = crc_hi;
 1223              		.loc 1 299 0
 1224 007c 154B     		ldr	r3, .L71+8
 1225 007e 1A78     		ldrb	r2, [r3]	@ zero_extendqisi2
 1226 0080 124B     		ldr	r3, .L71
 1227 0082 9A71     		strb	r2, [r3, #6]
 300:PumpCom.c     ****     MepsanSendTo[7] = 0x03;
 1228              		.loc 1 300 0
 1229 0084 114B     		ldr	r3, .L71
 1230 0086 0322     		movs	r2, #3
 1231 0088 DA71     		strb	r2, [r3, #7]
 301:PumpCom.c     ****     MepsanSendTo[8] = 0xFA; 
 1232              		.loc 1 301 0
 1233 008a 104B     		ldr	r3, .L71
 1234 008c FA22     		movs	r2, #250
 1235 008e 1A72     		strb	r2, [r3, #8]
 1236              	.LBB16:
 302:PumpCom.c     ****     for(uint8 x = 0; x <= 9; x++){    
 1237              		.loc 1 302 0
 1238 0090 0023     		movs	r3, #0
 1239 0092 FB73     		strb	r3, [r7, #15]
 1240 0094 08E0     		b	.L69
 1241              	.L70:
 303:PumpCom.c     ****         UART_1_PutChar(MepsanSendTo[x]);
 1242              		.loc 1 303 0 discriminator 3
 1243 0096 FB7B     		ldrb	r3, [r7, #15]	@ zero_extendqisi2
 1244 0098 0C4A     		ldr	r2, .L71
 1245 009a D35C     		ldrb	r3, [r2, r3]	@ zero_extendqisi2
 1246 009c 1846     		mov	r0, r3
 1247 009e FFF7FEFF 		bl	UART_1_PutChar
 302:PumpCom.c     ****     for(uint8 x = 0; x <= 9; x++){    
 1248              		.loc 1 302 0 discriminator 3
 1249 00a2 FB7B     		ldrb	r3, [r7, #15]	@ zero_extendqisi2
 1250 00a4 0133     		adds	r3, r3, #1
 1251 00a6 FB73     		strb	r3, [r7, #15]
 1252              	.L69:
 302:PumpCom.c     ****     for(uint8 x = 0; x <= 9; x++){    
 1253              		.loc 1 302 0 is_stmt 0 discriminator 1
 1254 00a8 FB7B     		ldrb	r3, [r7, #15]	@ zero_extendqisi2
 1255 00aa 092B     		cmp	r3, #9
 1256 00ac F3D9     		bls	.L70
 1257              	.LBE16:
 304:PumpCom.c     ****     }
ARM GAS  C:\Users\Lenovo\AppData\Local\Temp\ccIrCspy.s 			page 29


 305:PumpCom.c     ****     CyDelay(4);
 1258              		.loc 1 305 0 is_stmt 1
 1259 00ae 0420     		movs	r0, #4
 1260 00b0 FFF7FEFF 		bl	CyDelay
 306:PumpCom.c     ****     EnablePin_Write (0u);  
 1261              		.loc 1 306 0
 1262 00b4 0020     		movs	r0, #0
 1263 00b6 FFF7FEFF 		bl	EnablePin_Write
 307:PumpCom.c     ****     PumpState(address);
 1264              		.loc 1 307 0
 1265 00ba FB79     		ldrb	r3, [r7, #7]	@ zero_extendqisi2
 1266 00bc 1846     		mov	r0, r3
 1267 00be FFF7FEFF 		bl	PumpState
 308:PumpCom.c     **** }
 1268              		.loc 1 308 0
 1269 00c2 00BF     		nop
 1270 00c4 1037     		adds	r7, r7, #16
 1271              		.cfi_def_cfa_offset 8
 1272 00c6 BD46     		mov	sp, r7
 1273              		.cfi_def_cfa_register 13
 1274              		@ sp needed
 1275 00c8 80BD     		pop	{r7, pc}
 1276              	.L72:
 1277 00ca 00BF     		.align	2
 1278              	.L71:
 1279 00cc 00000000 		.word	MepsanSendTo
 1280 00d0 00000000 		.word	CRC
 1281 00d4 00000000 		.word	crc_hi
 1282 00d8 00000000 		.word	crc_lo
 1283              		.cfi_endproc
 1284              	.LFE69:
 1285              		.size	TotalRequest, .-TotalRequest
 1286              		.section	.text.GetTotal,"ax",%progbits
 1287              		.align	2
 1288              		.global	GetTotal
 1289              		.thumb
 1290              		.thumb_func
 1291              		.type	GetTotal, %function
 1292              	GetTotal:
 1293              	.LFB70:
 309:PumpCom.c     **** 
 310:PumpCom.c     **** /*******************************************************************************
 311:PumpCom.c     **** * Function Name: GetTotal
 312:PumpCom.c     **** ********************************************************************************
 313:PumpCom.c     **** *
 314:PumpCom.c     **** *
 315:PumpCom.c     **** *******************************************************************************/
 316:PumpCom.c     **** 
 317:PumpCom.c     **** void GetTotal(void){
 1294              		.loc 1 317 0
 1295              		.cfi_startproc
 1296              		@ args = 0, pretend = 0, frame = 0
 1297              		@ frame_needed = 1, uses_anonymous_args = 0
 1298              		@ link register save eliminated.
 1299 0000 80B4     		push	{r7}
 1300              		.cfi_def_cfa_offset 4
 1301              		.cfi_offset 7, -4
ARM GAS  C:\Users\Lenovo\AppData\Local\Temp\ccIrCspy.s 			page 30


 1302 0002 00AF     		add	r7, sp, #0
 1303              		.cfi_def_cfa_register 7
 318:PumpCom.c     **** //    for(uint8 x = 4; x < MepsanResponse[3] + 4; x++ ){
 319:PumpCom.c     **** //    }
 320:PumpCom.c     **** }
 1304              		.loc 1 320 0
 1305 0004 00BF     		nop
 1306 0006 BD46     		mov	sp, r7
 1307              		.cfi_def_cfa_register 13
 1308              		@ sp needed
 1309 0008 80BC     		pop	{r7}
 1310              		.cfi_restore 7
 1311              		.cfi_def_cfa_offset 0
 1312 000a 7047     		bx	lr
 1313              		.cfi_endproc
 1314              	.LFE70:
 1315              		.size	GetTotal, .-GetTotal
 1316              		.section	.text.GetACK,"ax",%progbits
 1317              		.align	2
 1318              		.global	GetACK
 1319              		.thumb
 1320              		.thumb_func
 1321              		.type	GetACK, %function
 1322              	GetACK:
 1323              	.LFB71:
 321:PumpCom.c     **** /*******************************************************************************
 322:PumpCom.c     **** * Function Name: GetTotal
 323:PumpCom.c     **** ********************************************************************************
 324:PumpCom.c     **** *
 325:PumpCom.c     **** *
 326:PumpCom.c     **** *******************************************************************************/
 327:PumpCom.c     **** 
 328:PumpCom.c     **** void GetACK(){
 1324              		.loc 1 328 0
 1325              		.cfi_startproc
 1326              		@ args = 0, pretend = 0, frame = 8
 1327              		@ frame_needed = 1, uses_anonymous_args = 0
 1328 0000 90B5     		push	{r4, r7, lr}
 1329              		.cfi_def_cfa_offset 12
 1330              		.cfi_offset 4, -12
 1331              		.cfi_offset 7, -8
 1332              		.cfi_offset 14, -4
 1333 0002 83B0     		sub	sp, sp, #12
 1334              		.cfi_def_cfa_offset 24
 1335 0004 00AF     		add	r7, sp, #0
 1336              		.cfi_def_cfa_register 7
 329:PumpCom.c     ****     uint8 size;
 330:PumpCom.c     ****     size = UART_1_GetRxBufferSize();        
 1337              		.loc 1 330 0
 1338 0006 FFF7FEFF 		bl	UART_1_GetRxBufferSize
 1339 000a 0346     		mov	r3, r0
 1340 000c BB71     		strb	r3, [r7, #6]
 1341              	.LBB17:
 331:PumpCom.c     ****     for(uint8 MepRx = 0; MepRx < size; MepRx++){
 1342              		.loc 1 331 0
 1343 000e 0023     		movs	r3, #0
 1344 0010 FB71     		strb	r3, [r7, #7]
ARM GAS  C:\Users\Lenovo\AppData\Local\Temp\ccIrCspy.s 			page 31


 1345 0012 09E0     		b	.L75
 1346              	.L76:
 332:PumpCom.c     ****         MepsanResponse[MepRx] = UART_1_ReadRxData();        
 1347              		.loc 1 332 0 discriminator 3
 1348 0014 FC79     		ldrb	r4, [r7, #7]	@ zero_extendqisi2
 1349 0016 FFF7FEFF 		bl	UART_1_ReadRxData
 1350 001a 0346     		mov	r3, r0
 1351 001c 1A46     		mov	r2, r3
 1352 001e 074B     		ldr	r3, .L77
 1353 0020 1A55     		strb	r2, [r3, r4]
 331:PumpCom.c     ****     for(uint8 MepRx = 0; MepRx < size; MepRx++){
 1354              		.loc 1 331 0 discriminator 3
 1355 0022 FB79     		ldrb	r3, [r7, #7]	@ zero_extendqisi2
 1356 0024 0133     		adds	r3, r3, #1
 1357 0026 FB71     		strb	r3, [r7, #7]
 1358              	.L75:
 331:PumpCom.c     ****     for(uint8 MepRx = 0; MepRx < size; MepRx++){
 1359              		.loc 1 331 0 is_stmt 0 discriminator 1
 1360 0028 FA79     		ldrb	r2, [r7, #7]	@ zero_extendqisi2
 1361 002a BB79     		ldrb	r3, [r7, #6]	@ zero_extendqisi2
 1362 002c 9A42     		cmp	r2, r3
 1363 002e F1D3     		bcc	.L76
 1364              	.LBE17:
 333:PumpCom.c     ****     }    
 334:PumpCom.c     ****     UART_1_ClearRxBuffer();
 1365              		.loc 1 334 0 is_stmt 1
 1366 0030 FFF7FEFF 		bl	UART_1_ClearRxBuffer
 335:PumpCom.c     **** }
 1367              		.loc 1 335 0
 1368 0034 00BF     		nop
 1369 0036 0C37     		adds	r7, r7, #12
 1370              		.cfi_def_cfa_offset 12
 1371 0038 BD46     		mov	sp, r7
 1372              		.cfi_def_cfa_register 13
 1373              		@ sp needed
 1374 003a 90BD     		pop	{r4, r7, pc}
 1375              	.L78:
 1376              		.align	2
 1377              	.L77:
 1378 003c 00000000 		.word	MepsanResponse
 1379              		.cfi_endproc
 1380              	.LFE71:
 1381              		.size	GetACK, .-GetACK
 1382              		.section	.text.ProccessResponse,"ax",%progbits
 1383              		.align	2
 1384              		.global	ProccessResponse
 1385              		.thumb
 1386              		.thumb_func
 1387              		.type	ProccessResponse, %function
 1388              	ProccessResponse:
 1389              	.LFB72:
 336:PumpCom.c     **** 
 337:PumpCom.c     **** void ProccessResponse(uint8 address){
 1390              		.loc 1 337 0
 1391              		.cfi_startproc
 1392              		@ args = 0, pretend = 0, frame = 16
 1393              		@ frame_needed = 1, uses_anonymous_args = 0
ARM GAS  C:\Users\Lenovo\AppData\Local\Temp\ccIrCspy.s 			page 32


 1394 0000 90B5     		push	{r4, r7, lr}
 1395              		.cfi_def_cfa_offset 12
 1396              		.cfi_offset 4, -12
 1397              		.cfi_offset 7, -8
 1398              		.cfi_offset 14, -4
 1399 0002 85B0     		sub	sp, sp, #20
 1400              		.cfi_def_cfa_offset 32
 1401 0004 00AF     		add	r7, sp, #0
 1402              		.cfi_def_cfa_register 7
 1403 0006 0346     		mov	r3, r0
 1404 0008 FB71     		strb	r3, [r7, #7]
 1405              	.LBB18:
 338:PumpCom.c     ****     uint8 ValidateA,ValidateB;            
 339:PumpCom.c     ****     for(uint8 MepRx = 0; MepRx < 20; MepRx++){        
 1406              		.loc 1 339 0
 1407 000a 0023     		movs	r3, #0
 1408 000c FB73     		strb	r3, [r7, #15]
 1409 000e 11E0     		b	.L80
 1410              	.L81:
 340:PumpCom.c     ****         MepsanResponse[MepRx] = UART_1_ReadRxData(); 
 1411              		.loc 1 340 0 discriminator 3
 1412 0010 FC7B     		ldrb	r4, [r7, #15]	@ zero_extendqisi2
 1413 0012 FFF7FEFF 		bl	UART_1_ReadRxData
 1414 0016 0346     		mov	r3, r0
 1415 0018 1A46     		mov	r2, r3
 1416 001a 154B     		ldr	r3, .L85
 1417 001c 1A55     		strb	r2, [r3, r4]
 341:PumpCom.c     ****         ValidateA = (MepsanResponse[1]|0xF0);
 1418              		.loc 1 341 0 discriminator 3
 1419 001e 144B     		ldr	r3, .L85
 1420 0020 5B78     		ldrb	r3, [r3, #1]	@ zero_extendqisi2
 1421 0022 63F00F03 		orn	r3, r3, #15
 1422 0026 BB73     		strb	r3, [r7, #14]
 342:PumpCom.c     ****         ValidateB =  MepsanResponse[2];        
 1423              		.loc 1 342 0 discriminator 3
 1424 0028 114B     		ldr	r3, .L85
 1425 002a 9B78     		ldrb	r3, [r3, #2]
 1426 002c 7B73     		strb	r3, [r7, #13]
 339:PumpCom.c     ****         MepsanResponse[MepRx] = UART_1_ReadRxData(); 
 1427              		.loc 1 339 0 discriminator 3
 1428 002e FB7B     		ldrb	r3, [r7, #15]	@ zero_extendqisi2
 1429 0030 0133     		adds	r3, r3, #1
 1430 0032 FB73     		strb	r3, [r7, #15]
 1431              	.L80:
 339:PumpCom.c     ****         MepsanResponse[MepRx] = UART_1_ReadRxData(); 
 1432              		.loc 1 339 0 is_stmt 0 discriminator 1
 1433 0034 FB7B     		ldrb	r3, [r7, #15]	@ zero_extendqisi2
 1434 0036 132B     		cmp	r3, #19
 1435 0038 EAD9     		bls	.L81
 1436              	.LBE18:
 343:PumpCom.c     ****     } 
 344:PumpCom.c     ****     ValidateA = (MepsanResponse[1]|0xF0);
 1437              		.loc 1 344 0 is_stmt 1
 1438 003a 0D4B     		ldr	r3, .L85
 1439 003c 5B78     		ldrb	r3, [r3, #1]	@ zero_extendqisi2
 1440 003e 63F00F03 		orn	r3, r3, #15
 1441 0042 BB73     		strb	r3, [r7, #14]
ARM GAS  C:\Users\Lenovo\AppData\Local\Temp\ccIrCspy.s 			page 33


 345:PumpCom.c     ****     ValidateB =  MepsanResponse[2];
 1442              		.loc 1 345 0
 1443 0044 0A4B     		ldr	r3, .L85
 1444 0046 9B78     		ldrb	r3, [r3, #2]
 1445 0048 7B73     		strb	r3, [r7, #13]
 346:PumpCom.c     ****     UART_1_ClearRxBuffer();        
 1446              		.loc 1 346 0
 1447 004a FFF7FEFF 		bl	UART_1_ClearRxBuffer
 347:PumpCom.c     ****     if(ValidateA == 0xC0 && ValidateB != 0x65){
 1448              		.loc 1 347 0
 1449 004e BB7B     		ldrb	r3, [r7, #14]	@ zero_extendqisi2
 1450 0050 C02B     		cmp	r3, #192
 1451 0052 04D1     		bne	.L82
 1452              		.loc 1 347 0 is_stmt 0 discriminator 1
 1453 0054 7B7B     		ldrb	r3, [r7, #13]	@ zero_extendqisi2
 1454 0056 652B     		cmp	r3, #101
 1455 0058 01D0     		beq	.L82
 348:PumpCom.c     ****         GetACK();
 1456              		.loc 1 348 0 is_stmt 1
 1457 005a FFF7FEFF 		bl	GetACK
 1458              	.L82:
 349:PumpCom.c     ****     }
 350:PumpCom.c     ****     if(ValidateB == 0x65){
 1459              		.loc 1 350 0
 1460 005e 7B7B     		ldrb	r3, [r7, #13]	@ zero_extendqisi2
 1461 0060 652B     		cmp	r3, #101
 1462 0062 01D1     		bne	.L84
 351:PumpCom.c     ****         GetTotal();
 1463              		.loc 1 351 0
 1464 0064 FFF7FEFF 		bl	GetTotal
 1465              	.L84:
 352:PumpCom.c     ****     }
 353:PumpCom.c     ****     
 354:PumpCom.c     **** }
 1466              		.loc 1 354 0
 1467 0068 00BF     		nop
 1468 006a 1437     		adds	r7, r7, #20
 1469              		.cfi_def_cfa_offset 12
 1470 006c BD46     		mov	sp, r7
 1471              		.cfi_def_cfa_register 13
 1472              		@ sp needed
 1473 006e 90BD     		pop	{r4, r7, pc}
 1474              	.L86:
 1475              		.align	2
 1476              	.L85:
 1477 0070 00000000 		.word	MepsanResponse
 1478              		.cfi_endproc
 1479              	.LFE72:
 1480              		.size	ProccessResponse, .-ProccessResponse
 1481              		.text
 1482              	.Letext0:
 1483              		.file 2 "c:\\program files (x86)\\cypress\\psoc creator\\4.2\\psoc creator\\import\\gnu\\arm\\5.4.
 1484              		.file 3 "c:\\program files (x86)\\cypress\\psoc creator\\4.2\\psoc creator\\import\\gnu\\arm\\5.4.
 1485              		.file 4 "Generated_Source\\PSoC5/cytypes.h"
 1486              		.file 5 "./GVar.h"
 1487              		.file 6 "Generated_Source\\PSoC5/core_cm3.h"