ARM GAS  C:\Users\THERMA~1\AppData\Local\Temp\ccQ3Sx9h.s 			page 1


   1              		.syntax unified
   2              		.cpu cortex-m3
   3              		.fpu softvfp
   4              		.eabi_attribute 20, 1
   5              		.eabi_attribute 21, 1
   6              		.eabi_attribute 23, 3
   7              		.eabi_attribute 24, 1
   8              		.eabi_attribute 25, 1
   9              		.eabi_attribute 26, 1
  10              		.eabi_attribute 30, 1
  11              		.eabi_attribute 34, 1
  12              		.eabi_attribute 18, 4
  13              		.thumb
  14              		.syntax unified
  15              		.file	"GBCL.c"
  16              		.text
  17              	.Ltext0:
  18              		.cfi_sections	.debug_frame
  19              		.section	.text.GBCL_Init,"ax",%progbits
  20              		.align	2
  21              		.global	GBCL_Init
  22              		.thumb
  23              		.thumb_func
  24              		.type	GBCL_Init, %function
  25              	GBCL_Init:
  26              	.LFB1:
  27              		.file 1 "Generated_Source\\PSoC5\\GBCL.c"
   1:Generated_Source\PSoC5/GBCL.c **** /*******************************************************************************
   2:Generated_Source\PSoC5/GBCL.c **** * File Name: GBCL.c
   3:Generated_Source\PSoC5/GBCL.c **** * Version 2.50
   4:Generated_Source\PSoC5/GBCL.c **** *
   5:Generated_Source\PSoC5/GBCL.c **** * Description:
   6:Generated_Source\PSoC5/GBCL.c **** *  This file provides all API functionality of the UART component
   7:Generated_Source\PSoC5/GBCL.c **** *
   8:Generated_Source\PSoC5/GBCL.c **** * Note:
   9:Generated_Source\PSoC5/GBCL.c **** *
  10:Generated_Source\PSoC5/GBCL.c **** ********************************************************************************
  11:Generated_Source\PSoC5/GBCL.c **** * Copyright 2008-2015, Cypress Semiconductor Corporation.  All rights reserved.
  12:Generated_Source\PSoC5/GBCL.c **** * You may use this file only in accordance with the license, terms, conditions,
  13:Generated_Source\PSoC5/GBCL.c **** * disclaimers, and limitations in the end user license agreement accompanying
  14:Generated_Source\PSoC5/GBCL.c **** * the software package with which this file was provided.
  15:Generated_Source\PSoC5/GBCL.c **** *******************************************************************************/
  16:Generated_Source\PSoC5/GBCL.c **** 
  17:Generated_Source\PSoC5/GBCL.c **** #include "GBCL.h"
  18:Generated_Source\PSoC5/GBCL.c **** #if (GBCL_INTERNAL_CLOCK_USED)
  19:Generated_Source\PSoC5/GBCL.c ****     #include "GBCL_IntClock.h"
  20:Generated_Source\PSoC5/GBCL.c **** #endif /* End GBCL_INTERNAL_CLOCK_USED */
  21:Generated_Source\PSoC5/GBCL.c **** 
  22:Generated_Source\PSoC5/GBCL.c **** 
  23:Generated_Source\PSoC5/GBCL.c **** /***************************************
  24:Generated_Source\PSoC5/GBCL.c **** * Global data allocation
  25:Generated_Source\PSoC5/GBCL.c **** ***************************************/
  26:Generated_Source\PSoC5/GBCL.c **** 
  27:Generated_Source\PSoC5/GBCL.c **** uint8 GBCL_initVar = 0u;
  28:Generated_Source\PSoC5/GBCL.c **** 
  29:Generated_Source\PSoC5/GBCL.c **** #if (GBCL_TX_INTERRUPT_ENABLED && GBCL_TX_ENABLED)
  30:Generated_Source\PSoC5/GBCL.c ****     volatile uint8 GBCL_txBuffer[GBCL_TX_BUFFER_SIZE];
ARM GAS  C:\Users\THERMA~1\AppData\Local\Temp\ccQ3Sx9h.s 			page 2


  31:Generated_Source\PSoC5/GBCL.c ****     volatile uint8 GBCL_txBufferRead = 0u;
  32:Generated_Source\PSoC5/GBCL.c ****     uint8 GBCL_txBufferWrite = 0u;
  33:Generated_Source\PSoC5/GBCL.c **** #endif /* (GBCL_TX_INTERRUPT_ENABLED && GBCL_TX_ENABLED) */
  34:Generated_Source\PSoC5/GBCL.c **** 
  35:Generated_Source\PSoC5/GBCL.c **** #if (GBCL_RX_INTERRUPT_ENABLED && (GBCL_RX_ENABLED || GBCL_HD_ENABLED))
  36:Generated_Source\PSoC5/GBCL.c ****     uint8 GBCL_errorStatus = 0u;
  37:Generated_Source\PSoC5/GBCL.c ****     volatile uint8 GBCL_rxBuffer[GBCL_RX_BUFFER_SIZE];
  38:Generated_Source\PSoC5/GBCL.c ****     volatile uint8 GBCL_rxBufferRead  = 0u;
  39:Generated_Source\PSoC5/GBCL.c ****     volatile uint8 GBCL_rxBufferWrite = 0u;
  40:Generated_Source\PSoC5/GBCL.c ****     volatile uint8 GBCL_rxBufferLoopDetect = 0u;
  41:Generated_Source\PSoC5/GBCL.c ****     volatile uint8 GBCL_rxBufferOverflow   = 0u;
  42:Generated_Source\PSoC5/GBCL.c ****     #if (GBCL_RXHW_ADDRESS_ENABLED)
  43:Generated_Source\PSoC5/GBCL.c ****         volatile uint8 GBCL_rxAddressMode = GBCL_RX_ADDRESS_MODE;
  44:Generated_Source\PSoC5/GBCL.c ****         volatile uint8 GBCL_rxAddressDetected = 0u;
  45:Generated_Source\PSoC5/GBCL.c ****     #endif /* (GBCL_RXHW_ADDRESS_ENABLED) */
  46:Generated_Source\PSoC5/GBCL.c **** #endif /* (GBCL_RX_INTERRUPT_ENABLED && (GBCL_RX_ENABLED || GBCL_HD_ENABLED)) */
  47:Generated_Source\PSoC5/GBCL.c **** 
  48:Generated_Source\PSoC5/GBCL.c **** 
  49:Generated_Source\PSoC5/GBCL.c **** /*******************************************************************************
  50:Generated_Source\PSoC5/GBCL.c **** * Function Name: GBCL_Start
  51:Generated_Source\PSoC5/GBCL.c **** ********************************************************************************
  52:Generated_Source\PSoC5/GBCL.c **** *
  53:Generated_Source\PSoC5/GBCL.c **** * Summary:
  54:Generated_Source\PSoC5/GBCL.c **** *  This is the preferred method to begin component operation.
  55:Generated_Source\PSoC5/GBCL.c **** *  GBCL_Start() sets the initVar variable, calls the
  56:Generated_Source\PSoC5/GBCL.c **** *  GBCL_Init() function, and then calls the
  57:Generated_Source\PSoC5/GBCL.c **** *  GBCL_Enable() function.
  58:Generated_Source\PSoC5/GBCL.c **** *
  59:Generated_Source\PSoC5/GBCL.c **** * Parameters:
  60:Generated_Source\PSoC5/GBCL.c **** *  None.
  61:Generated_Source\PSoC5/GBCL.c **** *
  62:Generated_Source\PSoC5/GBCL.c **** * Return:
  63:Generated_Source\PSoC5/GBCL.c **** *  None.
  64:Generated_Source\PSoC5/GBCL.c **** *
  65:Generated_Source\PSoC5/GBCL.c **** * Global variables:
  66:Generated_Source\PSoC5/GBCL.c **** *  The GBCL_intiVar variable is used to indicate initial
  67:Generated_Source\PSoC5/GBCL.c **** *  configuration of this component. The variable is initialized to zero (0u)
  68:Generated_Source\PSoC5/GBCL.c **** *  and set to one (1u) the first time GBCL_Start() is called. This
  69:Generated_Source\PSoC5/GBCL.c **** *  allows for component initialization without re-initialization in all
  70:Generated_Source\PSoC5/GBCL.c **** *  subsequent calls to the GBCL_Start() routine.
  71:Generated_Source\PSoC5/GBCL.c **** *
  72:Generated_Source\PSoC5/GBCL.c **** * Reentrant:
  73:Generated_Source\PSoC5/GBCL.c **** *  No.
  74:Generated_Source\PSoC5/GBCL.c **** *
  75:Generated_Source\PSoC5/GBCL.c **** *******************************************************************************/
  76:Generated_Source\PSoC5/GBCL.c **** void GBCL_Start(void) 
  77:Generated_Source\PSoC5/GBCL.c **** {
  78:Generated_Source\PSoC5/GBCL.c ****     /* If not initialized then initialize all required hardware and software */
  79:Generated_Source\PSoC5/GBCL.c ****     if(GBCL_initVar == 0u)
  80:Generated_Source\PSoC5/GBCL.c ****     {
  81:Generated_Source\PSoC5/GBCL.c ****         GBCL_Init();
  82:Generated_Source\PSoC5/GBCL.c ****         GBCL_initVar = 1u;
  83:Generated_Source\PSoC5/GBCL.c ****     }
  84:Generated_Source\PSoC5/GBCL.c **** 
  85:Generated_Source\PSoC5/GBCL.c ****     GBCL_Enable();
  86:Generated_Source\PSoC5/GBCL.c **** }
  87:Generated_Source\PSoC5/GBCL.c **** 
ARM GAS  C:\Users\THERMA~1\AppData\Local\Temp\ccQ3Sx9h.s 			page 3


  88:Generated_Source\PSoC5/GBCL.c **** 
  89:Generated_Source\PSoC5/GBCL.c **** /*******************************************************************************
  90:Generated_Source\PSoC5/GBCL.c **** * Function Name: GBCL_Init
  91:Generated_Source\PSoC5/GBCL.c **** ********************************************************************************
  92:Generated_Source\PSoC5/GBCL.c **** *
  93:Generated_Source\PSoC5/GBCL.c **** * Summary:
  94:Generated_Source\PSoC5/GBCL.c **** *  Initializes or restores the component according to the customizer Configure
  95:Generated_Source\PSoC5/GBCL.c **** *  dialog settings. It is not necessary to call GBCL_Init() because
  96:Generated_Source\PSoC5/GBCL.c **** *  the GBCL_Start() API calls this function and is the preferred
  97:Generated_Source\PSoC5/GBCL.c **** *  method to begin component operation.
  98:Generated_Source\PSoC5/GBCL.c **** *
  99:Generated_Source\PSoC5/GBCL.c **** * Parameters:
 100:Generated_Source\PSoC5/GBCL.c **** *  None.
 101:Generated_Source\PSoC5/GBCL.c **** *
 102:Generated_Source\PSoC5/GBCL.c **** * Return:
 103:Generated_Source\PSoC5/GBCL.c **** *  None.
 104:Generated_Source\PSoC5/GBCL.c **** *
 105:Generated_Source\PSoC5/GBCL.c **** *******************************************************************************/
 106:Generated_Source\PSoC5/GBCL.c **** void GBCL_Init(void) 
 107:Generated_Source\PSoC5/GBCL.c **** {
  28              		.loc 1 107 0
  29              		.cfi_startproc
  30              		@ args = 0, pretend = 0, frame = 0
  31              		@ frame_needed = 0, uses_anonymous_args = 0
  32 0000 08B5     		push	{r3, lr}
  33              		.cfi_def_cfa_offset 8
  34              		.cfi_offset 3, -8
  35              		.cfi_offset 14, -4
 108:Generated_Source\PSoC5/GBCL.c ****     #if(GBCL_RX_ENABLED || GBCL_HD_ENABLED)
 109:Generated_Source\PSoC5/GBCL.c **** 
 110:Generated_Source\PSoC5/GBCL.c ****         #if (GBCL_RX_INTERRUPT_ENABLED)
 111:Generated_Source\PSoC5/GBCL.c ****             /* Set RX interrupt vector and priority */
 112:Generated_Source\PSoC5/GBCL.c ****             (void) CyIntSetVector(GBCL_RX_VECT_NUM, &GBCL_RXISR);
  36              		.loc 1 112 0
  37 0002 0D49     		ldr	r1, .L3
  38 0004 0020     		movs	r0, #0
  39 0006 FFF7FEFF 		bl	CyIntSetVector
  40              	.LVL0:
 113:Generated_Source\PSoC5/GBCL.c ****             CyIntSetPriority(GBCL_RX_VECT_NUM, GBCL_RX_PRIOR_NUM);
  41              		.loc 1 113 0
  42 000a 0721     		movs	r1, #7
  43 000c 0020     		movs	r0, #0
  44 000e FFF7FEFF 		bl	CyIntSetPriority
  45              	.LVL1:
 114:Generated_Source\PSoC5/GBCL.c ****             GBCL_errorStatus = 0u;
  46              		.loc 1 114 0
  47 0012 0023     		movs	r3, #0
  48 0014 094A     		ldr	r2, .L3+4
  49 0016 1370     		strb	r3, [r2]
 115:Generated_Source\PSoC5/GBCL.c ****         #endif /* (GBCL_RX_INTERRUPT_ENABLED) */
 116:Generated_Source\PSoC5/GBCL.c **** 
 117:Generated_Source\PSoC5/GBCL.c ****         #if (GBCL_RXHW_ADDRESS_ENABLED)
 118:Generated_Source\PSoC5/GBCL.c ****             GBCL_SetRxAddressMode(GBCL_RX_ADDRESS_MODE);
 119:Generated_Source\PSoC5/GBCL.c ****             GBCL_SetRxAddress1(GBCL_RX_HW_ADDRESS1);
 120:Generated_Source\PSoC5/GBCL.c ****             GBCL_SetRxAddress2(GBCL_RX_HW_ADDRESS2);
 121:Generated_Source\PSoC5/GBCL.c ****         #endif /* End GBCL_RXHW_ADDRESS_ENABLED */
 122:Generated_Source\PSoC5/GBCL.c **** 
ARM GAS  C:\Users\THERMA~1\AppData\Local\Temp\ccQ3Sx9h.s 			page 4


 123:Generated_Source\PSoC5/GBCL.c ****         /* Init Count7 period */
 124:Generated_Source\PSoC5/GBCL.c ****         GBCL_RXBITCTR_PERIOD_REG = GBCL_RXBITCTR_INIT;
  50              		.loc 1 124 0
  51 0018 7221     		movs	r1, #114
  52 001a 094A     		ldr	r2, .L3+8
  53 001c 1170     		strb	r1, [r2]
 125:Generated_Source\PSoC5/GBCL.c ****         /* Configure the Initial RX interrupt mask */
 126:Generated_Source\PSoC5/GBCL.c ****         GBCL_RXSTATUS_MASK_REG  = GBCL_INIT_RX_INTERRUPTS_MASK;
  54              		.loc 1 126 0
  55 001e 2021     		movs	r1, #32
  56 0020 0532     		adds	r2, r2, #5
  57 0022 1170     		strb	r1, [r2]
 127:Generated_Source\PSoC5/GBCL.c ****     #endif /* End GBCL_RX_ENABLED || GBCL_HD_ENABLED*/
 128:Generated_Source\PSoC5/GBCL.c **** 
 129:Generated_Source\PSoC5/GBCL.c ****     #if(GBCL_TX_ENABLED)
 130:Generated_Source\PSoC5/GBCL.c ****         #if (GBCL_TX_INTERRUPT_ENABLED)
 131:Generated_Source\PSoC5/GBCL.c ****             /* Set TX interrupt vector and priority */
 132:Generated_Source\PSoC5/GBCL.c ****             (void) CyIntSetVector(GBCL_TX_VECT_NUM, &GBCL_TXISR);
 133:Generated_Source\PSoC5/GBCL.c ****             CyIntSetPriority(GBCL_TX_VECT_NUM, GBCL_TX_PRIOR_NUM);
 134:Generated_Source\PSoC5/GBCL.c ****         #endif /* (GBCL_TX_INTERRUPT_ENABLED) */
 135:Generated_Source\PSoC5/GBCL.c **** 
 136:Generated_Source\PSoC5/GBCL.c ****         /* Write Counter Value for TX Bit Clk Generator*/
 137:Generated_Source\PSoC5/GBCL.c ****         #if (GBCL_TXCLKGEN_DP)
 138:Generated_Source\PSoC5/GBCL.c ****             GBCL_TXBITCLKGEN_CTR_REG = GBCL_BIT_CENTER;
  58              		.loc 1 138 0
  59 0024 0621     		movs	r1, #6
  60 0026 603A     		subs	r2, r2, #96
  61 0028 1170     		strb	r1, [r2]
 139:Generated_Source\PSoC5/GBCL.c ****             GBCL_TXBITCLKTX_COMPLETE_REG = ((GBCL_NUMBER_OF_DATA_BITS +
  62              		.loc 1 139 0
  63 002a 4721     		movs	r1, #71
  64 002c 1032     		adds	r2, r2, #16
  65 002e 1170     		strb	r1, [r2]
 140:Generated_Source\PSoC5/GBCL.c ****                         GBCL_NUMBER_OF_START_BIT) * GBCL_OVER_SAMPLE_COUNT) - 1u;
 141:Generated_Source\PSoC5/GBCL.c ****         #else
 142:Generated_Source\PSoC5/GBCL.c ****             GBCL_TXBITCTR_PERIOD_REG = ((GBCL_NUMBER_OF_DATA_BITS +
 143:Generated_Source\PSoC5/GBCL.c ****                         GBCL_NUMBER_OF_START_BIT) * GBCL_OVER_SAMPLE_8) - 1u;
 144:Generated_Source\PSoC5/GBCL.c ****         #endif /* End GBCL_TXCLKGEN_DP */
 145:Generated_Source\PSoC5/GBCL.c **** 
 146:Generated_Source\PSoC5/GBCL.c ****         /* Configure the Initial TX interrupt mask */
 147:Generated_Source\PSoC5/GBCL.c ****         #if (GBCL_TX_INTERRUPT_ENABLED)
 148:Generated_Source\PSoC5/GBCL.c ****             GBCL_TXSTATUS_MASK_REG = GBCL_TX_STS_FIFO_EMPTY;
 149:Generated_Source\PSoC5/GBCL.c ****         #else
 150:Generated_Source\PSoC5/GBCL.c ****             GBCL_TXSTATUS_MASK_REG = GBCL_INIT_TX_INTERRUPTS_MASK;
  66              		.loc 1 150 0
  67 0030 4D32     		adds	r2, r2, #77
  68 0032 1370     		strb	r3, [r2]
  69 0034 08BD     		pop	{r3, pc}
  70              	.L4:
  71 0036 00BF     		.align	2
  72              	.L3:
  73 0038 00000000 		.word	GBCL_RXISR
  74 003c 00000000 		.word	.LANCHOR0
  75 0040 8A640040 		.word	1073767562
  76              		.cfi_endproc
  77              	.LFE1:
  78              		.size	GBCL_Init, .-GBCL_Init
ARM GAS  C:\Users\THERMA~1\AppData\Local\Temp\ccQ3Sx9h.s 			page 5


  79              		.section	.text.GBCL_Enable,"ax",%progbits
  80              		.align	2
  81              		.global	GBCL_Enable
  82              		.thumb
  83              		.thumb_func
  84              		.type	GBCL_Enable, %function
  85              	GBCL_Enable:
  86              	.LFB2:
 151:Generated_Source\PSoC5/GBCL.c ****         #endif /*End GBCL_TX_INTERRUPT_ENABLED*/
 152:Generated_Source\PSoC5/GBCL.c **** 
 153:Generated_Source\PSoC5/GBCL.c ****     #endif /* End GBCL_TX_ENABLED */
 154:Generated_Source\PSoC5/GBCL.c **** 
 155:Generated_Source\PSoC5/GBCL.c ****     #if(GBCL_PARITY_TYPE_SW)  /* Write Parity to Control Register */
 156:Generated_Source\PSoC5/GBCL.c ****         GBCL_WriteControlRegister( \
 157:Generated_Source\PSoC5/GBCL.c ****             (GBCL_ReadControlRegister() & (uint8)~GBCL_CTRL_PARITY_TYPE_MASK) | \
 158:Generated_Source\PSoC5/GBCL.c ****             (uint8)(GBCL_PARITY_TYPE << GBCL_CTRL_PARITY_TYPE0_SHIFT) );
 159:Generated_Source\PSoC5/GBCL.c ****     #endif /* End GBCL_PARITY_TYPE_SW */
 160:Generated_Source\PSoC5/GBCL.c **** }
 161:Generated_Source\PSoC5/GBCL.c **** 
 162:Generated_Source\PSoC5/GBCL.c **** 
 163:Generated_Source\PSoC5/GBCL.c **** /*******************************************************************************
 164:Generated_Source\PSoC5/GBCL.c **** * Function Name: GBCL_Enable
 165:Generated_Source\PSoC5/GBCL.c **** ********************************************************************************
 166:Generated_Source\PSoC5/GBCL.c **** *
 167:Generated_Source\PSoC5/GBCL.c **** * Summary:
 168:Generated_Source\PSoC5/GBCL.c **** *  Activates the hardware and begins component operation. It is not necessary
 169:Generated_Source\PSoC5/GBCL.c **** *  to call GBCL_Enable() because the GBCL_Start() API
 170:Generated_Source\PSoC5/GBCL.c **** *  calls this function, which is the preferred method to begin component
 171:Generated_Source\PSoC5/GBCL.c **** *  operation.
 172:Generated_Source\PSoC5/GBCL.c **** 
 173:Generated_Source\PSoC5/GBCL.c **** * Parameters:
 174:Generated_Source\PSoC5/GBCL.c **** *  None.
 175:Generated_Source\PSoC5/GBCL.c **** *
 176:Generated_Source\PSoC5/GBCL.c **** * Return:
 177:Generated_Source\PSoC5/GBCL.c **** *  None.
 178:Generated_Source\PSoC5/GBCL.c **** *
 179:Generated_Source\PSoC5/GBCL.c **** * Global Variables:
 180:Generated_Source\PSoC5/GBCL.c **** *  GBCL_rxAddressDetected - set to initial state (0).
 181:Generated_Source\PSoC5/GBCL.c **** *
 182:Generated_Source\PSoC5/GBCL.c **** *******************************************************************************/
 183:Generated_Source\PSoC5/GBCL.c **** void GBCL_Enable(void) 
 184:Generated_Source\PSoC5/GBCL.c **** {
  87              		.loc 1 184 0
  88              		.cfi_startproc
  89              		@ args = 0, pretend = 0, frame = 0
  90              		@ frame_needed = 0, uses_anonymous_args = 0
  91 0000 08B5     		push	{r3, lr}
  92              		.cfi_def_cfa_offset 8
  93              		.cfi_offset 3, -8
  94              		.cfi_offset 14, -4
 185:Generated_Source\PSoC5/GBCL.c ****     uint8 enableInterrupts;
 186:Generated_Source\PSoC5/GBCL.c ****     enableInterrupts = CyEnterCriticalSection();
  95              		.loc 1 186 0
  96 0002 FFF7FEFF 		bl	CyEnterCriticalSection
  97              	.LVL2:
 187:Generated_Source\PSoC5/GBCL.c **** 
 188:Generated_Source\PSoC5/GBCL.c ****     #if (GBCL_RX_ENABLED || GBCL_HD_ENABLED)
ARM GAS  C:\Users\THERMA~1\AppData\Local\Temp\ccQ3Sx9h.s 			page 6


 189:Generated_Source\PSoC5/GBCL.c ****         /* RX Counter (Count7) Enable */
 190:Generated_Source\PSoC5/GBCL.c ****         GBCL_RXBITCTR_CONTROL_REG |= GBCL_CNTR_ENABLE;
  98              		.loc 1 190 0
  99 0006 0A4A     		ldr	r2, .L7
 100 0008 1378     		ldrb	r3, [r2]	@ zero_extendqisi2
 101 000a 43F02003 		orr	r3, r3, #32
 102 000e 1370     		strb	r3, [r2]
 191:Generated_Source\PSoC5/GBCL.c **** 
 192:Generated_Source\PSoC5/GBCL.c ****         /* Enable the RX Interrupt */
 193:Generated_Source\PSoC5/GBCL.c ****         GBCL_RXSTATUS_ACTL_REG  |= GBCL_INT_ENABLE;
 103              		.loc 1 193 0
 104 0010 0532     		adds	r2, r2, #5
 105 0012 1378     		ldrb	r3, [r2]	@ zero_extendqisi2
 106 0014 43F01003 		orr	r3, r3, #16
 107 0018 1370     		strb	r3, [r2]
 194:Generated_Source\PSoC5/GBCL.c **** 
 195:Generated_Source\PSoC5/GBCL.c ****         #if (GBCL_RX_INTERRUPT_ENABLED)
 196:Generated_Source\PSoC5/GBCL.c ****             GBCL_EnableRxInt();
 108              		.loc 1 196 0
 109 001a 0122     		movs	r2, #1
 110 001c 054B     		ldr	r3, .L7+4
 111 001e 1A60     		str	r2, [r3]
 197:Generated_Source\PSoC5/GBCL.c **** 
 198:Generated_Source\PSoC5/GBCL.c ****             #if (GBCL_RXHW_ADDRESS_ENABLED)
 199:Generated_Source\PSoC5/GBCL.c ****                 GBCL_rxAddressDetected = 0u;
 200:Generated_Source\PSoC5/GBCL.c ****             #endif /* (GBCL_RXHW_ADDRESS_ENABLED) */
 201:Generated_Source\PSoC5/GBCL.c ****         #endif /* (GBCL_RX_INTERRUPT_ENABLED) */
 202:Generated_Source\PSoC5/GBCL.c ****     #endif /* (GBCL_RX_ENABLED || GBCL_HD_ENABLED) */
 203:Generated_Source\PSoC5/GBCL.c **** 
 204:Generated_Source\PSoC5/GBCL.c ****     #if(GBCL_TX_ENABLED)
 205:Generated_Source\PSoC5/GBCL.c ****         /* TX Counter (DP/Count7) Enable */
 206:Generated_Source\PSoC5/GBCL.c ****         #if(!GBCL_TXCLKGEN_DP)
 207:Generated_Source\PSoC5/GBCL.c ****             GBCL_TXBITCTR_CONTROL_REG |= GBCL_CNTR_ENABLE;
 208:Generated_Source\PSoC5/GBCL.c ****         #endif /* End GBCL_TXCLKGEN_DP */
 209:Generated_Source\PSoC5/GBCL.c **** 
 210:Generated_Source\PSoC5/GBCL.c ****         /* Enable the TX Interrupt */
 211:Generated_Source\PSoC5/GBCL.c ****         GBCL_TXSTATUS_ACTL_REG |= GBCL_INT_ENABLE;
 112              		.loc 1 211 0
 113 0020 054A     		ldr	r2, .L7+8
 114 0022 1378     		ldrb	r3, [r2]	@ zero_extendqisi2
 115 0024 43F01003 		orr	r3, r3, #16
 116 0028 1370     		strb	r3, [r2]
 212:Generated_Source\PSoC5/GBCL.c ****         #if (GBCL_TX_INTERRUPT_ENABLED)
 213:Generated_Source\PSoC5/GBCL.c ****             GBCL_ClearPendingTxInt(); /* Clear history of TX_NOT_EMPTY */
 214:Generated_Source\PSoC5/GBCL.c ****             GBCL_EnableTxInt();
 215:Generated_Source\PSoC5/GBCL.c ****         #endif /* (GBCL_TX_INTERRUPT_ENABLED) */
 216:Generated_Source\PSoC5/GBCL.c ****      #endif /* (GBCL_TX_INTERRUPT_ENABLED) */
 217:Generated_Source\PSoC5/GBCL.c **** 
 218:Generated_Source\PSoC5/GBCL.c ****     #if (GBCL_INTERNAL_CLOCK_USED)
 219:Generated_Source\PSoC5/GBCL.c ****         GBCL_IntClock_Start();  /* Enable the clock */
 220:Generated_Source\PSoC5/GBCL.c ****     #endif /* (GBCL_INTERNAL_CLOCK_USED) */
 221:Generated_Source\PSoC5/GBCL.c **** 
 222:Generated_Source\PSoC5/GBCL.c ****     CyExitCriticalSection(enableInterrupts);
 117              		.loc 1 222 0
 118 002a FFF7FEFF 		bl	CyExitCriticalSection
 119              	.LVL3:
 120 002e 08BD     		pop	{r3, pc}
ARM GAS  C:\Users\THERMA~1\AppData\Local\Temp\ccQ3Sx9h.s 			page 7


 121              	.L8:
 122              		.align	2
 123              	.L7:
 124 0030 9A640040 		.word	1073767578
 125 0034 00E100E0 		.word	-536813312
 126 0038 9C640040 		.word	1073767580
 127              		.cfi_endproc
 128              	.LFE2:
 129              		.size	GBCL_Enable, .-GBCL_Enable
 130              		.section	.text.GBCL_Start,"ax",%progbits
 131              		.align	2
 132              		.global	GBCL_Start
 133              		.thumb
 134              		.thumb_func
 135              		.type	GBCL_Start, %function
 136              	GBCL_Start:
 137              	.LFB0:
  77:Generated_Source\PSoC5/GBCL.c ****     /* If not initialized then initialize all required hardware and software */
 138              		.loc 1 77 0
 139              		.cfi_startproc
 140              		@ args = 0, pretend = 0, frame = 0
 141              		@ frame_needed = 0, uses_anonymous_args = 0
 142 0000 08B5     		push	{r3, lr}
 143              		.cfi_def_cfa_offset 8
 144              		.cfi_offset 3, -8
 145              		.cfi_offset 14, -4
  79:Generated_Source\PSoC5/GBCL.c ****     {
 146              		.loc 1 79 0
 147 0002 054B     		ldr	r3, .L12
 148 0004 5B78     		ldrb	r3, [r3, #1]	@ zero_extendqisi2
 149 0006 23B9     		cbnz	r3, .L10
  81:Generated_Source\PSoC5/GBCL.c ****         GBCL_initVar = 1u;
 150              		.loc 1 81 0
 151 0008 FFF7FEFF 		bl	GBCL_Init
 152              	.LVL4:
  82:Generated_Source\PSoC5/GBCL.c ****     }
 153              		.loc 1 82 0
 154 000c 0122     		movs	r2, #1
 155 000e 024B     		ldr	r3, .L12
 156 0010 5A70     		strb	r2, [r3, #1]
 157              	.L10:
  85:Generated_Source\PSoC5/GBCL.c **** }
 158              		.loc 1 85 0
 159 0012 FFF7FEFF 		bl	GBCL_Enable
 160              	.LVL5:
 161 0016 08BD     		pop	{r3, pc}
 162              	.L13:
 163              		.align	2
 164              	.L12:
 165 0018 00000000 		.word	.LANCHOR0
 166              		.cfi_endproc
 167              	.LFE0:
 168              		.size	GBCL_Start, .-GBCL_Start
 169              		.section	.text.GBCL_Stop,"ax",%progbits
 170              		.align	2
 171              		.global	GBCL_Stop
 172              		.thumb
ARM GAS  C:\Users\THERMA~1\AppData\Local\Temp\ccQ3Sx9h.s 			page 8


 173              		.thumb_func
 174              		.type	GBCL_Stop, %function
 175              	GBCL_Stop:
 176              	.LFB3:
 223:Generated_Source\PSoC5/GBCL.c **** }
 224:Generated_Source\PSoC5/GBCL.c **** 
 225:Generated_Source\PSoC5/GBCL.c **** 
 226:Generated_Source\PSoC5/GBCL.c **** /*******************************************************************************
 227:Generated_Source\PSoC5/GBCL.c **** * Function Name: GBCL_Stop
 228:Generated_Source\PSoC5/GBCL.c **** ********************************************************************************
 229:Generated_Source\PSoC5/GBCL.c **** *
 230:Generated_Source\PSoC5/GBCL.c **** * Summary:
 231:Generated_Source\PSoC5/GBCL.c **** *  Disables the UART operation.
 232:Generated_Source\PSoC5/GBCL.c **** *
 233:Generated_Source\PSoC5/GBCL.c **** * Parameters:
 234:Generated_Source\PSoC5/GBCL.c **** *  None.
 235:Generated_Source\PSoC5/GBCL.c **** *
 236:Generated_Source\PSoC5/GBCL.c **** * Return:
 237:Generated_Source\PSoC5/GBCL.c **** *  None.
 238:Generated_Source\PSoC5/GBCL.c **** *
 239:Generated_Source\PSoC5/GBCL.c **** *******************************************************************************/
 240:Generated_Source\PSoC5/GBCL.c **** void GBCL_Stop(void) 
 241:Generated_Source\PSoC5/GBCL.c **** {
 177              		.loc 1 241 0
 178              		.cfi_startproc
 179              		@ args = 0, pretend = 0, frame = 0
 180              		@ frame_needed = 0, uses_anonymous_args = 0
 181 0000 08B5     		push	{r3, lr}
 182              		.cfi_def_cfa_offset 8
 183              		.cfi_offset 3, -8
 184              		.cfi_offset 14, -4
 242:Generated_Source\PSoC5/GBCL.c ****     uint8 enableInterrupts;
 243:Generated_Source\PSoC5/GBCL.c ****     enableInterrupts = CyEnterCriticalSection();
 185              		.loc 1 243 0
 186 0002 FFF7FEFF 		bl	CyEnterCriticalSection
 187              	.LVL6:
 244:Generated_Source\PSoC5/GBCL.c **** 
 245:Generated_Source\PSoC5/GBCL.c ****     /* Write Bit Counter Disable */
 246:Generated_Source\PSoC5/GBCL.c ****     #if (GBCL_RX_ENABLED || GBCL_HD_ENABLED)
 247:Generated_Source\PSoC5/GBCL.c ****         GBCL_RXBITCTR_CONTROL_REG &= (uint8) ~GBCL_CNTR_ENABLE;
 188              		.loc 1 247 0
 189 0006 0A4A     		ldr	r2, .L16
 190 0008 1378     		ldrb	r3, [r2]	@ zero_extendqisi2
 191 000a 03F0DF03 		and	r3, r3, #223
 192 000e 1370     		strb	r3, [r2]
 248:Generated_Source\PSoC5/GBCL.c ****     #endif /* (GBCL_RX_ENABLED || GBCL_HD_ENABLED) */
 249:Generated_Source\PSoC5/GBCL.c **** 
 250:Generated_Source\PSoC5/GBCL.c ****     #if (GBCL_TX_ENABLED)
 251:Generated_Source\PSoC5/GBCL.c ****         #if(!GBCL_TXCLKGEN_DP)
 252:Generated_Source\PSoC5/GBCL.c ****             GBCL_TXBITCTR_CONTROL_REG &= (uint8) ~GBCL_CNTR_ENABLE;
 253:Generated_Source\PSoC5/GBCL.c ****         #endif /* (!GBCL_TXCLKGEN_DP) */
 254:Generated_Source\PSoC5/GBCL.c ****     #endif /* (GBCL_TX_ENABLED) */
 255:Generated_Source\PSoC5/GBCL.c **** 
 256:Generated_Source\PSoC5/GBCL.c ****     #if (GBCL_INTERNAL_CLOCK_USED)
 257:Generated_Source\PSoC5/GBCL.c ****         GBCL_IntClock_Stop();   /* Disable the clock */
 258:Generated_Source\PSoC5/GBCL.c ****     #endif /* (GBCL_INTERNAL_CLOCK_USED) */
 259:Generated_Source\PSoC5/GBCL.c **** 
ARM GAS  C:\Users\THERMA~1\AppData\Local\Temp\ccQ3Sx9h.s 			page 9


 260:Generated_Source\PSoC5/GBCL.c ****     /* Disable internal interrupt component */
 261:Generated_Source\PSoC5/GBCL.c ****     #if (GBCL_RX_ENABLED || GBCL_HD_ENABLED)
 262:Generated_Source\PSoC5/GBCL.c ****         GBCL_RXSTATUS_ACTL_REG  &= (uint8) ~GBCL_INT_ENABLE;
 193              		.loc 1 262 0
 194 0010 0532     		adds	r2, r2, #5
 195 0012 1378     		ldrb	r3, [r2]	@ zero_extendqisi2
 196 0014 03F0EF03 		and	r3, r3, #239
 197 0018 1370     		strb	r3, [r2]
 263:Generated_Source\PSoC5/GBCL.c **** 
 264:Generated_Source\PSoC5/GBCL.c ****         #if (GBCL_RX_INTERRUPT_ENABLED)
 265:Generated_Source\PSoC5/GBCL.c ****             GBCL_DisableRxInt();
 198              		.loc 1 265 0
 199 001a 0122     		movs	r2, #1
 200 001c 054B     		ldr	r3, .L16+4
 201 001e 1A60     		str	r2, [r3]
 266:Generated_Source\PSoC5/GBCL.c ****         #endif /* (GBCL_RX_INTERRUPT_ENABLED) */
 267:Generated_Source\PSoC5/GBCL.c ****     #endif /* (GBCL_RX_ENABLED || GBCL_HD_ENABLED) */
 268:Generated_Source\PSoC5/GBCL.c **** 
 269:Generated_Source\PSoC5/GBCL.c ****     #if (GBCL_TX_ENABLED)
 270:Generated_Source\PSoC5/GBCL.c ****         GBCL_TXSTATUS_ACTL_REG &= (uint8) ~GBCL_INT_ENABLE;
 202              		.loc 1 270 0
 203 0020 054A     		ldr	r2, .L16+8
 204 0022 1378     		ldrb	r3, [r2]	@ zero_extendqisi2
 205 0024 03F0EF03 		and	r3, r3, #239
 206 0028 1370     		strb	r3, [r2]
 271:Generated_Source\PSoC5/GBCL.c **** 
 272:Generated_Source\PSoC5/GBCL.c ****         #if (GBCL_TX_INTERRUPT_ENABLED)
 273:Generated_Source\PSoC5/GBCL.c ****             GBCL_DisableTxInt();
 274:Generated_Source\PSoC5/GBCL.c ****         #endif /* (GBCL_TX_INTERRUPT_ENABLED) */
 275:Generated_Source\PSoC5/GBCL.c ****     #endif /* (GBCL_TX_ENABLED) */
 276:Generated_Source\PSoC5/GBCL.c **** 
 277:Generated_Source\PSoC5/GBCL.c ****     CyExitCriticalSection(enableInterrupts);
 207              		.loc 1 277 0
 208 002a FFF7FEFF 		bl	CyExitCriticalSection
 209              	.LVL7:
 210 002e 08BD     		pop	{r3, pc}
 211              	.L17:
 212              		.align	2
 213              	.L16:
 214 0030 9A640040 		.word	1073767578
 215 0034 80E100E0 		.word	-536813184
 216 0038 9C640040 		.word	1073767580
 217              		.cfi_endproc
 218              	.LFE3:
 219              		.size	GBCL_Stop, .-GBCL_Stop
 220              		.section	.text.GBCL_ReadControlRegister,"ax",%progbits
 221              		.align	2
 222              		.global	GBCL_ReadControlRegister
 223              		.thumb
 224              		.thumb_func
 225              		.type	GBCL_ReadControlRegister, %function
 226              	GBCL_ReadControlRegister:
 227              	.LFB4:
 278:Generated_Source\PSoC5/GBCL.c **** }
 279:Generated_Source\PSoC5/GBCL.c **** 
 280:Generated_Source\PSoC5/GBCL.c **** 
 281:Generated_Source\PSoC5/GBCL.c **** /*******************************************************************************
ARM GAS  C:\Users\THERMA~1\AppData\Local\Temp\ccQ3Sx9h.s 			page 10


 282:Generated_Source\PSoC5/GBCL.c **** * Function Name: GBCL_ReadControlRegister
 283:Generated_Source\PSoC5/GBCL.c **** ********************************************************************************
 284:Generated_Source\PSoC5/GBCL.c **** *
 285:Generated_Source\PSoC5/GBCL.c **** * Summary:
 286:Generated_Source\PSoC5/GBCL.c **** *  Returns the current value of the control register.
 287:Generated_Source\PSoC5/GBCL.c **** *
 288:Generated_Source\PSoC5/GBCL.c **** * Parameters:
 289:Generated_Source\PSoC5/GBCL.c **** *  None.
 290:Generated_Source\PSoC5/GBCL.c **** *
 291:Generated_Source\PSoC5/GBCL.c **** * Return:
 292:Generated_Source\PSoC5/GBCL.c **** *  Contents of the control register.
 293:Generated_Source\PSoC5/GBCL.c **** *
 294:Generated_Source\PSoC5/GBCL.c **** *******************************************************************************/
 295:Generated_Source\PSoC5/GBCL.c **** uint8 GBCL_ReadControlRegister(void) 
 296:Generated_Source\PSoC5/GBCL.c **** {
 228              		.loc 1 296 0
 229              		.cfi_startproc
 230              		@ args = 0, pretend = 0, frame = 0
 231              		@ frame_needed = 0, uses_anonymous_args = 0
 232              		@ link register save eliminated.
 297:Generated_Source\PSoC5/GBCL.c ****     #if (GBCL_CONTROL_REG_REMOVED)
 298:Generated_Source\PSoC5/GBCL.c ****         return(0u);
 299:Generated_Source\PSoC5/GBCL.c ****     #else
 300:Generated_Source\PSoC5/GBCL.c ****         return(GBCL_CONTROL_REG);
 301:Generated_Source\PSoC5/GBCL.c ****     #endif /* (GBCL_CONTROL_REG_REMOVED) */
 302:Generated_Source\PSoC5/GBCL.c **** }
 233              		.loc 1 302 0
 234 0000 0020     		movs	r0, #0
 235 0002 7047     		bx	lr
 236              		.cfi_endproc
 237              	.LFE4:
 238              		.size	GBCL_ReadControlRegister, .-GBCL_ReadControlRegister
 239              		.section	.text.GBCL_WriteControlRegister,"ax",%progbits
 240              		.align	2
 241              		.global	GBCL_WriteControlRegister
 242              		.thumb
 243              		.thumb_func
 244              		.type	GBCL_WriteControlRegister, %function
 245              	GBCL_WriteControlRegister:
 246              	.LFB5:
 303:Generated_Source\PSoC5/GBCL.c **** 
 304:Generated_Source\PSoC5/GBCL.c **** 
 305:Generated_Source\PSoC5/GBCL.c **** /*******************************************************************************
 306:Generated_Source\PSoC5/GBCL.c **** * Function Name: GBCL_WriteControlRegister
 307:Generated_Source\PSoC5/GBCL.c **** ********************************************************************************
 308:Generated_Source\PSoC5/GBCL.c **** *
 309:Generated_Source\PSoC5/GBCL.c **** * Summary:
 310:Generated_Source\PSoC5/GBCL.c **** *  Writes an 8-bit value into the control register
 311:Generated_Source\PSoC5/GBCL.c **** *
 312:Generated_Source\PSoC5/GBCL.c **** * Parameters:
 313:Generated_Source\PSoC5/GBCL.c **** *  control:  control register value
 314:Generated_Source\PSoC5/GBCL.c **** *
 315:Generated_Source\PSoC5/GBCL.c **** * Return:
 316:Generated_Source\PSoC5/GBCL.c **** *  None.
 317:Generated_Source\PSoC5/GBCL.c **** *
 318:Generated_Source\PSoC5/GBCL.c **** *******************************************************************************/
 319:Generated_Source\PSoC5/GBCL.c **** void  GBCL_WriteControlRegister(uint8 control) 
ARM GAS  C:\Users\THERMA~1\AppData\Local\Temp\ccQ3Sx9h.s 			page 11


 320:Generated_Source\PSoC5/GBCL.c **** {
 247              		.loc 1 320 0
 248              		.cfi_startproc
 249              		@ args = 0, pretend = 0, frame = 0
 250              		@ frame_needed = 0, uses_anonymous_args = 0
 251              		@ link register save eliminated.
 252              	.LVL8:
 253 0000 7047     		bx	lr
 254              		.cfi_endproc
 255              	.LFE5:
 256              		.size	GBCL_WriteControlRegister, .-GBCL_WriteControlRegister
 257 0002 00BF     		.section	.text.GBCL_SetRxInterruptMode,"ax",%progbits
 258              		.align	2
 259              		.global	GBCL_SetRxInterruptMode
 260              		.thumb
 261              		.thumb_func
 262              		.type	GBCL_SetRxInterruptMode, %function
 263              	GBCL_SetRxInterruptMode:
 264              	.LFB6:
 321:Generated_Source\PSoC5/GBCL.c ****     #if (GBCL_CONTROL_REG_REMOVED)
 322:Generated_Source\PSoC5/GBCL.c ****         if(0u != control)
 323:Generated_Source\PSoC5/GBCL.c ****         {
 324:Generated_Source\PSoC5/GBCL.c ****             /* Suppress compiler warning */
 325:Generated_Source\PSoC5/GBCL.c ****         }
 326:Generated_Source\PSoC5/GBCL.c ****     #else
 327:Generated_Source\PSoC5/GBCL.c ****        GBCL_CONTROL_REG = control;
 328:Generated_Source\PSoC5/GBCL.c ****     #endif /* (GBCL_CONTROL_REG_REMOVED) */
 329:Generated_Source\PSoC5/GBCL.c **** }
 330:Generated_Source\PSoC5/GBCL.c **** 
 331:Generated_Source\PSoC5/GBCL.c **** 
 332:Generated_Source\PSoC5/GBCL.c **** #if(GBCL_RX_ENABLED || GBCL_HD_ENABLED)
 333:Generated_Source\PSoC5/GBCL.c ****     /*******************************************************************************
 334:Generated_Source\PSoC5/GBCL.c ****     * Function Name: GBCL_SetRxInterruptMode
 335:Generated_Source\PSoC5/GBCL.c ****     ********************************************************************************
 336:Generated_Source\PSoC5/GBCL.c ****     *
 337:Generated_Source\PSoC5/GBCL.c ****     * Summary:
 338:Generated_Source\PSoC5/GBCL.c ****     *  Configures the RX interrupt sources enabled.
 339:Generated_Source\PSoC5/GBCL.c ****     *
 340:Generated_Source\PSoC5/GBCL.c ****     * Parameters:
 341:Generated_Source\PSoC5/GBCL.c ****     *  IntSrc:  Bit field containing the RX interrupts to enable. Based on the 
 342:Generated_Source\PSoC5/GBCL.c ****     *  bit-field arrangement of the status register. This value must be a 
 343:Generated_Source\PSoC5/GBCL.c ****     *  combination of status register bit-masks shown below:
 344:Generated_Source\PSoC5/GBCL.c ****     *      GBCL_RX_STS_FIFO_NOTEMPTY    Interrupt on byte received.
 345:Generated_Source\PSoC5/GBCL.c ****     *      GBCL_RX_STS_PAR_ERROR        Interrupt on parity error.
 346:Generated_Source\PSoC5/GBCL.c ****     *      GBCL_RX_STS_STOP_ERROR       Interrupt on stop error.
 347:Generated_Source\PSoC5/GBCL.c ****     *      GBCL_RX_STS_BREAK            Interrupt on break.
 348:Generated_Source\PSoC5/GBCL.c ****     *      GBCL_RX_STS_OVERRUN          Interrupt on overrun error.
 349:Generated_Source\PSoC5/GBCL.c ****     *      GBCL_RX_STS_ADDR_MATCH       Interrupt on address match.
 350:Generated_Source\PSoC5/GBCL.c ****     *      GBCL_RX_STS_MRKSPC           Interrupt on address detect.
 351:Generated_Source\PSoC5/GBCL.c ****     *
 352:Generated_Source\PSoC5/GBCL.c ****     * Return:
 353:Generated_Source\PSoC5/GBCL.c ****     *  None.
 354:Generated_Source\PSoC5/GBCL.c ****     *
 355:Generated_Source\PSoC5/GBCL.c ****     * Theory:
 356:Generated_Source\PSoC5/GBCL.c ****     *  Enables the output of specific status bits to the interrupt controller
 357:Generated_Source\PSoC5/GBCL.c ****     *
 358:Generated_Source\PSoC5/GBCL.c ****     *******************************************************************************/
ARM GAS  C:\Users\THERMA~1\AppData\Local\Temp\ccQ3Sx9h.s 			page 12


 359:Generated_Source\PSoC5/GBCL.c ****     void GBCL_SetRxInterruptMode(uint8 intSrc) 
 360:Generated_Source\PSoC5/GBCL.c ****     {
 265              		.loc 1 360 0
 266              		.cfi_startproc
 267              		@ args = 0, pretend = 0, frame = 0
 268              		@ frame_needed = 0, uses_anonymous_args = 0
 269              		@ link register save eliminated.
 270              	.LVL9:
 361:Generated_Source\PSoC5/GBCL.c ****         GBCL_RXSTATUS_MASK_REG  = intSrc;
 271              		.loc 1 361 0
 272 0000 014B     		ldr	r3, .L21
 273 0002 1870     		strb	r0, [r3]
 274 0004 7047     		bx	lr
 275              	.L22:
 276 0006 00BF     		.align	2
 277              	.L21:
 278 0008 8F640040 		.word	1073767567
 279              		.cfi_endproc
 280              	.LFE6:
 281              		.size	GBCL_SetRxInterruptMode, .-GBCL_SetRxInterruptMode
 282              		.section	.text.GBCL_ReadRxData,"ax",%progbits
 283              		.align	2
 284              		.global	GBCL_ReadRxData
 285              		.thumb
 286              		.thumb_func
 287              		.type	GBCL_ReadRxData, %function
 288              	GBCL_ReadRxData:
 289              	.LFB7:
 362:Generated_Source\PSoC5/GBCL.c ****     }
 363:Generated_Source\PSoC5/GBCL.c **** 
 364:Generated_Source\PSoC5/GBCL.c **** 
 365:Generated_Source\PSoC5/GBCL.c ****     /*******************************************************************************
 366:Generated_Source\PSoC5/GBCL.c ****     * Function Name: GBCL_ReadRxData
 367:Generated_Source\PSoC5/GBCL.c ****     ********************************************************************************
 368:Generated_Source\PSoC5/GBCL.c ****     *
 369:Generated_Source\PSoC5/GBCL.c ****     * Summary:
 370:Generated_Source\PSoC5/GBCL.c ****     *  Returns the next byte of received data. This function returns data without
 371:Generated_Source\PSoC5/GBCL.c ****     *  checking the status. You must check the status separately.
 372:Generated_Source\PSoC5/GBCL.c ****     *
 373:Generated_Source\PSoC5/GBCL.c ****     * Parameters:
 374:Generated_Source\PSoC5/GBCL.c ****     *  None.
 375:Generated_Source\PSoC5/GBCL.c ****     *
 376:Generated_Source\PSoC5/GBCL.c ****     * Return:
 377:Generated_Source\PSoC5/GBCL.c ****     *  Received data from RX register
 378:Generated_Source\PSoC5/GBCL.c ****     *
 379:Generated_Source\PSoC5/GBCL.c ****     * Global Variables:
 380:Generated_Source\PSoC5/GBCL.c ****     *  GBCL_rxBuffer - RAM buffer pointer for save received data.
 381:Generated_Source\PSoC5/GBCL.c ****     *  GBCL_rxBufferWrite - cyclic index for write to rxBuffer,
 382:Generated_Source\PSoC5/GBCL.c ****     *     checked to identify new data.
 383:Generated_Source\PSoC5/GBCL.c ****     *  GBCL_rxBufferRead - cyclic index for read from rxBuffer,
 384:Generated_Source\PSoC5/GBCL.c ****     *     incremented after each byte has been read from buffer.
 385:Generated_Source\PSoC5/GBCL.c ****     *  GBCL_rxBufferLoopDetect - cleared if loop condition was detected
 386:Generated_Source\PSoC5/GBCL.c ****     *     in RX ISR.
 387:Generated_Source\PSoC5/GBCL.c ****     *
 388:Generated_Source\PSoC5/GBCL.c ****     * Reentrant:
 389:Generated_Source\PSoC5/GBCL.c ****     *  No.
 390:Generated_Source\PSoC5/GBCL.c ****     *
ARM GAS  C:\Users\THERMA~1\AppData\Local\Temp\ccQ3Sx9h.s 			page 13


 391:Generated_Source\PSoC5/GBCL.c ****     *******************************************************************************/
 392:Generated_Source\PSoC5/GBCL.c ****     uint8 GBCL_ReadRxData(void) 
 393:Generated_Source\PSoC5/GBCL.c ****     {
 290              		.loc 1 393 0
 291              		.cfi_startproc
 292              		@ args = 0, pretend = 0, frame = 0
 293              		@ frame_needed = 0, uses_anonymous_args = 0
 294              		@ link register save eliminated.
 394:Generated_Source\PSoC5/GBCL.c ****         uint8 rxData;
 395:Generated_Source\PSoC5/GBCL.c **** 
 396:Generated_Source\PSoC5/GBCL.c ****     #if (GBCL_RX_INTERRUPT_ENABLED)
 397:Generated_Source\PSoC5/GBCL.c **** 
 398:Generated_Source\PSoC5/GBCL.c ****         uint8 locRxBufferRead;
 399:Generated_Source\PSoC5/GBCL.c ****         uint8 locRxBufferWrite;
 400:Generated_Source\PSoC5/GBCL.c **** 
 401:Generated_Source\PSoC5/GBCL.c ****         /* Protect variables that could change on interrupt */
 402:Generated_Source\PSoC5/GBCL.c ****         GBCL_DisableRxInt();
 295              		.loc 1 402 0
 296 0000 0122     		movs	r2, #1
 297 0002 134B     		ldr	r3, .L29
 298 0004 1A60     		str	r2, [r3]
 403:Generated_Source\PSoC5/GBCL.c **** 
 404:Generated_Source\PSoC5/GBCL.c ****         locRxBufferRead  = GBCL_rxBufferRead;
 299              		.loc 1 404 0
 300 0006 134A     		ldr	r2, .L29+4
 301 0008 9378     		ldrb	r3, [r2, #2]	@ zero_extendqisi2
 302 000a DBB2     		uxtb	r3, r3
 303              	.LVL10:
 405:Generated_Source\PSoC5/GBCL.c ****         locRxBufferWrite = GBCL_rxBufferWrite;
 304              		.loc 1 405 0
 305 000c D178     		ldrb	r1, [r2, #3]	@ zero_extendqisi2
 306 000e C9B2     		uxtb	r1, r1
 307              	.LVL11:
 406:Generated_Source\PSoC5/GBCL.c **** 
 407:Generated_Source\PSoC5/GBCL.c ****         if( (GBCL_rxBufferLoopDetect != 0u) || (locRxBufferRead != locRxBufferWrite) )
 308              		.loc 1 407 0
 309 0010 1279     		ldrb	r2, [r2, #4]	@ zero_extendqisi2
 310 0012 12F0FF0F 		tst	r2, #255
 311 0016 01D1     		bne	.L24
 312              		.loc 1 407 0 is_stmt 0 discriminator 1
 313 0018 8B42     		cmp	r3, r1
 314 001a 12D0     		beq	.L25
 315              	.L24:
 408:Generated_Source\PSoC5/GBCL.c ****         {
 409:Generated_Source\PSoC5/GBCL.c ****             rxData = GBCL_rxBuffer[locRxBufferRead];
 316              		.loc 1 409 0 is_stmt 1
 317 001c 0E4A     		ldr	r2, .L29+8
 318 001e D05C     		ldrb	r0, [r2, r3]	@ zero_extendqisi2
 319 0020 C0B2     		uxtb	r0, r0
 320              	.LVL12:
 410:Generated_Source\PSoC5/GBCL.c ****             locRxBufferRead++;
 321              		.loc 1 410 0
 322 0022 0133     		adds	r3, r3, #1
 323              	.LVL13:
 324 0024 DBB2     		uxtb	r3, r3
 325              	.LVL14:
 411:Generated_Source\PSoC5/GBCL.c **** 
ARM GAS  C:\Users\THERMA~1\AppData\Local\Temp\ccQ3Sx9h.s 			page 14


 412:Generated_Source\PSoC5/GBCL.c ****             if(locRxBufferRead >= GBCL_RX_BUFFER_SIZE)
 326              		.loc 1 412 0
 327 0026 13F0800F 		tst	r3, #128
 328 002a 00D0     		beq	.L26
 413:Generated_Source\PSoC5/GBCL.c ****             {
 414:Generated_Source\PSoC5/GBCL.c ****                 locRxBufferRead = 0u;
 329              		.loc 1 414 0
 330 002c 0023     		movs	r3, #0
 331              	.LVL15:
 332              	.L26:
 415:Generated_Source\PSoC5/GBCL.c ****             }
 416:Generated_Source\PSoC5/GBCL.c ****             /* Update the real pointer */
 417:Generated_Source\PSoC5/GBCL.c ****             GBCL_rxBufferRead = locRxBufferRead;
 333              		.loc 1 417 0
 334 002e 094A     		ldr	r2, .L29+4
 335 0030 9370     		strb	r3, [r2, #2]
 418:Generated_Source\PSoC5/GBCL.c **** 
 419:Generated_Source\PSoC5/GBCL.c ****             if(GBCL_rxBufferLoopDetect != 0u)
 336              		.loc 1 419 0
 337 0032 1379     		ldrb	r3, [r2, #4]	@ zero_extendqisi2
 338              	.LVL16:
 339 0034 13F0FF0F 		tst	r3, #255
 340 0038 06D0     		beq	.L27
 420:Generated_Source\PSoC5/GBCL.c ****             {
 421:Generated_Source\PSoC5/GBCL.c ****                 GBCL_rxBufferLoopDetect = 0u;
 341              		.loc 1 421 0
 342 003a 0022     		movs	r2, #0
 343 003c 054B     		ldr	r3, .L29+4
 344 003e 1A71     		strb	r2, [r3, #4]
 345              	.LVL17:
 346 0040 02E0     		b	.L27
 347              	.LVL18:
 348              	.L25:
 422:Generated_Source\PSoC5/GBCL.c ****                 #if ((GBCL_RX_INTERRUPT_ENABLED) && (GBCL_FLOW_CONTROL != 0u))
 423:Generated_Source\PSoC5/GBCL.c ****                     /* When Hardware Flow Control selected - return RX mask */
 424:Generated_Source\PSoC5/GBCL.c ****                     #if( GBCL_HD_ENABLED )
 425:Generated_Source\PSoC5/GBCL.c ****                         if((GBCL_CONTROL_REG & GBCL_CTRL_HD_SEND) == 0u)
 426:Generated_Source\PSoC5/GBCL.c ****                         {   /* In Half duplex mode return RX mask only in RX
 427:Generated_Source\PSoC5/GBCL.c ****                             *  configuration set, otherwise
 428:Generated_Source\PSoC5/GBCL.c ****                             *  mask will be returned in LoadRxConfig() API.
 429:Generated_Source\PSoC5/GBCL.c ****                             */
 430:Generated_Source\PSoC5/GBCL.c ****                             GBCL_RXSTATUS_MASK_REG  |= GBCL_RX_STS_FIFO_NOTEMPTY;
 431:Generated_Source\PSoC5/GBCL.c ****                         }
 432:Generated_Source\PSoC5/GBCL.c ****                     #else
 433:Generated_Source\PSoC5/GBCL.c ****                         GBCL_RXSTATUS_MASK_REG  |= GBCL_RX_STS_FIFO_NOTEMPTY;
 434:Generated_Source\PSoC5/GBCL.c ****                     #endif /* end GBCL_HD_ENABLED */
 435:Generated_Source\PSoC5/GBCL.c ****                 #endif /* ((GBCL_RX_INTERRUPT_ENABLED) && (GBCL_FLOW_CONTROL != 0u)) */
 436:Generated_Source\PSoC5/GBCL.c ****             }
 437:Generated_Source\PSoC5/GBCL.c ****         }
 438:Generated_Source\PSoC5/GBCL.c ****         else
 439:Generated_Source\PSoC5/GBCL.c ****         {   /* Needs to check status for RX_STS_FIFO_NOTEMPTY bit */
 440:Generated_Source\PSoC5/GBCL.c ****             rxData = GBCL_RXDATA_REG;
 349              		.loc 1 440 0
 350 0042 064B     		ldr	r3, .L29+12
 351              	.LVL19:
 352 0044 1878     		ldrb	r0, [r3]	@ zero_extendqisi2
 353 0046 C0B2     		uxtb	r0, r0
ARM GAS  C:\Users\THERMA~1\AppData\Local\Temp\ccQ3Sx9h.s 			page 15


 354              	.LVL20:
 355              	.L27:
 441:Generated_Source\PSoC5/GBCL.c ****         }
 442:Generated_Source\PSoC5/GBCL.c **** 
 443:Generated_Source\PSoC5/GBCL.c ****         GBCL_EnableRxInt();
 356              		.loc 1 443 0
 357 0048 0122     		movs	r2, #1
 358 004a 054B     		ldr	r3, .L29+16
 359 004c 1A60     		str	r2, [r3]
 444:Generated_Source\PSoC5/GBCL.c **** 
 445:Generated_Source\PSoC5/GBCL.c ****     #else
 446:Generated_Source\PSoC5/GBCL.c **** 
 447:Generated_Source\PSoC5/GBCL.c ****         /* Needs to check status for RX_STS_FIFO_NOTEMPTY bit */
 448:Generated_Source\PSoC5/GBCL.c ****         rxData = GBCL_RXDATA_REG;
 449:Generated_Source\PSoC5/GBCL.c **** 
 450:Generated_Source\PSoC5/GBCL.c ****     #endif /* (GBCL_RX_INTERRUPT_ENABLED) */
 451:Generated_Source\PSoC5/GBCL.c **** 
 452:Generated_Source\PSoC5/GBCL.c ****         return(rxData);
 453:Generated_Source\PSoC5/GBCL.c ****     }
 360              		.loc 1 453 0
 361 004e 7047     		bx	lr
 362              	.L30:
 363              		.align	2
 364              	.L29:
 365 0050 80E100E0 		.word	-536813184
 366 0054 00000000 		.word	.LANCHOR0
 367 0058 00000000 		.word	GBCL_rxBuffer
 368 005c 4D640040 		.word	1073767501
 369 0060 00E100E0 		.word	-536813312
 370              		.cfi_endproc
 371              	.LFE7:
 372              		.size	GBCL_ReadRxData, .-GBCL_ReadRxData
 373              		.section	.text.GBCL_ReadRxStatus,"ax",%progbits
 374              		.align	2
 375              		.global	GBCL_ReadRxStatus
 376              		.thumb
 377              		.thumb_func
 378              		.type	GBCL_ReadRxStatus, %function
 379              	GBCL_ReadRxStatus:
 380              	.LFB8:
 454:Generated_Source\PSoC5/GBCL.c **** 
 455:Generated_Source\PSoC5/GBCL.c **** 
 456:Generated_Source\PSoC5/GBCL.c ****     /*******************************************************************************
 457:Generated_Source\PSoC5/GBCL.c ****     * Function Name: GBCL_ReadRxStatus
 458:Generated_Source\PSoC5/GBCL.c ****     ********************************************************************************
 459:Generated_Source\PSoC5/GBCL.c ****     *
 460:Generated_Source\PSoC5/GBCL.c ****     * Summary:
 461:Generated_Source\PSoC5/GBCL.c ****     *  Returns the current state of the receiver status register and the software
 462:Generated_Source\PSoC5/GBCL.c ****     *  buffer overflow status.
 463:Generated_Source\PSoC5/GBCL.c ****     *
 464:Generated_Source\PSoC5/GBCL.c ****     * Parameters:
 465:Generated_Source\PSoC5/GBCL.c ****     *  None.
 466:Generated_Source\PSoC5/GBCL.c ****     *
 467:Generated_Source\PSoC5/GBCL.c ****     * Return:
 468:Generated_Source\PSoC5/GBCL.c ****     *  Current state of the status register.
 469:Generated_Source\PSoC5/GBCL.c ****     *
 470:Generated_Source\PSoC5/GBCL.c ****     * Side Effect:
ARM GAS  C:\Users\THERMA~1\AppData\Local\Temp\ccQ3Sx9h.s 			page 16


 471:Generated_Source\PSoC5/GBCL.c ****     *  All status register bits are clear-on-read except
 472:Generated_Source\PSoC5/GBCL.c ****     *  GBCL_RX_STS_FIFO_NOTEMPTY.
 473:Generated_Source\PSoC5/GBCL.c ****     *  GBCL_RX_STS_FIFO_NOTEMPTY clears immediately after RX data
 474:Generated_Source\PSoC5/GBCL.c ****     *  register read.
 475:Generated_Source\PSoC5/GBCL.c ****     *
 476:Generated_Source\PSoC5/GBCL.c ****     * Global Variables:
 477:Generated_Source\PSoC5/GBCL.c ****     *  GBCL_rxBufferOverflow - used to indicate overload condition.
 478:Generated_Source\PSoC5/GBCL.c ****     *   It set to one in RX interrupt when there isn't free space in
 479:Generated_Source\PSoC5/GBCL.c ****     *   GBCL_rxBufferRead to write new data. This condition returned
 480:Generated_Source\PSoC5/GBCL.c ****     *   and cleared to zero by this API as an
 481:Generated_Source\PSoC5/GBCL.c ****     *   GBCL_RX_STS_SOFT_BUFF_OVER bit along with RX Status register
 482:Generated_Source\PSoC5/GBCL.c ****     *   bits.
 483:Generated_Source\PSoC5/GBCL.c ****     *
 484:Generated_Source\PSoC5/GBCL.c ****     *******************************************************************************/
 485:Generated_Source\PSoC5/GBCL.c ****     uint8 GBCL_ReadRxStatus(void) 
 486:Generated_Source\PSoC5/GBCL.c ****     {
 381              		.loc 1 486 0
 382              		.cfi_startproc
 383              		@ args = 0, pretend = 0, frame = 0
 384              		@ frame_needed = 0, uses_anonymous_args = 0
 385              		@ link register save eliminated.
 487:Generated_Source\PSoC5/GBCL.c ****         uint8 status;
 488:Generated_Source\PSoC5/GBCL.c **** 
 489:Generated_Source\PSoC5/GBCL.c ****         status = GBCL_RXSTATUS_REG & GBCL_RX_HW_MASK;
 386              		.loc 1 489 0
 387 0000 074B     		ldr	r3, .L33
 388 0002 1878     		ldrb	r0, [r3]	@ zero_extendqisi2
 389 0004 00F07F00 		and	r0, r0, #127
 390              	.LVL21:
 490:Generated_Source\PSoC5/GBCL.c **** 
 491:Generated_Source\PSoC5/GBCL.c ****     #if (GBCL_RX_INTERRUPT_ENABLED)
 492:Generated_Source\PSoC5/GBCL.c ****         if(GBCL_rxBufferOverflow != 0u)
 391              		.loc 1 492 0
 392 0008 064B     		ldr	r3, .L33+4
 393 000a 5B79     		ldrb	r3, [r3, #5]	@ zero_extendqisi2
 394 000c 13F0FF0F 		tst	r3, #255
 395 0010 04D0     		beq	.L32
 493:Generated_Source\PSoC5/GBCL.c ****         {
 494:Generated_Source\PSoC5/GBCL.c ****             status |= GBCL_RX_STS_SOFT_BUFF_OVER;
 396              		.loc 1 494 0
 397 0012 40F08000 		orr	r0, r0, #128
 398              	.LVL22:
 495:Generated_Source\PSoC5/GBCL.c ****             GBCL_rxBufferOverflow = 0u;
 399              		.loc 1 495 0
 400 0016 0022     		movs	r2, #0
 401 0018 024B     		ldr	r3, .L33+4
 402 001a 5A71     		strb	r2, [r3, #5]
 403              	.L32:
 496:Generated_Source\PSoC5/GBCL.c ****         }
 497:Generated_Source\PSoC5/GBCL.c ****     #endif /* (GBCL_RX_INTERRUPT_ENABLED) */
 498:Generated_Source\PSoC5/GBCL.c **** 
 499:Generated_Source\PSoC5/GBCL.c ****         return(status);
 500:Generated_Source\PSoC5/GBCL.c ****     }
 404              		.loc 1 500 0
 405 001c 7047     		bx	lr
 406              	.L34:
 407 001e 00BF     		.align	2
ARM GAS  C:\Users\THERMA~1\AppData\Local\Temp\ccQ3Sx9h.s 			page 17


 408              	.L33:
 409 0020 6F640040 		.word	1073767535
 410 0024 00000000 		.word	.LANCHOR0
 411              		.cfi_endproc
 412              	.LFE8:
 413              		.size	GBCL_ReadRxStatus, .-GBCL_ReadRxStatus
 414              		.section	.text.GBCL_GetChar,"ax",%progbits
 415              		.align	2
 416              		.global	GBCL_GetChar
 417              		.thumb
 418              		.thumb_func
 419              		.type	GBCL_GetChar, %function
 420              	GBCL_GetChar:
 421              	.LFB9:
 501:Generated_Source\PSoC5/GBCL.c **** 
 502:Generated_Source\PSoC5/GBCL.c **** 
 503:Generated_Source\PSoC5/GBCL.c ****     /*******************************************************************************
 504:Generated_Source\PSoC5/GBCL.c ****     * Function Name: GBCL_GetChar
 505:Generated_Source\PSoC5/GBCL.c ****     ********************************************************************************
 506:Generated_Source\PSoC5/GBCL.c ****     *
 507:Generated_Source\PSoC5/GBCL.c ****     * Summary:
 508:Generated_Source\PSoC5/GBCL.c ****     *  Returns the last received byte of data. GBCL_GetChar() is
 509:Generated_Source\PSoC5/GBCL.c ****     *  designed for ASCII characters and returns a uint8 where 1 to 255 are values
 510:Generated_Source\PSoC5/GBCL.c ****     *  for valid characters and 0 indicates an error occurred or no data is present.
 511:Generated_Source\PSoC5/GBCL.c ****     *
 512:Generated_Source\PSoC5/GBCL.c ****     * Parameters:
 513:Generated_Source\PSoC5/GBCL.c ****     *  None.
 514:Generated_Source\PSoC5/GBCL.c ****     *
 515:Generated_Source\PSoC5/GBCL.c ****     * Return:
 516:Generated_Source\PSoC5/GBCL.c ****     *  Character read from UART RX buffer. ASCII characters from 1 to 255 are valid.
 517:Generated_Source\PSoC5/GBCL.c ****     *  A returned zero signifies an error condition or no data available.
 518:Generated_Source\PSoC5/GBCL.c ****     *
 519:Generated_Source\PSoC5/GBCL.c ****     * Global Variables:
 520:Generated_Source\PSoC5/GBCL.c ****     *  GBCL_rxBuffer - RAM buffer pointer for save received data.
 521:Generated_Source\PSoC5/GBCL.c ****     *  GBCL_rxBufferWrite - cyclic index for write to rxBuffer,
 522:Generated_Source\PSoC5/GBCL.c ****     *     checked to identify new data.
 523:Generated_Source\PSoC5/GBCL.c ****     *  GBCL_rxBufferRead - cyclic index for read from rxBuffer,
 524:Generated_Source\PSoC5/GBCL.c ****     *     incremented after each byte has been read from buffer.
 525:Generated_Source\PSoC5/GBCL.c ****     *  GBCL_rxBufferLoopDetect - cleared if loop condition was detected
 526:Generated_Source\PSoC5/GBCL.c ****     *     in RX ISR.
 527:Generated_Source\PSoC5/GBCL.c ****     *
 528:Generated_Source\PSoC5/GBCL.c ****     * Reentrant:
 529:Generated_Source\PSoC5/GBCL.c ****     *  No.
 530:Generated_Source\PSoC5/GBCL.c ****     *
 531:Generated_Source\PSoC5/GBCL.c ****     *******************************************************************************/
 532:Generated_Source\PSoC5/GBCL.c ****     uint8 GBCL_GetChar(void) 
 533:Generated_Source\PSoC5/GBCL.c ****     {
 422              		.loc 1 533 0
 423              		.cfi_startproc
 424              		@ args = 0, pretend = 0, frame = 0
 425              		@ frame_needed = 0, uses_anonymous_args = 0
 426              		@ link register save eliminated.
 427              	.LVL23:
 534:Generated_Source\PSoC5/GBCL.c ****         uint8 rxData = 0u;
 535:Generated_Source\PSoC5/GBCL.c ****         uint8 rxStatus;
 536:Generated_Source\PSoC5/GBCL.c **** 
 537:Generated_Source\PSoC5/GBCL.c ****     #if (GBCL_RX_INTERRUPT_ENABLED)
ARM GAS  C:\Users\THERMA~1\AppData\Local\Temp\ccQ3Sx9h.s 			page 18


 538:Generated_Source\PSoC5/GBCL.c ****         uint8 locRxBufferRead;
 539:Generated_Source\PSoC5/GBCL.c ****         uint8 locRxBufferWrite;
 540:Generated_Source\PSoC5/GBCL.c **** 
 541:Generated_Source\PSoC5/GBCL.c ****         /* Protect variables that could change on interrupt */
 542:Generated_Source\PSoC5/GBCL.c ****         GBCL_DisableRxInt();
 428              		.loc 1 542 0
 429 0000 0122     		movs	r2, #1
 430 0002 1A4B     		ldr	r3, .L43
 431 0004 1A60     		str	r2, [r3]
 543:Generated_Source\PSoC5/GBCL.c **** 
 544:Generated_Source\PSoC5/GBCL.c ****         locRxBufferRead  = GBCL_rxBufferRead;
 432              		.loc 1 544 0
 433 0006 1A4A     		ldr	r2, .L43+4
 434 0008 9378     		ldrb	r3, [r2, #2]	@ zero_extendqisi2
 435 000a DBB2     		uxtb	r3, r3
 436              	.LVL24:
 545:Generated_Source\PSoC5/GBCL.c ****         locRxBufferWrite = GBCL_rxBufferWrite;
 437              		.loc 1 545 0
 438 000c D178     		ldrb	r1, [r2, #3]	@ zero_extendqisi2
 439 000e C9B2     		uxtb	r1, r1
 440              	.LVL25:
 546:Generated_Source\PSoC5/GBCL.c **** 
 547:Generated_Source\PSoC5/GBCL.c ****         if( (GBCL_rxBufferLoopDetect != 0u) || (locRxBufferRead != locRxBufferWrite) )
 441              		.loc 1 547 0
 442 0010 1279     		ldrb	r2, [r2, #4]	@ zero_extendqisi2
 443 0012 12F0FF0F 		tst	r2, #255
 444 0016 01D1     		bne	.L36
 445              		.loc 1 547 0 is_stmt 0 discriminator 1
 446 0018 8B42     		cmp	r3, r1
 447 001a 12D0     		beq	.L37
 448              	.L36:
 548:Generated_Source\PSoC5/GBCL.c ****         {
 549:Generated_Source\PSoC5/GBCL.c ****             rxData = GBCL_rxBuffer[locRxBufferRead];
 449              		.loc 1 549 0 is_stmt 1
 450 001c 154A     		ldr	r2, .L43+8
 451 001e D05C     		ldrb	r0, [r2, r3]	@ zero_extendqisi2
 452 0020 C0B2     		uxtb	r0, r0
 453              	.LVL26:
 550:Generated_Source\PSoC5/GBCL.c ****             locRxBufferRead++;
 454              		.loc 1 550 0
 455 0022 0133     		adds	r3, r3, #1
 456              	.LVL27:
 457 0024 DBB2     		uxtb	r3, r3
 458              	.LVL28:
 551:Generated_Source\PSoC5/GBCL.c ****             if(locRxBufferRead >= GBCL_RX_BUFFER_SIZE)
 459              		.loc 1 551 0
 460 0026 13F0800F 		tst	r3, #128
 461 002a 00D0     		beq	.L38
 552:Generated_Source\PSoC5/GBCL.c ****             {
 553:Generated_Source\PSoC5/GBCL.c ****                 locRxBufferRead = 0u;
 462              		.loc 1 553 0
 463 002c 0023     		movs	r3, #0
 464              	.LVL29:
 465              	.L38:
 554:Generated_Source\PSoC5/GBCL.c ****             }
 555:Generated_Source\PSoC5/GBCL.c ****             /* Update the real pointer */
 556:Generated_Source\PSoC5/GBCL.c ****             GBCL_rxBufferRead = locRxBufferRead;
ARM GAS  C:\Users\THERMA~1\AppData\Local\Temp\ccQ3Sx9h.s 			page 19


 466              		.loc 1 556 0
 467 002e 104A     		ldr	r2, .L43+4
 468 0030 9370     		strb	r3, [r2, #2]
 557:Generated_Source\PSoC5/GBCL.c **** 
 558:Generated_Source\PSoC5/GBCL.c ****             if(GBCL_rxBufferLoopDetect != 0u)
 469              		.loc 1 558 0
 470 0032 1379     		ldrb	r3, [r2, #4]	@ zero_extendqisi2
 471              	.LVL30:
 472 0034 13F0FF0F 		tst	r3, #255
 473 0038 13D0     		beq	.L39
 559:Generated_Source\PSoC5/GBCL.c ****             {
 560:Generated_Source\PSoC5/GBCL.c ****                 GBCL_rxBufferLoopDetect = 0u;
 474              		.loc 1 560 0
 475 003a 0022     		movs	r2, #0
 476 003c 0C4B     		ldr	r3, .L43+4
 477 003e 1A71     		strb	r2, [r3, #4]
 478              	.LVL31:
 479 0040 0FE0     		b	.L39
 480              	.LVL32:
 481              	.L37:
 561:Generated_Source\PSoC5/GBCL.c ****                 #if( (GBCL_RX_INTERRUPT_ENABLED) && (GBCL_FLOW_CONTROL != 0u) )
 562:Generated_Source\PSoC5/GBCL.c ****                     /* When Hardware Flow Control selected - return RX mask */
 563:Generated_Source\PSoC5/GBCL.c ****                     #if( GBCL_HD_ENABLED )
 564:Generated_Source\PSoC5/GBCL.c ****                         if((GBCL_CONTROL_REG & GBCL_CTRL_HD_SEND) == 0u)
 565:Generated_Source\PSoC5/GBCL.c ****                         {   /* In Half duplex mode return RX mask only if
 566:Generated_Source\PSoC5/GBCL.c ****                             *  RX configuration set, otherwise
 567:Generated_Source\PSoC5/GBCL.c ****                             *  mask will be returned in LoadRxConfig() API.
 568:Generated_Source\PSoC5/GBCL.c ****                             */
 569:Generated_Source\PSoC5/GBCL.c ****                             GBCL_RXSTATUS_MASK_REG |= GBCL_RX_STS_FIFO_NOTEMPTY;
 570:Generated_Source\PSoC5/GBCL.c ****                         }
 571:Generated_Source\PSoC5/GBCL.c ****                     #else
 572:Generated_Source\PSoC5/GBCL.c ****                         GBCL_RXSTATUS_MASK_REG |= GBCL_RX_STS_FIFO_NOTEMPTY;
 573:Generated_Source\PSoC5/GBCL.c ****                     #endif /* end GBCL_HD_ENABLED */
 574:Generated_Source\PSoC5/GBCL.c ****                 #endif /* GBCL_RX_INTERRUPT_ENABLED and Hardware flow control*/
 575:Generated_Source\PSoC5/GBCL.c ****             }
 576:Generated_Source\PSoC5/GBCL.c **** 
 577:Generated_Source\PSoC5/GBCL.c ****         }
 578:Generated_Source\PSoC5/GBCL.c ****         else
 579:Generated_Source\PSoC5/GBCL.c ****         {   rxStatus = GBCL_RXSTATUS_REG;
 482              		.loc 1 579 0
 483 0042 0D4B     		ldr	r3, .L43+12
 484              	.LVL33:
 485 0044 1B78     		ldrb	r3, [r3]	@ zero_extendqisi2
 486 0046 DBB2     		uxtb	r3, r3
 487              	.LVL34:
 580:Generated_Source\PSoC5/GBCL.c ****             if((rxStatus & GBCL_RX_STS_FIFO_NOTEMPTY) != 0u)
 488              		.loc 1 580 0
 489 0048 13F0200F 		tst	r3, #32
 490 004c 06D0     		beq	.L41
 581:Generated_Source\PSoC5/GBCL.c ****             {   /* Read received data from FIFO */
 582:Generated_Source\PSoC5/GBCL.c ****                 rxData = GBCL_RXDATA_REG;
 491              		.loc 1 582 0
 492 004e 0B4A     		ldr	r2, .L43+16
 493 0050 1078     		ldrb	r0, [r2]	@ zero_extendqisi2
 494 0052 C0B2     		uxtb	r0, r0
 495              	.LVL35:
 583:Generated_Source\PSoC5/GBCL.c ****                 /*Check status on error*/
ARM GAS  C:\Users\THERMA~1\AppData\Local\Temp\ccQ3Sx9h.s 			page 20


 584:Generated_Source\PSoC5/GBCL.c ****                 if((rxStatus & (GBCL_RX_STS_BREAK | GBCL_RX_STS_PAR_ERROR |
 496              		.loc 1 584 0
 497 0054 13F01E0F 		tst	r3, #30
 498 0058 02D1     		bne	.L42
 499 005a 02E0     		b	.L39
 500              	.LVL36:
 501              	.L41:
 534:Generated_Source\PSoC5/GBCL.c ****         uint8 rxStatus;
 502              		.loc 1 534 0
 503 005c 0020     		movs	r0, #0
 504 005e 00E0     		b	.L39
 505              	.LVL37:
 506              	.L42:
 585:Generated_Source\PSoC5/GBCL.c ****                                 GBCL_RX_STS_STOP_ERROR | GBCL_RX_STS_OVERRUN)) != 0u)
 586:Generated_Source\PSoC5/GBCL.c ****                 {
 587:Generated_Source\PSoC5/GBCL.c ****                     rxData = 0u;
 507              		.loc 1 587 0
 508 0060 0020     		movs	r0, #0
 509              	.LVL38:
 510              	.L39:
 588:Generated_Source\PSoC5/GBCL.c ****                 }
 589:Generated_Source\PSoC5/GBCL.c ****             }
 590:Generated_Source\PSoC5/GBCL.c ****         }
 591:Generated_Source\PSoC5/GBCL.c **** 
 592:Generated_Source\PSoC5/GBCL.c ****         GBCL_EnableRxInt();
 511              		.loc 1 592 0
 512 0062 0122     		movs	r2, #1
 513 0064 064B     		ldr	r3, .L43+20
 514 0066 1A60     		str	r2, [r3]
 593:Generated_Source\PSoC5/GBCL.c **** 
 594:Generated_Source\PSoC5/GBCL.c ****     #else
 595:Generated_Source\PSoC5/GBCL.c **** 
 596:Generated_Source\PSoC5/GBCL.c ****         rxStatus =GBCL_RXSTATUS_REG;
 597:Generated_Source\PSoC5/GBCL.c ****         if((rxStatus & GBCL_RX_STS_FIFO_NOTEMPTY) != 0u)
 598:Generated_Source\PSoC5/GBCL.c ****         {
 599:Generated_Source\PSoC5/GBCL.c ****             /* Read received data from FIFO */
 600:Generated_Source\PSoC5/GBCL.c ****             rxData = GBCL_RXDATA_REG;
 601:Generated_Source\PSoC5/GBCL.c **** 
 602:Generated_Source\PSoC5/GBCL.c ****             /*Check status on error*/
 603:Generated_Source\PSoC5/GBCL.c ****             if((rxStatus & (GBCL_RX_STS_BREAK | GBCL_RX_STS_PAR_ERROR |
 604:Generated_Source\PSoC5/GBCL.c ****                             GBCL_RX_STS_STOP_ERROR | GBCL_RX_STS_OVERRUN)) != 0u)
 605:Generated_Source\PSoC5/GBCL.c ****             {
 606:Generated_Source\PSoC5/GBCL.c ****                 rxData = 0u;
 607:Generated_Source\PSoC5/GBCL.c ****             }
 608:Generated_Source\PSoC5/GBCL.c ****         }
 609:Generated_Source\PSoC5/GBCL.c ****     #endif /* (GBCL_RX_INTERRUPT_ENABLED) */
 610:Generated_Source\PSoC5/GBCL.c **** 
 611:Generated_Source\PSoC5/GBCL.c ****         return(rxData);
 612:Generated_Source\PSoC5/GBCL.c ****     }
 515              		.loc 1 612 0
 516 0068 7047     		bx	lr
 517              	.L44:
 518 006a 00BF     		.align	2
 519              	.L43:
 520 006c 80E100E0 		.word	-536813184
 521 0070 00000000 		.word	.LANCHOR0
 522 0074 00000000 		.word	GBCL_rxBuffer
ARM GAS  C:\Users\THERMA~1\AppData\Local\Temp\ccQ3Sx9h.s 			page 21


 523 0078 6F640040 		.word	1073767535
 524 007c 4D640040 		.word	1073767501
 525 0080 00E100E0 		.word	-536813312
 526              		.cfi_endproc
 527              	.LFE9:
 528              		.size	GBCL_GetChar, .-GBCL_GetChar
 529              		.section	.text.GBCL_GetByte,"ax",%progbits
 530              		.align	2
 531              		.global	GBCL_GetByte
 532              		.thumb
 533              		.thumb_func
 534              		.type	GBCL_GetByte, %function
 535              	GBCL_GetByte:
 536              	.LFB10:
 613:Generated_Source\PSoC5/GBCL.c **** 
 614:Generated_Source\PSoC5/GBCL.c **** 
 615:Generated_Source\PSoC5/GBCL.c ****     /*******************************************************************************
 616:Generated_Source\PSoC5/GBCL.c ****     * Function Name: GBCL_GetByte
 617:Generated_Source\PSoC5/GBCL.c ****     ********************************************************************************
 618:Generated_Source\PSoC5/GBCL.c ****     *
 619:Generated_Source\PSoC5/GBCL.c ****     * Summary:
 620:Generated_Source\PSoC5/GBCL.c ****     *  Reads UART RX buffer immediately, returns received character and error
 621:Generated_Source\PSoC5/GBCL.c ****     *  condition.
 622:Generated_Source\PSoC5/GBCL.c ****     *
 623:Generated_Source\PSoC5/GBCL.c ****     * Parameters:
 624:Generated_Source\PSoC5/GBCL.c ****     *  None.
 625:Generated_Source\PSoC5/GBCL.c ****     *
 626:Generated_Source\PSoC5/GBCL.c ****     * Return:
 627:Generated_Source\PSoC5/GBCL.c ****     *  MSB contains status and LSB contains UART RX data. If the MSB is nonzero,
 628:Generated_Source\PSoC5/GBCL.c ****     *  an error has occurred.
 629:Generated_Source\PSoC5/GBCL.c ****     *
 630:Generated_Source\PSoC5/GBCL.c ****     * Reentrant:
 631:Generated_Source\PSoC5/GBCL.c ****     *  No.
 632:Generated_Source\PSoC5/GBCL.c ****     *
 633:Generated_Source\PSoC5/GBCL.c ****     *******************************************************************************/
 634:Generated_Source\PSoC5/GBCL.c ****     uint16 GBCL_GetByte(void) 
 635:Generated_Source\PSoC5/GBCL.c ****     {
 537              		.loc 1 635 0
 538              		.cfi_startproc
 539              		@ args = 0, pretend = 0, frame = 0
 540              		@ frame_needed = 0, uses_anonymous_args = 0
 541 0000 10B5     		push	{r4, lr}
 542              		.cfi_def_cfa_offset 8
 543              		.cfi_offset 4, -8
 544              		.cfi_offset 14, -4
 636:Generated_Source\PSoC5/GBCL.c ****         
 637:Generated_Source\PSoC5/GBCL.c ****     #if (GBCL_RX_INTERRUPT_ENABLED)
 638:Generated_Source\PSoC5/GBCL.c ****         uint16 locErrorStatus;
 639:Generated_Source\PSoC5/GBCL.c ****         /* Protect variables that could change on interrupt */
 640:Generated_Source\PSoC5/GBCL.c ****         GBCL_DisableRxInt();
 545              		.loc 1 640 0
 546 0002 0123     		movs	r3, #1
 547 0004 064A     		ldr	r2, .L47
 548 0006 1360     		str	r3, [r2]
 641:Generated_Source\PSoC5/GBCL.c ****         locErrorStatus = (uint16)GBCL_errorStatus;
 549              		.loc 1 641 0
 550 0008 064A     		ldr	r2, .L47+4
ARM GAS  C:\Users\THERMA~1\AppData\Local\Temp\ccQ3Sx9h.s 			page 22


 551 000a 1478     		ldrb	r4, [r2]	@ zero_extendqisi2
 552              	.LVL39:
 642:Generated_Source\PSoC5/GBCL.c ****         GBCL_errorStatus = 0u;
 553              		.loc 1 642 0
 554 000c 0021     		movs	r1, #0
 555 000e 1170     		strb	r1, [r2]
 643:Generated_Source\PSoC5/GBCL.c ****         GBCL_EnableRxInt();
 556              		.loc 1 643 0
 557 0010 054A     		ldr	r2, .L47+8
 558 0012 1360     		str	r3, [r2]
 644:Generated_Source\PSoC5/GBCL.c ****         return ( (uint16)(locErrorStatus << 8u) | GBCL_ReadRxData() );
 559              		.loc 1 644 0
 560 0014 2402     		lsls	r4, r4, #8
 561              	.LVL40:
 562 0016 FFF7FEFF 		bl	GBCL_ReadRxData
 563              	.LVL41:
 564 001a 2043     		orrs	r0, r0, r4
 645:Generated_Source\PSoC5/GBCL.c ****     #else
 646:Generated_Source\PSoC5/GBCL.c ****         return ( ((uint16)GBCL_ReadRxStatus() << 8u) | GBCL_ReadRxData() );
 647:Generated_Source\PSoC5/GBCL.c ****     #endif /* GBCL_RX_INTERRUPT_ENABLED */
 648:Generated_Source\PSoC5/GBCL.c ****         
 649:Generated_Source\PSoC5/GBCL.c ****     }
 565              		.loc 1 649 0
 566 001c 80B2     		uxth	r0, r0
 567 001e 10BD     		pop	{r4, pc}
 568              	.L48:
 569              		.align	2
 570              	.L47:
 571 0020 80E100E0 		.word	-536813184
 572 0024 00000000 		.word	.LANCHOR0
 573 0028 00E100E0 		.word	-536813312
 574              		.cfi_endproc
 575              	.LFE10:
 576              		.size	GBCL_GetByte, .-GBCL_GetByte
 577              		.section	.text.GBCL_GetRxBufferSize,"ax",%progbits
 578              		.align	2
 579              		.global	GBCL_GetRxBufferSize
 580              		.thumb
 581              		.thumb_func
 582              		.type	GBCL_GetRxBufferSize, %function
 583              	GBCL_GetRxBufferSize:
 584              	.LFB11:
 650:Generated_Source\PSoC5/GBCL.c **** 
 651:Generated_Source\PSoC5/GBCL.c **** 
 652:Generated_Source\PSoC5/GBCL.c ****     /*******************************************************************************
 653:Generated_Source\PSoC5/GBCL.c ****     * Function Name: GBCL_GetRxBufferSize
 654:Generated_Source\PSoC5/GBCL.c ****     ********************************************************************************
 655:Generated_Source\PSoC5/GBCL.c ****     *
 656:Generated_Source\PSoC5/GBCL.c ****     * Summary:
 657:Generated_Source\PSoC5/GBCL.c ****     *  Returns the number of received bytes available in the RX buffer.
 658:Generated_Source\PSoC5/GBCL.c ****     *  * RX software buffer is disabled (RX Buffer Size parameter is equal to 4): 
 659:Generated_Source\PSoC5/GBCL.c ****     *    returns 0 for empty RX FIFO or 1 for not empty RX FIFO.
 660:Generated_Source\PSoC5/GBCL.c ****     *  * RX software buffer is enabled: returns the number of bytes available in 
 661:Generated_Source\PSoC5/GBCL.c ****     *    the RX software buffer. Bytes available in the RX FIFO do not take to 
 662:Generated_Source\PSoC5/GBCL.c ****     *    account.
 663:Generated_Source\PSoC5/GBCL.c ****     *
 664:Generated_Source\PSoC5/GBCL.c ****     * Parameters:
ARM GAS  C:\Users\THERMA~1\AppData\Local\Temp\ccQ3Sx9h.s 			page 23


 665:Generated_Source\PSoC5/GBCL.c ****     *  None.
 666:Generated_Source\PSoC5/GBCL.c ****     *
 667:Generated_Source\PSoC5/GBCL.c ****     * Return:
 668:Generated_Source\PSoC5/GBCL.c ****     *  uint8: Number of bytes in the RX buffer. 
 669:Generated_Source\PSoC5/GBCL.c ****     *    Return value type depends on RX Buffer Size parameter.
 670:Generated_Source\PSoC5/GBCL.c ****     *
 671:Generated_Source\PSoC5/GBCL.c ****     * Global Variables:
 672:Generated_Source\PSoC5/GBCL.c ****     *  GBCL_rxBufferWrite - used to calculate left bytes.
 673:Generated_Source\PSoC5/GBCL.c ****     *  GBCL_rxBufferRead - used to calculate left bytes.
 674:Generated_Source\PSoC5/GBCL.c ****     *  GBCL_rxBufferLoopDetect - checked to decide left bytes amount.
 675:Generated_Source\PSoC5/GBCL.c ****     *
 676:Generated_Source\PSoC5/GBCL.c ****     * Reentrant:
 677:Generated_Source\PSoC5/GBCL.c ****     *  No.
 678:Generated_Source\PSoC5/GBCL.c ****     *
 679:Generated_Source\PSoC5/GBCL.c ****     * Theory:
 680:Generated_Source\PSoC5/GBCL.c ****     *  Allows the user to find out how full the RX Buffer is.
 681:Generated_Source\PSoC5/GBCL.c ****     *
 682:Generated_Source\PSoC5/GBCL.c ****     *******************************************************************************/
 683:Generated_Source\PSoC5/GBCL.c ****     uint8 GBCL_GetRxBufferSize(void)
 684:Generated_Source\PSoC5/GBCL.c ****                                                             
 685:Generated_Source\PSoC5/GBCL.c ****     {
 585              		.loc 1 685 0
 586              		.cfi_startproc
 587              		@ args = 0, pretend = 0, frame = 0
 588              		@ frame_needed = 0, uses_anonymous_args = 0
 589              		@ link register save eliminated.
 686:Generated_Source\PSoC5/GBCL.c ****         uint8 size;
 687:Generated_Source\PSoC5/GBCL.c **** 
 688:Generated_Source\PSoC5/GBCL.c ****     #if (GBCL_RX_INTERRUPT_ENABLED)
 689:Generated_Source\PSoC5/GBCL.c **** 
 690:Generated_Source\PSoC5/GBCL.c ****         /* Protect variables that could change on interrupt */
 691:Generated_Source\PSoC5/GBCL.c ****         GBCL_DisableRxInt();
 590              		.loc 1 691 0
 591 0000 0122     		movs	r2, #1
 592 0002 144B     		ldr	r3, .L54
 593 0004 1A60     		str	r2, [r3]
 692:Generated_Source\PSoC5/GBCL.c **** 
 693:Generated_Source\PSoC5/GBCL.c ****         if(GBCL_rxBufferRead == GBCL_rxBufferWrite)
 594              		.loc 1 693 0
 595 0006 144B     		ldr	r3, .L54+4
 596 0008 9A78     		ldrb	r2, [r3, #2]	@ zero_extendqisi2
 597 000a D2B2     		uxtb	r2, r2
 598 000c DB78     		ldrb	r3, [r3, #3]	@ zero_extendqisi2
 599 000e DBB2     		uxtb	r3, r3
 600 0010 9A42     		cmp	r2, r3
 601 0012 06D1     		bne	.L50
 694:Generated_Source\PSoC5/GBCL.c ****         {
 695:Generated_Source\PSoC5/GBCL.c ****             if(GBCL_rxBufferLoopDetect != 0u)
 602              		.loc 1 695 0
 603 0014 104B     		ldr	r3, .L54+4
 604 0016 1B79     		ldrb	r3, [r3, #4]	@ zero_extendqisi2
 605 0018 13F0FF0F 		tst	r3, #255
 606 001c 15D0     		beq	.L53
 696:Generated_Source\PSoC5/GBCL.c ****             {
 697:Generated_Source\PSoC5/GBCL.c ****                 size = GBCL_RX_BUFFER_SIZE;
 607              		.loc 1 697 0
 608 001e 8020     		movs	r0, #128
ARM GAS  C:\Users\THERMA~1\AppData\Local\Temp\ccQ3Sx9h.s 			page 24


 609 0020 14E0     		b	.L51
 610              	.L50:
 698:Generated_Source\PSoC5/GBCL.c ****             }
 699:Generated_Source\PSoC5/GBCL.c ****             else
 700:Generated_Source\PSoC5/GBCL.c ****             {
 701:Generated_Source\PSoC5/GBCL.c ****                 size = 0u;
 702:Generated_Source\PSoC5/GBCL.c ****             }
 703:Generated_Source\PSoC5/GBCL.c ****         }
 704:Generated_Source\PSoC5/GBCL.c ****         else if(GBCL_rxBufferRead < GBCL_rxBufferWrite)
 611              		.loc 1 704 0
 612 0022 0D4B     		ldr	r3, .L54+4
 613 0024 9A78     		ldrb	r2, [r3, #2]	@ zero_extendqisi2
 614 0026 D2B2     		uxtb	r2, r2
 615 0028 DB78     		ldrb	r3, [r3, #3]	@ zero_extendqisi2
 616 002a DBB2     		uxtb	r3, r3
 617 002c 9A42     		cmp	r2, r3
 618 002e 05D2     		bcs	.L52
 705:Generated_Source\PSoC5/GBCL.c ****         {
 706:Generated_Source\PSoC5/GBCL.c ****             size = (GBCL_rxBufferWrite - GBCL_rxBufferRead);
 619              		.loc 1 706 0
 620 0030 094A     		ldr	r2, .L54+4
 621 0032 D378     		ldrb	r3, [r2, #3]	@ zero_extendqisi2
 622 0034 9078     		ldrb	r0, [r2, #2]	@ zero_extendqisi2
 623 0036 181A     		subs	r0, r3, r0
 624 0038 C0B2     		uxtb	r0, r0
 625              	.LVL42:
 626 003a 07E0     		b	.L51
 627              	.LVL43:
 628              	.L52:
 707:Generated_Source\PSoC5/GBCL.c ****         }
 708:Generated_Source\PSoC5/GBCL.c ****         else
 709:Generated_Source\PSoC5/GBCL.c ****         {
 710:Generated_Source\PSoC5/GBCL.c ****             size = (GBCL_RX_BUFFER_SIZE - GBCL_rxBufferRead) + GBCL_rxBufferWrite;
 629              		.loc 1 710 0
 630 003c 064A     		ldr	r2, .L54+4
 631 003e D378     		ldrb	r3, [r2, #3]	@ zero_extendqisi2
 632 0040 9078     		ldrb	r0, [r2, #2]	@ zero_extendqisi2
 633 0042 181A     		subs	r0, r3, r0
 634 0044 8038     		subs	r0, r0, #128
 635 0046 C0B2     		uxtb	r0, r0
 636              	.LVL44:
 637 0048 00E0     		b	.L51
 638              	.LVL45:
 639              	.L53:
 701:Generated_Source\PSoC5/GBCL.c ****             }
 640              		.loc 1 701 0
 641 004a 0020     		movs	r0, #0
 642              	.L51:
 643              	.LVL46:
 711:Generated_Source\PSoC5/GBCL.c ****         }
 712:Generated_Source\PSoC5/GBCL.c **** 
 713:Generated_Source\PSoC5/GBCL.c ****         GBCL_EnableRxInt();
 644              		.loc 1 713 0
 645 004c 0122     		movs	r2, #1
 646 004e 034B     		ldr	r3, .L54+8
 647 0050 1A60     		str	r2, [r3]
 714:Generated_Source\PSoC5/GBCL.c **** 
ARM GAS  C:\Users\THERMA~1\AppData\Local\Temp\ccQ3Sx9h.s 			page 25


 715:Generated_Source\PSoC5/GBCL.c ****     #else
 716:Generated_Source\PSoC5/GBCL.c **** 
 717:Generated_Source\PSoC5/GBCL.c ****         /* We can only know if there is data in the fifo. */
 718:Generated_Source\PSoC5/GBCL.c ****         size = ((GBCL_RXSTATUS_REG & GBCL_RX_STS_FIFO_NOTEMPTY) != 0u) ? 1u : 0u;
 719:Generated_Source\PSoC5/GBCL.c **** 
 720:Generated_Source\PSoC5/GBCL.c ****     #endif /* (GBCL_RX_INTERRUPT_ENABLED) */
 721:Generated_Source\PSoC5/GBCL.c **** 
 722:Generated_Source\PSoC5/GBCL.c ****         return(size);
 723:Generated_Source\PSoC5/GBCL.c ****     }
 648              		.loc 1 723 0
 649 0052 7047     		bx	lr
 650              	.L55:
 651              		.align	2
 652              	.L54:
 653 0054 80E100E0 		.word	-536813184
 654 0058 00000000 		.word	.LANCHOR0
 655 005c 00E100E0 		.word	-536813312
 656              		.cfi_endproc
 657              	.LFE11:
 658              		.size	GBCL_GetRxBufferSize, .-GBCL_GetRxBufferSize
 659              		.section	.text.GBCL_ClearRxBuffer,"ax",%progbits
 660              		.align	2
 661              		.global	GBCL_ClearRxBuffer
 662              		.thumb
 663              		.thumb_func
 664              		.type	GBCL_ClearRxBuffer, %function
 665              	GBCL_ClearRxBuffer:
 666              	.LFB12:
 724:Generated_Source\PSoC5/GBCL.c **** 
 725:Generated_Source\PSoC5/GBCL.c **** 
 726:Generated_Source\PSoC5/GBCL.c ****     /*******************************************************************************
 727:Generated_Source\PSoC5/GBCL.c ****     * Function Name: GBCL_ClearRxBuffer
 728:Generated_Source\PSoC5/GBCL.c ****     ********************************************************************************
 729:Generated_Source\PSoC5/GBCL.c ****     *
 730:Generated_Source\PSoC5/GBCL.c ****     * Summary:
 731:Generated_Source\PSoC5/GBCL.c ****     *  Clears the receiver memory buffer and hardware RX FIFO of all received data.
 732:Generated_Source\PSoC5/GBCL.c ****     *
 733:Generated_Source\PSoC5/GBCL.c ****     * Parameters:
 734:Generated_Source\PSoC5/GBCL.c ****     *  None.
 735:Generated_Source\PSoC5/GBCL.c ****     *
 736:Generated_Source\PSoC5/GBCL.c ****     * Return:
 737:Generated_Source\PSoC5/GBCL.c ****     *  None.
 738:Generated_Source\PSoC5/GBCL.c ****     *
 739:Generated_Source\PSoC5/GBCL.c ****     * Global Variables:
 740:Generated_Source\PSoC5/GBCL.c ****     *  GBCL_rxBufferWrite - cleared to zero.
 741:Generated_Source\PSoC5/GBCL.c ****     *  GBCL_rxBufferRead - cleared to zero.
 742:Generated_Source\PSoC5/GBCL.c ****     *  GBCL_rxBufferLoopDetect - cleared to zero.
 743:Generated_Source\PSoC5/GBCL.c ****     *  GBCL_rxBufferOverflow - cleared to zero.
 744:Generated_Source\PSoC5/GBCL.c ****     *
 745:Generated_Source\PSoC5/GBCL.c ****     * Reentrant:
 746:Generated_Source\PSoC5/GBCL.c ****     *  No.
 747:Generated_Source\PSoC5/GBCL.c ****     *
 748:Generated_Source\PSoC5/GBCL.c ****     * Theory:
 749:Generated_Source\PSoC5/GBCL.c ****     *  Setting the pointers to zero makes the system believe there is no data to
 750:Generated_Source\PSoC5/GBCL.c ****     *  read and writing will resume at address 0 overwriting any data that may
 751:Generated_Source\PSoC5/GBCL.c ****     *  have remained in the RAM.
 752:Generated_Source\PSoC5/GBCL.c ****     *
ARM GAS  C:\Users\THERMA~1\AppData\Local\Temp\ccQ3Sx9h.s 			page 26


 753:Generated_Source\PSoC5/GBCL.c ****     * Side Effects:
 754:Generated_Source\PSoC5/GBCL.c ****     *  Any received data not read from the RAM or FIFO buffer will be lost.
 755:Generated_Source\PSoC5/GBCL.c ****     *
 756:Generated_Source\PSoC5/GBCL.c ****     *******************************************************************************/
 757:Generated_Source\PSoC5/GBCL.c ****     void GBCL_ClearRxBuffer(void) 
 758:Generated_Source\PSoC5/GBCL.c ****     {
 667              		.loc 1 758 0
 668              		.cfi_startproc
 669              		@ args = 0, pretend = 0, frame = 0
 670              		@ frame_needed = 0, uses_anonymous_args = 0
 671 0000 08B5     		push	{r3, lr}
 672              		.cfi_def_cfa_offset 8
 673              		.cfi_offset 3, -8
 674              		.cfi_offset 14, -4
 759:Generated_Source\PSoC5/GBCL.c ****         uint8 enableInterrupts;
 760:Generated_Source\PSoC5/GBCL.c **** 
 761:Generated_Source\PSoC5/GBCL.c ****         /* Clear the HW FIFO */
 762:Generated_Source\PSoC5/GBCL.c ****         enableInterrupts = CyEnterCriticalSection();
 675              		.loc 1 762 0
 676 0002 FFF7FEFF 		bl	CyEnterCriticalSection
 677              	.LVL47:
 763:Generated_Source\PSoC5/GBCL.c ****         GBCL_RXDATA_AUX_CTL_REG |= (uint8)  GBCL_RX_FIFO_CLR;
 678              		.loc 1 763 0
 679 0006 0B4B     		ldr	r3, .L58
 680 0008 1A78     		ldrb	r2, [r3]	@ zero_extendqisi2
 681 000a 42F00102 		orr	r2, r2, #1
 682 000e 1A70     		strb	r2, [r3]
 764:Generated_Source\PSoC5/GBCL.c ****         GBCL_RXDATA_AUX_CTL_REG &= (uint8) ~GBCL_RX_FIFO_CLR;
 683              		.loc 1 764 0
 684 0010 1A78     		ldrb	r2, [r3]	@ zero_extendqisi2
 685 0012 02F0FE02 		and	r2, r2, #254
 686 0016 1A70     		strb	r2, [r3]
 765:Generated_Source\PSoC5/GBCL.c ****         CyExitCriticalSection(enableInterrupts);
 687              		.loc 1 765 0
 688 0018 FFF7FEFF 		bl	CyExitCriticalSection
 689              	.LVL48:
 766:Generated_Source\PSoC5/GBCL.c **** 
 767:Generated_Source\PSoC5/GBCL.c ****     #if (GBCL_RX_INTERRUPT_ENABLED)
 768:Generated_Source\PSoC5/GBCL.c **** 
 769:Generated_Source\PSoC5/GBCL.c ****         /* Protect variables that could change on interrupt. */
 770:Generated_Source\PSoC5/GBCL.c ****         GBCL_DisableRxInt();
 690              		.loc 1 770 0
 691 001c 0121     		movs	r1, #1
 692 001e 064B     		ldr	r3, .L58+4
 693 0020 1960     		str	r1, [r3]
 771:Generated_Source\PSoC5/GBCL.c **** 
 772:Generated_Source\PSoC5/GBCL.c ****         GBCL_rxBufferRead = 0u;
 694              		.loc 1 772 0
 695 0022 064B     		ldr	r3, .L58+8
 696 0024 0022     		movs	r2, #0
 697 0026 9A70     		strb	r2, [r3, #2]
 773:Generated_Source\PSoC5/GBCL.c ****         GBCL_rxBufferWrite = 0u;
 698              		.loc 1 773 0
 699 0028 DA70     		strb	r2, [r3, #3]
 774:Generated_Source\PSoC5/GBCL.c ****         GBCL_rxBufferLoopDetect = 0u;
 700              		.loc 1 774 0
 701 002a 1A71     		strb	r2, [r3, #4]
ARM GAS  C:\Users\THERMA~1\AppData\Local\Temp\ccQ3Sx9h.s 			page 27


 775:Generated_Source\PSoC5/GBCL.c ****         GBCL_rxBufferOverflow = 0u;
 702              		.loc 1 775 0
 703 002c 5A71     		strb	r2, [r3, #5]
 776:Generated_Source\PSoC5/GBCL.c **** 
 777:Generated_Source\PSoC5/GBCL.c ****         GBCL_EnableRxInt();
 704              		.loc 1 777 0
 705 002e 044B     		ldr	r3, .L58+12
 706 0030 1960     		str	r1, [r3]
 707 0032 08BD     		pop	{r3, pc}
 708              	.L59:
 709              		.align	2
 710              	.L58:
 711 0034 9D640040 		.word	1073767581
 712 0038 80E100E0 		.word	-536813184
 713 003c 00000000 		.word	.LANCHOR0
 714 0040 00E100E0 		.word	-536813312
 715              		.cfi_endproc
 716              	.LFE12:
 717              		.size	GBCL_ClearRxBuffer, .-GBCL_ClearRxBuffer
 718              		.section	.text.GBCL_SetRxAddressMode,"ax",%progbits
 719              		.align	2
 720              		.global	GBCL_SetRxAddressMode
 721              		.thumb
 722              		.thumb_func
 723              		.type	GBCL_SetRxAddressMode, %function
 724              	GBCL_SetRxAddressMode:
 725              	.LFB13:
 778:Generated_Source\PSoC5/GBCL.c **** 
 779:Generated_Source\PSoC5/GBCL.c ****     #endif /* (GBCL_RX_INTERRUPT_ENABLED) */
 780:Generated_Source\PSoC5/GBCL.c **** 
 781:Generated_Source\PSoC5/GBCL.c ****     }
 782:Generated_Source\PSoC5/GBCL.c **** 
 783:Generated_Source\PSoC5/GBCL.c **** 
 784:Generated_Source\PSoC5/GBCL.c ****     /*******************************************************************************
 785:Generated_Source\PSoC5/GBCL.c ****     * Function Name: GBCL_SetRxAddressMode
 786:Generated_Source\PSoC5/GBCL.c ****     ********************************************************************************
 787:Generated_Source\PSoC5/GBCL.c ****     *
 788:Generated_Source\PSoC5/GBCL.c ****     * Summary:
 789:Generated_Source\PSoC5/GBCL.c ****     *  Sets the software controlled Addressing mode used by the RX portion of the
 790:Generated_Source\PSoC5/GBCL.c ****     *  UART.
 791:Generated_Source\PSoC5/GBCL.c ****     *
 792:Generated_Source\PSoC5/GBCL.c ****     * Parameters:
 793:Generated_Source\PSoC5/GBCL.c ****     *  addressMode: Enumerated value indicating the mode of RX addressing
 794:Generated_Source\PSoC5/GBCL.c ****     *  GBCL__B_UART__AM_SW_BYTE_BYTE -  Software Byte-by-Byte address
 795:Generated_Source\PSoC5/GBCL.c ****     *                                               detection
 796:Generated_Source\PSoC5/GBCL.c ****     *  GBCL__B_UART__AM_SW_DETECT_TO_BUFFER - Software Detect to Buffer
 797:Generated_Source\PSoC5/GBCL.c ****     *                                               address detection
 798:Generated_Source\PSoC5/GBCL.c ****     *  GBCL__B_UART__AM_HW_BYTE_BY_BYTE - Hardware Byte-by-Byte address
 799:Generated_Source\PSoC5/GBCL.c ****     *                                               detection
 800:Generated_Source\PSoC5/GBCL.c ****     *  GBCL__B_UART__AM_HW_DETECT_TO_BUFFER - Hardware Detect to Buffer
 801:Generated_Source\PSoC5/GBCL.c ****     *                                               address detection
 802:Generated_Source\PSoC5/GBCL.c ****     *  GBCL__B_UART__AM_NONE - No address detection
 803:Generated_Source\PSoC5/GBCL.c ****     *
 804:Generated_Source\PSoC5/GBCL.c ****     * Return:
 805:Generated_Source\PSoC5/GBCL.c ****     *  None.
 806:Generated_Source\PSoC5/GBCL.c ****     *
 807:Generated_Source\PSoC5/GBCL.c ****     * Global Variables:
ARM GAS  C:\Users\THERMA~1\AppData\Local\Temp\ccQ3Sx9h.s 			page 28


 808:Generated_Source\PSoC5/GBCL.c ****     *  GBCL_rxAddressMode - the parameter stored in this variable for
 809:Generated_Source\PSoC5/GBCL.c ****     *   the farther usage in RX ISR.
 810:Generated_Source\PSoC5/GBCL.c ****     *  GBCL_rxAddressDetected - set to initial state (0).
 811:Generated_Source\PSoC5/GBCL.c ****     *
 812:Generated_Source\PSoC5/GBCL.c ****     *******************************************************************************/
 813:Generated_Source\PSoC5/GBCL.c ****     void GBCL_SetRxAddressMode(uint8 addressMode)
 814:Generated_Source\PSoC5/GBCL.c ****                                                         
 815:Generated_Source\PSoC5/GBCL.c ****     {
 726              		.loc 1 815 0
 727              		.cfi_startproc
 728              		@ args = 0, pretend = 0, frame = 0
 729              		@ frame_needed = 0, uses_anonymous_args = 0
 730              		@ link register save eliminated.
 731              	.LVL49:
 732 0000 7047     		bx	lr
 733              		.cfi_endproc
 734              	.LFE13:
 735              		.size	GBCL_SetRxAddressMode, .-GBCL_SetRxAddressMode
 736 0002 00BF     		.section	.text.GBCL_SetRxAddress1,"ax",%progbits
 737              		.align	2
 738              		.global	GBCL_SetRxAddress1
 739              		.thumb
 740              		.thumb_func
 741              		.type	GBCL_SetRxAddress1, %function
 742              	GBCL_SetRxAddress1:
 743              	.LFB14:
 816:Generated_Source\PSoC5/GBCL.c ****         #if(GBCL_RXHW_ADDRESS_ENABLED)
 817:Generated_Source\PSoC5/GBCL.c ****             #if(GBCL_CONTROL_REG_REMOVED)
 818:Generated_Source\PSoC5/GBCL.c ****                 if(0u != addressMode)
 819:Generated_Source\PSoC5/GBCL.c ****                 {
 820:Generated_Source\PSoC5/GBCL.c ****                     /* Suppress compiler warning */
 821:Generated_Source\PSoC5/GBCL.c ****                 }
 822:Generated_Source\PSoC5/GBCL.c ****             #else /* GBCL_CONTROL_REG_REMOVED */
 823:Generated_Source\PSoC5/GBCL.c ****                 uint8 tmpCtrl;
 824:Generated_Source\PSoC5/GBCL.c ****                 tmpCtrl = GBCL_CONTROL_REG & (uint8)~GBCL_CTRL_RXADDR_MODE_MASK;
 825:Generated_Source\PSoC5/GBCL.c ****                 tmpCtrl |= (uint8)(addressMode << GBCL_CTRL_RXADDR_MODE0_SHIFT);
 826:Generated_Source\PSoC5/GBCL.c ****                 GBCL_CONTROL_REG = tmpCtrl;
 827:Generated_Source\PSoC5/GBCL.c **** 
 828:Generated_Source\PSoC5/GBCL.c ****                 #if(GBCL_RX_INTERRUPT_ENABLED && \
 829:Generated_Source\PSoC5/GBCL.c ****                    (GBCL_RXBUFFERSIZE > GBCL_FIFO_LENGTH) )
 830:Generated_Source\PSoC5/GBCL.c ****                     GBCL_rxAddressMode = addressMode;
 831:Generated_Source\PSoC5/GBCL.c ****                     GBCL_rxAddressDetected = 0u;
 832:Generated_Source\PSoC5/GBCL.c ****                 #endif /* End GBCL_RXBUFFERSIZE > GBCL_FIFO_LENGTH*/
 833:Generated_Source\PSoC5/GBCL.c ****             #endif /* End GBCL_CONTROL_REG_REMOVED */
 834:Generated_Source\PSoC5/GBCL.c ****         #else /* GBCL_RXHW_ADDRESS_ENABLED */
 835:Generated_Source\PSoC5/GBCL.c ****             if(0u != addressMode)
 836:Generated_Source\PSoC5/GBCL.c ****             {
 837:Generated_Source\PSoC5/GBCL.c ****                 /* Suppress compiler warning */
 838:Generated_Source\PSoC5/GBCL.c ****             }
 839:Generated_Source\PSoC5/GBCL.c ****         #endif /* End GBCL_RXHW_ADDRESS_ENABLED */
 840:Generated_Source\PSoC5/GBCL.c ****     }
 841:Generated_Source\PSoC5/GBCL.c **** 
 842:Generated_Source\PSoC5/GBCL.c **** 
 843:Generated_Source\PSoC5/GBCL.c ****     /*******************************************************************************
 844:Generated_Source\PSoC5/GBCL.c ****     * Function Name: GBCL_SetRxAddress1
 845:Generated_Source\PSoC5/GBCL.c ****     ********************************************************************************
 846:Generated_Source\PSoC5/GBCL.c ****     *
ARM GAS  C:\Users\THERMA~1\AppData\Local\Temp\ccQ3Sx9h.s 			page 29


 847:Generated_Source\PSoC5/GBCL.c ****     * Summary:
 848:Generated_Source\PSoC5/GBCL.c ****     *  Sets the first of two hardware-detectable receiver addresses.
 849:Generated_Source\PSoC5/GBCL.c ****     *
 850:Generated_Source\PSoC5/GBCL.c ****     * Parameters:
 851:Generated_Source\PSoC5/GBCL.c ****     *  address: Address #1 for hardware address detection.
 852:Generated_Source\PSoC5/GBCL.c ****     *
 853:Generated_Source\PSoC5/GBCL.c ****     * Return:
 854:Generated_Source\PSoC5/GBCL.c ****     *  None.
 855:Generated_Source\PSoC5/GBCL.c ****     *
 856:Generated_Source\PSoC5/GBCL.c ****     *******************************************************************************/
 857:Generated_Source\PSoC5/GBCL.c ****     void GBCL_SetRxAddress1(uint8 address) 
 858:Generated_Source\PSoC5/GBCL.c ****     {
 744              		.loc 1 858 0
 745              		.cfi_startproc
 746              		@ args = 0, pretend = 0, frame = 0
 747              		@ frame_needed = 0, uses_anonymous_args = 0
 748              		@ link register save eliminated.
 749              	.LVL50:
 859:Generated_Source\PSoC5/GBCL.c ****         GBCL_RXADDRESS1_REG = address;
 750              		.loc 1 859 0
 751 0000 014B     		ldr	r3, .L62
 752 0002 1870     		strb	r0, [r3]
 753 0004 7047     		bx	lr
 754              	.L63:
 755 0006 00BF     		.align	2
 756              	.L62:
 757 0008 2D640040 		.word	1073767469
 758              		.cfi_endproc
 759              	.LFE14:
 760              		.size	GBCL_SetRxAddress1, .-GBCL_SetRxAddress1
 761              		.section	.text.GBCL_SetRxAddress2,"ax",%progbits
 762              		.align	2
 763              		.global	GBCL_SetRxAddress2
 764              		.thumb
 765              		.thumb_func
 766              		.type	GBCL_SetRxAddress2, %function
 767              	GBCL_SetRxAddress2:
 768              	.LFB15:
 860:Generated_Source\PSoC5/GBCL.c ****     }
 861:Generated_Source\PSoC5/GBCL.c **** 
 862:Generated_Source\PSoC5/GBCL.c **** 
 863:Generated_Source\PSoC5/GBCL.c ****     /*******************************************************************************
 864:Generated_Source\PSoC5/GBCL.c ****     * Function Name: GBCL_SetRxAddress2
 865:Generated_Source\PSoC5/GBCL.c ****     ********************************************************************************
 866:Generated_Source\PSoC5/GBCL.c ****     *
 867:Generated_Source\PSoC5/GBCL.c ****     * Summary:
 868:Generated_Source\PSoC5/GBCL.c ****     *  Sets the second of two hardware-detectable receiver addresses.
 869:Generated_Source\PSoC5/GBCL.c ****     *
 870:Generated_Source\PSoC5/GBCL.c ****     * Parameters:
 871:Generated_Source\PSoC5/GBCL.c ****     *  address: Address #2 for hardware address detection.
 872:Generated_Source\PSoC5/GBCL.c ****     *
 873:Generated_Source\PSoC5/GBCL.c ****     * Return:
 874:Generated_Source\PSoC5/GBCL.c ****     *  None.
 875:Generated_Source\PSoC5/GBCL.c ****     *
 876:Generated_Source\PSoC5/GBCL.c ****     *******************************************************************************/
 877:Generated_Source\PSoC5/GBCL.c ****     void GBCL_SetRxAddress2(uint8 address) 
 878:Generated_Source\PSoC5/GBCL.c ****     {
ARM GAS  C:\Users\THERMA~1\AppData\Local\Temp\ccQ3Sx9h.s 			page 30


 769              		.loc 1 878 0
 770              		.cfi_startproc
 771              		@ args = 0, pretend = 0, frame = 0
 772              		@ frame_needed = 0, uses_anonymous_args = 0
 773              		@ link register save eliminated.
 774              	.LVL51:
 879:Generated_Source\PSoC5/GBCL.c ****         GBCL_RXADDRESS2_REG = address;
 775              		.loc 1 879 0
 776 0000 014B     		ldr	r3, .L65
 777 0002 1870     		strb	r0, [r3]
 778 0004 7047     		bx	lr
 779              	.L66:
 780 0006 00BF     		.align	2
 781              	.L65:
 782 0008 3D640040 		.word	1073767485
 783              		.cfi_endproc
 784              	.LFE15:
 785              		.size	GBCL_SetRxAddress2, .-GBCL_SetRxAddress2
 786              		.section	.text.GBCL_SetTxInterruptMode,"ax",%progbits
 787              		.align	2
 788              		.global	GBCL_SetTxInterruptMode
 789              		.thumb
 790              		.thumb_func
 791              		.type	GBCL_SetTxInterruptMode, %function
 792              	GBCL_SetTxInterruptMode:
 793              	.LFB16:
 880:Generated_Source\PSoC5/GBCL.c ****     }
 881:Generated_Source\PSoC5/GBCL.c **** 
 882:Generated_Source\PSoC5/GBCL.c **** #endif  /* GBCL_RX_ENABLED || GBCL_HD_ENABLED*/
 883:Generated_Source\PSoC5/GBCL.c **** 
 884:Generated_Source\PSoC5/GBCL.c **** 
 885:Generated_Source\PSoC5/GBCL.c **** #if( (GBCL_TX_ENABLED) || (GBCL_HD_ENABLED) )
 886:Generated_Source\PSoC5/GBCL.c ****     /*******************************************************************************
 887:Generated_Source\PSoC5/GBCL.c ****     * Function Name: GBCL_SetTxInterruptMode
 888:Generated_Source\PSoC5/GBCL.c ****     ********************************************************************************
 889:Generated_Source\PSoC5/GBCL.c ****     *
 890:Generated_Source\PSoC5/GBCL.c ****     * Summary:
 891:Generated_Source\PSoC5/GBCL.c ****     *  Configures the TX interrupt sources to be enabled, but does not enable the
 892:Generated_Source\PSoC5/GBCL.c ****     *  interrupt.
 893:Generated_Source\PSoC5/GBCL.c ****     *
 894:Generated_Source\PSoC5/GBCL.c ****     * Parameters:
 895:Generated_Source\PSoC5/GBCL.c ****     *  intSrc: Bit field containing the TX interrupt sources to enable
 896:Generated_Source\PSoC5/GBCL.c ****     *   GBCL_TX_STS_COMPLETE        Interrupt on TX byte complete
 897:Generated_Source\PSoC5/GBCL.c ****     *   GBCL_TX_STS_FIFO_EMPTY      Interrupt when TX FIFO is empty
 898:Generated_Source\PSoC5/GBCL.c ****     *   GBCL_TX_STS_FIFO_FULL       Interrupt when TX FIFO is full
 899:Generated_Source\PSoC5/GBCL.c ****     *   GBCL_TX_STS_FIFO_NOT_FULL   Interrupt when TX FIFO is not full
 900:Generated_Source\PSoC5/GBCL.c ****     *
 901:Generated_Source\PSoC5/GBCL.c ****     * Return:
 902:Generated_Source\PSoC5/GBCL.c ****     *  None.
 903:Generated_Source\PSoC5/GBCL.c ****     *
 904:Generated_Source\PSoC5/GBCL.c ****     * Theory:
 905:Generated_Source\PSoC5/GBCL.c ****     *  Enables the output of specific status bits to the interrupt controller
 906:Generated_Source\PSoC5/GBCL.c ****     *
 907:Generated_Source\PSoC5/GBCL.c ****     *******************************************************************************/
 908:Generated_Source\PSoC5/GBCL.c ****     void GBCL_SetTxInterruptMode(uint8 intSrc) 
 909:Generated_Source\PSoC5/GBCL.c ****     {
 794              		.loc 1 909 0
ARM GAS  C:\Users\THERMA~1\AppData\Local\Temp\ccQ3Sx9h.s 			page 31


 795              		.cfi_startproc
 796              		@ args = 0, pretend = 0, frame = 0
 797              		@ frame_needed = 0, uses_anonymous_args = 0
 798              		@ link register save eliminated.
 799              	.LVL52:
 910:Generated_Source\PSoC5/GBCL.c ****         GBCL_TXSTATUS_MASK_REG = intSrc;
 800              		.loc 1 910 0
 801 0000 014B     		ldr	r3, .L68
 802 0002 1870     		strb	r0, [r3]
 803 0004 7047     		bx	lr
 804              	.L69:
 805 0006 00BF     		.align	2
 806              	.L68:
 807 0008 8C640040 		.word	1073767564
 808              		.cfi_endproc
 809              	.LFE16:
 810              		.size	GBCL_SetTxInterruptMode, .-GBCL_SetTxInterruptMode
 811              		.section	.text.GBCL_WriteTxData,"ax",%progbits
 812              		.align	2
 813              		.global	GBCL_WriteTxData
 814              		.thumb
 815              		.thumb_func
 816              		.type	GBCL_WriteTxData, %function
 817              	GBCL_WriteTxData:
 818              	.LFB17:
 911:Generated_Source\PSoC5/GBCL.c ****     }
 912:Generated_Source\PSoC5/GBCL.c **** 
 913:Generated_Source\PSoC5/GBCL.c **** 
 914:Generated_Source\PSoC5/GBCL.c ****     /*******************************************************************************
 915:Generated_Source\PSoC5/GBCL.c ****     * Function Name: GBCL_WriteTxData
 916:Generated_Source\PSoC5/GBCL.c ****     ********************************************************************************
 917:Generated_Source\PSoC5/GBCL.c ****     *
 918:Generated_Source\PSoC5/GBCL.c ****     * Summary:
 919:Generated_Source\PSoC5/GBCL.c ****     *  Places a byte of data into the transmit buffer to be sent when the bus is
 920:Generated_Source\PSoC5/GBCL.c ****     *  available without checking the TX status register. You must check status
 921:Generated_Source\PSoC5/GBCL.c ****     *  separately.
 922:Generated_Source\PSoC5/GBCL.c ****     *
 923:Generated_Source\PSoC5/GBCL.c ****     * Parameters:
 924:Generated_Source\PSoC5/GBCL.c ****     *  txDataByte: data byte
 925:Generated_Source\PSoC5/GBCL.c ****     *
 926:Generated_Source\PSoC5/GBCL.c ****     * Return:
 927:Generated_Source\PSoC5/GBCL.c ****     * None.
 928:Generated_Source\PSoC5/GBCL.c ****     *
 929:Generated_Source\PSoC5/GBCL.c ****     * Global Variables:
 930:Generated_Source\PSoC5/GBCL.c ****     *  GBCL_txBuffer - RAM buffer pointer for save data for transmission
 931:Generated_Source\PSoC5/GBCL.c ****     *  GBCL_txBufferWrite - cyclic index for write to txBuffer,
 932:Generated_Source\PSoC5/GBCL.c ****     *    incremented after each byte saved to buffer.
 933:Generated_Source\PSoC5/GBCL.c ****     *  GBCL_txBufferRead - cyclic index for read from txBuffer,
 934:Generated_Source\PSoC5/GBCL.c ****     *    checked to identify the condition to write to FIFO directly or to TX buffer
 935:Generated_Source\PSoC5/GBCL.c ****     *  GBCL_initVar - checked to identify that the component has been
 936:Generated_Source\PSoC5/GBCL.c ****     *    initialized.
 937:Generated_Source\PSoC5/GBCL.c ****     *
 938:Generated_Source\PSoC5/GBCL.c ****     * Reentrant:
 939:Generated_Source\PSoC5/GBCL.c ****     *  No.
 940:Generated_Source\PSoC5/GBCL.c ****     *
 941:Generated_Source\PSoC5/GBCL.c ****     *******************************************************************************/
 942:Generated_Source\PSoC5/GBCL.c ****     void GBCL_WriteTxData(uint8 txDataByte) 
ARM GAS  C:\Users\THERMA~1\AppData\Local\Temp\ccQ3Sx9h.s 			page 32


 943:Generated_Source\PSoC5/GBCL.c ****     {
 819              		.loc 1 943 0
 820              		.cfi_startproc
 821              		@ args = 0, pretend = 0, frame = 0
 822              		@ frame_needed = 0, uses_anonymous_args = 0
 823              		@ link register save eliminated.
 824              	.LVL53:
 944:Generated_Source\PSoC5/GBCL.c ****         /* If not Initialized then skip this function*/
 945:Generated_Source\PSoC5/GBCL.c ****         if(GBCL_initVar != 0u)
 825              		.loc 1 945 0
 826 0000 024B     		ldr	r3, .L72
 827 0002 5B78     		ldrb	r3, [r3, #1]	@ zero_extendqisi2
 828 0004 0BB1     		cbz	r3, .L70
 946:Generated_Source\PSoC5/GBCL.c ****         {
 947:Generated_Source\PSoC5/GBCL.c ****         #if (GBCL_TX_INTERRUPT_ENABLED)
 948:Generated_Source\PSoC5/GBCL.c **** 
 949:Generated_Source\PSoC5/GBCL.c ****             /* Protect variables that could change on interrupt. */
 950:Generated_Source\PSoC5/GBCL.c ****             GBCL_DisableTxInt();
 951:Generated_Source\PSoC5/GBCL.c **** 
 952:Generated_Source\PSoC5/GBCL.c ****             if( (GBCL_txBufferRead == GBCL_txBufferWrite) &&
 953:Generated_Source\PSoC5/GBCL.c ****                 ((GBCL_TXSTATUS_REG & GBCL_TX_STS_FIFO_FULL) == 0u) )
 954:Generated_Source\PSoC5/GBCL.c ****             {
 955:Generated_Source\PSoC5/GBCL.c ****                 /* Add directly to the FIFO. */
 956:Generated_Source\PSoC5/GBCL.c ****                 GBCL_TXDATA_REG = txDataByte;
 957:Generated_Source\PSoC5/GBCL.c ****             }
 958:Generated_Source\PSoC5/GBCL.c ****             else
 959:Generated_Source\PSoC5/GBCL.c ****             {
 960:Generated_Source\PSoC5/GBCL.c ****                 if(GBCL_txBufferWrite >= GBCL_TX_BUFFER_SIZE)
 961:Generated_Source\PSoC5/GBCL.c ****                 {
 962:Generated_Source\PSoC5/GBCL.c ****                     GBCL_txBufferWrite = 0u;
 963:Generated_Source\PSoC5/GBCL.c ****                 }
 964:Generated_Source\PSoC5/GBCL.c **** 
 965:Generated_Source\PSoC5/GBCL.c ****                 GBCL_txBuffer[GBCL_txBufferWrite] = txDataByte;
 966:Generated_Source\PSoC5/GBCL.c **** 
 967:Generated_Source\PSoC5/GBCL.c ****                 /* Add to the software buffer. */
 968:Generated_Source\PSoC5/GBCL.c ****                 GBCL_txBufferWrite++;
 969:Generated_Source\PSoC5/GBCL.c ****             }
 970:Generated_Source\PSoC5/GBCL.c **** 
 971:Generated_Source\PSoC5/GBCL.c ****             GBCL_EnableTxInt();
 972:Generated_Source\PSoC5/GBCL.c **** 
 973:Generated_Source\PSoC5/GBCL.c ****         #else
 974:Generated_Source\PSoC5/GBCL.c **** 
 975:Generated_Source\PSoC5/GBCL.c ****             /* Add directly to the FIFO. */
 976:Generated_Source\PSoC5/GBCL.c ****             GBCL_TXDATA_REG = txDataByte;
 829              		.loc 1 976 0
 830 0006 024B     		ldr	r3, .L72+4
 831 0008 1870     		strb	r0, [r3]
 832              	.L70:
 833 000a 7047     		bx	lr
 834              	.L73:
 835              		.align	2
 836              	.L72:
 837 000c 00000000 		.word	.LANCHOR0
 838 0010 4C640040 		.word	1073767500
 839              		.cfi_endproc
 840              	.LFE17:
 841              		.size	GBCL_WriteTxData, .-GBCL_WriteTxData
ARM GAS  C:\Users\THERMA~1\AppData\Local\Temp\ccQ3Sx9h.s 			page 33


 842              		.section	.text.GBCL_ReadTxStatus,"ax",%progbits
 843              		.align	2
 844              		.global	GBCL_ReadTxStatus
 845              		.thumb
 846              		.thumb_func
 847              		.type	GBCL_ReadTxStatus, %function
 848              	GBCL_ReadTxStatus:
 849              	.LFB18:
 977:Generated_Source\PSoC5/GBCL.c **** 
 978:Generated_Source\PSoC5/GBCL.c ****         #endif /*(GBCL_TX_INTERRUPT_ENABLED) */
 979:Generated_Source\PSoC5/GBCL.c ****         }
 980:Generated_Source\PSoC5/GBCL.c ****     }
 981:Generated_Source\PSoC5/GBCL.c **** 
 982:Generated_Source\PSoC5/GBCL.c **** 
 983:Generated_Source\PSoC5/GBCL.c ****     /*******************************************************************************
 984:Generated_Source\PSoC5/GBCL.c ****     * Function Name: GBCL_ReadTxStatus
 985:Generated_Source\PSoC5/GBCL.c ****     ********************************************************************************
 986:Generated_Source\PSoC5/GBCL.c ****     *
 987:Generated_Source\PSoC5/GBCL.c ****     * Summary:
 988:Generated_Source\PSoC5/GBCL.c ****     *  Reads the status register for the TX portion of the UART.
 989:Generated_Source\PSoC5/GBCL.c ****     *
 990:Generated_Source\PSoC5/GBCL.c ****     * Parameters:
 991:Generated_Source\PSoC5/GBCL.c ****     *  None.
 992:Generated_Source\PSoC5/GBCL.c ****     *
 993:Generated_Source\PSoC5/GBCL.c ****     * Return:
 994:Generated_Source\PSoC5/GBCL.c ****     *  Contents of the status register
 995:Generated_Source\PSoC5/GBCL.c ****     *
 996:Generated_Source\PSoC5/GBCL.c ****     * Theory:
 997:Generated_Source\PSoC5/GBCL.c ****     *  This function reads the TX status register, which is cleared on read.
 998:Generated_Source\PSoC5/GBCL.c ****     *  It is up to the user to handle all bits in this return value accordingly,
 999:Generated_Source\PSoC5/GBCL.c ****     *  even if the bit was not enabled as an interrupt source the event happened
1000:Generated_Source\PSoC5/GBCL.c ****     *  and must be handled accordingly.
1001:Generated_Source\PSoC5/GBCL.c ****     *
1002:Generated_Source\PSoC5/GBCL.c ****     *******************************************************************************/
1003:Generated_Source\PSoC5/GBCL.c ****     uint8 GBCL_ReadTxStatus(void) 
1004:Generated_Source\PSoC5/GBCL.c ****     {
 850              		.loc 1 1004 0
 851              		.cfi_startproc
 852              		@ args = 0, pretend = 0, frame = 0
 853              		@ frame_needed = 0, uses_anonymous_args = 0
 854              		@ link register save eliminated.
1005:Generated_Source\PSoC5/GBCL.c ****         return(GBCL_TXSTATUS_REG);
 855              		.loc 1 1005 0
 856 0000 014B     		ldr	r3, .L75
 857 0002 1878     		ldrb	r0, [r3]	@ zero_extendqisi2
1006:Generated_Source\PSoC5/GBCL.c ****     }
 858              		.loc 1 1006 0
 859 0004 7047     		bx	lr
 860              	.L76:
 861 0006 00BF     		.align	2
 862              	.L75:
 863 0008 6C640040 		.word	1073767532
 864              		.cfi_endproc
 865              	.LFE18:
 866              		.size	GBCL_ReadTxStatus, .-GBCL_ReadTxStatus
 867              		.section	.text.GBCL_PutChar,"ax",%progbits
 868              		.align	2
ARM GAS  C:\Users\THERMA~1\AppData\Local\Temp\ccQ3Sx9h.s 			page 34


 869              		.global	GBCL_PutChar
 870              		.thumb
 871              		.thumb_func
 872              		.type	GBCL_PutChar, %function
 873              	GBCL_PutChar:
 874              	.LFB19:
1007:Generated_Source\PSoC5/GBCL.c **** 
1008:Generated_Source\PSoC5/GBCL.c **** 
1009:Generated_Source\PSoC5/GBCL.c ****     /*******************************************************************************
1010:Generated_Source\PSoC5/GBCL.c ****     * Function Name: GBCL_PutChar
1011:Generated_Source\PSoC5/GBCL.c ****     ********************************************************************************
1012:Generated_Source\PSoC5/GBCL.c ****     *
1013:Generated_Source\PSoC5/GBCL.c ****     * Summary:
1014:Generated_Source\PSoC5/GBCL.c ****     *  Puts a byte of data into the transmit buffer to be sent when the bus is
1015:Generated_Source\PSoC5/GBCL.c ****     *  available. This is a blocking API that waits until the TX buffer has room to
1016:Generated_Source\PSoC5/GBCL.c ****     *  hold the data.
1017:Generated_Source\PSoC5/GBCL.c ****     *
1018:Generated_Source\PSoC5/GBCL.c ****     * Parameters:
1019:Generated_Source\PSoC5/GBCL.c ****     *  txDataByte: Byte containing the data to transmit
1020:Generated_Source\PSoC5/GBCL.c ****     *
1021:Generated_Source\PSoC5/GBCL.c ****     * Return:
1022:Generated_Source\PSoC5/GBCL.c ****     *  None.
1023:Generated_Source\PSoC5/GBCL.c ****     *
1024:Generated_Source\PSoC5/GBCL.c ****     * Global Variables:
1025:Generated_Source\PSoC5/GBCL.c ****     *  GBCL_txBuffer - RAM buffer pointer for save data for transmission
1026:Generated_Source\PSoC5/GBCL.c ****     *  GBCL_txBufferWrite - cyclic index for write to txBuffer,
1027:Generated_Source\PSoC5/GBCL.c ****     *     checked to identify free space in txBuffer and incremented after each byte
1028:Generated_Source\PSoC5/GBCL.c ****     *     saved to buffer.
1029:Generated_Source\PSoC5/GBCL.c ****     *  GBCL_txBufferRead - cyclic index for read from txBuffer,
1030:Generated_Source\PSoC5/GBCL.c ****     *     checked to identify free space in txBuffer.
1031:Generated_Source\PSoC5/GBCL.c ****     *  GBCL_initVar - checked to identify that the component has been
1032:Generated_Source\PSoC5/GBCL.c ****     *     initialized.
1033:Generated_Source\PSoC5/GBCL.c ****     *
1034:Generated_Source\PSoC5/GBCL.c ****     * Reentrant:
1035:Generated_Source\PSoC5/GBCL.c ****     *  No.
1036:Generated_Source\PSoC5/GBCL.c ****     *
1037:Generated_Source\PSoC5/GBCL.c ****     * Theory:
1038:Generated_Source\PSoC5/GBCL.c ****     *  Allows the user to transmit any byte of data in a single transfer
1039:Generated_Source\PSoC5/GBCL.c ****     *
1040:Generated_Source\PSoC5/GBCL.c ****     *******************************************************************************/
1041:Generated_Source\PSoC5/GBCL.c ****     void GBCL_PutChar(uint8 txDataByte) 
1042:Generated_Source\PSoC5/GBCL.c ****     {
 875              		.loc 1 1042 0
 876              		.cfi_startproc
 877              		@ args = 0, pretend = 0, frame = 0
 878              		@ frame_needed = 0, uses_anonymous_args = 0
 879              		@ link register save eliminated.
 880              	.LVL54:
 881              	.L78:
1043:Generated_Source\PSoC5/GBCL.c ****     #if (GBCL_TX_INTERRUPT_ENABLED)
1044:Generated_Source\PSoC5/GBCL.c ****         /* The temporary output pointer is used since it takes two instructions
1045:Generated_Source\PSoC5/GBCL.c ****         *  to increment with a wrap, and we can't risk doing that with the real
1046:Generated_Source\PSoC5/GBCL.c ****         *  pointer and getting an interrupt in between instructions.
1047:Generated_Source\PSoC5/GBCL.c ****         */
1048:Generated_Source\PSoC5/GBCL.c ****         uint8 locTxBufferWrite;
1049:Generated_Source\PSoC5/GBCL.c ****         uint8 locTxBufferRead;
1050:Generated_Source\PSoC5/GBCL.c **** 
ARM GAS  C:\Users\THERMA~1\AppData\Local\Temp\ccQ3Sx9h.s 			page 35


1051:Generated_Source\PSoC5/GBCL.c ****         do
1052:Generated_Source\PSoC5/GBCL.c ****         { /* Block if software buffer is full, so we don't overwrite. */
1053:Generated_Source\PSoC5/GBCL.c **** 
1054:Generated_Source\PSoC5/GBCL.c ****         #if ((GBCL_TX_BUFFER_SIZE > GBCL_MAX_BYTE_VALUE) && (CY_PSOC3))
1055:Generated_Source\PSoC5/GBCL.c ****             /* Disable TX interrupt to protect variables from modification */
1056:Generated_Source\PSoC5/GBCL.c ****             GBCL_DisableTxInt();
1057:Generated_Source\PSoC5/GBCL.c ****         #endif /* (GBCL_TX_BUFFER_SIZE > GBCL_MAX_BYTE_VALUE) && (CY_PSOC3) */
1058:Generated_Source\PSoC5/GBCL.c **** 
1059:Generated_Source\PSoC5/GBCL.c ****             locTxBufferWrite = GBCL_txBufferWrite;
1060:Generated_Source\PSoC5/GBCL.c ****             locTxBufferRead  = GBCL_txBufferRead;
1061:Generated_Source\PSoC5/GBCL.c **** 
1062:Generated_Source\PSoC5/GBCL.c ****         #if ((GBCL_TX_BUFFER_SIZE > GBCL_MAX_BYTE_VALUE) && (CY_PSOC3))
1063:Generated_Source\PSoC5/GBCL.c ****             /* Enable interrupt to continue transmission */
1064:Generated_Source\PSoC5/GBCL.c ****             GBCL_EnableTxInt();
1065:Generated_Source\PSoC5/GBCL.c ****         #endif /* (GBCL_TX_BUFFER_SIZE > GBCL_MAX_BYTE_VALUE) && (CY_PSOC3) */
1066:Generated_Source\PSoC5/GBCL.c ****         }
1067:Generated_Source\PSoC5/GBCL.c ****         while( (locTxBufferWrite < locTxBufferRead) ? (locTxBufferWrite == (locTxBufferRead - 1u)) 
1068:Generated_Source\PSoC5/GBCL.c ****                                 ((locTxBufferWrite - locTxBufferRead) ==
1069:Generated_Source\PSoC5/GBCL.c ****                                 (uint8)(GBCL_TX_BUFFER_SIZE - 1u)) );
1070:Generated_Source\PSoC5/GBCL.c **** 
1071:Generated_Source\PSoC5/GBCL.c ****         if( (locTxBufferRead == locTxBufferWrite) &&
1072:Generated_Source\PSoC5/GBCL.c ****             ((GBCL_TXSTATUS_REG & GBCL_TX_STS_FIFO_FULL) == 0u) )
1073:Generated_Source\PSoC5/GBCL.c ****         {
1074:Generated_Source\PSoC5/GBCL.c ****             /* Add directly to the FIFO */
1075:Generated_Source\PSoC5/GBCL.c ****             GBCL_TXDATA_REG = txDataByte;
1076:Generated_Source\PSoC5/GBCL.c ****         }
1077:Generated_Source\PSoC5/GBCL.c ****         else
1078:Generated_Source\PSoC5/GBCL.c ****         {
1079:Generated_Source\PSoC5/GBCL.c ****             if(locTxBufferWrite >= GBCL_TX_BUFFER_SIZE)
1080:Generated_Source\PSoC5/GBCL.c ****             {
1081:Generated_Source\PSoC5/GBCL.c ****                 locTxBufferWrite = 0u;
1082:Generated_Source\PSoC5/GBCL.c ****             }
1083:Generated_Source\PSoC5/GBCL.c ****             /* Add to the software buffer. */
1084:Generated_Source\PSoC5/GBCL.c ****             GBCL_txBuffer[locTxBufferWrite] = txDataByte;
1085:Generated_Source\PSoC5/GBCL.c ****             locTxBufferWrite++;
1086:Generated_Source\PSoC5/GBCL.c **** 
1087:Generated_Source\PSoC5/GBCL.c ****             /* Finally, update the real output pointer */
1088:Generated_Source\PSoC5/GBCL.c ****         #if ((GBCL_TX_BUFFER_SIZE > GBCL_MAX_BYTE_VALUE) && (CY_PSOC3))
1089:Generated_Source\PSoC5/GBCL.c ****             GBCL_DisableTxInt();
1090:Generated_Source\PSoC5/GBCL.c ****         #endif /* (GBCL_TX_BUFFER_SIZE > GBCL_MAX_BYTE_VALUE) && (CY_PSOC3) */
1091:Generated_Source\PSoC5/GBCL.c **** 
1092:Generated_Source\PSoC5/GBCL.c ****             GBCL_txBufferWrite = locTxBufferWrite;
1093:Generated_Source\PSoC5/GBCL.c **** 
1094:Generated_Source\PSoC5/GBCL.c ****         #if ((GBCL_TX_BUFFER_SIZE > GBCL_MAX_BYTE_VALUE) && (CY_PSOC3))
1095:Generated_Source\PSoC5/GBCL.c ****             GBCL_EnableTxInt();
1096:Generated_Source\PSoC5/GBCL.c ****         #endif /* (GBCL_TX_BUFFER_SIZE > GBCL_MAX_BYTE_VALUE) && (CY_PSOC3) */
1097:Generated_Source\PSoC5/GBCL.c **** 
1098:Generated_Source\PSoC5/GBCL.c ****             if(0u != (GBCL_TXSTATUS_REG & GBCL_TX_STS_FIFO_EMPTY))
1099:Generated_Source\PSoC5/GBCL.c ****             {
1100:Generated_Source\PSoC5/GBCL.c ****                 /* Trigger TX interrupt to send software buffer */
1101:Generated_Source\PSoC5/GBCL.c ****                 GBCL_SetPendingTxInt();
1102:Generated_Source\PSoC5/GBCL.c ****             }
1103:Generated_Source\PSoC5/GBCL.c ****         }
1104:Generated_Source\PSoC5/GBCL.c **** 
1105:Generated_Source\PSoC5/GBCL.c ****     #else
1106:Generated_Source\PSoC5/GBCL.c **** 
1107:Generated_Source\PSoC5/GBCL.c ****         while((GBCL_TXSTATUS_REG & GBCL_TX_STS_FIFO_FULL) != 0u)
ARM GAS  C:\Users\THERMA~1\AppData\Local\Temp\ccQ3Sx9h.s 			page 36


 882              		.loc 1 1107 0 discriminator 1
 883 0000 034B     		ldr	r3, .L79
 884 0002 1B78     		ldrb	r3, [r3]	@ zero_extendqisi2
 885 0004 13F0040F 		tst	r3, #4
 886 0008 FAD1     		bne	.L78
1108:Generated_Source\PSoC5/GBCL.c ****         {
1109:Generated_Source\PSoC5/GBCL.c ****             /* Wait for room in the FIFO */
1110:Generated_Source\PSoC5/GBCL.c ****         }
1111:Generated_Source\PSoC5/GBCL.c **** 
1112:Generated_Source\PSoC5/GBCL.c ****         /* Add directly to the FIFO */
1113:Generated_Source\PSoC5/GBCL.c ****         GBCL_TXDATA_REG = txDataByte;
 887              		.loc 1 1113 0
 888 000a 024B     		ldr	r3, .L79+4
 889 000c 1870     		strb	r0, [r3]
 890 000e 7047     		bx	lr
 891              	.L80:
 892              		.align	2
 893              	.L79:
 894 0010 6C640040 		.word	1073767532
 895 0014 4C640040 		.word	1073767500
 896              		.cfi_endproc
 897              	.LFE19:
 898              		.size	GBCL_PutChar, .-GBCL_PutChar
 899              		.section	.text.GBCL_PutString,"ax",%progbits
 900              		.align	2
 901              		.global	GBCL_PutString
 902              		.thumb
 903              		.thumb_func
 904              		.type	GBCL_PutString, %function
 905              	GBCL_PutString:
 906              	.LFB20:
1114:Generated_Source\PSoC5/GBCL.c **** 
1115:Generated_Source\PSoC5/GBCL.c ****     #endif /* GBCL_TX_INTERRUPT_ENABLED */
1116:Generated_Source\PSoC5/GBCL.c ****     }
1117:Generated_Source\PSoC5/GBCL.c **** 
1118:Generated_Source\PSoC5/GBCL.c **** 
1119:Generated_Source\PSoC5/GBCL.c ****     /*******************************************************************************
1120:Generated_Source\PSoC5/GBCL.c ****     * Function Name: GBCL_PutString
1121:Generated_Source\PSoC5/GBCL.c ****     ********************************************************************************
1122:Generated_Source\PSoC5/GBCL.c ****     *
1123:Generated_Source\PSoC5/GBCL.c ****     * Summary:
1124:Generated_Source\PSoC5/GBCL.c ****     *  Sends a NULL terminated string to the TX buffer for transmission.
1125:Generated_Source\PSoC5/GBCL.c ****     *
1126:Generated_Source\PSoC5/GBCL.c ****     * Parameters:
1127:Generated_Source\PSoC5/GBCL.c ****     *  string[]: Pointer to the null terminated string array residing in RAM or ROM
1128:Generated_Source\PSoC5/GBCL.c ****     *
1129:Generated_Source\PSoC5/GBCL.c ****     * Return:
1130:Generated_Source\PSoC5/GBCL.c ****     *  None.
1131:Generated_Source\PSoC5/GBCL.c ****     *
1132:Generated_Source\PSoC5/GBCL.c ****     * Global Variables:
1133:Generated_Source\PSoC5/GBCL.c ****     *  GBCL_initVar - checked to identify that the component has been
1134:Generated_Source\PSoC5/GBCL.c ****     *     initialized.
1135:Generated_Source\PSoC5/GBCL.c ****     *
1136:Generated_Source\PSoC5/GBCL.c ****     * Reentrant:
1137:Generated_Source\PSoC5/GBCL.c ****     *  No.
1138:Generated_Source\PSoC5/GBCL.c ****     *
1139:Generated_Source\PSoC5/GBCL.c ****     * Theory:
ARM GAS  C:\Users\THERMA~1\AppData\Local\Temp\ccQ3Sx9h.s 			page 37


1140:Generated_Source\PSoC5/GBCL.c ****     *  If there is not enough memory in the TX buffer for the entire string, this
1141:Generated_Source\PSoC5/GBCL.c ****     *  function blocks until the last character of the string is loaded into the
1142:Generated_Source\PSoC5/GBCL.c ****     *  TX buffer.
1143:Generated_Source\PSoC5/GBCL.c ****     *
1144:Generated_Source\PSoC5/GBCL.c ****     *******************************************************************************/
1145:Generated_Source\PSoC5/GBCL.c ****     void GBCL_PutString(const char8 string[]) 
1146:Generated_Source\PSoC5/GBCL.c ****     {
 907              		.loc 1 1146 0
 908              		.cfi_startproc
 909              		@ args = 0, pretend = 0, frame = 0
 910              		@ frame_needed = 0, uses_anonymous_args = 0
 911              	.LVL55:
 912 0000 38B5     		push	{r3, r4, r5, lr}
 913              		.cfi_def_cfa_offset 16
 914              		.cfi_offset 3, -16
 915              		.cfi_offset 4, -12
 916              		.cfi_offset 5, -8
 917              		.cfi_offset 14, -4
 918              	.LVL56:
1147:Generated_Source\PSoC5/GBCL.c ****         uint16 bufIndex = 0u;
1148:Generated_Source\PSoC5/GBCL.c **** 
1149:Generated_Source\PSoC5/GBCL.c ****         /* If not Initialized then skip this function */
1150:Generated_Source\PSoC5/GBCL.c ****         if(GBCL_initVar != 0u)
 919              		.loc 1 1150 0
 920 0002 074B     		ldr	r3, .L87
 921 0004 5B78     		ldrb	r3, [r3, #1]	@ zero_extendqisi2
 922 0006 2BB9     		cbnz	r3, .L85
 923 0008 38BD     		pop	{r3, r4, r5, pc}
 924              	.LVL57:
 925              	.L84:
1151:Generated_Source\PSoC5/GBCL.c ****         {
1152:Generated_Source\PSoC5/GBCL.c ****             /* This is a blocking function, it will not exit until all data is sent */
1153:Generated_Source\PSoC5/GBCL.c ****             while(string[bufIndex] != (char8) 0)
1154:Generated_Source\PSoC5/GBCL.c ****             {
1155:Generated_Source\PSoC5/GBCL.c ****                 GBCL_PutChar((uint8)string[bufIndex]);
 926              		.loc 1 1155 0
 927 000a FFF7FEFF 		bl	GBCL_PutChar
 928              	.LVL58:
1156:Generated_Source\PSoC5/GBCL.c ****                 bufIndex++;
 929              		.loc 1 1156 0
 930 000e 0134     		adds	r4, r4, #1
 931              	.LVL59:
 932 0010 A4B2     		uxth	r4, r4
 933              	.LVL60:
 934 0012 01E0     		b	.L82
 935              	.LVL61:
 936              	.L85:
 937 0014 0546     		mov	r5, r0
 938 0016 0024     		movs	r4, #0
 939              	.LVL62:
 940              	.L82:
1153:Generated_Source\PSoC5/GBCL.c ****             {
 941              		.loc 1 1153 0
 942 0018 285D     		ldrb	r0, [r5, r4]	@ zero_extendqisi2
 943 001a 0028     		cmp	r0, #0
 944 001c F5D1     		bne	.L84
 945 001e 38BD     		pop	{r3, r4, r5, pc}
ARM GAS  C:\Users\THERMA~1\AppData\Local\Temp\ccQ3Sx9h.s 			page 38


 946              	.LVL63:
 947              	.L88:
 948              		.align	2
 949              	.L87:
 950 0020 00000000 		.word	.LANCHOR0
 951              		.cfi_endproc
 952              	.LFE20:
 953              		.size	GBCL_PutString, .-GBCL_PutString
 954              		.section	.text.GBCL_PutArray,"ax",%progbits
 955              		.align	2
 956              		.global	GBCL_PutArray
 957              		.thumb
 958              		.thumb_func
 959              		.type	GBCL_PutArray, %function
 960              	GBCL_PutArray:
 961              	.LFB21:
1157:Generated_Source\PSoC5/GBCL.c ****             }
1158:Generated_Source\PSoC5/GBCL.c ****         }
1159:Generated_Source\PSoC5/GBCL.c ****     }
1160:Generated_Source\PSoC5/GBCL.c **** 
1161:Generated_Source\PSoC5/GBCL.c **** 
1162:Generated_Source\PSoC5/GBCL.c ****     /*******************************************************************************
1163:Generated_Source\PSoC5/GBCL.c ****     * Function Name: GBCL_PutArray
1164:Generated_Source\PSoC5/GBCL.c ****     ********************************************************************************
1165:Generated_Source\PSoC5/GBCL.c ****     *
1166:Generated_Source\PSoC5/GBCL.c ****     * Summary:
1167:Generated_Source\PSoC5/GBCL.c ****     *  Places N bytes of data from a memory array into the TX buffer for
1168:Generated_Source\PSoC5/GBCL.c ****     *  transmission.
1169:Generated_Source\PSoC5/GBCL.c ****     *
1170:Generated_Source\PSoC5/GBCL.c ****     * Parameters:
1171:Generated_Source\PSoC5/GBCL.c ****     *  string[]: Address of the memory array residing in RAM or ROM.
1172:Generated_Source\PSoC5/GBCL.c ****     *  byteCount: Number of bytes to be transmitted. The type depends on TX Buffer
1173:Generated_Source\PSoC5/GBCL.c ****     *             Size parameter.
1174:Generated_Source\PSoC5/GBCL.c ****     *
1175:Generated_Source\PSoC5/GBCL.c ****     * Return:
1176:Generated_Source\PSoC5/GBCL.c ****     *  None.
1177:Generated_Source\PSoC5/GBCL.c ****     *
1178:Generated_Source\PSoC5/GBCL.c ****     * Global Variables:
1179:Generated_Source\PSoC5/GBCL.c ****     *  GBCL_initVar - checked to identify that the component has been
1180:Generated_Source\PSoC5/GBCL.c ****     *     initialized.
1181:Generated_Source\PSoC5/GBCL.c ****     *
1182:Generated_Source\PSoC5/GBCL.c ****     * Reentrant:
1183:Generated_Source\PSoC5/GBCL.c ****     *  No.
1184:Generated_Source\PSoC5/GBCL.c ****     *
1185:Generated_Source\PSoC5/GBCL.c ****     * Theory:
1186:Generated_Source\PSoC5/GBCL.c ****     *  If there is not enough memory in the TX buffer for the entire string, this
1187:Generated_Source\PSoC5/GBCL.c ****     *  function blocks until the last character of the string is loaded into the
1188:Generated_Source\PSoC5/GBCL.c ****     *  TX buffer.
1189:Generated_Source\PSoC5/GBCL.c ****     *
1190:Generated_Source\PSoC5/GBCL.c ****     *******************************************************************************/
1191:Generated_Source\PSoC5/GBCL.c ****     void GBCL_PutArray(const uint8 string[], uint8 byteCount)
1192:Generated_Source\PSoC5/GBCL.c ****                                                                     
1193:Generated_Source\PSoC5/GBCL.c ****     {
 962              		.loc 1 1193 0
 963              		.cfi_startproc
 964              		@ args = 0, pretend = 0, frame = 0
 965              		@ frame_needed = 0, uses_anonymous_args = 0
ARM GAS  C:\Users\THERMA~1\AppData\Local\Temp\ccQ3Sx9h.s 			page 39


 966              	.LVL64:
1194:Generated_Source\PSoC5/GBCL.c ****         uint8 bufIndex = 0u;
1195:Generated_Source\PSoC5/GBCL.c **** 
1196:Generated_Source\PSoC5/GBCL.c ****         /* If not Initialized then skip this function */
1197:Generated_Source\PSoC5/GBCL.c ****         if(GBCL_initVar != 0u)
 967              		.loc 1 1197 0
 968 0000 084B     		ldr	r3, .L95
 969 0002 5B78     		ldrb	r3, [r3, #1]	@ zero_extendqisi2
 970 0004 33B9     		cbnz	r3, .L93
 971 0006 7047     		bx	lr
 972              	.LVL65:
 973              	.L92:
 974              		.cfi_def_cfa_offset 16
 975              		.cfi_offset 4, -16
 976              		.cfi_offset 5, -12
 977              		.cfi_offset 6, -8
 978              		.cfi_offset 14, -4
1198:Generated_Source\PSoC5/GBCL.c ****         {
1199:Generated_Source\PSoC5/GBCL.c ****             while(bufIndex < byteCount)
1200:Generated_Source\PSoC5/GBCL.c ****             {
1201:Generated_Source\PSoC5/GBCL.c ****                 GBCL_PutChar(string[bufIndex]);
 979              		.loc 1 1201 0
 980 0008 305D     		ldrb	r0, [r6, r4]	@ zero_extendqisi2
 981 000a FFF7FEFF 		bl	GBCL_PutChar
 982              	.LVL66:
1202:Generated_Source\PSoC5/GBCL.c ****                 bufIndex++;
 983              		.loc 1 1202 0
 984 000e 0134     		adds	r4, r4, #1
 985              	.LVL67:
 986 0010 E4B2     		uxtb	r4, r4
 987              	.LVL68:
 988 0012 03E0     		b	.L90
 989              	.LVL69:
 990              	.L93:
 991              		.cfi_def_cfa_offset 0
 992              		.cfi_restore 4
 993              		.cfi_restore 5
 994              		.cfi_restore 6
 995              		.cfi_restore 14
1193:Generated_Source\PSoC5/GBCL.c ****         uint8 bufIndex = 0u;
 996              		.loc 1 1193 0
 997 0014 70B5     		push	{r4, r5, r6, lr}
 998              		.cfi_def_cfa_offset 16
 999              		.cfi_offset 4, -16
 1000              		.cfi_offset 5, -12
 1001              		.cfi_offset 6, -8
 1002              		.cfi_offset 14, -4
 1003 0016 0D46     		mov	r5, r1
 1004 0018 0646     		mov	r6, r0
 1005 001a 0024     		movs	r4, #0
 1006              	.LVL70:
 1007              	.L90:
1199:Generated_Source\PSoC5/GBCL.c ****             {
 1008              		.loc 1 1199 0
 1009 001c AC42     		cmp	r4, r5
 1010 001e F3D3     		bcc	.L92
 1011 0020 70BD     		pop	{r4, r5, r6, pc}
ARM GAS  C:\Users\THERMA~1\AppData\Local\Temp\ccQ3Sx9h.s 			page 40


 1012              	.LVL71:
 1013              	.L96:
 1014 0022 00BF     		.align	2
 1015              	.L95:
 1016 0024 00000000 		.word	.LANCHOR0
 1017              		.cfi_endproc
 1018              	.LFE21:
 1019              		.size	GBCL_PutArray, .-GBCL_PutArray
 1020              		.section	.text.GBCL_PutCRLF,"ax",%progbits
 1021              		.align	2
 1022              		.global	GBCL_PutCRLF
 1023              		.thumb
 1024              		.thumb_func
 1025              		.type	GBCL_PutCRLF, %function
 1026              	GBCL_PutCRLF:
 1027              	.LFB22:
1203:Generated_Source\PSoC5/GBCL.c ****             }
1204:Generated_Source\PSoC5/GBCL.c ****         }
1205:Generated_Source\PSoC5/GBCL.c ****     }
1206:Generated_Source\PSoC5/GBCL.c **** 
1207:Generated_Source\PSoC5/GBCL.c **** 
1208:Generated_Source\PSoC5/GBCL.c ****     /*******************************************************************************
1209:Generated_Source\PSoC5/GBCL.c ****     * Function Name: GBCL_PutCRLF
1210:Generated_Source\PSoC5/GBCL.c ****     ********************************************************************************
1211:Generated_Source\PSoC5/GBCL.c ****     *
1212:Generated_Source\PSoC5/GBCL.c ****     * Summary:
1213:Generated_Source\PSoC5/GBCL.c ****     *  Writes a byte of data followed by a carriage return (0x0D) and line feed
1214:Generated_Source\PSoC5/GBCL.c ****     *  (0x0A) to the transmit buffer.
1215:Generated_Source\PSoC5/GBCL.c ****     *
1216:Generated_Source\PSoC5/GBCL.c ****     * Parameters:
1217:Generated_Source\PSoC5/GBCL.c ****     *  txDataByte: Data byte to transmit before the carriage return and line feed.
1218:Generated_Source\PSoC5/GBCL.c ****     *
1219:Generated_Source\PSoC5/GBCL.c ****     * Return:
1220:Generated_Source\PSoC5/GBCL.c ****     *  None.
1221:Generated_Source\PSoC5/GBCL.c ****     *
1222:Generated_Source\PSoC5/GBCL.c ****     * Global Variables:
1223:Generated_Source\PSoC5/GBCL.c ****     *  GBCL_initVar - checked to identify that the component has been
1224:Generated_Source\PSoC5/GBCL.c ****     *     initialized.
1225:Generated_Source\PSoC5/GBCL.c ****     *
1226:Generated_Source\PSoC5/GBCL.c ****     * Reentrant:
1227:Generated_Source\PSoC5/GBCL.c ****     *  No.
1228:Generated_Source\PSoC5/GBCL.c ****     *
1229:Generated_Source\PSoC5/GBCL.c ****     *******************************************************************************/
1230:Generated_Source\PSoC5/GBCL.c ****     void GBCL_PutCRLF(uint8 txDataByte) 
1231:Generated_Source\PSoC5/GBCL.c ****     {
 1028              		.loc 1 1231 0
 1029              		.cfi_startproc
 1030              		@ args = 0, pretend = 0, frame = 0
 1031              		@ frame_needed = 0, uses_anonymous_args = 0
 1032              	.LVL72:
 1033 0000 08B5     		push	{r3, lr}
 1034              		.cfi_def_cfa_offset 8
 1035              		.cfi_offset 3, -8
 1036              		.cfi_offset 14, -4
1232:Generated_Source\PSoC5/GBCL.c ****         /* If not Initialized then skip this function */
1233:Generated_Source\PSoC5/GBCL.c ****         if(GBCL_initVar != 0u)
 1037              		.loc 1 1233 0
ARM GAS  C:\Users\THERMA~1\AppData\Local\Temp\ccQ3Sx9h.s 			page 41


 1038 0002 064B     		ldr	r3, .L100
 1039 0004 5B78     		ldrb	r3, [r3, #1]	@ zero_extendqisi2
 1040 0006 3BB1     		cbz	r3, .L97
1234:Generated_Source\PSoC5/GBCL.c ****         {
1235:Generated_Source\PSoC5/GBCL.c ****             GBCL_PutChar(txDataByte);
 1041              		.loc 1 1235 0
 1042 0008 FFF7FEFF 		bl	GBCL_PutChar
 1043              	.LVL73:
1236:Generated_Source\PSoC5/GBCL.c ****             GBCL_PutChar(0x0Du);
 1044              		.loc 1 1236 0
 1045 000c 0D20     		movs	r0, #13
 1046 000e FFF7FEFF 		bl	GBCL_PutChar
 1047              	.LVL74:
1237:Generated_Source\PSoC5/GBCL.c ****             GBCL_PutChar(0x0Au);
 1048              		.loc 1 1237 0
 1049 0012 0A20     		movs	r0, #10
 1050 0014 FFF7FEFF 		bl	GBCL_PutChar
 1051              	.LVL75:
 1052              	.L97:
 1053 0018 08BD     		pop	{r3, pc}
 1054              	.L101:
 1055 001a 00BF     		.align	2
 1056              	.L100:
 1057 001c 00000000 		.word	.LANCHOR0
 1058              		.cfi_endproc
 1059              	.LFE22:
 1060              		.size	GBCL_PutCRLF, .-GBCL_PutCRLF
 1061              		.section	.text.GBCL_GetTxBufferSize,"ax",%progbits
 1062              		.align	2
 1063              		.global	GBCL_GetTxBufferSize
 1064              		.thumb
 1065              		.thumb_func
 1066              		.type	GBCL_GetTxBufferSize, %function
 1067              	GBCL_GetTxBufferSize:
 1068              	.LFB23:
1238:Generated_Source\PSoC5/GBCL.c ****         }
1239:Generated_Source\PSoC5/GBCL.c ****     }
1240:Generated_Source\PSoC5/GBCL.c **** 
1241:Generated_Source\PSoC5/GBCL.c **** 
1242:Generated_Source\PSoC5/GBCL.c ****     /*******************************************************************************
1243:Generated_Source\PSoC5/GBCL.c ****     * Function Name: GBCL_GetTxBufferSize
1244:Generated_Source\PSoC5/GBCL.c ****     ********************************************************************************
1245:Generated_Source\PSoC5/GBCL.c ****     *
1246:Generated_Source\PSoC5/GBCL.c ****     * Summary:
1247:Generated_Source\PSoC5/GBCL.c ****     *  Returns the number of bytes in the TX buffer which are waiting to be 
1248:Generated_Source\PSoC5/GBCL.c ****     *  transmitted.
1249:Generated_Source\PSoC5/GBCL.c ****     *  * TX software buffer is disabled (TX Buffer Size parameter is equal to 4): 
1250:Generated_Source\PSoC5/GBCL.c ****     *    returns 0 for empty TX FIFO, 1 for not full TX FIFO or 4 for full TX FIFO.
1251:Generated_Source\PSoC5/GBCL.c ****     *  * TX software buffer is enabled: returns the number of bytes in the TX 
1252:Generated_Source\PSoC5/GBCL.c ****     *    software buffer which are waiting to be transmitted. Bytes available in the
1253:Generated_Source\PSoC5/GBCL.c ****     *    TX FIFO do not count.
1254:Generated_Source\PSoC5/GBCL.c ****     *
1255:Generated_Source\PSoC5/GBCL.c ****     * Parameters:
1256:Generated_Source\PSoC5/GBCL.c ****     *  None.
1257:Generated_Source\PSoC5/GBCL.c ****     *
1258:Generated_Source\PSoC5/GBCL.c ****     * Return:
1259:Generated_Source\PSoC5/GBCL.c ****     *  Number of bytes used in the TX buffer. Return value type depends on the TX 
ARM GAS  C:\Users\THERMA~1\AppData\Local\Temp\ccQ3Sx9h.s 			page 42


1260:Generated_Source\PSoC5/GBCL.c ****     *  Buffer Size parameter.
1261:Generated_Source\PSoC5/GBCL.c ****     *
1262:Generated_Source\PSoC5/GBCL.c ****     * Global Variables:
1263:Generated_Source\PSoC5/GBCL.c ****     *  GBCL_txBufferWrite - used to calculate left space.
1264:Generated_Source\PSoC5/GBCL.c ****     *  GBCL_txBufferRead - used to calculate left space.
1265:Generated_Source\PSoC5/GBCL.c ****     *
1266:Generated_Source\PSoC5/GBCL.c ****     * Reentrant:
1267:Generated_Source\PSoC5/GBCL.c ****     *  No.
1268:Generated_Source\PSoC5/GBCL.c ****     *
1269:Generated_Source\PSoC5/GBCL.c ****     * Theory:
1270:Generated_Source\PSoC5/GBCL.c ****     *  Allows the user to find out how full the TX Buffer is.
1271:Generated_Source\PSoC5/GBCL.c ****     *
1272:Generated_Source\PSoC5/GBCL.c ****     *******************************************************************************/
1273:Generated_Source\PSoC5/GBCL.c ****     uint8 GBCL_GetTxBufferSize(void)
1274:Generated_Source\PSoC5/GBCL.c ****                                                             
1275:Generated_Source\PSoC5/GBCL.c ****     {
 1069              		.loc 1 1275 0
 1070              		.cfi_startproc
 1071              		@ args = 0, pretend = 0, frame = 0
 1072              		@ frame_needed = 0, uses_anonymous_args = 0
 1073              		@ link register save eliminated.
1276:Generated_Source\PSoC5/GBCL.c ****         uint8 size;
1277:Generated_Source\PSoC5/GBCL.c **** 
1278:Generated_Source\PSoC5/GBCL.c ****     #if (GBCL_TX_INTERRUPT_ENABLED)
1279:Generated_Source\PSoC5/GBCL.c **** 
1280:Generated_Source\PSoC5/GBCL.c ****         /* Protect variables that could change on interrupt. */
1281:Generated_Source\PSoC5/GBCL.c ****         GBCL_DisableTxInt();
1282:Generated_Source\PSoC5/GBCL.c **** 
1283:Generated_Source\PSoC5/GBCL.c ****         if(GBCL_txBufferRead == GBCL_txBufferWrite)
1284:Generated_Source\PSoC5/GBCL.c ****         {
1285:Generated_Source\PSoC5/GBCL.c ****             size = 0u;
1286:Generated_Source\PSoC5/GBCL.c ****         }
1287:Generated_Source\PSoC5/GBCL.c ****         else if(GBCL_txBufferRead < GBCL_txBufferWrite)
1288:Generated_Source\PSoC5/GBCL.c ****         {
1289:Generated_Source\PSoC5/GBCL.c ****             size = (GBCL_txBufferWrite - GBCL_txBufferRead);
1290:Generated_Source\PSoC5/GBCL.c ****         }
1291:Generated_Source\PSoC5/GBCL.c ****         else
1292:Generated_Source\PSoC5/GBCL.c ****         {
1293:Generated_Source\PSoC5/GBCL.c ****             size = (GBCL_TX_BUFFER_SIZE - GBCL_txBufferRead) +
1294:Generated_Source\PSoC5/GBCL.c ****                     GBCL_txBufferWrite;
1295:Generated_Source\PSoC5/GBCL.c ****         }
1296:Generated_Source\PSoC5/GBCL.c **** 
1297:Generated_Source\PSoC5/GBCL.c ****         GBCL_EnableTxInt();
1298:Generated_Source\PSoC5/GBCL.c **** 
1299:Generated_Source\PSoC5/GBCL.c ****     #else
1300:Generated_Source\PSoC5/GBCL.c **** 
1301:Generated_Source\PSoC5/GBCL.c ****         size = GBCL_TXSTATUS_REG;
 1074              		.loc 1 1301 0
 1075 0000 074B     		ldr	r3, .L106
 1076 0002 1B78     		ldrb	r3, [r3]	@ zero_extendqisi2
 1077 0004 DBB2     		uxtb	r3, r3
 1078              	.LVL76:
1302:Generated_Source\PSoC5/GBCL.c **** 
1303:Generated_Source\PSoC5/GBCL.c ****         /* Is the fifo is full. */
1304:Generated_Source\PSoC5/GBCL.c ****         if((size & GBCL_TX_STS_FIFO_FULL) != 0u)
 1079              		.loc 1 1304 0
 1080 0006 13F0040F 		tst	r3, #4
ARM GAS  C:\Users\THERMA~1\AppData\Local\Temp\ccQ3Sx9h.s 			page 43


 1081 000a 04D1     		bne	.L104
1305:Generated_Source\PSoC5/GBCL.c ****         {
1306:Generated_Source\PSoC5/GBCL.c ****             size = GBCL_FIFO_LENGTH;
1307:Generated_Source\PSoC5/GBCL.c ****         }
1308:Generated_Source\PSoC5/GBCL.c ****         else if((size & GBCL_TX_STS_FIFO_EMPTY) != 0u)
 1082              		.loc 1 1308 0
 1083 000c 13F0020F 		tst	r3, #2
 1084 0010 03D0     		beq	.L105
1309:Generated_Source\PSoC5/GBCL.c ****         {
1310:Generated_Source\PSoC5/GBCL.c ****             size = 0u;
 1085              		.loc 1 1310 0
 1086 0012 0020     		movs	r0, #0
 1087 0014 7047     		bx	lr
 1088              	.L104:
1306:Generated_Source\PSoC5/GBCL.c ****         }
 1089              		.loc 1 1306 0
 1090 0016 0420     		movs	r0, #4
 1091 0018 7047     		bx	lr
 1092              	.L105:
1311:Generated_Source\PSoC5/GBCL.c ****         }
1312:Generated_Source\PSoC5/GBCL.c ****         else
1313:Generated_Source\PSoC5/GBCL.c ****         {
1314:Generated_Source\PSoC5/GBCL.c ****             /* We only know there is data in the fifo. */
1315:Generated_Source\PSoC5/GBCL.c ****             size = 1u;
 1093              		.loc 1 1315 0
 1094 001a 0120     		movs	r0, #1
 1095              	.LVL77:
1316:Generated_Source\PSoC5/GBCL.c ****         }
1317:Generated_Source\PSoC5/GBCL.c **** 
1318:Generated_Source\PSoC5/GBCL.c ****     #endif /* (GBCL_TX_INTERRUPT_ENABLED) */
1319:Generated_Source\PSoC5/GBCL.c **** 
1320:Generated_Source\PSoC5/GBCL.c ****     return(size);
1321:Generated_Source\PSoC5/GBCL.c ****     }
 1096              		.loc 1 1321 0
 1097 001c 7047     		bx	lr
 1098              	.L107:
 1099 001e 00BF     		.align	2
 1100              	.L106:
 1101 0020 6C640040 		.word	1073767532
 1102              		.cfi_endproc
 1103              	.LFE23:
 1104              		.size	GBCL_GetTxBufferSize, .-GBCL_GetTxBufferSize
 1105              		.section	.text.GBCL_ClearTxBuffer,"ax",%progbits
 1106              		.align	2
 1107              		.global	GBCL_ClearTxBuffer
 1108              		.thumb
 1109              		.thumb_func
 1110              		.type	GBCL_ClearTxBuffer, %function
 1111              	GBCL_ClearTxBuffer:
 1112              	.LFB24:
1322:Generated_Source\PSoC5/GBCL.c **** 
1323:Generated_Source\PSoC5/GBCL.c **** 
1324:Generated_Source\PSoC5/GBCL.c ****     /*******************************************************************************
1325:Generated_Source\PSoC5/GBCL.c ****     * Function Name: GBCL_ClearTxBuffer
1326:Generated_Source\PSoC5/GBCL.c ****     ********************************************************************************
1327:Generated_Source\PSoC5/GBCL.c ****     *
1328:Generated_Source\PSoC5/GBCL.c ****     * Summary:
ARM GAS  C:\Users\THERMA~1\AppData\Local\Temp\ccQ3Sx9h.s 			page 44


1329:Generated_Source\PSoC5/GBCL.c ****     *  Clears all data from the TX buffer and hardware TX FIFO.
1330:Generated_Source\PSoC5/GBCL.c ****     *
1331:Generated_Source\PSoC5/GBCL.c ****     * Parameters:
1332:Generated_Source\PSoC5/GBCL.c ****     *  None.
1333:Generated_Source\PSoC5/GBCL.c ****     *
1334:Generated_Source\PSoC5/GBCL.c ****     * Return:
1335:Generated_Source\PSoC5/GBCL.c ****     *  None.
1336:Generated_Source\PSoC5/GBCL.c ****     *
1337:Generated_Source\PSoC5/GBCL.c ****     * Global Variables:
1338:Generated_Source\PSoC5/GBCL.c ****     *  GBCL_txBufferWrite - cleared to zero.
1339:Generated_Source\PSoC5/GBCL.c ****     *  GBCL_txBufferRead - cleared to zero.
1340:Generated_Source\PSoC5/GBCL.c ****     *
1341:Generated_Source\PSoC5/GBCL.c ****     * Reentrant:
1342:Generated_Source\PSoC5/GBCL.c ****     *  No.
1343:Generated_Source\PSoC5/GBCL.c ****     *
1344:Generated_Source\PSoC5/GBCL.c ****     * Theory:
1345:Generated_Source\PSoC5/GBCL.c ****     *  Setting the pointers to zero makes the system believe there is no data to
1346:Generated_Source\PSoC5/GBCL.c ****     *  read and writing will resume at address 0 overwriting any data that may have
1347:Generated_Source\PSoC5/GBCL.c ****     *  remained in the RAM.
1348:Generated_Source\PSoC5/GBCL.c ****     *
1349:Generated_Source\PSoC5/GBCL.c ****     * Side Effects:
1350:Generated_Source\PSoC5/GBCL.c ****     *  Data waiting in the transmit buffer is not sent; a byte that is currently
1351:Generated_Source\PSoC5/GBCL.c ****     *  transmitting finishes transmitting.
1352:Generated_Source\PSoC5/GBCL.c ****     *
1353:Generated_Source\PSoC5/GBCL.c ****     *******************************************************************************/
1354:Generated_Source\PSoC5/GBCL.c ****     void GBCL_ClearTxBuffer(void) 
1355:Generated_Source\PSoC5/GBCL.c ****     {
 1113              		.loc 1 1355 0
 1114              		.cfi_startproc
 1115              		@ args = 0, pretend = 0, frame = 0
 1116              		@ frame_needed = 0, uses_anonymous_args = 0
 1117 0000 08B5     		push	{r3, lr}
 1118              		.cfi_def_cfa_offset 8
 1119              		.cfi_offset 3, -8
 1120              		.cfi_offset 14, -4
1356:Generated_Source\PSoC5/GBCL.c ****         uint8 enableInterrupts;
1357:Generated_Source\PSoC5/GBCL.c **** 
1358:Generated_Source\PSoC5/GBCL.c ****         enableInterrupts = CyEnterCriticalSection();
 1121              		.loc 1 1358 0
 1122 0002 FFF7FEFF 		bl	CyEnterCriticalSection
 1123              	.LVL78:
1359:Generated_Source\PSoC5/GBCL.c ****         /* Clear the HW FIFO */
1360:Generated_Source\PSoC5/GBCL.c ****         GBCL_TXDATA_AUX_CTL_REG |= (uint8)  GBCL_TX_FIFO_CLR;
 1124              		.loc 1 1360 0
 1125 0006 064B     		ldr	r3, .L110
 1126 0008 1A78     		ldrb	r2, [r3]	@ zero_extendqisi2
 1127 000a 42F00102 		orr	r2, r2, #1
 1128 000e 1A70     		strb	r2, [r3]
1361:Generated_Source\PSoC5/GBCL.c ****         GBCL_TXDATA_AUX_CTL_REG &= (uint8) ~GBCL_TX_FIFO_CLR;
 1129              		.loc 1 1361 0
 1130 0010 1A78     		ldrb	r2, [r3]	@ zero_extendqisi2
 1131 0012 02F0FE02 		and	r2, r2, #254
 1132 0016 1A70     		strb	r2, [r3]
1362:Generated_Source\PSoC5/GBCL.c ****         CyExitCriticalSection(enableInterrupts);
 1133              		.loc 1 1362 0
 1134 0018 FFF7FEFF 		bl	CyExitCriticalSection
 1135              	.LVL79:
ARM GAS  C:\Users\THERMA~1\AppData\Local\Temp\ccQ3Sx9h.s 			page 45


 1136 001c 08BD     		pop	{r3, pc}
 1137              	.L111:
 1138 001e 00BF     		.align	2
 1139              	.L110:
 1140 0020 9C640040 		.word	1073767580
 1141              		.cfi_endproc
 1142              	.LFE24:
 1143              		.size	GBCL_ClearTxBuffer, .-GBCL_ClearTxBuffer
 1144              		.section	.text.GBCL_SendBreak,"ax",%progbits
 1145              		.align	2
 1146              		.global	GBCL_SendBreak
 1147              		.thumb
 1148              		.thumb_func
 1149              		.type	GBCL_SendBreak, %function
 1150              	GBCL_SendBreak:
 1151              	.LFB25:
1363:Generated_Source\PSoC5/GBCL.c **** 
1364:Generated_Source\PSoC5/GBCL.c ****     #if (GBCL_TX_INTERRUPT_ENABLED)
1365:Generated_Source\PSoC5/GBCL.c **** 
1366:Generated_Source\PSoC5/GBCL.c ****         /* Protect variables that could change on interrupt. */
1367:Generated_Source\PSoC5/GBCL.c ****         GBCL_DisableTxInt();
1368:Generated_Source\PSoC5/GBCL.c **** 
1369:Generated_Source\PSoC5/GBCL.c ****         GBCL_txBufferRead = 0u;
1370:Generated_Source\PSoC5/GBCL.c ****         GBCL_txBufferWrite = 0u;
1371:Generated_Source\PSoC5/GBCL.c **** 
1372:Generated_Source\PSoC5/GBCL.c ****         /* Enable Tx interrupt. */
1373:Generated_Source\PSoC5/GBCL.c ****         GBCL_EnableTxInt();
1374:Generated_Source\PSoC5/GBCL.c **** 
1375:Generated_Source\PSoC5/GBCL.c ****     #endif /* (GBCL_TX_INTERRUPT_ENABLED) */
1376:Generated_Source\PSoC5/GBCL.c ****     }
1377:Generated_Source\PSoC5/GBCL.c **** 
1378:Generated_Source\PSoC5/GBCL.c **** 
1379:Generated_Source\PSoC5/GBCL.c ****     /*******************************************************************************
1380:Generated_Source\PSoC5/GBCL.c ****     * Function Name: GBCL_SendBreak
1381:Generated_Source\PSoC5/GBCL.c ****     ********************************************************************************
1382:Generated_Source\PSoC5/GBCL.c ****     *
1383:Generated_Source\PSoC5/GBCL.c ****     * Summary:
1384:Generated_Source\PSoC5/GBCL.c ****     *  Transmits a break signal on the bus.
1385:Generated_Source\PSoC5/GBCL.c ****     *
1386:Generated_Source\PSoC5/GBCL.c ****     * Parameters:
1387:Generated_Source\PSoC5/GBCL.c ****     *  uint8 retMode:  Send Break return mode. See the following table for options.
1388:Generated_Source\PSoC5/GBCL.c ****     *   GBCL_SEND_BREAK - Initialize registers for break, send the Break
1389:Generated_Source\PSoC5/GBCL.c ****     *       signal and return immediately.
1390:Generated_Source\PSoC5/GBCL.c ****     *   GBCL_WAIT_FOR_COMPLETE_REINIT - Wait until break transmission is
1391:Generated_Source\PSoC5/GBCL.c ****     *       complete, reinitialize registers to normal transmission mode then return
1392:Generated_Source\PSoC5/GBCL.c ****     *   GBCL_REINIT - Reinitialize registers to normal transmission mode
1393:Generated_Source\PSoC5/GBCL.c ****     *       then return.
1394:Generated_Source\PSoC5/GBCL.c ****     *   GBCL_SEND_WAIT_REINIT - Performs both options: 
1395:Generated_Source\PSoC5/GBCL.c ****     *      GBCL_SEND_BREAK and GBCL_WAIT_FOR_COMPLETE_REINIT.
1396:Generated_Source\PSoC5/GBCL.c ****     *      This option is recommended for most cases.
1397:Generated_Source\PSoC5/GBCL.c ****     *
1398:Generated_Source\PSoC5/GBCL.c ****     * Return:
1399:Generated_Source\PSoC5/GBCL.c ****     *  None.
1400:Generated_Source\PSoC5/GBCL.c ****     *
1401:Generated_Source\PSoC5/GBCL.c ****     * Global Variables:
1402:Generated_Source\PSoC5/GBCL.c ****     *  GBCL_initVar - checked to identify that the component has been
1403:Generated_Source\PSoC5/GBCL.c ****     *     initialized.
ARM GAS  C:\Users\THERMA~1\AppData\Local\Temp\ccQ3Sx9h.s 			page 46


1404:Generated_Source\PSoC5/GBCL.c ****     *  txPeriod - static variable, used for keeping TX period configuration.
1405:Generated_Source\PSoC5/GBCL.c ****     *
1406:Generated_Source\PSoC5/GBCL.c ****     * Reentrant:
1407:Generated_Source\PSoC5/GBCL.c ****     *  No.
1408:Generated_Source\PSoC5/GBCL.c ****     *
1409:Generated_Source\PSoC5/GBCL.c ****     * Theory:
1410:Generated_Source\PSoC5/GBCL.c ****     *  SendBreak function initializes registers to send 13-bit break signal. It is
1411:Generated_Source\PSoC5/GBCL.c ****     *  important to return the registers configuration to normal for continue 8-bit
1412:Generated_Source\PSoC5/GBCL.c ****     *  operation.
1413:Generated_Source\PSoC5/GBCL.c ****     *  There are 3 variants for this API usage:
1414:Generated_Source\PSoC5/GBCL.c ****     *  1) SendBreak(3) - function will send the Break signal and take care on the
1415:Generated_Source\PSoC5/GBCL.c ****     *     configuration returning. Function will block CPU until transmission
1416:Generated_Source\PSoC5/GBCL.c ****     *     complete.
1417:Generated_Source\PSoC5/GBCL.c ****     *  2) User may want to use blocking time if UART configured to the low speed
1418:Generated_Source\PSoC5/GBCL.c ****     *     operation
1419:Generated_Source\PSoC5/GBCL.c ****     *     Example for this case:
1420:Generated_Source\PSoC5/GBCL.c ****     *     SendBreak(0);     - initialize Break signal transmission
1421:Generated_Source\PSoC5/GBCL.c ****     *         Add your code here to use CPU time
1422:Generated_Source\PSoC5/GBCL.c ****     *     SendBreak(1);     - complete Break operation
1423:Generated_Source\PSoC5/GBCL.c ****     *  3) Same to 2) but user may want to initialize and use the interrupt to
1424:Generated_Source\PSoC5/GBCL.c ****     *     complete break operation.
1425:Generated_Source\PSoC5/GBCL.c ****     *     Example for this case:
1426:Generated_Source\PSoC5/GBCL.c ****     *     Initialize TX interrupt with "TX - On TX Complete" parameter
1427:Generated_Source\PSoC5/GBCL.c ****     *     SendBreak(0);     - initialize Break signal transmission
1428:Generated_Source\PSoC5/GBCL.c ****     *         Add your code here to use CPU time
1429:Generated_Source\PSoC5/GBCL.c ****     *     When interrupt appear with GBCL_TX_STS_COMPLETE status:
1430:Generated_Source\PSoC5/GBCL.c ****     *     SendBreak(2);     - complete Break operation
1431:Generated_Source\PSoC5/GBCL.c ****     *
1432:Generated_Source\PSoC5/GBCL.c ****     * Side Effects:
1433:Generated_Source\PSoC5/GBCL.c ****     *  The GBCL_SendBreak() function initializes registers to send a
1434:Generated_Source\PSoC5/GBCL.c ****     *  break signal.
1435:Generated_Source\PSoC5/GBCL.c ****     *  Break signal length depends on the break signal bits configuration.
1436:Generated_Source\PSoC5/GBCL.c ****     *  The register configuration should be reinitialized before normal 8-bit
1437:Generated_Source\PSoC5/GBCL.c ****     *  communication can continue.
1438:Generated_Source\PSoC5/GBCL.c ****     *
1439:Generated_Source\PSoC5/GBCL.c ****     *******************************************************************************/
1440:Generated_Source\PSoC5/GBCL.c ****     void GBCL_SendBreak(uint8 retMode) 
1441:Generated_Source\PSoC5/GBCL.c ****     {
 1152              		.loc 1 1441 0
 1153              		.cfi_startproc
 1154              		@ args = 0, pretend = 0, frame = 0
 1155              		@ frame_needed = 0, uses_anonymous_args = 0
 1156              		@ link register save eliminated.
 1157              	.LVL80:
1442:Generated_Source\PSoC5/GBCL.c **** 
1443:Generated_Source\PSoC5/GBCL.c ****         /* If not Initialized then skip this function*/
1444:Generated_Source\PSoC5/GBCL.c ****         if(GBCL_initVar != 0u)
 1158              		.loc 1 1444 0
 1159 0000 124B     		ldr	r3, .L119
 1160 0002 5B78     		ldrb	r3, [r3, #1]	@ zero_extendqisi2
 1161 0004 0BB3     		cbz	r3, .L112
 1162              	.LBB2:
1445:Generated_Source\PSoC5/GBCL.c ****         {
1446:Generated_Source\PSoC5/GBCL.c ****             /* Set the Counter to 13-bits and transmit a 00 byte */
1447:Generated_Source\PSoC5/GBCL.c ****             /* When that is done then reset the counter value back */
1448:Generated_Source\PSoC5/GBCL.c ****             uint8 tmpStat;
1449:Generated_Source\PSoC5/GBCL.c **** 
ARM GAS  C:\Users\THERMA~1\AppData\Local\Temp\ccQ3Sx9h.s 			page 47


1450:Generated_Source\PSoC5/GBCL.c ****         #if(GBCL_HD_ENABLED) /* Half Duplex mode*/
1451:Generated_Source\PSoC5/GBCL.c **** 
1452:Generated_Source\PSoC5/GBCL.c ****             if( (retMode == GBCL_SEND_BREAK) ||
1453:Generated_Source\PSoC5/GBCL.c ****                 (retMode == GBCL_SEND_WAIT_REINIT ) )
1454:Generated_Source\PSoC5/GBCL.c ****             {
1455:Generated_Source\PSoC5/GBCL.c ****                 /* CTRL_HD_SEND_BREAK - sends break bits in HD mode */
1456:Generated_Source\PSoC5/GBCL.c ****                 GBCL_WriteControlRegister(GBCL_ReadControlRegister() |
1457:Generated_Source\PSoC5/GBCL.c ****                                                       GBCL_CTRL_HD_SEND_BREAK);
1458:Generated_Source\PSoC5/GBCL.c ****                 /* Send zeros */
1459:Generated_Source\PSoC5/GBCL.c ****                 GBCL_TXDATA_REG = 0u;
1460:Generated_Source\PSoC5/GBCL.c **** 
1461:Generated_Source\PSoC5/GBCL.c ****                 do /* Wait until transmit starts */
1462:Generated_Source\PSoC5/GBCL.c ****                 {
1463:Generated_Source\PSoC5/GBCL.c ****                     tmpStat = GBCL_TXSTATUS_REG;
1464:Generated_Source\PSoC5/GBCL.c ****                 }
1465:Generated_Source\PSoC5/GBCL.c ****                 while((tmpStat & GBCL_TX_STS_FIFO_EMPTY) != 0u);
1466:Generated_Source\PSoC5/GBCL.c ****             }
1467:Generated_Source\PSoC5/GBCL.c **** 
1468:Generated_Source\PSoC5/GBCL.c ****             if( (retMode == GBCL_WAIT_FOR_COMPLETE_REINIT) ||
1469:Generated_Source\PSoC5/GBCL.c ****                 (retMode == GBCL_SEND_WAIT_REINIT) )
1470:Generated_Source\PSoC5/GBCL.c ****             {
1471:Generated_Source\PSoC5/GBCL.c ****                 do /* Wait until transmit complete */
1472:Generated_Source\PSoC5/GBCL.c ****                 {
1473:Generated_Source\PSoC5/GBCL.c ****                     tmpStat = GBCL_TXSTATUS_REG;
1474:Generated_Source\PSoC5/GBCL.c ****                 }
1475:Generated_Source\PSoC5/GBCL.c ****                 while(((uint8)~tmpStat & GBCL_TX_STS_COMPLETE) != 0u);
1476:Generated_Source\PSoC5/GBCL.c ****             }
1477:Generated_Source\PSoC5/GBCL.c **** 
1478:Generated_Source\PSoC5/GBCL.c ****             if( (retMode == GBCL_WAIT_FOR_COMPLETE_REINIT) ||
1479:Generated_Source\PSoC5/GBCL.c ****                 (retMode == GBCL_REINIT) ||
1480:Generated_Source\PSoC5/GBCL.c ****                 (retMode == GBCL_SEND_WAIT_REINIT) )
1481:Generated_Source\PSoC5/GBCL.c ****             {
1482:Generated_Source\PSoC5/GBCL.c ****                 GBCL_WriteControlRegister(GBCL_ReadControlRegister() &
1483:Generated_Source\PSoC5/GBCL.c ****                                               (uint8)~GBCL_CTRL_HD_SEND_BREAK);
1484:Generated_Source\PSoC5/GBCL.c ****             }
1485:Generated_Source\PSoC5/GBCL.c **** 
1486:Generated_Source\PSoC5/GBCL.c ****         #else /* GBCL_HD_ENABLED Full Duplex mode */
1487:Generated_Source\PSoC5/GBCL.c **** 
1488:Generated_Source\PSoC5/GBCL.c ****             static uint8 txPeriod;
1489:Generated_Source\PSoC5/GBCL.c **** 
1490:Generated_Source\PSoC5/GBCL.c ****             if( (retMode == GBCL_SEND_BREAK) ||
 1163              		.loc 1 1490 0
 1164 0006 08B1     		cbz	r0, .L114
 1165              		.loc 1 1490 0 is_stmt 0 discriminator 1
 1166 0008 0328     		cmp	r0, #3
 1167 000a 0DD1     		bne	.L115
 1168              	.L114:
1491:Generated_Source\PSoC5/GBCL.c ****                 (retMode == GBCL_SEND_WAIT_REINIT) )
1492:Generated_Source\PSoC5/GBCL.c ****             {
1493:Generated_Source\PSoC5/GBCL.c ****                 /* CTRL_HD_SEND_BREAK - skip to send parity bit at Break signal in Full Duplex mode
1494:Generated_Source\PSoC5/GBCL.c ****                 #if( (GBCL_PARITY_TYPE != GBCL__B_UART__NONE_REVB) || \
1495:Generated_Source\PSoC5/GBCL.c ****                                     (GBCL_PARITY_TYPE_SW != 0u) )
1496:Generated_Source\PSoC5/GBCL.c ****                     GBCL_WriteControlRegister(GBCL_ReadControlRegister() |
1497:Generated_Source\PSoC5/GBCL.c ****                                                           GBCL_CTRL_HD_SEND_BREAK);
1498:Generated_Source\PSoC5/GBCL.c ****                 #endif /* End GBCL_PARITY_TYPE != GBCL__B_UART__NONE_REVB  */
1499:Generated_Source\PSoC5/GBCL.c **** 
1500:Generated_Source\PSoC5/GBCL.c ****                 #if(GBCL_TXCLKGEN_DP)
ARM GAS  C:\Users\THERMA~1\AppData\Local\Temp\ccQ3Sx9h.s 			page 48


1501:Generated_Source\PSoC5/GBCL.c ****                     txPeriod = GBCL_TXBITCLKTX_COMPLETE_REG;
 1169              		.loc 1 1501 0 is_stmt 1
 1170 000c 104B     		ldr	r3, .L119+4
 1171 000e 1978     		ldrb	r1, [r3]	@ zero_extendqisi2
 1172 0010 0E4A     		ldr	r2, .L119
 1173 0012 9171     		strb	r1, [r2, #6]
1502:Generated_Source\PSoC5/GBCL.c ****                     GBCL_TXBITCLKTX_COMPLETE_REG = GBCL_TXBITCTR_BREAKBITS;
 1174              		.loc 1 1502 0
 1175 0014 6722     		movs	r2, #103
 1176 0016 1A70     		strb	r2, [r3]
1503:Generated_Source\PSoC5/GBCL.c ****                 #else
1504:Generated_Source\PSoC5/GBCL.c ****                     txPeriod = GBCL_TXBITCTR_PERIOD_REG;
1505:Generated_Source\PSoC5/GBCL.c ****                     GBCL_TXBITCTR_PERIOD_REG = GBCL_TXBITCTR_BREAKBITS8X;
1506:Generated_Source\PSoC5/GBCL.c ****                 #endif /* End GBCL_TXCLKGEN_DP */
1507:Generated_Source\PSoC5/GBCL.c **** 
1508:Generated_Source\PSoC5/GBCL.c ****                 /* Send zeros */
1509:Generated_Source\PSoC5/GBCL.c ****                 GBCL_TXDATA_REG = 0u;
 1177              		.loc 1 1509 0
 1178 0018 0022     		movs	r2, #0
 1179 001a 0D33     		adds	r3, r3, #13
 1180 001c 1A70     		strb	r2, [r3]
 1181              	.L116:
1510:Generated_Source\PSoC5/GBCL.c **** 
1511:Generated_Source\PSoC5/GBCL.c ****                 do /* Wait until transmit starts */
1512:Generated_Source\PSoC5/GBCL.c ****                 {
1513:Generated_Source\PSoC5/GBCL.c ****                     tmpStat = GBCL_TXSTATUS_REG;
 1182              		.loc 1 1513 0 discriminator 1
 1183 001e 0D4B     		ldr	r3, .L119+8
 1184 0020 1B78     		ldrb	r3, [r3]	@ zero_extendqisi2
 1185              	.LVL81:
1514:Generated_Source\PSoC5/GBCL.c ****                 }
1515:Generated_Source\PSoC5/GBCL.c ****                 while((tmpStat & GBCL_TX_STS_FIFO_EMPTY) != 0u);
 1186              		.loc 1 1515 0 discriminator 1
 1187 0022 13F0020F 		tst	r3, #2
 1188 0026 FAD1     		bne	.L116
 1189              	.LVL82:
 1190              	.L115:
1516:Generated_Source\PSoC5/GBCL.c ****             }
1517:Generated_Source\PSoC5/GBCL.c **** 
1518:Generated_Source\PSoC5/GBCL.c ****             if( (retMode == GBCL_WAIT_FOR_COMPLETE_REINIT) ||
 1191              		.loc 1 1518 0
 1192 0028 0128     		cmp	r0, #1
 1193 002a 01D0     		beq	.L117
 1194              		.loc 1 1518 0 is_stmt 0 discriminator 1
 1195 002c 0328     		cmp	r0, #3
 1196 002e 04D1     		bne	.L118
 1197              	.L117:
1519:Generated_Source\PSoC5/GBCL.c ****                 (retMode == GBCL_SEND_WAIT_REINIT) )
1520:Generated_Source\PSoC5/GBCL.c ****             {
1521:Generated_Source\PSoC5/GBCL.c ****                 do /* Wait until transmit complete */
1522:Generated_Source\PSoC5/GBCL.c ****                 {
1523:Generated_Source\PSoC5/GBCL.c ****                     tmpStat = GBCL_TXSTATUS_REG;
 1198              		.loc 1 1523 0 is_stmt 1 discriminator 1
 1199 0030 084B     		ldr	r3, .L119+8
 1200 0032 1B78     		ldrb	r3, [r3]	@ zero_extendqisi2
 1201              	.LVL83:
1524:Generated_Source\PSoC5/GBCL.c ****                 }
ARM GAS  C:\Users\THERMA~1\AppData\Local\Temp\ccQ3Sx9h.s 			page 49


1525:Generated_Source\PSoC5/GBCL.c ****                 while(((uint8)~tmpStat & GBCL_TX_STS_COMPLETE) != 0u);
 1202              		.loc 1 1525 0 discriminator 1
 1203 0034 13F0010F 		tst	r3, #1
 1204 0038 FAD0     		beq	.L117
 1205              	.LVL84:
 1206              	.L118:
1526:Generated_Source\PSoC5/GBCL.c ****             }
1527:Generated_Source\PSoC5/GBCL.c **** 
1528:Generated_Source\PSoC5/GBCL.c ****             if( (retMode == GBCL_WAIT_FOR_COMPLETE_REINIT) ||
1529:Generated_Source\PSoC5/GBCL.c ****                 (retMode == GBCL_REINIT) ||
 1207              		.loc 1 1529 0
 1208 003a 0138     		subs	r0, r0, #1
 1209              	.LVL85:
 1210 003c C0B2     		uxtb	r0, r0
1528:Generated_Source\PSoC5/GBCL.c ****                 (retMode == GBCL_REINIT) ||
 1211              		.loc 1 1528 0
 1212 003e 0228     		cmp	r0, #2
 1213 0040 03D8     		bhi	.L112
1530:Generated_Source\PSoC5/GBCL.c ****                 (retMode == GBCL_SEND_WAIT_REINIT) )
1531:Generated_Source\PSoC5/GBCL.c ****             {
1532:Generated_Source\PSoC5/GBCL.c **** 
1533:Generated_Source\PSoC5/GBCL.c ****             #if(GBCL_TXCLKGEN_DP)
1534:Generated_Source\PSoC5/GBCL.c ****                 GBCL_TXBITCLKTX_COMPLETE_REG = txPeriod;
 1214              		.loc 1 1534 0
 1215 0042 024B     		ldr	r3, .L119
 1216 0044 9A79     		ldrb	r2, [r3, #6]	@ zero_extendqisi2
 1217 0046 024B     		ldr	r3, .L119+4
 1218 0048 1A70     		strb	r2, [r3]
 1219              	.L112:
 1220 004a 7047     		bx	lr
 1221              	.L120:
 1222              		.align	2
 1223              	.L119:
 1224 004c 00000000 		.word	.LANCHOR0
 1225 0050 3F640040 		.word	1073767487
 1226 0054 6C640040 		.word	1073767532
 1227              	.LBE2:
 1228              		.cfi_endproc
 1229              	.LFE25:
 1230              		.size	GBCL_SendBreak, .-GBCL_SendBreak
 1231              		.section	.text.GBCL_SetTxAddressMode,"ax",%progbits
 1232              		.align	2
 1233              		.global	GBCL_SetTxAddressMode
 1234              		.thumb
 1235              		.thumb_func
 1236              		.type	GBCL_SetTxAddressMode, %function
 1237              	GBCL_SetTxAddressMode:
 1238              	.LFB26:
1535:Generated_Source\PSoC5/GBCL.c ****             #else
1536:Generated_Source\PSoC5/GBCL.c ****                 GBCL_TXBITCTR_PERIOD_REG = txPeriod;
1537:Generated_Source\PSoC5/GBCL.c ****             #endif /* End GBCL_TXCLKGEN_DP */
1538:Generated_Source\PSoC5/GBCL.c **** 
1539:Generated_Source\PSoC5/GBCL.c ****             #if( (GBCL_PARITY_TYPE != GBCL__B_UART__NONE_REVB) || \
1540:Generated_Source\PSoC5/GBCL.c ****                  (GBCL_PARITY_TYPE_SW != 0u) )
1541:Generated_Source\PSoC5/GBCL.c ****                 GBCL_WriteControlRegister(GBCL_ReadControlRegister() &
1542:Generated_Source\PSoC5/GBCL.c ****                                                       (uint8) ~GBCL_CTRL_HD_SEND_BREAK);
1543:Generated_Source\PSoC5/GBCL.c ****             #endif /* End GBCL_PARITY_TYPE != NONE */
ARM GAS  C:\Users\THERMA~1\AppData\Local\Temp\ccQ3Sx9h.s 			page 50


1544:Generated_Source\PSoC5/GBCL.c ****             }
1545:Generated_Source\PSoC5/GBCL.c ****         #endif    /* End GBCL_HD_ENABLED */
1546:Generated_Source\PSoC5/GBCL.c ****         }
1547:Generated_Source\PSoC5/GBCL.c ****     }
1548:Generated_Source\PSoC5/GBCL.c **** 
1549:Generated_Source\PSoC5/GBCL.c **** 
1550:Generated_Source\PSoC5/GBCL.c ****     /*******************************************************************************
1551:Generated_Source\PSoC5/GBCL.c ****     * Function Name: GBCL_SetTxAddressMode
1552:Generated_Source\PSoC5/GBCL.c ****     ********************************************************************************
1553:Generated_Source\PSoC5/GBCL.c ****     *
1554:Generated_Source\PSoC5/GBCL.c ****     * Summary:
1555:Generated_Source\PSoC5/GBCL.c ****     *  Configures the transmitter to signal the next bytes is address or data.
1556:Generated_Source\PSoC5/GBCL.c ****     *
1557:Generated_Source\PSoC5/GBCL.c ****     * Parameters:
1558:Generated_Source\PSoC5/GBCL.c ****     *  addressMode: 
1559:Generated_Source\PSoC5/GBCL.c ****     *       GBCL_SET_SPACE - Configure the transmitter to send the next
1560:Generated_Source\PSoC5/GBCL.c ****     *                                    byte as a data.
1561:Generated_Source\PSoC5/GBCL.c ****     *       GBCL_SET_MARK  - Configure the transmitter to send the next
1562:Generated_Source\PSoC5/GBCL.c ****     *                                    byte as an address.
1563:Generated_Source\PSoC5/GBCL.c ****     *
1564:Generated_Source\PSoC5/GBCL.c ****     * Return:
1565:Generated_Source\PSoC5/GBCL.c ****     *  None.
1566:Generated_Source\PSoC5/GBCL.c ****     *
1567:Generated_Source\PSoC5/GBCL.c ****     * Side Effects:
1568:Generated_Source\PSoC5/GBCL.c ****     *  This function sets and clears GBCL_CTRL_MARK bit in the Control
1569:Generated_Source\PSoC5/GBCL.c ****     *  register.
1570:Generated_Source\PSoC5/GBCL.c ****     *
1571:Generated_Source\PSoC5/GBCL.c ****     *******************************************************************************/
1572:Generated_Source\PSoC5/GBCL.c ****     void GBCL_SetTxAddressMode(uint8 addressMode) 
1573:Generated_Source\PSoC5/GBCL.c ****     {
 1239              		.loc 1 1573 0
 1240              		.cfi_startproc
 1241              		@ args = 0, pretend = 0, frame = 0
 1242              		@ frame_needed = 0, uses_anonymous_args = 0
 1243              		@ link register save eliminated.
 1244              	.LVL86:
 1245 0000 7047     		bx	lr
 1246              		.cfi_endproc
 1247              	.LFE26:
 1248              		.size	GBCL_SetTxAddressMode, .-GBCL_SetTxAddressMode
 1249              		.global	GBCL_rxBufferOverflow
 1250              		.global	GBCL_rxBufferLoopDetect
 1251              		.global	GBCL_rxBufferWrite
 1252              		.global	GBCL_rxBufferRead
 1253              		.comm	GBCL_rxBuffer,128,4
 1254              		.global	GBCL_errorStatus
 1255              		.global	GBCL_initVar
 1256 0002 00BF     		.bss
 1257              		.set	.LANCHOR0,. + 0
 1258              		.type	GBCL_errorStatus, %object
 1259              		.size	GBCL_errorStatus, 1
 1260              	GBCL_errorStatus:
 1261 0000 00       		.space	1
 1262              		.type	GBCL_initVar, %object
 1263              		.size	GBCL_initVar, 1
 1264              	GBCL_initVar:
 1265 0001 00       		.space	1
ARM GAS  C:\Users\THERMA~1\AppData\Local\Temp\ccQ3Sx9h.s 			page 51


 1266              		.type	GBCL_rxBufferRead, %object
 1267              		.size	GBCL_rxBufferRead, 1
 1268              	GBCL_rxBufferRead:
 1269 0002 00       		.space	1
 1270              		.type	GBCL_rxBufferWrite, %object
 1271              		.size	GBCL_rxBufferWrite, 1
 1272              	GBCL_rxBufferWrite:
 1273 0003 00       		.space	1
 1274              		.type	GBCL_rxBufferLoopDetect, %object
 1275              		.size	GBCL_rxBufferLoopDetect, 1
 1276              	GBCL_rxBufferLoopDetect:
 1277 0004 00       		.space	1
 1278              		.type	GBCL_rxBufferOverflow, %object
 1279              		.size	GBCL_rxBufferOverflow, 1
 1280              	GBCL_rxBufferOverflow:
 1281 0005 00       		.space	1
 1282              		.type	txPeriod.5118, %object
 1283              		.size	txPeriod.5118, 1
 1284              	txPeriod.5118:
 1285 0006 00       		.space	1
 1286              		.text
 1287              	.Letext0:
 1288              		.file 2 "Generated_Source\\PSoC5\\cytypes.h"
 1289              		.file 3 "Generated_Source\\PSoC5\\CyLib.h"