ARM GAS  C:\Users\THERMA~1\AppData\Local\Temp\ccMNsnm0.s 			page 1


   1              		.syntax unified
   2              		.cpu cortex-m3
   3              		.fpu softvfp
   4              		.eabi_attribute 20, 1
   5              		.eabi_attribute 21, 1
   6              		.eabi_attribute 23, 3
   7              		.eabi_attribute 24, 1
   8              		.eabi_attribute 25, 1
   9              		.eabi_attribute 26, 1
  10              		.eabi_attribute 30, 1
  11              		.eabi_attribute 34, 1
  12              		.eabi_attribute 18, 4
  13              		.thumb
  14              		.syntax unified
  15              		.file	"main.c"
  16              		.text
  17              	.Ltext0:
  18              		.cfi_sections	.debug_frame
  19              		.section	.text.main,"ax",%progbits
  20              		.align	2
  21              		.global	main
  22              		.thumb
  23              		.thumb_func
  24              		.type	main, %function
  25              	main:
  26              	.LFB63:
  27              		.file 1 "main.c"
   1:main.c        **** /* ========================================
   2:main.c        ****  *
   3:main.c        ****  * Copyright YOUR COMPANY, THE YEAR
   4:main.c        ****  * All Rights Reserved
   5:main.c        ****  * UNPUBLISHED, LICENSED SOFTWARE.
   6:main.c        ****  *
   7:main.c        ****  * CONFIDENTIAL AND PROPRIETARY INFORMATION
   8:main.c        ****  * WHICH IS THE PROPERTY OF your company.
   9:main.c        ****  *
  10:main.c        ****  * ========================================
  11:main.c        **** */
  12:main.c        **** #include "project.h"
  13:main.c        **** 
  14:main.c        **** int main(void)
  15:main.c        **** {
  28              		.loc 1 15 0
  29              		.cfi_startproc
  30              		@ args = 0, pretend = 0, frame = 0
  31              		@ frame_needed = 0, uses_anonymous_args = 0
  32 0000 38B5     		push	{r3, r4, r5, lr}
  33              		.cfi_def_cfa_offset 16
  34              		.cfi_offset 3, -16
  35              		.cfi_offset 4, -12
  36              		.cfi_offset 5, -8
  37              		.cfi_offset 14, -4
  16:main.c        ****     uint8 buffer_size;
  17:main.c        ****     uint8 SPLL;
  18:main.c        ****     uint8 bufferPOLL[100];
  19:main.c        ****     uint8 Response;
  20:main.c        ****     GBCL_Start();
ARM GAS  C:\Users\THERMA~1\AppData\Local\Temp\ccMNsnm0.s 			page 2


  38              		.loc 1 20 0
  39 0002 FFF7FEFF 		bl	GBCL_Start
  40              	.LVL0:
  21:main.c        ****     CyGlobalIntEnable; /* Enable global interrupts. */
  41              		.loc 1 21 0
  42              		.syntax unified
  43              	@ 21 "main.c" 1
  44 0006 62B6     		CPSIE   i
  45              	@ 0 "" 2
  46              		.thumb
  47              		.syntax unified
  48              	.L5:
  49              	.LVL1:
  22:main.c        **** 
  23:main.c        ****     /* Place your initialization/startup code here (e.g. MyInst_Start()) */
  24:main.c        **** 
  25:main.c        ****     for(;;)
  26:main.c        ****     {
  27:main.c        ****         /* Place your application code here. */
  28:main.c        ****         buffer_size = GBCL_GetRxBufferSize();
  50              		.loc 1 28 0
  51 0008 FFF7FEFF 		bl	GBCL_GetRxBufferSize
  52              	.LVL2:
  29:main.c        ****         if(buffer_size >= 1 ){
  53              		.loc 1 29 0
  54 000c 0546     		mov	r5, r0
  55 000e 28B9     		cbnz	r0, .L6
  56              	.LBB2:
  57 0010 07E0     		b	.L3
  58              	.LVL3:
  59              	.L4:
  30:main.c        ****             for(uint8 GBRx = 0; GBRx < buffer_size; GBRx++){
  31:main.c        ****                 bufferPOLL[GBRx] = GBCL_ReadRxData();
  60              		.loc 1 31 0 discriminator 3
  61 0012 FFF7FEFF 		bl	GBCL_ReadRxData
  62              	.LVL4:
  30:main.c        ****             for(uint8 GBRx = 0; GBRx < buffer_size; GBRx++){
  63              		.loc 1 30 0 discriminator 3
  64 0016 0134     		adds	r4, r4, #1
  65              	.LVL5:
  66 0018 E4B2     		uxtb	r4, r4
  67              	.LVL6:
  68 001a 00E0     		b	.L2
  69              	.LVL7:
  70              	.L6:
  71              	.LBE2:
  72 001c 0024     		movs	r4, #0
  73              	.LVL8:
  74              	.L2:
  75              	.LBB3:
  30:main.c        ****             for(uint8 GBRx = 0; GBRx < buffer_size; GBRx++){
  76              		.loc 1 30 0 is_stmt 0 discriminator 1
  77 001e AC42     		cmp	r4, r5
  78 0020 F7D3     		bcc	.L4
  79              	.LVL9:
  80              	.L3:
  81              	.LBE3:
ARM GAS  C:\Users\THERMA~1\AppData\Local\Temp\ccMNsnm0.s 			page 3


  32:main.c        ****             }            
  33:main.c        ****         }
  34:main.c        ****         
  35:main.c        ****         switch(bufferPOLL[0]){
  36:main.c        ****             case 0x01:
  37:main.c        ****                 Response = 0x61;
  38:main.c        ****             break;
  39:main.c        ****         }
  40:main.c        ****         
  41:main.c        ****         CyDelay(50);
  82              		.loc 1 41 0 is_stmt 1
  83 0022 3220     		movs	r0, #50
  84 0024 FFF7FEFF 		bl	CyDelay
  85              	.LVL10:
  42:main.c        ****         GBCL_PutChar(Response);
  86              		.loc 1 42 0
  87 0028 6120     		movs	r0, #97
  88 002a FFF7FEFF 		bl	GBCL_PutChar
  89              	.LVL11:
  43:main.c        ****         
  44:main.c        ****     }
  90              		.loc 1 44 0
  91 002e EBE7     		b	.L5
  92              		.cfi_endproc
  93              	.LFE63:
  94              		.size	main, .-main
  95              		.text
  96              	.Letext0:
  97              		.file 2 "c:\\program files (x86)\\cypress\\psoc creator\\4.2\\psoc creator\\import\\gnu\\arm\\5.4.
  98              		.file 3 "c:\\program files (x86)\\cypress\\psoc creator\\4.2\\psoc creator\\import\\gnu\\arm\\5.4.
  99              		.file 4 "Generated_Source\\PSoC5/cytypes.h"
 100              		.file 5 "Generated_Source\\PSoC5/GBCL.h"
 101              		.file 6 "Generated_Source\\PSoC5/CyLib.h"
 102              		.file 7 "Generated_Source\\PSoC5/core_cm3.h"